	.file	"harshithamys_hey_4_opaque.c"
	.text
	.globl	_TIG_iO_Ja39_1___uint16_identity_1_opaque_ptr_2
	.bss
	.align 8
	.type	_TIG_iO_Ja39_1___uint16_identity_1_opaque_ptr_2, @object
	.size	_TIG_iO_Ja39_1___uint16_identity_1_opaque_ptr_2, 8
_TIG_iO_Ja39_1___uint16_identity_1_opaque_ptr_2:
	.zero	8
	.globl	_TIG_iO_Ja39_1_main_1_opaque_ptr_1
	.align 8
	.type	_TIG_iO_Ja39_1_main_1_opaque_ptr_1, @object
	.size	_TIG_iO_Ja39_1_main_1_opaque_ptr_1, 8
_TIG_iO_Ja39_1_main_1_opaque_ptr_1:
	.zero	8
	.globl	_TIG_iO_Ja39_1___uint32_identity_1_opaque_list_1
	.align 8
	.type	_TIG_iO_Ja39_1___uint32_identity_1_opaque_list_1, @object
	.size	_TIG_iO_Ja39_1___uint32_identity_1_opaque_list_1, 8
_TIG_iO_Ja39_1___uint32_identity_1_opaque_list_1:
	.zero	8
	.globl	_TIG_iO_Ja39_1_main_1_opaque_list_1
	.align 8
	.type	_TIG_iO_Ja39_1_main_1_opaque_list_1, @object
	.size	_TIG_iO_Ja39_1_main_1_opaque_list_1, 8
_TIG_iO_Ja39_1_main_1_opaque_list_1:
	.zero	8
	.globl	_TIG_iO_Ja39_1_insert_1_opaque_list_2
	.align 8
	.type	_TIG_iO_Ja39_1_insert_1_opaque_list_2, @object
	.size	_TIG_iO_Ja39_1_insert_1_opaque_list_2, 8
_TIG_iO_Ja39_1_insert_1_opaque_list_2:
	.zero	8
	.globl	rear
	.align 4
	.type	rear, @object
	.size	rear, 4
rear:
	.zero	4
	.globl	pjob
	.align 32
	.type	pjob, @object
	.size	pjob, 40
pjob:
	.zero	40
	.globl	_TIG_iO_Ja39_1___bswap_32_1_opaque_list_1
	.align 8
	.type	_TIG_iO_Ja39_1___bswap_32_1_opaque_list_1, @object
	.size	_TIG_iO_Ja39_1___bswap_32_1_opaque_list_1, 8
_TIG_iO_Ja39_1___bswap_32_1_opaque_list_1:
	.zero	8
	.globl	_TIG_iO_Ja39_1___uint32_identity_1_opaque_list_2
	.align 8
	.type	_TIG_iO_Ja39_1___uint32_identity_1_opaque_list_2, @object
	.size	_TIG_iO_Ja39_1___uint32_identity_1_opaque_list_2, 8
_TIG_iO_Ja39_1___uint32_identity_1_opaque_list_2:
	.zero	8
	.globl	_TIG_iO_Ja39_1_display_1_opaque_list_1
	.align 8
	.type	_TIG_iO_Ja39_1_display_1_opaque_list_1, @object
	.size	_TIG_iO_Ja39_1_display_1_opaque_list_1, 8
_TIG_iO_Ja39_1_display_1_opaque_list_1:
	.zero	8
	.globl	_TIG_iO_Ja39_1_display_1_opaque_ptr_1
	.align 8
	.type	_TIG_iO_Ja39_1_display_1_opaque_ptr_1, @object
	.size	_TIG_iO_Ja39_1_display_1_opaque_ptr_1, 8
_TIG_iO_Ja39_1_display_1_opaque_ptr_1:
	.zero	8
	.globl	_TIG_iO_Ja39_1_display_1_opaque_list_2
	.align 8
	.type	_TIG_iO_Ja39_1_display_1_opaque_list_2, @object
	.size	_TIG_iO_Ja39_1_display_1_opaque_list_2, 8
_TIG_iO_Ja39_1_display_1_opaque_list_2:
	.zero	8
	.globl	_TIG_iO_Ja39_1_main_1_opaque_ptr_2
	.align 8
	.type	_TIG_iO_Ja39_1_main_1_opaque_ptr_2, @object
	.size	_TIG_iO_Ja39_1_main_1_opaque_ptr_2, 8
_TIG_iO_Ja39_1_main_1_opaque_ptr_2:
	.zero	8
	.globl	_TIG_IZ_Ja39_envp
	.align 8
	.type	_TIG_IZ_Ja39_envp, @object
	.size	_TIG_IZ_Ja39_envp, 8
_TIG_IZ_Ja39_envp:
	.zero	8
	.globl	_TIG_iO_Ja39_1___uint16_identity_1_opaque_list_1
	.align 8
	.type	_TIG_iO_Ja39_1___uint16_identity_1_opaque_list_1, @object
	.size	_TIG_iO_Ja39_1___uint16_identity_1_opaque_list_1, 8
_TIG_iO_Ja39_1___uint16_identity_1_opaque_list_1:
	.zero	8
	.globl	_TIG_iO_Ja39_1___bswap_64_1_opaque_list_1
	.align 8
	.type	_TIG_iO_Ja39_1___bswap_64_1_opaque_list_1, @object
	.size	_TIG_iO_Ja39_1___bswap_64_1_opaque_list_1, 8
_TIG_iO_Ja39_1___bswap_64_1_opaque_list_1:
	.zero	8
	.globl	_TIG_iO_Ja39_1___bswap_32_1_opaque_ptr_2
	.align 8
	.type	_TIG_iO_Ja39_1___bswap_32_1_opaque_ptr_2, @object
	.size	_TIG_iO_Ja39_1___bswap_32_1_opaque_ptr_2, 8
_TIG_iO_Ja39_1___bswap_32_1_opaque_ptr_2:
	.zero	8
	.globl	_TIG_iO_Ja39_1___uint16_identity_1_opaque_ptr_1
	.align 8
	.type	_TIG_iO_Ja39_1___uint16_identity_1_opaque_ptr_1, @object
	.size	_TIG_iO_Ja39_1___uint16_identity_1_opaque_ptr_1, 8
_TIG_iO_Ja39_1___uint16_identity_1_opaque_ptr_1:
	.zero	8
	.globl	_TIG_iO_Ja39_1___bswap_32_1_opaque_list_2
	.align 8
	.type	_TIG_iO_Ja39_1___bswap_32_1_opaque_list_2, @object
	.size	_TIG_iO_Ja39_1___bswap_32_1_opaque_list_2, 8
_TIG_iO_Ja39_1___bswap_32_1_opaque_list_2:
	.zero	8
	.globl	_TIG_iO_Ja39_1___uint16_identity_1_opaque_list_2
	.align 8
	.type	_TIG_iO_Ja39_1___uint16_identity_1_opaque_list_2, @object
	.size	_TIG_iO_Ja39_1___uint16_identity_1_opaque_list_2, 8
_TIG_iO_Ja39_1___uint16_identity_1_opaque_list_2:
	.zero	8
	.globl	_TIG_iO_Ja39_1___uint32_identity_1_opaque_ptr_1
	.align 8
	.type	_TIG_iO_Ja39_1___uint32_identity_1_opaque_ptr_1, @object
	.size	_TIG_iO_Ja39_1___uint32_identity_1_opaque_ptr_1, 8
_TIG_iO_Ja39_1___uint32_identity_1_opaque_ptr_1:
	.zero	8
	.globl	_TIG_iO_Ja39_1___bswap_16_1_opaque_list_1
	.align 8
	.type	_TIG_iO_Ja39_1___bswap_16_1_opaque_list_1, @object
	.size	_TIG_iO_Ja39_1___bswap_16_1_opaque_list_1, 8
_TIG_iO_Ja39_1___bswap_16_1_opaque_list_1:
	.zero	8
	.globl	_TIG_iO_Ja39_1___bswap_64_1_opaque_ptr_1
	.align 8
	.type	_TIG_iO_Ja39_1___bswap_64_1_opaque_ptr_1, @object
	.size	_TIG_iO_Ja39_1___bswap_64_1_opaque_ptr_1, 8
_TIG_iO_Ja39_1___bswap_64_1_opaque_ptr_1:
	.zero	8
	.globl	_TIG_IZ_Ja39_argv
	.align 8
	.type	_TIG_IZ_Ja39_argv, @object
	.size	_TIG_IZ_Ja39_argv, 8
_TIG_IZ_Ja39_argv:
	.zero	8
	.globl	_TIG_iO_Ja39_1___uint64_identity_1_opaque_list_2
	.align 8
	.type	_TIG_iO_Ja39_1___uint64_identity_1_opaque_list_2, @object
	.size	_TIG_iO_Ja39_1___uint64_identity_1_opaque_list_2, 8
_TIG_iO_Ja39_1___uint64_identity_1_opaque_list_2:
	.zero	8
	.globl	_TIG_iO_Ja39_1_main_1_opaque_list_2
	.align 8
	.type	_TIG_iO_Ja39_1_main_1_opaque_list_2, @object
	.size	_TIG_iO_Ja39_1_main_1_opaque_list_2, 8
_TIG_iO_Ja39_1_main_1_opaque_list_2:
	.zero	8
	.globl	_TIG_iO_Ja39_1_delete_1_opaque_ptr_2
	.align 8
	.type	_TIG_iO_Ja39_1_delete_1_opaque_ptr_2, @object
	.size	_TIG_iO_Ja39_1_delete_1_opaque_ptr_2, 8
_TIG_iO_Ja39_1_delete_1_opaque_ptr_2:
	.zero	8
	.globl	_TIG_iO_Ja39_1___uint32_identity_1_opaque_ptr_2
	.align 8
	.type	_TIG_iO_Ja39_1___uint32_identity_1_opaque_ptr_2, @object
	.size	_TIG_iO_Ja39_1___uint32_identity_1_opaque_ptr_2, 8
_TIG_iO_Ja39_1___uint32_identity_1_opaque_ptr_2:
	.zero	8
	.globl	_TIG_iO_Ja39_1_insert_1_opaque_ptr_1
	.align 8
	.type	_TIG_iO_Ja39_1_insert_1_opaque_ptr_1, @object
	.size	_TIG_iO_Ja39_1_insert_1_opaque_ptr_1, 8
_TIG_iO_Ja39_1_insert_1_opaque_ptr_1:
	.zero	8
	.globl	_TIG_iO_Ja39_1_delete_1_opaque_list_1
	.align 8
	.type	_TIG_iO_Ja39_1_delete_1_opaque_list_1, @object
	.size	_TIG_iO_Ja39_1_delete_1_opaque_list_1, 8
_TIG_iO_Ja39_1_delete_1_opaque_list_1:
	.zero	8
	.globl	_TIG_iO_Ja39_1___bswap_32_1_opaque_ptr_1
	.align 8
	.type	_TIG_iO_Ja39_1___bswap_32_1_opaque_ptr_1, @object
	.size	_TIG_iO_Ja39_1___bswap_32_1_opaque_ptr_1, 8
_TIG_iO_Ja39_1___bswap_32_1_opaque_ptr_1:
	.zero	8
	.globl	_TIG_iO_Ja39_1_insert_1_opaque_list_1
	.align 8
	.type	_TIG_iO_Ja39_1_insert_1_opaque_list_1, @object
	.size	_TIG_iO_Ja39_1_insert_1_opaque_list_1, 8
_TIG_iO_Ja39_1_insert_1_opaque_list_1:
	.zero	8
	.globl	_TIG_iO_Ja39_1___bswap_64_1_opaque_list_2
	.align 8
	.type	_TIG_iO_Ja39_1___bswap_64_1_opaque_list_2, @object
	.size	_TIG_iO_Ja39_1___bswap_64_1_opaque_list_2, 8
_TIG_iO_Ja39_1___bswap_64_1_opaque_list_2:
	.zero	8
	.globl	_TIG_IZ_Ja39_argc
	.align 4
	.type	_TIG_IZ_Ja39_argc, @object
	.size	_TIG_IZ_Ja39_argc, 4
_TIG_IZ_Ja39_argc:
	.zero	4
	.globl	_TIG_iO_Ja39_1_display_1_opaque_ptr_2
	.align 8
	.type	_TIG_iO_Ja39_1_display_1_opaque_ptr_2, @object
	.size	_TIG_iO_Ja39_1_display_1_opaque_ptr_2, 8
_TIG_iO_Ja39_1_display_1_opaque_ptr_2:
	.zero	8
	.globl	front
	.align 4
	.type	front, @object
	.size	front, 4
front:
	.zero	4
	.globl	_TIG_iO_Ja39_1___bswap_64_1_opaque_ptr_2
	.align 8
	.type	_TIG_iO_Ja39_1___bswap_64_1_opaque_ptr_2, @object
	.size	_TIG_iO_Ja39_1___bswap_64_1_opaque_ptr_2, 8
_TIG_iO_Ja39_1___bswap_64_1_opaque_ptr_2:
	.zero	8
	.globl	_TIG_iO_Ja39_1___uint64_identity_1_opaque_ptr_2
	.align 8
	.type	_TIG_iO_Ja39_1___uint64_identity_1_opaque_ptr_2, @object
	.size	_TIG_iO_Ja39_1___uint64_identity_1_opaque_ptr_2, 8
_TIG_iO_Ja39_1___uint64_identity_1_opaque_ptr_2:
	.zero	8
	.globl	_TIG_iO_Ja39_1_delete_1_opaque_ptr_1
	.align 8
	.type	_TIG_iO_Ja39_1_delete_1_opaque_ptr_1, @object
	.size	_TIG_iO_Ja39_1_delete_1_opaque_ptr_1, 8
_TIG_iO_Ja39_1_delete_1_opaque_ptr_1:
	.zero	8
	.globl	_TIG_iO_Ja39_1___bswap_16_1_opaque_ptr_1
	.align 8
	.type	_TIG_iO_Ja39_1___bswap_16_1_opaque_ptr_1, @object
	.size	_TIG_iO_Ja39_1___bswap_16_1_opaque_ptr_1, 8
_TIG_iO_Ja39_1___bswap_16_1_opaque_ptr_1:
	.zero	8
	.globl	_TIG_iO_Ja39_1___bswap_16_1_opaque_ptr_2
	.align 8
	.type	_TIG_iO_Ja39_1___bswap_16_1_opaque_ptr_2, @object
	.size	_TIG_iO_Ja39_1___bswap_16_1_opaque_ptr_2, 8
_TIG_iO_Ja39_1___bswap_16_1_opaque_ptr_2:
	.zero	8
	.globl	_TIG_iO_Ja39_1___uint64_identity_1_opaque_list_1
	.align 8
	.type	_TIG_iO_Ja39_1___uint64_identity_1_opaque_list_1, @object
	.size	_TIG_iO_Ja39_1___uint64_identity_1_opaque_list_1, 8
_TIG_iO_Ja39_1___uint64_identity_1_opaque_list_1:
	.zero	8
	.globl	_TIG_iO_Ja39_1_insert_1_opaque_ptr_2
	.align 8
	.type	_TIG_iO_Ja39_1_insert_1_opaque_ptr_2, @object
	.size	_TIG_iO_Ja39_1_insert_1_opaque_ptr_2, 8
_TIG_iO_Ja39_1_insert_1_opaque_ptr_2:
	.zero	8
	.globl	_TIG_iO_Ja39_1___bswap_16_1_opaque_list_2
	.align 8
	.type	_TIG_iO_Ja39_1___bswap_16_1_opaque_list_2, @object
	.size	_TIG_iO_Ja39_1___bswap_16_1_opaque_list_2, 8
_TIG_iO_Ja39_1___bswap_16_1_opaque_list_2:
	.zero	8
	.globl	_TIG_iO_Ja39_1___uint64_identity_1_opaque_ptr_1
	.align 8
	.type	_TIG_iO_Ja39_1___uint64_identity_1_opaque_ptr_1, @object
	.size	_TIG_iO_Ja39_1___uint64_identity_1_opaque_ptr_1, 8
_TIG_iO_Ja39_1___uint64_identity_1_opaque_ptr_1:
	.zero	8
	.globl	_TIG_iO_Ja39_1_delete_1_opaque_list_2
	.align 8
	.type	_TIG_iO_Ja39_1_delete_1_opaque_list_2, @object
	.size	_TIG_iO_Ja39_1_delete_1_opaque_list_2, 8
_TIG_iO_Ja39_1_delete_1_opaque_list_2:
	.zero	8
	.section	.rodata
	.align 8
.LC0:
	.string	"\n1.Insert\t 2.Display\t 3.Delete\t 4.Exit"
.LC1:
	.string	"Enter your choice: "
.LC2:
	.string	"%d"
.LC3:
	.string	"\nInvalid choice:"
	.text
	.globl	main
	.type	main, @function
main:
.LFB1:
	.cfi_startproc
	endbr64
	pushq	%rbp
	.cfi_def_cfa_offset 16
	.cfi_offset 6, -16
	movq	%rsp, %rbp
	.cfi_def_cfa_register 6
	subq	$80, %rsp
	movl	%edi, -52(%rbp)
	movq	%rsi, -64(%rbp)
	movq	%rdx, -72(%rbp)
	movq	%fs:40, %rax
	movq	%rax, -8(%rbp)
	xorl	%eax, %eax
	movl	$0, pjob(%rip)
	movl	$0, 4+pjob(%rip)
	movl	$0, 8+pjob(%rip)
	movl	$0, 12+pjob(%rip)
	movl	$0, 16+pjob(%rip)
	movl	$0, 20+pjob(%rip)
	movl	$0, 24+pjob(%rip)
	movl	$0, 28+pjob(%rip)
	movl	$0, 32+pjob(%rip)
	movl	$0, 36+pjob(%rip)
	nop
.L2:
	movl	$-1, rear(%rip)
	nop
.L3:
	movl	$-1, front(%rip)
	nop
.L4:
	movq	$0, _TIG_IZ_Ja39_envp(%rip)
	nop
.L5:
	movq	$0, _TIG_IZ_Ja39_argv(%rip)
	nop
.L6:
	movl	$0, _TIG_IZ_Ja39_argc(%rip)
	nop
	nop
.L7:
.L8:
#APP
# 116 "/usr/include/x86_64-linux-gnu/bits/uintn-identity.h" 1
	##_ANNOTATION_INITIALREGION_-TIG-IZ-Ja39--0
# 0 "" 2
#NO_APP
	movl	-52(%rbp), %eax
	movl	%eax, _TIG_IZ_Ja39_argc(%rip)
	movq	-64(%rbp), %rax
	movq	%rax, _TIG_IZ_Ja39_argv(%rip)
	movq	-72(%rbp), %rax
	movq	%rax, _TIG_IZ_Ja39_envp(%rip)
#APP
# 123 "/usr/include/x86_64-linux-gnu/bits/uintn-identity.h" 1
	##_ANNOTATION_ATOMICREGION_-TIG-iO-Ja39-1-main--19
# 0 "" 2
#NO_APP
	movl	$24, %edi
	call	malloc@PLT
	movq	%rax, -32(%rbp)
	movq	-32(%rbp), %rax
	movq	-32(%rbp), %rdx
	movq	%rdx, 8(%rax)
	movq	-32(%rbp), %rax
	movq	-32(%rbp), %rdx
	movq	%rdx, 16(%rax)
	movq	-32(%rbp), %rax
	movq	%rax, _TIG_iO_Ja39_1_main_1_opaque_list_1(%rip)
	call	rand@PLT
	movl	%eax, -40(%rbp)
	movl	$24, %edi
	call	malloc@PLT
	movq	%rax, -24(%rbp)
	movq	-24(%rbp), %rax
	movl	$0, (%rax)
	movq	_TIG_iO_Ja39_1_main_1_opaque_list_1(%rip), %rax
	movq	8(%rax), %rdx
	movq	-24(%rbp), %rax
	movq	%rdx, 8(%rax)
	movq	_TIG_iO_Ja39_1_main_1_opaque_list_1(%rip), %rdx
	movq	-24(%rbp), %rax
	movq	%rdx, 16(%rax)
	movq	_TIG_iO_Ja39_1_main_1_opaque_list_1(%rip), %rax
	movq	8(%rax), %rax
	movq	-24(%rbp), %rdx
	movq	%rdx, 16(%rax)
	movq	_TIG_iO_Ja39_1_main_1_opaque_list_1(%rip), %rax
	movq	-24(%rbp), %rdx
	movq	%rdx, 8(%rax)
	call	rand@PLT
	movl	%eax, -36(%rbp)
	movl	$24, %edi
	call	malloc@PLT
	movq	%rax, -16(%rbp)
	movq	-16(%rbp), %rax
	movl	-36(%rbp), %edx
	movl	%edx, (%rax)
	movq	_TIG_iO_Ja39_1_main_1_opaque_list_1(%rip), %rax
	movq	8(%rax), %rdx
	movq	-16(%rbp), %rax
	movq	%rdx, 8(%rax)
	movq	_TIG_iO_Ja39_1_main_1_opaque_list_1(%rip), %rdx
	movq	-16(%rbp), %rax
	movq	%rdx, 16(%rax)
	movq	_TIG_iO_Ja39_1_main_1_opaque_list_1(%rip), %rax
	movq	8(%rax), %rax
	movq	-16(%rbp), %rdx
	movq	%rdx, 16(%rax)
	movq	_TIG_iO_Ja39_1_main_1_opaque_list_1(%rip), %rax
	movq	-16(%rbp), %rdx
	movq	%rdx, 8(%rax)
	movq	_TIG_iO_Ja39_1_main_1_opaque_list_1(%rip), %rax
	movq	8(%rax), %rax
	movq	%rax, _TIG_iO_Ja39_1_main_1_opaque_ptr_1(%rip)
	movq	_TIG_iO_Ja39_1_main_1_opaque_ptr_1(%rip), %rax
	movq	%rax, _TIG_iO_Ja39_1_main_1_opaque_ptr_2(%rip)
	nop
	nop
.L17:
	movq	_TIG_iO_Ja39_1_main_1_opaque_ptr_1(%rip), %rdx
	movq	_TIG_iO_Ja39_1_main_1_opaque_ptr_2(%rip), %rax
	cmpq	%rax, %rdx
	je	.L9
#APP
# 72 "/usr/include/x86_64-linux-gnu/bits/uintn-identity.h" 1
	.byte 0xaf,0xde,0x43,0xd9
# 0 "" 2
#NO_APP
	jmp	.L10
.L9:
	leaq	.LC0(%rip), %rax
	movq	%rax, %rdi
	call	puts@PLT
	leaq	.LC1(%rip), %rax
	movq	%rax, %rdi
	movl	$0, %eax
	call	printf@PLT
	leaq	-44(%rbp), %rax
	movq	%rax, %rsi
	leaq	.LC2(%rip), %rax
	movq	%rax, %rdi
	movl	$0, %eax
	call	__isoc99_scanf@PLT
.L10:
	movl	-44(%rbp), %eax
	cmpl	$4, %eax
	je	.L11
	cmpl	$4, %eax
	jg	.L12
	cmpl	$3, %eax
	je	.L13
	cmpl	$3, %eax
	jg	.L12
	cmpl	$1, %eax
	je	.L14
	cmpl	$2, %eax
	je	.L15
	jmp	.L12
.L14:
	call	insert
	jmp	.L16
.L15:
	call	display
	jmp	.L16
.L13:
	call	delete
	jmp	.L16
.L11:
	movl	$0, %edi
	call	exit@PLT
.L12:
	leaq	.LC3(%rip), %rax
	movq	%rax, %rdi
	call	puts@PLT
	nop
.L16:
	jmp	.L17
	.cfi_endproc
.LFE1:
	.size	main, .-main
	.section	.rodata
.LC4:
	.string	"Underflow"
	.text
	.globl	delete
	.type	delete, @function
delete:
.LFB6:
	.cfi_startproc
	endbr64
	pushq	%rbp
	.cfi_def_cfa_offset 16
	.cfi_offset 6, -16
	movq	%rsp, %rbp
	.cfi_def_cfa_register 6
	subq	$80, %rsp
#APP
# 59 "/usr/include/x86_64-linux-gnu/bits/uintn-identity.h" 1
	##_ANNOTATION_INITIALREGION_-TIG-iO-Ja39-1-delete--14
# 0 "" 2
# 63 "/usr/include/x86_64-linux-gnu/bits/uintn-identity.h" 1
	##_ANNOTATION_ATOMICREGION_-TIG-iO-Ja39-1-delete--13
# 0 "" 2
#NO_APP
	movl	$24, %edi
	call	malloc@PLT
	movq	%rax, -40(%rbp)
	movq	-40(%rbp), %rax
	movq	-40(%rbp), %rdx
	movq	%rdx, (%rax)
	movq	-40(%rbp), %rax
	movq	-40(%rbp), %rdx
	movq	%rdx, 8(%rax)
	movq	-40(%rbp), %rax
	movq	%rax, _TIG_iO_Ja39_1_delete_1_opaque_list_1(%rip)
	call	rand@PLT
	movl	%eax, -56(%rbp)
	movl	$24, %edi
	call	malloc@PLT
	movq	%rax, -32(%rbp)
	movq	-32(%rbp), %rax
	movl	$0, 16(%rax)
	movq	_TIG_iO_Ja39_1_delete_1_opaque_list_1(%rip), %rax
	movq	(%rax), %rdx
	movq	-32(%rbp), %rax
	movq	%rdx, (%rax)
	movq	_TIG_iO_Ja39_1_delete_1_opaque_list_1(%rip), %rdx
	movq	-32(%rbp), %rax
	movq	%rdx, 8(%rax)
	movq	_TIG_iO_Ja39_1_delete_1_opaque_list_1(%rip), %rax
	movq	(%rax), %rax
	movq	-32(%rbp), %rdx
	movq	%rdx, 8(%rax)
	movq	_TIG_iO_Ja39_1_delete_1_opaque_list_1(%rip), %rax
	movq	-32(%rbp), %rdx
	movq	%rdx, (%rax)
	call	rand@PLT
	movl	%eax, -52(%rbp)
	movl	$24, %edi
	call	malloc@PLT
	movq	%rax, -24(%rbp)
	movq	-24(%rbp), %rax
	movl	-52(%rbp), %edx
	movl	%edx, 16(%rax)
	movq	_TIG_iO_Ja39_1_delete_1_opaque_list_1(%rip), %rax
	movq	(%rax), %rdx
	movq	-24(%rbp), %rax
	movq	%rdx, (%rax)
	movq	_TIG_iO_Ja39_1_delete_1_opaque_list_1(%rip), %rdx
	movq	-24(%rbp), %rax
	movq	%rdx, 8(%rax)
	movq	_TIG_iO_Ja39_1_delete_1_opaque_list_1(%rip), %rax
	movq	(%rax), %rax
	movq	-24(%rbp), %rdx
	movq	%rdx, 8(%rax)
	movq	_TIG_iO_Ja39_1_delete_1_opaque_list_1(%rip), %rax
	movq	-24(%rbp), %rdx
	movq	%rdx, (%rax)
	call	rand@PLT
	movl	%eax, -48(%rbp)
	movl	$24, %edi
	call	malloc@PLT
	movq	%rax, -16(%rbp)
	movl	-48(%rbp), %eax
	leal	(%rax,%rax), %edx
	movq	-16(%rbp), %rax
	movl	%edx, 16(%rax)
	movq	_TIG_iO_Ja39_1_delete_1_opaque_list_1(%rip), %rax
	movq	(%rax), %rdx
	movq	-16(%rbp), %rax
	movq	%rdx, (%rax)
	movq	_TIG_iO_Ja39_1_delete_1_opaque_list_1(%rip), %rdx
	movq	-16(%rbp), %rax
	movq	%rdx, 8(%rax)
	movq	_TIG_iO_Ja39_1_delete_1_opaque_list_1(%rip), %rax
	movq	(%rax), %rax
	movq	-16(%rbp), %rdx
	movq	%rdx, 8(%rax)
	movq	_TIG_iO_Ja39_1_delete_1_opaque_list_1(%rip), %rax
	movq	-16(%rbp), %rdx
	movq	%rdx, (%rax)
	call	rand@PLT
	movl	%eax, -44(%rbp)
	movl	$24, %edi
	call	malloc@PLT
	movq	%rax, -8(%rbp)
	movl	-44(%rbp), %edx
	movl	%edx, %eax
	addl	%eax, %eax
	addl	%eax, %edx
	movq	-8(%rbp), %rax
	movl	%edx, 16(%rax)
	movq	_TIG_iO_Ja39_1_delete_1_opaque_list_1(%rip), %rax
	movq	(%rax), %rdx
	movq	-8(%rbp), %rax
	movq	%rdx, (%rax)
	movq	_TIG_iO_Ja39_1_delete_1_opaque_list_1(%rip), %rdx
	movq	-8(%rbp), %rax
	movq	%rdx, 8(%rax)
	movq	_TIG_iO_Ja39_1_delete_1_opaque_list_1(%rip), %rax
	movq	(%rax), %rax
	movq	-8(%rbp), %rdx
	movq	%rdx, 8(%rax)
	movq	_TIG_iO_Ja39_1_delete_1_opaque_list_1(%rip), %rax
	movq	-8(%rbp), %rdx
	movq	%rdx, (%rax)
	movq	_TIG_iO_Ja39_1_delete_1_opaque_list_1(%rip), %rax
	movq	(%rax), %rax
	movq	%rax, _TIG_iO_Ja39_1_delete_1_opaque_ptr_1(%rip)
	movq	_TIG_iO_Ja39_1_delete_1_opaque_ptr_1(%rip), %rax
	movq	%rax, _TIG_iO_Ja39_1_delete_1_opaque_ptr_2(%rip)
	movq	_TIG_iO_Ja39_1_delete_1_opaque_ptr_2(%rip), %rax
	movq	(%rax), %rax
	movq	%rax, _TIG_iO_Ja39_1_delete_1_opaque_ptr_2(%rip)
	nop
	nop
	movl	$0, -64(%rbp)
	movl	$0, -60(%rbp)
	movl	front(%rip), %eax
	cmpl	$-1, %eax
	jne	.L20
	leaq	.LC4(%rip), %rax
	movq	%rax, %rdi
	call	puts@PLT
	jmp	.L19
.L20:
	movl	front(%rip), %edx
	movl	rear(%rip), %eax
	cmpl	%eax, %edx
	jne	.L22
	movl	$-1, front(%rip)
	movl	$-1, rear(%rip)
	jmp	.L19
.L22:
	movq	_TIG_iO_Ja39_1_main_1_opaque_ptr_1(%rip), %rdx
	movq	_TIG_iO_Ja39_1_main_1_opaque_ptr_2(%rip), %rax
	cmpq	%rax, %rdx
	jne	.L24
	movl	front(%rip), %eax
	movl	%eax, -68(%rbp)
	jmp	.L24
.L26:
	movl	-68(%rbp), %eax
	cltq
	leaq	0(,%rax,8), %rdx
	leaq	4+pjob(%rip), %rax
	movl	(%rdx,%rax), %eax
	cmpl	%eax, -60(%rbp)
	jge	.L25
	movl	-68(%rbp), %eax
	cltq
	leaq	0(,%rax,8), %rdx
	leaq	4+pjob(%rip), %rax
	movl	(%rdx,%rax), %eax
	movl	%eax, -60(%rbp)
	movl	-68(%rbp), %eax
	movl	%eax, -64(%rbp)
.L25:
	addl	$1, -68(%rbp)
.L24:
	movl	rear(%rip), %eax
	cmpl	%eax, -68(%rbp)
	jle	.L26
	movl	-64(%rbp), %eax
	movl	%eax, -68(%rbp)
	jmp	.L27
.L28:
	movl	-68(%rbp), %eax
	addl	$1, %eax
	cltq
	leaq	0(,%rax,8), %rdx
	leaq	pjob(%rip), %rax
	movl	(%rdx,%rax), %eax
	movl	-68(%rbp), %edx
	movslq	%edx, %rdx
	leaq	0(,%rdx,8), %rcx
	leaq	pjob(%rip), %rdx
	movl	%eax, (%rcx,%rdx)
	movl	-68(%rbp), %eax
	addl	$1, %eax
	cltq
	leaq	0(,%rax,8), %rdx
	leaq	4+pjob(%rip), %rax
	movl	(%rdx,%rax), %eax
	movl	-68(%rbp), %edx
	movslq	%edx, %rdx
	leaq	0(,%rdx,8), %rcx
	leaq	4+pjob(%rip), %rdx
	movl	%eax, (%rcx,%rdx)
	addl	$1, -68(%rbp)
.L27:
	movl	rear(%rip), %eax
	cmpl	%eax, -68(%rbp)
	jle	.L28
	movl	rear(%rip), %eax
	subl	$1, %eax
	movl	%eax, rear(%rip)
	nop
.L19:
	leave
	.cfi_def_cfa 7, 8
	ret
	.cfi_endproc
.LFE6:
	.size	delete, .-delete
	.section	.rodata
.LC5:
	.string	"Overflow"
	.align 8
.LC6:
	.string	"Enter information and its priority: "
.LC7:
	.string	"%d %d"
	.text
	.globl	insert
	.type	insert, @function
insert:
.LFB7:
	.cfi_startproc
	endbr64
	pushq	%rbp
	.cfi_def_cfa_offset 16
	.cfi_offset 6, -16
	movq	%rsp, %rbp
	.cfi_def_cfa_register 6
	subq	$48, %rsp
	movq	%fs:40, %rax
	movq	%rax, -8(%rbp)
	xorl	%eax, %eax
#APP
# 72 "harshithamys_hey_4.c" 1
	##_ANNOTATION_INITIALREGION_-TIG-iO-Ja39-1-insert--18
# 0 "" 2
# 76 "harshithamys_hey_4.c" 1
	##_ANNOTATION_ATOMICREGION_-TIG-iO-Ja39-1-insert--17
# 0 "" 2
#NO_APP
	movl	$24, %edi
	call	malloc@PLT
	movq	%rax, -32(%rbp)
	movq	-32(%rbp), %rax
	movq	-32(%rbp), %rdx
	movq	%rdx, 8(%rax)
	movq	-32(%rbp), %rax
	movq	-32(%rbp), %rdx
	movq	%rdx, (%rax)
	movq	-32(%rbp), %rax
	movq	%rax, _TIG_iO_Ja39_1_insert_1_opaque_list_1(%rip)
	call	rand@PLT
	movl	%eax, -40(%rbp)
	movl	$24, %edi
	call	malloc@PLT
	movq	%rax, -24(%rbp)
	movq	-24(%rbp), %rax
	movl	$0, 16(%rax)
	movq	_TIG_iO_Ja39_1_insert_1_opaque_list_1(%rip), %rax
	movq	8(%rax), %rdx
	movq	-24(%rbp), %rax
	movq	%rdx, 8(%rax)
	movq	_TIG_iO_Ja39_1_insert_1_opaque_list_1(%rip), %rdx
	movq	-24(%rbp), %rax
	movq	%rdx, (%rax)
	movq	_TIG_iO_Ja39_1_insert_1_opaque_list_1(%rip), %rax
	movq	8(%rax), %rax
	movq	-24(%rbp), %rdx
	movq	%rdx, (%rax)
	movq	_TIG_iO_Ja39_1_insert_1_opaque_list_1(%rip), %rax
	movq	-24(%rbp), %rdx
	movq	%rdx, 8(%rax)
	call	rand@PLT
	movl	%eax, -36(%rbp)
	movl	$24, %edi
	call	malloc@PLT
	movq	%rax, -16(%rbp)
	movq	-16(%rbp), %rax
	movl	-36(%rbp), %edx
	movl	%edx, 16(%rax)
	movq	_TIG_iO_Ja39_1_insert_1_opaque_list_1(%rip), %rax
	movq	8(%rax), %rdx
	movq	-16(%rbp), %rax
	movq	%rdx, 8(%rax)
	movq	_TIG_iO_Ja39_1_insert_1_opaque_list_1(%rip), %rdx
	movq	-16(%rbp), %rax
	movq	%rdx, (%rax)
	movq	_TIG_iO_Ja39_1_insert_1_opaque_list_1(%rip), %rax
	movq	8(%rax), %rax
	movq	-16(%rbp), %rdx
	movq	%rdx, (%rax)
	movq	_TIG_iO_Ja39_1_insert_1_opaque_list_1(%rip), %rax
	movq	-16(%rbp), %rdx
	movq	%rdx, 8(%rax)
	movq	_TIG_iO_Ja39_1_insert_1_opaque_list_1(%rip), %rax
	movq	8(%rax), %rax
	movq	%rax, _TIG_iO_Ja39_1_insert_1_opaque_ptr_1(%rip)
	movq	_TIG_iO_Ja39_1_insert_1_opaque_ptr_1(%rip), %rax
	movq	%rax, _TIG_iO_Ja39_1_insert_1_opaque_ptr_2(%rip)
	movq	_TIG_iO_Ja39_1_insert_1_opaque_ptr_2(%rip), %rax
	movq	8(%rax), %rax
	movq	%rax, _TIG_iO_Ja39_1_insert_1_opaque_ptr_2(%rip)
	nop
	nop
	movl	rear(%rip), %eax
	cmpl	$4, %eax
	jne	.L31
	leaq	.LC5(%rip), %rax
	movq	%rax, %rdi
	call	puts@PLT
	jmp	.L32
.L31:
	leaq	.LC6(%rip), %rax
	movq	%rax, %rdi
	movl	$0, %eax
	call	printf@PLT
	leaq	-44(%rbp), %rdx
	leaq	-48(%rbp), %rax
	movq	%rax, %rsi
	leaq	.LC7(%rip), %rax
	movq	%rax, %rdi
	movl	$0, %eax
	call	__isoc99_scanf@PLT
	movl	rear(%rip), %eax
	cmpl	$-1, %eax
	jne	.L33
	movl	rear(%rip), %eax
	addl	$1, %eax
	movl	%eax, rear(%rip)
	movl	front(%rip), %eax
	addl	$1, %eax
	movl	%eax, front(%rip)
	jmp	.L34
.L33:
	movl	rear(%rip), %eax
	addl	$1, %eax
	movl	%eax, rear(%rip)
.L34:
	movl	rear(%rip), %edx
	movl	-48(%rbp), %eax
	movslq	%edx, %rdx
	leaq	0(,%rdx,8), %rcx
	leaq	pjob(%rip), %rdx
	movl	%eax, (%rcx,%rdx)
	movl	rear(%rip), %edx
	movl	-44(%rbp), %eax
	movslq	%edx, %rdx
	leaq	0(,%rdx,8), %rcx
	leaq	4+pjob(%rip), %rdx
	movl	%eax, (%rcx,%rdx)
.L32:
	movq	_TIG_iO_Ja39_1_main_1_opaque_ptr_1(%rip), %rdx
	movq	_TIG_iO_Ja39_1_main_1_opaque_ptr_2(%rip), %rax
	cmpq	%rax, %rdx
	nop
	movq	-8(%rbp), %rax
	subq	%fs:40, %rax
	je	.L38
	call	__stack_chk_fail@PLT
.L38:
	leave
	.cfi_def_cfa 7, 8
	ret
	.cfi_endproc
.LFE7:
	.size	insert, .-insert
	.section	.rodata
.LC8:
	.string	"Queue is Empty"
.LC9:
	.string	"Info\t PR"
.LC10:
	.string	"%d\t %d\n"
	.text
	.globl	display
	.type	display, @function
display:
.LFB9:
	.cfi_startproc
	endbr64
	pushq	%rbp
	.cfi_def_cfa_offset 16
	.cfi_offset 6, -16
	movq	%rsp, %rbp
	.cfi_def_cfa_register 6
	subq	$48, %rsp
#APP
# 54 "/usr/include/x86_64-linux-gnu/bits/byteswap.h" 1
	##_ANNOTATION_INITIALREGION_-TIG-iO-Ja39-1-display--16
# 0 "" 2
# 58 "/usr/include/x86_64-linux-gnu/bits/byteswap.h" 1
	##_ANNOTATION_ATOMICREGION_-TIG-iO-Ja39-1-display--15
# 0 "" 2
#NO_APP
	movl	$24, %edi
	call	malloc@PLT
	movq	%rax, -24(%rbp)
	movq	-24(%rbp), %rax
	movq	-24(%rbp), %rdx
	movq	%rdx, 16(%rax)
	movq	-24(%rbp), %rax
	movq	-24(%rbp), %rdx
	movq	%rdx, 8(%rax)
	movq	-24(%rbp), %rax
	movq	%rax, _TIG_iO_Ja39_1_display_1_opaque_list_1(%rip)
	call	rand@PLT
	movl	%eax, -32(%rbp)
	movl	$24, %edi
	call	malloc@PLT
	movq	%rax, -16(%rbp)
	movq	-16(%rbp), %rax
	movl	$0, (%rax)
	movq	_TIG_iO_Ja39_1_display_1_opaque_list_1(%rip), %rax
	movq	16(%rax), %rdx
	movq	-16(%rbp), %rax
	movq	%rdx, 16(%rax)
	movq	_TIG_iO_Ja39_1_display_1_opaque_list_1(%rip), %rdx
	movq	-16(%rbp), %rax
	movq	%rdx, 8(%rax)
	movq	_TIG_iO_Ja39_1_display_1_opaque_list_1(%rip), %rax
	movq	16(%rax), %rax
	movq	-16(%rbp), %rdx
	movq	%rdx, 8(%rax)
	movq	_TIG_iO_Ja39_1_display_1_opaque_list_1(%rip), %rax
	movq	-16(%rbp), %rdx
	movq	%rdx, 16(%rax)
	call	rand@PLT
	movl	%eax, -28(%rbp)
	movl	$24, %edi
	call	malloc@PLT
	movq	%rax, -8(%rbp)
	movq	-8(%rbp), %rax
	movl	-28(%rbp), %edx
	movl	%edx, (%rax)
	movq	_TIG_iO_Ja39_1_display_1_opaque_list_1(%rip), %rax
	movq	16(%rax), %rdx
	movq	-8(%rbp), %rax
	movq	%rdx, 16(%rax)
	movq	_TIG_iO_Ja39_1_display_1_opaque_list_1(%rip), %rdx
	movq	-8(%rbp), %rax
	movq	%rdx, 8(%rax)
	movq	_TIG_iO_Ja39_1_display_1_opaque_list_1(%rip), %rax
	movq	16(%rax), %rax
	movq	-8(%rbp), %rdx
	movq	%rdx, 8(%rax)
	movq	_TIG_iO_Ja39_1_display_1_opaque_list_1(%rip), %rax
	movq	-8(%rbp), %rdx
	movq	%rdx, 16(%rax)
	movq	_TIG_iO_Ja39_1_display_1_opaque_list_1(%rip), %rax
	movq	16(%rax), %rax
	movq	%rax, _TIG_iO_Ja39_1_display_1_opaque_ptr_1(%rip)
	movq	_TIG_iO_Ja39_1_display_1_opaque_ptr_1(%rip), %rax
	movq	%rax, _TIG_iO_Ja39_1_display_1_opaque_ptr_2(%rip)
	nop
	nop
	movl	front(%rip), %eax
	cmpl	$-1, %eax
	jne	.L40
	leaq	.LC8(%rip), %rax
	movq	%rax, %rdi
	call	puts@PLT
	jmp	.L41
.L40:
	movl	front(%rip), %eax
	movl	%eax, -36(%rbp)
	jmp	.L42
.L43:
	leaq	.LC9(%rip), %rax
	movq	%rax, %rdi
	call	puts@PLT
	movl	-36(%rbp), %eax
	cltq
	leaq	0(,%rax,8), %rdx
	leaq	4+pjob(%rip), %rax
	movl	(%rdx,%rax), %edx
	movl	-36(%rbp), %eax
	cltq
	leaq	0(,%rax,8), %rcx
	leaq	pjob(%rip), %rax
	movl	(%rcx,%rax), %eax
	movl	%eax, %esi
	leaq	.LC10(%rip), %rax
	movq	%rax, %rdi
	movl	$0, %eax
	call	printf@PLT
	addl	$1, -36(%rbp)
.L42:
	movl	rear(%rip), %eax
	cmpl	%eax, -36(%rbp)
	jle	.L43
.L41:
	movq	_TIG_iO_Ja39_1_main_1_opaque_ptr_1(%rip), %rdx
	movq	_TIG_iO_Ja39_1_main_1_opaque_ptr_2(%rip), %rax
	cmpq	%rax, %rdx
	leave
	.cfi_def_cfa 7, 8
	ret
	.cfi_endproc
.LFE9:
	.size	display, .-display
	.ident	"GCC: (Ubuntu 11.4.0-1ubuntu1~22.04) 11.4.0"
	.section	.note.GNU-stack,"",@progbits
	.section	.note.gnu.property,"a"
	.align 8
	.long	1f - 0f
	.long	4f - 1f
	.long	5
0:
	.string	"GNU"
1:
	.align 8
	.long	0xc0000002
	.long	3f - 2f
2:
	.long	0x3
3:
	.align 8
4:
