	.file	"sankalp-happy_DSA_6_opaque.c"
	.text
	.globl	_TIG_iO_EK4z_1___uint16_identity_1_opaque_ptr_1
	.bss
	.align 8
	.type	_TIG_iO_EK4z_1___uint16_identity_1_opaque_ptr_1, @object
	.size	_TIG_iO_EK4z_1___uint16_identity_1_opaque_ptr_1, 8
_TIG_iO_EK4z_1___uint16_identity_1_opaque_ptr_1:
	.zero	8
	.globl	_TIG_iO_EK4z_1___uint32_identity_1_opaque_ptr_1
	.align 8
	.type	_TIG_iO_EK4z_1___uint32_identity_1_opaque_ptr_1, @object
	.size	_TIG_iO_EK4z_1___uint32_identity_1_opaque_ptr_1, 8
_TIG_iO_EK4z_1___uint32_identity_1_opaque_ptr_1:
	.zero	8
	.globl	_TIG_iO_EK4z_1___uint64_identity_1_opaque_list_2
	.align 8
	.type	_TIG_iO_EK4z_1___uint64_identity_1_opaque_list_2, @object
	.size	_TIG_iO_EK4z_1___uint64_identity_1_opaque_list_2, 8
_TIG_iO_EK4z_1___uint64_identity_1_opaque_list_2:
	.zero	8
	.globl	_TIG_iO_EK4z_1___bswap_64_1_opaque_list_1
	.align 8
	.type	_TIG_iO_EK4z_1___bswap_64_1_opaque_list_1, @object
	.size	_TIG_iO_EK4z_1___bswap_64_1_opaque_list_1, 8
_TIG_iO_EK4z_1___bswap_64_1_opaque_list_1:
	.zero	8
	.globl	_TIG_iO_EK4z_1___uint32_identity_1_opaque_ptr_2
	.align 8
	.type	_TIG_iO_EK4z_1___uint32_identity_1_opaque_ptr_2, @object
	.size	_TIG_iO_EK4z_1___uint32_identity_1_opaque_ptr_2, 8
_TIG_iO_EK4z_1___uint32_identity_1_opaque_ptr_2:
	.zero	8
	.globl	r
	.align 4
	.type	r, @object
	.size	r, 4
r:
	.zero	4
	.globl	_TIG_iO_EK4z_1___bswap_32_1_opaque_ptr_2
	.align 8
	.type	_TIG_iO_EK4z_1___bswap_32_1_opaque_ptr_2, @object
	.size	_TIG_iO_EK4z_1___bswap_32_1_opaque_ptr_2, 8
_TIG_iO_EK4z_1___bswap_32_1_opaque_ptr_2:
	.zero	8
	.globl	_TIG_iO_EK4z_1_display_1_opaque_ptr_2
	.align 8
	.type	_TIG_iO_EK4z_1_display_1_opaque_ptr_2, @object
	.size	_TIG_iO_EK4z_1_display_1_opaque_ptr_2, 8
_TIG_iO_EK4z_1_display_1_opaque_ptr_2:
	.zero	8
	.globl	_TIG_iO_EK4z_1___bswap_16_1_opaque_list_2
	.align 8
	.type	_TIG_iO_EK4z_1___bswap_16_1_opaque_list_2, @object
	.size	_TIG_iO_EK4z_1___bswap_16_1_opaque_list_2, 8
_TIG_iO_EK4z_1___bswap_16_1_opaque_list_2:
	.zero	8
	.globl	_TIG_iO_EK4z_1___bswap_64_1_opaque_ptr_1
	.align 8
	.type	_TIG_iO_EK4z_1___bswap_64_1_opaque_ptr_1, @object
	.size	_TIG_iO_EK4z_1___bswap_64_1_opaque_ptr_1, 8
_TIG_iO_EK4z_1___bswap_64_1_opaque_ptr_1:
	.zero	8
	.globl	_TIG_iO_EK4z_1___bswap_16_1_opaque_list_1
	.align 8
	.type	_TIG_iO_EK4z_1___bswap_16_1_opaque_list_1, @object
	.size	_TIG_iO_EK4z_1___bswap_16_1_opaque_list_1, 8
_TIG_iO_EK4z_1___bswap_16_1_opaque_list_1:
	.zero	8
	.globl	_TIG_iO_EK4z_1___bswap_64_1_opaque_ptr_2
	.align 8
	.type	_TIG_iO_EK4z_1___bswap_64_1_opaque_ptr_2, @object
	.size	_TIG_iO_EK4z_1___bswap_64_1_opaque_ptr_2, 8
_TIG_iO_EK4z_1___bswap_64_1_opaque_ptr_2:
	.zero	8
	.globl	_TIG_iO_EK4z_1___bswap_16_1_opaque_ptr_2
	.align 8
	.type	_TIG_iO_EK4z_1___bswap_16_1_opaque_ptr_2, @object
	.size	_TIG_iO_EK4z_1___bswap_16_1_opaque_ptr_2, 8
_TIG_iO_EK4z_1___bswap_16_1_opaque_ptr_2:
	.zero	8
	.globl	_TIG_iO_EK4z_1_display_1_opaque_ptr_1
	.align 8
	.type	_TIG_iO_EK4z_1_display_1_opaque_ptr_1, @object
	.size	_TIG_iO_EK4z_1_display_1_opaque_ptr_1, 8
_TIG_iO_EK4z_1_display_1_opaque_ptr_1:
	.zero	8
	.globl	_TIG_iO_EK4z_1_main_1_opaque_list_2
	.align 8
	.type	_TIG_iO_EK4z_1_main_1_opaque_list_2, @object
	.size	_TIG_iO_EK4z_1_main_1_opaque_list_2, 8
_TIG_iO_EK4z_1_main_1_opaque_list_2:
	.zero	8
	.globl	_TIG_iO_EK4z_1_insert_1_opaque_list_1
	.align 8
	.type	_TIG_iO_EK4z_1_insert_1_opaque_list_1, @object
	.size	_TIG_iO_EK4z_1_insert_1_opaque_list_1, 8
_TIG_iO_EK4z_1_insert_1_opaque_list_1:
	.zero	8
	.globl	f
	.align 4
	.type	f, @object
	.size	f, 4
f:
	.zero	4
	.globl	_TIG_iO_EK4z_1___uint16_identity_1_opaque_list_2
	.align 8
	.type	_TIG_iO_EK4z_1___uint16_identity_1_opaque_list_2, @object
	.size	_TIG_iO_EK4z_1___uint16_identity_1_opaque_list_2, 8
_TIG_iO_EK4z_1___uint16_identity_1_opaque_list_2:
	.zero	8
	.globl	_TIG_IZ_EK4z_argc
	.align 4
	.type	_TIG_IZ_EK4z_argc, @object
	.size	_TIG_IZ_EK4z_argc, 4
_TIG_IZ_EK4z_argc:
	.zero	4
	.globl	_TIG_iO_EK4z_1_display_1_opaque_list_2
	.align 8
	.type	_TIG_iO_EK4z_1_display_1_opaque_list_2, @object
	.size	_TIG_iO_EK4z_1_display_1_opaque_list_2, 8
_TIG_iO_EK4z_1_display_1_opaque_list_2:
	.zero	8
	.globl	_TIG_iO_EK4z_1_del_1_opaque_ptr_2
	.align 8
	.type	_TIG_iO_EK4z_1_del_1_opaque_ptr_2, @object
	.size	_TIG_iO_EK4z_1_del_1_opaque_ptr_2, 8
_TIG_iO_EK4z_1_del_1_opaque_ptr_2:
	.zero	8
	.globl	_TIG_iO_EK4z_1___uint64_identity_1_opaque_list_1
	.align 8
	.type	_TIG_iO_EK4z_1___uint64_identity_1_opaque_list_1, @object
	.size	_TIG_iO_EK4z_1___uint64_identity_1_opaque_list_1, 8
_TIG_iO_EK4z_1___uint64_identity_1_opaque_list_1:
	.zero	8
	.globl	_TIG_iO_EK4z_1___bswap_64_1_opaque_list_2
	.align 8
	.type	_TIG_iO_EK4z_1___bswap_64_1_opaque_list_2, @object
	.size	_TIG_iO_EK4z_1___bswap_64_1_opaque_list_2, 8
_TIG_iO_EK4z_1___bswap_64_1_opaque_list_2:
	.zero	8
	.globl	_TIG_iO_EK4z_1___uint32_identity_1_opaque_list_2
	.align 8
	.type	_TIG_iO_EK4z_1___uint32_identity_1_opaque_list_2, @object
	.size	_TIG_iO_EK4z_1___uint32_identity_1_opaque_list_2, 8
_TIG_iO_EK4z_1___uint32_identity_1_opaque_list_2:
	.zero	8
	.globl	q
	.align 16
	.type	q, @object
	.size	q, 16
q:
	.zero	16
	.globl	_TIG_iO_EK4z_1___uint16_identity_1_opaque_list_1
	.align 8
	.type	_TIG_iO_EK4z_1___uint16_identity_1_opaque_list_1, @object
	.size	_TIG_iO_EK4z_1___uint16_identity_1_opaque_list_1, 8
_TIG_iO_EK4z_1___uint16_identity_1_opaque_list_1:
	.zero	8
	.globl	_TIG_iO_EK4z_1___uint16_identity_1_opaque_ptr_2
	.align 8
	.type	_TIG_iO_EK4z_1___uint16_identity_1_opaque_ptr_2, @object
	.size	_TIG_iO_EK4z_1___uint16_identity_1_opaque_ptr_2, 8
_TIG_iO_EK4z_1___uint16_identity_1_opaque_ptr_2:
	.zero	8
	.globl	_TIG_iO_EK4z_1_insert_1_opaque_ptr_1
	.align 8
	.type	_TIG_iO_EK4z_1_insert_1_opaque_ptr_1, @object
	.size	_TIG_iO_EK4z_1_insert_1_opaque_ptr_1, 8
_TIG_iO_EK4z_1_insert_1_opaque_ptr_1:
	.zero	8
	.globl	_TIG_iO_EK4z_1___uint64_identity_1_opaque_ptr_2
	.align 8
	.type	_TIG_iO_EK4z_1___uint64_identity_1_opaque_ptr_2, @object
	.size	_TIG_iO_EK4z_1___uint64_identity_1_opaque_ptr_2, 8
_TIG_iO_EK4z_1___uint64_identity_1_opaque_ptr_2:
	.zero	8
	.globl	_TIG_iO_EK4z_1_del_1_opaque_list_1
	.align 8
	.type	_TIG_iO_EK4z_1_del_1_opaque_list_1, @object
	.size	_TIG_iO_EK4z_1_del_1_opaque_list_1, 8
_TIG_iO_EK4z_1_del_1_opaque_list_1:
	.zero	8
	.globl	_TIG_IZ_EK4z_argv
	.align 8
	.type	_TIG_IZ_EK4z_argv, @object
	.size	_TIG_IZ_EK4z_argv, 8
_TIG_IZ_EK4z_argv:
	.zero	8
	.globl	_TIG_iO_EK4z_1___bswap_32_1_opaque_ptr_1
	.align 8
	.type	_TIG_iO_EK4z_1___bswap_32_1_opaque_ptr_1, @object
	.size	_TIG_iO_EK4z_1___bswap_32_1_opaque_ptr_1, 8
_TIG_iO_EK4z_1___bswap_32_1_opaque_ptr_1:
	.zero	8
	.globl	_TIG_IZ_EK4z_envp
	.align 8
	.type	_TIG_IZ_EK4z_envp, @object
	.size	_TIG_IZ_EK4z_envp, 8
_TIG_IZ_EK4z_envp:
	.zero	8
	.globl	_TIG_iO_EK4z_1___uint32_identity_1_opaque_list_1
	.align 8
	.type	_TIG_iO_EK4z_1___uint32_identity_1_opaque_list_1, @object
	.size	_TIG_iO_EK4z_1___uint32_identity_1_opaque_list_1, 8
_TIG_iO_EK4z_1___uint32_identity_1_opaque_list_1:
	.zero	8
	.globl	_TIG_iO_EK4z_1___bswap_16_1_opaque_ptr_1
	.align 8
	.type	_TIG_iO_EK4z_1___bswap_16_1_opaque_ptr_1, @object
	.size	_TIG_iO_EK4z_1___bswap_16_1_opaque_ptr_1, 8
_TIG_iO_EK4z_1___bswap_16_1_opaque_ptr_1:
	.zero	8
	.globl	_TIG_iO_EK4z_1_insert_1_opaque_list_2
	.align 8
	.type	_TIG_iO_EK4z_1_insert_1_opaque_list_2, @object
	.size	_TIG_iO_EK4z_1_insert_1_opaque_list_2, 8
_TIG_iO_EK4z_1_insert_1_opaque_list_2:
	.zero	8
	.globl	_TIG_iO_EK4z_1___bswap_32_1_opaque_list_1
	.align 8
	.type	_TIG_iO_EK4z_1___bswap_32_1_opaque_list_1, @object
	.size	_TIG_iO_EK4z_1___bswap_32_1_opaque_list_1, 8
_TIG_iO_EK4z_1___bswap_32_1_opaque_list_1:
	.zero	8
	.globl	count
	.align 4
	.type	count, @object
	.size	count, 4
count:
	.zero	4
	.globl	_TIG_iO_EK4z_1_main_1_opaque_list_1
	.align 8
	.type	_TIG_iO_EK4z_1_main_1_opaque_list_1, @object
	.size	_TIG_iO_EK4z_1_main_1_opaque_list_1, 8
_TIG_iO_EK4z_1_main_1_opaque_list_1:
	.zero	8
	.globl	item
	.align 4
	.type	item, @object
	.size	item, 4
item:
	.zero	4
	.globl	_TIG_iO_EK4z_1___uint64_identity_1_opaque_ptr_1
	.align 8
	.type	_TIG_iO_EK4z_1___uint64_identity_1_opaque_ptr_1, @object
	.size	_TIG_iO_EK4z_1___uint64_identity_1_opaque_ptr_1, 8
_TIG_iO_EK4z_1___uint64_identity_1_opaque_ptr_1:
	.zero	8
	.globl	_TIG_iO_EK4z_1___bswap_32_1_opaque_list_2
	.align 8
	.type	_TIG_iO_EK4z_1___bswap_32_1_opaque_list_2, @object
	.size	_TIG_iO_EK4z_1___bswap_32_1_opaque_list_2, 8
_TIG_iO_EK4z_1___bswap_32_1_opaque_list_2:
	.zero	8
	.globl	_TIG_iO_EK4z_1_del_1_opaque_ptr_1
	.align 8
	.type	_TIG_iO_EK4z_1_del_1_opaque_ptr_1, @object
	.size	_TIG_iO_EK4z_1_del_1_opaque_ptr_1, 8
_TIG_iO_EK4z_1_del_1_opaque_ptr_1:
	.zero	8
	.globl	_TIG_iO_EK4z_1_del_1_opaque_list_2
	.align 8
	.type	_TIG_iO_EK4z_1_del_1_opaque_list_2, @object
	.size	_TIG_iO_EK4z_1_del_1_opaque_list_2, 8
_TIG_iO_EK4z_1_del_1_opaque_list_2:
	.zero	8
	.globl	_TIG_iO_EK4z_1_main_1_opaque_ptr_1
	.align 8
	.type	_TIG_iO_EK4z_1_main_1_opaque_ptr_1, @object
	.size	_TIG_iO_EK4z_1_main_1_opaque_ptr_1, 8
_TIG_iO_EK4z_1_main_1_opaque_ptr_1:
	.zero	8
	.globl	_TIG_iO_EK4z_1_main_1_opaque_ptr_2
	.align 8
	.type	_TIG_iO_EK4z_1_main_1_opaque_ptr_2, @object
	.size	_TIG_iO_EK4z_1_main_1_opaque_ptr_2, 8
_TIG_iO_EK4z_1_main_1_opaque_ptr_2:
	.zero	8
	.globl	_TIG_iO_EK4z_1_display_1_opaque_list_1
	.align 8
	.type	_TIG_iO_EK4z_1_display_1_opaque_list_1, @object
	.size	_TIG_iO_EK4z_1_display_1_opaque_list_1, 8
_TIG_iO_EK4z_1_display_1_opaque_list_1:
	.zero	8
	.globl	_TIG_iO_EK4z_1_insert_1_opaque_ptr_2
	.align 8
	.type	_TIG_iO_EK4z_1_insert_1_opaque_ptr_2, @object
	.size	_TIG_iO_EK4z_1_insert_1_opaque_ptr_2, 8
_TIG_iO_EK4z_1_insert_1_opaque_ptr_2:
	.zero	8
	.section	.rodata
.LC0:
	.string	"Queue OverFlow"
	.text
	.globl	insert
	.type	insert, @function
insert:
.LFB4:
	.cfi_startproc
	endbr64
	pushq	%rbp
	.cfi_def_cfa_offset 16
	.cfi_offset 6, -16
	movq	%rsp, %rbp
	.cfi_def_cfa_register 6
	subq	$32, %rsp
#APP
# 91 "/usr/include/x86_64-linux-gnu/bits/byteswap.h" 1
	##_ANNOTATION_INITIALREGION_-TIG-iO-EK4z-1-insert--18
# 0 "" 2
# 95 "/usr/include/x86_64-linux-gnu/bits/byteswap.h" 1
	##_ANNOTATION_ATOMICREGION_-TIG-iO-EK4z-1-insert--17
# 0 "" 2
#NO_APP
	movl	$24, %edi
	call	malloc@PLT
	movq	%rax, -24(%rbp)
	movq	-24(%rbp), %rax
	movq	-24(%rbp), %rdx
	movq	%rdx, 8(%rax)
	movq	-24(%rbp), %rax
	movq	-24(%rbp), %rdx
	movq	%rdx, (%rax)
	movq	-24(%rbp), %rax
	movq	%rax, _TIG_iO_EK4z_1_insert_1_opaque_list_1(%rip)
	call	rand@PLT
	movl	%eax, -32(%rbp)
	movl	$24, %edi
	call	malloc@PLT
	movq	%rax, -16(%rbp)
	movq	-16(%rbp), %rax
	movl	$0, 16(%rax)
	movq	_TIG_iO_EK4z_1_insert_1_opaque_list_1(%rip), %rax
	movq	8(%rax), %rdx
	movq	-16(%rbp), %rax
	movq	%rdx, 8(%rax)
	movq	_TIG_iO_EK4z_1_insert_1_opaque_list_1(%rip), %rdx
	movq	-16(%rbp), %rax
	movq	%rdx, (%rax)
	movq	_TIG_iO_EK4z_1_insert_1_opaque_list_1(%rip), %rax
	movq	8(%rax), %rax
	movq	-16(%rbp), %rdx
	movq	%rdx, (%rax)
	movq	_TIG_iO_EK4z_1_insert_1_opaque_list_1(%rip), %rax
	movq	-16(%rbp), %rdx
	movq	%rdx, 8(%rax)
	call	rand@PLT
	movl	%eax, -28(%rbp)
	movl	$24, %edi
	call	malloc@PLT
	movq	%rax, -8(%rbp)
	movq	-8(%rbp), %rax
	movl	-28(%rbp), %edx
	movl	%edx, 16(%rax)
	movq	_TIG_iO_EK4z_1_insert_1_opaque_list_1(%rip), %rax
	movq	8(%rax), %rdx
	movq	-8(%rbp), %rax
	movq	%rdx, 8(%rax)
	movq	_TIG_iO_EK4z_1_insert_1_opaque_list_1(%rip), %rdx
	movq	-8(%rbp), %rax
	movq	%rdx, (%rax)
	movq	_TIG_iO_EK4z_1_insert_1_opaque_list_1(%rip), %rax
	movq	8(%rax), %rax
	movq	-8(%rbp), %rdx
	movq	%rdx, (%rax)
	movq	_TIG_iO_EK4z_1_insert_1_opaque_list_1(%rip), %rax
	movq	-8(%rbp), %rdx
	movq	%rdx, 8(%rax)
	movq	_TIG_iO_EK4z_1_insert_1_opaque_list_1(%rip), %rax
	movq	8(%rax), %rax
	movq	%rax, _TIG_iO_EK4z_1_insert_1_opaque_ptr_1(%rip)
	movq	_TIG_iO_EK4z_1_insert_1_opaque_ptr_1(%rip), %rax
	movq	%rax, _TIG_iO_EK4z_1_insert_1_opaque_ptr_2(%rip)
	movq	_TIG_iO_EK4z_1_insert_1_opaque_ptr_2(%rip), %rax
	movq	8(%rax), %rax
	movq	%rax, _TIG_iO_EK4z_1_insert_1_opaque_ptr_2(%rip)
	nop
	nop
	movq	_TIG_iO_EK4z_1_main_1_opaque_ptr_1(%rip), %rdx
	movq	_TIG_iO_EK4z_1_main_1_opaque_ptr_2(%rip), %rax
	cmpq	%rax, %rdx
	je	.L2
#APP
# 125 "/usr/include/x86_64-linux-gnu/bits/byteswap.h" 1
	.byte 0xb5,0x94
# 0 "" 2
#NO_APP
	jmp	.L3
.L2:
	movl	count(%rip), %eax
	cmpl	$4, %eax
	jne	.L3
	leaq	.LC0(%rip), %rax
	movq	%rax, %rdi
	call	puts@PLT
	jmp	.L1
.L3:
	movl	r(%rip), %eax
	addl	$1, %eax
	cltd
	shrl	$30, %edx
	addl	%edx, %eax
	andl	$3, %eax
	subl	%edx, %eax
	movl	%eax, r(%rip)
	movl	r(%rip), %edx
	movl	item(%rip), %eax
	movslq	%edx, %rdx
	leaq	0(,%rdx,4), %rcx
	leaq	q(%rip), %rdx
	movl	%eax, (%rcx,%rdx)
	movl	count(%rip), %eax
	addl	$1, %eax
	movl	%eax, count(%rip)
	nop
.L1:
	leave
	.cfi_def_cfa 7, 8
	ret
	.cfi_endproc
.LFE4:
	.size	insert, .-insert
	.section	.rodata
.LC1:
	.string	"Queue is Empty"
.LC2:
	.string	"Contents of the queue"
.LC3:
	.string	"%d\n"
	.text
	.globl	display
	.type	display, @function
display:
.LFB5:
	.cfi_startproc
	endbr64
	pushq	%rbp
	.cfi_def_cfa_offset 16
	.cfi_offset 6, -16
	movq	%rsp, %rbp
	.cfi_def_cfa_register 6
	subq	$64, %rsp
	movl	%edi, -52(%rbp)
#APP
# 35 "sankalp-happy_DSA_6.c" 1
	##_ANNOTATION_INITIALREGION_-TIG-iO-EK4z-1-display--16
# 0 "" 2
# 39 "sankalp-happy_DSA_6.c" 1
	##_ANNOTATION_ATOMICREGION_-TIG-iO-EK4z-1-display--15
# 0 "" 2
#NO_APP
	movl	$24, %edi
	call	malloc@PLT
	movq	%rax, -24(%rbp)
	movq	-24(%rbp), %rax
	movq	-24(%rbp), %rdx
	movq	%rdx, 16(%rax)
	movq	-24(%rbp), %rax
	movq	-24(%rbp), %rdx
	movq	%rdx, 8(%rax)
	movq	-24(%rbp), %rax
	movq	%rax, _TIG_iO_EK4z_1_display_1_opaque_list_1(%rip)
	call	rand@PLT
	movl	%eax, -32(%rbp)
	movl	$24, %edi
	call	malloc@PLT
	movq	%rax, -16(%rbp)
	movq	-16(%rbp), %rax
	movl	$0, (%rax)
	movq	_TIG_iO_EK4z_1_display_1_opaque_list_1(%rip), %rax
	movq	16(%rax), %rdx
	movq	-16(%rbp), %rax
	movq	%rdx, 16(%rax)
	movq	_TIG_iO_EK4z_1_display_1_opaque_list_1(%rip), %rdx
	movq	-16(%rbp), %rax
	movq	%rdx, 8(%rax)
	movq	_TIG_iO_EK4z_1_display_1_opaque_list_1(%rip), %rax
	movq	16(%rax), %rax
	movq	-16(%rbp), %rdx
	movq	%rdx, 8(%rax)
	movq	_TIG_iO_EK4z_1_display_1_opaque_list_1(%rip), %rax
	movq	-16(%rbp), %rdx
	movq	%rdx, 16(%rax)
	call	rand@PLT
	movl	%eax, -28(%rbp)
	movl	$24, %edi
	call	malloc@PLT
	movq	%rax, -8(%rbp)
	movq	-8(%rbp), %rax
	movl	-28(%rbp), %edx
	movl	%edx, (%rax)
	movq	_TIG_iO_EK4z_1_display_1_opaque_list_1(%rip), %rax
	movq	16(%rax), %rdx
	movq	-8(%rbp), %rax
	movq	%rdx, 16(%rax)
	movq	_TIG_iO_EK4z_1_display_1_opaque_list_1(%rip), %rdx
	movq	-8(%rbp), %rax
	movq	%rdx, 8(%rax)
	movq	_TIG_iO_EK4z_1_display_1_opaque_list_1(%rip), %rax
	movq	16(%rax), %rax
	movq	-8(%rbp), %rdx
	movq	%rdx, 8(%rax)
	movq	_TIG_iO_EK4z_1_display_1_opaque_list_1(%rip), %rax
	movq	-8(%rbp), %rdx
	movq	%rdx, 16(%rax)
	movq	_TIG_iO_EK4z_1_display_1_opaque_list_1(%rip), %rax
	movq	16(%rax), %rax
	movq	%rax, _TIG_iO_EK4z_1_display_1_opaque_ptr_1(%rip)
	movq	_TIG_iO_EK4z_1_display_1_opaque_ptr_1(%rip), %rax
	movq	%rax, _TIG_iO_EK4z_1_display_1_opaque_ptr_2(%rip)
	nop
	nop
	movl	count(%rip), %eax
	testl	%eax, %eax
	jne	.L6
	leaq	.LC1(%rip), %rax
	movq	%rax, %rdi
	call	puts@PLT
	jmp	.L5
.L6:
	movq	_TIG_iO_EK4z_1_main_1_opaque_ptr_1(%rip), %rdx
	movq	_TIG_iO_EK4z_1_main_1_opaque_ptr_2(%rip), %rax
	cmpq	%rax, %rdx
	je	.L8
#APP
# 38 "sankalp-happy_DSA_6.c" 1
	.byte 0x83,0xc6,0x68
# 0 "" 2
#NO_APP
	jmp	.L10
.L8:
	leaq	.LC2(%rip), %rax
	movq	%rax, %rdi
	call	puts@PLT
	movl	$1, -36(%rbp)
	jmp	.L10
.L11:
	movl	-52(%rbp), %eax
	cltq
	leaq	0(,%rax,4), %rdx
	leaq	q(%rip), %rax
	movl	(%rdx,%rax), %eax
	movl	%eax, %esi
	leaq	.LC3(%rip), %rax
	movq	%rax, %rdi
	movl	$0, %eax
	call	printf@PLT
	movl	-52(%rbp), %eax
	addl	$1, %eax
	cltd
	shrl	$30, %edx
	addl	%edx, %eax
	andl	$3, %eax
	subl	%edx, %eax
	movl	%eax, -52(%rbp)
	addl	$1, -36(%rbp)
.L10:
	movl	count(%rip), %eax
	cmpl	%eax, -36(%rbp)
	jle	.L11
	nop
.L5:
	leave
	.cfi_def_cfa 7, 8
	ret
	.cfi_endproc
.LFE5:
	.size	display, .-display
	.section	.rodata
.LC4:
	.string	"***********************"
.LC5:
	.string	"Circular Queue Operations"
.LC6:
	.string	"1. Insert"
.LC7:
	.string	"2. Delete"
.LC8:
	.string	"3. Display"
.LC9:
	.string	"4. Quit"
.LC10:
	.string	"Enter your choice:"
.LC11:
	.string	"%d"
.LC12:
	.string	"Enter the item to be inserted"
.LC13:
	.string	"Invalid choice"
	.text
	.globl	main
	.type	main, @function
main:
.LFB6:
	.cfi_startproc
	endbr64
	pushq	%rbp
	.cfi_def_cfa_offset 16
	.cfi_offset 6, -16
	movq	%rsp, %rbp
	.cfi_def_cfa_register 6
	subq	$80, %rsp
	movl	%edi, -52(%rbp)
	movq	%rsi, -64(%rbp)
	movq	%rdx, -72(%rbp)
	movq	%fs:40, %rax
	movq	%rax, -8(%rbp)
	xorl	%eax, %eax
	movl	$0, item(%rip)
	nop
.L13:
	movl	$0, count(%rip)
	nop
.L14:
	movl	$0, f(%rip)
	nop
.L15:
	movl	$-1, r(%rip)
	nop
.L16:
	movl	$0, -44(%rbp)
	jmp	.L17
.L18:
	movl	-44(%rbp), %eax
	cltq
	leaq	0(,%rax,4), %rdx
	leaq	q(%rip), %rax
	movl	$0, (%rdx,%rax)
	addl	$1, -44(%rbp)
.L17:
	cmpl	$3, -44(%rbp)
	jle	.L18
	nop
.L19:
	movq	$0, _TIG_IZ_EK4z_envp(%rip)
	nop
.L20:
	movq	$0, _TIG_IZ_EK4z_argv(%rip)
	nop
.L21:
	movl	$0, _TIG_IZ_EK4z_argc(%rip)
	nop
	nop
.L22:
.L23:
#APP
# 125 "sankalp-happy_DSA_6.c" 1
	##_ANNOTATION_INITIALREGION_-TIG-IZ-EK4z--0
# 0 "" 2
#NO_APP
	movl	-52(%rbp), %eax
	movl	%eax, _TIG_IZ_EK4z_argc(%rip)
	movq	-64(%rbp), %rax
	movq	%rax, _TIG_IZ_EK4z_argv(%rip)
	movq	-72(%rbp), %rax
	movq	%rax, _TIG_IZ_EK4z_envp(%rip)
#APP
# 132 "sankalp-happy_DSA_6.c" 1
	##_ANNOTATION_ATOMICREGION_-TIG-iO-EK4z-1-main--19
# 0 "" 2
#NO_APP
	movl	$24, %edi
	call	malloc@PLT
	movq	%rax, -32(%rbp)
	movq	-32(%rbp), %rax
	movq	-32(%rbp), %rdx
	movq	%rdx, 8(%rax)
	movq	-32(%rbp), %rax
	movq	-32(%rbp), %rdx
	movq	%rdx, 16(%rax)
	movq	-32(%rbp), %rax
	movq	%rax, _TIG_iO_EK4z_1_main_1_opaque_list_1(%rip)
	call	rand@PLT
	movl	%eax, -40(%rbp)
	movl	$24, %edi
	call	malloc@PLT
	movq	%rax, -24(%rbp)
	movq	-24(%rbp), %rax
	movl	$0, (%rax)
	movq	_TIG_iO_EK4z_1_main_1_opaque_list_1(%rip), %rax
	movq	8(%rax), %rdx
	movq	-24(%rbp), %rax
	movq	%rdx, 8(%rax)
	movq	_TIG_iO_EK4z_1_main_1_opaque_list_1(%rip), %rdx
	movq	-24(%rbp), %rax
	movq	%rdx, 16(%rax)
	movq	_TIG_iO_EK4z_1_main_1_opaque_list_1(%rip), %rax
	movq	8(%rax), %rax
	movq	-24(%rbp), %rdx
	movq	%rdx, 16(%rax)
	movq	_TIG_iO_EK4z_1_main_1_opaque_list_1(%rip), %rax
	movq	-24(%rbp), %rdx
	movq	%rdx, 8(%rax)
	call	rand@PLT
	movl	%eax, -36(%rbp)
	movl	$24, %edi
	call	malloc@PLT
	movq	%rax, -16(%rbp)
	movq	-16(%rbp), %rax
	movl	-36(%rbp), %edx
	movl	%edx, (%rax)
	movq	_TIG_iO_EK4z_1_main_1_opaque_list_1(%rip), %rax
	movq	8(%rax), %rdx
	movq	-16(%rbp), %rax
	movq	%rdx, 8(%rax)
	movq	_TIG_iO_EK4z_1_main_1_opaque_list_1(%rip), %rdx
	movq	-16(%rbp), %rax
	movq	%rdx, 16(%rax)
	movq	_TIG_iO_EK4z_1_main_1_opaque_list_1(%rip), %rax
	movq	8(%rax), %rax
	movq	-16(%rbp), %rdx
	movq	%rdx, 16(%rax)
	movq	_TIG_iO_EK4z_1_main_1_opaque_list_1(%rip), %rax
	movq	-16(%rbp), %rdx
	movq	%rdx, 8(%rax)
	movq	_TIG_iO_EK4z_1_main_1_opaque_list_1(%rip), %rax
	movq	8(%rax), %rax
	movq	%rax, _TIG_iO_EK4z_1_main_1_opaque_ptr_1(%rip)
	movq	_TIG_iO_EK4z_1_main_1_opaque_ptr_1(%rip), %rax
	movq	%rax, _TIG_iO_EK4z_1_main_1_opaque_ptr_2(%rip)
	nop
	nop
.L32:
	leaq	.LC4(%rip), %rax
	movq	%rax, %rdi
	call	puts@PLT
	leaq	.LC5(%rip), %rax
	movq	%rax, %rdi
	call	puts@PLT
	leaq	.LC6(%rip), %rax
	movq	%rax, %rdi
	call	puts@PLT
	leaq	.LC7(%rip), %rax
	movq	%rax, %rdi
	call	puts@PLT
	leaq	.LC8(%rip), %rax
	movq	%rax, %rdi
	call	puts@PLT
	leaq	.LC9(%rip), %rax
	movq	%rax, %rdi
	call	puts@PLT
	leaq	.LC10(%rip), %rax
	movq	%rax, %rdi
	call	puts@PLT
	leaq	-48(%rbp), %rax
	movq	%rax, %rsi
	leaq	.LC11(%rip), %rax
	movq	%rax, %rdi
	movl	$0, %eax
	call	__isoc99_scanf@PLT
	movl	-48(%rbp), %eax
	cmpl	$4, %eax
	je	.L24
	cmpl	$4, %eax
	jg	.L25
	cmpl	$3, %eax
	je	.L26
	cmpl	$3, %eax
	jg	.L25
	cmpl	$1, %eax
	je	.L27
	cmpl	$2, %eax
	je	.L28
	jmp	.L25
.L27:
	leaq	.LC12(%rip), %rax
	movq	%rax, %rdi
	call	puts@PLT
	leaq	item(%rip), %rax
	movq	%rax, %rsi
	leaq	.LC11(%rip), %rax
	movq	%rax, %rdi
	movl	$0, %eax
	call	__isoc99_scanf@PLT
	call	insert
	movq	_TIG_iO_EK4z_1_main_1_opaque_ptr_1(%rip), %rdx
	movq	_TIG_iO_EK4z_1_main_1_opaque_ptr_2(%rip), %rax
	cmpq	%rax, %rdx
	je	.L36
.L28:
	call	del
	jmp	.L29
.L26:
	movl	f(%rip), %eax
	movl	%eax, %edi
	call	display
	jmp	.L29
.L24:
	movl	$0, %edi
	call	exit@PLT
.L25:
	leaq	.LC13(%rip), %rax
	movq	%rax, %rdi
	call	puts@PLT
	jmp	.L29
.L36:
	nop
.L29:
	movl	-48(%rbp), %eax
	cmpl	$4, %eax
	je	.L37
	jmp	.L32
.L37:
	nop
	movl	$0, %eax
	movq	-8(%rbp), %rdx
	subq	%fs:40, %rdx
	je	.L34
	call	__stack_chk_fail@PLT
.L34:
	leave
	.cfi_def_cfa 7, 8
	ret
	.cfi_endproc
.LFE6:
	.size	main, .-main
	.section	.rodata
.LC14:
	.string	"Queue UnderFlow"
.LC15:
	.string	"The Deleted item is %d\n"
	.text
	.globl	del
	.type	del, @function
del:
.LFB8:
	.cfi_startproc
	endbr64
	pushq	%rbp
	.cfi_def_cfa_offset 16
	.cfi_offset 6, -16
	movq	%rsp, %rbp
	.cfi_def_cfa_register 6
	subq	$64, %rsp
#APP
# 56 "/usr/include/x86_64-linux-gnu/bits/uintn-identity.h" 1
	##_ANNOTATION_INITIALREGION_-TIG-iO-EK4z-1-del--14
# 0 "" 2
# 60 "/usr/include/x86_64-linux-gnu/bits/uintn-identity.h" 1
	##_ANNOTATION_ATOMICREGION_-TIG-iO-EK4z-1-del--13
# 0 "" 2
#NO_APP
	movl	$24, %edi
	call	malloc@PLT
	movq	%rax, -40(%rbp)
	movq	-40(%rbp), %rax
	movq	-40(%rbp), %rdx
	movq	%rdx, (%rax)
	movq	-40(%rbp), %rax
	movq	-40(%rbp), %rdx
	movq	%rdx, 8(%rax)
	movq	-40(%rbp), %rax
	movq	%rax, _TIG_iO_EK4z_1_del_1_opaque_list_1(%rip)
	call	rand@PLT
	movl	%eax, -56(%rbp)
	movl	$24, %edi
	call	malloc@PLT
	movq	%rax, -32(%rbp)
	movq	-32(%rbp), %rax
	movl	$0, 16(%rax)
	movq	_TIG_iO_EK4z_1_del_1_opaque_list_1(%rip), %rax
	movq	(%rax), %rdx
	movq	-32(%rbp), %rax
	movq	%rdx, (%rax)
	movq	_TIG_iO_EK4z_1_del_1_opaque_list_1(%rip), %rdx
	movq	-32(%rbp), %rax
	movq	%rdx, 8(%rax)
	movq	_TIG_iO_EK4z_1_del_1_opaque_list_1(%rip), %rax
	movq	(%rax), %rax
	movq	-32(%rbp), %rdx
	movq	%rdx, 8(%rax)
	movq	_TIG_iO_EK4z_1_del_1_opaque_list_1(%rip), %rax
	movq	-32(%rbp), %rdx
	movq	%rdx, (%rax)
	call	rand@PLT
	movl	%eax, -52(%rbp)
	movl	$24, %edi
	call	malloc@PLT
	movq	%rax, -24(%rbp)
	movq	-24(%rbp), %rax
	movl	-52(%rbp), %edx
	movl	%edx, 16(%rax)
	movq	_TIG_iO_EK4z_1_del_1_opaque_list_1(%rip), %rax
	movq	(%rax), %rdx
	movq	-24(%rbp), %rax
	movq	%rdx, (%rax)
	movq	_TIG_iO_EK4z_1_del_1_opaque_list_1(%rip), %rdx
	movq	-24(%rbp), %rax
	movq	%rdx, 8(%rax)
	movq	_TIG_iO_EK4z_1_del_1_opaque_list_1(%rip), %rax
	movq	(%rax), %rax
	movq	-24(%rbp), %rdx
	movq	%rdx, 8(%rax)
	movq	_TIG_iO_EK4z_1_del_1_opaque_list_1(%rip), %rax
	movq	-24(%rbp), %rdx
	movq	%rdx, (%rax)
	call	rand@PLT
	movl	%eax, -48(%rbp)
	movl	$24, %edi
	call	malloc@PLT
	movq	%rax, -16(%rbp)
	movl	-48(%rbp), %eax
	leal	(%rax,%rax), %edx
	movq	-16(%rbp), %rax
	movl	%edx, 16(%rax)
	movq	_TIG_iO_EK4z_1_del_1_opaque_list_1(%rip), %rax
	movq	(%rax), %rdx
	movq	-16(%rbp), %rax
	movq	%rdx, (%rax)
	movq	_TIG_iO_EK4z_1_del_1_opaque_list_1(%rip), %rdx
	movq	-16(%rbp), %rax
	movq	%rdx, 8(%rax)
	movq	_TIG_iO_EK4z_1_del_1_opaque_list_1(%rip), %rax
	movq	(%rax), %rax
	movq	-16(%rbp), %rdx
	movq	%rdx, 8(%rax)
	movq	_TIG_iO_EK4z_1_del_1_opaque_list_1(%rip), %rax
	movq	-16(%rbp), %rdx
	movq	%rdx, (%rax)
	call	rand@PLT
	movl	%eax, -44(%rbp)
	movl	$24, %edi
	call	malloc@PLT
	movq	%rax, -8(%rbp)
	movl	-44(%rbp), %edx
	movl	%edx, %eax
	addl	%eax, %eax
	addl	%eax, %edx
	movq	-8(%rbp), %rax
	movl	%edx, 16(%rax)
	movq	_TIG_iO_EK4z_1_del_1_opaque_list_1(%rip), %rax
	movq	(%rax), %rdx
	movq	-8(%rbp), %rax
	movq	%rdx, (%rax)
	movq	_TIG_iO_EK4z_1_del_1_opaque_list_1(%rip), %rdx
	movq	-8(%rbp), %rax
	movq	%rdx, 8(%rax)
	movq	_TIG_iO_EK4z_1_del_1_opaque_list_1(%rip), %rax
	movq	(%rax), %rax
	movq	-8(%rbp), %rdx
	movq	%rdx, 8(%rax)
	movq	_TIG_iO_EK4z_1_del_1_opaque_list_1(%rip), %rax
	movq	-8(%rbp), %rdx
	movq	%rdx, (%rax)
	movq	_TIG_iO_EK4z_1_del_1_opaque_list_1(%rip), %rax
	movq	(%rax), %rax
	movq	%rax, _TIG_iO_EK4z_1_del_1_opaque_ptr_1(%rip)
	movq	_TIG_iO_EK4z_1_del_1_opaque_ptr_1(%rip), %rax
	movq	%rax, _TIG_iO_EK4z_1_del_1_opaque_ptr_2(%rip)
	movq	_TIG_iO_EK4z_1_del_1_opaque_ptr_2(%rip), %rax
	movq	(%rax), %rax
	movq	%rax, _TIG_iO_EK4z_1_del_1_opaque_ptr_2(%rip)
	nop
	nop
	movq	_TIG_iO_EK4z_1_main_1_opaque_ptr_1(%rip), %rdx
	movq	_TIG_iO_EK4z_1_main_1_opaque_ptr_2(%rip), %rax
	cmpq	%rax, %rdx
	jne	.L39
	movl	count(%rip), %eax
	testl	%eax, %eax
	jne	.L39
	leaq	.LC14(%rip), %rax
	movq	%rax, %rdi
	call	puts@PLT
	jmp	.L38
.L39:
	movl	f(%rip), %eax
	cltq
	leaq	0(,%rax,4), %rdx
	leaq	q(%rip), %rax
	movl	(%rdx,%rax), %eax
	movl	%eax, %esi
	leaq	.LC15(%rip), %rax
	movq	%rax, %rdi
	movl	$0, %eax
	call	printf@PLT
	movl	f(%rip), %eax
	addl	$1, %eax
	cltd
	shrl	$30, %edx
	addl	%edx, %eax
	andl	$3, %eax
	subl	%edx, %eax
	movl	%eax, f(%rip)
	movl	count(%rip), %eax
	subl	$1, %eax
	movl	%eax, count(%rip)
	nop
.L38:
	leave
	.cfi_def_cfa 7, 8
	ret
	.cfi_endproc
.LFE8:
	.size	del, .-del
	.ident	"GCC: (Ubuntu 11.4.0-1ubuntu1~22.04) 11.4.0"
	.section	.note.GNU-stack,"",@progbits
	.section	.note.gnu.property,"a"
	.align 8
	.long	1f - 0f
	.long	4f - 1f
	.long	5
0:
	.string	"GNU"
1:
	.align 8
	.long	0xc0000002
	.long	3f - 2f
2:
	.long	0x3
3:
	.align 8
4:
