	.file	"abhinav-kayastha_Learning_C_3_opaque.c"
	.text
	.globl	_TIG_iO_Wq6j_1___bswap_64_1_opaque_list_1
	.bss
	.align 8
	.type	_TIG_iO_Wq6j_1___bswap_64_1_opaque_list_1, @object
	.size	_TIG_iO_Wq6j_1___bswap_64_1_opaque_list_1, 8
_TIG_iO_Wq6j_1___bswap_64_1_opaque_list_1:
	.zero	8
	.globl	_TIG_iO_Wq6j_1___uint16_identity_1_opaque_list_2
	.align 8
	.type	_TIG_iO_Wq6j_1___uint16_identity_1_opaque_list_2, @object
	.size	_TIG_iO_Wq6j_1___uint16_identity_1_opaque_list_2, 8
_TIG_iO_Wq6j_1___uint16_identity_1_opaque_list_2:
	.zero	8
	.globl	_TIG_IZ_Wq6j_envp
	.align 8
	.type	_TIG_IZ_Wq6j_envp, @object
	.size	_TIG_IZ_Wq6j_envp, 8
_TIG_IZ_Wq6j_envp:
	.zero	8
	.globl	_TIG_iO_Wq6j_1___bswap_16_1_opaque_list_1
	.align 8
	.type	_TIG_iO_Wq6j_1___bswap_16_1_opaque_list_1, @object
	.size	_TIG_iO_Wq6j_1___bswap_16_1_opaque_list_1, 8
_TIG_iO_Wq6j_1___bswap_16_1_opaque_list_1:
	.zero	8
	.globl	_TIG_iO_Wq6j_1___bswap_32_1_opaque_list_1
	.align 8
	.type	_TIG_iO_Wq6j_1___bswap_32_1_opaque_list_1, @object
	.size	_TIG_iO_Wq6j_1___bswap_32_1_opaque_list_1, 8
_TIG_iO_Wq6j_1___bswap_32_1_opaque_list_1:
	.zero	8
	.globl	_TIG_iO_Wq6j_1___uint32_identity_1_opaque_list_1
	.align 8
	.type	_TIG_iO_Wq6j_1___uint32_identity_1_opaque_list_1, @object
	.size	_TIG_iO_Wq6j_1___uint32_identity_1_opaque_list_1, 8
_TIG_iO_Wq6j_1___uint32_identity_1_opaque_list_1:
	.zero	8
	.globl	_TIG_iO_Wq6j_1___bswap_64_1_opaque_list_2
	.align 8
	.type	_TIG_iO_Wq6j_1___bswap_64_1_opaque_list_2, @object
	.size	_TIG_iO_Wq6j_1___bswap_64_1_opaque_list_2, 8
_TIG_iO_Wq6j_1___bswap_64_1_opaque_list_2:
	.zero	8
	.globl	_TIG_iO_Wq6j_1___uint64_identity_1_opaque_ptr_1
	.align 8
	.type	_TIG_iO_Wq6j_1___uint64_identity_1_opaque_ptr_1, @object
	.size	_TIG_iO_Wq6j_1___uint64_identity_1_opaque_ptr_1, 8
_TIG_iO_Wq6j_1___uint64_identity_1_opaque_ptr_1:
	.zero	8
	.globl	_TIG_IZ_Wq6j_argv
	.align 8
	.type	_TIG_IZ_Wq6j_argv, @object
	.size	_TIG_IZ_Wq6j_argv, 8
_TIG_IZ_Wq6j_argv:
	.zero	8
	.globl	_TIG_iO_Wq6j_1___uint16_identity_1_opaque_ptr_2
	.align 8
	.type	_TIG_iO_Wq6j_1___uint16_identity_1_opaque_ptr_2, @object
	.size	_TIG_iO_Wq6j_1___uint16_identity_1_opaque_ptr_2, 8
_TIG_iO_Wq6j_1___uint16_identity_1_opaque_ptr_2:
	.zero	8
	.globl	_TIG_iO_Wq6j_1___bswap_16_1_opaque_list_2
	.align 8
	.type	_TIG_iO_Wq6j_1___bswap_16_1_opaque_list_2, @object
	.size	_TIG_iO_Wq6j_1___bswap_16_1_opaque_list_2, 8
_TIG_iO_Wq6j_1___bswap_16_1_opaque_list_2:
	.zero	8
	.globl	_TIG_IZ_Wq6j_argc
	.align 4
	.type	_TIG_IZ_Wq6j_argc, @object
	.size	_TIG_IZ_Wq6j_argc, 4
_TIG_IZ_Wq6j_argc:
	.zero	4
	.globl	_TIG_iO_Wq6j_1_main_1_opaque_list_2
	.align 8
	.type	_TIG_iO_Wq6j_1_main_1_opaque_list_2, @object
	.size	_TIG_iO_Wq6j_1_main_1_opaque_list_2, 8
_TIG_iO_Wq6j_1_main_1_opaque_list_2:
	.zero	8
	.globl	_TIG_iO_Wq6j_1___uint32_identity_1_opaque_list_2
	.align 8
	.type	_TIG_iO_Wq6j_1___uint32_identity_1_opaque_list_2, @object
	.size	_TIG_iO_Wq6j_1___uint32_identity_1_opaque_list_2, 8
_TIG_iO_Wq6j_1___uint32_identity_1_opaque_list_2:
	.zero	8
	.globl	_TIG_iO_Wq6j_1___uint32_identity_1_opaque_ptr_1
	.align 8
	.type	_TIG_iO_Wq6j_1___uint32_identity_1_opaque_ptr_1, @object
	.size	_TIG_iO_Wq6j_1___uint32_identity_1_opaque_ptr_1, 8
_TIG_iO_Wq6j_1___uint32_identity_1_opaque_ptr_1:
	.zero	8
	.globl	_TIG_iO_Wq6j_1___bswap_16_1_opaque_ptr_1
	.align 8
	.type	_TIG_iO_Wq6j_1___bswap_16_1_opaque_ptr_1, @object
	.size	_TIG_iO_Wq6j_1___bswap_16_1_opaque_ptr_1, 8
_TIG_iO_Wq6j_1___bswap_16_1_opaque_ptr_1:
	.zero	8
	.globl	_TIG_iO_Wq6j_1_main_1_opaque_ptr_2
	.align 8
	.type	_TIG_iO_Wq6j_1_main_1_opaque_ptr_2, @object
	.size	_TIG_iO_Wq6j_1_main_1_opaque_ptr_2, 8
_TIG_iO_Wq6j_1_main_1_opaque_ptr_2:
	.zero	8
	.globl	_TIG_iO_Wq6j_1___bswap_32_1_opaque_ptr_2
	.align 8
	.type	_TIG_iO_Wq6j_1___bswap_32_1_opaque_ptr_2, @object
	.size	_TIG_iO_Wq6j_1___bswap_32_1_opaque_ptr_2, 8
_TIG_iO_Wq6j_1___bswap_32_1_opaque_ptr_2:
	.zero	8
	.globl	_TIG_iO_Wq6j_1___uint16_identity_1_opaque_list_1
	.align 8
	.type	_TIG_iO_Wq6j_1___uint16_identity_1_opaque_list_1, @object
	.size	_TIG_iO_Wq6j_1___uint16_identity_1_opaque_list_1, 8
_TIG_iO_Wq6j_1___uint16_identity_1_opaque_list_1:
	.zero	8
	.globl	_TIG_iO_Wq6j_1_main_1_opaque_list_1
	.align 8
	.type	_TIG_iO_Wq6j_1_main_1_opaque_list_1, @object
	.size	_TIG_iO_Wq6j_1_main_1_opaque_list_1, 8
_TIG_iO_Wq6j_1_main_1_opaque_list_1:
	.zero	8
	.globl	_TIG_iO_Wq6j_1___uint64_identity_1_opaque_ptr_2
	.align 8
	.type	_TIG_iO_Wq6j_1___uint64_identity_1_opaque_ptr_2, @object
	.size	_TIG_iO_Wq6j_1___uint64_identity_1_opaque_ptr_2, 8
_TIG_iO_Wq6j_1___uint64_identity_1_opaque_ptr_2:
	.zero	8
	.globl	_TIG_iO_Wq6j_1___bswap_32_1_opaque_ptr_1
	.align 8
	.type	_TIG_iO_Wq6j_1___bswap_32_1_opaque_ptr_1, @object
	.size	_TIG_iO_Wq6j_1___bswap_32_1_opaque_ptr_1, 8
_TIG_iO_Wq6j_1___bswap_32_1_opaque_ptr_1:
	.zero	8
	.globl	_TIG_iO_Wq6j_1___uint32_identity_1_opaque_ptr_2
	.align 8
	.type	_TIG_iO_Wq6j_1___uint32_identity_1_opaque_ptr_2, @object
	.size	_TIG_iO_Wq6j_1___uint32_identity_1_opaque_ptr_2, 8
_TIG_iO_Wq6j_1___uint32_identity_1_opaque_ptr_2:
	.zero	8
	.globl	_TIG_iO_Wq6j_1___uint64_identity_1_opaque_list_1
	.align 8
	.type	_TIG_iO_Wq6j_1___uint64_identity_1_opaque_list_1, @object
	.size	_TIG_iO_Wq6j_1___uint64_identity_1_opaque_list_1, 8
_TIG_iO_Wq6j_1___uint64_identity_1_opaque_list_1:
	.zero	8
	.globl	_TIG_iO_Wq6j_1___bswap_64_1_opaque_ptr_1
	.align 8
	.type	_TIG_iO_Wq6j_1___bswap_64_1_opaque_ptr_1, @object
	.size	_TIG_iO_Wq6j_1___bswap_64_1_opaque_ptr_1, 8
_TIG_iO_Wq6j_1___bswap_64_1_opaque_ptr_1:
	.zero	8
	.globl	_TIG_iO_Wq6j_1_main_1_opaque_ptr_1
	.align 8
	.type	_TIG_iO_Wq6j_1_main_1_opaque_ptr_1, @object
	.size	_TIG_iO_Wq6j_1_main_1_opaque_ptr_1, 8
_TIG_iO_Wq6j_1_main_1_opaque_ptr_1:
	.zero	8
	.globl	_TIG_iO_Wq6j_1___uint64_identity_1_opaque_list_2
	.align 8
	.type	_TIG_iO_Wq6j_1___uint64_identity_1_opaque_list_2, @object
	.size	_TIG_iO_Wq6j_1___uint64_identity_1_opaque_list_2, 8
_TIG_iO_Wq6j_1___uint64_identity_1_opaque_list_2:
	.zero	8
	.globl	_TIG_iO_Wq6j_1___bswap_32_1_opaque_list_2
	.align 8
	.type	_TIG_iO_Wq6j_1___bswap_32_1_opaque_list_2, @object
	.size	_TIG_iO_Wq6j_1___bswap_32_1_opaque_list_2, 8
_TIG_iO_Wq6j_1___bswap_32_1_opaque_list_2:
	.zero	8
	.globl	_TIG_iO_Wq6j_1___bswap_16_1_opaque_ptr_2
	.align 8
	.type	_TIG_iO_Wq6j_1___bswap_16_1_opaque_ptr_2, @object
	.size	_TIG_iO_Wq6j_1___bswap_16_1_opaque_ptr_2, 8
_TIG_iO_Wq6j_1___bswap_16_1_opaque_ptr_2:
	.zero	8
	.globl	_TIG_iO_Wq6j_1___bswap_64_1_opaque_ptr_2
	.align 8
	.type	_TIG_iO_Wq6j_1___bswap_64_1_opaque_ptr_2, @object
	.size	_TIG_iO_Wq6j_1___bswap_64_1_opaque_ptr_2, 8
_TIG_iO_Wq6j_1___bswap_64_1_opaque_ptr_2:
	.zero	8
	.globl	_TIG_iO_Wq6j_1___uint16_identity_1_opaque_ptr_1
	.align 8
	.type	_TIG_iO_Wq6j_1___uint16_identity_1_opaque_ptr_1, @object
	.size	_TIG_iO_Wq6j_1___uint16_identity_1_opaque_ptr_1, 8
_TIG_iO_Wq6j_1___uint16_identity_1_opaque_ptr_1:
	.zero	8
	.section	.rodata
	.align 8
.LC0:
	.string	"Enter the number of students: "
.LC1:
	.string	"%d"
	.align 8
.LC2:
	.string	"Enter student number (1 - %d) or 0 to stop: "
	.align 8
.LC3:
	.string	"Exiting student information input."
.LC4:
	.string	"Student\tGrade"
.LC5:
	.string	"%d\t"
.LC6:
	.string	"N/A"
.LC7:
	.string	"%d\n"
	.align 8
.LC8:
	.string	"Invalid student number. Try again."
	.align 8
.LC9:
	.string	"Enter the grade for student %d (0 - 5 or -1 to cancel): "
	.align 8
.LC10:
	.string	"Invalid grade. Please enter a grade between 0 and 5 or -1."
	.text
	.globl	main
	.type	main, @function
main:
.LFB5:
	.cfi_startproc
	endbr64
	pushq	%rbp
	.cfi_def_cfa_offset 16
	.cfi_offset 6, -16
	movq	%rsp, %rbp
	.cfi_def_cfa_register 6
	pushq	%r15
	pushq	%r14
	pushq	%r13
	pushq	%r12
	subq	$144, %rsp
	.cfi_offset 15, -24
	.cfi_offset 14, -32
	.cfi_offset 13, -40
	.cfi_offset 12, -48
	movl	%edi, -148(%rbp)
	movq	%rsi, -160(%rbp)
	movq	%rdx, -168(%rbp)
	movq	%fs:40, %rax
	movq	%rax, -40(%rbp)
	xorl	%eax, %eax
	movq	$0, _TIG_IZ_Wq6j_envp(%rip)
	nop
.L2:
	movq	$0, _TIG_IZ_Wq6j_argv(%rip)
	nop
.L3:
	movl	$0, _TIG_IZ_Wq6j_argc(%rip)
	nop
	nop
.L4:
.L5:
#APP
# 89 "/usr/include/x86_64-linux-gnu/bits/uintn-identity.h" 1
	##_ANNOTATION_INITIALREGION_-TIG-IZ-Wq6j--0
# 0 "" 2
#NO_APP
	movl	-148(%rbp), %eax
	movl	%eax, _TIG_IZ_Wq6j_argc(%rip)
	movq	-160(%rbp), %rax
	movq	%rax, _TIG_IZ_Wq6j_argv(%rip)
	movq	-168(%rbp), %rax
	movq	%rax, _TIG_IZ_Wq6j_envp(%rip)
#APP
# 96 "/usr/include/x86_64-linux-gnu/bits/uintn-identity.h" 1
	##_ANNOTATION_ATOMICREGION_-TIG-iO-Wq6j-1-main--13
# 0 "" 2
#NO_APP
	movl	$24, %edi
	call	malloc@PLT
	movq	%rax, -96(%rbp)
	movq	-96(%rbp), %rax
	movq	-96(%rbp), %rdx
	movq	%rdx, (%rax)
	movq	-96(%rbp), %rax
	movq	-96(%rbp), %rdx
	movq	%rdx, 8(%rax)
	movq	-96(%rbp), %rax
	movq	%rax, _TIG_iO_Wq6j_1_main_1_opaque_list_1(%rip)
	call	rand@PLT
	movl	%eax, -112(%rbp)
	movl	$24, %edi
	call	malloc@PLT
	movq	%rax, -88(%rbp)
	movq	-88(%rbp), %rax
	movl	$0, 16(%rax)
	movq	_TIG_iO_Wq6j_1_main_1_opaque_list_1(%rip), %rax
	movq	(%rax), %rdx
	movq	-88(%rbp), %rax
	movq	%rdx, (%rax)
	movq	_TIG_iO_Wq6j_1_main_1_opaque_list_1(%rip), %rdx
	movq	-88(%rbp), %rax
	movq	%rdx, 8(%rax)
	movq	_TIG_iO_Wq6j_1_main_1_opaque_list_1(%rip), %rax
	movq	(%rax), %rax
	movq	-88(%rbp), %rdx
	movq	%rdx, 8(%rax)
	movq	_TIG_iO_Wq6j_1_main_1_opaque_list_1(%rip), %rax
	movq	-88(%rbp), %rdx
	movq	%rdx, (%rax)
	call	rand@PLT
	movl	%eax, -108(%rbp)
	movl	$24, %edi
	call	malloc@PLT
	movq	%rax, -80(%rbp)
	movq	-80(%rbp), %rax
	movl	-108(%rbp), %edx
	movl	%edx, 16(%rax)
	movq	_TIG_iO_Wq6j_1_main_1_opaque_list_1(%rip), %rax
	movq	(%rax), %rdx
	movq	-80(%rbp), %rax
	movq	%rdx, (%rax)
	movq	_TIG_iO_Wq6j_1_main_1_opaque_list_1(%rip), %rdx
	movq	-80(%rbp), %rax
	movq	%rdx, 8(%rax)
	movq	_TIG_iO_Wq6j_1_main_1_opaque_list_1(%rip), %rax
	movq	(%rax), %rax
	movq	-80(%rbp), %rdx
	movq	%rdx, 8(%rax)
	movq	_TIG_iO_Wq6j_1_main_1_opaque_list_1(%rip), %rax
	movq	-80(%rbp), %rdx
	movq	%rdx, (%rax)
	call	rand@PLT
	movl	%eax, -104(%rbp)
	movl	$24, %edi
	call	malloc@PLT
	movq	%rax, -72(%rbp)
	movl	-104(%rbp), %eax
	leal	(%rax,%rax), %edx
	movq	-72(%rbp), %rax
	movl	%edx, 16(%rax)
	movq	_TIG_iO_Wq6j_1_main_1_opaque_list_1(%rip), %rax
	movq	(%rax), %rdx
	movq	-72(%rbp), %rax
	movq	%rdx, (%rax)
	movq	_TIG_iO_Wq6j_1_main_1_opaque_list_1(%rip), %rdx
	movq	-72(%rbp), %rax
	movq	%rdx, 8(%rax)
	movq	_TIG_iO_Wq6j_1_main_1_opaque_list_1(%rip), %rax
	movq	(%rax), %rax
	movq	-72(%rbp), %rdx
	movq	%rdx, 8(%rax)
	movq	_TIG_iO_Wq6j_1_main_1_opaque_list_1(%rip), %rax
	movq	-72(%rbp), %rdx
	movq	%rdx, (%rax)
	call	rand@PLT
	movl	%eax, -100(%rbp)
	movl	$24, %edi
	call	malloc@PLT
	movq	%rax, -64(%rbp)
	movl	-100(%rbp), %edx
	movl	%edx, %eax
	addl	%eax, %eax
	addl	%eax, %edx
	movq	-64(%rbp), %rax
	movl	%edx, 16(%rax)
	movq	_TIG_iO_Wq6j_1_main_1_opaque_list_1(%rip), %rax
	movq	(%rax), %rdx
	movq	-64(%rbp), %rax
	movq	%rdx, (%rax)
	movq	_TIG_iO_Wq6j_1_main_1_opaque_list_1(%rip), %rdx
	movq	-64(%rbp), %rax
	movq	%rdx, 8(%rax)
	movq	_TIG_iO_Wq6j_1_main_1_opaque_list_1(%rip), %rax
	movq	(%rax), %rax
	movq	-64(%rbp), %rdx
	movq	%rdx, 8(%rax)
	movq	_TIG_iO_Wq6j_1_main_1_opaque_list_1(%rip), %rax
	movq	-64(%rbp), %rdx
	movq	%rdx, (%rax)
	movq	_TIG_iO_Wq6j_1_main_1_opaque_list_1(%rip), %rax
	movq	(%rax), %rax
	movq	%rax, _TIG_iO_Wq6j_1_main_1_opaque_ptr_1(%rip)
	movq	_TIG_iO_Wq6j_1_main_1_opaque_ptr_1(%rip), %rax
	movq	%rax, _TIG_iO_Wq6j_1_main_1_opaque_ptr_2(%rip)
	movq	_TIG_iO_Wq6j_1_main_1_opaque_ptr_2(%rip), %rax
	movq	(%rax), %rax
	movq	%rax, _TIG_iO_Wq6j_1_main_1_opaque_ptr_2(%rip)
	nop
	nop
	leaq	.LC0(%rip), %rax
	movq	%rax, %rdi
	movl	$0, %eax
	call	printf@PLT
	leaq	-132(%rbp), %rax
	movq	%rax, %rsi
	leaq	.LC1(%rip), %rax
	movq	%rax, %rdi
	movl	$0, %eax
	call	__isoc99_scanf@PLT
	movl	-132(%rbp), %eax
	movslq	%eax, %rdx
	subq	$1, %rdx
	movq	%rdx, -56(%rbp)
	movslq	%eax, %rdx
	movq	%rdx, %r14
	movl	$0, %r15d
	movslq	%eax, %rdx
	movq	%rdx, %r12
	movl	$0, %r13d
	cltq
	leaq	0(,%rax,4), %rdx
	movl	$16, %eax
	subq	$1, %rax
	addq	%rdx, %rax
	movl	$16, %ecx
	movl	$0, %edx
	divq	%rcx
	imulq	$16, %rax, %rax
	movq	%rax, %rcx
	andq	$-4096, %rcx
	movq	%rsp, %rdx
	subq	%rcx, %rdx
.L6:
	cmpq	%rdx, %rsp
	je	.L7
	subq	$4096, %rsp
	orq	$0, 4088(%rsp)
	jmp	.L6
.L7:
	movq	%rax, %rdx
	andl	$4095, %edx
	subq	%rdx, %rsp
	movq	%rax, %rdx
	andl	$4095, %edx
	testq	%rdx, %rdx
	je	.L8
	andl	$4095, %eax
	subq	$8, %rax
	addq	%rsp, %rax
	orq	$0, (%rax)
.L8:
	movq	%rsp, %rax
	addq	$3, %rax
	shrq	$2, %rax
	salq	$2, %rax
	movq	%rax, -48(%rbp)
	movl	$0, -120(%rbp)
	jmp	.L9
.L10:
	movq	-48(%rbp), %rax
	movl	-120(%rbp), %edx
	movslq	%edx, %rdx
	movl	$-1, (%rax,%rdx,4)
	addl	$1, -120(%rbp)
.L9:
	movl	-132(%rbp), %eax
	cmpl	%eax, -120(%rbp)
	jl	.L10
.L23:
	movl	-132(%rbp), %eax
	movl	%eax, %esi
	leaq	.LC2(%rip), %rax
	movq	%rax, %rdi
	movl	$0, %eax
	call	printf@PLT
	leaq	-128(%rbp), %rax
	movq	%rax, %rsi
	leaq	.LC1(%rip), %rax
	movq	%rax, %rdi
	movl	$0, %eax
	call	__isoc99_scanf@PLT
	movl	-128(%rbp), %eax
	testl	%eax, %eax
	jne	.L11
	leaq	.LC3(%rip), %rax
	movq	%rax, %rdi
	call	puts@PLT
	leaq	.LC4(%rip), %rax
	movq	%rax, %rdi
	call	puts@PLT
	movl	$0, -116(%rbp)
	jmp	.L12
.L15:
	movl	-116(%rbp), %eax
	addl	$1, %eax
	movl	%eax, %esi
	leaq	.LC5(%rip), %rax
	movq	%rax, %rdi
	movl	$0, %eax
	call	printf@PLT
	movq	-48(%rbp), %rax
	movl	-116(%rbp), %edx
	movslq	%edx, %rdx
	movl	(%rax,%rdx,4), %eax
	cmpl	$-1, %eax
	jne	.L13
	leaq	.LC6(%rip), %rax
	movq	%rax, %rdi
	call	puts@PLT
	jmp	.L14
.L13:
	movq	-48(%rbp), %rax
	movl	-116(%rbp), %edx
	movslq	%edx, %rdx
	movl	(%rax,%rdx,4), %eax
	movl	%eax, %esi
	leaq	.LC7(%rip), %rax
	movq	%rax, %rdi
	movl	$0, %eax
	call	printf@PLT
.L14:
	addl	$1, -116(%rbp)
.L12:
	movl	-132(%rbp), %eax
	cmpl	%eax, -116(%rbp)
	jl	.L15
	jmp	.L16
.L11:
	movl	-128(%rbp), %eax
	testl	%eax, %eax
	jg	.L17
	leaq	.LC8(%rip), %rax
	movq	%rax, %rdi
	call	puts@PLT
	jmp	.L25
.L17:
	movl	-128(%rbp), %edx
	movl	-132(%rbp), %eax
	cmpl	%eax, %edx
	jle	.L19
	leaq	.LC8(%rip), %rax
	movq	%rax, %rdi
	call	puts@PLT
	jmp	.L25
.L19:
	movl	-128(%rbp), %eax
	movl	%eax, %esi
	leaq	.LC9(%rip), %rax
	movq	%rax, %rdi
	movl	$0, %eax
	call	printf@PLT
	leaq	-124(%rbp), %rax
	movq	%rax, %rsi
	leaq	.LC1(%rip), %rax
	movq	%rax, %rdi
	movl	$0, %eax
	call	__isoc99_scanf@PLT
	movl	-124(%rbp), %eax
	cmpl	$-1, %eax
	jl	.L20
	movq	_TIG_iO_Wq6j_1_main_1_opaque_ptr_1(%rip), %rdx
	movq	_TIG_iO_Wq6j_1_main_1_opaque_ptr_2(%rip), %rax
	cmpq	%rax, %rdx
	jne	.L21
	movl	-128(%rbp), %eax
	movq	-160(%rbp), %rdx
	movq	-168(%rbp), %rcx
	movq	%rcx, %rsi
	movl	%eax, %edi
	call	main
	movl	%eax, -132(%rbp)
.L21:
	movl	-124(%rbp), %eax
	cmpl	$5, %eax
	jg	.L22
	movl	-128(%rbp), %eax
	leal	-1(%rax), %edx
	movl	-124(%rbp), %ecx
	movq	-48(%rbp), %rax
	movslq	%edx, %rdx
	movl	%ecx, (%rax,%rdx,4)
	jmp	.L25
.L22:
	leaq	.LC10(%rip), %rax
	movq	%rax, %rdi
	call	puts@PLT
	jmp	.L25
.L20:
	leaq	.LC10(%rip), %rax
	movq	%rax, %rdi
	call	puts@PLT
.L25:
	nop
.L16:
	jmp	.L23
	.cfi_endproc
.LFE5:
	.size	main, .-main
	.ident	"GCC: (Ubuntu 11.4.0-1ubuntu1~22.04) 11.4.0"
	.section	.note.GNU-stack,"",@progbits
	.section	.note.gnu.property,"a"
	.align 8
	.long	1f - 0f
	.long	4f - 1f
	.long	5
0:
	.string	"GNU"
1:
	.align 8
	.long	0xc0000002
	.long	3f - 2f
2:
	.long	0x3
3:
	.align 8
4:
