	.file	"AedenThomas_DSA_stacksArrayPractice_opaque.c"
	.text
	.globl	stack
	.bss
	.align 32
	.type	stack, @object
	.size	stack, 400
stack:
	.zero	400
	.globl	_TIG_iO_fA1z_1___uint32_identity_1_opaque_list_2
	.align 8
	.type	_TIG_iO_fA1z_1___uint32_identity_1_opaque_list_2, @object
	.size	_TIG_iO_fA1z_1___uint32_identity_1_opaque_list_2, 8
_TIG_iO_fA1z_1___uint32_identity_1_opaque_list_2:
	.zero	8
	.globl	_TIG_iO_fA1z_1_main_1_opaque_ptr_1
	.align 8
	.type	_TIG_iO_fA1z_1_main_1_opaque_ptr_1, @object
	.size	_TIG_iO_fA1z_1_main_1_opaque_ptr_1, 8
_TIG_iO_fA1z_1_main_1_opaque_ptr_1:
	.zero	8
	.globl	_TIG_iO_fA1z_1_pop_1_opaque_ptr_2
	.align 8
	.type	_TIG_iO_fA1z_1_pop_1_opaque_ptr_2, @object
	.size	_TIG_iO_fA1z_1_pop_1_opaque_ptr_2, 8
_TIG_iO_fA1z_1_pop_1_opaque_ptr_2:
	.zero	8
	.globl	i
	.align 4
	.type	i, @object
	.size	i, 4
i:
	.zero	4
	.globl	_TIG_iO_fA1z_1_display_1_opaque_list_2
	.align 8
	.type	_TIG_iO_fA1z_1_display_1_opaque_list_2, @object
	.size	_TIG_iO_fA1z_1_display_1_opaque_list_2, 8
_TIG_iO_fA1z_1_display_1_opaque_list_2:
	.zero	8
	.globl	_TIG_iO_fA1z_1_main_1_opaque_list_2
	.align 8
	.type	_TIG_iO_fA1z_1_main_1_opaque_list_2, @object
	.size	_TIG_iO_fA1z_1_main_1_opaque_list_2, 8
_TIG_iO_fA1z_1_main_1_opaque_list_2:
	.zero	8
	.globl	_TIG_iO_fA1z_1___bswap_32_1_opaque_ptr_2
	.align 8
	.type	_TIG_iO_fA1z_1___bswap_32_1_opaque_ptr_2, @object
	.size	_TIG_iO_fA1z_1___bswap_32_1_opaque_ptr_2, 8
_TIG_iO_fA1z_1___bswap_32_1_opaque_ptr_2:
	.zero	8
	.globl	_TIG_iO_fA1z_1_display_1_opaque_ptr_1
	.align 8
	.type	_TIG_iO_fA1z_1_display_1_opaque_ptr_1, @object
	.size	_TIG_iO_fA1z_1_display_1_opaque_ptr_1, 8
_TIG_iO_fA1z_1_display_1_opaque_ptr_1:
	.zero	8
	.globl	_TIG_iO_fA1z_1_main_1_opaque_ptr_2
	.align 8
	.type	_TIG_iO_fA1z_1_main_1_opaque_ptr_2, @object
	.size	_TIG_iO_fA1z_1_main_1_opaque_ptr_2, 8
_TIG_iO_fA1z_1_main_1_opaque_ptr_2:
	.zero	8
	.globl	_TIG_iO_fA1z_1___uint32_identity_1_opaque_ptr_2
	.align 8
	.type	_TIG_iO_fA1z_1___uint32_identity_1_opaque_ptr_2, @object
	.size	_TIG_iO_fA1z_1___uint32_identity_1_opaque_ptr_2, 8
_TIG_iO_fA1z_1___uint32_identity_1_opaque_ptr_2:
	.zero	8
	.globl	_TIG_iO_fA1z_1___bswap_16_1_opaque_list_2
	.align 8
	.type	_TIG_iO_fA1z_1___bswap_16_1_opaque_list_2, @object
	.size	_TIG_iO_fA1z_1___bswap_16_1_opaque_list_2, 8
_TIG_iO_fA1z_1___bswap_16_1_opaque_list_2:
	.zero	8
	.globl	_TIG_iO_fA1z_1___bswap_64_1_opaque_ptr_1
	.align 8
	.type	_TIG_iO_fA1z_1___bswap_64_1_opaque_ptr_1, @object
	.size	_TIG_iO_fA1z_1___bswap_64_1_opaque_ptr_1, 8
_TIG_iO_fA1z_1___bswap_64_1_opaque_ptr_1:
	.zero	8
	.globl	_TIG_iO_fA1z_1_push_1_opaque_ptr_1
	.align 8
	.type	_TIG_iO_fA1z_1_push_1_opaque_ptr_1, @object
	.size	_TIG_iO_fA1z_1_push_1_opaque_ptr_1, 8
_TIG_iO_fA1z_1_push_1_opaque_ptr_1:
	.zero	8
	.globl	_TIG_iO_fA1z_1_main_1_opaque_list_1
	.align 8
	.type	_TIG_iO_fA1z_1_main_1_opaque_list_1, @object
	.size	_TIG_iO_fA1z_1_main_1_opaque_list_1, 8
_TIG_iO_fA1z_1_main_1_opaque_list_1:
	.zero	8
	.globl	_TIG_iO_fA1z_1_pop_1_opaque_list_2
	.align 8
	.type	_TIG_iO_fA1z_1_pop_1_opaque_list_2, @object
	.size	_TIG_iO_fA1z_1_pop_1_opaque_list_2, 8
_TIG_iO_fA1z_1_pop_1_opaque_list_2:
	.zero	8
	.globl	_TIG_iO_fA1z_1___bswap_16_1_opaque_ptr_1
	.align 8
	.type	_TIG_iO_fA1z_1___bswap_16_1_opaque_ptr_1, @object
	.size	_TIG_iO_fA1z_1___bswap_16_1_opaque_ptr_1, 8
_TIG_iO_fA1z_1___bswap_16_1_opaque_ptr_1:
	.zero	8
	.globl	_TIG_iO_fA1z_1_display_1_opaque_ptr_2
	.align 8
	.type	_TIG_iO_fA1z_1_display_1_opaque_ptr_2, @object
	.size	_TIG_iO_fA1z_1_display_1_opaque_ptr_2, 8
_TIG_iO_fA1z_1_display_1_opaque_ptr_2:
	.zero	8
	.globl	n
	.align 4
	.type	n, @object
	.size	n, 4
n:
	.zero	4
	.globl	_TIG_iO_fA1z_1_pop_1_opaque_ptr_1
	.align 8
	.type	_TIG_iO_fA1z_1_pop_1_opaque_ptr_1, @object
	.size	_TIG_iO_fA1z_1_pop_1_opaque_ptr_1, 8
_TIG_iO_fA1z_1_pop_1_opaque_ptr_1:
	.zero	8
	.globl	_TIG_IZ_fA1z_argv
	.align 8
	.type	_TIG_IZ_fA1z_argv, @object
	.size	_TIG_IZ_fA1z_argv, 8
_TIG_IZ_fA1z_argv:
	.zero	8
	.globl	_TIG_iO_fA1z_1___uint32_identity_1_opaque_list_1
	.align 8
	.type	_TIG_iO_fA1z_1___uint32_identity_1_opaque_list_1, @object
	.size	_TIG_iO_fA1z_1___uint32_identity_1_opaque_list_1, 8
_TIG_iO_fA1z_1___uint32_identity_1_opaque_list_1:
	.zero	8
	.globl	_TIG_iO_fA1z_1_push_1_opaque_list_1
	.align 8
	.type	_TIG_iO_fA1z_1_push_1_opaque_list_1, @object
	.size	_TIG_iO_fA1z_1_push_1_opaque_list_1, 8
_TIG_iO_fA1z_1_push_1_opaque_list_1:
	.zero	8
	.globl	_TIG_iO_fA1z_1___bswap_16_1_opaque_list_1
	.align 8
	.type	_TIG_iO_fA1z_1___bswap_16_1_opaque_list_1, @object
	.size	_TIG_iO_fA1z_1___bswap_16_1_opaque_list_1, 8
_TIG_iO_fA1z_1___bswap_16_1_opaque_list_1:
	.zero	8
	.globl	_TIG_iO_fA1z_1_display_1_opaque_list_1
	.align 8
	.type	_TIG_iO_fA1z_1_display_1_opaque_list_1, @object
	.size	_TIG_iO_fA1z_1_display_1_opaque_list_1, 8
_TIG_iO_fA1z_1_display_1_opaque_list_1:
	.zero	8
	.globl	_TIG_iO_fA1z_1___uint32_identity_1_opaque_ptr_1
	.align 8
	.type	_TIG_iO_fA1z_1___uint32_identity_1_opaque_ptr_1, @object
	.size	_TIG_iO_fA1z_1___uint32_identity_1_opaque_ptr_1, 8
_TIG_iO_fA1z_1___uint32_identity_1_opaque_ptr_1:
	.zero	8
	.globl	x
	.align 4
	.type	x, @object
	.size	x, 4
x:
	.zero	4
	.globl	_TIG_iO_fA1z_1___bswap_32_1_opaque_list_1
	.align 8
	.type	_TIG_iO_fA1z_1___bswap_32_1_opaque_list_1, @object
	.size	_TIG_iO_fA1z_1___bswap_32_1_opaque_list_1, 8
_TIG_iO_fA1z_1___bswap_32_1_opaque_list_1:
	.zero	8
	.globl	_TIG_IZ_fA1z_envp
	.align 8
	.type	_TIG_IZ_fA1z_envp, @object
	.size	_TIG_IZ_fA1z_envp, 8
_TIG_IZ_fA1z_envp:
	.zero	8
	.globl	_TIG_iO_fA1z_1___bswap_32_1_opaque_ptr_1
	.align 8
	.type	_TIG_iO_fA1z_1___bswap_32_1_opaque_ptr_1, @object
	.size	_TIG_iO_fA1z_1___bswap_32_1_opaque_ptr_1, 8
_TIG_iO_fA1z_1___bswap_32_1_opaque_ptr_1:
	.zero	8
	.globl	_TIG_iO_fA1z_1___uint16_identity_1_opaque_list_2
	.align 8
	.type	_TIG_iO_fA1z_1___uint16_identity_1_opaque_list_2, @object
	.size	_TIG_iO_fA1z_1___uint16_identity_1_opaque_list_2, 8
_TIG_iO_fA1z_1___uint16_identity_1_opaque_list_2:
	.zero	8
	.globl	_TIG_iO_fA1z_1___uint16_identity_1_opaque_ptr_2
	.align 8
	.type	_TIG_iO_fA1z_1___uint16_identity_1_opaque_ptr_2, @object
	.size	_TIG_iO_fA1z_1___uint16_identity_1_opaque_ptr_2, 8
_TIG_iO_fA1z_1___uint16_identity_1_opaque_ptr_2:
	.zero	8
	.globl	_TIG_iO_fA1z_1___uint64_identity_1_opaque_list_2
	.align 8
	.type	_TIG_iO_fA1z_1___uint64_identity_1_opaque_list_2, @object
	.size	_TIG_iO_fA1z_1___uint64_identity_1_opaque_list_2, 8
_TIG_iO_fA1z_1___uint64_identity_1_opaque_list_2:
	.zero	8
	.globl	top
	.align 4
	.type	top, @object
	.size	top, 4
top:
	.zero	4
	.globl	_TIG_iO_fA1z_1_push_1_opaque_list_2
	.align 8
	.type	_TIG_iO_fA1z_1_push_1_opaque_list_2, @object
	.size	_TIG_iO_fA1z_1_push_1_opaque_list_2, 8
_TIG_iO_fA1z_1_push_1_opaque_list_2:
	.zero	8
	.globl	_TIG_iO_fA1z_1_push_1_opaque_ptr_2
	.align 8
	.type	_TIG_iO_fA1z_1_push_1_opaque_ptr_2, @object
	.size	_TIG_iO_fA1z_1_push_1_opaque_ptr_2, 8
_TIG_iO_fA1z_1_push_1_opaque_ptr_2:
	.zero	8
	.globl	_TIG_iO_fA1z_1___uint16_identity_1_opaque_ptr_1
	.align 8
	.type	_TIG_iO_fA1z_1___uint16_identity_1_opaque_ptr_1, @object
	.size	_TIG_iO_fA1z_1___uint16_identity_1_opaque_ptr_1, 8
_TIG_iO_fA1z_1___uint16_identity_1_opaque_ptr_1:
	.zero	8
	.globl	_TIG_iO_fA1z_1___bswap_32_1_opaque_list_2
	.align 8
	.type	_TIG_iO_fA1z_1___bswap_32_1_opaque_list_2, @object
	.size	_TIG_iO_fA1z_1___bswap_32_1_opaque_list_2, 8
_TIG_iO_fA1z_1___bswap_32_1_opaque_list_2:
	.zero	8
	.globl	_TIG_IZ_fA1z_argc
	.align 4
	.type	_TIG_IZ_fA1z_argc, @object
	.size	_TIG_IZ_fA1z_argc, 4
_TIG_IZ_fA1z_argc:
	.zero	4
	.globl	_TIG_iO_fA1z_1___uint16_identity_1_opaque_list_1
	.align 8
	.type	_TIG_iO_fA1z_1___uint16_identity_1_opaque_list_1, @object
	.size	_TIG_iO_fA1z_1___uint16_identity_1_opaque_list_1, 8
_TIG_iO_fA1z_1___uint16_identity_1_opaque_list_1:
	.zero	8
	.globl	_TIG_iO_fA1z_1___uint64_identity_1_opaque_ptr_1
	.align 8
	.type	_TIG_iO_fA1z_1___uint64_identity_1_opaque_ptr_1, @object
	.size	_TIG_iO_fA1z_1___uint64_identity_1_opaque_ptr_1, 8
_TIG_iO_fA1z_1___uint64_identity_1_opaque_ptr_1:
	.zero	8
	.globl	_TIG_iO_fA1z_1___bswap_64_1_opaque_list_2
	.align 8
	.type	_TIG_iO_fA1z_1___bswap_64_1_opaque_list_2, @object
	.size	_TIG_iO_fA1z_1___bswap_64_1_opaque_list_2, 8
_TIG_iO_fA1z_1___bswap_64_1_opaque_list_2:
	.zero	8
	.globl	_TIG_iO_fA1z_1___uint64_identity_1_opaque_ptr_2
	.align 8
	.type	_TIG_iO_fA1z_1___uint64_identity_1_opaque_ptr_2, @object
	.size	_TIG_iO_fA1z_1___uint64_identity_1_opaque_ptr_2, 8
_TIG_iO_fA1z_1___uint64_identity_1_opaque_ptr_2:
	.zero	8
	.globl	_TIG_iO_fA1z_1___bswap_64_1_opaque_list_1
	.align 8
	.type	_TIG_iO_fA1z_1___bswap_64_1_opaque_list_1, @object
	.size	_TIG_iO_fA1z_1___bswap_64_1_opaque_list_1, 8
_TIG_iO_fA1z_1___bswap_64_1_opaque_list_1:
	.zero	8
	.globl	_TIG_iO_fA1z_1_pop_1_opaque_list_1
	.align 8
	.type	_TIG_iO_fA1z_1_pop_1_opaque_list_1, @object
	.size	_TIG_iO_fA1z_1_pop_1_opaque_list_1, 8
_TIG_iO_fA1z_1_pop_1_opaque_list_1:
	.zero	8
	.globl	_TIG_iO_fA1z_1___bswap_64_1_opaque_ptr_2
	.align 8
	.type	_TIG_iO_fA1z_1___bswap_64_1_opaque_ptr_2, @object
	.size	_TIG_iO_fA1z_1___bswap_64_1_opaque_ptr_2, 8
_TIG_iO_fA1z_1___bswap_64_1_opaque_ptr_2:
	.zero	8
	.globl	_TIG_iO_fA1z_1___bswap_16_1_opaque_ptr_2
	.align 8
	.type	_TIG_iO_fA1z_1___bswap_16_1_opaque_ptr_2, @object
	.size	_TIG_iO_fA1z_1___bswap_16_1_opaque_ptr_2, 8
_TIG_iO_fA1z_1___bswap_16_1_opaque_ptr_2:
	.zero	8
	.globl	_TIG_iO_fA1z_1___uint64_identity_1_opaque_list_1
	.align 8
	.type	_TIG_iO_fA1z_1___uint64_identity_1_opaque_list_1, @object
	.size	_TIG_iO_fA1z_1___uint64_identity_1_opaque_list_1, 8
_TIG_iO_fA1z_1___uint64_identity_1_opaque_list_1:
	.zero	8
	.section	.rodata
.LC0:
	.string	"Enter size of stack: "
.LC1:
	.string	"%d"
.LC2:
	.string	"\001. Push"
.LC3:
	.string	"\002. Pop"
.LC4:
	.string	"\003. Display"
.LC5:
	.string	"\nInvalid option"
	.text
	.globl	main
	.type	main, @function
main:
.LFB0:
	.cfi_startproc
	endbr64
	pushq	%rbp
	.cfi_def_cfa_offset 16
	.cfi_offset 6, -16
	movq	%rsp, %rbp
	.cfi_def_cfa_register 6
	subq	$96, %rsp
	movl	%edi, -68(%rbp)
	movq	%rsi, -80(%rbp)
	movq	%rdx, -88(%rbp)
	movq	%fs:40, %rax
	movq	%rax, -8(%rbp)
	xorl	%eax, %eax
	movl	$0, i(%rip)
	nop
.L2:
	movl	$0, x(%rip)
	nop
.L3:
	movl	$-1, top(%rip)
	nop
.L4:
	movl	$0, n(%rip)
	nop
.L5:
	movl	$0, -44(%rbp)
	jmp	.L6
.L7:
	movl	-44(%rbp), %eax
	cltq
	leaq	0(,%rax,4), %rdx
	leaq	stack(%rip), %rax
	movl	$0, (%rdx,%rax)
	addl	$1, -44(%rbp)
.L6:
	cmpl	$99, -44(%rbp)
	jle	.L7
	nop
.L8:
	movq	$0, _TIG_IZ_fA1z_envp(%rip)
	nop
.L9:
	movq	$0, _TIG_IZ_fA1z_argv(%rip)
	nop
.L10:
	movl	$0, _TIG_IZ_fA1z_argc(%rip)
	nop
	nop
.L11:
.L12:
#APP
# 145 "/usr/include/stdlib.h" 1
	##_ANNOTATION_INITIALREGION_-TIG-IZ-fA1z--0
# 0 "" 2
#NO_APP
	movl	-68(%rbp), %eax
	movl	%eax, _TIG_IZ_fA1z_argc(%rip)
	movq	-80(%rbp), %rax
	movq	%rax, _TIG_IZ_fA1z_argv(%rip)
	movq	-88(%rbp), %rax
	movq	%rax, _TIG_IZ_fA1z_envp(%rip)
#APP
# 152 "/usr/include/stdlib.h" 1
	##_ANNOTATION_ATOMICREGION_-TIG-iO-fA1z-1-main--15
# 0 "" 2
#NO_APP
	movl	$24, %edi
	call	malloc@PLT
	movq	%rax, -32(%rbp)
	movq	-32(%rbp), %rax
	movq	-32(%rbp), %rdx
	movq	%rdx, 16(%rax)
	movq	-32(%rbp), %rax
	movq	-32(%rbp), %rdx
	movq	%rdx, 8(%rax)
	movq	-32(%rbp), %rax
	movq	%rax, _TIG_iO_fA1z_1_main_1_opaque_list_1(%rip)
	call	rand@PLT
	movl	%eax, -40(%rbp)
	movl	$24, %edi
	call	malloc@PLT
	movq	%rax, -24(%rbp)
	movq	-24(%rbp), %rax
	movl	$0, (%rax)
	movq	_TIG_iO_fA1z_1_main_1_opaque_list_1(%rip), %rax
	movq	16(%rax), %rdx
	movq	-24(%rbp), %rax
	movq	%rdx, 16(%rax)
	movq	_TIG_iO_fA1z_1_main_1_opaque_list_1(%rip), %rdx
	movq	-24(%rbp), %rax
	movq	%rdx, 8(%rax)
	movq	_TIG_iO_fA1z_1_main_1_opaque_list_1(%rip), %rax
	movq	16(%rax), %rax
	movq	-24(%rbp), %rdx
	movq	%rdx, 8(%rax)
	movq	_TIG_iO_fA1z_1_main_1_opaque_list_1(%rip), %rax
	movq	-24(%rbp), %rdx
	movq	%rdx, 16(%rax)
	call	rand@PLT
	movl	%eax, -36(%rbp)
	movl	$24, %edi
	call	malloc@PLT
	movq	%rax, -16(%rbp)
	movq	-16(%rbp), %rax
	movl	-36(%rbp), %edx
	movl	%edx, (%rax)
	movq	_TIG_iO_fA1z_1_main_1_opaque_list_1(%rip), %rax
	movq	16(%rax), %rdx
	movq	-16(%rbp), %rax
	movq	%rdx, 16(%rax)
	movq	_TIG_iO_fA1z_1_main_1_opaque_list_1(%rip), %rdx
	movq	-16(%rbp), %rax
	movq	%rdx, 8(%rax)
	movq	_TIG_iO_fA1z_1_main_1_opaque_list_1(%rip), %rax
	movq	16(%rax), %rax
	movq	-16(%rbp), %rdx
	movq	%rdx, 8(%rax)
	movq	_TIG_iO_fA1z_1_main_1_opaque_list_1(%rip), %rax
	movq	-16(%rbp), %rdx
	movq	%rdx, 16(%rax)
	movq	_TIG_iO_fA1z_1_main_1_opaque_list_1(%rip), %rax
	movq	16(%rax), %rax
	movq	%rax, _TIG_iO_fA1z_1_main_1_opaque_ptr_1(%rip)
	movq	_TIG_iO_fA1z_1_main_1_opaque_ptr_1(%rip), %rax
	movq	%rax, _TIG_iO_fA1z_1_main_1_opaque_ptr_2(%rip)
	nop
	nop
	leaq	.LC0(%rip), %rax
	movq	%rax, %rdi
	movl	$0, %eax
	call	printf@PLT
	leaq	-48(%rbp), %rax
	movq	%rax, %rsi
	leaq	.LC1(%rip), %rax
	movq	%rax, %rdi
	movl	$0, %eax
	call	__isoc99_scanf@PLT
	leaq	.LC2(%rip), %rax
	movq	%rax, %rdi
	call	puts@PLT
	leaq	.LC3(%rip), %rax
	movq	%rax, %rdi
	call	puts@PLT
	leaq	.LC4(%rip), %rax
	movq	%rax, %rdi
	call	puts@PLT
	leaq	-52(%rbp), %rax
	movq	%rax, %rsi
	leaq	.LC1(%rip), %rax
	movq	%rax, %rdi
	movl	$0, %eax
	call	__isoc99_scanf@PLT
	movq	_TIG_iO_fA1z_1_push_1_opaque_ptr_1(%rip), %rdx
	movq	_TIG_iO_fA1z_1_push_1_opaque_ptr_2(%rip), %rax
	cmpq	%rax, %rdx
	jne	.L13
	movl	-52(%rbp), %eax
	cmpl	$3, %eax
	je	.L14
	cmpl	$3, %eax
	jg	.L15
	cmpl	$1, %eax
	je	.L16
	cmpl	$2, %eax
	je	.L17
	jmp	.L15
.L16:
	call	push
	jmp	.L19
.L17:
	call	pop
	jmp	.L19
.L14:
	call	display
	jmp	.L19
.L15:
	leaq	.LC5(%rip), %rax
	movq	%rax, %rdi
	movl	$0, %eax
	call	printf@PLT
	jmp	.L19
.L13:
#APP
# 65 "AedenThomas_DSA_stacksArrayPractice.c" 1
	.byte 0xa0,0xf7,0xb9,0x45
# 0 "" 2
#NO_APP
.L19:
	movl	$0, %eax
	movq	-8(%rbp), %rdx
	subq	%fs:40, %rdx
	je	.L21
	call	__stack_chk_fail@PLT
.L21:
	leave
	.cfi_def_cfa 7, 8
	ret
	.cfi_endproc
.LFE0:
	.size	main, .-main
	.section	.rodata
.LC6:
	.string	"\nStack Underflow"
.LC7:
	.string	"The popped element is %d "
	.text
	.globl	pop
	.type	pop, @function
pop:
.LFB2:
	.cfi_startproc
	endbr64
	pushq	%rbp
	.cfi_def_cfa_offset 16
	.cfi_offset 6, -16
	movq	%rsp, %rbp
	.cfi_def_cfa_register 6
	subq	$32, %rsp
#APP
# 91 "/usr/include/x86_64-linux-gnu/bits/byteswap.h" 1
	##_ANNOTATION_INITIALREGION_-TIG-iO-fA1z-1-pop--18
# 0 "" 2
# 95 "/usr/include/x86_64-linux-gnu/bits/byteswap.h" 1
	##_ANNOTATION_ATOMICREGION_-TIG-iO-fA1z-1-pop--17
# 0 "" 2
#NO_APP
	movl	$24, %edi
	call	malloc@PLT
	movq	%rax, -24(%rbp)
	movq	-24(%rbp), %rax
	movq	-24(%rbp), %rdx
	movq	%rdx, 8(%rax)
	movq	-24(%rbp), %rax
	movq	-24(%rbp), %rdx
	movq	%rdx, (%rax)
	movq	-24(%rbp), %rax
	movq	%rax, _TIG_iO_fA1z_1_pop_1_opaque_list_1(%rip)
	call	rand@PLT
	movl	%eax, -32(%rbp)
	movl	$24, %edi
	call	malloc@PLT
	movq	%rax, -16(%rbp)
	movq	-16(%rbp), %rax
	movl	$0, 16(%rax)
	movq	_TIG_iO_fA1z_1_pop_1_opaque_list_1(%rip), %rax
	movq	8(%rax), %rdx
	movq	-16(%rbp), %rax
	movq	%rdx, 8(%rax)
	movq	_TIG_iO_fA1z_1_pop_1_opaque_list_1(%rip), %rdx
	movq	-16(%rbp), %rax
	movq	%rdx, (%rax)
	movq	_TIG_iO_fA1z_1_pop_1_opaque_list_1(%rip), %rax
	movq	8(%rax), %rax
	movq	-16(%rbp), %rdx
	movq	%rdx, (%rax)
	movq	_TIG_iO_fA1z_1_pop_1_opaque_list_1(%rip), %rax
	movq	-16(%rbp), %rdx
	movq	%rdx, 8(%rax)
	call	rand@PLT
	movl	%eax, -28(%rbp)
	movl	$24, %edi
	call	malloc@PLT
	movq	%rax, -8(%rbp)
	movq	-8(%rbp), %rax
	movl	-28(%rbp), %edx
	movl	%edx, 16(%rax)
	movq	_TIG_iO_fA1z_1_pop_1_opaque_list_1(%rip), %rax
	movq	8(%rax), %rdx
	movq	-8(%rbp), %rax
	movq	%rdx, 8(%rax)
	movq	_TIG_iO_fA1z_1_pop_1_opaque_list_1(%rip), %rdx
	movq	-8(%rbp), %rax
	movq	%rdx, (%rax)
	movq	_TIG_iO_fA1z_1_pop_1_opaque_list_1(%rip), %rax
	movq	8(%rax), %rax
	movq	-8(%rbp), %rdx
	movq	%rdx, (%rax)
	movq	_TIG_iO_fA1z_1_pop_1_opaque_list_1(%rip), %rax
	movq	-8(%rbp), %rdx
	movq	%rdx, 8(%rax)
	movq	_TIG_iO_fA1z_1_pop_1_opaque_list_1(%rip), %rax
	movq	8(%rax), %rax
	movq	%rax, _TIG_iO_fA1z_1_pop_1_opaque_ptr_1(%rip)
	movq	_TIG_iO_fA1z_1_pop_1_opaque_ptr_1(%rip), %rax
	movq	%rax, _TIG_iO_fA1z_1_pop_1_opaque_ptr_2(%rip)
	movq	_TIG_iO_fA1z_1_pop_1_opaque_ptr_2(%rip), %rax
	movq	8(%rax), %rax
	movq	%rax, _TIG_iO_fA1z_1_pop_1_opaque_ptr_2(%rip)
	nop
	nop
	movl	top(%rip), %eax
	testl	%eax, %eax
	jns	.L23
	leaq	.LC6(%rip), %rax
	movq	%rax, %rdi
	movl	$0, %eax
	call	printf@PLT
	jmp	.L22
.L23:
	movq	_TIG_iO_fA1z_1_push_1_opaque_ptr_1(%rip), %rdx
	movq	_TIG_iO_fA1z_1_push_1_opaque_ptr_2(%rip), %rax
	cmpq	%rax, %rdx
	jne	.L25
	movl	top(%rip), %eax
	cltq
	leaq	0(,%rax,4), %rdx
	leaq	stack(%rip), %rax
	movl	(%rdx,%rax), %eax
	movl	%eax, %esi
	leaq	.LC7(%rip), %rax
	movq	%rax, %rdi
	movl	$0, %eax
	call	printf@PLT
	movl	top(%rip), %eax
	subl	$1, %eax
	movl	%eax, top(%rip)
	jmp	.L22
.L25:
#APP
# 32 "AedenThomas_DSA_stacksArrayPractice.c" 1
	.byte 0xc0,0xf,0x84,0x21,0x3,0x0,0x0
# 0 "" 2
#NO_APP
	nop
.L22:
	leave
	.cfi_def_cfa 7, 8
	ret
	.cfi_endproc
.LFE2:
	.size	pop, .-pop
	.section	.rodata
.LC8:
	.string	"Stack overflow!"
	.align 8
.LC9:
	.string	"Enter the value to be pushed: "
	.text
	.globl	push
	.type	push, @function
push:
.LFB4:
	.cfi_startproc
	endbr64
	pushq	%rbp
	.cfi_def_cfa_offset 16
	.cfi_offset 6, -16
	movq	%rsp, %rbp
	.cfi_def_cfa_register 6
	subq	$48, %rsp
	movq	%fs:40, %rax
	movq	%rax, -8(%rbp)
	xorl	%eax, %eax
#APP
# 54 "/usr/include/x86_64-linux-gnu/bits/byteswap.h" 1
	##_ANNOTATION_INITIALREGION_-TIG-iO-fA1z-1-push--20
# 0 "" 2
# 58 "/usr/include/x86_64-linux-gnu/bits/byteswap.h" 1
	##_ANNOTATION_ATOMICREGION_-TIG-iO-fA1z-1-push--19
# 0 "" 2
#NO_APP
	movl	$24, %edi
	call	malloc@PLT
	movq	%rax, -32(%rbp)
	movq	-32(%rbp), %rax
	movq	-32(%rbp), %rdx
	movq	%rdx, 8(%rax)
	movq	-32(%rbp), %rax
	movq	-32(%rbp), %rdx
	movq	%rdx, 16(%rax)
	movq	-32(%rbp), %rax
	movq	%rax, _TIG_iO_fA1z_1_push_1_opaque_list_1(%rip)
	call	rand@PLT
	movl	%eax, -40(%rbp)
	movl	$24, %edi
	call	malloc@PLT
	movq	%rax, -24(%rbp)
	movq	-24(%rbp), %rax
	movl	$0, (%rax)
	movq	_TIG_iO_fA1z_1_push_1_opaque_list_1(%rip), %rax
	movq	8(%rax), %rdx
	movq	-24(%rbp), %rax
	movq	%rdx, 8(%rax)
	movq	_TIG_iO_fA1z_1_push_1_opaque_list_1(%rip), %rdx
	movq	-24(%rbp), %rax
	movq	%rdx, 16(%rax)
	movq	_TIG_iO_fA1z_1_push_1_opaque_list_1(%rip), %rax
	movq	8(%rax), %rax
	movq	-24(%rbp), %rdx
	movq	%rdx, 16(%rax)
	movq	_TIG_iO_fA1z_1_push_1_opaque_list_1(%rip), %rax
	movq	-24(%rbp), %rdx
	movq	%rdx, 8(%rax)
	call	rand@PLT
	movl	%eax, -36(%rbp)
	movl	$24, %edi
	call	malloc@PLT
	movq	%rax, -16(%rbp)
	movq	-16(%rbp), %rax
	movl	-36(%rbp), %edx
	movl	%edx, (%rax)
	movq	_TIG_iO_fA1z_1_push_1_opaque_list_1(%rip), %rax
	movq	8(%rax), %rdx
	movq	-16(%rbp), %rax
	movq	%rdx, 8(%rax)
	movq	_TIG_iO_fA1z_1_push_1_opaque_list_1(%rip), %rdx
	movq	-16(%rbp), %rax
	movq	%rdx, 16(%rax)
	movq	_TIG_iO_fA1z_1_push_1_opaque_list_1(%rip), %rax
	movq	8(%rax), %rax
	movq	-16(%rbp), %rdx
	movq	%rdx, 16(%rax)
	movq	_TIG_iO_fA1z_1_push_1_opaque_list_1(%rip), %rax
	movq	-16(%rbp), %rdx
	movq	%rdx, 8(%rax)
	movq	_TIG_iO_fA1z_1_push_1_opaque_list_1(%rip), %rax
	movq	8(%rax), %rax
	movq	%rax, _TIG_iO_fA1z_1_push_1_opaque_ptr_1(%rip)
	movq	_TIG_iO_fA1z_1_push_1_opaque_ptr_1(%rip), %rax
	movq	%rax, _TIG_iO_fA1z_1_push_1_opaque_ptr_2(%rip)
	nop
	nop
	movl	n(%rip), %eax
	leal	-1(%rax), %edx
	movl	top(%rip), %eax
	cmpl	%eax, %edx
	jg	.L28
	leaq	.LC8(%rip), %rax
	movq	%rax, %rdi
	movl	$0, %eax
	call	printf@PLT
	jmp	.L29
.L28:
	leaq	.LC9(%rip), %rax
	movq	%rax, %rdi
	movl	$0, %eax
	call	printf@PLT
	leaq	-44(%rbp), %rax
	movq	%rax, %rsi
	leaq	.LC1(%rip), %rax
	movq	%rax, %rdi
	movl	$0, %eax
	call	__isoc99_scanf@PLT
	movl	top(%rip), %eax
	addl	$1, %eax
	movl	%eax, top(%rip)
	movl	top(%rip), %edx
	movl	-44(%rbp), %eax
	movslq	%edx, %rdx
	leaq	0(,%rdx,4), %rcx
	leaq	stack(%rip), %rdx
	movl	%eax, (%rcx,%rdx)
.L29:
	movq	_TIG_iO_fA1z_1_push_1_opaque_ptr_1(%rip), %rdx
	movq	_TIG_iO_fA1z_1_push_1_opaque_ptr_2(%rip), %rax
	cmpq	%rax, %rdx
	movq	-8(%rbp), %rax
	subq	%fs:40, %rax
	je	.L32
	call	__stack_chk_fail@PLT
.L32:
	leave
	.cfi_def_cfa 7, 8
	ret
	.cfi_endproc
.LFE4:
	.size	push, .-push
	.globl	display
	.type	display, @function
display:
.LFB5:
	.cfi_startproc
	endbr64
	pushq	%rbp
	.cfi_def_cfa_offset 16
	.cfi_offset 6, -16
	movq	%rsp, %rbp
	.cfi_def_cfa_register 6
	subq	$64, %rsp
#APP
# 41 "AedenThomas_DSA_stacksArrayPractice.c" 1
	##_ANNOTATION_INITIALREGION_-TIG-iO-fA1z-1-display--14
# 0 "" 2
# 45 "AedenThomas_DSA_stacksArrayPractice.c" 1
	##_ANNOTATION_ATOMICREGION_-TIG-iO-fA1z-1-display--13
# 0 "" 2
#NO_APP
	movl	$24, %edi
	call	malloc@PLT
	movq	%rax, -40(%rbp)
	movq	-40(%rbp), %rax
	movq	-40(%rbp), %rdx
	movq	%rdx, (%rax)
	movq	-40(%rbp), %rax
	movq	-40(%rbp), %rdx
	movq	%rdx, 8(%rax)
	movq	-40(%rbp), %rax
	movq	%rax, _TIG_iO_fA1z_1_display_1_opaque_list_1(%rip)
	call	rand@PLT
	movl	%eax, -56(%rbp)
	movl	$24, %edi
	call	malloc@PLT
	movq	%rax, -32(%rbp)
	movq	-32(%rbp), %rax
	movl	$0, 16(%rax)
	movq	_TIG_iO_fA1z_1_display_1_opaque_list_1(%rip), %rax
	movq	(%rax), %rdx
	movq	-32(%rbp), %rax
	movq	%rdx, (%rax)
	movq	_TIG_iO_fA1z_1_display_1_opaque_list_1(%rip), %rdx
	movq	-32(%rbp), %rax
	movq	%rdx, 8(%rax)
	movq	_TIG_iO_fA1z_1_display_1_opaque_list_1(%rip), %rax
	movq	(%rax), %rax
	movq	-32(%rbp), %rdx
	movq	%rdx, 8(%rax)
	movq	_TIG_iO_fA1z_1_display_1_opaque_list_1(%rip), %rax
	movq	-32(%rbp), %rdx
	movq	%rdx, (%rax)
	call	rand@PLT
	movl	%eax, -52(%rbp)
	movl	$24, %edi
	call	malloc@PLT
	movq	%rax, -24(%rbp)
	movq	-24(%rbp), %rax
	movl	-52(%rbp), %edx
	movl	%edx, 16(%rax)
	movq	_TIG_iO_fA1z_1_display_1_opaque_list_1(%rip), %rax
	movq	(%rax), %rdx
	movq	-24(%rbp), %rax
	movq	%rdx, (%rax)
	movq	_TIG_iO_fA1z_1_display_1_opaque_list_1(%rip), %rdx
	movq	-24(%rbp), %rax
	movq	%rdx, 8(%rax)
	movq	_TIG_iO_fA1z_1_display_1_opaque_list_1(%rip), %rax
	movq	(%rax), %rax
	movq	-24(%rbp), %rdx
	movq	%rdx, 8(%rax)
	movq	_TIG_iO_fA1z_1_display_1_opaque_list_1(%rip), %rax
	movq	-24(%rbp), %rdx
	movq	%rdx, (%rax)
	call	rand@PLT
	movl	%eax, -48(%rbp)
	movl	$24, %edi
	call	malloc@PLT
	movq	%rax, -16(%rbp)
	movl	-48(%rbp), %eax
	leal	(%rax,%rax), %edx
	movq	-16(%rbp), %rax
	movl	%edx, 16(%rax)
	movq	_TIG_iO_fA1z_1_display_1_opaque_list_1(%rip), %rax
	movq	(%rax), %rdx
	movq	-16(%rbp), %rax
	movq	%rdx, (%rax)
	movq	_TIG_iO_fA1z_1_display_1_opaque_list_1(%rip), %rdx
	movq	-16(%rbp), %rax
	movq	%rdx, 8(%rax)
	movq	_TIG_iO_fA1z_1_display_1_opaque_list_1(%rip), %rax
	movq	(%rax), %rax
	movq	-16(%rbp), %rdx
	movq	%rdx, 8(%rax)
	movq	_TIG_iO_fA1z_1_display_1_opaque_list_1(%rip), %rax
	movq	-16(%rbp), %rdx
	movq	%rdx, (%rax)
	call	rand@PLT
	movl	%eax, -44(%rbp)
	movl	$24, %edi
	call	malloc@PLT
	movq	%rax, -8(%rbp)
	movl	-44(%rbp), %edx
	movl	%edx, %eax
	addl	%eax, %eax
	addl	%eax, %edx
	movq	-8(%rbp), %rax
	movl	%edx, 16(%rax)
	movq	_TIG_iO_fA1z_1_display_1_opaque_list_1(%rip), %rax
	movq	(%rax), %rdx
	movq	-8(%rbp), %rax
	movq	%rdx, (%rax)
	movq	_TIG_iO_fA1z_1_display_1_opaque_list_1(%rip), %rdx
	movq	-8(%rbp), %rax
	movq	%rdx, 8(%rax)
	movq	_TIG_iO_fA1z_1_display_1_opaque_list_1(%rip), %rax
	movq	(%rax), %rax
	movq	-8(%rbp), %rdx
	movq	%rdx, 8(%rax)
	movq	_TIG_iO_fA1z_1_display_1_opaque_list_1(%rip), %rax
	movq	-8(%rbp), %rdx
	movq	%rdx, (%rax)
	movq	_TIG_iO_fA1z_1_display_1_opaque_list_1(%rip), %rax
	movq	(%rax), %rax
	movq	%rax, _TIG_iO_fA1z_1_display_1_opaque_ptr_1(%rip)
	movq	_TIG_iO_fA1z_1_display_1_opaque_ptr_1(%rip), %rax
	movq	%rax, _TIG_iO_fA1z_1_display_1_opaque_ptr_2(%rip)
	movq	_TIG_iO_fA1z_1_display_1_opaque_ptr_2(%rip), %rax
	movq	(%rax), %rax
	movq	%rax, _TIG_iO_fA1z_1_display_1_opaque_ptr_2(%rip)
	nop
	nop
	movq	_TIG_iO_fA1z_1_push_1_opaque_ptr_1(%rip), %rdx
	movq	_TIG_iO_fA1z_1_push_1_opaque_ptr_2(%rip), %rax
	cmpq	%rax, %rdx
	leave
	.cfi_def_cfa 7, 8
	ret
	.cfi_endproc
.LFE5:
	.size	display, .-display
	.ident	"GCC: (Ubuntu 11.4.0-1ubuntu1~22.04) 11.4.0"
	.section	.note.GNU-stack,"",@progbits
	.section	.note.gnu.property,"a"
	.align 8
	.long	1f - 0f
	.long	4f - 1f
	.long	5
0:
	.string	"GNU"
1:
	.align 8
	.long	0xc0000002
	.long	3f - 2f
2:
	.long	0x3
3:
	.align 8
4:
