	.file	"ahmetfurkaneq_DataStructure_1_opaque.c"
	.text
	.globl	_TIG_iO_3GKX_1___bswap_16_1_opaque_list_2
	.bss
	.align 8
	.type	_TIG_iO_3GKX_1___bswap_16_1_opaque_list_2, @object
	.size	_TIG_iO_3GKX_1___bswap_16_1_opaque_list_2, 8
_TIG_iO_3GKX_1___bswap_16_1_opaque_list_2:
	.zero	8
	.globl	_TIG_iO_3GKX_1_dequeue_1_opaque_list_1
	.align 8
	.type	_TIG_iO_3GKX_1_dequeue_1_opaque_list_1, @object
	.size	_TIG_iO_3GKX_1_dequeue_1_opaque_list_1, 8
_TIG_iO_3GKX_1_dequeue_1_opaque_list_1:
	.zero	8
	.globl	_TIG_iO_3GKX_1_main_1_opaque_ptr_2
	.align 8
	.type	_TIG_iO_3GKX_1_main_1_opaque_ptr_2, @object
	.size	_TIG_iO_3GKX_1_main_1_opaque_ptr_2, 8
_TIG_iO_3GKX_1_main_1_opaque_ptr_2:
	.zero	8
	.globl	_TIG_iO_3GKX_1_enqueue_1_opaque_list_2
	.align 8
	.type	_TIG_iO_3GKX_1_enqueue_1_opaque_list_2, @object
	.size	_TIG_iO_3GKX_1_enqueue_1_opaque_list_2, 8
_TIG_iO_3GKX_1_enqueue_1_opaque_list_2:
	.zero	8
	.globl	rear
	.align 8
	.type	rear, @object
	.size	rear, 8
rear:
	.zero	8
	.globl	_TIG_iO_3GKX_1___bswap_64_1_opaque_list_2
	.align 8
	.type	_TIG_iO_3GKX_1___bswap_64_1_opaque_list_2, @object
	.size	_TIG_iO_3GKX_1___bswap_64_1_opaque_list_2, 8
_TIG_iO_3GKX_1___bswap_64_1_opaque_list_2:
	.zero	8
	.globl	_TIG_IZ_3GKX_envp
	.align 8
	.type	_TIG_IZ_3GKX_envp, @object
	.size	_TIG_IZ_3GKX_envp, 8
_TIG_IZ_3GKX_envp:
	.zero	8
	.globl	_TIG_iO_3GKX_1_tekyazdir_1_opaque_list_1
	.align 8
	.type	_TIG_iO_3GKX_1_tekyazdir_1_opaque_list_1, @object
	.size	_TIG_iO_3GKX_1_tekyazdir_1_opaque_list_1, 8
_TIG_iO_3GKX_1_tekyazdir_1_opaque_list_1:
	.zero	8
	.globl	_TIG_iO_3GKX_1___uint64_identity_1_opaque_ptr_2
	.align 8
	.type	_TIG_iO_3GKX_1___uint64_identity_1_opaque_ptr_2, @object
	.size	_TIG_iO_3GKX_1___uint64_identity_1_opaque_ptr_2, 8
_TIG_iO_3GKX_1___uint64_identity_1_opaque_ptr_2:
	.zero	8
	.globl	_TIG_iO_3GKX_1_printqueue_1_opaque_ptr_1
	.align 8
	.type	_TIG_iO_3GKX_1_printqueue_1_opaque_ptr_1, @object
	.size	_TIG_iO_3GKX_1_printqueue_1_opaque_ptr_1, 8
_TIG_iO_3GKX_1_printqueue_1_opaque_ptr_1:
	.zero	8
	.globl	_TIG_iO_3GKX_1___uint32_identity_1_opaque_list_1
	.align 8
	.type	_TIG_iO_3GKX_1___uint32_identity_1_opaque_list_1, @object
	.size	_TIG_iO_3GKX_1___uint32_identity_1_opaque_list_1, 8
_TIG_iO_3GKX_1___uint32_identity_1_opaque_list_1:
	.zero	8
	.globl	_TIG_iO_3GKX_1_tekyazdir_1_opaque_ptr_1
	.align 8
	.type	_TIG_iO_3GKX_1_tekyazdir_1_opaque_ptr_1, @object
	.size	_TIG_iO_3GKX_1_tekyazdir_1_opaque_ptr_1, 8
_TIG_iO_3GKX_1_tekyazdir_1_opaque_ptr_1:
	.zero	8
	.globl	_TIG_IZ_3GKX_argv
	.align 8
	.type	_TIG_IZ_3GKX_argv, @object
	.size	_TIG_IZ_3GKX_argv, 8
_TIG_IZ_3GKX_argv:
	.zero	8
	.globl	_TIG_iO_3GKX_1___bswap_32_1_opaque_list_1
	.align 8
	.type	_TIG_iO_3GKX_1___bswap_32_1_opaque_list_1, @object
	.size	_TIG_iO_3GKX_1___bswap_32_1_opaque_list_1, 8
_TIG_iO_3GKX_1___bswap_32_1_opaque_list_1:
	.zero	8
	.globl	_TIG_iO_3GKX_1___bswap_32_1_opaque_ptr_1
	.align 8
	.type	_TIG_iO_3GKX_1___bswap_32_1_opaque_ptr_1, @object
	.size	_TIG_iO_3GKX_1___bswap_32_1_opaque_ptr_1, 8
_TIG_iO_3GKX_1___bswap_32_1_opaque_ptr_1:
	.zero	8
	.globl	_TIG_iO_3GKX_1_enqueue_1_opaque_ptr_2
	.align 8
	.type	_TIG_iO_3GKX_1_enqueue_1_opaque_ptr_2, @object
	.size	_TIG_iO_3GKX_1_enqueue_1_opaque_ptr_2, 8
_TIG_iO_3GKX_1_enqueue_1_opaque_ptr_2:
	.zero	8
	.globl	_TIG_iO_3GKX_1_main_1_opaque_ptr_1
	.align 8
	.type	_TIG_iO_3GKX_1_main_1_opaque_ptr_1, @object
	.size	_TIG_iO_3GKX_1_main_1_opaque_ptr_1, 8
_TIG_iO_3GKX_1_main_1_opaque_ptr_1:
	.zero	8
	.globl	_TIG_iO_3GKX_1_printqueue_1_opaque_list_2
	.align 8
	.type	_TIG_iO_3GKX_1_printqueue_1_opaque_list_2, @object
	.size	_TIG_iO_3GKX_1_printqueue_1_opaque_list_2, 8
_TIG_iO_3GKX_1_printqueue_1_opaque_list_2:
	.zero	8
	.globl	_TIG_iO_3GKX_1___bswap_64_1_opaque_ptr_2
	.align 8
	.type	_TIG_iO_3GKX_1___bswap_64_1_opaque_ptr_2, @object
	.size	_TIG_iO_3GKX_1___bswap_64_1_opaque_ptr_2, 8
_TIG_iO_3GKX_1___bswap_64_1_opaque_ptr_2:
	.zero	8
	.globl	_TIG_iO_3GKX_1___bswap_16_1_opaque_ptr_1
	.align 8
	.type	_TIG_iO_3GKX_1___bswap_16_1_opaque_ptr_1, @object
	.size	_TIG_iO_3GKX_1___bswap_16_1_opaque_ptr_1, 8
_TIG_iO_3GKX_1___bswap_16_1_opaque_ptr_1:
	.zero	8
	.globl	_TIG_iO_3GKX_1_dequeue_1_opaque_ptr_2
	.align 8
	.type	_TIG_iO_3GKX_1_dequeue_1_opaque_ptr_2, @object
	.size	_TIG_iO_3GKX_1_dequeue_1_opaque_ptr_2, 8
_TIG_iO_3GKX_1_dequeue_1_opaque_ptr_2:
	.zero	8
	.globl	_TIG_iO_3GKX_1___uint32_identity_1_opaque_list_2
	.align 8
	.type	_TIG_iO_3GKX_1___uint32_identity_1_opaque_list_2, @object
	.size	_TIG_iO_3GKX_1___uint32_identity_1_opaque_list_2, 8
_TIG_iO_3GKX_1___uint32_identity_1_opaque_list_2:
	.zero	8
	.globl	_TIG_iO_3GKX_1___uint32_identity_1_opaque_ptr_2
	.align 8
	.type	_TIG_iO_3GKX_1___uint32_identity_1_opaque_ptr_2, @object
	.size	_TIG_iO_3GKX_1___uint32_identity_1_opaque_ptr_2, 8
_TIG_iO_3GKX_1___uint32_identity_1_opaque_ptr_2:
	.zero	8
	.globl	_TIG_iO_3GKX_1_enqueue_1_opaque_list_1
	.align 8
	.type	_TIG_iO_3GKX_1_enqueue_1_opaque_list_1, @object
	.size	_TIG_iO_3GKX_1_enqueue_1_opaque_list_1, 8
_TIG_iO_3GKX_1_enqueue_1_opaque_list_1:
	.zero	8
	.globl	_TIG_iO_3GKX_1_printqueue_1_opaque_list_1
	.align 8
	.type	_TIG_iO_3GKX_1_printqueue_1_opaque_list_1, @object
	.size	_TIG_iO_3GKX_1_printqueue_1_opaque_list_1, 8
_TIG_iO_3GKX_1_printqueue_1_opaque_list_1:
	.zero	8
	.globl	_TIG_iO_3GKX_1_tekyazdir_1_opaque_list_2
	.align 8
	.type	_TIG_iO_3GKX_1_tekyazdir_1_opaque_list_2, @object
	.size	_TIG_iO_3GKX_1_tekyazdir_1_opaque_list_2, 8
_TIG_iO_3GKX_1_tekyazdir_1_opaque_list_2:
	.zero	8
	.globl	_TIG_iO_3GKX_1___uint16_identity_1_opaque_ptr_1
	.align 8
	.type	_TIG_iO_3GKX_1___uint16_identity_1_opaque_ptr_1, @object
	.size	_TIG_iO_3GKX_1___uint16_identity_1_opaque_ptr_1, 8
_TIG_iO_3GKX_1___uint16_identity_1_opaque_ptr_1:
	.zero	8
	.globl	_TIG_IZ_3GKX_argc
	.align 4
	.type	_TIG_IZ_3GKX_argc, @object
	.size	_TIG_IZ_3GKX_argc, 4
_TIG_IZ_3GKX_argc:
	.zero	4
	.globl	_TIG_iO_3GKX_1___uint16_identity_1_opaque_list_2
	.align 8
	.type	_TIG_iO_3GKX_1___uint16_identity_1_opaque_list_2, @object
	.size	_TIG_iO_3GKX_1___uint16_identity_1_opaque_list_2, 8
_TIG_iO_3GKX_1___uint16_identity_1_opaque_list_2:
	.zero	8
	.globl	_TIG_iO_3GKX_1___uint32_identity_1_opaque_ptr_1
	.align 8
	.type	_TIG_iO_3GKX_1___uint32_identity_1_opaque_ptr_1, @object
	.size	_TIG_iO_3GKX_1___uint32_identity_1_opaque_ptr_1, 8
_TIG_iO_3GKX_1___uint32_identity_1_opaque_ptr_1:
	.zero	8
	.globl	_TIG_iO_3GKX_1___uint16_identity_1_opaque_list_1
	.align 8
	.type	_TIG_iO_3GKX_1___uint16_identity_1_opaque_list_1, @object
	.size	_TIG_iO_3GKX_1___uint16_identity_1_opaque_list_1, 8
_TIG_iO_3GKX_1___uint16_identity_1_opaque_list_1:
	.zero	8
	.globl	_TIG_iO_3GKX_1___bswap_64_1_opaque_ptr_1
	.align 8
	.type	_TIG_iO_3GKX_1___bswap_64_1_opaque_ptr_1, @object
	.size	_TIG_iO_3GKX_1___bswap_64_1_opaque_ptr_1, 8
_TIG_iO_3GKX_1___bswap_64_1_opaque_ptr_1:
	.zero	8
	.globl	_TIG_iO_3GKX_1_enqueue_1_opaque_ptr_1
	.align 8
	.type	_TIG_iO_3GKX_1_enqueue_1_opaque_ptr_1, @object
	.size	_TIG_iO_3GKX_1_enqueue_1_opaque_ptr_1, 8
_TIG_iO_3GKX_1_enqueue_1_opaque_ptr_1:
	.zero	8
	.globl	temp
	.align 8
	.type	temp, @object
	.size	temp, 8
temp:
	.zero	8
	.globl	_TIG_iO_3GKX_1_dequeue_1_opaque_ptr_1
	.align 8
	.type	_TIG_iO_3GKX_1_dequeue_1_opaque_ptr_1, @object
	.size	_TIG_iO_3GKX_1_dequeue_1_opaque_ptr_1, 8
_TIG_iO_3GKX_1_dequeue_1_opaque_ptr_1:
	.zero	8
	.globl	_TIG_iO_3GKX_1_main_1_opaque_list_2
	.align 8
	.type	_TIG_iO_3GKX_1_main_1_opaque_list_2, @object
	.size	_TIG_iO_3GKX_1_main_1_opaque_list_2, 8
_TIG_iO_3GKX_1_main_1_opaque_list_2:
	.zero	8
	.globl	_TIG_iO_3GKX_1___uint64_identity_1_opaque_list_2
	.align 8
	.type	_TIG_iO_3GKX_1___uint64_identity_1_opaque_list_2, @object
	.size	_TIG_iO_3GKX_1___uint64_identity_1_opaque_list_2, 8
_TIG_iO_3GKX_1___uint64_identity_1_opaque_list_2:
	.zero	8
	.globl	front
	.align 8
	.type	front, @object
	.size	front, 8
front:
	.zero	8
	.globl	_TIG_iO_3GKX_1___bswap_64_1_opaque_list_1
	.align 8
	.type	_TIG_iO_3GKX_1___bswap_64_1_opaque_list_1, @object
	.size	_TIG_iO_3GKX_1___bswap_64_1_opaque_list_1, 8
_TIG_iO_3GKX_1___bswap_64_1_opaque_list_1:
	.zero	8
	.globl	_TIG_iO_3GKX_1___uint64_identity_1_opaque_list_1
	.align 8
	.type	_TIG_iO_3GKX_1___uint64_identity_1_opaque_list_1, @object
	.size	_TIG_iO_3GKX_1___uint64_identity_1_opaque_list_1, 8
_TIG_iO_3GKX_1___uint64_identity_1_opaque_list_1:
	.zero	8
	.globl	_TIG_iO_3GKX_1___uint64_identity_1_opaque_ptr_1
	.align 8
	.type	_TIG_iO_3GKX_1___uint64_identity_1_opaque_ptr_1, @object
	.size	_TIG_iO_3GKX_1___uint64_identity_1_opaque_ptr_1, 8
_TIG_iO_3GKX_1___uint64_identity_1_opaque_ptr_1:
	.zero	8
	.globl	_TIG_iO_3GKX_1_tekyazdir_1_opaque_ptr_2
	.align 8
	.type	_TIG_iO_3GKX_1_tekyazdir_1_opaque_ptr_2, @object
	.size	_TIG_iO_3GKX_1_tekyazdir_1_opaque_ptr_2, 8
_TIG_iO_3GKX_1_tekyazdir_1_opaque_ptr_2:
	.zero	8
	.globl	_TIG_iO_3GKX_1___bswap_32_1_opaque_list_2
	.align 8
	.type	_TIG_iO_3GKX_1___bswap_32_1_opaque_list_2, @object
	.size	_TIG_iO_3GKX_1___bswap_32_1_opaque_list_2, 8
_TIG_iO_3GKX_1___bswap_32_1_opaque_list_2:
	.zero	8
	.globl	_TIG_iO_3GKX_1___bswap_16_1_opaque_ptr_2
	.align 8
	.type	_TIG_iO_3GKX_1___bswap_16_1_opaque_ptr_2, @object
	.size	_TIG_iO_3GKX_1___bswap_16_1_opaque_ptr_2, 8
_TIG_iO_3GKX_1___bswap_16_1_opaque_ptr_2:
	.zero	8
	.globl	_TIG_iO_3GKX_1___uint16_identity_1_opaque_ptr_2
	.align 8
	.type	_TIG_iO_3GKX_1___uint16_identity_1_opaque_ptr_2, @object
	.size	_TIG_iO_3GKX_1___uint16_identity_1_opaque_ptr_2, 8
_TIG_iO_3GKX_1___uint16_identity_1_opaque_ptr_2:
	.zero	8
	.globl	_TIG_iO_3GKX_1_main_1_opaque_list_1
	.align 8
	.type	_TIG_iO_3GKX_1_main_1_opaque_list_1, @object
	.size	_TIG_iO_3GKX_1_main_1_opaque_list_1, 8
_TIG_iO_3GKX_1_main_1_opaque_list_1:
	.zero	8
	.globl	_TIG_iO_3GKX_1___bswap_32_1_opaque_ptr_2
	.align 8
	.type	_TIG_iO_3GKX_1___bswap_32_1_opaque_ptr_2, @object
	.size	_TIG_iO_3GKX_1___bswap_32_1_opaque_ptr_2, 8
_TIG_iO_3GKX_1___bswap_32_1_opaque_ptr_2:
	.zero	8
	.globl	_TIG_iO_3GKX_1_dequeue_1_opaque_list_2
	.align 8
	.type	_TIG_iO_3GKX_1_dequeue_1_opaque_list_2, @object
	.size	_TIG_iO_3GKX_1_dequeue_1_opaque_list_2, 8
_TIG_iO_3GKX_1_dequeue_1_opaque_list_2:
	.zero	8
	.globl	_TIG_iO_3GKX_1___bswap_16_1_opaque_list_1
	.align 8
	.type	_TIG_iO_3GKX_1___bswap_16_1_opaque_list_1, @object
	.size	_TIG_iO_3GKX_1___bswap_16_1_opaque_list_1, 8
_TIG_iO_3GKX_1___bswap_16_1_opaque_list_1:
	.zero	8
	.globl	_TIG_iO_3GKX_1_printqueue_1_opaque_ptr_2
	.align 8
	.type	_TIG_iO_3GKX_1_printqueue_1_opaque_ptr_2, @object
	.size	_TIG_iO_3GKX_1_printqueue_1_opaque_ptr_2, 8
_TIG_iO_3GKX_1_printqueue_1_opaque_ptr_2:
	.zero	8
	.section	.rodata
.LC0:
	.string	"cls"
	.align 8
.LC1:
	.string	"Kuyrukta yazd\304\261r\304\261lacak eleman yok..."
.LC2:
	.string	"%d \n"
	.text
	.globl	printqueue
	.type	printqueue, @function
printqueue:
.LFB0:
	.cfi_startproc
	endbr64
	pushq	%rbp
	.cfi_def_cfa_offset 16
	.cfi_offset 6, -16
	movq	%rsp, %rbp
	.cfi_def_cfa_register 6
	subq	$32, %rsp
#APP
# 76 "/usr/include/stdlib.h" 1
	##_ANNOTATION_INITIALREGION_-TIG-iO-3GKX-1-printqueue--20
# 0 "" 2
# 80 "/usr/include/stdlib.h" 1
	##_ANNOTATION_ATOMICREGION_-TIG-iO-3GKX-1-printqueue--19
# 0 "" 2
#NO_APP
	movl	$24, %edi
	call	malloc@PLT
	movq	%rax, -24(%rbp)
	movq	-24(%rbp), %rax
	movq	-24(%rbp), %rdx
	movq	%rdx, 8(%rax)
	movq	-24(%rbp), %rax
	movq	-24(%rbp), %rdx
	movq	%rdx, 16(%rax)
	movq	-24(%rbp), %rax
	movq	%rax, _TIG_iO_3GKX_1_printqueue_1_opaque_list_1(%rip)
	call	rand@PLT
	movl	%eax, -32(%rbp)
	movl	$24, %edi
	call	malloc@PLT
	movq	%rax, -16(%rbp)
	movq	-16(%rbp), %rax
	movl	$0, (%rax)
	movq	_TIG_iO_3GKX_1_printqueue_1_opaque_list_1(%rip), %rax
	movq	8(%rax), %rdx
	movq	-16(%rbp), %rax
	movq	%rdx, 8(%rax)
	movq	_TIG_iO_3GKX_1_printqueue_1_opaque_list_1(%rip), %rdx
	movq	-16(%rbp), %rax
	movq	%rdx, 16(%rax)
	movq	_TIG_iO_3GKX_1_printqueue_1_opaque_list_1(%rip), %rax
	movq	8(%rax), %rax
	movq	-16(%rbp), %rdx
	movq	%rdx, 16(%rax)
	movq	_TIG_iO_3GKX_1_printqueue_1_opaque_list_1(%rip), %rax
	movq	-16(%rbp), %rdx
	movq	%rdx, 8(%rax)
	call	rand@PLT
	movl	%eax, -28(%rbp)
	movl	$24, %edi
	call	malloc@PLT
	movq	%rax, -8(%rbp)
	movq	-8(%rbp), %rax
	movl	-28(%rbp), %edx
	movl	%edx, (%rax)
	movq	_TIG_iO_3GKX_1_printqueue_1_opaque_list_1(%rip), %rax
	movq	8(%rax), %rdx
	movq	-8(%rbp), %rax
	movq	%rdx, 8(%rax)
	movq	_TIG_iO_3GKX_1_printqueue_1_opaque_list_1(%rip), %rdx
	movq	-8(%rbp), %rax
	movq	%rdx, 16(%rax)
	movq	_TIG_iO_3GKX_1_printqueue_1_opaque_list_1(%rip), %rax
	movq	8(%rax), %rax
	movq	-8(%rbp), %rdx
	movq	%rdx, 16(%rax)
	movq	_TIG_iO_3GKX_1_printqueue_1_opaque_list_1(%rip), %rax
	movq	-8(%rbp), %rdx
	movq	%rdx, 8(%rax)
	movq	_TIG_iO_3GKX_1_printqueue_1_opaque_list_1(%rip), %rax
	movq	8(%rax), %rax
	movq	%rax, _TIG_iO_3GKX_1_printqueue_1_opaque_ptr_1(%rip)
	movq	_TIG_iO_3GKX_1_printqueue_1_opaque_ptr_1(%rip), %rax
	movq	%rax, _TIG_iO_3GKX_1_printqueue_1_opaque_ptr_2(%rip)
	nop
	nop
	leaq	.LC0(%rip), %rax
	movq	%rax, %rdi
	call	system@PLT
	movq	front(%rip), %rax
	testq	%rax, %rax
	jne	.L2
	leaq	.LC1(%rip), %rax
	movq	%rax, %rdi
	call	puts@PLT
	jmp	.L1
.L2:
	movq	front(%rip), %rax
	movq	%rax, temp(%rip)
.L5:
	movq	temp(%rip), %rax
	testq	%rax, %rax
	jne	.L4
	movq	_TIG_iO_3GKX_1_tekyazdir_1_opaque_ptr_1(%rip), %rdx
	movq	_TIG_iO_3GKX_1_tekyazdir_1_opaque_ptr_2(%rip), %rax
	cmpq	%rax, %rdx
	jne	.L8
.L4:
	movq	temp(%rip), %rax
	movl	(%rax), %eax
	movl	%eax, %esi
	leaq	.LC2(%rip), %rax
	movq	%rax, %rdi
	movl	$0, %eax
	call	printf@PLT
	movq	temp(%rip), %rax
	movq	8(%rax), %rax
	movq	%rax, temp(%rip)
	jmp	.L5
.L8:
	nop
	nop
.L1:
	leave
	.cfi_def_cfa 7, 8
	ret
	.cfi_endproc
.LFE0:
	.size	printqueue, .-printqueue
	.section	.rodata
.LC3:
	.string	"\n data : %d"
.LC4:
	.string	"\n adres : %p"
	.text
	.globl	tekyazdir
	.type	tekyazdir, @function
tekyazdir:
.LFB2:
	.cfi_startproc
	endbr64
	pushq	%rbp
	.cfi_def_cfa_offset 16
	.cfi_offset 6, -16
	movq	%rsp, %rbp
	.cfi_def_cfa_register 6
	subq	$64, %rsp
	movq	%rdi, -56(%rbp)
#APP
# 91 "/usr/include/x86_64-linux-gnu/bits/byteswap.h" 1
	##_ANNOTATION_INITIALREGION_-TIG-iO-3GKX-1-tekyazdir--22
# 0 "" 2
# 95 "/usr/include/x86_64-linux-gnu/bits/byteswap.h" 1
	##_ANNOTATION_ATOMICREGION_-TIG-iO-3GKX-1-tekyazdir--21
# 0 "" 2
#NO_APP
	movl	$24, %edi
	call	malloc@PLT
	movq	%rax, -32(%rbp)
	movq	-32(%rbp), %rax
	movq	-32(%rbp), %rdx
	movq	%rdx, (%rax)
	movq	-32(%rbp), %rax
	movq	-32(%rbp), %rdx
	movq	%rdx, 16(%rax)
	movq	-32(%rbp), %rax
	movq	%rax, _TIG_iO_3GKX_1_tekyazdir_1_opaque_list_1(%rip)
	call	rand@PLT
	movl	%eax, -44(%rbp)
	movl	$24, %edi
	call	malloc@PLT
	movq	%rax, -24(%rbp)
	movq	-24(%rbp), %rax
	movl	$0, 8(%rax)
	movq	_TIG_iO_3GKX_1_tekyazdir_1_opaque_list_1(%rip), %rax
	movq	(%rax), %rdx
	movq	-24(%rbp), %rax
	movq	%rdx, (%rax)
	movq	_TIG_iO_3GKX_1_tekyazdir_1_opaque_list_1(%rip), %rdx
	movq	-24(%rbp), %rax
	movq	%rdx, 16(%rax)
	movq	_TIG_iO_3GKX_1_tekyazdir_1_opaque_list_1(%rip), %rax
	movq	(%rax), %rax
	movq	-24(%rbp), %rdx
	movq	%rdx, 16(%rax)
	movq	_TIG_iO_3GKX_1_tekyazdir_1_opaque_list_1(%rip), %rax
	movq	-24(%rbp), %rdx
	movq	%rdx, (%rax)
	call	rand@PLT
	movl	%eax, -40(%rbp)
	movl	$24, %edi
	call	malloc@PLT
	movq	%rax, -16(%rbp)
	movq	-16(%rbp), %rax
	movl	-40(%rbp), %edx
	movl	%edx, 8(%rax)
	movq	_TIG_iO_3GKX_1_tekyazdir_1_opaque_list_1(%rip), %rax
	movq	(%rax), %rdx
	movq	-16(%rbp), %rax
	movq	%rdx, (%rax)
	movq	_TIG_iO_3GKX_1_tekyazdir_1_opaque_list_1(%rip), %rdx
	movq	-16(%rbp), %rax
	movq	%rdx, 16(%rax)
	movq	_TIG_iO_3GKX_1_tekyazdir_1_opaque_list_1(%rip), %rax
	movq	(%rax), %rax
	movq	-16(%rbp), %rdx
	movq	%rdx, 16(%rax)
	movq	_TIG_iO_3GKX_1_tekyazdir_1_opaque_list_1(%rip), %rax
	movq	-16(%rbp), %rdx
	movq	%rdx, (%rax)
	call	rand@PLT
	movl	%eax, -36(%rbp)
	movl	$24, %edi
	call	malloc@PLT
	movq	%rax, -8(%rbp)
	movl	-36(%rbp), %eax
	leal	(%rax,%rax), %edx
	movq	-8(%rbp), %rax
	movl	%edx, 8(%rax)
	movq	_TIG_iO_3GKX_1_tekyazdir_1_opaque_list_1(%rip), %rax
	movq	(%rax), %rdx
	movq	-8(%rbp), %rax
	movq	%rdx, (%rax)
	movq	_TIG_iO_3GKX_1_tekyazdir_1_opaque_list_1(%rip), %rdx
	movq	-8(%rbp), %rax
	movq	%rdx, 16(%rax)
	movq	_TIG_iO_3GKX_1_tekyazdir_1_opaque_list_1(%rip), %rax
	movq	(%rax), %rax
	movq	-8(%rbp), %rdx
	movq	%rdx, 16(%rax)
	movq	_TIG_iO_3GKX_1_tekyazdir_1_opaque_list_1(%rip), %rax
	movq	-8(%rbp), %rdx
	movq	%rdx, (%rax)
	movq	_TIG_iO_3GKX_1_tekyazdir_1_opaque_list_1(%rip), %rax
	movq	(%rax), %rax
	movq	%rax, _TIG_iO_3GKX_1_tekyazdir_1_opaque_ptr_1(%rip)
	movq	_TIG_iO_3GKX_1_tekyazdir_1_opaque_ptr_1(%rip), %rax
	movq	%rax, _TIG_iO_3GKX_1_tekyazdir_1_opaque_ptr_2(%rip)
	movq	_TIG_iO_3GKX_1_tekyazdir_1_opaque_ptr_2(%rip), %rax
	movq	(%rax), %rax
	movq	%rax, _TIG_iO_3GKX_1_tekyazdir_1_opaque_ptr_2(%rip)
	nop
	nop
	movq	-56(%rbp), %rax
	movl	(%rax), %eax
	movl	%eax, %esi
	leaq	.LC3(%rip), %rax
	movq	%rax, %rdi
	movl	$0, %eax
	call	printf@PLT
	movq	-56(%rbp), %rax
	movq	%rax, %rsi
	leaq	.LC4(%rip), %rax
	movq	%rax, %rdi
	movl	$0, %eax
	call	printf@PLT
	movq	_TIG_iO_3GKX_1_tekyazdir_1_opaque_ptr_1(%rip), %rdx
	movq	_TIG_iO_3GKX_1_tekyazdir_1_opaque_ptr_2(%rip), %rax
	cmpq	%rax, %rdx
	leave
	.cfi_def_cfa 7, 8
	ret
	.cfi_endproc
.LFE2:
	.size	tekyazdir, .-tekyazdir
	.section	.rodata
	.align 8
.LC5:
	.string	"Kuyruga eleman eklemek icin Enqueue :1 "
	.align 8
.LC6:
	.string	"Kuyruktan eleman Cikarmak icin Dequeue :2 "
.LC7:
	.string	"Ekrana yazdirmak icin :3 "
.LC8:
	.string	"Secim yapiniz :"
.LC9:
	.string	"%d"
.LC10:
	.string	"Eklenecek Sayiyi giriniz:"
.LC11:
	.string	"Gecersiz secim."
	.text
	.globl	main
	.type	main, @function
main:
.LFB4:
	.cfi_startproc
	endbr64
	pushq	%rbp
	.cfi_def_cfa_offset 16
	.cfi_offset 6, -16
	movq	%rsp, %rbp
	.cfi_def_cfa_register 6
	subq	$80, %rsp
	movl	%edi, -52(%rbp)
	movq	%rsi, -64(%rbp)
	movq	%rdx, -72(%rbp)
	movq	%fs:40, %rax
	movq	%rax, -8(%rbp)
	xorl	%eax, %eax
	movq	$0, rear(%rip)
	nop
.L12:
	movq	$0, front(%rip)
	nop
.L13:
	movq	$0, temp(%rip)
	nop
.L14:
	movq	$0, _TIG_IZ_3GKX_envp(%rip)
	nop
.L15:
	movq	$0, _TIG_IZ_3GKX_argv(%rip)
	nop
.L16:
	movl	$0, _TIG_IZ_3GKX_argc(%rip)
	nop
	nop
.L17:
.L18:
#APP
# 111 "/usr/include/x86_64-linux-gnu/bits/uintn-identity.h" 1
	##_ANNOTATION_INITIALREGION_-TIG-IZ-3GKX--0
# 0 "" 2
#NO_APP
	movl	-52(%rbp), %eax
	movl	%eax, _TIG_IZ_3GKX_argc(%rip)
	movq	-64(%rbp), %rax
	movq	%rax, _TIG_IZ_3GKX_argv(%rip)
	movq	-72(%rbp), %rax
	movq	%rax, _TIG_IZ_3GKX_envp(%rip)
#APP
# 118 "/usr/include/x86_64-linux-gnu/bits/uintn-identity.h" 1
	##_ANNOTATION_ATOMICREGION_-TIG-iO-3GKX-1-main--17
# 0 "" 2
#NO_APP
	movl	$24, %edi
	call	malloc@PLT
	movq	%rax, -32(%rbp)
	movq	-32(%rbp), %rax
	movq	-32(%rbp), %rdx
	movq	%rdx, 8(%rax)
	movq	-32(%rbp), %rax
	movq	-32(%rbp), %rdx
	movq	%rdx, (%rax)
	movq	-32(%rbp), %rax
	movq	%rax, _TIG_iO_3GKX_1_main_1_opaque_list_1(%rip)
	call	rand@PLT
	movl	%eax, -40(%rbp)
	movl	$24, %edi
	call	malloc@PLT
	movq	%rax, -24(%rbp)
	movq	-24(%rbp), %rax
	movl	$0, 16(%rax)
	movq	_TIG_iO_3GKX_1_main_1_opaque_list_1(%rip), %rax
	movq	8(%rax), %rdx
	movq	-24(%rbp), %rax
	movq	%rdx, 8(%rax)
	movq	_TIG_iO_3GKX_1_main_1_opaque_list_1(%rip), %rdx
	movq	-24(%rbp), %rax
	movq	%rdx, (%rax)
	movq	_TIG_iO_3GKX_1_main_1_opaque_list_1(%rip), %rax
	movq	8(%rax), %rax
	movq	-24(%rbp), %rdx
	movq	%rdx, (%rax)
	movq	_TIG_iO_3GKX_1_main_1_opaque_list_1(%rip), %rax
	movq	-24(%rbp), %rdx
	movq	%rdx, 8(%rax)
	call	rand@PLT
	movl	%eax, -36(%rbp)
	movl	$24, %edi
	call	malloc@PLT
	movq	%rax, -16(%rbp)
	movq	-16(%rbp), %rax
	movl	-36(%rbp), %edx
	movl	%edx, 16(%rax)
	movq	_TIG_iO_3GKX_1_main_1_opaque_list_1(%rip), %rax
	movq	8(%rax), %rdx
	movq	-16(%rbp), %rax
	movq	%rdx, 8(%rax)
	movq	_TIG_iO_3GKX_1_main_1_opaque_list_1(%rip), %rdx
	movq	-16(%rbp), %rax
	movq	%rdx, (%rax)
	movq	_TIG_iO_3GKX_1_main_1_opaque_list_1(%rip), %rax
	movq	8(%rax), %rax
	movq	-16(%rbp), %rdx
	movq	%rdx, (%rax)
	movq	_TIG_iO_3GKX_1_main_1_opaque_list_1(%rip), %rax
	movq	-16(%rbp), %rdx
	movq	%rdx, 8(%rax)
	movq	_TIG_iO_3GKX_1_main_1_opaque_list_1(%rip), %rax
	movq	8(%rax), %rax
	movq	%rax, _TIG_iO_3GKX_1_main_1_opaque_ptr_1(%rip)
	movq	_TIG_iO_3GKX_1_main_1_opaque_ptr_1(%rip), %rax
	movq	%rax, _TIG_iO_3GKX_1_main_1_opaque_ptr_2(%rip)
	movq	_TIG_iO_3GKX_1_main_1_opaque_ptr_2(%rip), %rax
	movq	8(%rax), %rax
	movq	%rax, _TIG_iO_3GKX_1_main_1_opaque_ptr_2(%rip)
	nop
	nop
.L26:
	leaq	.LC5(%rip), %rax
	movq	%rax, %rdi
	call	puts@PLT
	leaq	.LC6(%rip), %rax
	movq	%rax, %rdi
	call	puts@PLT
	leaq	.LC7(%rip), %rax
	movq	%rax, %rdi
	call	puts@PLT
	leaq	.LC8(%rip), %rax
	movq	%rax, %rdi
	movl	$0, %eax
	call	printf@PLT
	leaq	-48(%rbp), %rax
	movq	%rax, %rsi
	leaq	.LC9(%rip), %rax
	movq	%rax, %rdi
	movl	$0, %eax
	call	__isoc99_scanf@PLT
	movl	-48(%rbp), %eax
	cmpl	$3, %eax
	je	.L19
	cmpl	$3, %eax
	jg	.L20
	cmpl	$1, %eax
	je	.L21
	cmpl	$2, %eax
	je	.L22
	jmp	.L20
.L21:
	leaq	.LC10(%rip), %rax
	movq	%rax, %rdi
	movl	$0, %eax
	call	printf@PLT
	leaq	-44(%rbp), %rax
	movq	%rax, %rsi
	leaq	.LC9(%rip), %rax
	movq	%rax, %rdi
	movl	$0, %eax
	call	__isoc99_scanf@PLT
	movl	-44(%rbp), %eax
	movl	%eax, %edi
	call	enqueue
	jmp	.L23
.L22:
	call	dequeue
	jmp	.L23
.L19:
	call	printqueue
	jmp	.L23
.L20:
	leaq	.LC11(%rip), %rax
	movq	%rax, %rdi
	call	puts@PLT
	movq	_TIG_iO_3GKX_1_tekyazdir_1_opaque_ptr_1(%rip), %rdx
	movq	_TIG_iO_3GKX_1_tekyazdir_1_opaque_ptr_2(%rip), %rax
	cmpq	%rax, %rdx
	jne	.L29
	movl	-36(%rbp), %eax
	movq	-8(%rbp), %rdx
	subq	%fs:40, %rdx
	je	.L27
	jmp	.L28
.L29:
	nop
.L23:
	jmp	.L26
.L28:
	call	__stack_chk_fail@PLT
.L27:
	leave
	.cfi_def_cfa 7, 8
	ret
	.cfi_endproc
.LFE4:
	.size	main, .-main
	.section	.rodata
.LC12:
	.string	"Kuyruk Bos.."
	.text
	.globl	dequeue
	.type	dequeue, @function
dequeue:
.LFB7:
	.cfi_startproc
	endbr64
	pushq	%rbp
	.cfi_def_cfa_offset 16
	.cfi_offset 6, -16
	movq	%rsp, %rbp
	.cfi_def_cfa_register 6
	subq	$64, %rsp
#APP
# 73 "/usr/include/x86_64-linux-gnu/bits/byteswap.h" 1
	##_ANNOTATION_INITIALREGION_-TIG-iO-3GKX-1-dequeue--14
# 0 "" 2
# 77 "/usr/include/x86_64-linux-gnu/bits/byteswap.h" 1
	##_ANNOTATION_ATOMICREGION_-TIG-iO-3GKX-1-dequeue--13
# 0 "" 2
#NO_APP
	movl	$24, %edi
	call	malloc@PLT
	movq	%rax, -40(%rbp)
	movq	-40(%rbp), %rax
	movq	-40(%rbp), %rdx
	movq	%rdx, (%rax)
	movq	-40(%rbp), %rax
	movq	-40(%rbp), %rdx
	movq	%rdx, 8(%rax)
	movq	-40(%rbp), %rax
	movq	%rax, _TIG_iO_3GKX_1_dequeue_1_opaque_list_1(%rip)
	call	rand@PLT
	movl	%eax, -60(%rbp)
	movl	$24, %edi
	call	malloc@PLT
	movq	%rax, -32(%rbp)
	movq	-32(%rbp), %rax
	movl	$0, 16(%rax)
	movq	_TIG_iO_3GKX_1_dequeue_1_opaque_list_1(%rip), %rax
	movq	(%rax), %rdx
	movq	-32(%rbp), %rax
	movq	%rdx, (%rax)
	movq	_TIG_iO_3GKX_1_dequeue_1_opaque_list_1(%rip), %rdx
	movq	-32(%rbp), %rax
	movq	%rdx, 8(%rax)
	movq	_TIG_iO_3GKX_1_dequeue_1_opaque_list_1(%rip), %rax
	movq	(%rax), %rax
	movq	-32(%rbp), %rdx
	movq	%rdx, 8(%rax)
	movq	_TIG_iO_3GKX_1_dequeue_1_opaque_list_1(%rip), %rax
	movq	-32(%rbp), %rdx
	movq	%rdx, (%rax)
	call	rand@PLT
	movl	%eax, -56(%rbp)
	movl	$24, %edi
	call	malloc@PLT
	movq	%rax, -24(%rbp)
	movq	-24(%rbp), %rax
	movl	-56(%rbp), %edx
	movl	%edx, 16(%rax)
	movq	_TIG_iO_3GKX_1_dequeue_1_opaque_list_1(%rip), %rax
	movq	(%rax), %rdx
	movq	-24(%rbp), %rax
	movq	%rdx, (%rax)
	movq	_TIG_iO_3GKX_1_dequeue_1_opaque_list_1(%rip), %rdx
	movq	-24(%rbp), %rax
	movq	%rdx, 8(%rax)
	movq	_TIG_iO_3GKX_1_dequeue_1_opaque_list_1(%rip), %rax
	movq	(%rax), %rax
	movq	-24(%rbp), %rdx
	movq	%rdx, 8(%rax)
	movq	_TIG_iO_3GKX_1_dequeue_1_opaque_list_1(%rip), %rax
	movq	-24(%rbp), %rdx
	movq	%rdx, (%rax)
	call	rand@PLT
	movl	%eax, -52(%rbp)
	movl	$24, %edi
	call	malloc@PLT
	movq	%rax, -16(%rbp)
	movl	-52(%rbp), %eax
	leal	(%rax,%rax), %edx
	movq	-16(%rbp), %rax
	movl	%edx, 16(%rax)
	movq	_TIG_iO_3GKX_1_dequeue_1_opaque_list_1(%rip), %rax
	movq	(%rax), %rdx
	movq	-16(%rbp), %rax
	movq	%rdx, (%rax)
	movq	_TIG_iO_3GKX_1_dequeue_1_opaque_list_1(%rip), %rdx
	movq	-16(%rbp), %rax
	movq	%rdx, 8(%rax)
	movq	_TIG_iO_3GKX_1_dequeue_1_opaque_list_1(%rip), %rax
	movq	(%rax), %rax
	movq	-16(%rbp), %rdx
	movq	%rdx, 8(%rax)
	movq	_TIG_iO_3GKX_1_dequeue_1_opaque_list_1(%rip), %rax
	movq	-16(%rbp), %rdx
	movq	%rdx, (%rax)
	call	rand@PLT
	movl	%eax, -48(%rbp)
	movl	$24, %edi
	call	malloc@PLT
	movq	%rax, -8(%rbp)
	movl	-48(%rbp), %edx
	movl	%edx, %eax
	addl	%eax, %eax
	addl	%eax, %edx
	movq	-8(%rbp), %rax
	movl	%edx, 16(%rax)
	movq	_TIG_iO_3GKX_1_dequeue_1_opaque_list_1(%rip), %rax
	movq	(%rax), %rdx
	movq	-8(%rbp), %rax
	movq	%rdx, (%rax)
	movq	_TIG_iO_3GKX_1_dequeue_1_opaque_list_1(%rip), %rdx
	movq	-8(%rbp), %rax
	movq	%rdx, 8(%rax)
	movq	_TIG_iO_3GKX_1_dequeue_1_opaque_list_1(%rip), %rax
	movq	(%rax), %rax
	movq	-8(%rbp), %rdx
	movq	%rdx, 8(%rax)
	movq	_TIG_iO_3GKX_1_dequeue_1_opaque_list_1(%rip), %rax
	movq	-8(%rbp), %rdx
	movq	%rdx, (%rax)
	movq	_TIG_iO_3GKX_1_dequeue_1_opaque_list_1(%rip), %rax
	movq	(%rax), %rax
	movq	%rax, _TIG_iO_3GKX_1_dequeue_1_opaque_ptr_1(%rip)
	movq	_TIG_iO_3GKX_1_dequeue_1_opaque_ptr_1(%rip), %rax
	movq	%rax, _TIG_iO_3GKX_1_dequeue_1_opaque_ptr_2(%rip)
	movq	_TIG_iO_3GKX_1_dequeue_1_opaque_ptr_2(%rip), %rax
	movq	(%rax), %rax
	movq	%rax, _TIG_iO_3GKX_1_dequeue_1_opaque_ptr_2(%rip)
	nop
	nop
	movq	front(%rip), %rax
	testq	%rax, %rax
	jne	.L31
	leaq	.LC12(%rip), %rax
	movq	%rax, %rdi
	call	puts@PLT
	movl	$-1, %eax
	jmp	.L32
.L31:
	movq	front(%rip), %rax
	movl	(%rax), %eax
	movl	%eax, -44(%rbp)
	movq	front(%rip), %rax
	movq	%rax, temp(%rip)
	movq	front(%rip), %rax
	movq	8(%rax), %rax
	movq	%rax, front(%rip)
	movq	front(%rip), %rax
	testq	%rax, %rax
	je	.L33
	movq	front(%rip), %rax
	movq	$0, 16(%rax)
	jmp	.L34
.L33:
	movq	$0, rear(%rip)
.L34:
	movq	_TIG_iO_3GKX_1_tekyazdir_1_opaque_ptr_1(%rip), %rdx
	movq	_TIG_iO_3GKX_1_tekyazdir_1_opaque_ptr_2(%rip), %rax
	cmpq	%rax, %rdx
	je	.L35
	movq	temp(%rip), %rax
	movq	%rax, %rdi
	call	free@PLT
.L35:
	movl	-44(%rbp), %eax
.L32:
	leave
	.cfi_def_cfa 7, 8
	ret
	.cfi_endproc
.LFE7:
	.size	dequeue, .-dequeue
	.globl	enqueue
	.type	enqueue, @function
enqueue:
.LFB9:
	.cfi_startproc
	endbr64
	pushq	%rbp
	.cfi_def_cfa_offset 16
	.cfi_offset 6, -16
	movq	%rsp, %rbp
	.cfi_def_cfa_register 6
	subq	$64, %rsp
	movl	%edi, -52(%rbp)
#APP
# 67 "/usr/include/x86_64-linux-gnu/bits/uintn-identity.h" 1
	##_ANNOTATION_INITIALREGION_-TIG-iO-3GKX-1-enqueue--16
# 0 "" 2
# 71 "/usr/include/x86_64-linux-gnu/bits/uintn-identity.h" 1
	##_ANNOTATION_ATOMICREGION_-TIG-iO-3GKX-1-enqueue--15
# 0 "" 2
#NO_APP
	movl	$24, %edi
	call	malloc@PLT
	movq	%rax, -40(%rbp)
	movq	-40(%rbp), %rax
	movq	-40(%rbp), %rdx
	movq	%rdx, 16(%rax)
	movq	-40(%rbp), %rax
	movq	-40(%rbp), %rdx
	movq	%rdx, 8(%rax)
	movq	-40(%rbp), %rax
	movq	%rax, _TIG_iO_3GKX_1_enqueue_1_opaque_list_1(%rip)
	call	rand@PLT
	movl	%eax, -48(%rbp)
	movl	$24, %edi
	call	malloc@PLT
	movq	%rax, -32(%rbp)
	movq	-32(%rbp), %rax
	movl	$0, (%rax)
	movq	_TIG_iO_3GKX_1_enqueue_1_opaque_list_1(%rip), %rax
	movq	16(%rax), %rdx
	movq	-32(%rbp), %rax
	movq	%rdx, 16(%rax)
	movq	_TIG_iO_3GKX_1_enqueue_1_opaque_list_1(%rip), %rdx
	movq	-32(%rbp), %rax
	movq	%rdx, 8(%rax)
	movq	_TIG_iO_3GKX_1_enqueue_1_opaque_list_1(%rip), %rax
	movq	16(%rax), %rax
	movq	-32(%rbp), %rdx
	movq	%rdx, 8(%rax)
	movq	_TIG_iO_3GKX_1_enqueue_1_opaque_list_1(%rip), %rax
	movq	-32(%rbp), %rdx
	movq	%rdx, 16(%rax)
	call	rand@PLT
	movl	%eax, -44(%rbp)
	movl	$24, %edi
	call	malloc@PLT
	movq	%rax, -24(%rbp)
	movq	-24(%rbp), %rax
	movl	-44(%rbp), %edx
	movl	%edx, (%rax)
	movq	_TIG_iO_3GKX_1_enqueue_1_opaque_list_1(%rip), %rax
	movq	16(%rax), %rdx
	movq	-24(%rbp), %rax
	movq	%rdx, 16(%rax)
	movq	_TIG_iO_3GKX_1_enqueue_1_opaque_list_1(%rip), %rdx
	movq	-24(%rbp), %rax
	movq	%rdx, 8(%rax)
	movq	_TIG_iO_3GKX_1_enqueue_1_opaque_list_1(%rip), %rax
	movq	16(%rax), %rax
	movq	-24(%rbp), %rdx
	movq	%rdx, 8(%rax)
	movq	_TIG_iO_3GKX_1_enqueue_1_opaque_list_1(%rip), %rax
	movq	-24(%rbp), %rdx
	movq	%rdx, 16(%rax)
	movq	_TIG_iO_3GKX_1_enqueue_1_opaque_list_1(%rip), %rax
	movq	16(%rax), %rax
	movq	%rax, _TIG_iO_3GKX_1_enqueue_1_opaque_ptr_1(%rip)
	movq	_TIG_iO_3GKX_1_enqueue_1_opaque_ptr_1(%rip), %rax
	movq	%rax, _TIG_iO_3GKX_1_enqueue_1_opaque_ptr_2(%rip)
	nop
	nop
	movl	$24, %edi
	call	malloc@PLT
	movq	%rax, -16(%rbp)
	movq	-16(%rbp), %rax
	movq	%rax, -8(%rbp)
	movq	-8(%rbp), %rax
	movl	-52(%rbp), %edx
	movl	%edx, (%rax)
	movq	-8(%rbp), %rax
	movq	$0, 8(%rax)
	movq	-8(%rbp), %rax
	movq	$0, 16(%rax)
	movq	_TIG_iO_3GKX_1_tekyazdir_1_opaque_ptr_1(%rip), %rdx
	movq	_TIG_iO_3GKX_1_tekyazdir_1_opaque_ptr_2(%rip), %rax
	cmpq	%rax, %rdx
	jne	.L37
	movl	-44(%rbp), %eax
	movl	%eax, %edi
	call	enqueue
.L37:
	movq	front(%rip), %rax
	testq	%rax, %rax
	jne	.L38
	movq	-8(%rbp), %rax
	movq	%rax, front(%rip)
	movq	-8(%rbp), %rax
	movq	%rax, rear(%rip)
	movq	-8(%rbp), %rax
	movq	%rax, %rdi
	call	tekyazdir
	jmp	.L36
.L38:
	movq	rear(%rip), %rax
	movq	-8(%rbp), %rdx
	movq	%rdx, 8(%rax)
	movq	rear(%rip), %rdx
	movq	-8(%rbp), %rax
	movq	%rdx, 16(%rax)
	movq	-8(%rbp), %rax
	movq	%rax, rear(%rip)
	movq	-8(%rbp), %rax
	movq	%rax, %rdi
	call	tekyazdir
	nop
.L36:
	leave
	.cfi_def_cfa 7, 8
	ret
	.cfi_endproc
.LFE9:
	.size	enqueue, .-enqueue
	.ident	"GCC: (Ubuntu 11.4.0-1ubuntu1~22.04) 11.4.0"
	.section	.note.GNU-stack,"",@progbits
	.section	.note.gnu.property,"a"
	.align 8
	.long	1f - 0f
	.long	4f - 1f
	.long	5
0:
	.string	"GNU"
1:
	.align 8
	.long	0xc0000002
	.long	3f - 2f
2:
	.long	0x3
3:
	.align 8
4:
