	.file	"AkshayaShankariB_DSA_3_opaque.c"
	.text
	.globl	_TIG_iO_wG6b_1_pali_1_opaque_list_1
	.bss
	.align 8
	.type	_TIG_iO_wG6b_1_pali_1_opaque_list_1, @object
	.size	_TIG_iO_wG6b_1_pali_1_opaque_list_1, 8
_TIG_iO_wG6b_1_pali_1_opaque_list_1:
	.zero	8
	.globl	_TIG_iO_wG6b_1_main_1_opaque_ptr_2
	.align 8
	.type	_TIG_iO_wG6b_1_main_1_opaque_ptr_2, @object
	.size	_TIG_iO_wG6b_1_main_1_opaque_ptr_2, 8
_TIG_iO_wG6b_1_main_1_opaque_ptr_2:
	.zero	8
	.globl	_TIG_iO_wG6b_1_pali_1_opaque_ptr_2
	.align 8
	.type	_TIG_iO_wG6b_1_pali_1_opaque_ptr_2, @object
	.size	_TIG_iO_wG6b_1_pali_1_opaque_ptr_2, 8
_TIG_iO_wG6b_1_pali_1_opaque_ptr_2:
	.zero	8
	.globl	_TIG_iO_wG6b_1___bswap_16_1_opaque_ptr_2
	.align 8
	.type	_TIG_iO_wG6b_1___bswap_16_1_opaque_ptr_2, @object
	.size	_TIG_iO_wG6b_1___bswap_16_1_opaque_ptr_2, 8
_TIG_iO_wG6b_1___bswap_16_1_opaque_ptr_2:
	.zero	8
	.globl	k
	.align 4
	.type	k, @object
	.size	k, 4
k:
	.zero	4
	.globl	_TIG_iO_wG6b_1_main_1_opaque_list_2
	.align 8
	.type	_TIG_iO_wG6b_1_main_1_opaque_list_2, @object
	.size	_TIG_iO_wG6b_1_main_1_opaque_list_2, 8
_TIG_iO_wG6b_1_main_1_opaque_list_2:
	.zero	8
	.globl	_TIG_iO_wG6b_1_pali_1_opaque_list_2
	.align 8
	.type	_TIG_iO_wG6b_1_pali_1_opaque_list_2, @object
	.size	_TIG_iO_wG6b_1_pali_1_opaque_list_2, 8
_TIG_iO_wG6b_1_pali_1_opaque_list_2:
	.zero	8
	.globl	stack
	.align 16
	.type	stack, @object
	.size	stack, 24
stack:
	.zero	24
	.globl	_TIG_iO_wG6b_1___bswap_16_1_opaque_list_1
	.align 8
	.type	_TIG_iO_wG6b_1___bswap_16_1_opaque_list_1, @object
	.size	_TIG_iO_wG6b_1___bswap_16_1_opaque_list_1, 8
_TIG_iO_wG6b_1___bswap_16_1_opaque_list_1:
	.zero	8
	.globl	_TIG_IZ_wG6b_argc
	.align 4
	.type	_TIG_IZ_wG6b_argc, @object
	.size	_TIG_IZ_wG6b_argc, 4
_TIG_IZ_wG6b_argc:
	.zero	4
	.globl	i
	.align 4
	.type	i, @object
	.size	i, 4
i:
	.zero	4
	.globl	_TIG_iO_wG6b_1___bswap_32_1_opaque_ptr_2
	.align 8
	.type	_TIG_iO_wG6b_1___bswap_32_1_opaque_ptr_2, @object
	.size	_TIG_iO_wG6b_1___bswap_32_1_opaque_ptr_2, 8
_TIG_iO_wG6b_1___bswap_32_1_opaque_ptr_2:
	.zero	8
	.globl	rev
	.align 16
	.type	rev, @object
	.size	rev, 24
rev:
	.zero	24
	.globl	_TIG_iO_wG6b_1___uint16_identity_1_opaque_list_2
	.align 8
	.type	_TIG_iO_wG6b_1___uint16_identity_1_opaque_list_2, @object
	.size	_TIG_iO_wG6b_1___uint16_identity_1_opaque_list_2, 8
_TIG_iO_wG6b_1___uint16_identity_1_opaque_list_2:
	.zero	8
	.globl	_TIG_iO_wG6b_1___bswap_64_1_opaque_list_2
	.align 8
	.type	_TIG_iO_wG6b_1___bswap_64_1_opaque_list_2, @object
	.size	_TIG_iO_wG6b_1___bswap_64_1_opaque_list_2, 8
_TIG_iO_wG6b_1___bswap_64_1_opaque_list_2:
	.zero	8
	.globl	_TIG_iO_wG6b_1___bswap_64_1_opaque_ptr_1
	.align 8
	.type	_TIG_iO_wG6b_1___bswap_64_1_opaque_ptr_1, @object
	.size	_TIG_iO_wG6b_1___bswap_64_1_opaque_ptr_1, 8
_TIG_iO_wG6b_1___bswap_64_1_opaque_ptr_1:
	.zero	8
	.globl	_TIG_iO_wG6b_1_display_1_opaque_ptr_2
	.align 8
	.type	_TIG_iO_wG6b_1_display_1_opaque_ptr_2, @object
	.size	_TIG_iO_wG6b_1_display_1_opaque_ptr_2, 8
_TIG_iO_wG6b_1_display_1_opaque_ptr_2:
	.zero	8
	.globl	_TIG_iO_wG6b_1_pop_1_opaque_list_2
	.align 8
	.type	_TIG_iO_wG6b_1_pop_1_opaque_list_2, @object
	.size	_TIG_iO_wG6b_1_pop_1_opaque_list_2, 8
_TIG_iO_wG6b_1_pop_1_opaque_list_2:
	.zero	8
	.globl	_TIG_iO_wG6b_1___uint16_identity_1_opaque_ptr_1
	.align 8
	.type	_TIG_iO_wG6b_1___uint16_identity_1_opaque_ptr_1, @object
	.size	_TIG_iO_wG6b_1___uint16_identity_1_opaque_ptr_1, 8
_TIG_iO_wG6b_1___uint16_identity_1_opaque_ptr_1:
	.zero	8
	.globl	choice
	.align 4
	.type	choice, @object
	.size	choice, 4
choice:
	.zero	4
	.globl	_TIG_iO_wG6b_1_push_1_opaque_list_2
	.align 8
	.type	_TIG_iO_wG6b_1_push_1_opaque_list_2, @object
	.size	_TIG_iO_wG6b_1_push_1_opaque_list_2, 8
_TIG_iO_wG6b_1_push_1_opaque_list_2:
	.zero	8
	.globl	_TIG_iO_wG6b_1___uint32_identity_1_opaque_list_2
	.align 8
	.type	_TIG_iO_wG6b_1___uint32_identity_1_opaque_list_2, @object
	.size	_TIG_iO_wG6b_1___uint32_identity_1_opaque_list_2, 8
_TIG_iO_wG6b_1___uint32_identity_1_opaque_list_2:
	.zero	8
	.globl	_TIG_iO_wG6b_1_main_1_opaque_ptr_1
	.align 8
	.type	_TIG_iO_wG6b_1_main_1_opaque_ptr_1, @object
	.size	_TIG_iO_wG6b_1_main_1_opaque_ptr_1, 8
_TIG_iO_wG6b_1_main_1_opaque_ptr_1:
	.zero	8
	.globl	_TIG_iO_wG6b_1_display_1_opaque_list_1
	.align 8
	.type	_TIG_iO_wG6b_1_display_1_opaque_list_1, @object
	.size	_TIG_iO_wG6b_1_display_1_opaque_list_1, 8
_TIG_iO_wG6b_1_display_1_opaque_list_1:
	.zero	8
	.globl	_TIG_iO_wG6b_1___bswap_64_1_opaque_list_1
	.align 8
	.type	_TIG_iO_wG6b_1___bswap_64_1_opaque_list_1, @object
	.size	_TIG_iO_wG6b_1___bswap_64_1_opaque_list_1, 8
_TIG_iO_wG6b_1___bswap_64_1_opaque_list_1:
	.zero	8
	.globl	_TIG_iO_wG6b_1___uint64_identity_1_opaque_ptr_1
	.align 8
	.type	_TIG_iO_wG6b_1___uint64_identity_1_opaque_ptr_1, @object
	.size	_TIG_iO_wG6b_1___uint64_identity_1_opaque_ptr_1, 8
_TIG_iO_wG6b_1___uint64_identity_1_opaque_ptr_1:
	.zero	8
	.globl	_TIG_iO_wG6b_1___uint32_identity_1_opaque_list_1
	.align 8
	.type	_TIG_iO_wG6b_1___uint32_identity_1_opaque_list_1, @object
	.size	_TIG_iO_wG6b_1___uint32_identity_1_opaque_list_1, 8
_TIG_iO_wG6b_1___uint32_identity_1_opaque_list_1:
	.zero	8
	.globl	f
	.align 4
	.type	f, @object
	.size	f, 4
f:
	.zero	4
	.globl	_TIG_iO_wG6b_1_push_1_opaque_ptr_1
	.align 8
	.type	_TIG_iO_wG6b_1_push_1_opaque_ptr_1, @object
	.size	_TIG_iO_wG6b_1_push_1_opaque_ptr_1, 8
_TIG_iO_wG6b_1_push_1_opaque_ptr_1:
	.zero	8
	.globl	_TIG_iO_wG6b_1___uint16_identity_1_opaque_list_1
	.align 8
	.type	_TIG_iO_wG6b_1___uint16_identity_1_opaque_list_1, @object
	.size	_TIG_iO_wG6b_1___uint16_identity_1_opaque_list_1, 8
_TIG_iO_wG6b_1___uint16_identity_1_opaque_list_1:
	.zero	8
	.globl	_TIG_iO_wG6b_1_pali_1_opaque_ptr_1
	.align 8
	.type	_TIG_iO_wG6b_1_pali_1_opaque_ptr_1, @object
	.size	_TIG_iO_wG6b_1_pali_1_opaque_ptr_1, 8
_TIG_iO_wG6b_1_pali_1_opaque_ptr_1:
	.zero	8
	.globl	_TIG_IZ_wG6b_argv
	.align 8
	.type	_TIG_IZ_wG6b_argv, @object
	.size	_TIG_IZ_wG6b_argv, 8
_TIG_IZ_wG6b_argv:
	.zero	8
	.globl	_TIG_iO_wG6b_1___bswap_16_1_opaque_list_2
	.align 8
	.type	_TIG_iO_wG6b_1___bswap_16_1_opaque_list_2, @object
	.size	_TIG_iO_wG6b_1___bswap_16_1_opaque_list_2, 8
_TIG_iO_wG6b_1___bswap_16_1_opaque_list_2:
	.zero	8
	.globl	_TIG_iO_wG6b_1___uint64_identity_1_opaque_list_1
	.align 8
	.type	_TIG_iO_wG6b_1___uint64_identity_1_opaque_list_1, @object
	.size	_TIG_iO_wG6b_1___uint64_identity_1_opaque_list_1, 8
_TIG_iO_wG6b_1___uint64_identity_1_opaque_list_1:
	.zero	8
	.globl	_TIG_iO_wG6b_1_display_1_opaque_list_2
	.align 8
	.type	_TIG_iO_wG6b_1_display_1_opaque_list_2, @object
	.size	_TIG_iO_wG6b_1_display_1_opaque_list_2, 8
_TIG_iO_wG6b_1_display_1_opaque_list_2:
	.zero	8
	.globl	_TIG_iO_wG6b_1_push_1_opaque_ptr_2
	.align 8
	.type	_TIG_iO_wG6b_1_push_1_opaque_ptr_2, @object
	.size	_TIG_iO_wG6b_1_push_1_opaque_ptr_2, 8
_TIG_iO_wG6b_1_push_1_opaque_ptr_2:
	.zero	8
	.globl	_TIG_iO_wG6b_1___bswap_32_1_opaque_list_1
	.align 8
	.type	_TIG_iO_wG6b_1___bswap_32_1_opaque_list_1, @object
	.size	_TIG_iO_wG6b_1___bswap_32_1_opaque_list_1, 8
_TIG_iO_wG6b_1___bswap_32_1_opaque_list_1:
	.zero	8
	.globl	_TIG_iO_wG6b_1_push_1_opaque_list_1
	.align 8
	.type	_TIG_iO_wG6b_1_push_1_opaque_list_1, @object
	.size	_TIG_iO_wG6b_1_push_1_opaque_list_1, 8
_TIG_iO_wG6b_1_push_1_opaque_list_1:
	.zero	8
	.globl	_TIG_iO_wG6b_1___bswap_32_1_opaque_ptr_1
	.align 8
	.type	_TIG_iO_wG6b_1___bswap_32_1_opaque_ptr_1, @object
	.size	_TIG_iO_wG6b_1___bswap_32_1_opaque_ptr_1, 8
_TIG_iO_wG6b_1___bswap_32_1_opaque_ptr_1:
	.zero	8
	.globl	_TIG_iO_wG6b_1___uint64_identity_1_opaque_list_2
	.align 8
	.type	_TIG_iO_wG6b_1___uint64_identity_1_opaque_list_2, @object
	.size	_TIG_iO_wG6b_1___uint64_identity_1_opaque_list_2, 8
_TIG_iO_wG6b_1___uint64_identity_1_opaque_list_2:
	.zero	8
	.globl	top
	.align 4
	.type	top, @object
	.size	top, 4
top:
	.zero	4
	.globl	_TIG_iO_wG6b_1_pop_1_opaque_list_1
	.align 8
	.type	_TIG_iO_wG6b_1_pop_1_opaque_list_1, @object
	.size	_TIG_iO_wG6b_1_pop_1_opaque_list_1, 8
_TIG_iO_wG6b_1_pop_1_opaque_list_1:
	.zero	8
	.globl	_TIG_iO_wG6b_1___uint64_identity_1_opaque_ptr_2
	.align 8
	.type	_TIG_iO_wG6b_1___uint64_identity_1_opaque_ptr_2, @object
	.size	_TIG_iO_wG6b_1___uint64_identity_1_opaque_ptr_2, 8
_TIG_iO_wG6b_1___uint64_identity_1_opaque_ptr_2:
	.zero	8
	.globl	_TIG_iO_wG6b_1___uint32_identity_1_opaque_ptr_1
	.align 8
	.type	_TIG_iO_wG6b_1___uint32_identity_1_opaque_ptr_1, @object
	.size	_TIG_iO_wG6b_1___uint32_identity_1_opaque_ptr_1, 8
_TIG_iO_wG6b_1___uint32_identity_1_opaque_ptr_1:
	.zero	8
	.globl	_TIG_iO_wG6b_1_display_1_opaque_ptr_1
	.align 8
	.type	_TIG_iO_wG6b_1_display_1_opaque_ptr_1, @object
	.size	_TIG_iO_wG6b_1_display_1_opaque_ptr_1, 8
_TIG_iO_wG6b_1_display_1_opaque_ptr_1:
	.zero	8
	.globl	_TIG_iO_wG6b_1_main_1_opaque_list_1
	.align 8
	.type	_TIG_iO_wG6b_1_main_1_opaque_list_1, @object
	.size	_TIG_iO_wG6b_1_main_1_opaque_list_1, 8
_TIG_iO_wG6b_1_main_1_opaque_list_1:
	.zero	8
	.globl	_TIG_IZ_wG6b_envp
	.align 8
	.type	_TIG_IZ_wG6b_envp, @object
	.size	_TIG_IZ_wG6b_envp, 8
_TIG_IZ_wG6b_envp:
	.zero	8
	.globl	_TIG_iO_wG6b_1___bswap_16_1_opaque_ptr_1
	.align 8
	.type	_TIG_iO_wG6b_1___bswap_16_1_opaque_ptr_1, @object
	.size	_TIG_iO_wG6b_1___bswap_16_1_opaque_ptr_1, 8
_TIG_iO_wG6b_1___bswap_16_1_opaque_ptr_1:
	.zero	8
	.globl	_TIG_iO_wG6b_1___bswap_64_1_opaque_ptr_2
	.align 8
	.type	_TIG_iO_wG6b_1___bswap_64_1_opaque_ptr_2, @object
	.size	_TIG_iO_wG6b_1___bswap_64_1_opaque_ptr_2, 8
_TIG_iO_wG6b_1___bswap_64_1_opaque_ptr_2:
	.zero	8
	.globl	_TIG_iO_wG6b_1_pop_1_opaque_ptr_1
	.align 8
	.type	_TIG_iO_wG6b_1_pop_1_opaque_ptr_1, @object
	.size	_TIG_iO_wG6b_1_pop_1_opaque_ptr_1, 8
_TIG_iO_wG6b_1_pop_1_opaque_ptr_1:
	.zero	8
	.globl	_TIG_iO_wG6b_1_pop_1_opaque_ptr_2
	.align 8
	.type	_TIG_iO_wG6b_1_pop_1_opaque_ptr_2, @object
	.size	_TIG_iO_wG6b_1_pop_1_opaque_ptr_2, 8
_TIG_iO_wG6b_1_pop_1_opaque_ptr_2:
	.zero	8
	.globl	_TIG_iO_wG6b_1___uint32_identity_1_opaque_ptr_2
	.align 8
	.type	_TIG_iO_wG6b_1___uint32_identity_1_opaque_ptr_2, @object
	.size	_TIG_iO_wG6b_1___uint32_identity_1_opaque_ptr_2, 8
_TIG_iO_wG6b_1___uint32_identity_1_opaque_ptr_2:
	.zero	8
	.globl	_TIG_iO_wG6b_1___bswap_32_1_opaque_list_2
	.align 8
	.type	_TIG_iO_wG6b_1___bswap_32_1_opaque_list_2, @object
	.size	_TIG_iO_wG6b_1___bswap_32_1_opaque_list_2, 8
_TIG_iO_wG6b_1___bswap_32_1_opaque_list_2:
	.zero	8
	.globl	_TIG_iO_wG6b_1___uint16_identity_1_opaque_ptr_2
	.align 8
	.type	_TIG_iO_wG6b_1___uint16_identity_1_opaque_ptr_2, @object
	.size	_TIG_iO_wG6b_1___uint16_identity_1_opaque_ptr_2, 8
_TIG_iO_wG6b_1___uint16_identity_1_opaque_ptr_2:
	.zero	8
	.globl	size
	.align 4
	.type	size, @object
	.size	size, 4
size:
	.zero	4
	.globl	num
	.align 4
	.type	num, @object
	.size	num, 4
num:
	.zero	4
	.section	.rodata
.LC0:
	.string	"Stack is empty"
.LC1:
	.string	"Stack contents..."
.LC2:
	.string	"%d\n"
	.text
	.globl	display
	.type	display, @function
display:
.LFB0:
	.cfi_startproc
	endbr64
	pushq	%rbp
	.cfi_def_cfa_offset 16
	.cfi_offset 6, -16
	movq	%rsp, %rbp
	.cfi_def_cfa_register 6
	subq	$64, %rsp
#APP
# 80 "/usr/include/stdlib.h" 1
	##_ANNOTATION_INITIALREGION_-TIG-iO-wG6b-1-display--14
# 0 "" 2
# 84 "/usr/include/stdlib.h" 1
	##_ANNOTATION_ATOMICREGION_-TIG-iO-wG6b-1-display--13
# 0 "" 2
#NO_APP
	movl	$24, %edi
	call	malloc@PLT
	movq	%rax, -40(%rbp)
	movq	-40(%rbp), %rax
	movq	-40(%rbp), %rdx
	movq	%rdx, (%rax)
	movq	-40(%rbp), %rax
	movq	-40(%rbp), %rdx
	movq	%rdx, 8(%rax)
	movq	-40(%rbp), %rax
	movq	%rax, _TIG_iO_wG6b_1_display_1_opaque_list_1(%rip)
	call	rand@PLT
	movl	%eax, -56(%rbp)
	movl	$24, %edi
	call	malloc@PLT
	movq	%rax, -32(%rbp)
	movq	-32(%rbp), %rax
	movl	$0, 16(%rax)
	movq	_TIG_iO_wG6b_1_display_1_opaque_list_1(%rip), %rax
	movq	(%rax), %rdx
	movq	-32(%rbp), %rax
	movq	%rdx, (%rax)
	movq	_TIG_iO_wG6b_1_display_1_opaque_list_1(%rip), %rdx
	movq	-32(%rbp), %rax
	movq	%rdx, 8(%rax)
	movq	_TIG_iO_wG6b_1_display_1_opaque_list_1(%rip), %rax
	movq	(%rax), %rax
	movq	-32(%rbp), %rdx
	movq	%rdx, 8(%rax)
	movq	_TIG_iO_wG6b_1_display_1_opaque_list_1(%rip), %rax
	movq	-32(%rbp), %rdx
	movq	%rdx, (%rax)
	call	rand@PLT
	movl	%eax, -52(%rbp)
	movl	$24, %edi
	call	malloc@PLT
	movq	%rax, -24(%rbp)
	movq	-24(%rbp), %rax
	movl	-52(%rbp), %edx
	movl	%edx, 16(%rax)
	movq	_TIG_iO_wG6b_1_display_1_opaque_list_1(%rip), %rax
	movq	(%rax), %rdx
	movq	-24(%rbp), %rax
	movq	%rdx, (%rax)
	movq	_TIG_iO_wG6b_1_display_1_opaque_list_1(%rip), %rdx
	movq	-24(%rbp), %rax
	movq	%rdx, 8(%rax)
	movq	_TIG_iO_wG6b_1_display_1_opaque_list_1(%rip), %rax
	movq	(%rax), %rax
	movq	-24(%rbp), %rdx
	movq	%rdx, 8(%rax)
	movq	_TIG_iO_wG6b_1_display_1_opaque_list_1(%rip), %rax
	movq	-24(%rbp), %rdx
	movq	%rdx, (%rax)
	call	rand@PLT
	movl	%eax, -48(%rbp)
	movl	$24, %edi
	call	malloc@PLT
	movq	%rax, -16(%rbp)
	movl	-48(%rbp), %eax
	leal	(%rax,%rax), %edx
	movq	-16(%rbp), %rax
	movl	%edx, 16(%rax)
	movq	_TIG_iO_wG6b_1_display_1_opaque_list_1(%rip), %rax
	movq	(%rax), %rdx
	movq	-16(%rbp), %rax
	movq	%rdx, (%rax)
	movq	_TIG_iO_wG6b_1_display_1_opaque_list_1(%rip), %rdx
	movq	-16(%rbp), %rax
	movq	%rdx, 8(%rax)
	movq	_TIG_iO_wG6b_1_display_1_opaque_list_1(%rip), %rax
	movq	(%rax), %rax
	movq	-16(%rbp), %rdx
	movq	%rdx, 8(%rax)
	movq	_TIG_iO_wG6b_1_display_1_opaque_list_1(%rip), %rax
	movq	-16(%rbp), %rdx
	movq	%rdx, (%rax)
	call	rand@PLT
	movl	%eax, -44(%rbp)
	movl	$24, %edi
	call	malloc@PLT
	movq	%rax, -8(%rbp)
	movl	-44(%rbp), %edx
	movl	%edx, %eax
	addl	%eax, %eax
	addl	%eax, %edx
	movq	-8(%rbp), %rax
	movl	%edx, 16(%rax)
	movq	_TIG_iO_wG6b_1_display_1_opaque_list_1(%rip), %rax
	movq	(%rax), %rdx
	movq	-8(%rbp), %rax
	movq	%rdx, (%rax)
	movq	_TIG_iO_wG6b_1_display_1_opaque_list_1(%rip), %rdx
	movq	-8(%rbp), %rax
	movq	%rdx, 8(%rax)
	movq	_TIG_iO_wG6b_1_display_1_opaque_list_1(%rip), %rax
	movq	(%rax), %rax
	movq	-8(%rbp), %rdx
	movq	%rdx, 8(%rax)
	movq	_TIG_iO_wG6b_1_display_1_opaque_list_1(%rip), %rax
	movq	-8(%rbp), %rdx
	movq	%rdx, (%rax)
	movq	_TIG_iO_wG6b_1_display_1_opaque_list_1(%rip), %rax
	movq	(%rax), %rax
	movq	%rax, _TIG_iO_wG6b_1_display_1_opaque_ptr_1(%rip)
	movq	_TIG_iO_wG6b_1_display_1_opaque_ptr_1(%rip), %rax
	movq	%rax, _TIG_iO_wG6b_1_display_1_opaque_ptr_2(%rip)
	movq	_TIG_iO_wG6b_1_display_1_opaque_ptr_2(%rip), %rax
	movq	(%rax), %rax
	movq	%rax, _TIG_iO_wG6b_1_display_1_opaque_ptr_2(%rip)
	nop
	nop
	movl	top(%rip), %eax
	cmpl	$-1, %eax
	jne	.L2
	leaq	.LC0(%rip), %rax
	movq	%rax, %rdi
	call	puts@PLT
	jmp	.L1
.L2:
	leaq	.LC1(%rip), %rax
	movq	%rax, %rdi
	call	puts@PLT
	movl	top(%rip), %eax
	movl	%eax, i(%rip)
.L5:
	movl	i(%rip), %eax
	testl	%eax, %eax
	jns	.L4
	movq	_TIG_iO_wG6b_1_push_1_opaque_ptr_1(%rip), %rdx
	movq	_TIG_iO_wG6b_1_push_1_opaque_ptr_2(%rip), %rax
	cmpq	%rax, %rdx
	jne	.L8
.L4:
	movl	i(%rip), %eax
	cltq
	leaq	0(,%rax,4), %rdx
	leaq	stack(%rip), %rax
	movl	(%rdx,%rax), %eax
	movl	%eax, %esi
	leaq	.LC2(%rip), %rax
	movq	%rax, %rdi
	movl	$0, %eax
	call	printf@PLT
	movl	i(%rip), %eax
	subl	$1, %eax
	movl	%eax, i(%rip)
	jmp	.L5
.L8:
	nop
	nop
.L1:
	leave
	.cfi_def_cfa 7, 8
	ret
	.cfi_endproc
.LFE0:
	.size	display, .-display
	.section	.rodata
.LC3:
	.string	"Enter size for stack"
.LC4:
	.string	"%d"
	.align 8
.LC5:
	.string	"\n-----MENU-----\n1.Push 2.Pop 3.Display 4.Check for Palindrome 5.Exit"
.LC6:
	.string	"Enter the choice"
.LC7:
	.string	"Enter the choice\n"
.LC8:
	.string	"It's Palindrome"
.LC9:
	.string	"It's not a Palindrome"
.LC10:
	.string	"Wrong choice..."
	.text
	.globl	main
	.type	main, @function
main:
.LFB2:
	.cfi_startproc
	endbr64
	pushq	%rbp
	.cfi_def_cfa_offset 16
	.cfi_offset 6, -16
	movq	%rsp, %rbp
	.cfi_def_cfa_register 6
	subq	$80, %rsp
	movl	%edi, -52(%rbp)
	movq	%rsi, -64(%rbp)
	movq	%rdx, -72(%rbp)
	movl	$0, -40(%rbp)
	jmp	.L10
.L11:
	movl	-40(%rbp), %eax
	cltq
	leaq	0(,%rax,4), %rdx
	leaq	rev(%rip), %rax
	movl	$0, (%rdx,%rax)
	addl	$1, -40(%rbp)
.L10:
	cmpl	$5, -40(%rbp)
	jle	.L11
	nop
.L12:
	movl	$0, -36(%rbp)
	jmp	.L13
.L14:
	movl	-36(%rbp), %eax
	cltq
	leaq	0(,%rax,4), %rdx
	leaq	stack(%rip), %rax
	movl	$0, (%rdx,%rax)
	addl	$1, -36(%rbp)
.L13:
	cmpl	$5, -36(%rbp)
	jle	.L14
	nop
.L15:
	movl	$0, i(%rip)
	nop
.L16:
	movl	$0, k(%rip)
	nop
.L17:
	movl	$0, num(%rip)
	nop
.L18:
	movl	$-1, top(%rip)
	nop
.L19:
	movl	$0, choice(%rip)
	nop
.L20:
	movl	$0, f(%rip)
	nop
.L21:
	movl	$0, size(%rip)
	nop
.L22:
	movq	$0, _TIG_IZ_wG6b_envp(%rip)
	nop
.L23:
	movq	$0, _TIG_IZ_wG6b_argv(%rip)
	nop
.L24:
	movl	$0, _TIG_IZ_wG6b_argc(%rip)
	nop
	nop
.L25:
.L26:
#APP
# 165 "/usr/include/x86_64-linux-gnu/bits/uintn-identity.h" 1
	##_ANNOTATION_INITIALREGION_-TIG-IZ-wG6b--0
# 0 "" 2
#NO_APP
	movl	-52(%rbp), %eax
	movl	%eax, _TIG_IZ_wG6b_argc(%rip)
	movq	-64(%rbp), %rax
	movq	%rax, _TIG_IZ_wG6b_argv(%rip)
	movq	-72(%rbp), %rax
	movq	%rax, _TIG_IZ_wG6b_envp(%rip)
#APP
# 172 "/usr/include/x86_64-linux-gnu/bits/uintn-identity.h" 1
	##_ANNOTATION_ATOMICREGION_-TIG-iO-wG6b-1-main--15
# 0 "" 2
#NO_APP
	movl	$24, %edi
	call	malloc@PLT
	movq	%rax, -24(%rbp)
	movq	-24(%rbp), %rax
	movq	-24(%rbp), %rdx
	movq	%rdx, 16(%rax)
	movq	-24(%rbp), %rax
	movq	-24(%rbp), %rdx
	movq	%rdx, 8(%rax)
	movq	-24(%rbp), %rax
	movq	%rax, _TIG_iO_wG6b_1_main_1_opaque_list_1(%rip)
	call	rand@PLT
	movl	%eax, -32(%rbp)
	movl	$24, %edi
	call	malloc@PLT
	movq	%rax, -16(%rbp)
	movq	-16(%rbp), %rax
	movl	$0, (%rax)
	movq	_TIG_iO_wG6b_1_main_1_opaque_list_1(%rip), %rax
	movq	16(%rax), %rdx
	movq	-16(%rbp), %rax
	movq	%rdx, 16(%rax)
	movq	_TIG_iO_wG6b_1_main_1_opaque_list_1(%rip), %rdx
	movq	-16(%rbp), %rax
	movq	%rdx, 8(%rax)
	movq	_TIG_iO_wG6b_1_main_1_opaque_list_1(%rip), %rax
	movq	16(%rax), %rax
	movq	-16(%rbp), %rdx
	movq	%rdx, 8(%rax)
	movq	_TIG_iO_wG6b_1_main_1_opaque_list_1(%rip), %rax
	movq	-16(%rbp), %rdx
	movq	%rdx, 16(%rax)
	call	rand@PLT
	movl	%eax, -28(%rbp)
	movl	$24, %edi
	call	malloc@PLT
	movq	%rax, -8(%rbp)
	movq	-8(%rbp), %rax
	movl	-28(%rbp), %edx
	movl	%edx, (%rax)
	movq	_TIG_iO_wG6b_1_main_1_opaque_list_1(%rip), %rax
	movq	16(%rax), %rdx
	movq	-8(%rbp), %rax
	movq	%rdx, 16(%rax)
	movq	_TIG_iO_wG6b_1_main_1_opaque_list_1(%rip), %rdx
	movq	-8(%rbp), %rax
	movq	%rdx, 8(%rax)
	movq	_TIG_iO_wG6b_1_main_1_opaque_list_1(%rip), %rax
	movq	16(%rax), %rax
	movq	-8(%rbp), %rdx
	movq	%rdx, 8(%rax)
	movq	_TIG_iO_wG6b_1_main_1_opaque_list_1(%rip), %rax
	movq	-8(%rbp), %rdx
	movq	%rdx, 16(%rax)
	movq	_TIG_iO_wG6b_1_main_1_opaque_list_1(%rip), %rax
	movq	16(%rax), %rax
	movq	%rax, _TIG_iO_wG6b_1_main_1_opaque_ptr_1(%rip)
	movq	_TIG_iO_wG6b_1_main_1_opaque_ptr_1(%rip), %rax
	movq	%rax, _TIG_iO_wG6b_1_main_1_opaque_ptr_2(%rip)
	nop
	nop
	leaq	.LC3(%rip), %rax
	movq	%rax, %rdi
	call	puts@PLT
	leaq	size(%rip), %rax
	movq	%rax, %rsi
	leaq	.LC4(%rip), %rax
	movq	%rax, %rdi
	movl	$0, %eax
	call	__isoc99_scanf@PLT
	leaq	.LC5(%rip), %rax
	movq	%rax, %rdi
	call	puts@PLT
.L39:
	movq	_TIG_iO_wG6b_1_push_1_opaque_ptr_1(%rip), %rdx
	movq	_TIG_iO_wG6b_1_push_1_opaque_ptr_2(%rip), %rax
	cmpq	%rax, %rdx
	je	.L27
	leaq	.LC6(%rip), %rax
	movq	%rax, %rdi
	call	puts@PLT
	leaq	choice(%rip), %rax
	movq	%rax, %rsi
	leaq	.LC4(%rip), %rax
	movq	%rax, %rdi
	movl	$0, %eax
	call	__isoc99_scanf@PLT
	jmp	.L28
.L27:
	leaq	-1+.LC7(%rip), %rax
	movq	%rax, %rdi
	movl	$0, %eax
	call	printf@PLT
	leaq	4+choice(%rip), %rdx
	leaq	-1+.LC4(%rip), %rax
	movq	%rdx, %rsi
	movq	%rax, %rdi
	movl	$0, %eax
	call	__isoc99_scanf@PLT
.L28:
	movl	choice(%rip), %eax
	cmpl	$5, %eax
	ja	.L29
	movl	%eax, %eax
	leaq	0(,%rax,4), %rdx
	leaq	.L31(%rip), %rax
	movl	(%rdx,%rax), %eax
	cltq
	leaq	.L31(%rip), %rdx
	addq	%rdx, %rax
	notrack jmp	*%rax
	.section	.rodata
	.align 4
	.align 4
.L31:
	.long	.L29-.L31
	.long	.L35-.L31
	.long	.L34-.L31
	.long	.L33-.L31
	.long	.L32-.L31
	.long	.L30-.L31
	.text
.L35:
	call	push
	jmp	.L36
.L34:
	call	pop
	jmp	.L36
.L33:
	call	display
	jmp	.L36
.L32:
	call	pali
	movl	%eax, f(%rip)
	movl	f(%rip), %eax
	cmpl	$1, %eax
	jne	.L37
	leaq	.LC8(%rip), %rax
	movq	%rax, %rdi
	call	puts@PLT
	jmp	.L36
.L37:
	leaq	.LC9(%rip), %rax
	movq	%rax, %rdi
	call	puts@PLT
	jmp	.L36
.L30:
	movl	$0, %edi
	call	exit@PLT
.L29:
	leaq	.LC10(%rip), %rax
	movq	%rax, %rdi
	call	puts@PLT
.L36:
	jmp	.L39
	.cfi_endproc
.LFE2:
	.size	main, .-main
	.globl	pali
	.type	pali, @function
pali:
.LFB5:
	.cfi_startproc
	endbr64
	pushq	%rbp
	.cfi_def_cfa_offset 16
	.cfi_offset 6, -16
	movq	%rsp, %rbp
	.cfi_def_cfa_register 6
	subq	$48, %rsp
#APP
# 57 "/usr/include/x86_64-linux-gnu/bits/uintn-identity.h" 1
	##_ANNOTATION_INITIALREGION_-TIG-iO-wG6b-1-pali--18
# 0 "" 2
# 61 "/usr/include/x86_64-linux-gnu/bits/uintn-identity.h" 1
	##_ANNOTATION_ATOMICREGION_-TIG-iO-wG6b-1-pali--17
# 0 "" 2
#NO_APP
	movl	$24, %edi
	call	malloc@PLT
	movq	%rax, -24(%rbp)
	movq	-24(%rbp), %rax
	movq	-24(%rbp), %rdx
	movq	%rdx, 8(%rax)
	movq	-24(%rbp), %rax
	movq	-24(%rbp), %rdx
	movq	%rdx, (%rax)
	movq	-24(%rbp), %rax
	movq	%rax, _TIG_iO_wG6b_1_pali_1_opaque_list_1(%rip)
	call	rand@PLT
	movl	%eax, -32(%rbp)
	movl	$24, %edi
	call	malloc@PLT
	movq	%rax, -16(%rbp)
	movq	-16(%rbp), %rax
	movl	$0, 16(%rax)
	movq	_TIG_iO_wG6b_1_pali_1_opaque_list_1(%rip), %rax
	movq	8(%rax), %rdx
	movq	-16(%rbp), %rax
	movq	%rdx, 8(%rax)
	movq	_TIG_iO_wG6b_1_pali_1_opaque_list_1(%rip), %rdx
	movq	-16(%rbp), %rax
	movq	%rdx, (%rax)
	movq	_TIG_iO_wG6b_1_pali_1_opaque_list_1(%rip), %rax
	movq	8(%rax), %rax
	movq	-16(%rbp), %rdx
	movq	%rdx, (%rax)
	movq	_TIG_iO_wG6b_1_pali_1_opaque_list_1(%rip), %rax
	movq	-16(%rbp), %rdx
	movq	%rdx, 8(%rax)
	call	rand@PLT
	movl	%eax, -28(%rbp)
	movl	$24, %edi
	call	malloc@PLT
	movq	%rax, -8(%rbp)
	movq	-8(%rbp), %rax
	movl	-28(%rbp), %edx
	movl	%edx, 16(%rax)
	movq	_TIG_iO_wG6b_1_pali_1_opaque_list_1(%rip), %rax
	movq	8(%rax), %rdx
	movq	-8(%rbp), %rax
	movq	%rdx, 8(%rax)
	movq	_TIG_iO_wG6b_1_pali_1_opaque_list_1(%rip), %rdx
	movq	-8(%rbp), %rax
	movq	%rdx, (%rax)
	movq	_TIG_iO_wG6b_1_pali_1_opaque_list_1(%rip), %rax
	movq	8(%rax), %rax
	movq	-8(%rbp), %rdx
	movq	%rdx, (%rax)
	movq	_TIG_iO_wG6b_1_pali_1_opaque_list_1(%rip), %rax
	movq	-8(%rbp), %rdx
	movq	%rdx, 8(%rax)
	movq	_TIG_iO_wG6b_1_pali_1_opaque_list_1(%rip), %rax
	movq	8(%rax), %rax
	movq	%rax, _TIG_iO_wG6b_1_pali_1_opaque_ptr_1(%rip)
	movq	_TIG_iO_wG6b_1_pali_1_opaque_ptr_1(%rip), %rax
	movq	%rax, _TIG_iO_wG6b_1_pali_1_opaque_ptr_2(%rip)
	movq	_TIG_iO_wG6b_1_pali_1_opaque_ptr_2(%rip), %rax
	movq	8(%rax), %rax
	movq	%rax, _TIG_iO_wG6b_1_pali_1_opaque_ptr_2(%rip)
	nop
	nop
	movl	$1, -40(%rbp)
	movl	top(%rip), %eax
	movl	%eax, i(%rip)
	jmp	.L41
.L42:
	movl	k(%rip), %eax
	movl	%eax, -36(%rbp)
	movl	k(%rip), %eax
	addl	$1, %eax
	movl	%eax, k(%rip)
	movl	i(%rip), %eax
	cltq
	leaq	0(,%rax,4), %rdx
	leaq	stack(%rip), %rax
	movl	(%rdx,%rax), %eax
	movl	-36(%rbp), %edx
	movslq	%edx, %rdx
	leaq	0(,%rdx,4), %rcx
	leaq	rev(%rip), %rdx
	movl	%eax, (%rcx,%rdx)
	movl	i(%rip), %eax
	subl	$1, %eax
	movl	%eax, i(%rip)
.L41:
	movl	i(%rip), %eax
	testl	%eax, %eax
	jns	.L42
	movl	top(%rip), %eax
	movl	%eax, i(%rip)
	movq	_TIG_iO_wG6b_1_push_1_opaque_ptr_1(%rip), %rdx
	movq	_TIG_iO_wG6b_1_push_1_opaque_ptr_2(%rip), %rax
	cmpq	%rax, %rdx
	jne	.L48
.L47:
	nop
.L44:
	movl	i(%rip), %eax
	notl	%eax
	shrl	$31, %eax
	movzbl	%al, %eax
	cmpl	%eax, -40(%rbp)
	je	.L44
	movl	k(%rip), %eax
	subl	$1, %eax
	orl	-40(%rbp), %eax
	movl	%eax, k(%rip)
	jmp	.L45
.L46:
	movl	$0, -40(%rbp)
.L45:
	movl	i(%rip), %eax
	cltq
	leaq	0(,%rax,4), %rdx
	leaq	stack(%rip), %rax
	movl	(%rdx,%rax), %edx
	movl	k(%rip), %eax
	cltq
	leaq	0(,%rax,4), %rcx
	leaq	rev(%rip), %rax
	movl	(%rcx,%rax), %eax
	cmpl	%eax, %edx
	setne	%al
	movzbl	%al, %eax
	cmpl	%eax, -36(%rbp)
	jl	.L46
	movl	i(%rip), %eax
	leal	-1(%rax), %edx
	movl	-36(%rbp), %eax
	addl	%edx, %eax
	movl	%eax, i(%rip)
	jmp	.L47
.L50:
	movl	k(%rip), %eax
	subl	$1, %eax
	movl	%eax, k(%rip)
	movl	i(%rip), %eax
	cltq
	leaq	0(,%rax,4), %rdx
	leaq	stack(%rip), %rax
	movl	(%rdx,%rax), %edx
	movl	k(%rip), %eax
	cltq
	leaq	0(,%rax,4), %rcx
	leaq	rev(%rip), %rax
	movl	(%rcx,%rax), %eax
	cmpl	%eax, %edx
	je	.L49
	movl	$0, -40(%rbp)
.L49:
	movl	i(%rip), %eax
	subl	$1, %eax
	movl	%eax, i(%rip)
.L48:
	movl	i(%rip), %eax
	testl	%eax, %eax
	jns	.L50
	movl	-40(%rbp), %eax
	leave
	.cfi_def_cfa 7, 8
	ret
	.cfi_endproc
.LFE5:
	.size	pali, .-pali
	.section	.rodata
.LC11:
	.string	"Stack overflow"
.LC12:
	.string	"Enter the number to be pushed"
	.text
	.globl	push
	.type	push, @function
push:
.LFB6:
	.cfi_startproc
	endbr64
	pushq	%rbp
	.cfi_def_cfa_offset 16
	.cfi_offset 6, -16
	movq	%rsp, %rbp
	.cfi_def_cfa_register 6
	subq	$48, %rsp
#APP
# 113 "AkshayaShankariB_DSA_3.c" 1
	##_ANNOTATION_INITIALREGION_-TIG-iO-wG6b-1-push--22
# 0 "" 2
# 117 "AkshayaShankariB_DSA_3.c" 1
	##_ANNOTATION_ATOMICREGION_-TIG-iO-wG6b-1-push--21
# 0 "" 2
#NO_APP
	movl	$24, %edi
	call	malloc@PLT
	movq	%rax, -32(%rbp)
	movq	-32(%rbp), %rax
	movq	-32(%rbp), %rdx
	movq	%rdx, (%rax)
	movq	-32(%rbp), %rax
	movq	-32(%rbp), %rdx
	movq	%rdx, 16(%rax)
	movq	-32(%rbp), %rax
	movq	%rax, _TIG_iO_wG6b_1_push_1_opaque_list_1(%rip)
	call	rand@PLT
	movl	%eax, -44(%rbp)
	movl	$24, %edi
	call	malloc@PLT
	movq	%rax, -24(%rbp)
	movq	-24(%rbp), %rax
	movl	$0, 8(%rax)
	movq	_TIG_iO_wG6b_1_push_1_opaque_list_1(%rip), %rax
	movq	(%rax), %rdx
	movq	-24(%rbp), %rax
	movq	%rdx, (%rax)
	movq	_TIG_iO_wG6b_1_push_1_opaque_list_1(%rip), %rdx
	movq	-24(%rbp), %rax
	movq	%rdx, 16(%rax)
	movq	_TIG_iO_wG6b_1_push_1_opaque_list_1(%rip), %rax
	movq	(%rax), %rax
	movq	-24(%rbp), %rdx
	movq	%rdx, 16(%rax)
	movq	_TIG_iO_wG6b_1_push_1_opaque_list_1(%rip), %rax
	movq	-24(%rbp), %rdx
	movq	%rdx, (%rax)
	call	rand@PLT
	movl	%eax, -40(%rbp)
	movl	$24, %edi
	call	malloc@PLT
	movq	%rax, -16(%rbp)
	movq	-16(%rbp), %rax
	movl	-40(%rbp), %edx
	movl	%edx, 8(%rax)
	movq	_TIG_iO_wG6b_1_push_1_opaque_list_1(%rip), %rax
	movq	(%rax), %rdx
	movq	-16(%rbp), %rax
	movq	%rdx, (%rax)
	movq	_TIG_iO_wG6b_1_push_1_opaque_list_1(%rip), %rdx
	movq	-16(%rbp), %rax
	movq	%rdx, 16(%rax)
	movq	_TIG_iO_wG6b_1_push_1_opaque_list_1(%rip), %rax
	movq	(%rax), %rax
	movq	-16(%rbp), %rdx
	movq	%rdx, 16(%rax)
	movq	_TIG_iO_wG6b_1_push_1_opaque_list_1(%rip), %rax
	movq	-16(%rbp), %rdx
	movq	%rdx, (%rax)
	call	rand@PLT
	movl	%eax, -36(%rbp)
	movl	$24, %edi
	call	malloc@PLT
	movq	%rax, -8(%rbp)
	movl	-36(%rbp), %eax
	leal	(%rax,%rax), %edx
	movq	-8(%rbp), %rax
	movl	%edx, 8(%rax)
	movq	_TIG_iO_wG6b_1_push_1_opaque_list_1(%rip), %rax
	movq	(%rax), %rdx
	movq	-8(%rbp), %rax
	movq	%rdx, (%rax)
	movq	_TIG_iO_wG6b_1_push_1_opaque_list_1(%rip), %rdx
	movq	-8(%rbp), %rax
	movq	%rdx, 16(%rax)
	movq	_TIG_iO_wG6b_1_push_1_opaque_list_1(%rip), %rax
	movq	(%rax), %rax
	movq	-8(%rbp), %rdx
	movq	%rdx, 16(%rax)
	movq	_TIG_iO_wG6b_1_push_1_opaque_list_1(%rip), %rax
	movq	-8(%rbp), %rdx
	movq	%rdx, (%rax)
	movq	_TIG_iO_wG6b_1_push_1_opaque_list_1(%rip), %rax
	movq	(%rax), %rax
	movq	%rax, _TIG_iO_wG6b_1_push_1_opaque_ptr_1(%rip)
	movq	_TIG_iO_wG6b_1_push_1_opaque_ptr_1(%rip), %rax
	movq	%rax, _TIG_iO_wG6b_1_push_1_opaque_ptr_2(%rip)
	movq	_TIG_iO_wG6b_1_push_1_opaque_ptr_2(%rip), %rax
	movq	(%rax), %rax
	movq	%rax, _TIG_iO_wG6b_1_push_1_opaque_ptr_2(%rip)
	nop
	nop
	movl	size(%rip), %eax
	leal	-1(%rax), %edx
	movl	top(%rip), %eax
	cmpl	%eax, %edx
	jne	.L53
	leaq	.LC11(%rip), %rax
	movq	%rax, %rdi
	call	puts@PLT
	jmp	.L52
.L53:
	movq	_TIG_iO_wG6b_1_push_1_opaque_ptr_1(%rip), %rdx
	movq	_TIG_iO_wG6b_1_push_1_opaque_ptr_2(%rip), %rax
	cmpq	%rax, %rdx
	jne	.L55
#APP
# 47 "AkshayaShankariB_DSA_3.c" 1
	.byte 0x68,0x74,0x8,0x40,0x30
# 0 "" 2
#NO_APP
	jmp	.L52
.L55:
	leaq	.LC12(%rip), %rax
	movq	%rax, %rdi
	call	puts@PLT
	leaq	num(%rip), %rax
	movq	%rax, %rsi
	leaq	.LC4(%rip), %rax
	movq	%rax, %rdi
	movl	$0, %eax
	call	__isoc99_scanf@PLT
	movl	top(%rip), %eax
	addl	$1, %eax
	movl	%eax, top(%rip)
	movl	top(%rip), %edx
	movl	num(%rip), %eax
	movslq	%edx, %rdx
	leaq	0(,%rdx,4), %rcx
	leaq	stack(%rip), %rdx
	movl	%eax, (%rcx,%rdx)
	nop
.L52:
	leave
	.cfi_def_cfa 7, 8
	ret
	.cfi_endproc
.LFE6:
	.size	push, .-push
	.section	.rodata
.LC13:
	.string	"Stack underflow"
.LC14:
	.string	"Popped element is %d\n"
	.text
	.globl	pop
	.type	pop, @function
pop:
.LFB7:
	.cfi_startproc
	endbr64
	pushq	%rbp
	.cfi_def_cfa_offset 16
	.cfi_offset 6, -16
	movq	%rsp, %rbp
	.cfi_def_cfa_register 6
	subq	$32, %rsp
#APP
# 68 "AkshayaShankariB_DSA_3.c" 1
	##_ANNOTATION_INITIALREGION_-TIG-iO-wG6b-1-pop--20
# 0 "" 2
# 72 "AkshayaShankariB_DSA_3.c" 1
	##_ANNOTATION_ATOMICREGION_-TIG-iO-wG6b-1-pop--19
# 0 "" 2
#NO_APP
	movl	$24, %edi
	call	malloc@PLT
	movq	%rax, -24(%rbp)
	movq	-24(%rbp), %rax
	movq	-24(%rbp), %rdx
	movq	%rdx, 8(%rax)
	movq	-24(%rbp), %rax
	movq	-24(%rbp), %rdx
	movq	%rdx, 16(%rax)
	movq	-24(%rbp), %rax
	movq	%rax, _TIG_iO_wG6b_1_pop_1_opaque_list_1(%rip)
	call	rand@PLT
	movl	%eax, -32(%rbp)
	movl	$24, %edi
	call	malloc@PLT
	movq	%rax, -16(%rbp)
	movq	-16(%rbp), %rax
	movl	$0, (%rax)
	movq	_TIG_iO_wG6b_1_pop_1_opaque_list_1(%rip), %rax
	movq	8(%rax), %rdx
	movq	-16(%rbp), %rax
	movq	%rdx, 8(%rax)
	movq	_TIG_iO_wG6b_1_pop_1_opaque_list_1(%rip), %rdx
	movq	-16(%rbp), %rax
	movq	%rdx, 16(%rax)
	movq	_TIG_iO_wG6b_1_pop_1_opaque_list_1(%rip), %rax
	movq	8(%rax), %rax
	movq	-16(%rbp), %rdx
	movq	%rdx, 16(%rax)
	movq	_TIG_iO_wG6b_1_pop_1_opaque_list_1(%rip), %rax
	movq	-16(%rbp), %rdx
	movq	%rdx, 8(%rax)
	call	rand@PLT
	movl	%eax, -28(%rbp)
	movl	$24, %edi
	call	malloc@PLT
	movq	%rax, -8(%rbp)
	movq	-8(%rbp), %rax
	movl	-28(%rbp), %edx
	movl	%edx, (%rax)
	movq	_TIG_iO_wG6b_1_pop_1_opaque_list_1(%rip), %rax
	movq	8(%rax), %rdx
	movq	-8(%rbp), %rax
	movq	%rdx, 8(%rax)
	movq	_TIG_iO_wG6b_1_pop_1_opaque_list_1(%rip), %rdx
	movq	-8(%rbp), %rax
	movq	%rdx, 16(%rax)
	movq	_TIG_iO_wG6b_1_pop_1_opaque_list_1(%rip), %rax
	movq	8(%rax), %rax
	movq	-8(%rbp), %rdx
	movq	%rdx, 16(%rax)
	movq	_TIG_iO_wG6b_1_pop_1_opaque_list_1(%rip), %rax
	movq	-8(%rbp), %rdx
	movq	%rdx, 8(%rax)
	movq	_TIG_iO_wG6b_1_pop_1_opaque_list_1(%rip), %rax
	movq	8(%rax), %rax
	movq	%rax, _TIG_iO_wG6b_1_pop_1_opaque_ptr_1(%rip)
	movq	_TIG_iO_wG6b_1_pop_1_opaque_ptr_1(%rip), %rax
	movq	%rax, _TIG_iO_wG6b_1_pop_1_opaque_ptr_2(%rip)
	nop
	nop
	movl	top(%rip), %eax
	cmpl	$-1, %eax
	jne	.L58
	leaq	.LC13(%rip), %rax
	movq	%rax, %rdi
	call	puts@PLT
	jmp	.L57
.L58:
	movq	_TIG_iO_wG6b_1_push_1_opaque_ptr_1(%rip), %rdx
	movq	_TIG_iO_wG6b_1_push_1_opaque_ptr_2(%rip), %rax
	cmpq	%rax, %rdx
	jne	.L60
	movl	top(%rip), %eax
	cltq
	leaq	0(,%rax,4), %rdx
	leaq	stack(%rip), %rax
	movl	(%rdx,%rax), %eax
	subl	-32(%rbp), %eax
	movl	%eax, num(%rip)
	leaq	1+.LC14(%rip), %rdx
	movl	-28(%rbp), %eax
	movl	%eax, %esi
	movq	%rdx, %rdi
	movl	$0, %eax
	call	printf@PLT
	movl	-28(%rbp), %eax
	movl	%eax, top(%rip)
	jmp	.L57
.L60:
	movl	top(%rip), %eax
	cltq
	leaq	0(,%rax,4), %rdx
	leaq	stack(%rip), %rax
	movl	(%rdx,%rax), %eax
	movl	%eax, num(%rip)
	movl	num(%rip), %eax
	movl	%eax, %esi
	leaq	.LC14(%rip), %rax
	movq	%rax, %rdi
	movl	$0, %eax
	call	printf@PLT
	movl	top(%rip), %eax
	subl	$1, %eax
	movl	%eax, top(%rip)
	nop
.L57:
	leave
	.cfi_def_cfa 7, 8
	ret
	.cfi_endproc
.LFE7:
	.size	pop, .-pop
	.ident	"GCC: (Ubuntu 11.4.0-1ubuntu1~22.04) 11.4.0"
	.section	.note.GNU-stack,"",@progbits
	.section	.note.gnu.property,"a"
	.align 8
	.long	1f - 0f
	.long	4f - 1f
	.long	5
0:
	.string	"GNU"
1:
	.align 8
	.long	0xc0000002
	.long	3f - 2f
2:
	.long	0x3
3:
	.align 8
4:
