	.file	"alxbl_montrehack-rop101_1_opaque.c"
	.text
	.globl	_TIG_iO_Z3TR_1___bswap_16_1_opaque_ptr_1
	.bss
	.align 8
	.type	_TIG_iO_Z3TR_1___bswap_16_1_opaque_ptr_1, @object
	.size	_TIG_iO_Z3TR_1___bswap_16_1_opaque_ptr_1, 8
_TIG_iO_Z3TR_1___bswap_16_1_opaque_ptr_1:
	.zero	8
	.globl	_TIG_iO_Z3TR_1___bswap_32_1_opaque_ptr_1
	.align 8
	.type	_TIG_iO_Z3TR_1___bswap_32_1_opaque_ptr_1, @object
	.size	_TIG_iO_Z3TR_1___bswap_32_1_opaque_ptr_1, 8
_TIG_iO_Z3TR_1___bswap_32_1_opaque_ptr_1:
	.zero	8
	.globl	_TIG_iO_Z3TR_1_clean_stdin_1_opaque_ptr_1
	.align 8
	.type	_TIG_iO_Z3TR_1_clean_stdin_1_opaque_ptr_1, @object
	.size	_TIG_iO_Z3TR_1_clean_stdin_1_opaque_ptr_1, 8
_TIG_iO_Z3TR_1_clean_stdin_1_opaque_ptr_1:
	.zero	8
	.globl	_TIG_iO_Z3TR_1___bswap_32_1_opaque_ptr_2
	.align 8
	.type	_TIG_iO_Z3TR_1___bswap_32_1_opaque_ptr_2, @object
	.size	_TIG_iO_Z3TR_1___bswap_32_1_opaque_ptr_2, 8
_TIG_iO_Z3TR_1___bswap_32_1_opaque_ptr_2:
	.zero	8
	.globl	_TIG_iO_Z3TR_1___uint64_identity_1_opaque_ptr_1
	.align 8
	.type	_TIG_iO_Z3TR_1___uint64_identity_1_opaque_ptr_1, @object
	.size	_TIG_iO_Z3TR_1___uint64_identity_1_opaque_ptr_1, 8
_TIG_iO_Z3TR_1___uint64_identity_1_opaque_ptr_1:
	.zero	8
	.globl	_TIG_iO_Z3TR_1___uint64_identity_1_opaque_ptr_2
	.align 8
	.type	_TIG_iO_Z3TR_1___uint64_identity_1_opaque_ptr_2, @object
	.size	_TIG_iO_Z3TR_1___uint64_identity_1_opaque_ptr_2, 8
_TIG_iO_Z3TR_1___uint64_identity_1_opaque_ptr_2:
	.zero	8
	.globl	_TIG_IZ_Z3TR_envp
	.align 8
	.type	_TIG_IZ_Z3TR_envp, @object
	.size	_TIG_IZ_Z3TR_envp, 8
_TIG_IZ_Z3TR_envp:
	.zero	8
	.globl	_TIG_iO_Z3TR_1___uint16_identity_1_opaque_ptr_1
	.align 8
	.type	_TIG_iO_Z3TR_1___uint16_identity_1_opaque_ptr_1, @object
	.size	_TIG_iO_Z3TR_1___uint16_identity_1_opaque_ptr_1, 8
_TIG_iO_Z3TR_1___uint16_identity_1_opaque_ptr_1:
	.zero	8
	.globl	_TIG_iO_Z3TR_1___bswap_16_1_opaque_ptr_2
	.align 8
	.type	_TIG_iO_Z3TR_1___bswap_16_1_opaque_ptr_2, @object
	.size	_TIG_iO_Z3TR_1___bswap_16_1_opaque_ptr_2, 8
_TIG_iO_Z3TR_1___bswap_16_1_opaque_ptr_2:
	.zero	8
	.globl	_TIG_iO_Z3TR_1_getnum_1_opaque_list_2
	.align 8
	.type	_TIG_iO_Z3TR_1_getnum_1_opaque_list_2, @object
	.size	_TIG_iO_Z3TR_1_getnum_1_opaque_list_2, 8
_TIG_iO_Z3TR_1_getnum_1_opaque_list_2:
	.zero	8
	.globl	_TIG_iO_Z3TR_1_read_motd_1_opaque_ptr_1
	.align 8
	.type	_TIG_iO_Z3TR_1_read_motd_1_opaque_ptr_1, @object
	.size	_TIG_iO_Z3TR_1_read_motd_1_opaque_ptr_1, 8
_TIG_iO_Z3TR_1_read_motd_1_opaque_ptr_1:
	.zero	8
	.globl	_TIG_iO_Z3TR_1_getnum_1_opaque_ptr_1
	.align 8
	.type	_TIG_iO_Z3TR_1_getnum_1_opaque_ptr_1, @object
	.size	_TIG_iO_Z3TR_1_getnum_1_opaque_ptr_1, 8
_TIG_iO_Z3TR_1_getnum_1_opaque_ptr_1:
	.zero	8
	.globl	_TIG_iO_Z3TR_1_read_motd_1_opaque_list_1
	.align 8
	.type	_TIG_iO_Z3TR_1_read_motd_1_opaque_list_1, @object
	.size	_TIG_iO_Z3TR_1_read_motd_1_opaque_list_1, 8
_TIG_iO_Z3TR_1_read_motd_1_opaque_list_1:
	.zero	8
	.globl	_TIG_IZ_Z3TR_argc
	.align 4
	.type	_TIG_IZ_Z3TR_argc, @object
	.size	_TIG_IZ_Z3TR_argc, 4
_TIG_IZ_Z3TR_argc:
	.zero	4
	.globl	_TIG_iO_Z3TR_1___uint32_identity_1_opaque_list_2
	.align 8
	.type	_TIG_iO_Z3TR_1___uint32_identity_1_opaque_list_2, @object
	.size	_TIG_iO_Z3TR_1___uint32_identity_1_opaque_list_2, 8
_TIG_iO_Z3TR_1___uint32_identity_1_opaque_list_2:
	.zero	8
	.globl	_TIG_iO_Z3TR_1_getnum_1_opaque_ptr_2
	.align 8
	.type	_TIG_iO_Z3TR_1_getnum_1_opaque_ptr_2, @object
	.size	_TIG_iO_Z3TR_1_getnum_1_opaque_ptr_2, 8
_TIG_iO_Z3TR_1_getnum_1_opaque_ptr_2:
	.zero	8
	.globl	_TIG_iO_Z3TR_1___uint64_identity_1_opaque_list_1
	.align 8
	.type	_TIG_iO_Z3TR_1___uint64_identity_1_opaque_list_1, @object
	.size	_TIG_iO_Z3TR_1___uint64_identity_1_opaque_list_1, 8
_TIG_iO_Z3TR_1___uint64_identity_1_opaque_list_1:
	.zero	8
	.globl	_TIG_IZ_Z3TR_argv
	.align 8
	.type	_TIG_IZ_Z3TR_argv, @object
	.size	_TIG_IZ_Z3TR_argv, 8
_TIG_IZ_Z3TR_argv:
	.zero	8
	.globl	_TIG_iO_Z3TR_1_clean_stdin_1_opaque_list_1
	.align 8
	.type	_TIG_iO_Z3TR_1_clean_stdin_1_opaque_list_1, @object
	.size	_TIG_iO_Z3TR_1_clean_stdin_1_opaque_list_1, 8
_TIG_iO_Z3TR_1_clean_stdin_1_opaque_list_1:
	.zero	8
	.globl	done
	.align 4
	.type	done, @object
	.size	done, 4
done:
	.zero	4
	.globl	_TIG_iO_Z3TR_1___bswap_32_1_opaque_list_2
	.align 8
	.type	_TIG_iO_Z3TR_1___bswap_32_1_opaque_list_2, @object
	.size	_TIG_iO_Z3TR_1___bswap_32_1_opaque_list_2, 8
_TIG_iO_Z3TR_1___bswap_32_1_opaque_list_2:
	.zero	8
	.globl	_TIG_iO_Z3TR_1_main_1_opaque_list_2
	.align 8
	.type	_TIG_iO_Z3TR_1_main_1_opaque_list_2, @object
	.size	_TIG_iO_Z3TR_1_main_1_opaque_list_2, 8
_TIG_iO_Z3TR_1_main_1_opaque_list_2:
	.zero	8
	.globl	_TIG_iO_Z3TR_1_clean_stdin_1_opaque_list_2
	.align 8
	.type	_TIG_iO_Z3TR_1_clean_stdin_1_opaque_list_2, @object
	.size	_TIG_iO_Z3TR_1_clean_stdin_1_opaque_list_2, 8
_TIG_iO_Z3TR_1_clean_stdin_1_opaque_list_2:
	.zero	8
	.globl	_TIG_iO_Z3TR_1___uint64_identity_1_opaque_list_2
	.align 8
	.type	_TIG_iO_Z3TR_1___uint64_identity_1_opaque_list_2, @object
	.size	_TIG_iO_Z3TR_1___uint64_identity_1_opaque_list_2, 8
_TIG_iO_Z3TR_1___uint64_identity_1_opaque_list_2:
	.zero	8
	.globl	_TIG_iO_Z3TR_1_main_1_opaque_ptr_1
	.align 8
	.type	_TIG_iO_Z3TR_1_main_1_opaque_ptr_1, @object
	.size	_TIG_iO_Z3TR_1_main_1_opaque_ptr_1, 8
_TIG_iO_Z3TR_1_main_1_opaque_ptr_1:
	.zero	8
	.globl	_TIG_iO_Z3TR_1___uint16_identity_1_opaque_list_2
	.align 8
	.type	_TIG_iO_Z3TR_1___uint16_identity_1_opaque_list_2, @object
	.size	_TIG_iO_Z3TR_1___uint16_identity_1_opaque_list_2, 8
_TIG_iO_Z3TR_1___uint16_identity_1_opaque_list_2:
	.zero	8
	.globl	motd
	.align 32
	.type	motd, @object
	.size	motd, 256
motd:
	.zero	256
	.globl	_TIG_iO_Z3TR_1_clean_stdin_1_opaque_ptr_2
	.align 8
	.type	_TIG_iO_Z3TR_1_clean_stdin_1_opaque_ptr_2, @object
	.size	_TIG_iO_Z3TR_1_clean_stdin_1_opaque_ptr_2, 8
_TIG_iO_Z3TR_1_clean_stdin_1_opaque_ptr_2:
	.zero	8
	.globl	_TIG_iO_Z3TR_1___bswap_16_1_opaque_list_1
	.align 8
	.type	_TIG_iO_Z3TR_1___bswap_16_1_opaque_list_1, @object
	.size	_TIG_iO_Z3TR_1___bswap_16_1_opaque_list_1, 8
_TIG_iO_Z3TR_1___bswap_16_1_opaque_list_1:
	.zero	8
	.globl	_TIG_iO_Z3TR_1_main_1_opaque_ptr_2
	.align 8
	.type	_TIG_iO_Z3TR_1_main_1_opaque_ptr_2, @object
	.size	_TIG_iO_Z3TR_1_main_1_opaque_ptr_2, 8
_TIG_iO_Z3TR_1_main_1_opaque_ptr_2:
	.zero	8
	.globl	_TIG_iO_Z3TR_1_main_1_opaque_list_1
	.align 8
	.type	_TIG_iO_Z3TR_1_main_1_opaque_list_1, @object
	.size	_TIG_iO_Z3TR_1_main_1_opaque_list_1, 8
_TIG_iO_Z3TR_1_main_1_opaque_list_1:
	.zero	8
	.globl	_TIG_iO_Z3TR_1___bswap_32_1_opaque_list_1
	.align 8
	.type	_TIG_iO_Z3TR_1___bswap_32_1_opaque_list_1, @object
	.size	_TIG_iO_Z3TR_1___bswap_32_1_opaque_list_1, 8
_TIG_iO_Z3TR_1___bswap_32_1_opaque_list_1:
	.zero	8
	.globl	_TIG_iO_Z3TR_1___uint16_identity_1_opaque_ptr_2
	.align 8
	.type	_TIG_iO_Z3TR_1___uint16_identity_1_opaque_ptr_2, @object
	.size	_TIG_iO_Z3TR_1___uint16_identity_1_opaque_ptr_2, 8
_TIG_iO_Z3TR_1___uint16_identity_1_opaque_ptr_2:
	.zero	8
	.globl	_TIG_iO_Z3TR_1___bswap_64_1_opaque_ptr_1
	.align 8
	.type	_TIG_iO_Z3TR_1___bswap_64_1_opaque_ptr_1, @object
	.size	_TIG_iO_Z3TR_1___bswap_64_1_opaque_ptr_1, 8
_TIG_iO_Z3TR_1___bswap_64_1_opaque_ptr_1:
	.zero	8
	.globl	_TIG_iO_Z3TR_1___bswap_64_1_opaque_list_1
	.align 8
	.type	_TIG_iO_Z3TR_1___bswap_64_1_opaque_list_1, @object
	.size	_TIG_iO_Z3TR_1___bswap_64_1_opaque_list_1, 8
_TIG_iO_Z3TR_1___bswap_64_1_opaque_list_1:
	.zero	8
	.globl	_TIG_iO_Z3TR_1_read_motd_1_opaque_list_2
	.align 8
	.type	_TIG_iO_Z3TR_1_read_motd_1_opaque_list_2, @object
	.size	_TIG_iO_Z3TR_1_read_motd_1_opaque_list_2, 8
_TIG_iO_Z3TR_1_read_motd_1_opaque_list_2:
	.zero	8
	.globl	_TIG_iO_Z3TR_1___bswap_64_1_opaque_ptr_2
	.align 8
	.type	_TIG_iO_Z3TR_1___bswap_64_1_opaque_ptr_2, @object
	.size	_TIG_iO_Z3TR_1___bswap_64_1_opaque_ptr_2, 8
_TIG_iO_Z3TR_1___bswap_64_1_opaque_ptr_2:
	.zero	8
	.globl	_TIG_iO_Z3TR_1_read_motd_1_opaque_ptr_2
	.align 8
	.type	_TIG_iO_Z3TR_1_read_motd_1_opaque_ptr_2, @object
	.size	_TIG_iO_Z3TR_1_read_motd_1_opaque_ptr_2, 8
_TIG_iO_Z3TR_1_read_motd_1_opaque_ptr_2:
	.zero	8
	.globl	_TIG_iO_Z3TR_1___bswap_64_1_opaque_list_2
	.align 8
	.type	_TIG_iO_Z3TR_1___bswap_64_1_opaque_list_2, @object
	.size	_TIG_iO_Z3TR_1___bswap_64_1_opaque_list_2, 8
_TIG_iO_Z3TR_1___bswap_64_1_opaque_list_2:
	.zero	8
	.globl	_TIG_iO_Z3TR_1___uint32_identity_1_opaque_ptr_2
	.align 8
	.type	_TIG_iO_Z3TR_1___uint32_identity_1_opaque_ptr_2, @object
	.size	_TIG_iO_Z3TR_1___uint32_identity_1_opaque_ptr_2, 8
_TIG_iO_Z3TR_1___uint32_identity_1_opaque_ptr_2:
	.zero	8
	.globl	_TIG_iO_Z3TR_1___bswap_16_1_opaque_list_2
	.align 8
	.type	_TIG_iO_Z3TR_1___bswap_16_1_opaque_list_2, @object
	.size	_TIG_iO_Z3TR_1___bswap_16_1_opaque_list_2, 8
_TIG_iO_Z3TR_1___bswap_16_1_opaque_list_2:
	.zero	8
	.globl	_TIG_iO_Z3TR_1_getnum_1_opaque_list_1
	.align 8
	.type	_TIG_iO_Z3TR_1_getnum_1_opaque_list_1, @object
	.size	_TIG_iO_Z3TR_1_getnum_1_opaque_list_1, 8
_TIG_iO_Z3TR_1_getnum_1_opaque_list_1:
	.zero	8
	.globl	_TIG_iO_Z3TR_1___uint16_identity_1_opaque_list_1
	.align 8
	.type	_TIG_iO_Z3TR_1___uint16_identity_1_opaque_list_1, @object
	.size	_TIG_iO_Z3TR_1___uint16_identity_1_opaque_list_1, 8
_TIG_iO_Z3TR_1___uint16_identity_1_opaque_list_1:
	.zero	8
	.globl	_TIG_iO_Z3TR_1___uint32_identity_1_opaque_ptr_1
	.align 8
	.type	_TIG_iO_Z3TR_1___uint32_identity_1_opaque_ptr_1, @object
	.size	_TIG_iO_Z3TR_1___uint32_identity_1_opaque_ptr_1, 8
_TIG_iO_Z3TR_1___uint32_identity_1_opaque_ptr_1:
	.zero	8
	.globl	_TIG_iO_Z3TR_1___uint32_identity_1_opaque_list_1
	.align 8
	.type	_TIG_iO_Z3TR_1___uint32_identity_1_opaque_list_1, @object
	.size	_TIG_iO_Z3TR_1___uint32_identity_1_opaque_list_1, 8
_TIG_iO_Z3TR_1___uint32_identity_1_opaque_list_1:
	.zero	8
	.section	.rodata
	.align 8
.LC0:
	.string	"Type in the new message of the day please:\n> "
	.text
	.globl	read_motd
	.type	read_motd, @function
read_motd:
.LFB1:
	.cfi_startproc
	endbr64
	pushq	%rbp
	.cfi_def_cfa_offset 16
	.cfi_offset 6, -16
	movq	%rsp, %rbp
	.cfi_def_cfa_register 6
	pushq	%rbx
	subq	$344, %rsp
	.cfi_offset 3, -24
	movq	%rdi, -344(%rbp)
	movq	%fs:40, %rax
	movq	%rax, -24(%rbp)
	xorl	%eax, %eax
#APP
# 55 "/usr/include/x86_64-linux-gnu/bits/uintn-identity.h" 1
	##_ANNOTATION_INITIALREGION_-TIG-iO-Z3TR-1-read-motd--20
# 0 "" 2
# 59 "/usr/include/x86_64-linux-gnu/bits/uintn-identity.h" 1
	##_ANNOTATION_ATOMICREGION_-TIG-iO-Z3TR-1-read-motd--19
# 0 "" 2
#NO_APP
	movl	$24, %edi
	call	malloc@PLT
	movq	%rax, -312(%rbp)
	movq	-312(%rbp), %rax
	movq	-312(%rbp), %rdx
	movq	%rdx, 8(%rax)
	movq	-312(%rbp), %rax
	movq	-312(%rbp), %rdx
	movq	%rdx, 16(%rax)
	movq	-312(%rbp), %rax
	movq	%rax, _TIG_iO_Z3TR_1_read_motd_1_opaque_list_1(%rip)
	call	rand@PLT
	movl	%eax, -320(%rbp)
	movl	$24, %edi
	call	malloc@PLT
	movq	%rax, -304(%rbp)
	movq	-304(%rbp), %rax
	movl	$0, (%rax)
	movq	_TIG_iO_Z3TR_1_read_motd_1_opaque_list_1(%rip), %rax
	movq	8(%rax), %rdx
	movq	-304(%rbp), %rax
	movq	%rdx, 8(%rax)
	movq	_TIG_iO_Z3TR_1_read_motd_1_opaque_list_1(%rip), %rdx
	movq	-304(%rbp), %rax
	movq	%rdx, 16(%rax)
	movq	_TIG_iO_Z3TR_1_read_motd_1_opaque_list_1(%rip), %rax
	movq	8(%rax), %rax
	movq	-304(%rbp), %rdx
	movq	%rdx, 16(%rax)
	movq	_TIG_iO_Z3TR_1_read_motd_1_opaque_list_1(%rip), %rax
	movq	-304(%rbp), %rdx
	movq	%rdx, 8(%rax)
	call	rand@PLT
	movl	%eax, -316(%rbp)
	movl	$24, %edi
	call	malloc@PLT
	movq	%rax, -296(%rbp)
	movq	-296(%rbp), %rax
	movl	-316(%rbp), %edx
	movl	%edx, (%rax)
	movq	_TIG_iO_Z3TR_1_read_motd_1_opaque_list_1(%rip), %rax
	movq	8(%rax), %rdx
	movq	-296(%rbp), %rax
	movq	%rdx, 8(%rax)
	movq	_TIG_iO_Z3TR_1_read_motd_1_opaque_list_1(%rip), %rdx
	movq	-296(%rbp), %rax
	movq	%rdx, 16(%rax)
	movq	_TIG_iO_Z3TR_1_read_motd_1_opaque_list_1(%rip), %rax
	movq	8(%rax), %rax
	movq	-296(%rbp), %rdx
	movq	%rdx, 16(%rax)
	movq	_TIG_iO_Z3TR_1_read_motd_1_opaque_list_1(%rip), %rax
	movq	-296(%rbp), %rdx
	movq	%rdx, 8(%rax)
	movq	_TIG_iO_Z3TR_1_read_motd_1_opaque_list_1(%rip), %rax
	movq	8(%rax), %rax
	movq	%rax, _TIG_iO_Z3TR_1_read_motd_1_opaque_ptr_1(%rip)
	movq	_TIG_iO_Z3TR_1_read_motd_1_opaque_ptr_1(%rip), %rax
	movq	%rax, _TIG_iO_Z3TR_1_read_motd_1_opaque_ptr_2(%rip)
	nop
	nop
	leaq	.LC0(%rip), %rax
	movq	%rax, %rdi
	movl	$0, %eax
	call	printf@PLT
	movb	$0, -288(%rbp)
	movl	$1, -324(%rbp)
	jmp	.L2
.L3:
	movl	-324(%rbp), %eax
	movb	$0, -288(%rbp,%rax)
	addl	$1, -324(%rbp)
.L2:
	cmpl	$255, -324(%rbp)
	jbe	.L3
	leaq	-288(%rbp), %rax
	movq	%rax, %rdi
	movl	$0, %eax
	call	gets@PLT
	movq	-344(%rbp), %rax
	movq	-288(%rbp), %rcx
	movq	-280(%rbp), %rbx
	movq	%rcx, (%rax)
	movq	%rbx, 8(%rax)
	movq	-272(%rbp), %rcx
	movq	-264(%rbp), %rbx
	movq	%rcx, 16(%rax)
	movq	%rbx, 24(%rax)
	movq	-256(%rbp), %rcx
	movq	-248(%rbp), %rbx
	movq	%rcx, 32(%rax)
	movq	%rbx, 40(%rax)
	movq	-240(%rbp), %rcx
	movq	-232(%rbp), %rbx
	movq	%rcx, 48(%rax)
	movq	%rbx, 56(%rax)
	movq	-224(%rbp), %rcx
	movq	-216(%rbp), %rbx
	movq	%rcx, 64(%rax)
	movq	%rbx, 72(%rax)
	movq	-208(%rbp), %rcx
	movq	-200(%rbp), %rbx
	movq	%rcx, 80(%rax)
	movq	%rbx, 88(%rax)
	movq	-192(%rbp), %rcx
	movq	-184(%rbp), %rbx
	movq	%rcx, 96(%rax)
	movq	%rbx, 104(%rax)
	movq	-176(%rbp), %rcx
	movq	-168(%rbp), %rbx
	movq	%rcx, 112(%rax)
	movq	%rbx, 120(%rax)
	movq	-160(%rbp), %rcx
	movq	-152(%rbp), %rbx
	movq	%rcx, 128(%rax)
	movq	%rbx, 136(%rax)
	movq	-144(%rbp), %rcx
	movq	-136(%rbp), %rbx
	movq	%rcx, 144(%rax)
	movq	%rbx, 152(%rax)
	movq	-128(%rbp), %rcx
	movq	-120(%rbp), %rbx
	movq	%rcx, 160(%rax)
	movq	%rbx, 168(%rax)
	movq	-112(%rbp), %rcx
	movq	-104(%rbp), %rbx
	movq	%rcx, 176(%rax)
	movq	%rbx, 184(%rax)
	movq	-96(%rbp), %rcx
	movq	-88(%rbp), %rbx
	movq	%rcx, 192(%rax)
	movq	%rbx, 200(%rax)
	movq	-80(%rbp), %rcx
	movq	-72(%rbp), %rbx
	movq	%rcx, 208(%rax)
	movq	%rbx, 216(%rax)
	movq	-64(%rbp), %rcx
	movq	-56(%rbp), %rbx
	movq	%rcx, 224(%rax)
	movq	%rbx, 232(%rax)
	movq	-48(%rbp), %rcx
	movq	-40(%rbp), %rbx
	movq	%rcx, 240(%rax)
	movq	%rbx, 248(%rax)
	movq	_TIG_iO_Z3TR_1_read_motd_1_opaque_ptr_1(%rip), %rdx
	movq	_TIG_iO_Z3TR_1_read_motd_1_opaque_ptr_2(%rip), %rax
	cmpq	%rax, %rdx
	nop
	movq	-24(%rbp), %rax
	subq	%fs:40, %rax
	je	.L7
	call	__stack_chk_fail@PLT
.L7:
	movq	-8(%rbp), %rbx
	leave
	.cfi_def_cfa 7, 8
	ret
	.cfi_endproc
.LFE1:
	.size	read_motd, .-read_motd
	.section	.rodata
	.align 8
.LC1:
	.string	"motd daemon v0.1 (c) 2019 BetterSoft"
.LC2:
	.string	"date"
.LC3:
	.string	"=> How may I help you today?"
	.align 8
.LC4:
	.string	"    1 - View message of the day"
	.align 8
.LC5:
	.string	"    2 - Change message of the day"
.LC6:
	.string	"    3 - Exit"
.LC7:
	.string	"> "
	.align 8
.LC8:
	.string	"I don't recognize that option."
.LC9:
	.string	"Bye!"
	.text
	.globl	main
	.type	main, @function
main:
.LFB2:
	.cfi_startproc
	endbr64
	pushq	%rbp
	.cfi_def_cfa_offset 16
	.cfi_offset 6, -16
	movq	%rsp, %rbp
	.cfi_def_cfa_register 6
	subq	$80, %rsp
	movl	%edi, -52(%rbp)
	movq	%rsi, -64(%rbp)
	movq	%rdx, -72(%rbp)
	movl	$0, done(%rip)
	nop
.L9:
	movb	$62, motd(%rip)
	movb	$32, 1+motd(%rip)
	movb	$62, 2+motd(%rip)
	movb	$32, 3+motd(%rip)
	movb	$62, 4+motd(%rip)
	movb	$32, 5+motd(%rip)
	movb	$68, 6+motd(%rip)
	movb	$45, 7+motd(%rip)
	movb	$100, 8+motd(%rip)
	movb	$45, 9+motd(%rip)
	movb	$100, 10+motd(%rip)
	movb	$45, 11+motd(%rip)
	movb	$68, 12+motd(%rip)
	movb	$82, 13+motd(%rip)
	movb	$79, 14+motd(%rip)
	movb	$80, 15+motd(%rip)
	movb	$32, 16+motd(%rip)
	movb	$116, 17+motd(%rip)
	movb	$104, 18+motd(%rip)
	movb	$101, 19+motd(%rip)
	movb	$32, 20+motd(%rip)
	movb	$82, 21+motd(%rip)
	movb	$79, 22+motd(%rip)
	movb	$80, 23+motd(%rip)
	movb	$33, 24+motd(%rip)
	movb	$32, 25+motd(%rip)
	movb	$60, 26+motd(%rip)
	movb	$32, 27+motd(%rip)
	movb	$60, 28+motd(%rip)
	movb	$32, 29+motd(%rip)
	movb	$60, 30+motd(%rip)
	movb	$0, 31+motd(%rip)
	nop
.L10:
	movq	$0, _TIG_IZ_Z3TR_envp(%rip)
	nop
.L11:
	movq	$0, _TIG_IZ_Z3TR_argv(%rip)
	nop
.L12:
	movl	$0, _TIG_IZ_Z3TR_argc(%rip)
	nop
	nop
.L13:
.L14:
#APP
# 124 "alxbl_montrehack-rop101_1.c" 1
	##_ANNOTATION_INITIALREGION_-TIG-IZ-Z3TR--0
# 0 "" 2
#NO_APP
	movl	-52(%rbp), %eax
	movl	%eax, _TIG_IZ_Z3TR_argc(%rip)
	movq	-64(%rbp), %rax
	movq	%rax, _TIG_IZ_Z3TR_argv(%rip)
	movq	-72(%rbp), %rax
	movq	%rax, _TIG_IZ_Z3TR_envp(%rip)
#APP
# 131 "alxbl_montrehack-rop101_1.c" 1
	##_ANNOTATION_ATOMICREGION_-TIG-iO-Z3TR-1-main--17
# 0 "" 2
#NO_APP
	movl	$24, %edi
	call	malloc@PLT
	movq	%rax, -24(%rbp)
	movq	-24(%rbp), %rax
	movq	-24(%rbp), %rdx
	movq	%rdx, 8(%rax)
	movq	-24(%rbp), %rax
	movq	-24(%rbp), %rdx
	movq	%rdx, (%rax)
	movq	-24(%rbp), %rax
	movq	%rax, _TIG_iO_Z3TR_1_main_1_opaque_list_1(%rip)
	call	rand@PLT
	movl	%eax, -40(%rbp)
	movl	$24, %edi
	call	malloc@PLT
	movq	%rax, -16(%rbp)
	movq	-16(%rbp), %rax
	movl	$0, 16(%rax)
	movq	_TIG_iO_Z3TR_1_main_1_opaque_list_1(%rip), %rax
	movq	8(%rax), %rdx
	movq	-16(%rbp), %rax
	movq	%rdx, 8(%rax)
	movq	_TIG_iO_Z3TR_1_main_1_opaque_list_1(%rip), %rdx
	movq	-16(%rbp), %rax
	movq	%rdx, (%rax)
	movq	_TIG_iO_Z3TR_1_main_1_opaque_list_1(%rip), %rax
	movq	8(%rax), %rax
	movq	-16(%rbp), %rdx
	movq	%rdx, (%rax)
	movq	_TIG_iO_Z3TR_1_main_1_opaque_list_1(%rip), %rax
	movq	-16(%rbp), %rdx
	movq	%rdx, 8(%rax)
	call	rand@PLT
	movl	%eax, -36(%rbp)
	movl	$24, %edi
	call	malloc@PLT
	movq	%rax, -8(%rbp)
	movq	-8(%rbp), %rax
	movl	-36(%rbp), %edx
	movl	%edx, 16(%rax)
	movq	_TIG_iO_Z3TR_1_main_1_opaque_list_1(%rip), %rax
	movq	8(%rax), %rdx
	movq	-8(%rbp), %rax
	movq	%rdx, 8(%rax)
	movq	_TIG_iO_Z3TR_1_main_1_opaque_list_1(%rip), %rdx
	movq	-8(%rbp), %rax
	movq	%rdx, (%rax)
	movq	_TIG_iO_Z3TR_1_main_1_opaque_list_1(%rip), %rax
	movq	8(%rax), %rax
	movq	-8(%rbp), %rdx
	movq	%rdx, (%rax)
	movq	_TIG_iO_Z3TR_1_main_1_opaque_list_1(%rip), %rax
	movq	-8(%rbp), %rdx
	movq	%rdx, 8(%rax)
	movq	_TIG_iO_Z3TR_1_main_1_opaque_list_1(%rip), %rax
	movq	8(%rax), %rax
	movq	%rax, _TIG_iO_Z3TR_1_main_1_opaque_ptr_1(%rip)
	movq	_TIG_iO_Z3TR_1_main_1_opaque_ptr_1(%rip), %rax
	movq	%rax, _TIG_iO_Z3TR_1_main_1_opaque_ptr_2(%rip)
	movq	_TIG_iO_Z3TR_1_main_1_opaque_ptr_2(%rip), %rax
	movq	8(%rax), %rax
	movq	%rax, _TIG_iO_Z3TR_1_main_1_opaque_ptr_2(%rip)
	nop
	nop
	movq	stdout(%rip), %rax
	movl	$0, %ecx
	movl	$2, %edx
	movl	$0, %esi
	movq	%rax, %rdi
	call	setvbuf@PLT
	leaq	.LC1(%rip), %rax
	movq	%rax, %rdi
	call	puts@PLT
	movq	stdout(%rip), %rax
	movq	%rax, %rdi
	call	fflush@PLT
	leaq	.LC2(%rip), %rax
	movq	%rax, %rdi
	call	system@PLT
.L23:
	movq	_TIG_iO_Z3TR_1_read_motd_1_opaque_ptr_1(%rip), %rdx
	movq	_TIG_iO_Z3TR_1_read_motd_1_opaque_ptr_2(%rip), %rax
	cmpq	%rax, %rdx
	je	.L15
	movl	$0, %edi
	call	read_motd
.L15:
	movl	done(%rip), %eax
	testl	%eax, %eax
	jne	.L26
	movl	$10, %edi
	call	putchar@PLT
	leaq	.LC3(%rip), %rax
	movq	%rax, %rdi
	call	puts@PLT
	leaq	.LC4(%rip), %rax
	movq	%rax, %rdi
	call	puts@PLT
	leaq	.LC5(%rip), %rax
	movq	%rax, %rdi
	call	puts@PLT
	leaq	.LC6(%rip), %rax
	movq	%rax, %rdi
	call	puts@PLT
	leaq	.LC7(%rip), %rax
	movq	%rax, %rdi
	movl	$0, %eax
	call	printf@PLT
	call	getnum
	movl	%eax, -32(%rbp)
	movl	-32(%rbp), %eax
	movl	%eax, -28(%rbp)
	movl	$10, %edi
	call	putchar@PLT
	cmpl	$3, -28(%rbp)
	je	.L18
	cmpl	$3, -28(%rbp)
	jg	.L19
	cmpl	$1, -28(%rbp)
	je	.L20
	cmpl	$2, -28(%rbp)
	je	.L21
	jmp	.L19
.L20:
	leaq	motd(%rip), %rax
	movq	%rax, %rdi
	call	puts@PLT
	jmp	.L22
.L21:
	leaq	motd(%rip), %rax
	movq	%rax, %rdi
	call	read_motd
	jmp	.L22
.L18:
	movl	$1, done(%rip)
	jmp	.L22
.L19:
	leaq	.LC8(%rip), %rax
	movq	%rax, %rdi
	call	puts@PLT
	nop
.L22:
	jmp	.L23
.L26:
	nop
	leaq	.LC9(%rip), %rax
	movq	%rax, %rdi
	call	puts@PLT
	nop
	leave
	.cfi_def_cfa 7, 8
	ret
	.cfi_endproc
.LFE2:
	.size	main, .-main
	.globl	clean_stdin
	.type	clean_stdin, @function
clean_stdin:
.LFB6:
	.cfi_startproc
	endbr64
	pushq	%rbp
	.cfi_def_cfa_offset 16
	.cfi_offset 6, -16
	movq	%rsp, %rbp
	.cfi_def_cfa_register 6
	subq	$64, %rsp
#APP
# 75 "/usr/include/x86_64-linux-gnu/bits/byteswap.h" 1
	##_ANNOTATION_INITIALREGION_-TIG-iO-Z3TR-1-clean-stdin--14
# 0 "" 2
# 79 "/usr/include/x86_64-linux-gnu/bits/byteswap.h" 1
	##_ANNOTATION_ATOMICREGION_-TIG-iO-Z3TR-1-clean-stdin--13
# 0 "" 2
#NO_APP
	movl	$24, %edi
	call	malloc@PLT
	movq	%rax, -40(%rbp)
	movq	-40(%rbp), %rax
	movq	-40(%rbp), %rdx
	movq	%rdx, (%rax)
	movq	-40(%rbp), %rax
	movq	-40(%rbp), %rdx
	movq	%rdx, 8(%rax)
	movq	-40(%rbp), %rax
	movq	%rax, _TIG_iO_Z3TR_1_clean_stdin_1_opaque_list_1(%rip)
	call	rand@PLT
	movl	%eax, -60(%rbp)
	movl	$24, %edi
	call	malloc@PLT
	movq	%rax, -32(%rbp)
	movq	-32(%rbp), %rax
	movl	$0, 16(%rax)
	movq	_TIG_iO_Z3TR_1_clean_stdin_1_opaque_list_1(%rip), %rax
	movq	(%rax), %rdx
	movq	-32(%rbp), %rax
	movq	%rdx, (%rax)
	movq	_TIG_iO_Z3TR_1_clean_stdin_1_opaque_list_1(%rip), %rdx
	movq	-32(%rbp), %rax
	movq	%rdx, 8(%rax)
	movq	_TIG_iO_Z3TR_1_clean_stdin_1_opaque_list_1(%rip), %rax
	movq	(%rax), %rax
	movq	-32(%rbp), %rdx
	movq	%rdx, 8(%rax)
	movq	_TIG_iO_Z3TR_1_clean_stdin_1_opaque_list_1(%rip), %rax
	movq	-32(%rbp), %rdx
	movq	%rdx, (%rax)
	call	rand@PLT
	movl	%eax, -56(%rbp)
	movl	$24, %edi
	call	malloc@PLT
	movq	%rax, -24(%rbp)
	movq	-24(%rbp), %rax
	movl	-56(%rbp), %edx
	movl	%edx, 16(%rax)
	movq	_TIG_iO_Z3TR_1_clean_stdin_1_opaque_list_1(%rip), %rax
	movq	(%rax), %rdx
	movq	-24(%rbp), %rax
	movq	%rdx, (%rax)
	movq	_TIG_iO_Z3TR_1_clean_stdin_1_opaque_list_1(%rip), %rdx
	movq	-24(%rbp), %rax
	movq	%rdx, 8(%rax)
	movq	_TIG_iO_Z3TR_1_clean_stdin_1_opaque_list_1(%rip), %rax
	movq	(%rax), %rax
	movq	-24(%rbp), %rdx
	movq	%rdx, 8(%rax)
	movq	_TIG_iO_Z3TR_1_clean_stdin_1_opaque_list_1(%rip), %rax
	movq	-24(%rbp), %rdx
	movq	%rdx, (%rax)
	call	rand@PLT
	movl	%eax, -52(%rbp)
	movl	$24, %edi
	call	malloc@PLT
	movq	%rax, -16(%rbp)
	movl	-52(%rbp), %eax
	leal	(%rax,%rax), %edx
	movq	-16(%rbp), %rax
	movl	%edx, 16(%rax)
	movq	_TIG_iO_Z3TR_1_clean_stdin_1_opaque_list_1(%rip), %rax
	movq	(%rax), %rdx
	movq	-16(%rbp), %rax
	movq	%rdx, (%rax)
	movq	_TIG_iO_Z3TR_1_clean_stdin_1_opaque_list_1(%rip), %rdx
	movq	-16(%rbp), %rax
	movq	%rdx, 8(%rax)
	movq	_TIG_iO_Z3TR_1_clean_stdin_1_opaque_list_1(%rip), %rax
	movq	(%rax), %rax
	movq	-16(%rbp), %rdx
	movq	%rdx, 8(%rax)
	movq	_TIG_iO_Z3TR_1_clean_stdin_1_opaque_list_1(%rip), %rax
	movq	-16(%rbp), %rdx
	movq	%rdx, (%rax)
	call	rand@PLT
	movl	%eax, -48(%rbp)
	movl	$24, %edi
	call	malloc@PLT
	movq	%rax, -8(%rbp)
	movl	-48(%rbp), %edx
	movl	%edx, %eax
	addl	%eax, %eax
	addl	%eax, %edx
	movq	-8(%rbp), %rax
	movl	%edx, 16(%rax)
	movq	_TIG_iO_Z3TR_1_clean_stdin_1_opaque_list_1(%rip), %rax
	movq	(%rax), %rdx
	movq	-8(%rbp), %rax
	movq	%rdx, (%rax)
	movq	_TIG_iO_Z3TR_1_clean_stdin_1_opaque_list_1(%rip), %rdx
	movq	-8(%rbp), %rax
	movq	%rdx, 8(%rax)
	movq	_TIG_iO_Z3TR_1_clean_stdin_1_opaque_list_1(%rip), %rax
	movq	(%rax), %rax
	movq	-8(%rbp), %rdx
	movq	%rdx, 8(%rax)
	movq	_TIG_iO_Z3TR_1_clean_stdin_1_opaque_list_1(%rip), %rax
	movq	-8(%rbp), %rdx
	movq	%rdx, (%rax)
	movq	_TIG_iO_Z3TR_1_clean_stdin_1_opaque_list_1(%rip), %rax
	movq	(%rax), %rax
	movq	%rax, _TIG_iO_Z3TR_1_clean_stdin_1_opaque_ptr_1(%rip)
	movq	_TIG_iO_Z3TR_1_clean_stdin_1_opaque_ptr_1(%rip), %rax
	movq	%rax, _TIG_iO_Z3TR_1_clean_stdin_1_opaque_ptr_2(%rip)
	movq	_TIG_iO_Z3TR_1_clean_stdin_1_opaque_ptr_2(%rip), %rax
	movq	(%rax), %rax
	movq	%rax, _TIG_iO_Z3TR_1_clean_stdin_1_opaque_ptr_2(%rip)
	nop
	nop
.L32:
	call	getchar@PLT
	movl	%eax, -44(%rbp)
	movl	-44(%rbp), %eax
	movb	%al, -61(%rbp)
	cmpb	$10, -61(%rbp)
	je	.L35
	cmpb	$-1, -61(%rbp)
	jne	.L32
	movq	_TIG_iO_Z3TR_1_read_motd_1_opaque_ptr_1(%rip), %rdx
	movq	_TIG_iO_Z3TR_1_read_motd_1_opaque_ptr_2(%rip), %rax
	cmpq	%rax, %rdx
	jne	.L31
	movl	$1, %edi
	call	exit@PLT
.L31:
	movl	$0, %edi
	call	exit@PLT
.L35:
	nop
	nop
	leave
	.cfi_def_cfa 7, 8
	ret
	.cfi_endproc
.LFE6:
	.size	clean_stdin, .-clean_stdin
	.section	.rodata
.LC10:
	.string	"%d"
	.text
	.globl	getnum
	.type	getnum, @function
getnum:
.LFB8:
	.cfi_startproc
	endbr64
	pushq	%rbp
	.cfi_def_cfa_offset 16
	.cfi_offset 6, -16
	movq	%rsp, %rbp
	.cfi_def_cfa_register 6
	subq	$48, %rsp
	movq	%fs:40, %rax
	movq	%rax, -8(%rbp)
	xorl	%eax, %eax
#APP
# 54 "/usr/include/x86_64-linux-gnu/bits/byteswap.h" 1
	##_ANNOTATION_INITIALREGION_-TIG-iO-Z3TR-1-getnum--16
# 0 "" 2
# 58 "/usr/include/x86_64-linux-gnu/bits/byteswap.h" 1
	##_ANNOTATION_ATOMICREGION_-TIG-iO-Z3TR-1-getnum--15
# 0 "" 2
#NO_APP
	movl	$24, %edi
	call	malloc@PLT
	movq	%rax, -32(%rbp)
	movq	-32(%rbp), %rax
	movq	-32(%rbp), %rdx
	movq	%rdx, 16(%rax)
	movq	-32(%rbp), %rax
	movq	-32(%rbp), %rdx
	movq	%rdx, 8(%rax)
	movq	-32(%rbp), %rax
	movq	%rax, _TIG_iO_Z3TR_1_getnum_1_opaque_list_1(%rip)
	call	rand@PLT
	movl	%eax, -40(%rbp)
	movl	$24, %edi
	call	malloc@PLT
	movq	%rax, -24(%rbp)
	movq	-24(%rbp), %rax
	movl	$0, (%rax)
	movq	_TIG_iO_Z3TR_1_getnum_1_opaque_list_1(%rip), %rax
	movq	16(%rax), %rdx
	movq	-24(%rbp), %rax
	movq	%rdx, 16(%rax)
	movq	_TIG_iO_Z3TR_1_getnum_1_opaque_list_1(%rip), %rdx
	movq	-24(%rbp), %rax
	movq	%rdx, 8(%rax)
	movq	_TIG_iO_Z3TR_1_getnum_1_opaque_list_1(%rip), %rax
	movq	16(%rax), %rax
	movq	-24(%rbp), %rdx
	movq	%rdx, 8(%rax)
	movq	_TIG_iO_Z3TR_1_getnum_1_opaque_list_1(%rip), %rax
	movq	-24(%rbp), %rdx
	movq	%rdx, 16(%rax)
	call	rand@PLT
	movl	%eax, -36(%rbp)
	movl	$24, %edi
	call	malloc@PLT
	movq	%rax, -16(%rbp)
	movq	-16(%rbp), %rax
	movl	-36(%rbp), %edx
	movl	%edx, (%rax)
	movq	_TIG_iO_Z3TR_1_getnum_1_opaque_list_1(%rip), %rax
	movq	16(%rax), %rdx
	movq	-16(%rbp), %rax
	movq	%rdx, 16(%rax)
	movq	_TIG_iO_Z3TR_1_getnum_1_opaque_list_1(%rip), %rdx
	movq	-16(%rbp), %rax
	movq	%rdx, 8(%rax)
	movq	_TIG_iO_Z3TR_1_getnum_1_opaque_list_1(%rip), %rax
	movq	16(%rax), %rax
	movq	-16(%rbp), %rdx
	movq	%rdx, 8(%rax)
	movq	_TIG_iO_Z3TR_1_getnum_1_opaque_list_1(%rip), %rax
	movq	-16(%rbp), %rdx
	movq	%rdx, 16(%rax)
	movq	_TIG_iO_Z3TR_1_getnum_1_opaque_list_1(%rip), %rax
	movq	16(%rax), %rax
	movq	%rax, _TIG_iO_Z3TR_1_getnum_1_opaque_ptr_1(%rip)
	movq	_TIG_iO_Z3TR_1_getnum_1_opaque_ptr_1(%rip), %rax
	movq	%rax, _TIG_iO_Z3TR_1_getnum_1_opaque_ptr_2(%rip)
	nop
	nop
	movq	_TIG_iO_Z3TR_1_read_motd_1_opaque_ptr_1(%rip), %rdx
	movq	_TIG_iO_Z3TR_1_read_motd_1_opaque_ptr_2(%rip), %rax
	cmpq	%rax, %rdx
	je	.L37
#APP
# 87 "/usr/include/x86_64-linux-gnu/bits/byteswap.h" 1
	.byte 0x0
# 0 "" 2
#NO_APP
	jmp	.L38
.L37:
	movl	$-1, -44(%rbp)
	leaq	-44(%rbp), %rax
	movq	%rax, %rsi
	leaq	.LC10(%rip), %rax
	movq	%rax, %rdi
	movl	$0, %eax
	call	__isoc99_scanf@PLT
	call	clean_stdin
.L38:
	movl	-44(%rbp), %eax
	movq	-8(%rbp), %rdx
	subq	%fs:40, %rdx
	je	.L40
	call	__stack_chk_fail@PLT
.L40:
	leave
	.cfi_def_cfa 7, 8
	ret
	.cfi_endproc
.LFE8:
	.size	getnum, .-getnum
	.ident	"GCC: (Ubuntu 11.4.0-1ubuntu1~22.04) 11.4.0"
	.section	.note.GNU-stack,"",@progbits
	.section	.note.gnu.property,"a"
	.align 8
	.long	1f - 0f
	.long	4f - 1f
	.long	5
0:
	.string	"GNU"
1:
	.align 8
	.long	0xc0000002
	.long	3f - 2f
2:
	.long	0x3
3:
	.align 8
4:
