	.file	"ar-zoop_DSA_queue_opaque.c"
	.text
	.globl	_TIG_iO_mJF7_1___uint16_identity_1_opaque_list_1
	.bss
	.align 8
	.type	_TIG_iO_mJF7_1___uint16_identity_1_opaque_list_1, @object
	.size	_TIG_iO_mJF7_1___uint16_identity_1_opaque_list_1, 8
_TIG_iO_mJF7_1___uint16_identity_1_opaque_list_1:
	.zero	8
	.globl	_TIG_iO_mJF7_1_enqueue_1_opaque_ptr_2
	.align 8
	.type	_TIG_iO_mJF7_1_enqueue_1_opaque_ptr_2, @object
	.size	_TIG_iO_mJF7_1_enqueue_1_opaque_ptr_2, 8
_TIG_iO_mJF7_1_enqueue_1_opaque_ptr_2:
	.zero	8
	.globl	_TIG_iO_mJF7_1_dequeue_1_opaque_list_2
	.align 8
	.type	_TIG_iO_mJF7_1_dequeue_1_opaque_list_2, @object
	.size	_TIG_iO_mJF7_1_dequeue_1_opaque_list_2, 8
_TIG_iO_mJF7_1_dequeue_1_opaque_list_2:
	.zero	8
	.globl	_TIG_iO_mJF7_1___uint64_identity_1_opaque_ptr_2
	.align 8
	.type	_TIG_iO_mJF7_1___uint64_identity_1_opaque_ptr_2, @object
	.size	_TIG_iO_mJF7_1___uint64_identity_1_opaque_ptr_2, 8
_TIG_iO_mJF7_1___uint64_identity_1_opaque_ptr_2:
	.zero	8
	.globl	_TIG_iO_mJF7_1_dequeue_1_opaque_ptr_1
	.align 8
	.type	_TIG_iO_mJF7_1_dequeue_1_opaque_ptr_1, @object
	.size	_TIG_iO_mJF7_1_dequeue_1_opaque_ptr_1, 8
_TIG_iO_mJF7_1_dequeue_1_opaque_ptr_1:
	.zero	8
	.globl	r
	.align 4
	.type	r, @object
	.size	r, 4
r:
	.zero	4
	.globl	_TIG_iO_mJF7_1___bswap_16_1_opaque_ptr_2
	.align 8
	.type	_TIG_iO_mJF7_1___bswap_16_1_opaque_ptr_2, @object
	.size	_TIG_iO_mJF7_1___bswap_16_1_opaque_ptr_2, 8
_TIG_iO_mJF7_1___bswap_16_1_opaque_ptr_2:
	.zero	8
	.globl	_TIG_iO_mJF7_1_display_1_opaque_list_2
	.align 8
	.type	_TIG_iO_mJF7_1_display_1_opaque_list_2, @object
	.size	_TIG_iO_mJF7_1_display_1_opaque_list_2, 8
_TIG_iO_mJF7_1_display_1_opaque_list_2:
	.zero	8
	.globl	_TIG_iO_mJF7_1_display_1_opaque_ptr_1
	.align 8
	.type	_TIG_iO_mJF7_1_display_1_opaque_ptr_1, @object
	.size	_TIG_iO_mJF7_1_display_1_opaque_ptr_1, 8
_TIG_iO_mJF7_1_display_1_opaque_ptr_1:
	.zero	8
	.globl	_TIG_iO_mJF7_1___uint32_identity_1_opaque_list_2
	.align 8
	.type	_TIG_iO_mJF7_1___uint32_identity_1_opaque_list_2, @object
	.size	_TIG_iO_mJF7_1___uint32_identity_1_opaque_list_2, 8
_TIG_iO_mJF7_1___uint32_identity_1_opaque_list_2:
	.zero	8
	.globl	_TIG_iO_mJF7_1_enqueue_1_opaque_ptr_1
	.align 8
	.type	_TIG_iO_mJF7_1_enqueue_1_opaque_ptr_1, @object
	.size	_TIG_iO_mJF7_1_enqueue_1_opaque_ptr_1, 8
_TIG_iO_mJF7_1_enqueue_1_opaque_ptr_1:
	.zero	8
	.globl	_TIG_iO_mJF7_1___uint64_identity_1_opaque_list_2
	.align 8
	.type	_TIG_iO_mJF7_1___uint64_identity_1_opaque_list_2, @object
	.size	_TIG_iO_mJF7_1___uint64_identity_1_opaque_list_2, 8
_TIG_iO_mJF7_1___uint64_identity_1_opaque_list_2:
	.zero	8
	.globl	_TIG_iO_mJF7_1_main_1_opaque_list_1
	.align 8
	.type	_TIG_iO_mJF7_1_main_1_opaque_list_1, @object
	.size	_TIG_iO_mJF7_1_main_1_opaque_list_1, 8
_TIG_iO_mJF7_1_main_1_opaque_list_1:
	.zero	8
	.globl	_TIG_iO_mJF7_1___uint32_identity_1_opaque_ptr_1
	.align 8
	.type	_TIG_iO_mJF7_1___uint32_identity_1_opaque_ptr_1, @object
	.size	_TIG_iO_mJF7_1___uint32_identity_1_opaque_ptr_1, 8
_TIG_iO_mJF7_1___uint32_identity_1_opaque_ptr_1:
	.zero	8
	.globl	_TIG_iO_mJF7_1___uint64_identity_1_opaque_ptr_1
	.align 8
	.type	_TIG_iO_mJF7_1___uint64_identity_1_opaque_ptr_1, @object
	.size	_TIG_iO_mJF7_1___uint64_identity_1_opaque_ptr_1, 8
_TIG_iO_mJF7_1___uint64_identity_1_opaque_ptr_1:
	.zero	8
	.globl	_TIG_iO_mJF7_1___bswap_64_1_opaque_list_1
	.align 8
	.type	_TIG_iO_mJF7_1___bswap_64_1_opaque_list_1, @object
	.size	_TIG_iO_mJF7_1___bswap_64_1_opaque_list_1, 8
_TIG_iO_mJF7_1___bswap_64_1_opaque_list_1:
	.zero	8
	.globl	_TIG_iO_mJF7_1_dequeue_1_opaque_list_1
	.align 8
	.type	_TIG_iO_mJF7_1_dequeue_1_opaque_list_1, @object
	.size	_TIG_iO_mJF7_1_dequeue_1_opaque_list_1, 8
_TIG_iO_mJF7_1_dequeue_1_opaque_list_1:
	.zero	8
	.globl	_TIG_iO_mJF7_1_display_1_opaque_ptr_2
	.align 8
	.type	_TIG_iO_mJF7_1_display_1_opaque_ptr_2, @object
	.size	_TIG_iO_mJF7_1_display_1_opaque_ptr_2, 8
_TIG_iO_mJF7_1_display_1_opaque_ptr_2:
	.zero	8
	.globl	f
	.align 4
	.type	f, @object
	.size	f, 4
f:
	.zero	4
	.globl	_TIG_iO_mJF7_1___bswap_32_1_opaque_list_2
	.align 8
	.type	_TIG_iO_mJF7_1___bswap_32_1_opaque_list_2, @object
	.size	_TIG_iO_mJF7_1___bswap_32_1_opaque_list_2, 8
_TIG_iO_mJF7_1___bswap_32_1_opaque_list_2:
	.zero	8
	.globl	_TIG_IZ_mJF7_argc
	.align 4
	.type	_TIG_IZ_mJF7_argc, @object
	.size	_TIG_IZ_mJF7_argc, 4
_TIG_IZ_mJF7_argc:
	.zero	4
	.globl	_TIG_IZ_mJF7_envp
	.align 8
	.type	_TIG_IZ_mJF7_envp, @object
	.size	_TIG_IZ_mJF7_envp, 8
_TIG_IZ_mJF7_envp:
	.zero	8
	.globl	q
	.align 32
	.type	q, @object
	.size	q, 40
q:
	.zero	40
	.globl	_TIG_iO_mJF7_1___uint32_identity_1_opaque_ptr_2
	.align 8
	.type	_TIG_iO_mJF7_1___uint32_identity_1_opaque_ptr_2, @object
	.size	_TIG_iO_mJF7_1___uint32_identity_1_opaque_ptr_2, 8
_TIG_iO_mJF7_1___uint32_identity_1_opaque_ptr_2:
	.zero	8
	.globl	_TIG_iO_mJF7_1___bswap_32_1_opaque_ptr_1
	.align 8
	.type	_TIG_iO_mJF7_1___bswap_32_1_opaque_ptr_1, @object
	.size	_TIG_iO_mJF7_1___bswap_32_1_opaque_ptr_1, 8
_TIG_iO_mJF7_1___bswap_32_1_opaque_ptr_1:
	.zero	8
	.globl	_TIG_IZ_mJF7_argv
	.align 8
	.type	_TIG_IZ_mJF7_argv, @object
	.size	_TIG_IZ_mJF7_argv, 8
_TIG_IZ_mJF7_argv:
	.zero	8
	.globl	_TIG_iO_mJF7_1___bswap_64_1_opaque_list_2
	.align 8
	.type	_TIG_iO_mJF7_1___bswap_64_1_opaque_list_2, @object
	.size	_TIG_iO_mJF7_1___bswap_64_1_opaque_list_2, 8
_TIG_iO_mJF7_1___bswap_64_1_opaque_list_2:
	.zero	8
	.globl	_TIG_iO_mJF7_1___bswap_64_1_opaque_ptr_2
	.align 8
	.type	_TIG_iO_mJF7_1___bswap_64_1_opaque_ptr_2, @object
	.size	_TIG_iO_mJF7_1___bswap_64_1_opaque_ptr_2, 8
_TIG_iO_mJF7_1___bswap_64_1_opaque_ptr_2:
	.zero	8
	.globl	_TIG_iO_mJF7_1___uint16_identity_1_opaque_ptr_2
	.align 8
	.type	_TIG_iO_mJF7_1___uint16_identity_1_opaque_ptr_2, @object
	.size	_TIG_iO_mJF7_1___uint16_identity_1_opaque_ptr_2, 8
_TIG_iO_mJF7_1___uint16_identity_1_opaque_ptr_2:
	.zero	8
	.globl	_TIG_iO_mJF7_1_main_1_opaque_ptr_1
	.align 8
	.type	_TIG_iO_mJF7_1_main_1_opaque_ptr_1, @object
	.size	_TIG_iO_mJF7_1_main_1_opaque_ptr_1, 8
_TIG_iO_mJF7_1_main_1_opaque_ptr_1:
	.zero	8
	.globl	_TIG_iO_mJF7_1_display_1_opaque_list_1
	.align 8
	.type	_TIG_iO_mJF7_1_display_1_opaque_list_1, @object
	.size	_TIG_iO_mJF7_1_display_1_opaque_list_1, 8
_TIG_iO_mJF7_1_display_1_opaque_list_1:
	.zero	8
	.globl	_TIG_iO_mJF7_1___uint32_identity_1_opaque_list_1
	.align 8
	.type	_TIG_iO_mJF7_1___uint32_identity_1_opaque_list_1, @object
	.size	_TIG_iO_mJF7_1___uint32_identity_1_opaque_list_1, 8
_TIG_iO_mJF7_1___uint32_identity_1_opaque_list_1:
	.zero	8
	.globl	_TIG_iO_mJF7_1___bswap_32_1_opaque_ptr_2
	.align 8
	.type	_TIG_iO_mJF7_1___bswap_32_1_opaque_ptr_2, @object
	.size	_TIG_iO_mJF7_1___bswap_32_1_opaque_ptr_2, 8
_TIG_iO_mJF7_1___bswap_32_1_opaque_ptr_2:
	.zero	8
	.globl	_TIG_iO_mJF7_1_enqueue_1_opaque_list_2
	.align 8
	.type	_TIG_iO_mJF7_1_enqueue_1_opaque_list_2, @object
	.size	_TIG_iO_mJF7_1_enqueue_1_opaque_list_2, 8
_TIG_iO_mJF7_1_enqueue_1_opaque_list_2:
	.zero	8
	.globl	_TIG_iO_mJF7_1___bswap_16_1_opaque_ptr_1
	.align 8
	.type	_TIG_iO_mJF7_1___bswap_16_1_opaque_ptr_1, @object
	.size	_TIG_iO_mJF7_1___bswap_16_1_opaque_ptr_1, 8
_TIG_iO_mJF7_1___bswap_16_1_opaque_ptr_1:
	.zero	8
	.globl	_TIG_iO_mJF7_1___uint16_identity_1_opaque_list_2
	.align 8
	.type	_TIG_iO_mJF7_1___uint16_identity_1_opaque_list_2, @object
	.size	_TIG_iO_mJF7_1___uint16_identity_1_opaque_list_2, 8
_TIG_iO_mJF7_1___uint16_identity_1_opaque_list_2:
	.zero	8
	.globl	_TIG_iO_mJF7_1_enqueue_1_opaque_list_1
	.align 8
	.type	_TIG_iO_mJF7_1_enqueue_1_opaque_list_1, @object
	.size	_TIG_iO_mJF7_1_enqueue_1_opaque_list_1, 8
_TIG_iO_mJF7_1_enqueue_1_opaque_list_1:
	.zero	8
	.globl	_TIG_iO_mJF7_1_main_1_opaque_ptr_2
	.align 8
	.type	_TIG_iO_mJF7_1_main_1_opaque_ptr_2, @object
	.size	_TIG_iO_mJF7_1_main_1_opaque_ptr_2, 8
_TIG_iO_mJF7_1_main_1_opaque_ptr_2:
	.zero	8
	.globl	_TIG_iO_mJF7_1___bswap_16_1_opaque_list_1
	.align 8
	.type	_TIG_iO_mJF7_1___bswap_16_1_opaque_list_1, @object
	.size	_TIG_iO_mJF7_1___bswap_16_1_opaque_list_1, 8
_TIG_iO_mJF7_1___bswap_16_1_opaque_list_1:
	.zero	8
	.globl	_TIG_iO_mJF7_1___uint64_identity_1_opaque_list_1
	.align 8
	.type	_TIG_iO_mJF7_1___uint64_identity_1_opaque_list_1, @object
	.size	_TIG_iO_mJF7_1___uint64_identity_1_opaque_list_1, 8
_TIG_iO_mJF7_1___uint64_identity_1_opaque_list_1:
	.zero	8
	.globl	_TIG_iO_mJF7_1___bswap_64_1_opaque_ptr_1
	.align 8
	.type	_TIG_iO_mJF7_1___bswap_64_1_opaque_ptr_1, @object
	.size	_TIG_iO_mJF7_1___bswap_64_1_opaque_ptr_1, 8
_TIG_iO_mJF7_1___bswap_64_1_opaque_ptr_1:
	.zero	8
	.globl	_TIG_iO_mJF7_1___bswap_32_1_opaque_list_1
	.align 8
	.type	_TIG_iO_mJF7_1___bswap_32_1_opaque_list_1, @object
	.size	_TIG_iO_mJF7_1___bswap_32_1_opaque_list_1, 8
_TIG_iO_mJF7_1___bswap_32_1_opaque_list_1:
	.zero	8
	.globl	_TIG_iO_mJF7_1___uint16_identity_1_opaque_ptr_1
	.align 8
	.type	_TIG_iO_mJF7_1___uint16_identity_1_opaque_ptr_1, @object
	.size	_TIG_iO_mJF7_1___uint16_identity_1_opaque_ptr_1, 8
_TIG_iO_mJF7_1___uint16_identity_1_opaque_ptr_1:
	.zero	8
	.globl	_TIG_iO_mJF7_1_main_1_opaque_list_2
	.align 8
	.type	_TIG_iO_mJF7_1_main_1_opaque_list_2, @object
	.size	_TIG_iO_mJF7_1_main_1_opaque_list_2, 8
_TIG_iO_mJF7_1_main_1_opaque_list_2:
	.zero	8
	.globl	_TIG_iO_mJF7_1___bswap_16_1_opaque_list_2
	.align 8
	.type	_TIG_iO_mJF7_1___bswap_16_1_opaque_list_2, @object
	.size	_TIG_iO_mJF7_1___bswap_16_1_opaque_list_2, 8
_TIG_iO_mJF7_1___bswap_16_1_opaque_list_2:
	.zero	8
	.globl	_TIG_iO_mJF7_1_dequeue_1_opaque_ptr_2
	.align 8
	.type	_TIG_iO_mJF7_1_dequeue_1_opaque_ptr_2, @object
	.size	_TIG_iO_mJF7_1_dequeue_1_opaque_ptr_2, 8
_TIG_iO_mJF7_1_dequeue_1_opaque_ptr_2:
	.zero	8
	.section	.rodata
.LC0:
	.string	"choose an option: "
	.align 8
.LC1:
	.string	"1) enqueue\n2) dequeue\n3)display\n4)exit: "
.LC2:
	.string	"%d"
.LC3:
	.string	"Enter ele: "
.LC4:
	.string	"\nBye"
.LC5:
	.string	"Enter correct option!"
	.text
	.globl	main
	.type	main, @function
main:
.LFB0:
	.cfi_startproc
	endbr64
	pushq	%rbp
	.cfi_def_cfa_offset 16
	.cfi_offset 6, -16
	movq	%rsp, %rbp
	.cfi_def_cfa_register 6
	subq	$96, %rsp
	movl	%edi, -68(%rbp)
	movq	%rsi, -80(%rbp)
	movq	%rdx, -88(%rbp)
	movq	%fs:40, %rax
	movq	%rax, -8(%rbp)
	xorl	%eax, %eax
	movl	$0, -44(%rbp)
	jmp	.L2
.L3:
	movl	-44(%rbp), %eax
	cltq
	leaq	0(,%rax,4), %rdx
	leaq	q(%rip), %rax
	movl	$0, (%rdx,%rax)
	addl	$1, -44(%rbp)
.L2:
	cmpl	$9, -44(%rbp)
	jle	.L3
	nop
.L4:
	movl	$-1, r(%rip)
	nop
.L5:
	movl	$-1, f(%rip)
	nop
.L6:
	movq	$0, _TIG_IZ_mJF7_envp(%rip)
	nop
.L7:
	movq	$0, _TIG_IZ_mJF7_argv(%rip)
	nop
.L8:
	movl	$0, _TIG_IZ_mJF7_argc(%rip)
	nop
	nop
.L9:
.L10:
#APP
# 131 "/usr/include/stdlib.h" 1
	##_ANNOTATION_INITIALREGION_-TIG-IZ-mJF7--0
# 0 "" 2
#NO_APP
	movl	-68(%rbp), %eax
	movl	%eax, _TIG_IZ_mJF7_argc(%rip)
	movq	-80(%rbp), %rax
	movq	%rax, _TIG_IZ_mJF7_argv(%rip)
	movq	-88(%rbp), %rax
	movq	%rax, _TIG_IZ_mJF7_envp(%rip)
#APP
# 138 "/usr/include/stdlib.h" 1
	##_ANNOTATION_ATOMICREGION_-TIG-iO-mJF7-1-main--19
# 0 "" 2
#NO_APP
	movl	$24, %edi
	call	malloc@PLT
	movq	%rax, -32(%rbp)
	movq	-32(%rbp), %rax
	movq	-32(%rbp), %rdx
	movq	%rdx, 8(%rax)
	movq	-32(%rbp), %rax
	movq	-32(%rbp), %rdx
	movq	%rdx, 16(%rax)
	movq	-32(%rbp), %rax
	movq	%rax, _TIG_iO_mJF7_1_main_1_opaque_list_1(%rip)
	call	rand@PLT
	movl	%eax, -40(%rbp)
	movl	$24, %edi
	call	malloc@PLT
	movq	%rax, -24(%rbp)
	movq	-24(%rbp), %rax
	movl	$0, (%rax)
	movq	_TIG_iO_mJF7_1_main_1_opaque_list_1(%rip), %rax
	movq	8(%rax), %rdx
	movq	-24(%rbp), %rax
	movq	%rdx, 8(%rax)
	movq	_TIG_iO_mJF7_1_main_1_opaque_list_1(%rip), %rdx
	movq	-24(%rbp), %rax
	movq	%rdx, 16(%rax)
	movq	_TIG_iO_mJF7_1_main_1_opaque_list_1(%rip), %rax
	movq	8(%rax), %rax
	movq	-24(%rbp), %rdx
	movq	%rdx, 16(%rax)
	movq	_TIG_iO_mJF7_1_main_1_opaque_list_1(%rip), %rax
	movq	-24(%rbp), %rdx
	movq	%rdx, 8(%rax)
	call	rand@PLT
	movl	%eax, -36(%rbp)
	movl	$24, %edi
	call	malloc@PLT
	movq	%rax, -16(%rbp)
	movq	-16(%rbp), %rax
	movl	-36(%rbp), %edx
	movl	%edx, (%rax)
	movq	_TIG_iO_mJF7_1_main_1_opaque_list_1(%rip), %rax
	movq	8(%rax), %rdx
	movq	-16(%rbp), %rax
	movq	%rdx, 8(%rax)
	movq	_TIG_iO_mJF7_1_main_1_opaque_list_1(%rip), %rdx
	movq	-16(%rbp), %rax
	movq	%rdx, 16(%rax)
	movq	_TIG_iO_mJF7_1_main_1_opaque_list_1(%rip), %rax
	movq	8(%rax), %rax
	movq	-16(%rbp), %rdx
	movq	%rdx, 16(%rax)
	movq	_TIG_iO_mJF7_1_main_1_opaque_list_1(%rip), %rax
	movq	-16(%rbp), %rdx
	movq	%rdx, 8(%rax)
	movq	_TIG_iO_mJF7_1_main_1_opaque_list_1(%rip), %rax
	movq	8(%rax), %rax
	movq	%rax, _TIG_iO_mJF7_1_main_1_opaque_ptr_1(%rip)
	movq	_TIG_iO_mJF7_1_main_1_opaque_ptr_1(%rip), %rax
	movq	%rax, _TIG_iO_mJF7_1_main_1_opaque_ptr_2(%rip)
	nop
	nop
	movq	_TIG_iO_mJF7_1_main_1_opaque_ptr_1(%rip), %rdx
	movq	_TIG_iO_mJF7_1_main_1_opaque_ptr_2(%rip), %rax
	cmpq	%rax, %rdx
	je	.L18
	movl	-48(%rbp), %eax
	movq	-88(%rbp), %rdx
	movq	-80(%rbp), %rcx
	movq	%rcx, %rsi
	movl	%eax, %edi
	call	main
	movl	%eax, -68(%rbp)
.L18:
	leaq	.LC0(%rip), %rax
	movq	%rax, %rdi
	movl	$0, %eax
	call	printf@PLT
	leaq	.LC1(%rip), %rax
	movq	%rax, %rdi
	movl	$0, %eax
	call	printf@PLT
	leaq	-52(%rbp), %rax
	movq	%rax, %rsi
	leaq	.LC2(%rip), %rax
	movq	%rax, %rdi
	movl	$0, %eax
	call	__isoc99_scanf@PLT
	movl	-52(%rbp), %eax
	cmpl	$4, %eax
	je	.L12
	cmpl	$4, %eax
	jg	.L13
	cmpl	$3, %eax
	je	.L14
	cmpl	$3, %eax
	jg	.L13
	cmpl	$1, %eax
	je	.L15
	cmpl	$2, %eax
	je	.L16
	jmp	.L13
.L15:
	leaq	.LC3(%rip), %rax
	movq	%rax, %rdi
	movl	$0, %eax
	call	printf@PLT
	leaq	-48(%rbp), %rax
	movq	%rax, %rsi
	leaq	.LC2(%rip), %rax
	movq	%rax, %rdi
	movl	$0, %eax
	call	__isoc99_scanf@PLT
	movl	-48(%rbp), %eax
	movl	%eax, %edi
	call	enqueue
	jmp	.L17
.L16:
	call	dequeue
	jmp	.L17
.L14:
	call	display
	jmp	.L17
.L12:
	leaq	.LC4(%rip), %rax
	movq	%rax, %rdi
	movl	$0, %eax
	call	printf@PLT
	movl	$0, %edi
	call	exit@PLT
.L13:
	leaq	.LC5(%rip), %rax
	movq	%rax, %rdi
	movl	$0, %eax
	call	printf@PLT
.L17:
	jmp	.L18
	.cfi_endproc
.LFE0:
	.size	main, .-main
	.section	.rodata
.LC6:
	.string	"Done"
.LC7:
	.string	"Overflow"
	.text
	.globl	enqueue
	.type	enqueue, @function
enqueue:
.LFB1:
	.cfi_startproc
	endbr64
	pushq	%rbp
	.cfi_def_cfa_offset 16
	.cfi_offset 6, -16
	movq	%rsp, %rbp
	.cfi_def_cfa_register 6
	subq	$48, %rsp
	movl	%edi, -36(%rbp)
#APP
# 56 "ar-zoop_DSA_queue.c" 1
	##_ANNOTATION_INITIALREGION_-TIG-iO-mJF7-1-enqueue--18
# 0 "" 2
# 60 "ar-zoop_DSA_queue.c" 1
	##_ANNOTATION_ATOMICREGION_-TIG-iO-mJF7-1-enqueue--17
# 0 "" 2
#NO_APP
	movl	$24, %edi
	call	malloc@PLT
	movq	%rax, -24(%rbp)
	movq	-24(%rbp), %rax
	movq	-24(%rbp), %rdx
	movq	%rdx, 8(%rax)
	movq	-24(%rbp), %rax
	movq	-24(%rbp), %rdx
	movq	%rdx, (%rax)
	movq	-24(%rbp), %rax
	movq	%rax, _TIG_iO_mJF7_1_enqueue_1_opaque_list_1(%rip)
	call	rand@PLT
	movl	%eax, -32(%rbp)
	movl	$24, %edi
	call	malloc@PLT
	movq	%rax, -16(%rbp)
	movq	-16(%rbp), %rax
	movl	$0, 16(%rax)
	movq	_TIG_iO_mJF7_1_enqueue_1_opaque_list_1(%rip), %rax
	movq	8(%rax), %rdx
	movq	-16(%rbp), %rax
	movq	%rdx, 8(%rax)
	movq	_TIG_iO_mJF7_1_enqueue_1_opaque_list_1(%rip), %rdx
	movq	-16(%rbp), %rax
	movq	%rdx, (%rax)
	movq	_TIG_iO_mJF7_1_enqueue_1_opaque_list_1(%rip), %rax
	movq	8(%rax), %rax
	movq	-16(%rbp), %rdx
	movq	%rdx, (%rax)
	movq	_TIG_iO_mJF7_1_enqueue_1_opaque_list_1(%rip), %rax
	movq	-16(%rbp), %rdx
	movq	%rdx, 8(%rax)
	call	rand@PLT
	movl	%eax, -28(%rbp)
	movl	$24, %edi
	call	malloc@PLT
	movq	%rax, -8(%rbp)
	movq	-8(%rbp), %rax
	movl	-28(%rbp), %edx
	movl	%edx, 16(%rax)
	movq	_TIG_iO_mJF7_1_enqueue_1_opaque_list_1(%rip), %rax
	movq	8(%rax), %rdx
	movq	-8(%rbp), %rax
	movq	%rdx, 8(%rax)
	movq	_TIG_iO_mJF7_1_enqueue_1_opaque_list_1(%rip), %rdx
	movq	-8(%rbp), %rax
	movq	%rdx, (%rax)
	movq	_TIG_iO_mJF7_1_enqueue_1_opaque_list_1(%rip), %rax
	movq	8(%rax), %rax
	movq	-8(%rbp), %rdx
	movq	%rdx, (%rax)
	movq	_TIG_iO_mJF7_1_enqueue_1_opaque_list_1(%rip), %rax
	movq	-8(%rbp), %rdx
	movq	%rdx, 8(%rax)
	movq	_TIG_iO_mJF7_1_enqueue_1_opaque_list_1(%rip), %rax
	movq	8(%rax), %rax
	movq	%rax, _TIG_iO_mJF7_1_enqueue_1_opaque_ptr_1(%rip)
	movq	_TIG_iO_mJF7_1_enqueue_1_opaque_ptr_1(%rip), %rax
	movq	%rax, _TIG_iO_mJF7_1_enqueue_1_opaque_ptr_2(%rip)
	movq	_TIG_iO_mJF7_1_enqueue_1_opaque_ptr_2(%rip), %rax
	movq	8(%rax), %rax
	movq	%rax, _TIG_iO_mJF7_1_enqueue_1_opaque_ptr_2(%rip)
	nop
	nop
	movl	f(%rip), %eax
	cmpl	$-1, %eax
	jne	.L21
	movq	_TIG_iO_mJF7_1_main_1_opaque_ptr_1(%rip), %rdx
	movq	_TIG_iO_mJF7_1_main_1_opaque_ptr_2(%rip), %rax
	cmpq	%rax, %rdx
	jne	.L22
	movl	r(%rip), %eax
	addl	$1, %eax
	movl	%eax, r(%rip)
	movl	f(%rip), %eax
	addl	$1, %eax
	movl	%eax, f(%rip)
	movl	r(%rip), %eax
	cltq
	leaq	0(,%rax,4), %rcx
	leaq	q(%rip), %rdx
	movl	-36(%rbp), %eax
	movl	%eax, (%rcx,%rdx)
	leaq	.LC6(%rip), %rax
	movq	%rax, %rdi
	call	puts@PLT
	jmp	.L20
.L22:
#APP
# 50 "ar-zoop_DSA_queue.c" 1
	.byte 0xc0,0xeb,0x8,0xe8,0xd1,0x2f,0x0,0x0
# 0 "" 2
#NO_APP
	jmp	.L20
.L21:
	movl	r(%rip), %eax
	cltq
	leaq	0(,%rax,4), %rdx
	leaq	q(%rip), %rax
	movl	(%rdx,%rax), %eax
	cmpl	$9, %eax
	jne	.L24
	leaq	.LC7(%rip), %rax
	movq	%rax, %rdi
	call	puts@PLT
	jmp	.L20
.L24:
	movl	r(%rip), %eax
	addl	$1, %eax
	movl	%eax, r(%rip)
	movl	r(%rip), %eax
	cltq
	leaq	0(,%rax,4), %rcx
	leaq	q(%rip), %rdx
	movl	-36(%rbp), %eax
	movl	%eax, (%rcx,%rdx)
	leaq	.LC6(%rip), %rax
	movq	%rax, %rdi
	call	puts@PLT
	nop
.L20:
	leave
	.cfi_def_cfa 7, 8
	ret
	.cfi_endproc
.LFE1:
	.size	enqueue, .-enqueue
	.section	.rodata
.LC8:
	.string	"Underflow"
.LC9:
	.string	"Done\n"
	.text
	.globl	dequeue
	.type	dequeue, @function
dequeue:
.LFB6:
	.cfi_startproc
	endbr64
	pushq	%rbp
	.cfi_def_cfa_offset 16
	.cfi_offset 6, -16
	movq	%rsp, %rbp
	.cfi_def_cfa_register 6
	subq	$64, %rsp
#APP
# 97 "/usr/include/x86_64-linux-gnu/bits/byteswap.h" 1
	##_ANNOTATION_INITIALREGION_-TIG-iO-mJF7-1-dequeue--14
# 0 "" 2
# 101 "/usr/include/x86_64-linux-gnu/bits/byteswap.h" 1
	##_ANNOTATION_ATOMICREGION_-TIG-iO-mJF7-1-dequeue--13
# 0 "" 2
#NO_APP
	movl	$24, %edi
	call	malloc@PLT
	movq	%rax, -40(%rbp)
	movq	-40(%rbp), %rax
	movq	-40(%rbp), %rdx
	movq	%rdx, (%rax)
	movq	-40(%rbp), %rax
	movq	-40(%rbp), %rdx
	movq	%rdx, 8(%rax)
	movq	-40(%rbp), %rax
	movq	%rax, _TIG_iO_mJF7_1_dequeue_1_opaque_list_1(%rip)
	call	rand@PLT
	movl	%eax, -56(%rbp)
	movl	$24, %edi
	call	malloc@PLT
	movq	%rax, -32(%rbp)
	movq	-32(%rbp), %rax
	movl	$0, 16(%rax)
	movq	_TIG_iO_mJF7_1_dequeue_1_opaque_list_1(%rip), %rax
	movq	(%rax), %rdx
	movq	-32(%rbp), %rax
	movq	%rdx, (%rax)
	movq	_TIG_iO_mJF7_1_dequeue_1_opaque_list_1(%rip), %rdx
	movq	-32(%rbp), %rax
	movq	%rdx, 8(%rax)
	movq	_TIG_iO_mJF7_1_dequeue_1_opaque_list_1(%rip), %rax
	movq	(%rax), %rax
	movq	-32(%rbp), %rdx
	movq	%rdx, 8(%rax)
	movq	_TIG_iO_mJF7_1_dequeue_1_opaque_list_1(%rip), %rax
	movq	-32(%rbp), %rdx
	movq	%rdx, (%rax)
	call	rand@PLT
	movl	%eax, -52(%rbp)
	movl	$24, %edi
	call	malloc@PLT
	movq	%rax, -24(%rbp)
	movq	-24(%rbp), %rax
	movl	-52(%rbp), %edx
	movl	%edx, 16(%rax)
	movq	_TIG_iO_mJF7_1_dequeue_1_opaque_list_1(%rip), %rax
	movq	(%rax), %rdx
	movq	-24(%rbp), %rax
	movq	%rdx, (%rax)
	movq	_TIG_iO_mJF7_1_dequeue_1_opaque_list_1(%rip), %rdx
	movq	-24(%rbp), %rax
	movq	%rdx, 8(%rax)
	movq	_TIG_iO_mJF7_1_dequeue_1_opaque_list_1(%rip), %rax
	movq	(%rax), %rax
	movq	-24(%rbp), %rdx
	movq	%rdx, 8(%rax)
	movq	_TIG_iO_mJF7_1_dequeue_1_opaque_list_1(%rip), %rax
	movq	-24(%rbp), %rdx
	movq	%rdx, (%rax)
	call	rand@PLT
	movl	%eax, -48(%rbp)
	movl	$24, %edi
	call	malloc@PLT
	movq	%rax, -16(%rbp)
	movl	-48(%rbp), %eax
	leal	(%rax,%rax), %edx
	movq	-16(%rbp), %rax
	movl	%edx, 16(%rax)
	movq	_TIG_iO_mJF7_1_dequeue_1_opaque_list_1(%rip), %rax
	movq	(%rax), %rdx
	movq	-16(%rbp), %rax
	movq	%rdx, (%rax)
	movq	_TIG_iO_mJF7_1_dequeue_1_opaque_list_1(%rip), %rdx
	movq	-16(%rbp), %rax
	movq	%rdx, 8(%rax)
	movq	_TIG_iO_mJF7_1_dequeue_1_opaque_list_1(%rip), %rax
	movq	(%rax), %rax
	movq	-16(%rbp), %rdx
	movq	%rdx, 8(%rax)
	movq	_TIG_iO_mJF7_1_dequeue_1_opaque_list_1(%rip), %rax
	movq	-16(%rbp), %rdx
	movq	%rdx, (%rax)
	call	rand@PLT
	movl	%eax, -44(%rbp)
	movl	$24, %edi
	call	malloc@PLT
	movq	%rax, -8(%rbp)
	movl	-44(%rbp), %edx
	movl	%edx, %eax
	addl	%eax, %eax
	addl	%eax, %edx
	movq	-8(%rbp), %rax
	movl	%edx, 16(%rax)
	movq	_TIG_iO_mJF7_1_dequeue_1_opaque_list_1(%rip), %rax
	movq	(%rax), %rdx
	movq	-8(%rbp), %rax
	movq	%rdx, (%rax)
	movq	_TIG_iO_mJF7_1_dequeue_1_opaque_list_1(%rip), %rdx
	movq	-8(%rbp), %rax
	movq	%rdx, 8(%rax)
	movq	_TIG_iO_mJF7_1_dequeue_1_opaque_list_1(%rip), %rax
	movq	(%rax), %rax
	movq	-8(%rbp), %rdx
	movq	%rdx, 8(%rax)
	movq	_TIG_iO_mJF7_1_dequeue_1_opaque_list_1(%rip), %rax
	movq	-8(%rbp), %rdx
	movq	%rdx, (%rax)
	movq	_TIG_iO_mJF7_1_dequeue_1_opaque_list_1(%rip), %rax
	movq	(%rax), %rax
	movq	%rax, _TIG_iO_mJF7_1_dequeue_1_opaque_ptr_1(%rip)
	movq	_TIG_iO_mJF7_1_dequeue_1_opaque_ptr_1(%rip), %rax
	movq	%rax, _TIG_iO_mJF7_1_dequeue_1_opaque_ptr_2(%rip)
	movq	_TIG_iO_mJF7_1_dequeue_1_opaque_ptr_2(%rip), %rax
	movq	(%rax), %rax
	movq	%rax, _TIG_iO_mJF7_1_dequeue_1_opaque_ptr_2(%rip)
	nop
	nop
	movl	f(%rip), %eax
	cmpl	$-1, %eax
	jne	.L27
	leaq	.LC8(%rip), %rax
	movq	%rax, %rdi
	call	puts@PLT
	jmp	.L26
.L27:
	movq	_TIG_iO_mJF7_1_main_1_opaque_ptr_1(%rip), %rdx
	movq	_TIG_iO_mJF7_1_main_1_opaque_ptr_2(%rip), %rax
	cmpq	%rax, %rdx
	jne	.L29
	movl	f(%rip), %eax
	addl	$1, %eax
	movl	%eax, f(%rip)
	leaq	.LC6(%rip), %rax
	movq	%rax, %rdi
	call	puts@PLT
	jmp	.L26
.L29:
	movl	f(%rip), %eax
	leal	1(%rax), %edx
	movl	%edx, %eax
	addl	%eax, %eax
	addl	%edx, %eax
	movl	%eax, f(%rip)
	leaq	1+.LC9(%rip), %rax
	movq	%rax, %rdi
	movl	$0, %eax
	call	printf@PLT
	nop
.L26:
	leave
	.cfi_def_cfa 7, 8
	ret
	.cfi_endproc
.LFE6:
	.size	dequeue, .-dequeue
	.section	.rodata
.LC10:
	.string	"%d\n"
	.text
	.globl	display
	.type	display, @function
display:
.LFB8:
	.cfi_startproc
	endbr64
	pushq	%rbp
	.cfi_def_cfa_offset 16
	.cfi_offset 6, -16
	movq	%rsp, %rbp
	.cfi_def_cfa_register 6
	subq	$48, %rsp
#APP
# 54 "/usr/include/x86_64-linux-gnu/bits/uintn-identity.h" 1
	##_ANNOTATION_INITIALREGION_-TIG-iO-mJF7-1-display--16
# 0 "" 2
# 58 "/usr/include/x86_64-linux-gnu/bits/uintn-identity.h" 1
	##_ANNOTATION_ATOMICREGION_-TIG-iO-mJF7-1-display--15
# 0 "" 2
#NO_APP
	movl	$24, %edi
	call	malloc@PLT
	movq	%rax, -24(%rbp)
	movq	-24(%rbp), %rax
	movq	-24(%rbp), %rdx
	movq	%rdx, 16(%rax)
	movq	-24(%rbp), %rax
	movq	-24(%rbp), %rdx
	movq	%rdx, 8(%rax)
	movq	-24(%rbp), %rax
	movq	%rax, _TIG_iO_mJF7_1_display_1_opaque_list_1(%rip)
	call	rand@PLT
	movl	%eax, -32(%rbp)
	movl	$24, %edi
	call	malloc@PLT
	movq	%rax, -16(%rbp)
	movq	-16(%rbp), %rax
	movl	$0, (%rax)
	movq	_TIG_iO_mJF7_1_display_1_opaque_list_1(%rip), %rax
	movq	16(%rax), %rdx
	movq	-16(%rbp), %rax
	movq	%rdx, 16(%rax)
	movq	_TIG_iO_mJF7_1_display_1_opaque_list_1(%rip), %rdx
	movq	-16(%rbp), %rax
	movq	%rdx, 8(%rax)
	movq	_TIG_iO_mJF7_1_display_1_opaque_list_1(%rip), %rax
	movq	16(%rax), %rax
	movq	-16(%rbp), %rdx
	movq	%rdx, 8(%rax)
	movq	_TIG_iO_mJF7_1_display_1_opaque_list_1(%rip), %rax
	movq	-16(%rbp), %rdx
	movq	%rdx, 16(%rax)
	call	rand@PLT
	movl	%eax, -28(%rbp)
	movl	$24, %edi
	call	malloc@PLT
	movq	%rax, -8(%rbp)
	movq	-8(%rbp), %rax
	movl	-28(%rbp), %edx
	movl	%edx, (%rax)
	movq	_TIG_iO_mJF7_1_display_1_opaque_list_1(%rip), %rax
	movq	16(%rax), %rdx
	movq	-8(%rbp), %rax
	movq	%rdx, 16(%rax)
	movq	_TIG_iO_mJF7_1_display_1_opaque_list_1(%rip), %rdx
	movq	-8(%rbp), %rax
	movq	%rdx, 8(%rax)
	movq	_TIG_iO_mJF7_1_display_1_opaque_list_1(%rip), %rax
	movq	16(%rax), %rax
	movq	-8(%rbp), %rdx
	movq	%rdx, 8(%rax)
	movq	_TIG_iO_mJF7_1_display_1_opaque_list_1(%rip), %rax
	movq	-8(%rbp), %rdx
	movq	%rdx, 16(%rax)
	movq	_TIG_iO_mJF7_1_display_1_opaque_list_1(%rip), %rax
	movq	16(%rax), %rax
	movq	%rax, _TIG_iO_mJF7_1_display_1_opaque_ptr_1(%rip)
	movq	_TIG_iO_mJF7_1_display_1_opaque_ptr_1(%rip), %rax
	movq	%rax, _TIG_iO_mJF7_1_display_1_opaque_ptr_2(%rip)
	nop
	nop
	movl	f(%rip), %eax
	cmpl	$-1, %eax
	jne	.L32
	leaq	.LC8(%rip), %rax
	movq	%rax, %rdi
	call	puts@PLT
	jmp	.L39
.L32:
	movl	f(%rip), %eax
	movl	%eax, -36(%rbp)
.L37:
	movl	r(%rip), %eax
	cmpl	%eax, -36(%rbp)
	jle	.L34
	movq	_TIG_iO_mJF7_1_main_1_opaque_ptr_1(%rip), %rdx
	movq	_TIG_iO_mJF7_1_main_1_opaque_ptr_2(%rip), %rax
	cmpq	%rax, %rdx
	je	.L38
	jmp	.L31
.L34:
	movl	-36(%rbp), %eax
	cltq
	leaq	0(,%rax,4), %rdx
	leaq	q(%rip), %rax
	movl	(%rdx,%rax), %eax
	movl	%eax, %esi
	leaq	.LC10(%rip), %rax
	movq	%rax, %rdi
	movl	$0, %eax
	call	printf@PLT
	addl	$1, -36(%rbp)
	jmp	.L37
.L38:
	nop
.L39:
	nop
.L31:
	leave
	.cfi_def_cfa 7, 8
	ret
	.cfi_endproc
.LFE8:
	.size	display, .-display
	.ident	"GCC: (Ubuntu 11.4.0-1ubuntu1~22.04) 11.4.0"
	.section	.note.GNU-stack,"",@progbits
	.section	.note.gnu.property,"a"
	.align 8
	.long	1f - 0f
	.long	4f - 1f
	.long	5
0:
	.string	"GNU"
1:
	.align 8
	.long	0xc0000002
	.long	3f - 2f
2:
	.long	0x3
3:
	.align 8
4:
