	.file	"athiraomanakuttan_brototype_Week_2_5_opaque.c"
	.text
	.globl	_TIG_iO_hgq6_1_GradeCheck_1_opaque_list_2
	.bss
	.align 8
	.type	_TIG_iO_hgq6_1_GradeCheck_1_opaque_list_2, @object
	.size	_TIG_iO_hgq6_1_GradeCheck_1_opaque_list_2, 8
_TIG_iO_hgq6_1_GradeCheck_1_opaque_list_2:
	.zero	8
	.globl	_TIG_iO_hgq6_1_main_1_opaque_list_2
	.align 8
	.type	_TIG_iO_hgq6_1_main_1_opaque_list_2, @object
	.size	_TIG_iO_hgq6_1_main_1_opaque_list_2, 8
_TIG_iO_hgq6_1_main_1_opaque_list_2:
	.zero	8
	.globl	_TIG_iO_hgq6_1_main_1_opaque_ptr_1
	.align 8
	.type	_TIG_iO_hgq6_1_main_1_opaque_ptr_1, @object
	.size	_TIG_iO_hgq6_1_main_1_opaque_ptr_1, 8
_TIG_iO_hgq6_1_main_1_opaque_ptr_1:
	.zero	8
	.globl	_TIG_iO_hgq6_1___uint32_identity_1_opaque_ptr_2
	.align 8
	.type	_TIG_iO_hgq6_1___uint32_identity_1_opaque_ptr_2, @object
	.size	_TIG_iO_hgq6_1___uint32_identity_1_opaque_ptr_2, 8
_TIG_iO_hgq6_1___uint32_identity_1_opaque_ptr_2:
	.zero	8
	.globl	_TIG_iO_hgq6_1___bswap_16_1_opaque_list_2
	.align 8
	.type	_TIG_iO_hgq6_1___bswap_16_1_opaque_list_2, @object
	.size	_TIG_iO_hgq6_1___bswap_16_1_opaque_list_2, 8
_TIG_iO_hgq6_1___bswap_16_1_opaque_list_2:
	.zero	8
	.globl	_TIG_iO_hgq6_1___bswap_32_1_opaque_ptr_2
	.align 8
	.type	_TIG_iO_hgq6_1___bswap_32_1_opaque_ptr_2, @object
	.size	_TIG_iO_hgq6_1___bswap_32_1_opaque_ptr_2, 8
_TIG_iO_hgq6_1___bswap_32_1_opaque_ptr_2:
	.zero	8
	.globl	_TIG_iO_hgq6_1___uint32_identity_1_opaque_list_2
	.align 8
	.type	_TIG_iO_hgq6_1___uint32_identity_1_opaque_list_2, @object
	.size	_TIG_iO_hgq6_1___uint32_identity_1_opaque_list_2, 8
_TIG_iO_hgq6_1___uint32_identity_1_opaque_list_2:
	.zero	8
	.globl	_TIG_iO_hgq6_1___uint64_identity_1_opaque_ptr_2
	.align 8
	.type	_TIG_iO_hgq6_1___uint64_identity_1_opaque_ptr_2, @object
	.size	_TIG_iO_hgq6_1___uint64_identity_1_opaque_ptr_2, 8
_TIG_iO_hgq6_1___uint64_identity_1_opaque_ptr_2:
	.zero	8
	.globl	_TIG_iO_hgq6_1___uint64_identity_1_opaque_ptr_1
	.align 8
	.type	_TIG_iO_hgq6_1___uint64_identity_1_opaque_ptr_1, @object
	.size	_TIG_iO_hgq6_1___uint64_identity_1_opaque_ptr_1, 8
_TIG_iO_hgq6_1___uint64_identity_1_opaque_ptr_1:
	.zero	8
	.globl	_TIG_iO_hgq6_1___bswap_16_1_opaque_list_1
	.align 8
	.type	_TIG_iO_hgq6_1___bswap_16_1_opaque_list_1, @object
	.size	_TIG_iO_hgq6_1___bswap_16_1_opaque_list_1, 8
_TIG_iO_hgq6_1___bswap_16_1_opaque_list_1:
	.zero	8
	.globl	_TIG_IZ_hgq6_argc
	.align 4
	.type	_TIG_IZ_hgq6_argc, @object
	.size	_TIG_IZ_hgq6_argc, 4
_TIG_IZ_hgq6_argc:
	.zero	4
	.globl	_TIG_iO_hgq6_1_GradeCheck_1_opaque_list_1
	.align 8
	.type	_TIG_iO_hgq6_1_GradeCheck_1_opaque_list_1, @object
	.size	_TIG_iO_hgq6_1_GradeCheck_1_opaque_list_1, 8
_TIG_iO_hgq6_1_GradeCheck_1_opaque_list_1:
	.zero	8
	.globl	_TIG_iO_hgq6_1___uint16_identity_1_opaque_ptr_2
	.align 8
	.type	_TIG_iO_hgq6_1___uint16_identity_1_opaque_ptr_2, @object
	.size	_TIG_iO_hgq6_1___uint16_identity_1_opaque_ptr_2, 8
_TIG_iO_hgq6_1___uint16_identity_1_opaque_ptr_2:
	.zero	8
	.globl	_TIG_iO_hgq6_1_main_1_opaque_list_1
	.align 8
	.type	_TIG_iO_hgq6_1_main_1_opaque_list_1, @object
	.size	_TIG_iO_hgq6_1_main_1_opaque_list_1, 8
_TIG_iO_hgq6_1_main_1_opaque_list_1:
	.zero	8
	.globl	_TIG_iO_hgq6_1___bswap_32_1_opaque_list_2
	.align 8
	.type	_TIG_iO_hgq6_1___bswap_32_1_opaque_list_2, @object
	.size	_TIG_iO_hgq6_1___bswap_32_1_opaque_list_2, 8
_TIG_iO_hgq6_1___bswap_32_1_opaque_list_2:
	.zero	8
	.globl	_TIG_iO_hgq6_1___bswap_64_1_opaque_ptr_2
	.align 8
	.type	_TIG_iO_hgq6_1___bswap_64_1_opaque_ptr_2, @object
	.size	_TIG_iO_hgq6_1___bswap_64_1_opaque_ptr_2, 8
_TIG_iO_hgq6_1___bswap_64_1_opaque_ptr_2:
	.zero	8
	.globl	_TIG_iO_hgq6_1___uint16_identity_1_opaque_list_2
	.align 8
	.type	_TIG_iO_hgq6_1___uint16_identity_1_opaque_list_2, @object
	.size	_TIG_iO_hgq6_1___uint16_identity_1_opaque_list_2, 8
_TIG_iO_hgq6_1___uint16_identity_1_opaque_list_2:
	.zero	8
	.globl	_TIG_iO_hgq6_1___bswap_64_1_opaque_ptr_1
	.align 8
	.type	_TIG_iO_hgq6_1___bswap_64_1_opaque_ptr_1, @object
	.size	_TIG_iO_hgq6_1___bswap_64_1_opaque_ptr_1, 8
_TIG_iO_hgq6_1___bswap_64_1_opaque_ptr_1:
	.zero	8
	.globl	_TIG_IZ_hgq6_envp
	.align 8
	.type	_TIG_IZ_hgq6_envp, @object
	.size	_TIG_IZ_hgq6_envp, 8
_TIG_IZ_hgq6_envp:
	.zero	8
	.globl	_TIG_iO_hgq6_1_GradeCheck_1_opaque_ptr_1
	.align 8
	.type	_TIG_iO_hgq6_1_GradeCheck_1_opaque_ptr_1, @object
	.size	_TIG_iO_hgq6_1_GradeCheck_1_opaque_ptr_1, 8
_TIG_iO_hgq6_1_GradeCheck_1_opaque_ptr_1:
	.zero	8
	.globl	_TIG_iO_hgq6_1___uint16_identity_1_opaque_list_1
	.align 8
	.type	_TIG_iO_hgq6_1___uint16_identity_1_opaque_list_1, @object
	.size	_TIG_iO_hgq6_1___uint16_identity_1_opaque_list_1, 8
_TIG_iO_hgq6_1___uint16_identity_1_opaque_list_1:
	.zero	8
	.globl	_TIG_IZ_hgq6_argv
	.align 8
	.type	_TIG_IZ_hgq6_argv, @object
	.size	_TIG_IZ_hgq6_argv, 8
_TIG_IZ_hgq6_argv:
	.zero	8
	.globl	_TIG_iO_hgq6_1___bswap_16_1_opaque_ptr_2
	.align 8
	.type	_TIG_iO_hgq6_1___bswap_16_1_opaque_ptr_2, @object
	.size	_TIG_iO_hgq6_1___bswap_16_1_opaque_ptr_2, 8
_TIG_iO_hgq6_1___bswap_16_1_opaque_ptr_2:
	.zero	8
	.globl	_TIG_iO_hgq6_1___uint32_identity_1_opaque_list_1
	.align 8
	.type	_TIG_iO_hgq6_1___uint32_identity_1_opaque_list_1, @object
	.size	_TIG_iO_hgq6_1___uint32_identity_1_opaque_list_1, 8
_TIG_iO_hgq6_1___uint32_identity_1_opaque_list_1:
	.zero	8
	.globl	_TIG_iO_hgq6_1___uint64_identity_1_opaque_list_1
	.align 8
	.type	_TIG_iO_hgq6_1___uint64_identity_1_opaque_list_1, @object
	.size	_TIG_iO_hgq6_1___uint64_identity_1_opaque_list_1, 8
_TIG_iO_hgq6_1___uint64_identity_1_opaque_list_1:
	.zero	8
	.globl	_TIG_iO_hgq6_1___uint32_identity_1_opaque_ptr_1
	.align 8
	.type	_TIG_iO_hgq6_1___uint32_identity_1_opaque_ptr_1, @object
	.size	_TIG_iO_hgq6_1___uint32_identity_1_opaque_ptr_1, 8
_TIG_iO_hgq6_1___uint32_identity_1_opaque_ptr_1:
	.zero	8
	.globl	_TIG_iO_hgq6_1___bswap_32_1_opaque_list_1
	.align 8
	.type	_TIG_iO_hgq6_1___bswap_32_1_opaque_list_1, @object
	.size	_TIG_iO_hgq6_1___bswap_32_1_opaque_list_1, 8
_TIG_iO_hgq6_1___bswap_32_1_opaque_list_1:
	.zero	8
	.globl	_TIG_iO_hgq6_1___bswap_64_1_opaque_list_1
	.align 8
	.type	_TIG_iO_hgq6_1___bswap_64_1_opaque_list_1, @object
	.size	_TIG_iO_hgq6_1___bswap_64_1_opaque_list_1, 8
_TIG_iO_hgq6_1___bswap_64_1_opaque_list_1:
	.zero	8
	.globl	_TIG_iO_hgq6_1_GradeCheck_1_opaque_ptr_2
	.align 8
	.type	_TIG_iO_hgq6_1_GradeCheck_1_opaque_ptr_2, @object
	.size	_TIG_iO_hgq6_1_GradeCheck_1_opaque_ptr_2, 8
_TIG_iO_hgq6_1_GradeCheck_1_opaque_ptr_2:
	.zero	8
	.globl	_TIG_iO_hgq6_1___uint64_identity_1_opaque_list_2
	.align 8
	.type	_TIG_iO_hgq6_1___uint64_identity_1_opaque_list_2, @object
	.size	_TIG_iO_hgq6_1___uint64_identity_1_opaque_list_2, 8
_TIG_iO_hgq6_1___uint64_identity_1_opaque_list_2:
	.zero	8
	.globl	_TIG_iO_hgq6_1_main_1_opaque_ptr_2
	.align 8
	.type	_TIG_iO_hgq6_1_main_1_opaque_ptr_2, @object
	.size	_TIG_iO_hgq6_1_main_1_opaque_ptr_2, 8
_TIG_iO_hgq6_1_main_1_opaque_ptr_2:
	.zero	8
	.globl	_TIG_iO_hgq6_1___bswap_64_1_opaque_list_2
	.align 8
	.type	_TIG_iO_hgq6_1___bswap_64_1_opaque_list_2, @object
	.size	_TIG_iO_hgq6_1___bswap_64_1_opaque_list_2, 8
_TIG_iO_hgq6_1___bswap_64_1_opaque_list_2:
	.zero	8
	.globl	_TIG_iO_hgq6_1___bswap_32_1_opaque_ptr_1
	.align 8
	.type	_TIG_iO_hgq6_1___bswap_32_1_opaque_ptr_1, @object
	.size	_TIG_iO_hgq6_1___bswap_32_1_opaque_ptr_1, 8
_TIG_iO_hgq6_1___bswap_32_1_opaque_ptr_1:
	.zero	8
	.globl	_TIG_iO_hgq6_1___uint16_identity_1_opaque_ptr_1
	.align 8
	.type	_TIG_iO_hgq6_1___uint16_identity_1_opaque_ptr_1, @object
	.size	_TIG_iO_hgq6_1___uint16_identity_1_opaque_ptr_1, 8
_TIG_iO_hgq6_1___uint16_identity_1_opaque_ptr_1:
	.zero	8
	.globl	_TIG_iO_hgq6_1___bswap_16_1_opaque_ptr_1
	.align 8
	.type	_TIG_iO_hgq6_1___bswap_16_1_opaque_ptr_1, @object
	.size	_TIG_iO_hgq6_1___bswap_16_1_opaque_ptr_1, 8
_TIG_iO_hgq6_1___bswap_16_1_opaque_ptr_1:
	.zero	8
	.section	.rodata
.LC1:
	.string	"Grade A"
.LC2:
	.string	"Grade B"
.LC3:
	.string	"Grade C"
.LC4:
	.string	"Grade D"
.LC5:
	.string	"Grade E"
.LC6:
	.string	"Sorry yu failed"
.LC7:
	.string	"Wrong input."
	.text
	.globl	GradeCheck
	.type	GradeCheck, @function
GradeCheck:
.LFB0:
	.cfi_startproc
	endbr64
	pushq	%rbp
	.cfi_def_cfa_offset 16
	.cfi_offset 6, -16
	movq	%rsp, %rbp
	.cfi_def_cfa_register 6
	subq	$64, %rsp
	movss	%xmm0, -52(%rbp)
#APP
# 79 "/usr/include/stdlib.h" 1
	##_ANNOTATION_INITIALREGION_-TIG-iO-hgq6-1-GradeCheck--2
# 0 "" 2
# 83 "/usr/include/stdlib.h" 1
	##_ANNOTATION_ATOMICREGION_-TIG-iO-hgq6-1-GradeCheck--1
# 0 "" 2
#NO_APP
	movl	$24, %edi
	call	malloc@PLT
	movq	%rax, -32(%rbp)
	movq	-32(%rbp), %rax
	movq	-32(%rbp), %rdx
	movq	%rdx, 8(%rax)
	movq	-32(%rbp), %rax
	movq	-32(%rbp), %rdx
	movq	%rdx, (%rax)
	movq	-32(%rbp), %rax
	movq	%rax, _TIG_iO_hgq6_1_GradeCheck_1_opaque_list_1(%rip)
	call	rand@PLT
	movl	%eax, -44(%rbp)
	movl	$24, %edi
	call	malloc@PLT
	movq	%rax, -24(%rbp)
	movq	-24(%rbp), %rax
	movl	$0, 16(%rax)
	movq	_TIG_iO_hgq6_1_GradeCheck_1_opaque_list_1(%rip), %rax
	movq	8(%rax), %rdx
	movq	-24(%rbp), %rax
	movq	%rdx, 8(%rax)
	movq	_TIG_iO_hgq6_1_GradeCheck_1_opaque_list_1(%rip), %rdx
	movq	-24(%rbp), %rax
	movq	%rdx, (%rax)
	movq	_TIG_iO_hgq6_1_GradeCheck_1_opaque_list_1(%rip), %rax
	movq	8(%rax), %rax
	movq	-24(%rbp), %rdx
	movq	%rdx, (%rax)
	movq	_TIG_iO_hgq6_1_GradeCheck_1_opaque_list_1(%rip), %rax
	movq	-24(%rbp), %rdx
	movq	%rdx, 8(%rax)
	call	rand@PLT
	movl	%eax, -40(%rbp)
	movl	$24, %edi
	call	malloc@PLT
	movq	%rax, -16(%rbp)
	movq	-16(%rbp), %rax
	movl	-40(%rbp), %edx
	movl	%edx, 16(%rax)
	movq	_TIG_iO_hgq6_1_GradeCheck_1_opaque_list_1(%rip), %rax
	movq	8(%rax), %rdx
	movq	-16(%rbp), %rax
	movq	%rdx, 8(%rax)
	movq	_TIG_iO_hgq6_1_GradeCheck_1_opaque_list_1(%rip), %rdx
	movq	-16(%rbp), %rax
	movq	%rdx, (%rax)
	movq	_TIG_iO_hgq6_1_GradeCheck_1_opaque_list_1(%rip), %rax
	movq	8(%rax), %rax
	movq	-16(%rbp), %rdx
	movq	%rdx, (%rax)
	movq	_TIG_iO_hgq6_1_GradeCheck_1_opaque_list_1(%rip), %rax
	movq	-16(%rbp), %rdx
	movq	%rdx, 8(%rax)
	movq	_TIG_iO_hgq6_1_GradeCheck_1_opaque_list_1(%rip), %rax
	movq	8(%rax), %rax
	movq	%rax, _TIG_iO_hgq6_1_GradeCheck_1_opaque_ptr_1(%rip)
	movq	_TIG_iO_hgq6_1_GradeCheck_1_opaque_ptr_1(%rip), %rax
	movq	%rax, _TIG_iO_hgq6_1_GradeCheck_1_opaque_ptr_2(%rip)
	nop
	nop
	pxor	%xmm2, %xmm2
	cvtss2sd	-52(%rbp), %xmm2
	movq	%xmm2, %rax
	movq	%rax, %xmm0
	call	round@PLT
	movq	%xmm0, %rax
	movq	%rax, -8(%rbp)
	movsd	-8(%rbp), %xmm0
	movsd	.LC0(%rip), %xmm1
	divsd	%xmm1, %xmm0
	cvttsd2sil	%xmm0, %eax
	movl	%eax, -36(%rbp)
	cmpl	$9, -36(%rbp)
	ja	.L2
	movl	-36(%rbp), %eax
	leaq	0(,%rax,4), %rdx
	leaq	.L4(%rip), %rax
	movl	(%rdx,%rax), %eax
	cltq
	leaq	.L4(%rip), %rdx
	addq	%rdx, %rax
	notrack jmp	*%rax
	.section	.rodata
	.align 4
	.align 4
.L4:
	.long	.L13-.L4
	.long	.L12-.L4
	.long	.L11-.L4
	.long	.L10-.L4
	.long	.L9-.L4
	.long	.L8-.L4
	.long	.L7-.L4
	.long	.L6-.L4
	.long	.L5-.L4
	.long	.L3-.L4
	.text
.L3:
	leaq	.LC1(%rip), %rax
	movq	%rax, %rdi
	movl	$0, %eax
	call	printf@PLT
	jmp	.L14
.L5:
	leaq	.LC2(%rip), %rax
	movq	%rax, %rdi
	movl	$0, %eax
	call	printf@PLT
	jmp	.L14
.L6:
	leaq	.LC3(%rip), %rax
	movq	%rax, %rdi
	movl	$0, %eax
	call	printf@PLT
	jmp	.L14
.L7:
	leaq	.LC4(%rip), %rax
	movq	%rax, %rdi
	movl	$0, %eax
	call	printf@PLT
	jmp	.L14
.L8:
	leaq	.LC5(%rip), %rax
	movq	%rax, %rdi
	movl	$0, %eax
	call	printf@PLT
	jmp	.L14
.L9:
	leaq	.LC6(%rip), %rax
	movq	%rax, %rdi
	movl	$0, %eax
	call	printf@PLT
	jmp	.L14
.L10:
	leaq	.LC6(%rip), %rax
	movq	%rax, %rdi
	movl	$0, %eax
	call	printf@PLT
	movq	_TIG_iO_hgq6_1_main_1_opaque_ptr_1(%rip), %rdx
	movq	_TIG_iO_hgq6_1_main_1_opaque_ptr_2(%rip), %rax
	cmpq	%rax, %rdx
	je	.L17
	movzbl	-45(%rbp), %eax
	jmp	.L16
.L11:
	leaq	.LC6(%rip), %rax
	movq	%rax, %rdi
	movl	$0, %eax
	call	printf@PLT
	jmp	.L14
.L12:
	leaq	.LC6(%rip), %rax
	movq	%rax, %rdi
	movl	$0, %eax
	call	printf@PLT
	jmp	.L14
.L13:
	leaq	.LC6(%rip), %rax
	movq	%rax, %rdi
	movl	$0, %eax
	call	printf@PLT
	jmp	.L14
.L2:
	leaq	.LC7(%rip), %rax
	movq	%rax, %rdi
	movl	$0, %eax
	call	printf@PLT
	jmp	.L14
.L17:
	nop
.L14:
	movl	$0, %eax
.L16:
	leave
	.cfi_def_cfa 7, 8
	ret
	.cfi_endproc
.LFE0:
	.size	GradeCheck, .-GradeCheck
	.section	.rodata
.LC8:
	.string	"Please enter your mark"
.LC9:
	.string	"%f"
	.text
	.globl	main
	.type	main, @function
main:
.LFB7:
	.cfi_startproc
	endbr64
	pushq	%rbp
	.cfi_def_cfa_offset 16
	.cfi_offset 6, -16
	movq	%rsp, %rbp
	.cfi_def_cfa_register 6
	subq	$80, %rsp
	movl	%edi, -52(%rbp)
	movq	%rsi, -64(%rbp)
	movq	%rdx, -72(%rbp)
	movq	%fs:40, %rax
	movq	%rax, -8(%rbp)
	xorl	%eax, %eax
	movq	$0, _TIG_IZ_hgq6_envp(%rip)
	nop
.L19:
	movq	$0, _TIG_IZ_hgq6_argv(%rip)
	nop
.L20:
	movl	$0, _TIG_IZ_hgq6_argc(%rip)
	nop
	nop
.L21:
.L22:
#APP
# 83 "/usr/include/x86_64-linux-gnu/bits/byteswap.h" 1
	##_ANNOTATION_INITIALREGION_-TIG-IZ-hgq6--0
# 0 "" 2
#NO_APP
	movl	-52(%rbp), %eax
	movl	%eax, _TIG_IZ_hgq6_argc(%rip)
	movq	-64(%rbp), %rax
	movq	%rax, _TIG_IZ_hgq6_argv(%rip)
	movq	-72(%rbp), %rax
	movq	%rax, _TIG_IZ_hgq6_envp(%rip)
#APP
# 90 "/usr/include/x86_64-linux-gnu/bits/byteswap.h" 1
	##_ANNOTATION_ATOMICREGION_-TIG-iO-hgq6-1-main--15
# 0 "" 2
#NO_APP
	movl	$24, %edi
	call	malloc@PLT
	movq	%rax, -32(%rbp)
	movq	-32(%rbp), %rax
	movq	-32(%rbp), %rdx
	movq	%rdx, 16(%rax)
	movq	-32(%rbp), %rax
	movq	-32(%rbp), %rdx
	movq	%rdx, 8(%rax)
	movq	-32(%rbp), %rax
	movq	%rax, _TIG_iO_hgq6_1_main_1_opaque_list_1(%rip)
	call	rand@PLT
	movl	%eax, -40(%rbp)
	movl	$24, %edi
	call	malloc@PLT
	movq	%rax, -24(%rbp)
	movq	-24(%rbp), %rax
	movl	$0, (%rax)
	movq	_TIG_iO_hgq6_1_main_1_opaque_list_1(%rip), %rax
	movq	16(%rax), %rdx
	movq	-24(%rbp), %rax
	movq	%rdx, 16(%rax)
	movq	_TIG_iO_hgq6_1_main_1_opaque_list_1(%rip), %rdx
	movq	-24(%rbp), %rax
	movq	%rdx, 8(%rax)
	movq	_TIG_iO_hgq6_1_main_1_opaque_list_1(%rip), %rax
	movq	16(%rax), %rax
	movq	-24(%rbp), %rdx
	movq	%rdx, 8(%rax)
	movq	_TIG_iO_hgq6_1_main_1_opaque_list_1(%rip), %rax
	movq	-24(%rbp), %rdx
	movq	%rdx, 16(%rax)
	call	rand@PLT
	movl	%eax, -36(%rbp)
	movl	$24, %edi
	call	malloc@PLT
	movq	%rax, -16(%rbp)
	movq	-16(%rbp), %rax
	movl	-36(%rbp), %edx
	movl	%edx, (%rax)
	movq	_TIG_iO_hgq6_1_main_1_opaque_list_1(%rip), %rax
	movq	16(%rax), %rdx
	movq	-16(%rbp), %rax
	movq	%rdx, 16(%rax)
	movq	_TIG_iO_hgq6_1_main_1_opaque_list_1(%rip), %rdx
	movq	-16(%rbp), %rax
	movq	%rdx, 8(%rax)
	movq	_TIG_iO_hgq6_1_main_1_opaque_list_1(%rip), %rax
	movq	16(%rax), %rax
	movq	-16(%rbp), %rdx
	movq	%rdx, 8(%rax)
	movq	_TIG_iO_hgq6_1_main_1_opaque_list_1(%rip), %rax
	movq	-16(%rbp), %rdx
	movq	%rdx, 16(%rax)
	movq	_TIG_iO_hgq6_1_main_1_opaque_list_1(%rip), %rax
	movq	16(%rax), %rax
	movq	%rax, _TIG_iO_hgq6_1_main_1_opaque_ptr_1(%rip)
	movq	_TIG_iO_hgq6_1_main_1_opaque_ptr_1(%rip), %rax
	movq	%rax, _TIG_iO_hgq6_1_main_1_opaque_ptr_2(%rip)
	nop
	nop
	movq	_TIG_iO_hgq6_1_main_1_opaque_ptr_1(%rip), %rdx
	movq	_TIG_iO_hgq6_1_main_1_opaque_ptr_2(%rip), %rax
	cmpq	%rax, %rdx
	je	.L23
	movq	-64(%rbp), %rdx
	movq	-64(%rbp), %rcx
	movl	-40(%rbp), %eax
	movq	%rcx, %rsi
	movl	%eax, %edi
	call	main
.L23:
	leaq	.LC8(%rip), %rax
	movq	%rax, %rdi
	call	puts@PLT
	leaq	-44(%rbp), %rax
	movq	%rax, %rsi
	leaq	.LC9(%rip), %rax
	movq	%rax, %rdi
	movl	$0, %eax
	call	__isoc99_scanf@PLT
	movl	-44(%rbp), %eax
	movd	%eax, %xmm0
	call	GradeCheck
	nop
	movq	-8(%rbp), %rax
	subq	%fs:40, %rax
	je	.L25
	call	__stack_chk_fail@PLT
.L25:
	leave
	.cfi_def_cfa 7, 8
	ret
	.cfi_endproc
.LFE7:
	.size	main, .-main
	.section	.rodata
	.align 8
.LC0:
	.long	0
	.long	1076101120
	.ident	"GCC: (Ubuntu 11.4.0-1ubuntu1~22.04) 11.4.0"
	.section	.note.GNU-stack,"",@progbits
	.section	.note.gnu.property,"a"
	.align 8
	.long	1f - 0f
	.long	4f - 1f
	.long	5
0:
	.string	"GNU"
1:
	.align 8
	.long	0xc0000002
	.long	3f - 2f
2:
	.long	0x3
3:
	.align 8
4:
