	.file	"btelles_head_first_c_variadic_dynamic_params_drink_opaque.c"
	.text
	.globl	_TIG_iO_ESyT_1_price_1_opaque_list_2
	.bss
	.align 8
	.type	_TIG_iO_ESyT_1_price_1_opaque_list_2, @object
	.size	_TIG_iO_ESyT_1_price_1_opaque_list_2, 8
_TIG_iO_ESyT_1_price_1_opaque_list_2:
	.zero	8
	.globl	_TIG_iO_ESyT_1___uint32_identity_1_opaque_list_2
	.align 8
	.type	_TIG_iO_ESyT_1___uint32_identity_1_opaque_list_2, @object
	.size	_TIG_iO_ESyT_1___uint32_identity_1_opaque_list_2, 8
_TIG_iO_ESyT_1___uint32_identity_1_opaque_list_2:
	.zero	8
	.globl	_TIG_iO_ESyT_1___bswap_64_1_opaque_ptr_1
	.align 8
	.type	_TIG_iO_ESyT_1___bswap_64_1_opaque_ptr_1, @object
	.size	_TIG_iO_ESyT_1___bswap_64_1_opaque_ptr_1, 8
_TIG_iO_ESyT_1___bswap_64_1_opaque_ptr_1:
	.zero	8
	.globl	_TIG_iO_ESyT_1___bswap_64_1_opaque_list_2
	.align 8
	.type	_TIG_iO_ESyT_1___bswap_64_1_opaque_list_2, @object
	.size	_TIG_iO_ESyT_1___bswap_64_1_opaque_list_2, 8
_TIG_iO_ESyT_1___bswap_64_1_opaque_list_2:
	.zero	8
	.globl	_TIG_iO_ESyT_1___uint64_identity_1_opaque_ptr_2
	.align 8
	.type	_TIG_iO_ESyT_1___uint64_identity_1_opaque_ptr_2, @object
	.size	_TIG_iO_ESyT_1___uint64_identity_1_opaque_ptr_2, 8
_TIG_iO_ESyT_1___uint64_identity_1_opaque_ptr_2:
	.zero	8
	.globl	_TIG_iO_ESyT_1___uint16_identity_1_opaque_list_1
	.align 8
	.type	_TIG_iO_ESyT_1___uint16_identity_1_opaque_list_1, @object
	.size	_TIG_iO_ESyT_1___uint16_identity_1_opaque_list_1, 8
_TIG_iO_ESyT_1___uint16_identity_1_opaque_list_1:
	.zero	8
	.globl	_TIG_iO_ESyT_1_total_1_opaque_ptr_1
	.align 8
	.type	_TIG_iO_ESyT_1_total_1_opaque_ptr_1, @object
	.size	_TIG_iO_ESyT_1_total_1_opaque_ptr_1, 8
_TIG_iO_ESyT_1_total_1_opaque_ptr_1:
	.zero	8
	.globl	_TIG_iO_ESyT_1___bswap_16_1_opaque_ptr_1
	.align 8
	.type	_TIG_iO_ESyT_1___bswap_16_1_opaque_ptr_1, @object
	.size	_TIG_iO_ESyT_1___bswap_16_1_opaque_ptr_1, 8
_TIG_iO_ESyT_1___bswap_16_1_opaque_ptr_1:
	.zero	8
	.globl	_TIG_iO_ESyT_1___uint16_identity_1_opaque_list_2
	.align 8
	.type	_TIG_iO_ESyT_1___uint16_identity_1_opaque_list_2, @object
	.size	_TIG_iO_ESyT_1___uint16_identity_1_opaque_list_2, 8
_TIG_iO_ESyT_1___uint16_identity_1_opaque_list_2:
	.zero	8
	.globl	_TIG_iO_ESyT_1___uint16_identity_1_opaque_ptr_1
	.align 8
	.type	_TIG_iO_ESyT_1___uint16_identity_1_opaque_ptr_1, @object
	.size	_TIG_iO_ESyT_1___uint16_identity_1_opaque_ptr_1, 8
_TIG_iO_ESyT_1___uint16_identity_1_opaque_ptr_1:
	.zero	8
	.globl	_TIG_iO_ESyT_1_price_1_opaque_ptr_2
	.align 8
	.type	_TIG_iO_ESyT_1_price_1_opaque_ptr_2, @object
	.size	_TIG_iO_ESyT_1_price_1_opaque_ptr_2, 8
_TIG_iO_ESyT_1_price_1_opaque_ptr_2:
	.zero	8
	.globl	_TIG_iO_ESyT_1_main_1_opaque_ptr_1
	.align 8
	.type	_TIG_iO_ESyT_1_main_1_opaque_ptr_1, @object
	.size	_TIG_iO_ESyT_1_main_1_opaque_ptr_1, 8
_TIG_iO_ESyT_1_main_1_opaque_ptr_1:
	.zero	8
	.globl	_TIG_iO_ESyT_1___uint64_identity_1_opaque_ptr_1
	.align 8
	.type	_TIG_iO_ESyT_1___uint64_identity_1_opaque_ptr_1, @object
	.size	_TIG_iO_ESyT_1___uint64_identity_1_opaque_ptr_1, 8
_TIG_iO_ESyT_1___uint64_identity_1_opaque_ptr_1:
	.zero	8
	.globl	_TIG_iO_ESyT_1_main_1_opaque_list_1
	.align 8
	.type	_TIG_iO_ESyT_1_main_1_opaque_list_1, @object
	.size	_TIG_iO_ESyT_1_main_1_opaque_list_1, 8
_TIG_iO_ESyT_1_main_1_opaque_list_1:
	.zero	8
	.globl	_TIG_iO_ESyT_1_total_1_opaque_ptr_2
	.align 8
	.type	_TIG_iO_ESyT_1_total_1_opaque_ptr_2, @object
	.size	_TIG_iO_ESyT_1_total_1_opaque_ptr_2, 8
_TIG_iO_ESyT_1_total_1_opaque_ptr_2:
	.zero	8
	.globl	_TIG_iO_ESyT_1___bswap_64_1_opaque_ptr_2
	.align 8
	.type	_TIG_iO_ESyT_1___bswap_64_1_opaque_ptr_2, @object
	.size	_TIG_iO_ESyT_1___bswap_64_1_opaque_ptr_2, 8
_TIG_iO_ESyT_1___bswap_64_1_opaque_ptr_2:
	.zero	8
	.globl	_TIG_iO_ESyT_1_main_1_opaque_list_2
	.align 8
	.type	_TIG_iO_ESyT_1_main_1_opaque_list_2, @object
	.size	_TIG_iO_ESyT_1_main_1_opaque_list_2, 8
_TIG_iO_ESyT_1_main_1_opaque_list_2:
	.zero	8
	.globl	_TIG_iO_ESyT_1___uint32_identity_1_opaque_ptr_2
	.align 8
	.type	_TIG_iO_ESyT_1___uint32_identity_1_opaque_ptr_2, @object
	.size	_TIG_iO_ESyT_1___uint32_identity_1_opaque_ptr_2, 8
_TIG_iO_ESyT_1___uint32_identity_1_opaque_ptr_2:
	.zero	8
	.globl	_TIG_iO_ESyT_1_main_1_opaque_ptr_2
	.align 8
	.type	_TIG_iO_ESyT_1_main_1_opaque_ptr_2, @object
	.size	_TIG_iO_ESyT_1_main_1_opaque_ptr_2, 8
_TIG_iO_ESyT_1_main_1_opaque_ptr_2:
	.zero	8
	.globl	_TIG_iO_ESyT_1___bswap_64_1_opaque_list_1
	.align 8
	.type	_TIG_iO_ESyT_1___bswap_64_1_opaque_list_1, @object
	.size	_TIG_iO_ESyT_1___bswap_64_1_opaque_list_1, 8
_TIG_iO_ESyT_1___bswap_64_1_opaque_list_1:
	.zero	8
	.globl	_TIG_IZ_ESyT_argc
	.align 4
	.type	_TIG_IZ_ESyT_argc, @object
	.size	_TIG_IZ_ESyT_argc, 4
_TIG_IZ_ESyT_argc:
	.zero	4
	.globl	_TIG_iO_ESyT_1___bswap_32_1_opaque_ptr_1
	.align 8
	.type	_TIG_iO_ESyT_1___bswap_32_1_opaque_ptr_1, @object
	.size	_TIG_iO_ESyT_1___bswap_32_1_opaque_ptr_1, 8
_TIG_iO_ESyT_1___bswap_32_1_opaque_ptr_1:
	.zero	8
	.globl	_TIG_iO_ESyT_1_price_1_opaque_ptr_1
	.align 8
	.type	_TIG_iO_ESyT_1_price_1_opaque_ptr_1, @object
	.size	_TIG_iO_ESyT_1_price_1_opaque_ptr_1, 8
_TIG_iO_ESyT_1_price_1_opaque_ptr_1:
	.zero	8
	.globl	_TIG_iO_ESyT_1___bswap_32_1_opaque_list_1
	.align 8
	.type	_TIG_iO_ESyT_1___bswap_32_1_opaque_list_1, @object
	.size	_TIG_iO_ESyT_1___bswap_32_1_opaque_list_1, 8
_TIG_iO_ESyT_1___bswap_32_1_opaque_list_1:
	.zero	8
	.globl	_TIG_iO_ESyT_1___bswap_16_1_opaque_list_1
	.align 8
	.type	_TIG_iO_ESyT_1___bswap_16_1_opaque_list_1, @object
	.size	_TIG_iO_ESyT_1___bswap_16_1_opaque_list_1, 8
_TIG_iO_ESyT_1___bswap_16_1_opaque_list_1:
	.zero	8
	.globl	_TIG_iO_ESyT_1___uint64_identity_1_opaque_list_1
	.align 8
	.type	_TIG_iO_ESyT_1___uint64_identity_1_opaque_list_1, @object
	.size	_TIG_iO_ESyT_1___uint64_identity_1_opaque_list_1, 8
_TIG_iO_ESyT_1___uint64_identity_1_opaque_list_1:
	.zero	8
	.globl	_TIG_IZ_ESyT_argv
	.align 8
	.type	_TIG_IZ_ESyT_argv, @object
	.size	_TIG_IZ_ESyT_argv, 8
_TIG_IZ_ESyT_argv:
	.zero	8
	.globl	_TIG_iO_ESyT_1_total_1_opaque_list_2
	.align 8
	.type	_TIG_iO_ESyT_1_total_1_opaque_list_2, @object
	.size	_TIG_iO_ESyT_1_total_1_opaque_list_2, 8
_TIG_iO_ESyT_1_total_1_opaque_list_2:
	.zero	8
	.globl	_TIG_iO_ESyT_1_total_1_opaque_list_1
	.align 8
	.type	_TIG_iO_ESyT_1_total_1_opaque_list_1, @object
	.size	_TIG_iO_ESyT_1_total_1_opaque_list_1, 8
_TIG_iO_ESyT_1_total_1_opaque_list_1:
	.zero	8
	.globl	_TIG_iO_ESyT_1___uint32_identity_1_opaque_ptr_1
	.align 8
	.type	_TIG_iO_ESyT_1___uint32_identity_1_opaque_ptr_1, @object
	.size	_TIG_iO_ESyT_1___uint32_identity_1_opaque_ptr_1, 8
_TIG_iO_ESyT_1___uint32_identity_1_opaque_ptr_1:
	.zero	8
	.globl	_TIG_iO_ESyT_1___bswap_32_1_opaque_ptr_2
	.align 8
	.type	_TIG_iO_ESyT_1___bswap_32_1_opaque_ptr_2, @object
	.size	_TIG_iO_ESyT_1___bswap_32_1_opaque_ptr_2, 8
_TIG_iO_ESyT_1___bswap_32_1_opaque_ptr_2:
	.zero	8
	.globl	_TIG_iO_ESyT_1___bswap_32_1_opaque_list_2
	.align 8
	.type	_TIG_iO_ESyT_1___bswap_32_1_opaque_list_2, @object
	.size	_TIG_iO_ESyT_1___bswap_32_1_opaque_list_2, 8
_TIG_iO_ESyT_1___bswap_32_1_opaque_list_2:
	.zero	8
	.globl	_TIG_iO_ESyT_1_price_1_opaque_list_1
	.align 8
	.type	_TIG_iO_ESyT_1_price_1_opaque_list_1, @object
	.size	_TIG_iO_ESyT_1_price_1_opaque_list_1, 8
_TIG_iO_ESyT_1_price_1_opaque_list_1:
	.zero	8
	.globl	_TIG_IZ_ESyT_envp
	.align 8
	.type	_TIG_IZ_ESyT_envp, @object
	.size	_TIG_IZ_ESyT_envp, 8
_TIG_IZ_ESyT_envp:
	.zero	8
	.globl	_TIG_iO_ESyT_1___uint64_identity_1_opaque_list_2
	.align 8
	.type	_TIG_iO_ESyT_1___uint64_identity_1_opaque_list_2, @object
	.size	_TIG_iO_ESyT_1___uint64_identity_1_opaque_list_2, 8
_TIG_iO_ESyT_1___uint64_identity_1_opaque_list_2:
	.zero	8
	.globl	_TIG_iO_ESyT_1___bswap_16_1_opaque_ptr_2
	.align 8
	.type	_TIG_iO_ESyT_1___bswap_16_1_opaque_ptr_2, @object
	.size	_TIG_iO_ESyT_1___bswap_16_1_opaque_ptr_2, 8
_TIG_iO_ESyT_1___bswap_16_1_opaque_ptr_2:
	.zero	8
	.globl	_TIG_iO_ESyT_1___uint16_identity_1_opaque_ptr_2
	.align 8
	.type	_TIG_iO_ESyT_1___uint16_identity_1_opaque_ptr_2, @object
	.size	_TIG_iO_ESyT_1___uint16_identity_1_opaque_ptr_2, 8
_TIG_iO_ESyT_1___uint16_identity_1_opaque_ptr_2:
	.zero	8
	.globl	_TIG_iO_ESyT_1___bswap_16_1_opaque_list_2
	.align 8
	.type	_TIG_iO_ESyT_1___bswap_16_1_opaque_list_2, @object
	.size	_TIG_iO_ESyT_1___bswap_16_1_opaque_list_2, 8
_TIG_iO_ESyT_1___bswap_16_1_opaque_list_2:
	.zero	8
	.globl	_TIG_iO_ESyT_1___uint32_identity_1_opaque_list_1
	.align 8
	.type	_TIG_iO_ESyT_1___uint32_identity_1_opaque_list_1, @object
	.size	_TIG_iO_ESyT_1___uint32_identity_1_opaque_list_1, 8
_TIG_iO_ESyT_1___uint32_identity_1_opaque_list_1:
	.zero	8
	.text
	.globl	total
	.type	total, @function
total:
.LFB1:
	.cfi_startproc
	endbr64
	pushq	%rbp
	.cfi_def_cfa_offset 16
	.cfi_offset 6, -16
	movq	%rsp, %rbp
	.cfi_def_cfa_register 6
	subq	$288, %rsp
	movl	%edi, -276(%rbp)
	movq	%rsi, -168(%rbp)
	movq	%rdx, -160(%rbp)
	movq	%rcx, -152(%rbp)
	movq	%r8, -144(%rbp)
	movq	%r9, -136(%rbp)
	testb	%al, %al
	je	.L2
	movaps	%xmm0, -128(%rbp)
	movaps	%xmm1, -112(%rbp)
	movaps	%xmm2, -96(%rbp)
	movaps	%xmm3, -80(%rbp)
	movaps	%xmm4, -64(%rbp)
	movaps	%xmm5, -48(%rbp)
	movaps	%xmm6, -32(%rbp)
	movaps	%xmm7, -16(%rbp)
.L2:
	movq	%fs:40, %rax
	movq	%rax, -184(%rbp)
	xorl	%eax, %eax
#APP
# 94 "/usr/include/x86_64-linux-gnu/bits/byteswap.h" 1
	##_ANNOTATION_INITIALREGION_-TIG-iO-ESyT-1-total--18
# 0 "" 2
# 98 "/usr/include/x86_64-linux-gnu/bits/byteswap.h" 1
	##_ANNOTATION_ATOMICREGION_-TIG-iO-ESyT-1-total--17
# 0 "" 2
#NO_APP
	movl	$24, %edi
	call	malloc@PLT
	movq	%rax, -248(%rbp)
	movq	-248(%rbp), %rax
	movq	-248(%rbp), %rdx
	movq	%rdx, 8(%rax)
	movq	-248(%rbp), %rax
	movq	-248(%rbp), %rdx
	movq	%rdx, (%rax)
	movq	-248(%rbp), %rax
	movq	%rax, _TIG_iO_ESyT_1_total_1_opaque_list_1(%rip)
	call	rand@PLT
	movl	%eax, -264(%rbp)
	movl	$24, %edi
	call	malloc@PLT
	movq	%rax, -240(%rbp)
	movq	-240(%rbp), %rax
	movl	$0, 16(%rax)
	movq	_TIG_iO_ESyT_1_total_1_opaque_list_1(%rip), %rax
	movq	8(%rax), %rdx
	movq	-240(%rbp), %rax
	movq	%rdx, 8(%rax)
	movq	_TIG_iO_ESyT_1_total_1_opaque_list_1(%rip), %rdx
	movq	-240(%rbp), %rax
	movq	%rdx, (%rax)
	movq	_TIG_iO_ESyT_1_total_1_opaque_list_1(%rip), %rax
	movq	8(%rax), %rax
	movq	-240(%rbp), %rdx
	movq	%rdx, (%rax)
	movq	_TIG_iO_ESyT_1_total_1_opaque_list_1(%rip), %rax
	movq	-240(%rbp), %rdx
	movq	%rdx, 8(%rax)
	call	rand@PLT
	movl	%eax, -260(%rbp)
	movl	$24, %edi
	call	malloc@PLT
	movq	%rax, -232(%rbp)
	movq	-232(%rbp), %rax
	movl	-260(%rbp), %edx
	movl	%edx, 16(%rax)
	movq	_TIG_iO_ESyT_1_total_1_opaque_list_1(%rip), %rax
	movq	8(%rax), %rdx
	movq	-232(%rbp), %rax
	movq	%rdx, 8(%rax)
	movq	_TIG_iO_ESyT_1_total_1_opaque_list_1(%rip), %rdx
	movq	-232(%rbp), %rax
	movq	%rdx, (%rax)
	movq	_TIG_iO_ESyT_1_total_1_opaque_list_1(%rip), %rax
	movq	8(%rax), %rax
	movq	-232(%rbp), %rdx
	movq	%rdx, (%rax)
	movq	_TIG_iO_ESyT_1_total_1_opaque_list_1(%rip), %rax
	movq	-232(%rbp), %rdx
	movq	%rdx, 8(%rax)
	movq	_TIG_iO_ESyT_1_total_1_opaque_list_1(%rip), %rax
	movq	8(%rax), %rax
	movq	%rax, _TIG_iO_ESyT_1_total_1_opaque_ptr_1(%rip)
	movq	_TIG_iO_ESyT_1_total_1_opaque_ptr_1(%rip), %rax
	movq	%rax, _TIG_iO_ESyT_1_total_1_opaque_ptr_2(%rip)
	movq	_TIG_iO_ESyT_1_total_1_opaque_ptr_2(%rip), %rax
	movq	8(%rax), %rax
	movq	%rax, _TIG_iO_ESyT_1_total_1_opaque_ptr_2(%rip)
	nop
	nop
	pxor	%xmm0, %xmm0
	movsd	%xmm0, -256(%rbp)
	movl	$8, -208(%rbp)
	movl	$48, -204(%rbp)
	leaq	16(%rbp), %rax
	movq	%rax, -200(%rbp)
	leaq	-176(%rbp), %rax
	movq	%rax, -192(%rbp)
	movl	$0, -268(%rbp)
	movq	_TIG_iO_ESyT_1_total_1_opaque_ptr_1(%rip), %rdx
	movq	_TIG_iO_ESyT_1_total_1_opaque_ptr_2(%rip), %rax
	cmpq	%rax, %rdx
	jne	.L4
	movl	-264(%rbp), %eax
	movl	%eax, %edi
	movl	$0, %eax
	call	total
	movq	%xmm0, %rax
	movq	%rax, -256(%rbp)
	jmp	.L4
.L7:
	movl	-204(%rbp), %eax
	cmpl	$175, %eax
	ja	.L5
	movq	-192(%rbp), %rax
	movl	-204(%rbp), %edx
	movl	%edx, %edx
	addq	%rdx, %rax
	movl	-204(%rbp), %edx
	addl	$16, %edx
	movl	%edx, -204(%rbp)
	jmp	.L6
.L5:
	movq	-200(%rbp), %rax
	leaq	8(%rax), %rdx
	movq	%rdx, -200(%rbp)
.L6:
	movsd	(%rax), %xmm0
	movsd	%xmm0, -224(%rbp)
	movsd	-224(%rbp), %xmm0
	cvttsd2siq	%xmm0, %rax
	movl	%eax, %edi
	call	price
	movq	%xmm0, %rax
	movq	%rax, -216(%rbp)
	movsd	-256(%rbp), %xmm0
	addsd	-216(%rbp), %xmm0
	movsd	%xmm0, -256(%rbp)
	addl	$1, -268(%rbp)
.L4:
	movl	-268(%rbp), %eax
	cmpl	-276(%rbp), %eax
	jl	.L7
	movsd	-256(%rbp), %xmm0
	movq	%xmm0, %rax
	movq	-184(%rbp), %rdx
	subq	%fs:40, %rdx
	je	.L9
	call	__stack_chk_fail@PLT
.L9:
	movq	%rax, %xmm0
	leave
	.cfi_def_cfa 7, 8
	ret
	.cfi_endproc
.LFE1:
	.size	total, .-total
	.section	.rodata
.LC1:
	.string	"Total price is %f\n"
	.text
	.globl	main
	.type	main, @function
main:
.LFB6:
	.cfi_startproc
	endbr64
	pushq	%rbp
	.cfi_def_cfa_offset 16
	.cfi_offset 6, -16
	movq	%rsp, %rbp
	.cfi_def_cfa_register 6
	subq	$112, %rsp
	movl	%edi, -84(%rbp)
	movq	%rsi, -96(%rbp)
	movq	%rdx, -104(%rbp)
	movq	$0, _TIG_IZ_ESyT_envp(%rip)
	nop
.L11:
	movq	$0, _TIG_IZ_ESyT_argv(%rip)
	nop
.L12:
	movl	$0, _TIG_IZ_ESyT_argc(%rip)
	nop
	nop
.L13:
.L14:
#APP
# 102 "/usr/include/x86_64-linux-gnu/bits/byteswap.h" 1
	##_ANNOTATION_INITIALREGION_-TIG-IZ-ESyT--0
# 0 "" 2
#NO_APP
	movl	-84(%rbp), %eax
	movl	%eax, _TIG_IZ_ESyT_argc(%rip)
	movq	-96(%rbp), %rax
	movq	%rax, _TIG_IZ_ESyT_argv(%rip)
	movq	-104(%rbp), %rax
	movq	%rax, _TIG_IZ_ESyT_envp(%rip)
#APP
# 109 "/usr/include/x86_64-linux-gnu/bits/byteswap.h" 1
	##_ANNOTATION_ATOMICREGION_-TIG-iO-ESyT-1-main--13
# 0 "" 2
#NO_APP
	movl	$24, %edi
	call	malloc@PLT
	movq	%rax, -56(%rbp)
	movq	-56(%rbp), %rax
	movq	-56(%rbp), %rdx
	movq	%rdx, (%rax)
	movq	-56(%rbp), %rax
	movq	-56(%rbp), %rdx
	movq	%rdx, 8(%rax)
	movq	-56(%rbp), %rax
	movq	%rax, _TIG_iO_ESyT_1_main_1_opaque_list_1(%rip)
	call	rand@PLT
	movl	%eax, -72(%rbp)
	movl	$24, %edi
	call	malloc@PLT
	movq	%rax, -48(%rbp)
	movq	-48(%rbp), %rax
	movl	$0, 16(%rax)
	movq	_TIG_iO_ESyT_1_main_1_opaque_list_1(%rip), %rax
	movq	(%rax), %rdx
	movq	-48(%rbp), %rax
	movq	%rdx, (%rax)
	movq	_TIG_iO_ESyT_1_main_1_opaque_list_1(%rip), %rdx
	movq	-48(%rbp), %rax
	movq	%rdx, 8(%rax)
	movq	_TIG_iO_ESyT_1_main_1_opaque_list_1(%rip), %rax
	movq	(%rax), %rax
	movq	-48(%rbp), %rdx
	movq	%rdx, 8(%rax)
	movq	_TIG_iO_ESyT_1_main_1_opaque_list_1(%rip), %rax
	movq	-48(%rbp), %rdx
	movq	%rdx, (%rax)
	call	rand@PLT
	movl	%eax, -68(%rbp)
	movl	$24, %edi
	call	malloc@PLT
	movq	%rax, -40(%rbp)
	movq	-40(%rbp), %rax
	movl	-68(%rbp), %edx
	movl	%edx, 16(%rax)
	movq	_TIG_iO_ESyT_1_main_1_opaque_list_1(%rip), %rax
	movq	(%rax), %rdx
	movq	-40(%rbp), %rax
	movq	%rdx, (%rax)
	movq	_TIG_iO_ESyT_1_main_1_opaque_list_1(%rip), %rdx
	movq	-40(%rbp), %rax
	movq	%rdx, 8(%rax)
	movq	_TIG_iO_ESyT_1_main_1_opaque_list_1(%rip), %rax
	movq	(%rax), %rax
	movq	-40(%rbp), %rdx
	movq	%rdx, 8(%rax)
	movq	_TIG_iO_ESyT_1_main_1_opaque_list_1(%rip), %rax
	movq	-40(%rbp), %rdx
	movq	%rdx, (%rax)
	call	rand@PLT
	movl	%eax, -64(%rbp)
	movl	$24, %edi
	call	malloc@PLT
	movq	%rax, -32(%rbp)
	movl	-64(%rbp), %eax
	leal	(%rax,%rax), %edx
	movq	-32(%rbp), %rax
	movl	%edx, 16(%rax)
	movq	_TIG_iO_ESyT_1_main_1_opaque_list_1(%rip), %rax
	movq	(%rax), %rdx
	movq	-32(%rbp), %rax
	movq	%rdx, (%rax)
	movq	_TIG_iO_ESyT_1_main_1_opaque_list_1(%rip), %rdx
	movq	-32(%rbp), %rax
	movq	%rdx, 8(%rax)
	movq	_TIG_iO_ESyT_1_main_1_opaque_list_1(%rip), %rax
	movq	(%rax), %rax
	movq	-32(%rbp), %rdx
	movq	%rdx, 8(%rax)
	movq	_TIG_iO_ESyT_1_main_1_opaque_list_1(%rip), %rax
	movq	-32(%rbp), %rdx
	movq	%rdx, (%rax)
	call	rand@PLT
	movl	%eax, -60(%rbp)
	movl	$24, %edi
	call	malloc@PLT
	movq	%rax, -24(%rbp)
	movl	-60(%rbp), %edx
	movl	%edx, %eax
	addl	%eax, %eax
	addl	%eax, %edx
	movq	-24(%rbp), %rax
	movl	%edx, 16(%rax)
	movq	_TIG_iO_ESyT_1_main_1_opaque_list_1(%rip), %rax
	movq	(%rax), %rdx
	movq	-24(%rbp), %rax
	movq	%rdx, (%rax)
	movq	_TIG_iO_ESyT_1_main_1_opaque_list_1(%rip), %rdx
	movq	-24(%rbp), %rax
	movq	%rdx, 8(%rax)
	movq	_TIG_iO_ESyT_1_main_1_opaque_list_1(%rip), %rax
	movq	(%rax), %rax
	movq	-24(%rbp), %rdx
	movq	%rdx, 8(%rax)
	movq	_TIG_iO_ESyT_1_main_1_opaque_list_1(%rip), %rax
	movq	-24(%rbp), %rdx
	movq	%rdx, (%rax)
	movq	_TIG_iO_ESyT_1_main_1_opaque_list_1(%rip), %rax
	movq	(%rax), %rax
	movq	%rax, _TIG_iO_ESyT_1_main_1_opaque_ptr_1(%rip)
	movq	_TIG_iO_ESyT_1_main_1_opaque_ptr_1(%rip), %rax
	movq	%rax, _TIG_iO_ESyT_1_main_1_opaque_ptr_2(%rip)
	movq	_TIG_iO_ESyT_1_main_1_opaque_ptr_2(%rip), %rax
	movq	(%rax), %rax
	movq	%rax, _TIG_iO_ESyT_1_main_1_opaque_ptr_2(%rip)
	nop
	nop
	movq	_TIG_iO_ESyT_1_total_1_opaque_ptr_1(%rip), %rdx
	movq	_TIG_iO_ESyT_1_total_1_opaque_ptr_2(%rip), %rax
	cmpq	%rax, %rdx
	je	.L15
	movl	$3, %ecx
	movl	$2, %edx
	movl	$0, %esi
	movl	$3, %edi
	movl	$0, %eax
	call	total
	movq	%xmm0, %rax
	movq	%rax, -16(%rbp)
	movsd	-16(%rbp), %xmm0
	movsd	%xmm0, -8(%rbp)
	movq	-8(%rbp), %rax
	movq	%rax, %xmm0
	leaq	.LC1(%rip), %rax
	movq	%rax, %rdi
	movl	$1, %eax
	call	printf@PLT
.L15:
	movl	$0, %eax
	leave
	.cfi_def_cfa 7, 8
	ret
	.cfi_endproc
.LFE6:
	.size	main, .-main
	.globl	price
	.type	price, @function
price:
.LFB8:
	.cfi_startproc
	endbr64
	pushq	%rbp
	.cfi_def_cfa_offset 16
	.cfi_offset 6, -16
	movq	%rsp, %rbp
	.cfi_def_cfa_register 6
	subq	$48, %rsp
	movl	%edi, -36(%rbp)
#APP
# 55 "/usr/include/x86_64-linux-gnu/bits/uintn-identity.h" 1
	##_ANNOTATION_INITIALREGION_-TIG-iO-ESyT-1-price--16
# 0 "" 2
# 59 "/usr/include/x86_64-linux-gnu/bits/uintn-identity.h" 1
	##_ANNOTATION_ATOMICREGION_-TIG-iO-ESyT-1-price--15
# 0 "" 2
#NO_APP
	movl	$24, %edi
	call	malloc@PLT
	movq	%rax, -24(%rbp)
	movq	-24(%rbp), %rax
	movq	-24(%rbp), %rdx
	movq	%rdx, 16(%rax)
	movq	-24(%rbp), %rax
	movq	-24(%rbp), %rdx
	movq	%rdx, 8(%rax)
	movq	-24(%rbp), %rax
	movq	%rax, _TIG_iO_ESyT_1_price_1_opaque_list_1(%rip)
	call	rand@PLT
	movl	%eax, -32(%rbp)
	movl	$24, %edi
	call	malloc@PLT
	movq	%rax, -16(%rbp)
	movq	-16(%rbp), %rax
	movl	$0, (%rax)
	movq	_TIG_iO_ESyT_1_price_1_opaque_list_1(%rip), %rax
	movq	16(%rax), %rdx
	movq	-16(%rbp), %rax
	movq	%rdx, 16(%rax)
	movq	_TIG_iO_ESyT_1_price_1_opaque_list_1(%rip), %rdx
	movq	-16(%rbp), %rax
	movq	%rdx, 8(%rax)
	movq	_TIG_iO_ESyT_1_price_1_opaque_list_1(%rip), %rax
	movq	16(%rax), %rax
	movq	-16(%rbp), %rdx
	movq	%rdx, 8(%rax)
	movq	_TIG_iO_ESyT_1_price_1_opaque_list_1(%rip), %rax
	movq	-16(%rbp), %rdx
	movq	%rdx, 16(%rax)
	call	rand@PLT
	movl	%eax, -28(%rbp)
	movl	$24, %edi
	call	malloc@PLT
	movq	%rax, -8(%rbp)
	movq	-8(%rbp), %rax
	movl	-28(%rbp), %edx
	movl	%edx, (%rax)
	movq	_TIG_iO_ESyT_1_price_1_opaque_list_1(%rip), %rax
	movq	16(%rax), %rdx
	movq	-8(%rbp), %rax
	movq	%rdx, 16(%rax)
	movq	_TIG_iO_ESyT_1_price_1_opaque_list_1(%rip), %rdx
	movq	-8(%rbp), %rax
	movq	%rdx, 8(%rax)
	movq	_TIG_iO_ESyT_1_price_1_opaque_list_1(%rip), %rax
	movq	16(%rax), %rax
	movq	-8(%rbp), %rdx
	movq	%rdx, 8(%rax)
	movq	_TIG_iO_ESyT_1_price_1_opaque_list_1(%rip), %rax
	movq	-8(%rbp), %rdx
	movq	%rdx, 16(%rax)
	movq	_TIG_iO_ESyT_1_price_1_opaque_list_1(%rip), %rax
	movq	16(%rax), %rax
	movq	%rax, _TIG_iO_ESyT_1_price_1_opaque_ptr_1(%rip)
	movq	_TIG_iO_ESyT_1_price_1_opaque_ptr_1(%rip), %rax
	movq	%rax, _TIG_iO_ESyT_1_price_1_opaque_ptr_2(%rip)
	nop
	nop
	cmpl	$3, -36(%rbp)
	je	.L18
	cmpl	$3, -36(%rbp)
	ja	.L19
	cmpl	$2, -36(%rbp)
	je	.L20
	cmpl	$2, -36(%rbp)
	ja	.L19
	cmpl	$0, -36(%rbp)
	je	.L21
	cmpl	$1, -36(%rbp)
	je	.L22
	jmp	.L19
.L21:
	movsd	.LC2(%rip), %xmm0
	jmp	.L23
.L22:
	movsd	.LC3(%rip), %xmm0
	jmp	.L23
.L20:
	movsd	.LC4(%rip), %xmm0
	jmp	.L23
.L18:
	movsd	.LC5(%rip), %xmm0
	jmp	.L23
.L19:
	movq	_TIG_iO_ESyT_1_total_1_opaque_ptr_1(%rip), %rdx
	movq	_TIG_iO_ESyT_1_total_1_opaque_ptr_2(%rip), %rax
	cmpq	%rax, %rdx
	jne	.L24
#APP
# 21 "btelles_head_first_c_variadic_dynamic_params_drink.c" 1
	.byte 0xb8,0x1,0x0,0x0,0x0,0x11,0x48
# 0 "" 2
#NO_APP
	jmp	.L17
.L24:
	pxor	%xmm0, %xmm0
.L23:
	movq	%xmm0, %rax
.L17:
	movq	%rax, %xmm0
	leave
	.cfi_def_cfa 7, 8
	ret
	.cfi_endproc
.LFE8:
	.size	price, .-price
	.section	.rodata
	.align 8
.LC2:
	.long	-1030792151
	.long	1075521781
	.align 8
.LC3:
	.long	-1546188227
	.long	1075133808
	.align 8
.LC4:
	.long	-1546188227
	.long	1075002736
	.align 8
.LC5:
	.long	687194767
	.long	1075285852
	.ident	"GCC: (Ubuntu 11.4.0-1ubuntu1~22.04) 11.4.0"
	.section	.note.GNU-stack,"",@progbits
	.section	.note.gnu.property,"a"
	.align 8
	.long	1f - 0f
	.long	4f - 1f
	.long	5
0:
	.string	"GNU"
1:
	.align 8
	.long	0xc0000002
	.long	3f - 2f
2:
	.long	0x3
3:
	.align 8
4:
