	.file	"clean-code-craft-tcq-2_simple-monitor-in-c-ArnoldoZerecero_checker_opaque.c"
	.text
	.globl	_TIG_iO_JdqT_1_stateOfChargeIsInRange_1_opaque_list_2
	.bss
	.align 8
	.type	_TIG_iO_JdqT_1_stateOfChargeIsInRange_1_opaque_list_2, @object
	.size	_TIG_iO_JdqT_1_stateOfChargeIsInRange_1_opaque_list_2, 8
_TIG_iO_JdqT_1_stateOfChargeIsInRange_1_opaque_list_2:
	.zero	8
	.globl	_TIG_iO_JdqT_1_stateOfChargeIsInRange_1_opaque_ptr_1
	.align 8
	.type	_TIG_iO_JdqT_1_stateOfChargeIsInRange_1_opaque_ptr_1, @object
	.size	_TIG_iO_JdqT_1_stateOfChargeIsInRange_1_opaque_ptr_1, 8
_TIG_iO_JdqT_1_stateOfChargeIsInRange_1_opaque_ptr_1:
	.zero	8
	.globl	printLanguage
	.align 4
	.type	printLanguage, @object
	.size	printLanguage, 4
printLanguage:
	.zero	4
	.globl	_TIG_iO_JdqT_1_temperatureIsInRange_1_opaque_list_2
	.align 8
	.type	_TIG_iO_JdqT_1_temperatureIsInRange_1_opaque_list_2, @object
	.size	_TIG_iO_JdqT_1_temperatureIsInRange_1_opaque_list_2, 8
_TIG_iO_JdqT_1_temperatureIsInRange_1_opaque_list_2:
	.zero	8
	.globl	_TIG_iO_JdqT_1___bswap_16_1_opaque_ptr_1
	.align 8
	.type	_TIG_iO_JdqT_1___bswap_16_1_opaque_ptr_1, @object
	.size	_TIG_iO_JdqT_1___bswap_16_1_opaque_ptr_1, 8
_TIG_iO_JdqT_1___bswap_16_1_opaque_ptr_1:
	.zero	8
	.globl	_TIG_iO_JdqT_1_temperatureIsInRange_1_opaque_ptr_2
	.align 8
	.type	_TIG_iO_JdqT_1_temperatureIsInRange_1_opaque_ptr_2, @object
	.size	_TIG_iO_JdqT_1_temperatureIsInRange_1_opaque_ptr_2, 8
_TIG_iO_JdqT_1_temperatureIsInRange_1_opaque_ptr_2:
	.zero	8
	.globl	_TIG_iO_JdqT_1_stateOfChargeIsInRange_1_opaque_ptr_2
	.align 8
	.type	_TIG_iO_JdqT_1_stateOfChargeIsInRange_1_opaque_ptr_2, @object
	.size	_TIG_iO_JdqT_1_stateOfChargeIsInRange_1_opaque_ptr_2, 8
_TIG_iO_JdqT_1_stateOfChargeIsInRange_1_opaque_ptr_2:
	.zero	8
	.globl	_TIG_iO_JdqT_1_chargeRateIsAboveLimit_1_opaque_ptr_1
	.align 8
	.type	_TIG_iO_JdqT_1_chargeRateIsAboveLimit_1_opaque_ptr_1, @object
	.size	_TIG_iO_JdqT_1_chargeRateIsAboveLimit_1_opaque_ptr_1, 8
_TIG_iO_JdqT_1_chargeRateIsAboveLimit_1_opaque_ptr_1:
	.zero	8
	.globl	_TIG_iO_JdqT_1_printErrorMessage_1_opaque_list_1
	.align 8
	.type	_TIG_iO_JdqT_1_printErrorMessage_1_opaque_list_1, @object
	.size	_TIG_iO_JdqT_1_printErrorMessage_1_opaque_list_1, 8
_TIG_iO_JdqT_1_printErrorMessage_1_opaque_list_1:
	.zero	8
	.globl	_TIG_iO_JdqT_1_chargeRateIsAboveLimit_1_opaque_ptr_2
	.align 8
	.type	_TIG_iO_JdqT_1_chargeRateIsAboveLimit_1_opaque_ptr_2, @object
	.size	_TIG_iO_JdqT_1_chargeRateIsAboveLimit_1_opaque_ptr_2, 8
_TIG_iO_JdqT_1_chargeRateIsAboveLimit_1_opaque_ptr_2:
	.zero	8
	.globl	_TIG_iO_JdqT_1_main_1_opaque_ptr_1
	.align 8
	.type	_TIG_iO_JdqT_1_main_1_opaque_ptr_1, @object
	.size	_TIG_iO_JdqT_1_main_1_opaque_ptr_1, 8
_TIG_iO_JdqT_1_main_1_opaque_ptr_1:
	.zero	8
	.globl	_TIG_iO_JdqT_1___uint32_identity_1_opaque_ptr_2
	.align 8
	.type	_TIG_iO_JdqT_1___uint32_identity_1_opaque_ptr_2, @object
	.size	_TIG_iO_JdqT_1___uint32_identity_1_opaque_ptr_2, 8
_TIG_iO_JdqT_1___uint32_identity_1_opaque_ptr_2:
	.zero	8
	.globl	_TIG_iO_JdqT_1_stateOfChargeIsInRange_1_opaque_list_1
	.align 8
	.type	_TIG_iO_JdqT_1_stateOfChargeIsInRange_1_opaque_list_1, @object
	.size	_TIG_iO_JdqT_1_stateOfChargeIsInRange_1_opaque_list_1, 8
_TIG_iO_JdqT_1_stateOfChargeIsInRange_1_opaque_list_1:
	.zero	8
	.globl	_TIG_iO_JdqT_1___bswap_64_1_opaque_ptr_2
	.align 8
	.type	_TIG_iO_JdqT_1___bswap_64_1_opaque_ptr_2, @object
	.size	_TIG_iO_JdqT_1___bswap_64_1_opaque_ptr_2, 8
_TIG_iO_JdqT_1___bswap_64_1_opaque_ptr_2:
	.zero	8
	.globl	_TIG_iO_JdqT_1_main_1_opaque_ptr_2
	.align 8
	.type	_TIG_iO_JdqT_1_main_1_opaque_ptr_2, @object
	.size	_TIG_iO_JdqT_1_main_1_opaque_ptr_2, 8
_TIG_iO_JdqT_1_main_1_opaque_ptr_2:
	.zero	8
	.globl	_TIG_iO_JdqT_1_batteryIsOk_1_opaque_ptr_2
	.align 8
	.type	_TIG_iO_JdqT_1_batteryIsOk_1_opaque_ptr_2, @object
	.size	_TIG_iO_JdqT_1_batteryIsOk_1_opaque_ptr_2, 8
_TIG_iO_JdqT_1_batteryIsOk_1_opaque_ptr_2:
	.zero	8
	.globl	_TIG_iO_JdqT_1_printErrorMessage_1_opaque_ptr_2
	.align 8
	.type	_TIG_iO_JdqT_1_printErrorMessage_1_opaque_ptr_2, @object
	.size	_TIG_iO_JdqT_1_printErrorMessage_1_opaque_ptr_2, 8
_TIG_iO_JdqT_1_printErrorMessage_1_opaque_ptr_2:
	.zero	8
	.globl	_TIG_iO_JdqT_1___bswap_16_1_opaque_list_1
	.align 8
	.type	_TIG_iO_JdqT_1___bswap_16_1_opaque_list_1, @object
	.size	_TIG_iO_JdqT_1___bswap_16_1_opaque_list_1, 8
_TIG_iO_JdqT_1___bswap_16_1_opaque_list_1:
	.zero	8
	.globl	_TIG_iO_JdqT_1_batteryIsOk_1_opaque_list_2
	.align 8
	.type	_TIG_iO_JdqT_1_batteryIsOk_1_opaque_list_2, @object
	.size	_TIG_iO_JdqT_1_batteryIsOk_1_opaque_list_2, 8
_TIG_iO_JdqT_1_batteryIsOk_1_opaque_list_2:
	.zero	8
	.globl	_TIG_iO_JdqT_1_main_1_opaque_list_1
	.align 8
	.type	_TIG_iO_JdqT_1_main_1_opaque_list_1, @object
	.size	_TIG_iO_JdqT_1_main_1_opaque_list_1, 8
_TIG_iO_JdqT_1_main_1_opaque_list_1:
	.zero	8
	.globl	_TIG_iO_JdqT_1___bswap_16_1_opaque_ptr_2
	.align 8
	.type	_TIG_iO_JdqT_1___bswap_16_1_opaque_ptr_2, @object
	.size	_TIG_iO_JdqT_1___bswap_16_1_opaque_ptr_2, 8
_TIG_iO_JdqT_1___bswap_16_1_opaque_ptr_2:
	.zero	8
	.globl	_TIG_iO_JdqT_1_main_1_opaque_list_2
	.align 8
	.type	_TIG_iO_JdqT_1_main_1_opaque_list_2, @object
	.size	_TIG_iO_JdqT_1_main_1_opaque_list_2, 8
_TIG_iO_JdqT_1_main_1_opaque_list_2:
	.zero	8
	.globl	_TIG_iO_JdqT_1___uint16_identity_1_opaque_ptr_2
	.align 8
	.type	_TIG_iO_JdqT_1___uint16_identity_1_opaque_ptr_2, @object
	.size	_TIG_iO_JdqT_1___uint16_identity_1_opaque_ptr_2, 8
_TIG_iO_JdqT_1___uint16_identity_1_opaque_ptr_2:
	.zero	8
	.globl	_TIG_iO_JdqT_1___uint64_identity_1_opaque_list_2
	.align 8
	.type	_TIG_iO_JdqT_1___uint64_identity_1_opaque_list_2, @object
	.size	_TIG_iO_JdqT_1___uint64_identity_1_opaque_list_2, 8
_TIG_iO_JdqT_1___uint64_identity_1_opaque_list_2:
	.zero	8
	.globl	_TIG_IZ_JdqT_argc
	.align 4
	.type	_TIG_IZ_JdqT_argc, @object
	.size	_TIG_IZ_JdqT_argc, 4
_TIG_IZ_JdqT_argc:
	.zero	4
	.globl	_TIG_iO_JdqT_1___uint32_identity_1_opaque_ptr_1
	.align 8
	.type	_TIG_iO_JdqT_1___uint32_identity_1_opaque_ptr_1, @object
	.size	_TIG_iO_JdqT_1___uint32_identity_1_opaque_ptr_1, 8
_TIG_iO_JdqT_1___uint32_identity_1_opaque_ptr_1:
	.zero	8
	.globl	_TIG_iO_JdqT_1___bswap_32_1_opaque_list_2
	.align 8
	.type	_TIG_iO_JdqT_1___bswap_32_1_opaque_list_2, @object
	.size	_TIG_iO_JdqT_1___bswap_32_1_opaque_list_2, 8
_TIG_iO_JdqT_1___bswap_32_1_opaque_list_2:
	.zero	8
	.globl	_TIG_IZ_JdqT_argv
	.align 8
	.type	_TIG_IZ_JdqT_argv, @object
	.size	_TIG_IZ_JdqT_argv, 8
_TIG_IZ_JdqT_argv:
	.zero	8
	.globl	_TIG_iO_JdqT_1___bswap_16_1_opaque_list_2
	.align 8
	.type	_TIG_iO_JdqT_1___bswap_16_1_opaque_list_2, @object
	.size	_TIG_iO_JdqT_1___bswap_16_1_opaque_list_2, 8
_TIG_iO_JdqT_1___bswap_16_1_opaque_list_2:
	.zero	8
	.globl	_TIG_iO_JdqT_1_chargeRateIsAboveLimit_1_opaque_list_1
	.align 8
	.type	_TIG_iO_JdqT_1_chargeRateIsAboveLimit_1_opaque_list_1, @object
	.size	_TIG_iO_JdqT_1_chargeRateIsAboveLimit_1_opaque_list_1, 8
_TIG_iO_JdqT_1_chargeRateIsAboveLimit_1_opaque_list_1:
	.zero	8
	.globl	_TIG_iO_JdqT_1___bswap_32_1_opaque_ptr_1
	.align 8
	.type	_TIG_iO_JdqT_1___bswap_32_1_opaque_ptr_1, @object
	.size	_TIG_iO_JdqT_1___bswap_32_1_opaque_ptr_1, 8
_TIG_iO_JdqT_1___bswap_32_1_opaque_ptr_1:
	.zero	8
	.globl	_TIG_iO_JdqT_1_printErrorMessage_1_opaque_ptr_1
	.align 8
	.type	_TIG_iO_JdqT_1_printErrorMessage_1_opaque_ptr_1, @object
	.size	_TIG_iO_JdqT_1_printErrorMessage_1_opaque_ptr_1, 8
_TIG_iO_JdqT_1_printErrorMessage_1_opaque_ptr_1:
	.zero	8
	.globl	_TIG_iO_JdqT_1___bswap_64_1_opaque_list_2
	.align 8
	.type	_TIG_iO_JdqT_1___bswap_64_1_opaque_list_2, @object
	.size	_TIG_iO_JdqT_1___bswap_64_1_opaque_list_2, 8
_TIG_iO_JdqT_1___bswap_64_1_opaque_list_2:
	.zero	8
	.globl	_TIG_iO_JdqT_1___uint32_identity_1_opaque_list_2
	.align 8
	.type	_TIG_iO_JdqT_1___uint32_identity_1_opaque_list_2, @object
	.size	_TIG_iO_JdqT_1___uint32_identity_1_opaque_list_2, 8
_TIG_iO_JdqT_1___uint32_identity_1_opaque_list_2:
	.zero	8
	.globl	_TIG_iO_JdqT_1___uint64_identity_1_opaque_list_1
	.align 8
	.type	_TIG_iO_JdqT_1___uint64_identity_1_opaque_list_1, @object
	.size	_TIG_iO_JdqT_1___uint64_identity_1_opaque_list_1, 8
_TIG_iO_JdqT_1___uint64_identity_1_opaque_list_1:
	.zero	8
	.globl	_TIG_iO_JdqT_1___bswap_32_1_opaque_ptr_2
	.align 8
	.type	_TIG_iO_JdqT_1___bswap_32_1_opaque_ptr_2, @object
	.size	_TIG_iO_JdqT_1___bswap_32_1_opaque_ptr_2, 8
_TIG_iO_JdqT_1___bswap_32_1_opaque_ptr_2:
	.zero	8
	.globl	_TIG_iO_JdqT_1___uint16_identity_1_opaque_ptr_1
	.align 8
	.type	_TIG_iO_JdqT_1___uint16_identity_1_opaque_ptr_1, @object
	.size	_TIG_iO_JdqT_1___uint16_identity_1_opaque_ptr_1, 8
_TIG_iO_JdqT_1___uint16_identity_1_opaque_ptr_1:
	.zero	8
	.globl	_TIG_IZ_JdqT_envp
	.align 8
	.type	_TIG_IZ_JdqT_envp, @object
	.size	_TIG_IZ_JdqT_envp, 8
_TIG_IZ_JdqT_envp:
	.zero	8
	.globl	_TIG_iO_JdqT_1___uint64_identity_1_opaque_ptr_1
	.align 8
	.type	_TIG_iO_JdqT_1___uint64_identity_1_opaque_ptr_1, @object
	.size	_TIG_iO_JdqT_1___uint64_identity_1_opaque_ptr_1, 8
_TIG_iO_JdqT_1___uint64_identity_1_opaque_ptr_1:
	.zero	8
	.globl	_TIG_iO_JdqT_1_chargeRateIsAboveLimit_1_opaque_list_2
	.align 8
	.type	_TIG_iO_JdqT_1_chargeRateIsAboveLimit_1_opaque_list_2, @object
	.size	_TIG_iO_JdqT_1_chargeRateIsAboveLimit_1_opaque_list_2, 8
_TIG_iO_JdqT_1_chargeRateIsAboveLimit_1_opaque_list_2:
	.zero	8
	.globl	_TIG_iO_JdqT_1_temperatureIsInRange_1_opaque_list_1
	.align 8
	.type	_TIG_iO_JdqT_1_temperatureIsInRange_1_opaque_list_1, @object
	.size	_TIG_iO_JdqT_1_temperatureIsInRange_1_opaque_list_1, 8
_TIG_iO_JdqT_1_temperatureIsInRange_1_opaque_list_1:
	.zero	8
	.globl	_TIG_iO_JdqT_1___uint32_identity_1_opaque_list_1
	.align 8
	.type	_TIG_iO_JdqT_1___uint32_identity_1_opaque_list_1, @object
	.size	_TIG_iO_JdqT_1___uint32_identity_1_opaque_list_1, 8
_TIG_iO_JdqT_1___uint32_identity_1_opaque_list_1:
	.zero	8
	.globl	_TIG_iO_JdqT_1___uint16_identity_1_opaque_list_2
	.align 8
	.type	_TIG_iO_JdqT_1___uint16_identity_1_opaque_list_2, @object
	.size	_TIG_iO_JdqT_1___uint16_identity_1_opaque_list_2, 8
_TIG_iO_JdqT_1___uint16_identity_1_opaque_list_2:
	.zero	8
	.globl	_TIG_iO_JdqT_1_batteryIsOk_1_opaque_ptr_1
	.align 8
	.type	_TIG_iO_JdqT_1_batteryIsOk_1_opaque_ptr_1, @object
	.size	_TIG_iO_JdqT_1_batteryIsOk_1_opaque_ptr_1, 8
_TIG_iO_JdqT_1_batteryIsOk_1_opaque_ptr_1:
	.zero	8
	.globl	_TIG_iO_JdqT_1_printErrorMessage_1_opaque_list_2
	.align 8
	.type	_TIG_iO_JdqT_1_printErrorMessage_1_opaque_list_2, @object
	.size	_TIG_iO_JdqT_1_printErrorMessage_1_opaque_list_2, 8
_TIG_iO_JdqT_1_printErrorMessage_1_opaque_list_2:
	.zero	8
	.globl	_TIG_iO_JdqT_1___bswap_32_1_opaque_list_1
	.align 8
	.type	_TIG_iO_JdqT_1___bswap_32_1_opaque_list_1, @object
	.size	_TIG_iO_JdqT_1___bswap_32_1_opaque_list_1, 8
_TIG_iO_JdqT_1___bswap_32_1_opaque_list_1:
	.zero	8
	.globl	_TIG_iO_JdqT_1___bswap_64_1_opaque_list_1
	.align 8
	.type	_TIG_iO_JdqT_1___bswap_64_1_opaque_list_1, @object
	.size	_TIG_iO_JdqT_1___bswap_64_1_opaque_list_1, 8
_TIG_iO_JdqT_1___bswap_64_1_opaque_list_1:
	.zero	8
	.globl	_TIG_iO_JdqT_1_batteryIsOk_1_opaque_list_1
	.align 8
	.type	_TIG_iO_JdqT_1_batteryIsOk_1_opaque_list_1, @object
	.size	_TIG_iO_JdqT_1_batteryIsOk_1_opaque_list_1, 8
_TIG_iO_JdqT_1_batteryIsOk_1_opaque_list_1:
	.zero	8
	.globl	_TIG_iO_JdqT_1___uint16_identity_1_opaque_list_1
	.align 8
	.type	_TIG_iO_JdqT_1___uint16_identity_1_opaque_list_1, @object
	.size	_TIG_iO_JdqT_1___uint16_identity_1_opaque_list_1, 8
_TIG_iO_JdqT_1___uint16_identity_1_opaque_list_1:
	.zero	8
	.globl	_TIG_iO_JdqT_1___bswap_64_1_opaque_ptr_1
	.align 8
	.type	_TIG_iO_JdqT_1___bswap_64_1_opaque_ptr_1, @object
	.size	_TIG_iO_JdqT_1___bswap_64_1_opaque_ptr_1, 8
_TIG_iO_JdqT_1___bswap_64_1_opaque_ptr_1:
	.zero	8
	.globl	_TIG_iO_JdqT_1_temperatureIsInRange_1_opaque_ptr_1
	.align 8
	.type	_TIG_iO_JdqT_1_temperatureIsInRange_1_opaque_ptr_1, @object
	.size	_TIG_iO_JdqT_1_temperatureIsInRange_1_opaque_ptr_1, 8
_TIG_iO_JdqT_1_temperatureIsInRange_1_opaque_ptr_1:
	.zero	8
	.globl	_TIG_iO_JdqT_1___uint64_identity_1_opaque_ptr_2
	.align 8
	.type	_TIG_iO_JdqT_1___uint64_identity_1_opaque_ptr_2, @object
	.size	_TIG_iO_JdqT_1___uint64_identity_1_opaque_ptr_2, 8
_TIG_iO_JdqT_1___uint64_identity_1_opaque_ptr_2:
	.zero	8
	.section	.rodata
.LC1:
	.string	"main"
	.align 8
.LC2:
	.string	"clean-code-craft-tcq-2_simple-monitor-in-c-ArnoldoZerecero_checker.c"
.LC3:
	.string	"!temperatureIsInRange(-0.1)"
.LC5:
	.string	"temperatureIsInRange(0)"
.LC7:
	.string	"temperatureIsInRange(0.1)"
.LC9:
	.string	"temperatureIsInRange(22)"
.LC11:
	.string	"temperatureIsInRange(44.9)"
.LC13:
	.string	"temperatureIsInRange(45)"
.LC15:
	.string	"!temperatureIsInRange(45.1)"
.LC17:
	.string	"!stateOfChargeIsInRange(19.9)"
.LC19:
	.string	"stateOfChargeIsInRange(20)"
.LC21:
	.string	"stateOfChargeIsInRange(20.1)"
.LC23:
	.string	"stateOfChargeIsInRange(50)"
.LC25:
	.string	"stateOfChargeIsInRange(79.9)"
.LC28:
	.string	"stateOfChargeIsInRange(80)"
.LC30:
	.string	"!stateOfChargeIsInRange(80.1)"
.LC32:
	.string	"chargeRateIsAboveLimit(0.7)"
.LC34:
	.string	"chargeRateIsAboveLimit(0.8)"
.LC36:
	.string	"!chargeRateIsAboveLimit(0.9)"
.LC37:
	.string	"chargeRateIsAboveLimit(0)"
.LC39:
	.string	"chargeRateIsAboveLimit(-1)"
.LC42:
	.string	"batteryIsOk(25, 70, 0.7)"
.LC44:
	.string	"!batteryIsOk(50, 85, 0)"
.LC48:
	.string	"batteryIsOk(44, 79, 0.77)"
.LC52:
	.string	"batteryIsOk(1, 21, 0.76)"
.LC56:
	.string	"batteryIsOk(2.2, 23.9, 0.75)"
.LC57:
	.string	"!batteryIsOk(44.9, 79.9, 0.9)"
	.text
	.globl	main
	.type	main, @function
main:
.LFB2:
	.cfi_startproc
	endbr64
	pushq	%rbp
	.cfi_def_cfa_offset 16
	.cfi_offset 6, -16
	movq	%rsp, %rbp
	.cfi_def_cfa_register 6
	subq	$176, %rsp
	movl	%edi, -148(%rbp)
	movq	%rsi, -160(%rbp)
	movq	%rdx, -168(%rbp)
	movl	$0, printLanguage(%rip)
	nop
.L2:
	movq	$0, _TIG_IZ_JdqT_envp(%rip)
	nop
.L3:
	movq	$0, _TIG_IZ_JdqT_argv(%rip)
	nop
.L4:
	movl	$0, _TIG_IZ_JdqT_argc(%rip)
	nop
	nop
.L5:
.L6:
#APP
# 149 "/usr/include/x86_64-linux-gnu/bits/byteswap.h" 1
	##_ANNOTATION_INITIALREGION_-TIG-IZ-JdqT--0
# 0 "" 2
#NO_APP
	movl	-148(%rbp), %eax
	movl	%eax, _TIG_IZ_JdqT_argc(%rip)
	movq	-160(%rbp), %rax
	movq	%rax, _TIG_IZ_JdqT_argv(%rip)
	movq	-168(%rbp), %rax
	movq	%rax, _TIG_IZ_JdqT_envp(%rip)
#APP
# 156 "/usr/include/x86_64-linux-gnu/bits/byteswap.h" 1
	##_ANNOTATION_ATOMICREGION_-TIG-iO-JdqT-1-main--17
# 0 "" 2
#NO_APP
	movl	$24, %edi
	call	malloc@PLT
	movq	%rax, -24(%rbp)
	movq	-24(%rbp), %rax
	movq	-24(%rbp), %rdx
	movq	%rdx, 8(%rax)
	movq	-24(%rbp), %rax
	movq	-24(%rbp), %rdx
	movq	%rdx, (%rax)
	movq	-24(%rbp), %rax
	movq	%rax, _TIG_iO_JdqT_1_main_1_opaque_list_1(%rip)
	call	rand@PLT
	movl	%eax, -132(%rbp)
	movl	$24, %edi
	call	malloc@PLT
	movq	%rax, -16(%rbp)
	movq	-16(%rbp), %rax
	movl	$0, 16(%rax)
	movq	_TIG_iO_JdqT_1_main_1_opaque_list_1(%rip), %rax
	movq	8(%rax), %rdx
	movq	-16(%rbp), %rax
	movq	%rdx, 8(%rax)
	movq	_TIG_iO_JdqT_1_main_1_opaque_list_1(%rip), %rdx
	movq	-16(%rbp), %rax
	movq	%rdx, (%rax)
	movq	_TIG_iO_JdqT_1_main_1_opaque_list_1(%rip), %rax
	movq	8(%rax), %rax
	movq	-16(%rbp), %rdx
	movq	%rdx, (%rax)
	movq	_TIG_iO_JdqT_1_main_1_opaque_list_1(%rip), %rax
	movq	-16(%rbp), %rdx
	movq	%rdx, 8(%rax)
	call	rand@PLT
	movl	%eax, -128(%rbp)
	movl	$24, %edi
	call	malloc@PLT
	movq	%rax, -8(%rbp)
	movq	-8(%rbp), %rax
	movl	-128(%rbp), %edx
	movl	%edx, 16(%rax)
	movq	_TIG_iO_JdqT_1_main_1_opaque_list_1(%rip), %rax
	movq	8(%rax), %rdx
	movq	-8(%rbp), %rax
	movq	%rdx, 8(%rax)
	movq	_TIG_iO_JdqT_1_main_1_opaque_list_1(%rip), %rdx
	movq	-8(%rbp), %rax
	movq	%rdx, (%rax)
	movq	_TIG_iO_JdqT_1_main_1_opaque_list_1(%rip), %rax
	movq	8(%rax), %rax
	movq	-8(%rbp), %rdx
	movq	%rdx, (%rax)
	movq	_TIG_iO_JdqT_1_main_1_opaque_list_1(%rip), %rax
	movq	-8(%rbp), %rdx
	movq	%rdx, 8(%rax)
	movq	_TIG_iO_JdqT_1_main_1_opaque_list_1(%rip), %rax
	movq	8(%rax), %rax
	movq	%rax, _TIG_iO_JdqT_1_main_1_opaque_ptr_1(%rip)
	movq	_TIG_iO_JdqT_1_main_1_opaque_ptr_1(%rip), %rax
	movq	%rax, _TIG_iO_JdqT_1_main_1_opaque_ptr_2(%rip)
	movq	_TIG_iO_JdqT_1_main_1_opaque_ptr_2(%rip), %rax
	movq	8(%rax), %rax
	movq	%rax, _TIG_iO_JdqT_1_main_1_opaque_ptr_2(%rip)
	nop
	nop
	movl	.LC0(%rip), %eax
	movd	%eax, %xmm0
	call	temperatureIsInRange
	movl	%eax, -124(%rbp)
	cmpl	$0, -124(%rbp)
	je	.L7
	leaq	.LC1(%rip), %rax
	movq	%rax, %rcx
	movl	$202, %edx
	leaq	.LC2(%rip), %rax
	movq	%rax, %rsi
	leaq	.LC3(%rip), %rax
	movq	%rax, %rdi
	call	__assert_fail@PLT
.L7:
	movl	.LC4(%rip), %eax
	movd	%eax, %xmm0
	call	temperatureIsInRange
	movl	%eax, -120(%rbp)
	cmpl	$0, -120(%rbp)
	jne	.L8
	leaq	.LC1(%rip), %rax
	movq	%rax, %rcx
	movl	$203, %edx
	leaq	.LC2(%rip), %rax
	movq	%rax, %rsi
	leaq	.LC5(%rip), %rax
	movq	%rax, %rdi
	call	__assert_fail@PLT
.L8:
	movl	.LC6(%rip), %eax
	movd	%eax, %xmm0
	call	temperatureIsInRange
	movl	%eax, -116(%rbp)
	cmpl	$0, -116(%rbp)
	jne	.L9
	leaq	.LC1(%rip), %rax
	movq	%rax, %rcx
	movl	$204, %edx
	leaq	.LC2(%rip), %rax
	movq	%rax, %rsi
	leaq	.LC7(%rip), %rax
	movq	%rax, %rdi
	call	__assert_fail@PLT
.L9:
	movl	.LC8(%rip), %eax
	movd	%eax, %xmm0
	call	temperatureIsInRange
	movl	%eax, -112(%rbp)
	cmpl	$0, -112(%rbp)
	jne	.L10
	leaq	.LC1(%rip), %rax
	movq	%rax, %rcx
	movl	$205, %edx
	leaq	.LC2(%rip), %rax
	movq	%rax, %rsi
	leaq	.LC9(%rip), %rax
	movq	%rax, %rdi
	call	__assert_fail@PLT
.L10:
	movl	.LC10(%rip), %eax
	movd	%eax, %xmm0
	call	temperatureIsInRange
	movl	%eax, -108(%rbp)
	cmpl	$0, -108(%rbp)
	jne	.L11
	leaq	.LC1(%rip), %rax
	movq	%rax, %rcx
	movl	$206, %edx
	leaq	.LC2(%rip), %rax
	movq	%rax, %rsi
	leaq	.LC11(%rip), %rax
	movq	%rax, %rdi
	call	__assert_fail@PLT
.L11:
	movl	.LC12(%rip), %eax
	movd	%eax, %xmm0
	call	temperatureIsInRange
	movl	%eax, -104(%rbp)
	cmpl	$0, -104(%rbp)
	jne	.L12
	leaq	.LC1(%rip), %rax
	movq	%rax, %rcx
	movl	$207, %edx
	leaq	.LC2(%rip), %rax
	movq	%rax, %rsi
	leaq	.LC13(%rip), %rax
	movq	%rax, %rdi
	call	__assert_fail@PLT
.L12:
	movl	.LC14(%rip), %eax
	movd	%eax, %xmm0
	call	temperatureIsInRange
	movl	%eax, -100(%rbp)
	cmpl	$0, -100(%rbp)
	je	.L13
	leaq	.LC1(%rip), %rax
	movq	%rax, %rcx
	movl	$208, %edx
	leaq	.LC2(%rip), %rax
	movq	%rax, %rsi
	leaq	.LC15(%rip), %rax
	movq	%rax, %rdi
	call	__assert_fail@PLT
.L13:
	movl	.LC16(%rip), %eax
	movd	%eax, %xmm0
	call	stateOfChargeIsInRange
	movl	%eax, -96(%rbp)
	cmpl	$0, -96(%rbp)
	je	.L14
	leaq	.LC1(%rip), %rax
	movq	%rax, %rcx
	movl	$210, %edx
	leaq	.LC2(%rip), %rax
	movq	%rax, %rsi
	leaq	.LC17(%rip), %rax
	movq	%rax, %rdi
	call	__assert_fail@PLT
.L14:
	movl	.LC18(%rip), %eax
	movd	%eax, %xmm0
	call	stateOfChargeIsInRange
	movl	%eax, -92(%rbp)
	cmpl	$0, -92(%rbp)
	jne	.L15
	leaq	.LC1(%rip), %rax
	movq	%rax, %rcx
	movl	$211, %edx
	leaq	.LC2(%rip), %rax
	movq	%rax, %rsi
	leaq	.LC19(%rip), %rax
	movq	%rax, %rdi
	call	__assert_fail@PLT
.L15:
	movl	.LC20(%rip), %eax
	movd	%eax, %xmm0
	call	stateOfChargeIsInRange
	movl	%eax, -88(%rbp)
	cmpl	$0, -88(%rbp)
	jne	.L16
	leaq	.LC1(%rip), %rax
	movq	%rax, %rcx
	movl	$212, %edx
	leaq	.LC2(%rip), %rax
	movq	%rax, %rsi
	leaq	.LC21(%rip), %rax
	movq	%rax, %rdi
	call	__assert_fail@PLT
.L16:
	movl	.LC22(%rip), %eax
	movd	%eax, %xmm0
	call	stateOfChargeIsInRange
	movl	%eax, -84(%rbp)
	cmpl	$0, -84(%rbp)
	jne	.L17
	leaq	.LC1(%rip), %rax
	movq	%rax, %rcx
	movl	$213, %edx
	leaq	.LC2(%rip), %rax
	movq	%rax, %rsi
	leaq	.LC23(%rip), %rax
	movq	%rax, %rdi
	call	__assert_fail@PLT
.L17:
	movl	.LC24(%rip), %eax
	movd	%eax, %xmm0
	call	stateOfChargeIsInRange
	movl	%eax, -80(%rbp)
	cmpl	$0, -80(%rbp)
	jne	.L18
	leaq	.LC1(%rip), %rax
	movq	%rax, %rcx
	movl	$214, %edx
	leaq	.LC2(%rip), %rax
	movq	%rax, %rsi
	leaq	.LC25(%rip), %rax
	movq	%rax, %rdi
	call	__assert_fail@PLT
.L18:
	movq	_TIG_iO_JdqT_1_temperatureIsInRange_1_opaque_ptr_1(%rip), %rdx
	movq	_TIG_iO_JdqT_1_temperatureIsInRange_1_opaque_ptr_2(%rip), %rax
	cmpq	%rax, %rdx
	jne	.L19
	movl	.LC26(%rip), %eax
	movd	%eax, %xmm0
	call	stateOfChargeIsInRange
	movl	%eax, -128(%rbp)
.L19:
	movl	.LC27(%rip), %eax
	movd	%eax, %xmm0
	call	stateOfChargeIsInRange
	movl	%eax, -76(%rbp)
	cmpl	$0, -76(%rbp)
	jne	.L20
	leaq	.LC1(%rip), %rax
	movq	%rax, %rcx
	movl	$215, %edx
	leaq	.LC2(%rip), %rax
	movq	%rax, %rsi
	leaq	.LC28(%rip), %rax
	movq	%rax, %rdi
	call	__assert_fail@PLT
.L20:
	movl	.LC29(%rip), %eax
	movd	%eax, %xmm0
	call	stateOfChargeIsInRange
	movl	%eax, -72(%rbp)
	cmpl	$0, -72(%rbp)
	je	.L21
	leaq	.LC1(%rip), %rax
	movq	%rax, %rcx
	movl	$216, %edx
	leaq	.LC2(%rip), %rax
	movq	%rax, %rsi
	leaq	.LC30(%rip), %rax
	movq	%rax, %rdi
	call	__assert_fail@PLT
.L21:
	movl	.LC31(%rip), %eax
	movd	%eax, %xmm0
	call	chargeRateIsAboveLimit
	movl	%eax, -68(%rbp)
	cmpl	$0, -68(%rbp)
	jne	.L22
	leaq	.LC1(%rip), %rax
	movq	%rax, %rcx
	movl	$218, %edx
	leaq	.LC2(%rip), %rax
	movq	%rax, %rsi
	leaq	.LC32(%rip), %rax
	movq	%rax, %rdi
	call	__assert_fail@PLT
.L22:
	movl	.LC33(%rip), %eax
	movd	%eax, %xmm0
	call	chargeRateIsAboveLimit
	movl	%eax, -64(%rbp)
	cmpl	$0, -64(%rbp)
	jne	.L23
	leaq	.LC1(%rip), %rax
	movq	%rax, %rcx
	movl	$219, %edx
	leaq	.LC2(%rip), %rax
	movq	%rax, %rsi
	leaq	.LC34(%rip), %rax
	movq	%rax, %rdi
	call	__assert_fail@PLT
.L23:
	movl	.LC35(%rip), %eax
	movd	%eax, %xmm0
	call	chargeRateIsAboveLimit
	movl	%eax, -60(%rbp)
	cmpl	$0, -60(%rbp)
	je	.L24
	leaq	.LC1(%rip), %rax
	movq	%rax, %rcx
	movl	$220, %edx
	leaq	.LC2(%rip), %rax
	movq	%rax, %rsi
	leaq	.LC36(%rip), %rax
	movq	%rax, %rdi
	call	__assert_fail@PLT
.L24:
	movl	.LC4(%rip), %eax
	movd	%eax, %xmm0
	call	chargeRateIsAboveLimit
	movl	%eax, -56(%rbp)
	cmpl	$0, -56(%rbp)
	jne	.L25
	leaq	.LC1(%rip), %rax
	movq	%rax, %rcx
	movl	$221, %edx
	leaq	.LC2(%rip), %rax
	movq	%rax, %rsi
	leaq	.LC37(%rip), %rax
	movq	%rax, %rdi
	call	__assert_fail@PLT
.L25:
	movl	.LC38(%rip), %eax
	movd	%eax, %xmm0
	call	chargeRateIsAboveLimit
	movl	%eax, -52(%rbp)
	cmpl	$0, -52(%rbp)
	jne	.L26
	leaq	.LC1(%rip), %rax
	movq	%rax, %rcx
	movl	$222, %edx
	leaq	.LC2(%rip), %rax
	movq	%rax, %rsi
	leaq	.LC39(%rip), %rax
	movq	%rax, %rdi
	call	__assert_fail@PLT
.L26:
	movss	.LC31(%rip), %xmm2
	movss	.LC40(%rip), %xmm1
	movl	.LC41(%rip), %eax
	movd	%eax, %xmm0
	call	batteryIsOk
	movl	%eax, -48(%rbp)
	cmpl	$0, -48(%rbp)
	jne	.L27
	leaq	.LC1(%rip), %rax
	movq	%rax, %rcx
	movl	$224, %edx
	leaq	.LC2(%rip), %rax
	movq	%rax, %rsi
	leaq	.LC42(%rip), %rax
	movq	%rax, %rdi
	call	__assert_fail@PLT
.L27:
	pxor	%xmm2, %xmm2
	movss	.LC43(%rip), %xmm1
	movl	.LC22(%rip), %eax
	movd	%eax, %xmm0
	call	batteryIsOk
	movl	%eax, -44(%rbp)
	cmpl	$0, -44(%rbp)
	je	.L28
	leaq	.LC1(%rip), %rax
	movq	%rax, %rcx
	movl	$225, %edx
	leaq	.LC2(%rip), %rax
	movq	%rax, %rsi
	leaq	.LC44(%rip), %rax
	movq	%rax, %rdi
	call	__assert_fail@PLT
.L28:
	movss	.LC45(%rip), %xmm2
	movss	.LC46(%rip), %xmm1
	movl	.LC47(%rip), %eax
	movd	%eax, %xmm0
	call	batteryIsOk
	movl	%eax, -40(%rbp)
	cmpl	$0, -40(%rbp)
	jne	.L29
	leaq	.LC1(%rip), %rax
	movq	%rax, %rcx
	movl	$226, %edx
	leaq	.LC2(%rip), %rax
	movq	%rax, %rsi
	leaq	.LC48(%rip), %rax
	movq	%rax, %rdi
	call	__assert_fail@PLT
.L29:
	movss	.LC49(%rip), %xmm2
	movss	.LC50(%rip), %xmm1
	movl	.LC51(%rip), %eax
	movd	%eax, %xmm0
	call	batteryIsOk
	movl	%eax, -36(%rbp)
	cmpl	$0, -36(%rbp)
	jne	.L30
	leaq	.LC1(%rip), %rax
	movq	%rax, %rcx
	movl	$227, %edx
	leaq	.LC2(%rip), %rax
	movq	%rax, %rsi
	leaq	.LC52(%rip), %rax
	movq	%rax, %rdi
	call	__assert_fail@PLT
.L30:
	movl	$1, printLanguage(%rip)
	movss	.LC53(%rip), %xmm2
	movss	.LC54(%rip), %xmm1
	movl	.LC55(%rip), %eax
	movd	%eax, %xmm0
	call	batteryIsOk
	movl	%eax, -32(%rbp)
	cmpl	$0, -32(%rbp)
	jne	.L31
	leaq	.LC1(%rip), %rax
	movq	%rax, %rcx
	movl	$230, %edx
	leaq	.LC2(%rip), %rax
	movq	%rax, %rsi
	leaq	.LC56(%rip), %rax
	movq	%rax, %rdi
	call	__assert_fail@PLT
.L31:
	movss	.LC35(%rip), %xmm2
	movss	.LC24(%rip), %xmm1
	movl	.LC10(%rip), %eax
	movd	%eax, %xmm0
	call	batteryIsOk
	movl	%eax, -28(%rbp)
	cmpl	$0, -28(%rbp)
	je	.L32
	leaq	.LC1(%rip), %rax
	movq	%rax, %rcx
	movl	$231, %edx
	leaq	.LC2(%rip), %rax
	movq	%rax, %rsi
	leaq	.LC57(%rip), %rax
	movq	%rax, %rdi
	call	__assert_fail@PLT
.L32:
	movl	$0, %eax
	leave
	.cfi_def_cfa 7, 8
	ret
	.cfi_endproc
.LFE2:
	.size	main, .-main
	.globl	stateOfChargeIsInRange
	.type	stateOfChargeIsInRange, @function
stateOfChargeIsInRange:
.LFB3:
	.cfi_startproc
	endbr64
	pushq	%rbp
	.cfi_def_cfa_offset 16
	.cfi_offset 6, -16
	movq	%rsp, %rbp
	.cfi_def_cfa_register 6
	subq	$80, %rsp
	movss	%xmm0, -68(%rbp)
#APP
# 252 "clean-code-craft-tcq-2_simple-monitor-in-c-ArnoldoZerecero_checker.c" 1
	##_ANNOTATION_INITIALREGION_-TIG-iO-JdqT-1-stateOfChargeIsInRange--22
# 0 "" 2
# 256 "clean-code-craft-tcq-2_simple-monitor-in-c-ArnoldoZerecero_checker.c" 1
	##_ANNOTATION_ATOMICREGION_-TIG-iO-JdqT-1-stateOfChargeIsInRange--21
# 0 "" 2
#NO_APP
	movl	$24, %edi
	call	malloc@PLT
	movq	%rax, -32(%rbp)
	movq	-32(%rbp), %rax
	movq	-32(%rbp), %rdx
	movq	%rdx, (%rax)
	movq	-32(%rbp), %rax
	movq	-32(%rbp), %rdx
	movq	%rdx, 16(%rax)
	movq	-32(%rbp), %rax
	movq	%rax, _TIG_iO_JdqT_1_stateOfChargeIsInRange_1_opaque_list_1(%rip)
	call	rand@PLT
	movl	%eax, -44(%rbp)
	movl	$24, %edi
	call	malloc@PLT
	movq	%rax, -24(%rbp)
	movq	-24(%rbp), %rax
	movl	$0, 8(%rax)
	movq	_TIG_iO_JdqT_1_stateOfChargeIsInRange_1_opaque_list_1(%rip), %rax
	movq	(%rax), %rdx
	movq	-24(%rbp), %rax
	movq	%rdx, (%rax)
	movq	_TIG_iO_JdqT_1_stateOfChargeIsInRange_1_opaque_list_1(%rip), %rdx
	movq	-24(%rbp), %rax
	movq	%rdx, 16(%rax)
	movq	_TIG_iO_JdqT_1_stateOfChargeIsInRange_1_opaque_list_1(%rip), %rax
	movq	(%rax), %rax
	movq	-24(%rbp), %rdx
	movq	%rdx, 16(%rax)
	movq	_TIG_iO_JdqT_1_stateOfChargeIsInRange_1_opaque_list_1(%rip), %rax
	movq	-24(%rbp), %rdx
	movq	%rdx, (%rax)
	call	rand@PLT
	movl	%eax, -40(%rbp)
	movl	$24, %edi
	call	malloc@PLT
	movq	%rax, -16(%rbp)
	movq	-16(%rbp), %rax
	movl	-40(%rbp), %edx
	movl	%edx, 8(%rax)
	movq	_TIG_iO_JdqT_1_stateOfChargeIsInRange_1_opaque_list_1(%rip), %rax
	movq	(%rax), %rdx
	movq	-16(%rbp), %rax
	movq	%rdx, (%rax)
	movq	_TIG_iO_JdqT_1_stateOfChargeIsInRange_1_opaque_list_1(%rip), %rdx
	movq	-16(%rbp), %rax
	movq	%rdx, 16(%rax)
	movq	_TIG_iO_JdqT_1_stateOfChargeIsInRange_1_opaque_list_1(%rip), %rax
	movq	(%rax), %rax
	movq	-16(%rbp), %rdx
	movq	%rdx, 16(%rax)
	movq	_TIG_iO_JdqT_1_stateOfChargeIsInRange_1_opaque_list_1(%rip), %rax
	movq	-16(%rbp), %rdx
	movq	%rdx, (%rax)
	call	rand@PLT
	movl	%eax, -36(%rbp)
	movl	$24, %edi
	call	malloc@PLT
	movq	%rax, -8(%rbp)
	movl	-36(%rbp), %eax
	leal	(%rax,%rax), %edx
	movq	-8(%rbp), %rax
	movl	%edx, 8(%rax)
	movq	_TIG_iO_JdqT_1_stateOfChargeIsInRange_1_opaque_list_1(%rip), %rax
	movq	(%rax), %rdx
	movq	-8(%rbp), %rax
	movq	%rdx, (%rax)
	movq	_TIG_iO_JdqT_1_stateOfChargeIsInRange_1_opaque_list_1(%rip), %rdx
	movq	-8(%rbp), %rax
	movq	%rdx, 16(%rax)
	movq	_TIG_iO_JdqT_1_stateOfChargeIsInRange_1_opaque_list_1(%rip), %rax
	movq	(%rax), %rax
	movq	-8(%rbp), %rdx
	movq	%rdx, 16(%rax)
	movq	_TIG_iO_JdqT_1_stateOfChargeIsInRange_1_opaque_list_1(%rip), %rax
	movq	-8(%rbp), %rdx
	movq	%rdx, (%rax)
	movq	_TIG_iO_JdqT_1_stateOfChargeIsInRange_1_opaque_list_1(%rip), %rax
	movq	(%rax), %rax
	movq	%rax, _TIG_iO_JdqT_1_stateOfChargeIsInRange_1_opaque_ptr_1(%rip)
	movq	_TIG_iO_JdqT_1_stateOfChargeIsInRange_1_opaque_ptr_1(%rip), %rax
	movq	%rax, _TIG_iO_JdqT_1_stateOfChargeIsInRange_1_opaque_ptr_2(%rip)
	movq	_TIG_iO_JdqT_1_stateOfChargeIsInRange_1_opaque_ptr_2(%rip), %rax
	movq	(%rax), %rax
	movq	%rax, _TIG_iO_JdqT_1_stateOfChargeIsInRange_1_opaque_ptr_2(%rip)
	nop
	nop
	movl	$1, -52(%rbp)
	movl	$0, -48(%rbp)
	movss	.LC18(%rip), %xmm0
	comiss	-68(%rbp), %xmm0
	jbe	.L49
	movl	$16, -48(%rbp)
	movl	$0, -52(%rbp)
	jmp	.L37
.L49:
	movq	_TIG_iO_JdqT_1_temperatureIsInRange_1_opaque_ptr_1(%rip), %rdx
	movq	_TIG_iO_JdqT_1_temperatureIsInRange_1_opaque_ptr_2(%rip), %rax
	cmpq	%rax, %rdx
	jne	.L38
	movl	-36(%rbp), %eax
	movl	$0, %edx
	movl	$0, %esi
	movl	%eax, %edi
	call	main
	movl	%eax, -48(%rbp)
.L38:
	movss	-68(%rbp), %xmm0
	comiss	.LC27(%rip), %xmm0
	jbe	.L50
	movl	$32, -48(%rbp)
	movl	$0, -52(%rbp)
	jmp	.L37
.L50:
	movss	.LC58(%rip), %xmm0
	comiss	-68(%rbp), %xmm0
	jbe	.L51
	movl	$64, -48(%rbp)
	jmp	.L37
.L51:
	movss	-68(%rbp), %xmm0
	comiss	.LC59(%rip), %xmm0
	jbe	.L37
	movl	$128, -48(%rbp)
.L37:
	movl	-68(%rbp), %edx
	movl	-48(%rbp), %eax
	movd	%edx, %xmm0
	movl	%eax, %edi
	call	printErrorMessage
	movl	-52(%rbp), %eax
	leave
	.cfi_def_cfa 7, 8
	ret
	.cfi_endproc
.LFE3:
	.size	stateOfChargeIsInRange, .-stateOfChargeIsInRange
	.section	.rodata
	.align 8
.LC60:
	.string	"Temperature is below its limit!\nTemperature: %f\n"
	.align 8
.LC61:
	.string	"Temperature is above its limit!\nTemperature: %f\n"
	.align 8
.LC62:
	.string	"Warning: Temperature is approaching its lower limit.\nTemperature: %f\n"
	.align 8
.LC63:
	.string	"Warning: Temperature is approaching its upper limit.\nTemperature: %f\n"
	.align 8
.LC64:
	.string	"State of Charge is below its limit!\nState of Charge: %f\n"
	.align 8
.LC65:
	.string	"State of Charge is above its limit!\nState of Charge: %f\n"
	.align 8
.LC66:
	.string	"Warning: State of Charge is approaching its lower limit.\nState of Charge: %f\n"
	.align 8
.LC67:
	.string	"Warning: State of Charge is approaching its upper limit.\nState of Charge: %f\n"
	.align 8
.LC68:
	.string	"Charge Rate is above its limit!\nCharge Rate: %f\n"
	.align 8
.LC69:
	.string	"Warning: Charge Rate is approaching its upper limit.\nCharge Rate: %f\n"
	.align 8
.LC70:
	.string	"Die Temperatur liegt unter ihrem Grenzwert!\nTemperatur: %f\n"
	.align 8
.LC71:
	.string	"Die Temperatur liegt uber ihrem Grenzwert!\nTemperature: %f\n"
	.align 8
.LC72:
	.string	"Warnung: Die Temperatur nahert sich ihrem unteren Grenzwert.\nTemperatur: %f\n"
	.align 8
.LC73:
	.string	"Warnung: Die Temperatur nahert sich ihrem oberen Grenzwert.\nTemperatur: %f\n"
	.align 8
.LC74:
	.string	"Der Ladezustand ist unter seinem Limit!\nLadezustand: %f\n"
	.align 8
.LC75:
	.string	"Der Ladezustand liegt uber seinem Limit!\nLadezustand: %f\n"
	.align 8
.LC76:
	.string	"Warnung: Der Ladezustand nahert sich seiner unteren Grenze.\nLadezustande: %f\n"
	.align 8
.LC77:
	.string	"Warnung: Der Ladezustand nahert sich seiner Obergrenze.\nLadezustand: %f\n"
	.align 8
.LC78:
	.string	"Die Laderate liegt uber dem Limit!\nLadestrom: %f\n"
	.align 8
.LC79:
	.string	"Warnung: Die Laderate nahert sich ihrer Obergrenze.\nLadestrom: %f\n"
	.text
	.globl	printErrorMessage
	.type	printErrorMessage, @function
printErrorMessage:
.LFB4:
	.cfi_startproc
	endbr64
	pushq	%rbp
	.cfi_def_cfa_offset 16
	.cfi_offset 6, -16
	movq	%rsp, %rbp
	.cfi_def_cfa_register 6
	subq	$48, %rsp
	movl	%edi, -36(%rbp)
	movss	%xmm0, -40(%rbp)
#APP
# 181 "clean-code-craft-tcq-2_simple-monitor-in-c-ArnoldoZerecero_checker.c" 1
	##_ANNOTATION_INITIALREGION_-TIG-iO-JdqT-1-printErrorMessage--20
# 0 "" 2
# 185 "clean-code-craft-tcq-2_simple-monitor-in-c-ArnoldoZerecero_checker.c" 1
	##_ANNOTATION_ATOMICREGION_-TIG-iO-JdqT-1-printErrorMessage--19
# 0 "" 2
#NO_APP
	movl	$24, %edi
	call	malloc@PLT
	movq	%rax, -24(%rbp)
	movq	-24(%rbp), %rax
	movq	-24(%rbp), %rdx
	movq	%rdx, 8(%rax)
	movq	-24(%rbp), %rax
	movq	-24(%rbp), %rdx
	movq	%rdx, 16(%rax)
	movq	-24(%rbp), %rax
	movq	%rax, _TIG_iO_JdqT_1_printErrorMessage_1_opaque_list_1(%rip)
	call	rand@PLT
	movl	%eax, -32(%rbp)
	movl	$24, %edi
	call	malloc@PLT
	movq	%rax, -16(%rbp)
	movq	-16(%rbp), %rax
	movl	$0, (%rax)
	movq	_TIG_iO_JdqT_1_printErrorMessage_1_opaque_list_1(%rip), %rax
	movq	8(%rax), %rdx
	movq	-16(%rbp), %rax
	movq	%rdx, 8(%rax)
	movq	_TIG_iO_JdqT_1_printErrorMessage_1_opaque_list_1(%rip), %rdx
	movq	-16(%rbp), %rax
	movq	%rdx, 16(%rax)
	movq	_TIG_iO_JdqT_1_printErrorMessage_1_opaque_list_1(%rip), %rax
	movq	8(%rax), %rax
	movq	-16(%rbp), %rdx
	movq	%rdx, 16(%rax)
	movq	_TIG_iO_JdqT_1_printErrorMessage_1_opaque_list_1(%rip), %rax
	movq	-16(%rbp), %rdx
	movq	%rdx, 8(%rax)
	call	rand@PLT
	movl	%eax, -28(%rbp)
	movl	$24, %edi
	call	malloc@PLT
	movq	%rax, -8(%rbp)
	movq	-8(%rbp), %rax
	movl	-28(%rbp), %edx
	movl	%edx, (%rax)
	movq	_TIG_iO_JdqT_1_printErrorMessage_1_opaque_list_1(%rip), %rax
	movq	8(%rax), %rdx
	movq	-8(%rbp), %rax
	movq	%rdx, 8(%rax)
	movq	_TIG_iO_JdqT_1_printErrorMessage_1_opaque_list_1(%rip), %rdx
	movq	-8(%rbp), %rax
	movq	%rdx, 16(%rax)
	movq	_TIG_iO_JdqT_1_printErrorMessage_1_opaque_list_1(%rip), %rax
	movq	8(%rax), %rax
	movq	-8(%rbp), %rdx
	movq	%rdx, 16(%rax)
	movq	_TIG_iO_JdqT_1_printErrorMessage_1_opaque_list_1(%rip), %rax
	movq	-8(%rbp), %rdx
	movq	%rdx, 8(%rax)
	movq	_TIG_iO_JdqT_1_printErrorMessage_1_opaque_list_1(%rip), %rax
	movq	8(%rax), %rax
	movq	%rax, _TIG_iO_JdqT_1_printErrorMessage_1_opaque_ptr_1(%rip)
	movq	_TIG_iO_JdqT_1_printErrorMessage_1_opaque_ptr_1(%rip), %rax
	movq	%rax, _TIG_iO_JdqT_1_printErrorMessage_1_opaque_ptr_2(%rip)
	nop
	nop
	movl	printLanguage(%rip), %eax
	testl	%eax, %eax
	jne	.L53
	cmpl	$512, -36(%rbp)
	je	.L54
	cmpl	$512, -36(%rbp)
	jg	.L84
	cmpl	$256, -36(%rbp)
	je	.L56
	cmpl	$256, -36(%rbp)
	jg	.L84
	cmpl	$128, -36(%rbp)
	je	.L57
	cmpl	$128, -36(%rbp)
	jg	.L84
	cmpl	$32, -36(%rbp)
	jg	.L58
	cmpl	$0, -36(%rbp)
	jle	.L84
	cmpl	$32, -36(%rbp)
	ja	.L84
	movl	-36(%rbp), %eax
	leaq	0(,%rax,4), %rdx
	leaq	.L60(%rip), %rax
	movl	(%rdx,%rax), %eax
	cltq
	leaq	.L60(%rip), %rdx
	addq	%rdx, %rax
	notrack jmp	*%rax
	.section	.rodata
	.align 4
	.align 4
.L60:
	.long	.L84-.L60
	.long	.L65-.L60
	.long	.L64-.L60
	.long	.L84-.L60
	.long	.L63-.L60
	.long	.L84-.L60
	.long	.L84-.L60
	.long	.L84-.L60
	.long	.L62-.L60
	.long	.L84-.L60
	.long	.L84-.L60
	.long	.L84-.L60
	.long	.L84-.L60
	.long	.L84-.L60
	.long	.L84-.L60
	.long	.L84-.L60
	.long	.L61-.L60
	.long	.L84-.L60
	.long	.L84-.L60
	.long	.L84-.L60
	.long	.L84-.L60
	.long	.L84-.L60
	.long	.L84-.L60
	.long	.L84-.L60
	.long	.L84-.L60
	.long	.L84-.L60
	.long	.L84-.L60
	.long	.L84-.L60
	.long	.L84-.L60
	.long	.L84-.L60
	.long	.L84-.L60
	.long	.L84-.L60
	.long	.L59-.L60
	.text
.L58:
	cmpl	$64, -36(%rbp)
	je	.L66
	jmp	.L84
.L65:
	pxor	%xmm1, %xmm1
	cvtss2sd	-40(%rbp), %xmm1
	movq	%xmm1, %rax
	movq	%rax, %xmm0
	leaq	.LC60(%rip), %rax
	movq	%rax, %rdi
	movl	$1, %eax
	call	printf@PLT
	jmp	.L68
.L64:
	pxor	%xmm2, %xmm2
	cvtss2sd	-40(%rbp), %xmm2
	movq	%xmm2, %rax
	movq	%rax, %xmm0
	leaq	.LC61(%rip), %rax
	movq	%rax, %rdi
	movl	$1, %eax
	call	printf@PLT
	jmp	.L68
.L63:
	pxor	%xmm3, %xmm3
	cvtss2sd	-40(%rbp), %xmm3
	movq	%xmm3, %rax
	movq	%rax, %xmm0
	leaq	.LC62(%rip), %rax
	movq	%rax, %rdi
	movl	$1, %eax
	call	printf@PLT
	jmp	.L68
.L62:
	pxor	%xmm4, %xmm4
	cvtss2sd	-40(%rbp), %xmm4
	movq	%xmm4, %rax
	movq	%rax, %xmm0
	leaq	.LC63(%rip), %rax
	movq	%rax, %rdi
	movl	$1, %eax
	call	printf@PLT
	jmp	.L68
.L61:
	pxor	%xmm5, %xmm5
	cvtss2sd	-40(%rbp), %xmm5
	movq	%xmm5, %rax
	movq	%rax, %xmm0
	leaq	.LC64(%rip), %rax
	movq	%rax, %rdi
	movl	$1, %eax
	call	printf@PLT
	jmp	.L68
.L59:
	pxor	%xmm6, %xmm6
	cvtss2sd	-40(%rbp), %xmm6
	movq	%xmm6, %rax
	movq	%rax, %xmm0
	leaq	.LC65(%rip), %rax
	movq	%rax, %rdi
	movl	$1, %eax
	call	printf@PLT
	jmp	.L68
.L66:
	pxor	%xmm7, %xmm7
	cvtss2sd	-40(%rbp), %xmm7
	movq	%xmm7, %rax
	movq	%rax, %xmm0
	leaq	.LC66(%rip), %rax
	movq	%rax, %rdi
	movl	$1, %eax
	call	printf@PLT
	jmp	.L68
.L57:
	pxor	%xmm1, %xmm1
	cvtss2sd	-40(%rbp), %xmm1
	movq	%xmm1, %rax
	movq	%rax, %xmm0
	leaq	.LC67(%rip), %rax
	movq	%rax, %rdi
	movl	$1, %eax
	call	printf@PLT
	jmp	.L68
.L56:
	pxor	%xmm2, %xmm2
	cvtss2sd	-40(%rbp), %xmm2
	movq	%xmm2, %rax
	movq	%rax, %xmm0
	leaq	.LC68(%rip), %rax
	movq	%rax, %rdi
	movl	$1, %eax
	call	printf@PLT
	jmp	.L68
.L54:
	pxor	%xmm3, %xmm3
	cvtss2sd	-40(%rbp), %xmm3
	movq	%xmm3, %rax
	movq	%rax, %xmm0
	leaq	.LC69(%rip), %rax
	movq	%rax, %rdi
	movl	$1, %eax
	call	printf@PLT
	jmp	.L68
.L53:
	movl	printLanguage(%rip), %eax
	cmpl	$1, %eax
	jne	.L85
	cmpl	$512, -36(%rbp)
	je	.L69
	cmpl	$512, -36(%rbp)
	jg	.L86
	cmpl	$256, -36(%rbp)
	je	.L71
	cmpl	$256, -36(%rbp)
	jg	.L86
	cmpl	$128, -36(%rbp)
	je	.L72
	cmpl	$128, -36(%rbp)
	jg	.L86
	cmpl	$32, -36(%rbp)
	jg	.L73
	cmpl	$0, -36(%rbp)
	jle	.L86
	cmpl	$32, -36(%rbp)
	ja	.L86
	movl	-36(%rbp), %eax
	leaq	0(,%rax,4), %rdx
	leaq	.L75(%rip), %rax
	movl	(%rdx,%rax), %eax
	cltq
	leaq	.L75(%rip), %rdx
	addq	%rdx, %rax
	notrack jmp	*%rax
	.section	.rodata
	.align 4
	.align 4
.L75:
	.long	.L86-.L75
	.long	.L80-.L75
	.long	.L79-.L75
	.long	.L86-.L75
	.long	.L78-.L75
	.long	.L86-.L75
	.long	.L86-.L75
	.long	.L86-.L75
	.long	.L77-.L75
	.long	.L86-.L75
	.long	.L86-.L75
	.long	.L86-.L75
	.long	.L86-.L75
	.long	.L86-.L75
	.long	.L86-.L75
	.long	.L86-.L75
	.long	.L76-.L75
	.long	.L86-.L75
	.long	.L86-.L75
	.long	.L86-.L75
	.long	.L86-.L75
	.long	.L86-.L75
	.long	.L86-.L75
	.long	.L86-.L75
	.long	.L86-.L75
	.long	.L86-.L75
	.long	.L86-.L75
	.long	.L86-.L75
	.long	.L86-.L75
	.long	.L86-.L75
	.long	.L86-.L75
	.long	.L86-.L75
	.long	.L74-.L75
	.text
.L73:
	cmpl	$64, -36(%rbp)
	je	.L81
	jmp	.L86
.L80:
	pxor	%xmm4, %xmm4
	cvtss2sd	-40(%rbp), %xmm4
	movq	%xmm4, %rax
	movq	%rax, %xmm0
	leaq	.LC70(%rip), %rax
	movq	%rax, %rdi
	movl	$1, %eax
	call	printf@PLT
	movq	_TIG_iO_JdqT_1_temperatureIsInRange_1_opaque_ptr_1(%rip), %rdx
	movq	_TIG_iO_JdqT_1_temperatureIsInRange_1_opaque_ptr_2(%rip), %rax
	cmpq	%rax, %rdx
	jne	.L87
#APP
# 82 "clean-code-craft-tcq-2_simple-monitor-in-c-ArnoldoZerecero_checker.c" 1
	.byte 0xd1,0x43
# 0 "" 2
#NO_APP
.L79:
	pxor	%xmm5, %xmm5
	cvtss2sd	-40(%rbp), %xmm5
	movq	%xmm5, %rax
	movq	%rax, %xmm0
	leaq	.LC71(%rip), %rax
	movq	%rax, %rdi
	movl	$1, %eax
	call	printf@PLT
	jmp	.L68
.L78:
	pxor	%xmm6, %xmm6
	cvtss2sd	-40(%rbp), %xmm6
	movq	%xmm6, %rax
	movq	%rax, %xmm0
	leaq	.LC72(%rip), %rax
	movq	%rax, %rdi
	movl	$1, %eax
	call	printf@PLT
	jmp	.L68
.L77:
	pxor	%xmm7, %xmm7
	cvtss2sd	-40(%rbp), %xmm7
	movq	%xmm7, %rax
	movq	%rax, %xmm0
	leaq	.LC73(%rip), %rax
	movq	%rax, %rdi
	movl	$1, %eax
	call	printf@PLT
	jmp	.L68
.L76:
	pxor	%xmm1, %xmm1
	cvtss2sd	-40(%rbp), %xmm1
	movq	%xmm1, %rax
	movq	%rax, %xmm0
	leaq	.LC74(%rip), %rax
	movq	%rax, %rdi
	movl	$1, %eax
	call	printf@PLT
	jmp	.L68
.L74:
	pxor	%xmm2, %xmm2
	cvtss2sd	-40(%rbp), %xmm2
	movq	%xmm2, %rax
	movq	%rax, %xmm0
	leaq	.LC75(%rip), %rax
	movq	%rax, %rdi
	movl	$1, %eax
	call	printf@PLT
	jmp	.L68
.L81:
	pxor	%xmm3, %xmm3
	cvtss2sd	-40(%rbp), %xmm3
	movq	%xmm3, %rax
	movq	%rax, %xmm0
	leaq	.LC76(%rip), %rax
	movq	%rax, %rdi
	movl	$1, %eax
	call	printf@PLT
	jmp	.L68
.L72:
	pxor	%xmm4, %xmm4
	cvtss2sd	-40(%rbp), %xmm4
	movq	%xmm4, %rax
	movq	%rax, %xmm0
	leaq	.LC77(%rip), %rax
	movq	%rax, %rdi
	movl	$1, %eax
	call	printf@PLT
	jmp	.L68
.L71:
	pxor	%xmm5, %xmm5
	cvtss2sd	-40(%rbp), %xmm5
	movq	%xmm5, %rax
	movq	%rax, %xmm0
	leaq	.LC78(%rip), %rax
	movq	%rax, %rdi
	movl	$1, %eax
	call	printf@PLT
	jmp	.L68
.L69:
	pxor	%xmm6, %xmm6
	cvtss2sd	-40(%rbp), %xmm6
	movq	%xmm6, %rax
	movq	%rax, %xmm0
	leaq	.LC79(%rip), %rax
	movq	%rax, %rdi
	movl	$1, %eax
	call	printf@PLT
	jmp	.L68
.L84:
	nop
	jmp	.L68
.L86:
	nop
	jmp	.L68
.L87:
	nop
.L68:
	nop
.L85:
	nop
	leave
	.cfi_def_cfa 7, 8
	ret
	.cfi_endproc
.LFE4:
	.size	printErrorMessage, .-printErrorMessage
	.globl	batteryIsOk
	.type	batteryIsOk, @function
batteryIsOk:
.LFB7:
	.cfi_startproc
	endbr64
	pushq	%rbp
	.cfi_def_cfa_offset 16
	.cfi_offset 6, -16
	movq	%rsp, %rbp
	.cfi_def_cfa_register 6
	subq	$96, %rsp
	movss	%xmm0, -84(%rbp)
	movss	%xmm1, -88(%rbp)
	movss	%xmm2, -92(%rbp)
#APP
# 80 "/usr/include/x86_64-linux-gnu/bits/byteswap.h" 1
	##_ANNOTATION_INITIALREGION_-TIG-iO-JdqT-1-batteryIsOk--14
# 0 "" 2
# 84 "/usr/include/x86_64-linux-gnu/bits/byteswap.h" 1
	##_ANNOTATION_ATOMICREGION_-TIG-iO-JdqT-1-batteryIsOk--13
# 0 "" 2
#NO_APP
	movl	$24, %edi
	call	malloc@PLT
	movq	%rax, -40(%rbp)
	movq	-40(%rbp), %rax
	movq	-40(%rbp), %rdx
	movq	%rdx, (%rax)
	movq	-40(%rbp), %rax
	movq	-40(%rbp), %rdx
	movq	%rdx, 8(%rax)
	movq	-40(%rbp), %rax
	movq	%rax, _TIG_iO_JdqT_1_batteryIsOk_1_opaque_list_1(%rip)
	call	rand@PLT
	movl	%eax, -68(%rbp)
	movl	$24, %edi
	call	malloc@PLT
	movq	%rax, -32(%rbp)
	movq	-32(%rbp), %rax
	movl	$0, 16(%rax)
	movq	_TIG_iO_JdqT_1_batteryIsOk_1_opaque_list_1(%rip), %rax
	movq	(%rax), %rdx
	movq	-32(%rbp), %rax
	movq	%rdx, (%rax)
	movq	_TIG_iO_JdqT_1_batteryIsOk_1_opaque_list_1(%rip), %rdx
	movq	-32(%rbp), %rax
	movq	%rdx, 8(%rax)
	movq	_TIG_iO_JdqT_1_batteryIsOk_1_opaque_list_1(%rip), %rax
	movq	(%rax), %rax
	movq	-32(%rbp), %rdx
	movq	%rdx, 8(%rax)
	movq	_TIG_iO_JdqT_1_batteryIsOk_1_opaque_list_1(%rip), %rax
	movq	-32(%rbp), %rdx
	movq	%rdx, (%rax)
	call	rand@PLT
	movl	%eax, -64(%rbp)
	movl	$24, %edi
	call	malloc@PLT
	movq	%rax, -24(%rbp)
	movq	-24(%rbp), %rax
	movl	-64(%rbp), %edx
	movl	%edx, 16(%rax)
	movq	_TIG_iO_JdqT_1_batteryIsOk_1_opaque_list_1(%rip), %rax
	movq	(%rax), %rdx
	movq	-24(%rbp), %rax
	movq	%rdx, (%rax)
	movq	_TIG_iO_JdqT_1_batteryIsOk_1_opaque_list_1(%rip), %rdx
	movq	-24(%rbp), %rax
	movq	%rdx, 8(%rax)
	movq	_TIG_iO_JdqT_1_batteryIsOk_1_opaque_list_1(%rip), %rax
	movq	(%rax), %rax
	movq	-24(%rbp), %rdx
	movq	%rdx, 8(%rax)
	movq	_TIG_iO_JdqT_1_batteryIsOk_1_opaque_list_1(%rip), %rax
	movq	-24(%rbp), %rdx
	movq	%rdx, (%rax)
	call	rand@PLT
	movl	%eax, -60(%rbp)
	movl	$24, %edi
	call	malloc@PLT
	movq	%rax, -16(%rbp)
	movl	-60(%rbp), %eax
	leal	(%rax,%rax), %edx
	movq	-16(%rbp), %rax
	movl	%edx, 16(%rax)
	movq	_TIG_iO_JdqT_1_batteryIsOk_1_opaque_list_1(%rip), %rax
	movq	(%rax), %rdx
	movq	-16(%rbp), %rax
	movq	%rdx, (%rax)
	movq	_TIG_iO_JdqT_1_batteryIsOk_1_opaque_list_1(%rip), %rdx
	movq	-16(%rbp), %rax
	movq	%rdx, 8(%rax)
	movq	_TIG_iO_JdqT_1_batteryIsOk_1_opaque_list_1(%rip), %rax
	movq	(%rax), %rax
	movq	-16(%rbp), %rdx
	movq	%rdx, 8(%rax)
	movq	_TIG_iO_JdqT_1_batteryIsOk_1_opaque_list_1(%rip), %rax
	movq	-16(%rbp), %rdx
	movq	%rdx, (%rax)
	call	rand@PLT
	movl	%eax, -56(%rbp)
	movl	$24, %edi
	call	malloc@PLT
	movq	%rax, -8(%rbp)
	movl	-56(%rbp), %edx
	movl	%edx, %eax
	addl	%eax, %eax
	addl	%eax, %edx
	movq	-8(%rbp), %rax
	movl	%edx, 16(%rax)
	movq	_TIG_iO_JdqT_1_batteryIsOk_1_opaque_list_1(%rip), %rax
	movq	(%rax), %rdx
	movq	-8(%rbp), %rax
	movq	%rdx, (%rax)
	movq	_TIG_iO_JdqT_1_batteryIsOk_1_opaque_list_1(%rip), %rdx
	movq	-8(%rbp), %rax
	movq	%rdx, 8(%rax)
	movq	_TIG_iO_JdqT_1_batteryIsOk_1_opaque_list_1(%rip), %rax
	movq	(%rax), %rax
	movq	-8(%rbp), %rdx
	movq	%rdx, 8(%rax)
	movq	_TIG_iO_JdqT_1_batteryIsOk_1_opaque_list_1(%rip), %rax
	movq	-8(%rbp), %rdx
	movq	%rdx, (%rax)
	movq	_TIG_iO_JdqT_1_batteryIsOk_1_opaque_list_1(%rip), %rax
	movq	(%rax), %rax
	movq	%rax, _TIG_iO_JdqT_1_batteryIsOk_1_opaque_ptr_1(%rip)
	movq	_TIG_iO_JdqT_1_batteryIsOk_1_opaque_ptr_1(%rip), %rax
	movq	%rax, _TIG_iO_JdqT_1_batteryIsOk_1_opaque_ptr_2(%rip)
	movq	_TIG_iO_JdqT_1_batteryIsOk_1_opaque_ptr_2(%rip), %rax
	movq	(%rax), %rax
	movq	%rax, _TIG_iO_JdqT_1_batteryIsOk_1_opaque_ptr_2(%rip)
	nop
	nop
	movl	$0, -72(%rbp)
	movl	-84(%rbp), %eax
	movd	%eax, %xmm0
	call	temperatureIsInRange
	movl	%eax, -52(%rbp)
	cmpl	$0, -52(%rbp)
	je	.L89
	movl	-88(%rbp), %eax
	movd	%eax, %xmm0
	call	stateOfChargeIsInRange
	movl	%eax, -48(%rbp)
	cmpl	$0, -48(%rbp)
	je	.L89
	movl	-92(%rbp), %eax
	movd	%eax, %xmm0
	call	chargeRateIsAboveLimit
	movl	%eax, -44(%rbp)
	movq	_TIG_iO_JdqT_1_temperatureIsInRange_1_opaque_ptr_1(%rip), %rdx
	movq	_TIG_iO_JdqT_1_temperatureIsInRange_1_opaque_ptr_2(%rip), %rax
	cmpq	%rax, %rdx
	je	.L90
	cmpl	$0, -44(%rbp)
	je	.L89
	movl	$1, -72(%rbp)
	jmp	.L89
.L90:
#APP
# 197 "clean-code-craft-tcq-2_simple-monitor-in-c-ArnoldoZerecero_checker.c" 1
	.byte 0x76,0x89
# 0 "" 2
#NO_APP
.L89:
	movl	-72(%rbp), %eax
	leave
	.cfi_def_cfa 7, 8
	ret
	.cfi_endproc
.LFE7:
	.size	batteryIsOk, .-batteryIsOk
	.globl	chargeRateIsAboveLimit
	.type	chargeRateIsAboveLimit, @function
chargeRateIsAboveLimit:
.LFB8:
	.cfi_startproc
	endbr64
	pushq	%rbp
	.cfi_def_cfa_offset 16
	.cfi_offset 6, -16
	movq	%rsp, %rbp
	.cfi_def_cfa_register 6
	subq	$64, %rsp
	movss	%xmm0, -52(%rbp)
#APP
# 216 "clean-code-craft-tcq-2_simple-monitor-in-c-ArnoldoZerecero_checker.c" 1
	##_ANNOTATION_INITIALREGION_-TIG-iO-JdqT-1-chargeRateIsAboveLimit--16
# 0 "" 2
# 220 "clean-code-craft-tcq-2_simple-monitor-in-c-ArnoldoZerecero_checker.c" 1
	##_ANNOTATION_ATOMICREGION_-TIG-iO-JdqT-1-chargeRateIsAboveLimit--15
# 0 "" 2
#NO_APP
	movl	$24, %edi
	call	malloc@PLT
	movq	%rax, -24(%rbp)
	movq	-24(%rbp), %rax
	movq	-24(%rbp), %rdx
	movq	%rdx, 16(%rax)
	movq	-24(%rbp), %rax
	movq	-24(%rbp), %rdx
	movq	%rdx, 8(%rax)
	movq	-24(%rbp), %rax
	movq	%rax, _TIG_iO_JdqT_1_chargeRateIsAboveLimit_1_opaque_list_1(%rip)
	call	rand@PLT
	movl	%eax, -32(%rbp)
	movl	$24, %edi
	call	malloc@PLT
	movq	%rax, -16(%rbp)
	movq	-16(%rbp), %rax
	movl	$0, (%rax)
	movq	_TIG_iO_JdqT_1_chargeRateIsAboveLimit_1_opaque_list_1(%rip), %rax
	movq	16(%rax), %rdx
	movq	-16(%rbp), %rax
	movq	%rdx, 16(%rax)
	movq	_TIG_iO_JdqT_1_chargeRateIsAboveLimit_1_opaque_list_1(%rip), %rdx
	movq	-16(%rbp), %rax
	movq	%rdx, 8(%rax)
	movq	_TIG_iO_JdqT_1_chargeRateIsAboveLimit_1_opaque_list_1(%rip), %rax
	movq	16(%rax), %rax
	movq	-16(%rbp), %rdx
	movq	%rdx, 8(%rax)
	movq	_TIG_iO_JdqT_1_chargeRateIsAboveLimit_1_opaque_list_1(%rip), %rax
	movq	-16(%rbp), %rdx
	movq	%rdx, 16(%rax)
	call	rand@PLT
	movl	%eax, -28(%rbp)
	movl	$24, %edi
	call	malloc@PLT
	movq	%rax, -8(%rbp)
	movq	-8(%rbp), %rax
	movl	-28(%rbp), %edx
	movl	%edx, (%rax)
	movq	_TIG_iO_JdqT_1_chargeRateIsAboveLimit_1_opaque_list_1(%rip), %rax
	movq	16(%rax), %rdx
	movq	-8(%rbp), %rax
	movq	%rdx, 16(%rax)
	movq	_TIG_iO_JdqT_1_chargeRateIsAboveLimit_1_opaque_list_1(%rip), %rdx
	movq	-8(%rbp), %rax
	movq	%rdx, 8(%rax)
	movq	_TIG_iO_JdqT_1_chargeRateIsAboveLimit_1_opaque_list_1(%rip), %rax
	movq	16(%rax), %rax
	movq	-8(%rbp), %rdx
	movq	%rdx, 8(%rax)
	movq	_TIG_iO_JdqT_1_chargeRateIsAboveLimit_1_opaque_list_1(%rip), %rax
	movq	-8(%rbp), %rdx
	movq	%rdx, 16(%rax)
	movq	_TIG_iO_JdqT_1_chargeRateIsAboveLimit_1_opaque_list_1(%rip), %rax
	movq	16(%rax), %rax
	movq	%rax, _TIG_iO_JdqT_1_chargeRateIsAboveLimit_1_opaque_ptr_1(%rip)
	movq	_TIG_iO_JdqT_1_chargeRateIsAboveLimit_1_opaque_ptr_1(%rip), %rax
	movq	%rax, _TIG_iO_JdqT_1_chargeRateIsAboveLimit_1_opaque_ptr_2(%rip)
	nop
	nop
	movl	$1, -40(%rbp)
	movl	$0, -36(%rbp)
	movss	-52(%rbp), %xmm0
	comiss	.LC33(%rip), %xmm0
	jbe	.L103
	movl	$256, -36(%rbp)
	movl	$0, -40(%rbp)
	jmp	.L95
.L103:
	movq	_TIG_iO_JdqT_1_temperatureIsInRange_1_opaque_ptr_1(%rip), %rdx
	movq	_TIG_iO_JdqT_1_temperatureIsInRange_1_opaque_ptr_2(%rip), %rax
	cmpq	%rax, %rdx
	je	.L98
	movss	-52(%rbp), %xmm0
	comiss	.LC49(%rip), %xmm0
	jbe	.L95
	movl	$512, -36(%rbp)
	jmp	.L95
.L98:
	movss	-52(%rbp), %xmm0
	comiss	.LC49(%rip), %xmm0
	seta	%al
	movzbl	%al, %eax
	cmpl	%eax, -32(%rbp)
	jle	.L98
.L95:
	movl	-52(%rbp), %edx
	movl	-36(%rbp), %eax
	movd	%edx, %xmm0
	movl	%eax, %edi
	call	printErrorMessage
	movl	-40(%rbp), %eax
	leave
	.cfi_def_cfa 7, 8
	ret
	.cfi_endproc
.LFE8:
	.size	chargeRateIsAboveLimit, .-chargeRateIsAboveLimit
	.globl	temperatureIsInRange
	.type	temperatureIsInRange, @function
temperatureIsInRange:
.LFB9:
	.cfi_startproc
	endbr64
	pushq	%rbp
	.cfi_def_cfa_offset 16
	.cfi_offset 6, -16
	movq	%rsp, %rbp
	.cfi_def_cfa_register 6
	subq	$80, %rsp
	movss	%xmm0, -68(%rbp)
#APP
# 203 "clean-code-craft-tcq-2_simple-monitor-in-c-ArnoldoZerecero_checker.c" 1
	##_ANNOTATION_INITIALREGION_-TIG-iO-JdqT-1-temperatureIsInRange--24
# 0 "" 2
# 207 "clean-code-craft-tcq-2_simple-monitor-in-c-ArnoldoZerecero_checker.c" 1
	##_ANNOTATION_ATOMICREGION_-TIG-iO-JdqT-1-temperatureIsInRange--23
# 0 "" 2
#NO_APP
	movl	$24, %edi
	call	malloc@PLT
	movq	%rax, -32(%rbp)
	movq	-32(%rbp), %rax
	movq	-32(%rbp), %rdx
	movq	%rdx, (%rax)
	movq	-32(%rbp), %rax
	movq	-32(%rbp), %rdx
	movq	%rdx, 8(%rax)
	movq	-32(%rbp), %rax
	movq	%rax, _TIG_iO_JdqT_1_temperatureIsInRange_1_opaque_list_1(%rip)
	call	rand@PLT
	movl	%eax, -44(%rbp)
	movl	$24, %edi
	call	malloc@PLT
	movq	%rax, -24(%rbp)
	movq	-24(%rbp), %rax
	movl	$0, 16(%rax)
	movq	_TIG_iO_JdqT_1_temperatureIsInRange_1_opaque_list_1(%rip), %rax
	movq	(%rax), %rdx
	movq	-24(%rbp), %rax
	movq	%rdx, (%rax)
	movq	_TIG_iO_JdqT_1_temperatureIsInRange_1_opaque_list_1(%rip), %rdx
	movq	-24(%rbp), %rax
	movq	%rdx, 8(%rax)
	movq	_TIG_iO_JdqT_1_temperatureIsInRange_1_opaque_list_1(%rip), %rax
	movq	(%rax), %rax
	movq	-24(%rbp), %rdx
	movq	%rdx, 8(%rax)
	movq	_TIG_iO_JdqT_1_temperatureIsInRange_1_opaque_list_1(%rip), %rax
	movq	-24(%rbp), %rdx
	movq	%rdx, (%rax)
	call	rand@PLT
	movl	%eax, -40(%rbp)
	movl	$24, %edi
	call	malloc@PLT
	movq	%rax, -16(%rbp)
	movq	-16(%rbp), %rax
	movl	-40(%rbp), %edx
	movl	%edx, 16(%rax)
	movq	_TIG_iO_JdqT_1_temperatureIsInRange_1_opaque_list_1(%rip), %rax
	movq	(%rax), %rdx
	movq	-16(%rbp), %rax
	movq	%rdx, (%rax)
	movq	_TIG_iO_JdqT_1_temperatureIsInRange_1_opaque_list_1(%rip), %rdx
	movq	-16(%rbp), %rax
	movq	%rdx, 8(%rax)
	movq	_TIG_iO_JdqT_1_temperatureIsInRange_1_opaque_list_1(%rip), %rax
	movq	(%rax), %rax
	movq	-16(%rbp), %rdx
	movq	%rdx, 8(%rax)
	movq	_TIG_iO_JdqT_1_temperatureIsInRange_1_opaque_list_1(%rip), %rax
	movq	-16(%rbp), %rdx
	movq	%rdx, (%rax)
	call	rand@PLT
	movl	%eax, -36(%rbp)
	movl	$24, %edi
	call	malloc@PLT
	movq	%rax, -8(%rbp)
	movl	-36(%rbp), %eax
	leal	(%rax,%rax), %edx
	movq	-8(%rbp), %rax
	movl	%edx, 16(%rax)
	movq	_TIG_iO_JdqT_1_temperatureIsInRange_1_opaque_list_1(%rip), %rax
	movq	(%rax), %rdx
	movq	-8(%rbp), %rax
	movq	%rdx, (%rax)
	movq	_TIG_iO_JdqT_1_temperatureIsInRange_1_opaque_list_1(%rip), %rdx
	movq	-8(%rbp), %rax
	movq	%rdx, 8(%rax)
	movq	_TIG_iO_JdqT_1_temperatureIsInRange_1_opaque_list_1(%rip), %rax
	movq	(%rax), %rax
	movq	-8(%rbp), %rdx
	movq	%rdx, 8(%rax)
	movq	_TIG_iO_JdqT_1_temperatureIsInRange_1_opaque_list_1(%rip), %rax
	movq	-8(%rbp), %rdx
	movq	%rdx, (%rax)
	movq	_TIG_iO_JdqT_1_temperatureIsInRange_1_opaque_list_1(%rip), %rax
	movq	(%rax), %rax
	movq	%rax, _TIG_iO_JdqT_1_temperatureIsInRange_1_opaque_ptr_1(%rip)
	movq	_TIG_iO_JdqT_1_temperatureIsInRange_1_opaque_ptr_1(%rip), %rax
	movq	%rax, _TIG_iO_JdqT_1_temperatureIsInRange_1_opaque_ptr_2(%rip)
	movq	_TIG_iO_JdqT_1_temperatureIsInRange_1_opaque_ptr_2(%rip), %rax
	movq	(%rax), %rax
	movq	%rax, _TIG_iO_JdqT_1_temperatureIsInRange_1_opaque_ptr_2(%rip)
	nop
	nop
	movl	$1, -52(%rbp)
	movl	$0, -48(%rbp)
	pxor	%xmm0, %xmm0
	comiss	-68(%rbp), %xmm0
	jbe	.L119
	movl	$1, -48(%rbp)
	movl	$0, -52(%rbp)
	jmp	.L107
.L119:
	movss	-68(%rbp), %xmm0
	comiss	.LC12(%rip), %xmm0
	jbe	.L120
	movl	$2, -48(%rbp)
	movl	$0, -52(%rbp)
	jmp	.L107
.L120:
	movss	.LC80(%rip), %xmm0
	comiss	-68(%rbp), %xmm0
	jbe	.L121
	movl	$4, -48(%rbp)
	jmp	.L107
.L121:
	movss	-68(%rbp), %xmm0
	comiss	.LC81(%rip), %xmm0
	jbe	.L107
	movl	$8, -48(%rbp)
.L107:
	movl	-68(%rbp), %edx
	movl	-48(%rbp), %eax
	movd	%edx, %xmm0
	movl	%eax, %edi
	call	printErrorMessage
	movq	_TIG_iO_JdqT_1_temperatureIsInRange_1_opaque_ptr_1(%rip), %rdx
	movq	_TIG_iO_JdqT_1_temperatureIsInRange_1_opaque_ptr_2(%rip), %rax
	cmpq	%rax, %rdx
	jne	.L113
	movl	$4, %eax
	jmp	.L114
.L113:
	movl	-52(%rbp), %eax
.L114:
	leave
	.cfi_def_cfa 7, 8
	ret
	.cfi_endproc
.LFE9:
	.size	temperatureIsInRange, .-temperatureIsInRange
	.section	.rodata
	.align 4
.LC0:
	.long	-1110651699
	.align 4
.LC4:
	.long	0
	.align 4
.LC6:
	.long	1036831949
	.align 4
.LC8:
	.long	1102053376
	.align 4
.LC10:
	.long	1110677914
	.align 4
.LC12:
	.long	1110704128
	.align 4
.LC14:
	.long	1110730342
	.align 4
.LC16:
	.long	1100952371
	.align 4
.LC18:
	.long	1101004800
	.align 4
.LC20:
	.long	1101057229
	.align 4
.LC22:
	.long	1112014848
	.align 4
.LC24:
	.long	1117768909
	.align 4
.LC26:
	.long	1090519040
	.align 4
.LC27:
	.long	1117782016
	.align 4
.LC29:
	.long	1117795123
	.align 4
.LC31:
	.long	1060320051
	.align 4
.LC33:
	.long	1061997773
	.align 4
.LC35:
	.long	1063675494
	.align 4
.LC38:
	.long	-1082130432
	.align 4
.LC40:
	.long	1116471296
	.align 4
.LC41:
	.long	1103626240
	.align 4
.LC43:
	.long	1118437376
	.align 4
.LC45:
	.long	1061494456
	.align 4
.LC46:
	.long	1117650944
	.align 4
.LC47:
	.long	1110441984
	.align 4
.LC49:
	.long	1061326684
	.align 4
.LC50:
	.long	1101529088
	.align 4
.LC51:
	.long	1065353216
	.align 4
.LC53:
	.long	1061158912
	.align 4
.LC54:
	.long	1103049523
	.align 4
.LC55:
	.long	1074580685
	.align 4
.LC58:
	.long	1103101952
	.align 4
.LC59:
	.long	1117257728
	.align 4
.LC80:
	.long	1074790400
	.align 4
.LC81:
	.long	1110114304
	.ident	"GCC: (Ubuntu 11.4.0-1ubuntu1~22.04) 11.4.0"
	.section	.note.GNU-stack,"",@progbits
	.section	.note.gnu.property,"a"
	.align 8
	.long	1f - 0f
	.long	4f - 1f
	.long	5
0:
	.string	"GNU"
1:
	.align 8
	.long	0xc0000002
	.long	3f - 2f
2:
	.long	0x3
3:
	.align 8
4:
