	.file	"githubber-me_dsathirdsem_3_opaque.c"
	.text
	.globl	_TIG_iO_tDyg_1___uint32_identity_1_opaque_list_1
	.bss
	.align 8
	.type	_TIG_iO_tDyg_1___uint32_identity_1_opaque_list_1, @object
	.size	_TIG_iO_tDyg_1___uint32_identity_1_opaque_list_1, 8
_TIG_iO_tDyg_1___uint32_identity_1_opaque_list_1:
	.zero	8
	.globl	_TIG_iO_tDyg_1_display_1_opaque_list_2
	.align 8
	.type	_TIG_iO_tDyg_1_display_1_opaque_list_2, @object
	.size	_TIG_iO_tDyg_1_display_1_opaque_list_2, 8
_TIG_iO_tDyg_1_display_1_opaque_list_2:
	.zero	8
	.globl	_TIG_iO_tDyg_1___bswap_32_1_opaque_list_1
	.align 8
	.type	_TIG_iO_tDyg_1___bswap_32_1_opaque_list_1, @object
	.size	_TIG_iO_tDyg_1___bswap_32_1_opaque_list_1, 8
_TIG_iO_tDyg_1___bswap_32_1_opaque_list_1:
	.zero	8
	.globl	_TIG_iO_tDyg_1___uint64_identity_1_opaque_ptr_2
	.align 8
	.type	_TIG_iO_tDyg_1___uint64_identity_1_opaque_ptr_2, @object
	.size	_TIG_iO_tDyg_1___uint64_identity_1_opaque_ptr_2, 8
_TIG_iO_tDyg_1___uint64_identity_1_opaque_ptr_2:
	.zero	8
	.globl	_TIG_iO_tDyg_1_pop_1_opaque_list_1
	.align 8
	.type	_TIG_iO_tDyg_1_pop_1_opaque_list_1, @object
	.size	_TIG_iO_tDyg_1_pop_1_opaque_list_1, 8
_TIG_iO_tDyg_1_pop_1_opaque_list_1:
	.zero	8
	.globl	_TIG_iO_tDyg_1_palindrome_1_opaque_ptr_2
	.align 8
	.type	_TIG_iO_tDyg_1_palindrome_1_opaque_ptr_2, @object
	.size	_TIG_iO_tDyg_1_palindrome_1_opaque_ptr_2, 8
_TIG_iO_tDyg_1_palindrome_1_opaque_ptr_2:
	.zero	8
	.globl	s
	.align 16
	.type	s, @object
	.size	s, 20
s:
	.zero	20
	.globl	_TIG_iO_tDyg_1___bswap_16_1_opaque_list_1
	.align 8
	.type	_TIG_iO_tDyg_1___bswap_16_1_opaque_list_1, @object
	.size	_TIG_iO_tDyg_1___bswap_16_1_opaque_list_1, 8
_TIG_iO_tDyg_1___bswap_16_1_opaque_list_1:
	.zero	8
	.globl	_TIG_IZ_tDyg_argc
	.align 4
	.type	_TIG_IZ_tDyg_argc, @object
	.size	_TIG_IZ_tDyg_argc, 4
_TIG_IZ_tDyg_argc:
	.zero	4
	.globl	_TIG_iO_tDyg_1___uint16_identity_1_opaque_list_1
	.align 8
	.type	_TIG_iO_tDyg_1___uint16_identity_1_opaque_list_1, @object
	.size	_TIG_iO_tDyg_1___uint16_identity_1_opaque_list_1, 8
_TIG_iO_tDyg_1___uint16_identity_1_opaque_list_1:
	.zero	8
	.globl	_TIG_iO_tDyg_1___bswap_64_1_opaque_list_1
	.align 8
	.type	_TIG_iO_tDyg_1___bswap_64_1_opaque_list_1, @object
	.size	_TIG_iO_tDyg_1___bswap_64_1_opaque_list_1, 8
_TIG_iO_tDyg_1___bswap_64_1_opaque_list_1:
	.zero	8
	.globl	_TIG_iO_tDyg_1_pop_1_opaque_list_2
	.align 8
	.type	_TIG_iO_tDyg_1_pop_1_opaque_list_2, @object
	.size	_TIG_iO_tDyg_1_pop_1_opaque_list_2, 8
_TIG_iO_tDyg_1_pop_1_opaque_list_2:
	.zero	8
	.globl	_TIG_iO_tDyg_1_main_1_opaque_list_1
	.align 8
	.type	_TIG_iO_tDyg_1_main_1_opaque_list_1, @object
	.size	_TIG_iO_tDyg_1_main_1_opaque_list_1, 8
_TIG_iO_tDyg_1_main_1_opaque_list_1:
	.zero	8
	.globl	_TIG_iO_tDyg_1_main_1_opaque_ptr_2
	.align 8
	.type	_TIG_iO_tDyg_1_main_1_opaque_ptr_2, @object
	.size	_TIG_iO_tDyg_1_main_1_opaque_ptr_2, 8
_TIG_iO_tDyg_1_main_1_opaque_ptr_2:
	.zero	8
	.globl	_TIG_iO_tDyg_1_pop_1_opaque_ptr_2
	.align 8
	.type	_TIG_iO_tDyg_1_pop_1_opaque_ptr_2, @object
	.size	_TIG_iO_tDyg_1_pop_1_opaque_ptr_2, 8
_TIG_iO_tDyg_1_pop_1_opaque_ptr_2:
	.zero	8
	.globl	_TIG_iO_tDyg_1_push_1_opaque_ptr_2
	.align 8
	.type	_TIG_iO_tDyg_1_push_1_opaque_ptr_2, @object
	.size	_TIG_iO_tDyg_1_push_1_opaque_ptr_2, 8
_TIG_iO_tDyg_1_push_1_opaque_ptr_2:
	.zero	8
	.globl	_TIG_iO_tDyg_1___uint32_identity_1_opaque_list_2
	.align 8
	.type	_TIG_iO_tDyg_1___uint32_identity_1_opaque_list_2, @object
	.size	_TIG_iO_tDyg_1___uint32_identity_1_opaque_list_2, 8
_TIG_iO_tDyg_1___uint32_identity_1_opaque_list_2:
	.zero	8
	.globl	_TIG_iO_tDyg_1___bswap_16_1_opaque_list_2
	.align 8
	.type	_TIG_iO_tDyg_1___bswap_16_1_opaque_list_2, @object
	.size	_TIG_iO_tDyg_1___bswap_16_1_opaque_list_2, 8
_TIG_iO_tDyg_1___bswap_16_1_opaque_list_2:
	.zero	8
	.globl	_TIG_iO_tDyg_1_palindrome_1_opaque_ptr_1
	.align 8
	.type	_TIG_iO_tDyg_1_palindrome_1_opaque_ptr_1, @object
	.size	_TIG_iO_tDyg_1_palindrome_1_opaque_ptr_1, 8
_TIG_iO_tDyg_1_palindrome_1_opaque_ptr_1:
	.zero	8
	.globl	_TIG_iO_tDyg_1_display_1_opaque_list_1
	.align 8
	.type	_TIG_iO_tDyg_1_display_1_opaque_list_1, @object
	.size	_TIG_iO_tDyg_1_display_1_opaque_list_1, 8
_TIG_iO_tDyg_1_display_1_opaque_list_1:
	.zero	8
	.globl	_TIG_iO_tDyg_1___bswap_32_1_opaque_ptr_2
	.align 8
	.type	_TIG_iO_tDyg_1___bswap_32_1_opaque_ptr_2, @object
	.size	_TIG_iO_tDyg_1___bswap_32_1_opaque_ptr_2, 8
_TIG_iO_tDyg_1___bswap_32_1_opaque_ptr_2:
	.zero	8
	.globl	_TIG_iO_tDyg_1_display_1_opaque_ptr_2
	.align 8
	.type	_TIG_iO_tDyg_1_display_1_opaque_ptr_2, @object
	.size	_TIG_iO_tDyg_1_display_1_opaque_ptr_2, 8
_TIG_iO_tDyg_1_display_1_opaque_ptr_2:
	.zero	8
	.globl	_TIG_iO_tDyg_1___uint64_identity_1_opaque_ptr_1
	.align 8
	.type	_TIG_iO_tDyg_1___uint64_identity_1_opaque_ptr_1, @object
	.size	_TIG_iO_tDyg_1___uint64_identity_1_opaque_ptr_1, 8
_TIG_iO_tDyg_1___uint64_identity_1_opaque_ptr_1:
	.zero	8
	.globl	_TIG_iO_tDyg_1___bswap_64_1_opaque_ptr_2
	.align 8
	.type	_TIG_iO_tDyg_1___bswap_64_1_opaque_ptr_2, @object
	.size	_TIG_iO_tDyg_1___bswap_64_1_opaque_ptr_2, 8
_TIG_iO_tDyg_1___bswap_64_1_opaque_ptr_2:
	.zero	8
	.globl	_TIG_iO_tDyg_1___uint16_identity_1_opaque_list_2
	.align 8
	.type	_TIG_iO_tDyg_1___uint16_identity_1_opaque_list_2, @object
	.size	_TIG_iO_tDyg_1___uint16_identity_1_opaque_list_2, 8
_TIG_iO_tDyg_1___uint16_identity_1_opaque_list_2:
	.zero	8
	.globl	_TIG_iO_tDyg_1___bswap_16_1_opaque_ptr_2
	.align 8
	.type	_TIG_iO_tDyg_1___bswap_16_1_opaque_ptr_2, @object
	.size	_TIG_iO_tDyg_1___bswap_16_1_opaque_ptr_2, 8
_TIG_iO_tDyg_1___bswap_16_1_opaque_ptr_2:
	.zero	8
	.globl	_TIG_iO_tDyg_1___uint32_identity_1_opaque_ptr_1
	.align 8
	.type	_TIG_iO_tDyg_1___uint32_identity_1_opaque_ptr_1, @object
	.size	_TIG_iO_tDyg_1___uint32_identity_1_opaque_ptr_1, 8
_TIG_iO_tDyg_1___uint32_identity_1_opaque_ptr_1:
	.zero	8
	.globl	_TIG_IZ_tDyg_envp
	.align 8
	.type	_TIG_IZ_tDyg_envp, @object
	.size	_TIG_IZ_tDyg_envp, 8
_TIG_IZ_tDyg_envp:
	.zero	8
	.globl	_TIG_iO_tDyg_1___uint16_identity_1_opaque_ptr_2
	.align 8
	.type	_TIG_iO_tDyg_1___uint16_identity_1_opaque_ptr_2, @object
	.size	_TIG_iO_tDyg_1___uint16_identity_1_opaque_ptr_2, 8
_TIG_iO_tDyg_1___uint16_identity_1_opaque_ptr_2:
	.zero	8
	.globl	_TIG_iO_tDyg_1___uint32_identity_1_opaque_ptr_2
	.align 8
	.type	_TIG_iO_tDyg_1___uint32_identity_1_opaque_ptr_2, @object
	.size	_TIG_iO_tDyg_1___uint32_identity_1_opaque_ptr_2, 8
_TIG_iO_tDyg_1___uint32_identity_1_opaque_ptr_2:
	.zero	8
	.globl	_TIG_iO_tDyg_1___uint64_identity_1_opaque_list_1
	.align 8
	.type	_TIG_iO_tDyg_1___uint64_identity_1_opaque_list_1, @object
	.size	_TIG_iO_tDyg_1___uint64_identity_1_opaque_list_1, 8
_TIG_iO_tDyg_1___uint64_identity_1_opaque_list_1:
	.zero	8
	.globl	_TIG_iO_tDyg_1_display_1_opaque_ptr_1
	.align 8
	.type	_TIG_iO_tDyg_1_display_1_opaque_ptr_1, @object
	.size	_TIG_iO_tDyg_1_display_1_opaque_ptr_1, 8
_TIG_iO_tDyg_1_display_1_opaque_ptr_1:
	.zero	8
	.globl	top
	.align 4
	.type	top, @object
	.size	top, 4
top:
	.zero	4
	.globl	_TIG_iO_tDyg_1_pop_1_opaque_ptr_1
	.align 8
	.type	_TIG_iO_tDyg_1_pop_1_opaque_ptr_1, @object
	.size	_TIG_iO_tDyg_1_pop_1_opaque_ptr_1, 8
_TIG_iO_tDyg_1_pop_1_opaque_ptr_1:
	.zero	8
	.globl	_TIG_iO_tDyg_1_push_1_opaque_ptr_1
	.align 8
	.type	_TIG_iO_tDyg_1_push_1_opaque_ptr_1, @object
	.size	_TIG_iO_tDyg_1_push_1_opaque_ptr_1, 8
_TIG_iO_tDyg_1_push_1_opaque_ptr_1:
	.zero	8
	.globl	_TIG_iO_tDyg_1___uint16_identity_1_opaque_ptr_1
	.align 8
	.type	_TIG_iO_tDyg_1___uint16_identity_1_opaque_ptr_1, @object
	.size	_TIG_iO_tDyg_1___uint16_identity_1_opaque_ptr_1, 8
_TIG_iO_tDyg_1___uint16_identity_1_opaque_ptr_1:
	.zero	8
	.globl	_TIG_iO_tDyg_1___bswap_64_1_opaque_list_2
	.align 8
	.type	_TIG_iO_tDyg_1___bswap_64_1_opaque_list_2, @object
	.size	_TIG_iO_tDyg_1___bswap_64_1_opaque_list_2, 8
_TIG_iO_tDyg_1___bswap_64_1_opaque_list_2:
	.zero	8
	.globl	_TIG_IZ_tDyg_argv
	.align 8
	.type	_TIG_IZ_tDyg_argv, @object
	.size	_TIG_IZ_tDyg_argv, 8
_TIG_IZ_tDyg_argv:
	.zero	8
	.globl	_TIG_iO_tDyg_1_main_1_opaque_list_2
	.align 8
	.type	_TIG_iO_tDyg_1_main_1_opaque_list_2, @object
	.size	_TIG_iO_tDyg_1_main_1_opaque_list_2, 8
_TIG_iO_tDyg_1_main_1_opaque_list_2:
	.zero	8
	.globl	_TIG_iO_tDyg_1___uint64_identity_1_opaque_list_2
	.align 8
	.type	_TIG_iO_tDyg_1___uint64_identity_1_opaque_list_2, @object
	.size	_TIG_iO_tDyg_1___uint64_identity_1_opaque_list_2, 8
_TIG_iO_tDyg_1___uint64_identity_1_opaque_list_2:
	.zero	8
	.globl	_TIG_iO_tDyg_1___bswap_32_1_opaque_ptr_1
	.align 8
	.type	_TIG_iO_tDyg_1___bswap_32_1_opaque_ptr_1, @object
	.size	_TIG_iO_tDyg_1___bswap_32_1_opaque_ptr_1, 8
_TIG_iO_tDyg_1___bswap_32_1_opaque_ptr_1:
	.zero	8
	.globl	_TIG_iO_tDyg_1___bswap_32_1_opaque_list_2
	.align 8
	.type	_TIG_iO_tDyg_1___bswap_32_1_opaque_list_2, @object
	.size	_TIG_iO_tDyg_1___bswap_32_1_opaque_list_2, 8
_TIG_iO_tDyg_1___bswap_32_1_opaque_list_2:
	.zero	8
	.globl	_TIG_iO_tDyg_1_push_1_opaque_list_1
	.align 8
	.type	_TIG_iO_tDyg_1_push_1_opaque_list_1, @object
	.size	_TIG_iO_tDyg_1_push_1_opaque_list_1, 8
_TIG_iO_tDyg_1_push_1_opaque_list_1:
	.zero	8
	.globl	_TIG_iO_tDyg_1___bswap_16_1_opaque_ptr_1
	.align 8
	.type	_TIG_iO_tDyg_1___bswap_16_1_opaque_ptr_1, @object
	.size	_TIG_iO_tDyg_1___bswap_16_1_opaque_ptr_1, 8
_TIG_iO_tDyg_1___bswap_16_1_opaque_ptr_1:
	.zero	8
	.globl	_TIG_iO_tDyg_1_push_1_opaque_list_2
	.align 8
	.type	_TIG_iO_tDyg_1_push_1_opaque_list_2, @object
	.size	_TIG_iO_tDyg_1_push_1_opaque_list_2, 8
_TIG_iO_tDyg_1_push_1_opaque_list_2:
	.zero	8
	.globl	_TIG_iO_tDyg_1_palindrome_1_opaque_list_2
	.align 8
	.type	_TIG_iO_tDyg_1_palindrome_1_opaque_list_2, @object
	.size	_TIG_iO_tDyg_1_palindrome_1_opaque_list_2, 8
_TIG_iO_tDyg_1_palindrome_1_opaque_list_2:
	.zero	8
	.globl	_TIG_iO_tDyg_1___bswap_64_1_opaque_ptr_1
	.align 8
	.type	_TIG_iO_tDyg_1___bswap_64_1_opaque_ptr_1, @object
	.size	_TIG_iO_tDyg_1___bswap_64_1_opaque_ptr_1, 8
_TIG_iO_tDyg_1___bswap_64_1_opaque_ptr_1:
	.zero	8
	.globl	_TIG_iO_tDyg_1_main_1_opaque_ptr_1
	.align 8
	.type	_TIG_iO_tDyg_1_main_1_opaque_ptr_1, @object
	.size	_TIG_iO_tDyg_1_main_1_opaque_ptr_1, 8
_TIG_iO_tDyg_1_main_1_opaque_ptr_1:
	.zero	8
	.globl	_TIG_iO_tDyg_1_palindrome_1_opaque_list_1
	.align 8
	.type	_TIG_iO_tDyg_1_palindrome_1_opaque_list_1, @object
	.size	_TIG_iO_tDyg_1_palindrome_1_opaque_list_1, 8
_TIG_iO_tDyg_1_palindrome_1_opaque_list_1:
	.zero	8
	.section	.rodata
.LC0:
	.string	"\nStack content are:"
.LC1:
	.string	"| %d |\n"
	.align 8
.LC2:
	.string	"\nReverse of stack content are:"
.LC3:
	.string	"\nIt is palindrome number"
	.align 8
.LC4:
	.string	"\nIt is not a palindrome number"
	.text
	.globl	palindrome
	.type	palindrome, @function
palindrome:
.LFB1:
	.cfi_startproc
	endbr64
	pushq	%rbp
	.cfi_def_cfa_offset 16
	.cfi_offset 6, -16
	movq	%rsp, %rbp
	.cfi_def_cfa_register 6
	subq	$48, %rsp
#APP
# 70 "/usr/include/x86_64-linux-gnu/bits/byteswap.h" 1
	##_ANNOTATION_INITIALREGION_-TIG-iO-tDyg-1-palindrome--18
# 0 "" 2
# 74 "/usr/include/x86_64-linux-gnu/bits/byteswap.h" 1
	##_ANNOTATION_ATOMICREGION_-TIG-iO-tDyg-1-palindrome--17
# 0 "" 2
#NO_APP
	movl	$24, %edi
	call	malloc@PLT
	movq	%rax, -24(%rbp)
	movq	-24(%rbp), %rax
	movq	-24(%rbp), %rdx
	movq	%rdx, 8(%rax)
	movq	-24(%rbp), %rax
	movq	-24(%rbp), %rdx
	movq	%rdx, (%rax)
	movq	-24(%rbp), %rax
	movq	%rax, _TIG_iO_tDyg_1_palindrome_1_opaque_list_1(%rip)
	call	rand@PLT
	movl	%eax, -32(%rbp)
	movl	$24, %edi
	call	malloc@PLT
	movq	%rax, -16(%rbp)
	movq	-16(%rbp), %rax
	movl	$0, 16(%rax)
	movq	_TIG_iO_tDyg_1_palindrome_1_opaque_list_1(%rip), %rax
	movq	8(%rax), %rdx
	movq	-16(%rbp), %rax
	movq	%rdx, 8(%rax)
	movq	_TIG_iO_tDyg_1_palindrome_1_opaque_list_1(%rip), %rdx
	movq	-16(%rbp), %rax
	movq	%rdx, (%rax)
	movq	_TIG_iO_tDyg_1_palindrome_1_opaque_list_1(%rip), %rax
	movq	8(%rax), %rax
	movq	-16(%rbp), %rdx
	movq	%rdx, (%rax)
	movq	_TIG_iO_tDyg_1_palindrome_1_opaque_list_1(%rip), %rax
	movq	-16(%rbp), %rdx
	movq	%rdx, 8(%rax)
	call	rand@PLT
	movl	%eax, -28(%rbp)
	movl	$24, %edi
	call	malloc@PLT
	movq	%rax, -8(%rbp)
	movq	-8(%rbp), %rax
	movl	-28(%rbp), %edx
	movl	%edx, 16(%rax)
	movq	_TIG_iO_tDyg_1_palindrome_1_opaque_list_1(%rip), %rax
	movq	8(%rax), %rdx
	movq	-8(%rbp), %rax
	movq	%rdx, 8(%rax)
	movq	_TIG_iO_tDyg_1_palindrome_1_opaque_list_1(%rip), %rdx
	movq	-8(%rbp), %rax
	movq	%rdx, (%rax)
	movq	_TIG_iO_tDyg_1_palindrome_1_opaque_list_1(%rip), %rax
	movq	8(%rax), %rax
	movq	-8(%rbp), %rdx
	movq	%rdx, (%rax)
	movq	_TIG_iO_tDyg_1_palindrome_1_opaque_list_1(%rip), %rax
	movq	-8(%rbp), %rdx
	movq	%rdx, 8(%rax)
	movq	_TIG_iO_tDyg_1_palindrome_1_opaque_list_1(%rip), %rax
	movq	8(%rax), %rax
	movq	%rax, _TIG_iO_tDyg_1_palindrome_1_opaque_ptr_1(%rip)
	movq	_TIG_iO_tDyg_1_palindrome_1_opaque_ptr_1(%rip), %rax
	movq	%rax, _TIG_iO_tDyg_1_palindrome_1_opaque_ptr_2(%rip)
	movq	_TIG_iO_tDyg_1_palindrome_1_opaque_ptr_2(%rip), %rax
	movq	8(%rax), %rax
	movq	%rax, _TIG_iO_tDyg_1_palindrome_1_opaque_ptr_2(%rip)
	nop
	nop
	movl	$1, -40(%rbp)
	leaq	.LC0(%rip), %rax
	movq	%rax, %rdi
	call	puts@PLT
	movl	top(%rip), %eax
	movl	%eax, -36(%rbp)
	jmp	.L2
.L4:
	movq	_TIG_iO_tDyg_1_push_1_opaque_ptr_1(%rip), %rdx
	movq	_TIG_iO_tDyg_1_push_1_opaque_ptr_2(%rip), %rax
	cmpq	%rax, %rdx
	je	.L3
	movl	-36(%rbp), %eax
	cltq
	leaq	0(,%rax,4), %rdx
	leaq	s(%rip), %rax
	movl	(%rdx,%rax), %eax
	movl	%eax, %esi
	leaq	.LC1(%rip), %rax
	movq	%rax, %rdi
	movl	$0, %eax
	call	printf@PLT
	subl	$1, -36(%rbp)
	jmp	.L2
.L3:
	movl	-36(%rbp), %eax
	cltq
	leaq	0(,%rax,4), %rdx
	leaq	s(%rip), %rax
	movl	(%rdx,%rax), %eax
	sall	$5, %eax
	movl	%eax, %edx
	leaq	-1+.LC1(%rip), %rax
	movl	%edx, %esi
	movq	%rax, %rdi
	movl	$0, %eax
	call	printf@PLT
	movl	-36(%rbp), %eax
	subl	$1, %eax
	orl	-28(%rbp), %eax
	movl	%eax, -36(%rbp)
.L2:
	cmpl	$0, -36(%rbp)
	jns	.L4
	leaq	.LC2(%rip), %rax
	movq	%rax, %rdi
	call	puts@PLT
	movl	$0, -36(%rbp)
	jmp	.L5
.L6:
	movl	-36(%rbp), %eax
	cltq
	leaq	0(,%rax,4), %rdx
	leaq	s(%rip), %rax
	movl	(%rdx,%rax), %eax
	movl	%eax, %esi
	leaq	.LC1(%rip), %rax
	movq	%rax, %rdi
	movl	$0, %eax
	call	printf@PLT
	addl	$1, -36(%rbp)
.L5:
	movl	top(%rip), %eax
	cmpl	%eax, -36(%rbp)
	jle	.L6
	movl	$0, -36(%rbp)
	jmp	.L7
.L10:
	movl	-36(%rbp), %eax
	cltq
	leaq	0(,%rax,4), %rdx
	leaq	s(%rip), %rax
	movl	(%rdx,%rax), %edx
	movl	top(%rip), %eax
	subl	-36(%rbp), %eax
	cltq
	leaq	0(,%rax,4), %rcx
	leaq	s(%rip), %rax
	movl	(%rcx,%rax), %eax
	cmpl	%eax, %edx
	je	.L8
	movl	$0, -40(%rbp)
	jmp	.L9
.L8:
	addl	$1, -36(%rbp)
.L7:
	movl	top(%rip), %eax
	movl	%eax, %edx
	shrl	$31, %edx
	addl	%edx, %eax
	sarl	%eax
	cmpl	%eax, -36(%rbp)
	jle	.L10
.L9:
	cmpl	$1, -40(%rbp)
	jne	.L11
	leaq	.LC3(%rip), %rax
	movq	%rax, %rdi
	movl	$0, %eax
	call	printf@PLT
	jmp	.L1
.L11:
	leaq	.LC4(%rip), %rax
	movq	%rax, %rdi
	movl	$0, %eax
	call	printf@PLT
	nop
.L1:
	leave
	.cfi_def_cfa 7, 8
	ret
	.cfi_endproc
.LFE1:
	.size	palindrome, .-palindrome
	.section	.rodata
.LC5:
	.string	"\n~~~~Stack underflow~~~~"
	.text
	.globl	pop
	.type	pop, @function
pop:
.LFB3:
	.cfi_startproc
	endbr64
	pushq	%rbp
	.cfi_def_cfa_offset 16
	.cfi_offset 6, -16
	movq	%rsp, %rbp
	.cfi_def_cfa_register 6
	subq	$48, %rsp
#APP
# 66 "/usr/include/x86_64-linux-gnu/bits/uintn-identity.h" 1
	##_ANNOTATION_INITIALREGION_-TIG-iO-tDyg-1-pop--20
# 0 "" 2
# 70 "/usr/include/x86_64-linux-gnu/bits/uintn-identity.h" 1
	##_ANNOTATION_ATOMICREGION_-TIG-iO-tDyg-1-pop--19
# 0 "" 2
#NO_APP
	movl	$24, %edi
	call	malloc@PLT
	movq	%rax, -24(%rbp)
	movq	-24(%rbp), %rax
	movq	-24(%rbp), %rdx
	movq	%rdx, 8(%rax)
	movq	-24(%rbp), %rax
	movq	-24(%rbp), %rdx
	movq	%rdx, 16(%rax)
	movq	-24(%rbp), %rax
	movq	%rax, _TIG_iO_tDyg_1_pop_1_opaque_list_1(%rip)
	call	rand@PLT
	movl	%eax, -36(%rbp)
	movl	$24, %edi
	call	malloc@PLT
	movq	%rax, -16(%rbp)
	movq	-16(%rbp), %rax
	movl	$0, (%rax)
	movq	_TIG_iO_tDyg_1_pop_1_opaque_list_1(%rip), %rax
	movq	8(%rax), %rdx
	movq	-16(%rbp), %rax
	movq	%rdx, 8(%rax)
	movq	_TIG_iO_tDyg_1_pop_1_opaque_list_1(%rip), %rdx
	movq	-16(%rbp), %rax
	movq	%rdx, 16(%rax)
	movq	_TIG_iO_tDyg_1_pop_1_opaque_list_1(%rip), %rax
	movq	8(%rax), %rax
	movq	-16(%rbp), %rdx
	movq	%rdx, 16(%rax)
	movq	_TIG_iO_tDyg_1_pop_1_opaque_list_1(%rip), %rax
	movq	-16(%rbp), %rdx
	movq	%rdx, 8(%rax)
	call	rand@PLT
	movl	%eax, -32(%rbp)
	movl	$24, %edi
	call	malloc@PLT
	movq	%rax, -8(%rbp)
	movq	-8(%rbp), %rax
	movl	-32(%rbp), %edx
	movl	%edx, (%rax)
	movq	_TIG_iO_tDyg_1_pop_1_opaque_list_1(%rip), %rax
	movq	8(%rax), %rdx
	movq	-8(%rbp), %rax
	movq	%rdx, 8(%rax)
	movq	_TIG_iO_tDyg_1_pop_1_opaque_list_1(%rip), %rdx
	movq	-8(%rbp), %rax
	movq	%rdx, 16(%rax)
	movq	_TIG_iO_tDyg_1_pop_1_opaque_list_1(%rip), %rax
	movq	8(%rax), %rax
	movq	-8(%rbp), %rdx
	movq	%rdx, 16(%rax)
	movq	_TIG_iO_tDyg_1_pop_1_opaque_list_1(%rip), %rax
	movq	-8(%rbp), %rdx
	movq	%rdx, 8(%rax)
	movq	_TIG_iO_tDyg_1_pop_1_opaque_list_1(%rip), %rax
	movq	8(%rax), %rax
	movq	%rax, _TIG_iO_tDyg_1_pop_1_opaque_ptr_1(%rip)
	movq	_TIG_iO_tDyg_1_pop_1_opaque_ptr_1(%rip), %rax
	movq	%rax, _TIG_iO_tDyg_1_pop_1_opaque_ptr_2(%rip)
	nop
	nop
	movl	top(%rip), %eax
	cmpl	$-1, %eax
	jne	.L15
	leaq	.LC5(%rip), %rax
	movq	%rax, %rdi
	movl	$0, %eax
	call	printf@PLT
	movl	$-1, %eax
	jmp	.L16
.L15:
	movl	top(%rip), %eax
	cltq
	leaq	0(,%rax,4), %rdx
	leaq	s(%rip), %rax
	movl	(%rdx,%rax), %eax
	movl	%eax, -28(%rbp)
	movl	top(%rip), %eax
	subl	$1, %eax
	movl	%eax, top(%rip)
	movq	_TIG_iO_tDyg_1_push_1_opaque_ptr_1(%rip), %rdx
	movq	_TIG_iO_tDyg_1_push_1_opaque_ptr_2(%rip), %rax
	cmpq	%rax, %rdx
	jne	.L17
	movl	-32(%rbp), %eax
	movl	$0, %edx
	movl	$0, %esi
	movl	%eax, %edi
	call	main
.L17:
	movl	-28(%rbp), %eax
.L16:
	leave
	.cfi_def_cfa 7, 8
	ret
	.cfi_endproc
.LFE3:
	.size	pop, .-pop
	.section	.rodata
.LC6:
	.string	"\n\n\n\n~~~~~~Menu~~~~~~ : "
	.align 8
.LC7:
	.string	"\n=>1.Push an Element to Stack and Overflow demo "
	.align 8
.LC8:
	.string	"\n=>2.Pop an Element from Stack and Underflow demo"
.LC9:
	.string	"\n=>3.Palindrome demo "
.LC10:
	.string	"\n=>4.Display "
.LC11:
	.string	"\n=>5.Exit"
.LC12:
	.string	"\nEnter your choice: "
.LC13:
	.string	"%d"
	.align 8
.LC14:
	.string	"\nEnter an element to be pushed: "
.LC15:
	.string	"\nElement popped is: %d"
.LC16:
	.string	"\nPlease enter valid choice "
	.text
	.globl	main
	.type	main, @function
main:
.LFB4:
	.cfi_startproc
	endbr64
	pushq	%rbp
	.cfi_def_cfa_offset 16
	.cfi_offset 6, -16
	movq	%rsp, %rbp
	.cfi_def_cfa_register 6
	subq	$96, %rsp
	movl	%edi, -68(%rbp)
	movq	%rsi, -80(%rbp)
	movq	%rdx, -88(%rbp)
	movq	%fs:40, %rax
	movq	%rax, -8(%rbp)
	xorl	%eax, %eax
	movl	$-1, top(%rip)
	nop
.L19:
	movl	$0, -44(%rbp)
	jmp	.L20
.L21:
	movl	-44(%rbp), %eax
	cltq
	leaq	0(,%rax,4), %rdx
	leaq	s(%rip), %rax
	movl	$0, (%rdx,%rax)
	addl	$1, -44(%rbp)
.L20:
	cmpl	$4, -44(%rbp)
	jle	.L21
	nop
.L22:
	movq	$0, _TIG_IZ_tDyg_envp(%rip)
	nop
.L23:
	movq	$0, _TIG_IZ_tDyg_argv(%rip)
	nop
.L24:
	movl	$0, _TIG_IZ_tDyg_argc(%rip)
	nop
	nop
.L25:
.L26:
#APP
# 140 "githubber-me_dsathirdsem_3.c" 1
	##_ANNOTATION_INITIALREGION_-TIG-IZ-tDyg--0
# 0 "" 2
#NO_APP
	movl	-68(%rbp), %eax
	movl	%eax, _TIG_IZ_tDyg_argc(%rip)
	movq	-80(%rbp), %rax
	movq	%rax, _TIG_IZ_tDyg_argv(%rip)
	movq	-88(%rbp), %rax
	movq	%rax, _TIG_IZ_tDyg_envp(%rip)
#APP
# 147 "githubber-me_dsathirdsem_3.c" 1
	##_ANNOTATION_ATOMICREGION_-TIG-iO-tDyg-1-main--15
# 0 "" 2
#NO_APP
	movl	$24, %edi
	call	malloc@PLT
	movq	%rax, -32(%rbp)
	movq	-32(%rbp), %rax
	movq	-32(%rbp), %rdx
	movq	%rdx, 16(%rax)
	movq	-32(%rbp), %rax
	movq	-32(%rbp), %rdx
	movq	%rdx, 8(%rax)
	movq	-32(%rbp), %rax
	movq	%rax, _TIG_iO_tDyg_1_main_1_opaque_list_1(%rip)
	call	rand@PLT
	movl	%eax, -40(%rbp)
	movl	$24, %edi
	call	malloc@PLT
	movq	%rax, -24(%rbp)
	movq	-24(%rbp), %rax
	movl	$0, (%rax)
	movq	_TIG_iO_tDyg_1_main_1_opaque_list_1(%rip), %rax
	movq	16(%rax), %rdx
	movq	-24(%rbp), %rax
	movq	%rdx, 16(%rax)
	movq	_TIG_iO_tDyg_1_main_1_opaque_list_1(%rip), %rdx
	movq	-24(%rbp), %rax
	movq	%rdx, 8(%rax)
	movq	_TIG_iO_tDyg_1_main_1_opaque_list_1(%rip), %rax
	movq	16(%rax), %rax
	movq	-24(%rbp), %rdx
	movq	%rdx, 8(%rax)
	movq	_TIG_iO_tDyg_1_main_1_opaque_list_1(%rip), %rax
	movq	-24(%rbp), %rdx
	movq	%rdx, 16(%rax)
	call	rand@PLT
	movl	%eax, -36(%rbp)
	movl	$24, %edi
	call	malloc@PLT
	movq	%rax, -16(%rbp)
	movq	-16(%rbp), %rax
	movl	-36(%rbp), %edx
	movl	%edx, (%rax)
	movq	_TIG_iO_tDyg_1_main_1_opaque_list_1(%rip), %rax
	movq	16(%rax), %rdx
	movq	-16(%rbp), %rax
	movq	%rdx, 16(%rax)
	movq	_TIG_iO_tDyg_1_main_1_opaque_list_1(%rip), %rdx
	movq	-16(%rbp), %rax
	movq	%rdx, 8(%rax)
	movq	_TIG_iO_tDyg_1_main_1_opaque_list_1(%rip), %rax
	movq	16(%rax), %rax
	movq	-16(%rbp), %rdx
	movq	%rdx, 8(%rax)
	movq	_TIG_iO_tDyg_1_main_1_opaque_list_1(%rip), %rax
	movq	-16(%rbp), %rdx
	movq	%rdx, 16(%rax)
	movq	_TIG_iO_tDyg_1_main_1_opaque_list_1(%rip), %rax
	movq	16(%rax), %rax
	movq	%rax, _TIG_iO_tDyg_1_main_1_opaque_ptr_1(%rip)
	movq	_TIG_iO_tDyg_1_main_1_opaque_ptr_1(%rip), %rax
	movq	%rax, _TIG_iO_tDyg_1_main_1_opaque_ptr_2(%rip)
	nop
	nop
.L37:
	leaq	.LC6(%rip), %rax
	movq	%rax, %rdi
	movl	$0, %eax
	call	printf@PLT
	leaq	.LC7(%rip), %rax
	movq	%rax, %rdi
	movl	$0, %eax
	call	printf@PLT
	leaq	.LC8(%rip), %rax
	movq	%rax, %rdi
	movl	$0, %eax
	call	printf@PLT
	leaq	.LC9(%rip), %rax
	movq	%rax, %rdi
	movl	$0, %eax
	call	printf@PLT
	leaq	.LC10(%rip), %rax
	movq	%rax, %rdi
	movl	$0, %eax
	call	printf@PLT
	leaq	.LC11(%rip), %rax
	movq	%rax, %rdi
	movl	$0, %eax
	call	printf@PLT
	leaq	.LC12(%rip), %rax
	movq	%rax, %rdi
	movl	$0, %eax
	call	printf@PLT
	leaq	-52(%rbp), %rax
	movq	%rax, %rsi
	leaq	.LC13(%rip), %rax
	movq	%rax, %rdi
	movl	$0, %eax
	call	__isoc99_scanf@PLT
	movl	-52(%rbp), %eax
	cmpl	$5, %eax
	ja	.L27
	movl	%eax, %eax
	leaq	0(,%rax,4), %rdx
	leaq	.L29(%rip), %rax
	movl	(%rdx,%rax), %eax
	cltq
	leaq	.L29(%rip), %rdx
	addq	%rdx, %rax
	notrack jmp	*%rax
	.section	.rodata
	.align 4
	.align 4
.L29:
	.long	.L27-.L29
	.long	.L33-.L29
	.long	.L32-.L29
	.long	.L31-.L29
	.long	.L30-.L29
	.long	.L28-.L29
	.text
.L33:
	leaq	.LC14(%rip), %rax
	movq	%rax, %rdi
	movl	$0, %eax
	call	printf@PLT
	leaq	-48(%rbp), %rax
	movq	%rax, %rsi
	leaq	.LC13(%rip), %rax
	movq	%rax, %rdi
	movl	$0, %eax
	call	__isoc99_scanf@PLT
	movl	-48(%rbp), %eax
	movl	%eax, %edi
	call	push
	jmp	.L34
.L32:
	call	pop
	movl	%eax, -48(%rbp)
	movq	_TIG_iO_tDyg_1_push_1_opaque_ptr_1(%rip), %rdx
	movq	_TIG_iO_tDyg_1_push_1_opaque_ptr_2(%rip), %rax
	cmpq	%rax, %rdx
	jne	.L35
	call	pop
	movl	%eax, -48(%rbp)
.L35:
	movl	-48(%rbp), %eax
	cmpl	$-1, %eax
	je	.L39
	movl	-48(%rbp), %eax
	movl	%eax, %esi
	leaq	.LC15(%rip), %rax
	movq	%rax, %rdi
	movl	$0, %eax
	call	printf@PLT
	jmp	.L39
.L31:
	call	palindrome
	jmp	.L34
.L30:
	call	display
	jmp	.L34
.L28:
	movl	$1, %edi
	call	exit@PLT
.L27:
	leaq	.LC16(%rip), %rax
	movq	%rax, %rdi
	movl	$0, %eax
	call	printf@PLT
	jmp	.L34
.L39:
	nop
.L34:
	jmp	.L37
	.cfi_endproc
.LFE4:
	.size	main, .-main
	.section	.rodata
.LC17:
	.string	"\n~~~~Stack overflow~~~~"
	.text
	.globl	push
	.type	push, @function
push:
.LFB7:
	.cfi_startproc
	endbr64
	pushq	%rbp
	.cfi_def_cfa_offset 16
	.cfi_offset 6, -16
	movq	%rsp, %rbp
	.cfi_def_cfa_register 6
	subq	$64, %rsp
	movl	%edi, -52(%rbp)
#APP
# 55 "/usr/include/x86_64-linux-gnu/bits/byteswap.h" 1
	##_ANNOTATION_INITIALREGION_-TIG-iO-tDyg-1-push--22
# 0 "" 2
# 59 "/usr/include/x86_64-linux-gnu/bits/byteswap.h" 1
	##_ANNOTATION_ATOMICREGION_-TIG-iO-tDyg-1-push--21
# 0 "" 2
#NO_APP
	movl	$24, %edi
	call	malloc@PLT
	movq	%rax, -32(%rbp)
	movq	-32(%rbp), %rax
	movq	-32(%rbp), %rdx
	movq	%rdx, (%rax)
	movq	-32(%rbp), %rax
	movq	-32(%rbp), %rdx
	movq	%rdx, 16(%rax)
	movq	-32(%rbp), %rax
	movq	%rax, _TIG_iO_tDyg_1_push_1_opaque_list_1(%rip)
	call	rand@PLT
	movl	%eax, -44(%rbp)
	movl	$24, %edi
	call	malloc@PLT
	movq	%rax, -24(%rbp)
	movq	-24(%rbp), %rax
	movl	$0, 8(%rax)
	movq	_TIG_iO_tDyg_1_push_1_opaque_list_1(%rip), %rax
	movq	(%rax), %rdx
	movq	-24(%rbp), %rax
	movq	%rdx, (%rax)
	movq	_TIG_iO_tDyg_1_push_1_opaque_list_1(%rip), %rdx
	movq	-24(%rbp), %rax
	movq	%rdx, 16(%rax)
	movq	_TIG_iO_tDyg_1_push_1_opaque_list_1(%rip), %rax
	movq	(%rax), %rax
	movq	-24(%rbp), %rdx
	movq	%rdx, 16(%rax)
	movq	_TIG_iO_tDyg_1_push_1_opaque_list_1(%rip), %rax
	movq	-24(%rbp), %rdx
	movq	%rdx, (%rax)
	call	rand@PLT
	movl	%eax, -40(%rbp)
	movl	$24, %edi
	call	malloc@PLT
	movq	%rax, -16(%rbp)
	movq	-16(%rbp), %rax
	movl	-40(%rbp), %edx
	movl	%edx, 8(%rax)
	movq	_TIG_iO_tDyg_1_push_1_opaque_list_1(%rip), %rax
	movq	(%rax), %rdx
	movq	-16(%rbp), %rax
	movq	%rdx, (%rax)
	movq	_TIG_iO_tDyg_1_push_1_opaque_list_1(%rip), %rdx
	movq	-16(%rbp), %rax
	movq	%rdx, 16(%rax)
	movq	_TIG_iO_tDyg_1_push_1_opaque_list_1(%rip), %rax
	movq	(%rax), %rax
	movq	-16(%rbp), %rdx
	movq	%rdx, 16(%rax)
	movq	_TIG_iO_tDyg_1_push_1_opaque_list_1(%rip), %rax
	movq	-16(%rbp), %rdx
	movq	%rdx, (%rax)
	call	rand@PLT
	movl	%eax, -36(%rbp)
	movl	$24, %edi
	call	malloc@PLT
	movq	%rax, -8(%rbp)
	movl	-36(%rbp), %eax
	leal	(%rax,%rax), %edx
	movq	-8(%rbp), %rax
	movl	%edx, 8(%rax)
	movq	_TIG_iO_tDyg_1_push_1_opaque_list_1(%rip), %rax
	movq	(%rax), %rdx
	movq	-8(%rbp), %rax
	movq	%rdx, (%rax)
	movq	_TIG_iO_tDyg_1_push_1_opaque_list_1(%rip), %rdx
	movq	-8(%rbp), %rax
	movq	%rdx, 16(%rax)
	movq	_TIG_iO_tDyg_1_push_1_opaque_list_1(%rip), %rax
	movq	(%rax), %rax
	movq	-8(%rbp), %rdx
	movq	%rdx, 16(%rax)
	movq	_TIG_iO_tDyg_1_push_1_opaque_list_1(%rip), %rax
	movq	-8(%rbp), %rdx
	movq	%rdx, (%rax)
	movq	_TIG_iO_tDyg_1_push_1_opaque_list_1(%rip), %rax
	movq	(%rax), %rax
	movq	%rax, _TIG_iO_tDyg_1_push_1_opaque_ptr_1(%rip)
	movq	_TIG_iO_tDyg_1_push_1_opaque_ptr_1(%rip), %rax
	movq	%rax, _TIG_iO_tDyg_1_push_1_opaque_ptr_2(%rip)
	movq	_TIG_iO_tDyg_1_push_1_opaque_ptr_2(%rip), %rax
	movq	(%rax), %rax
	movq	%rax, _TIG_iO_tDyg_1_push_1_opaque_ptr_2(%rip)
	nop
	nop
	movl	top(%rip), %eax
	cmpl	$4, %eax
	jne	.L41
	leaq	.LC17(%rip), %rax
	movq	%rax, %rdi
	movl	$0, %eax
	call	printf@PLT
	jmp	.L40
.L41:
	movl	top(%rip), %eax
	addl	$1, %eax
	movl	%eax, top(%rip)
	movl	top(%rip), %eax
	cltq
	leaq	0(,%rax,4), %rcx
	leaq	s(%rip), %rdx
	movl	-52(%rbp), %eax
	movl	%eax, (%rcx,%rdx)
	movq	_TIG_iO_tDyg_1_push_1_opaque_ptr_1(%rip), %rdx
	movq	_TIG_iO_tDyg_1_push_1_opaque_ptr_2(%rip), %rax
	cmpq	%rax, %rdx
.L40:
	leave
	.cfi_def_cfa 7, 8
	ret
	.cfi_endproc
.LFE7:
	.size	push, .-push
	.section	.rodata
.LC18:
	.string	"\n~~~~Stack is empty~~~~"
.LC19:
	.string	"\nStack elements are:\n "
	.text
	.globl	display
	.type	display, @function
display:
.LFB8:
	.cfi_startproc
	endbr64
	pushq	%rbp
	.cfi_def_cfa_offset 16
	.cfi_offset 6, -16
	movq	%rsp, %rbp
	.cfi_def_cfa_register 6
	subq	$64, %rsp
#APP
# 86 "githubber-me_dsathirdsem_3.c" 1
	##_ANNOTATION_INITIALREGION_-TIG-iO-tDyg-1-display--14
# 0 "" 2
# 90 "githubber-me_dsathirdsem_3.c" 1
	##_ANNOTATION_ATOMICREGION_-TIG-iO-tDyg-1-display--13
# 0 "" 2
#NO_APP
	movl	$24, %edi
	call	malloc@PLT
	movq	%rax, -40(%rbp)
	movq	-40(%rbp), %rax
	movq	-40(%rbp), %rdx
	movq	%rdx, (%rax)
	movq	-40(%rbp), %rax
	movq	-40(%rbp), %rdx
	movq	%rdx, 8(%rax)
	movq	-40(%rbp), %rax
	movq	%rax, _TIG_iO_tDyg_1_display_1_opaque_list_1(%rip)
	call	rand@PLT
	movl	%eax, -56(%rbp)
	movl	$24, %edi
	call	malloc@PLT
	movq	%rax, -32(%rbp)
	movq	-32(%rbp), %rax
	movl	$0, 16(%rax)
	movq	_TIG_iO_tDyg_1_display_1_opaque_list_1(%rip), %rax
	movq	(%rax), %rdx
	movq	-32(%rbp), %rax
	movq	%rdx, (%rax)
	movq	_TIG_iO_tDyg_1_display_1_opaque_list_1(%rip), %rdx
	movq	-32(%rbp), %rax
	movq	%rdx, 8(%rax)
	movq	_TIG_iO_tDyg_1_display_1_opaque_list_1(%rip), %rax
	movq	(%rax), %rax
	movq	-32(%rbp), %rdx
	movq	%rdx, 8(%rax)
	movq	_TIG_iO_tDyg_1_display_1_opaque_list_1(%rip), %rax
	movq	-32(%rbp), %rdx
	movq	%rdx, (%rax)
	call	rand@PLT
	movl	%eax, -52(%rbp)
	movl	$24, %edi
	call	malloc@PLT
	movq	%rax, -24(%rbp)
	movq	-24(%rbp), %rax
	movl	-52(%rbp), %edx
	movl	%edx, 16(%rax)
	movq	_TIG_iO_tDyg_1_display_1_opaque_list_1(%rip), %rax
	movq	(%rax), %rdx
	movq	-24(%rbp), %rax
	movq	%rdx, (%rax)
	movq	_TIG_iO_tDyg_1_display_1_opaque_list_1(%rip), %rdx
	movq	-24(%rbp), %rax
	movq	%rdx, 8(%rax)
	movq	_TIG_iO_tDyg_1_display_1_opaque_list_1(%rip), %rax
	movq	(%rax), %rax
	movq	-24(%rbp), %rdx
	movq	%rdx, 8(%rax)
	movq	_TIG_iO_tDyg_1_display_1_opaque_list_1(%rip), %rax
	movq	-24(%rbp), %rdx
	movq	%rdx, (%rax)
	call	rand@PLT
	movl	%eax, -48(%rbp)
	movl	$24, %edi
	call	malloc@PLT
	movq	%rax, -16(%rbp)
	movl	-48(%rbp), %eax
	leal	(%rax,%rax), %edx
	movq	-16(%rbp), %rax
	movl	%edx, 16(%rax)
	movq	_TIG_iO_tDyg_1_display_1_opaque_list_1(%rip), %rax
	movq	(%rax), %rdx
	movq	-16(%rbp), %rax
	movq	%rdx, (%rax)
	movq	_TIG_iO_tDyg_1_display_1_opaque_list_1(%rip), %rdx
	movq	-16(%rbp), %rax
	movq	%rdx, 8(%rax)
	movq	_TIG_iO_tDyg_1_display_1_opaque_list_1(%rip), %rax
	movq	(%rax), %rax
	movq	-16(%rbp), %rdx
	movq	%rdx, 8(%rax)
	movq	_TIG_iO_tDyg_1_display_1_opaque_list_1(%rip), %rax
	movq	-16(%rbp), %rdx
	movq	%rdx, (%rax)
	call	rand@PLT
	movl	%eax, -44(%rbp)
	movl	$24, %edi
	call	malloc@PLT
	movq	%rax, -8(%rbp)
	movl	-44(%rbp), %edx
	movl	%edx, %eax
	addl	%eax, %eax
	addl	%eax, %edx
	movq	-8(%rbp), %rax
	movl	%edx, 16(%rax)
	movq	_TIG_iO_tDyg_1_display_1_opaque_list_1(%rip), %rax
	movq	(%rax), %rdx
	movq	-8(%rbp), %rax
	movq	%rdx, (%rax)
	movq	_TIG_iO_tDyg_1_display_1_opaque_list_1(%rip), %rdx
	movq	-8(%rbp), %rax
	movq	%rdx, 8(%rax)
	movq	_TIG_iO_tDyg_1_display_1_opaque_list_1(%rip), %rax
	movq	(%rax), %rax
	movq	-8(%rbp), %rdx
	movq	%rdx, 8(%rax)
	movq	_TIG_iO_tDyg_1_display_1_opaque_list_1(%rip), %rax
	movq	-8(%rbp), %rdx
	movq	%rdx, (%rax)
	movq	_TIG_iO_tDyg_1_display_1_opaque_list_1(%rip), %rax
	movq	(%rax), %rax
	movq	%rax, _TIG_iO_tDyg_1_display_1_opaque_ptr_1(%rip)
	movq	_TIG_iO_tDyg_1_display_1_opaque_ptr_1(%rip), %rax
	movq	%rax, _TIG_iO_tDyg_1_display_1_opaque_ptr_2(%rip)
	movq	_TIG_iO_tDyg_1_display_1_opaque_ptr_2(%rip), %rax
	movq	(%rax), %rax
	movq	%rax, _TIG_iO_tDyg_1_display_1_opaque_ptr_2(%rip)
	nop
	nop
	movq	_TIG_iO_tDyg_1_push_1_opaque_ptr_1(%rip), %rdx
	movq	_TIG_iO_tDyg_1_push_1_opaque_ptr_2(%rip), %rax
	cmpq	%rax, %rdx
	je	.L44
	movl	top(%rip), %eax
	cmpl	$-1, %eax
	jne	.L44
	leaq	.LC18(%rip), %rax
	movq	%rax, %rdi
	movl	$0, %eax
	call	printf@PLT
	jmp	.L43
.L44:
	leaq	.LC19(%rip), %rax
	movq	%rax, %rdi
	movl	$0, %eax
	call	printf@PLT
	movl	top(%rip), %eax
	movl	%eax, -60(%rbp)
	jmp	.L46
.L47:
	movl	-60(%rbp), %eax
	cltq
	leaq	0(,%rax,4), %rdx
	leaq	s(%rip), %rax
	movl	(%rdx,%rax), %eax
	movl	%eax, %esi
	leaq	.LC1(%rip), %rax
	movq	%rax, %rdi
	movl	$0, %eax
	call	printf@PLT
	subl	$1, -60(%rbp)
.L46:
	cmpl	$0, -60(%rbp)
	jns	.L47
	nop
.L43:
	leave
	.cfi_def_cfa 7, 8
	ret
	.cfi_endproc
.LFE8:
	.size	display, .-display
	.ident	"GCC: (Ubuntu 11.4.0-1ubuntu1~22.04) 11.4.0"
	.section	.note.GNU-stack,"",@progbits
	.section	.note.gnu.property,"a"
	.align 8
	.long	1f - 0f
	.long	4f - 1f
	.long	5
0:
	.string	"GNU"
1:
	.align 8
	.long	0xc0000002
	.long	3f - 2f
2:
	.long	0x3
3:
	.align 8
4:
