	.file	"githubber-me_dsathirdsem_4_opaque.c"
	.text
	.globl	_TIG_iO_eFcG_1_stack_prec_1_opaque_list_1
	.bss
	.align 8
	.type	_TIG_iO_eFcG_1_stack_prec_1_opaque_list_1, @object
	.size	_TIG_iO_eFcG_1_stack_prec_1_opaque_list_1, 8
_TIG_iO_eFcG_1_stack_prec_1_opaque_list_1:
	.zero	8
	.globl	_TIG_iO_eFcG_1___uint64_identity_1_opaque_ptr_1
	.align 8
	.type	_TIG_iO_eFcG_1___uint64_identity_1_opaque_ptr_1, @object
	.size	_TIG_iO_eFcG_1___uint64_identity_1_opaque_ptr_1, 8
_TIG_iO_eFcG_1___uint64_identity_1_opaque_ptr_1:
	.zero	8
	.globl	_TIG_iO_eFcG_1___uint16_identity_1_opaque_list_2
	.align 8
	.type	_TIG_iO_eFcG_1___uint16_identity_1_opaque_list_2, @object
	.size	_TIG_iO_eFcG_1___uint16_identity_1_opaque_list_2, 8
_TIG_iO_eFcG_1___uint16_identity_1_opaque_list_2:
	.zero	8
	.globl	_TIG_iO_eFcG_1___bswap_16_1_opaque_ptr_1
	.align 8
	.type	_TIG_iO_eFcG_1___bswap_16_1_opaque_ptr_1, @object
	.size	_TIG_iO_eFcG_1___bswap_16_1_opaque_ptr_1, 8
_TIG_iO_eFcG_1___bswap_16_1_opaque_ptr_1:
	.zero	8
	.globl	_TIG_iO_eFcG_1___bswap_32_1_opaque_list_1
	.align 8
	.type	_TIG_iO_eFcG_1___bswap_32_1_opaque_list_1, @object
	.size	_TIG_iO_eFcG_1___bswap_32_1_opaque_list_1, 8
_TIG_iO_eFcG_1___bswap_32_1_opaque_list_1:
	.zero	8
	.globl	_TIG_iO_eFcG_1_main_1_opaque_list_1
	.align 8
	.type	_TIG_iO_eFcG_1_main_1_opaque_list_1, @object
	.size	_TIG_iO_eFcG_1_main_1_opaque_list_1, 8
_TIG_iO_eFcG_1_main_1_opaque_list_1:
	.zero	8
	.globl	_TIG_iO_eFcG_1_convert_1_opaque_ptr_1
	.align 8
	.type	_TIG_iO_eFcG_1_convert_1_opaque_ptr_1, @object
	.size	_TIG_iO_eFcG_1_convert_1_opaque_ptr_1, 8
_TIG_iO_eFcG_1_convert_1_opaque_ptr_1:
	.zero	8
	.globl	_TIG_iO_eFcG_1___uint16_identity_1_opaque_ptr_1
	.align 8
	.type	_TIG_iO_eFcG_1___uint16_identity_1_opaque_ptr_1, @object
	.size	_TIG_iO_eFcG_1___uint16_identity_1_opaque_ptr_1, 8
_TIG_iO_eFcG_1___uint16_identity_1_opaque_ptr_1:
	.zero	8
	.globl	_TIG_iO_eFcG_1___uint32_identity_1_opaque_ptr_2
	.align 8
	.type	_TIG_iO_eFcG_1___uint32_identity_1_opaque_ptr_2, @object
	.size	_TIG_iO_eFcG_1___uint32_identity_1_opaque_ptr_2, 8
_TIG_iO_eFcG_1___uint32_identity_1_opaque_ptr_2:
	.zero	8
	.globl	_TIG_IZ_eFcG_argc
	.align 4
	.type	_TIG_IZ_eFcG_argc, @object
	.size	_TIG_IZ_eFcG_argc, 4
_TIG_IZ_eFcG_argc:
	.zero	4
	.globl	_TIG_iO_eFcG_1___bswap_32_1_opaque_ptr_2
	.align 8
	.type	_TIG_iO_eFcG_1___bswap_32_1_opaque_ptr_2, @object
	.size	_TIG_iO_eFcG_1___bswap_32_1_opaque_ptr_2, 8
_TIG_iO_eFcG_1___bswap_32_1_opaque_ptr_2:
	.zero	8
	.globl	_TIG_iO_eFcG_1_stack_prec_1_opaque_ptr_1
	.align 8
	.type	_TIG_iO_eFcG_1_stack_prec_1_opaque_ptr_1, @object
	.size	_TIG_iO_eFcG_1_stack_prec_1_opaque_ptr_1, 8
_TIG_iO_eFcG_1_stack_prec_1_opaque_ptr_1:
	.zero	8
	.globl	_TIG_IZ_eFcG_argv
	.align 8
	.type	_TIG_IZ_eFcG_argv, @object
	.size	_TIG_IZ_eFcG_argv, 8
_TIG_IZ_eFcG_argv:
	.zero	8
	.globl	_TIG_iO_eFcG_1_main_1_opaque_ptr_2
	.align 8
	.type	_TIG_iO_eFcG_1_main_1_opaque_ptr_2, @object
	.size	_TIG_iO_eFcG_1_main_1_opaque_ptr_2, 8
_TIG_iO_eFcG_1_main_1_opaque_ptr_2:
	.zero	8
	.globl	_TIG_iO_eFcG_1___bswap_16_1_opaque_ptr_2
	.align 8
	.type	_TIG_iO_eFcG_1___bswap_16_1_opaque_ptr_2, @object
	.size	_TIG_iO_eFcG_1___bswap_16_1_opaque_ptr_2, 8
_TIG_iO_eFcG_1___bswap_16_1_opaque_ptr_2:
	.zero	8
	.globl	_TIG_iO_eFcG_1___uint64_identity_1_opaque_list_2
	.align 8
	.type	_TIG_iO_eFcG_1___uint64_identity_1_opaque_list_2, @object
	.size	_TIG_iO_eFcG_1___uint64_identity_1_opaque_list_2, 8
_TIG_iO_eFcG_1___uint64_identity_1_opaque_list_2:
	.zero	8
	.globl	_TIG_iO_eFcG_1_main_1_opaque_list_2
	.align 8
	.type	_TIG_iO_eFcG_1_main_1_opaque_list_2, @object
	.size	_TIG_iO_eFcG_1_main_1_opaque_list_2, 8
_TIG_iO_eFcG_1_main_1_opaque_list_2:
	.zero	8
	.globl	_TIG_iO_eFcG_1___bswap_64_1_opaque_list_1
	.align 8
	.type	_TIG_iO_eFcG_1___bswap_64_1_opaque_list_1, @object
	.size	_TIG_iO_eFcG_1___bswap_64_1_opaque_list_1, 8
_TIG_iO_eFcG_1___bswap_64_1_opaque_list_1:
	.zero	8
	.globl	_TIG_iO_eFcG_1_stack_prec_1_opaque_list_2
	.align 8
	.type	_TIG_iO_eFcG_1_stack_prec_1_opaque_list_2, @object
	.size	_TIG_iO_eFcG_1_stack_prec_1_opaque_list_2, 8
_TIG_iO_eFcG_1_stack_prec_1_opaque_list_2:
	.zero	8
	.globl	_TIG_iO_eFcG_1___uint64_identity_1_opaque_ptr_2
	.align 8
	.type	_TIG_iO_eFcG_1___uint64_identity_1_opaque_ptr_2, @object
	.size	_TIG_iO_eFcG_1___uint64_identity_1_opaque_ptr_2, 8
_TIG_iO_eFcG_1___uint64_identity_1_opaque_ptr_2:
	.zero	8
	.globl	_TIG_iO_eFcG_1___uint32_identity_1_opaque_ptr_1
	.align 8
	.type	_TIG_iO_eFcG_1___uint32_identity_1_opaque_ptr_1, @object
	.size	_TIG_iO_eFcG_1___uint32_identity_1_opaque_ptr_1, 8
_TIG_iO_eFcG_1___uint32_identity_1_opaque_ptr_1:
	.zero	8
	.globl	_TIG_iO_eFcG_1_convert_1_opaque_list_1
	.align 8
	.type	_TIG_iO_eFcG_1_convert_1_opaque_list_1, @object
	.size	_TIG_iO_eFcG_1_convert_1_opaque_list_1, 8
_TIG_iO_eFcG_1_convert_1_opaque_list_1:
	.zero	8
	.globl	_TIG_iO_eFcG_1_in_prec_1_opaque_ptr_1
	.align 8
	.type	_TIG_iO_eFcG_1_in_prec_1_opaque_ptr_1, @object
	.size	_TIG_iO_eFcG_1_in_prec_1_opaque_ptr_1, 8
_TIG_iO_eFcG_1_in_prec_1_opaque_ptr_1:
	.zero	8
	.globl	_TIG_iO_eFcG_1___uint64_identity_1_opaque_list_1
	.align 8
	.type	_TIG_iO_eFcG_1___uint64_identity_1_opaque_list_1, @object
	.size	_TIG_iO_eFcG_1___uint64_identity_1_opaque_list_1, 8
_TIG_iO_eFcG_1___uint64_identity_1_opaque_list_1:
	.zero	8
	.globl	_TIG_iO_eFcG_1___uint16_identity_1_opaque_ptr_2
	.align 8
	.type	_TIG_iO_eFcG_1___uint16_identity_1_opaque_ptr_2, @object
	.size	_TIG_iO_eFcG_1___uint16_identity_1_opaque_ptr_2, 8
_TIG_iO_eFcG_1___uint16_identity_1_opaque_ptr_2:
	.zero	8
	.globl	_TIG_iO_eFcG_1___bswap_64_1_opaque_list_2
	.align 8
	.type	_TIG_iO_eFcG_1___bswap_64_1_opaque_list_2, @object
	.size	_TIG_iO_eFcG_1___bswap_64_1_opaque_list_2, 8
_TIG_iO_eFcG_1___bswap_64_1_opaque_list_2:
	.zero	8
	.globl	_TIG_iO_eFcG_1___uint32_identity_1_opaque_list_2
	.align 8
	.type	_TIG_iO_eFcG_1___uint32_identity_1_opaque_list_2, @object
	.size	_TIG_iO_eFcG_1___uint32_identity_1_opaque_list_2, 8
_TIG_iO_eFcG_1___uint32_identity_1_opaque_list_2:
	.zero	8
	.globl	_TIG_iO_eFcG_1___bswap_64_1_opaque_ptr_2
	.align 8
	.type	_TIG_iO_eFcG_1___bswap_64_1_opaque_ptr_2, @object
	.size	_TIG_iO_eFcG_1___bswap_64_1_opaque_ptr_2, 8
_TIG_iO_eFcG_1___bswap_64_1_opaque_ptr_2:
	.zero	8
	.globl	_TIG_iO_eFcG_1___bswap_32_1_opaque_list_2
	.align 8
	.type	_TIG_iO_eFcG_1___bswap_32_1_opaque_list_2, @object
	.size	_TIG_iO_eFcG_1___bswap_32_1_opaque_list_2, 8
_TIG_iO_eFcG_1___bswap_32_1_opaque_list_2:
	.zero	8
	.globl	_TIG_iO_eFcG_1_main_1_opaque_ptr_1
	.align 8
	.type	_TIG_iO_eFcG_1_main_1_opaque_ptr_1, @object
	.size	_TIG_iO_eFcG_1_main_1_opaque_ptr_1, 8
_TIG_iO_eFcG_1_main_1_opaque_ptr_1:
	.zero	8
	.globl	_TIG_iO_eFcG_1___bswap_32_1_opaque_ptr_1
	.align 8
	.type	_TIG_iO_eFcG_1___bswap_32_1_opaque_ptr_1, @object
	.size	_TIG_iO_eFcG_1___bswap_32_1_opaque_ptr_1, 8
_TIG_iO_eFcG_1___bswap_32_1_opaque_ptr_1:
	.zero	8
	.globl	_TIG_iO_eFcG_1_convert_1_opaque_list_2
	.align 8
	.type	_TIG_iO_eFcG_1_convert_1_opaque_list_2, @object
	.size	_TIG_iO_eFcG_1_convert_1_opaque_list_2, 8
_TIG_iO_eFcG_1_convert_1_opaque_list_2:
	.zero	8
	.globl	_TIG_iO_eFcG_1___bswap_16_1_opaque_list_1
	.align 8
	.type	_TIG_iO_eFcG_1___bswap_16_1_opaque_list_1, @object
	.size	_TIG_iO_eFcG_1___bswap_16_1_opaque_list_1, 8
_TIG_iO_eFcG_1___bswap_16_1_opaque_list_1:
	.zero	8
	.globl	_TIG_iO_eFcG_1_stack_prec_1_opaque_ptr_2
	.align 8
	.type	_TIG_iO_eFcG_1_stack_prec_1_opaque_ptr_2, @object
	.size	_TIG_iO_eFcG_1_stack_prec_1_opaque_ptr_2, 8
_TIG_iO_eFcG_1_stack_prec_1_opaque_ptr_2:
	.zero	8
	.globl	_TIG_IZ_eFcG_envp
	.align 8
	.type	_TIG_IZ_eFcG_envp, @object
	.size	_TIG_IZ_eFcG_envp, 8
_TIG_IZ_eFcG_envp:
	.zero	8
	.globl	_TIG_iO_eFcG_1___uint16_identity_1_opaque_list_1
	.align 8
	.type	_TIG_iO_eFcG_1___uint16_identity_1_opaque_list_1, @object
	.size	_TIG_iO_eFcG_1___uint16_identity_1_opaque_list_1, 8
_TIG_iO_eFcG_1___uint16_identity_1_opaque_list_1:
	.zero	8
	.globl	_TIG_iO_eFcG_1_in_prec_1_opaque_list_2
	.align 8
	.type	_TIG_iO_eFcG_1_in_prec_1_opaque_list_2, @object
	.size	_TIG_iO_eFcG_1_in_prec_1_opaque_list_2, 8
_TIG_iO_eFcG_1_in_prec_1_opaque_list_2:
	.zero	8
	.globl	_TIG_iO_eFcG_1___bswap_64_1_opaque_ptr_1
	.align 8
	.type	_TIG_iO_eFcG_1___bswap_64_1_opaque_ptr_1, @object
	.size	_TIG_iO_eFcG_1___bswap_64_1_opaque_ptr_1, 8
_TIG_iO_eFcG_1___bswap_64_1_opaque_ptr_1:
	.zero	8
	.globl	_TIG_iO_eFcG_1_convert_1_opaque_ptr_2
	.align 8
	.type	_TIG_iO_eFcG_1_convert_1_opaque_ptr_2, @object
	.size	_TIG_iO_eFcG_1_convert_1_opaque_ptr_2, 8
_TIG_iO_eFcG_1_convert_1_opaque_ptr_2:
	.zero	8
	.globl	_TIG_iO_eFcG_1___bswap_16_1_opaque_list_2
	.align 8
	.type	_TIG_iO_eFcG_1___bswap_16_1_opaque_list_2, @object
	.size	_TIG_iO_eFcG_1___bswap_16_1_opaque_list_2, 8
_TIG_iO_eFcG_1___bswap_16_1_opaque_list_2:
	.zero	8
	.globl	_TIG_iO_eFcG_1___uint32_identity_1_opaque_list_1
	.align 8
	.type	_TIG_iO_eFcG_1___uint32_identity_1_opaque_list_1, @object
	.size	_TIG_iO_eFcG_1___uint32_identity_1_opaque_list_1, 8
_TIG_iO_eFcG_1___uint32_identity_1_opaque_list_1:
	.zero	8
	.globl	_TIG_iO_eFcG_1_in_prec_1_opaque_ptr_2
	.align 8
	.type	_TIG_iO_eFcG_1_in_prec_1_opaque_ptr_2, @object
	.size	_TIG_iO_eFcG_1_in_prec_1_opaque_ptr_2, 8
_TIG_iO_eFcG_1_in_prec_1_opaque_ptr_2:
	.zero	8
	.globl	_TIG_iO_eFcG_1_in_prec_1_opaque_list_1
	.align 8
	.type	_TIG_iO_eFcG_1_in_prec_1_opaque_list_1, @object
	.size	_TIG_iO_eFcG_1_in_prec_1_opaque_list_1, 8
_TIG_iO_eFcG_1_in_prec_1_opaque_list_1:
	.zero	8
	.section	.rodata
	.align 8
.LC0:
	.string	"Enter a valid infix expression"
.LC1:
	.string	"%s"
.LC2:
	.string	"Postfix expression is %s"
	.text
	.globl	main
	.type	main, @function
main:
.LFB4:
	.cfi_startproc
	endbr64
	pushq	%rbp
	.cfi_def_cfa_offset 16
	.cfi_offset 6, -16
	movq	%rsp, %rbp
	.cfi_def_cfa_register 6
	subq	$144, %rsp
	movl	%edi, -116(%rbp)
	movq	%rsi, -128(%rbp)
	movq	%rdx, -136(%rbp)
	movq	%fs:40, %rax
	movq	%rax, -8(%rbp)
	xorl	%eax, %eax
	movq	$0, _TIG_IZ_eFcG_envp(%rip)
	nop
.L2:
	movq	$0, _TIG_IZ_eFcG_argv(%rip)
	nop
.L3:
	movl	$0, _TIG_IZ_eFcG_argc(%rip)
	nop
	nop
.L4:
.L5:
#APP
# 87 "/usr/include/x86_64-linux-gnu/bits/uintn-identity.h" 1
	##_ANNOTATION_INITIALREGION_-TIG-IZ-eFcG--0
# 0 "" 2
#NO_APP
	movl	-116(%rbp), %eax
	movl	%eax, _TIG_IZ_eFcG_argc(%rip)
	movq	-128(%rbp), %rax
	movq	%rax, _TIG_IZ_eFcG_argv(%rip)
	movq	-136(%rbp), %rax
	movq	%rax, _TIG_IZ_eFcG_envp(%rip)
#APP
# 94 "/usr/include/x86_64-linux-gnu/bits/uintn-identity.h" 1
	##_ANNOTATION_ATOMICREGION_-TIG-iO-eFcG-1-main--17
# 0 "" 2
#NO_APP
	movl	$24, %edi
	call	malloc@PLT
	movq	%rax, -104(%rbp)
	movq	-104(%rbp), %rax
	movq	-104(%rbp), %rdx
	movq	%rdx, 8(%rax)
	movq	-104(%rbp), %rax
	movq	-104(%rbp), %rdx
	movq	%rdx, (%rax)
	movq	-104(%rbp), %rax
	movq	%rax, _TIG_iO_eFcG_1_main_1_opaque_list_1(%rip)
	call	rand@PLT
	movl	%eax, -112(%rbp)
	movl	$24, %edi
	call	malloc@PLT
	movq	%rax, -96(%rbp)
	movq	-96(%rbp), %rax
	movl	$0, 16(%rax)
	movq	_TIG_iO_eFcG_1_main_1_opaque_list_1(%rip), %rax
	movq	8(%rax), %rdx
	movq	-96(%rbp), %rax
	movq	%rdx, 8(%rax)
	movq	_TIG_iO_eFcG_1_main_1_opaque_list_1(%rip), %rdx
	movq	-96(%rbp), %rax
	movq	%rdx, (%rax)
	movq	_TIG_iO_eFcG_1_main_1_opaque_list_1(%rip), %rax
	movq	8(%rax), %rax
	movq	-96(%rbp), %rdx
	movq	%rdx, (%rax)
	movq	_TIG_iO_eFcG_1_main_1_opaque_list_1(%rip), %rax
	movq	-96(%rbp), %rdx
	movq	%rdx, 8(%rax)
	call	rand@PLT
	movl	%eax, -108(%rbp)
	movl	$24, %edi
	call	malloc@PLT
	movq	%rax, -88(%rbp)
	movq	-88(%rbp), %rax
	movl	-108(%rbp), %edx
	movl	%edx, 16(%rax)
	movq	_TIG_iO_eFcG_1_main_1_opaque_list_1(%rip), %rax
	movq	8(%rax), %rdx
	movq	-88(%rbp), %rax
	movq	%rdx, 8(%rax)
	movq	_TIG_iO_eFcG_1_main_1_opaque_list_1(%rip), %rdx
	movq	-88(%rbp), %rax
	movq	%rdx, (%rax)
	movq	_TIG_iO_eFcG_1_main_1_opaque_list_1(%rip), %rax
	movq	8(%rax), %rax
	movq	-88(%rbp), %rdx
	movq	%rdx, (%rax)
	movq	_TIG_iO_eFcG_1_main_1_opaque_list_1(%rip), %rax
	movq	-88(%rbp), %rdx
	movq	%rdx, 8(%rax)
	movq	_TIG_iO_eFcG_1_main_1_opaque_list_1(%rip), %rax
	movq	8(%rax), %rax
	movq	%rax, _TIG_iO_eFcG_1_main_1_opaque_ptr_1(%rip)
	movq	_TIG_iO_eFcG_1_main_1_opaque_ptr_1(%rip), %rax
	movq	%rax, _TIG_iO_eFcG_1_main_1_opaque_ptr_2(%rip)
	movq	_TIG_iO_eFcG_1_main_1_opaque_ptr_2(%rip), %rax
	movq	8(%rax), %rax
	movq	%rax, _TIG_iO_eFcG_1_main_1_opaque_ptr_2(%rip)
	nop
	nop
	movq	_TIG_iO_eFcG_1_stack_prec_1_opaque_ptr_1(%rip), %rdx
	movq	_TIG_iO_eFcG_1_stack_prec_1_opaque_ptr_2(%rip), %rax
	cmpq	%rax, %rdx
	jne	.L9
	leaq	.LC0(%rip), %rax
	movq	%rax, %rdi
	call	puts@PLT
	leaq	-80(%rbp), %rax
	movq	%rax, %rsi
	leaq	.LC1(%rip), %rax
	movq	%rax, %rdi
	movl	$0, %eax
	call	__isoc99_scanf@PLT
	leaq	-48(%rbp), %rdx
	leaq	-80(%rbp), %rax
	movq	%rdx, %rsi
	movq	%rax, %rdi
	call	convert
	leaq	-48(%rbp), %rax
	movq	%rax, %rsi
	leaq	.LC2(%rip), %rax
	movq	%rax, %rdi
	movl	$0, %eax
	call	printf@PLT
	nop
.L9:
	nop
	movq	-8(%rbp), %rax
	subq	%fs:40, %rax
	je	.L8
	call	__stack_chk_fail@PLT
.L8:
	leave
	.cfi_def_cfa 7, 8
	ret
	.cfi_endproc
.LFE4:
	.size	main, .-main
	.globl	stack_prec
	.type	stack_prec, @function
stack_prec:
.LFB6:
	.cfi_startproc
	endbr64
	pushq	%rbp
	.cfi_def_cfa_offset 16
	.cfi_offset 6, -16
	movq	%rsp, %rbp
	.cfi_def_cfa_register 6
	subq	$48, %rsp
	movl	%edi, %eax
	movb	%al, -36(%rbp)
#APP
# 53 "/usr/include/x86_64-linux-gnu/bits/uintn-identity.h" 1
	##_ANNOTATION_INITIALREGION_-TIG-iO-eFcG-1-stack-prec--20
# 0 "" 2
# 57 "/usr/include/x86_64-linux-gnu/bits/uintn-identity.h" 1
	##_ANNOTATION_ATOMICREGION_-TIG-iO-eFcG-1-stack-prec--19
# 0 "" 2
#NO_APP
	movl	$24, %edi
	call	malloc@PLT
	movq	%rax, -24(%rbp)
	movq	-24(%rbp), %rax
	movq	-24(%rbp), %rdx
	movq	%rdx, 8(%rax)
	movq	-24(%rbp), %rax
	movq	-24(%rbp), %rdx
	movq	%rdx, 16(%rax)
	movq	-24(%rbp), %rax
	movq	%rax, _TIG_iO_eFcG_1_stack_prec_1_opaque_list_1(%rip)
	call	rand@PLT
	movl	%eax, -32(%rbp)
	movl	$24, %edi
	call	malloc@PLT
	movq	%rax, -16(%rbp)
	movq	-16(%rbp), %rax
	movl	$0, (%rax)
	movq	_TIG_iO_eFcG_1_stack_prec_1_opaque_list_1(%rip), %rax
	movq	8(%rax), %rdx
	movq	-16(%rbp), %rax
	movq	%rdx, 8(%rax)
	movq	_TIG_iO_eFcG_1_stack_prec_1_opaque_list_1(%rip), %rdx
	movq	-16(%rbp), %rax
	movq	%rdx, 16(%rax)
	movq	_TIG_iO_eFcG_1_stack_prec_1_opaque_list_1(%rip), %rax
	movq	8(%rax), %rax
	movq	-16(%rbp), %rdx
	movq	%rdx, 16(%rax)
	movq	_TIG_iO_eFcG_1_stack_prec_1_opaque_list_1(%rip), %rax
	movq	-16(%rbp), %rdx
	movq	%rdx, 8(%rax)
	call	rand@PLT
	movl	%eax, -28(%rbp)
	movl	$24, %edi
	call	malloc@PLT
	movq	%rax, -8(%rbp)
	movq	-8(%rbp), %rax
	movl	-28(%rbp), %edx
	movl	%edx, (%rax)
	movq	_TIG_iO_eFcG_1_stack_prec_1_opaque_list_1(%rip), %rax
	movq	8(%rax), %rdx
	movq	-8(%rbp), %rax
	movq	%rdx, 8(%rax)
	movq	_TIG_iO_eFcG_1_stack_prec_1_opaque_list_1(%rip), %rdx
	movq	-8(%rbp), %rax
	movq	%rdx, 16(%rax)
	movq	_TIG_iO_eFcG_1_stack_prec_1_opaque_list_1(%rip), %rax
	movq	8(%rax), %rax
	movq	-8(%rbp), %rdx
	movq	%rdx, 16(%rax)
	movq	_TIG_iO_eFcG_1_stack_prec_1_opaque_list_1(%rip), %rax
	movq	-8(%rbp), %rdx
	movq	%rdx, 8(%rax)
	movq	_TIG_iO_eFcG_1_stack_prec_1_opaque_list_1(%rip), %rax
	movq	8(%rax), %rax
	movq	%rax, _TIG_iO_eFcG_1_stack_prec_1_opaque_ptr_1(%rip)
	movq	_TIG_iO_eFcG_1_stack_prec_1_opaque_ptr_1(%rip), %rax
	movq	%rax, _TIG_iO_eFcG_1_stack_prec_1_opaque_ptr_2(%rip)
	nop
	nop
	movq	_TIG_iO_eFcG_1_stack_prec_1_opaque_ptr_1(%rip), %rdx
	movq	_TIG_iO_eFcG_1_stack_prec_1_opaque_ptr_2(%rip), %rax
	cmpq	%rax, %rdx
	jne	.L11
	movsbl	-36(%rbp), %eax
	subl	$35, %eax
	cmpl	$59, %eax
	ja	.L12
	movl	%eax, %eax
	leaq	0(,%rax,4), %rdx
	leaq	.L14(%rip), %rax
	movl	(%rdx,%rax), %eax
	cltq
	leaq	.L14(%rip), %rdx
	addq	%rdx, %rax
	notrack jmp	*%rax
	.section	.rodata
	.align 4
	.align 4
.L14:
	.long	.L18-.L14
	.long	.L13-.L14
	.long	.L12-.L14
	.long	.L12-.L14
	.long	.L12-.L14
	.long	.L17-.L14
	.long	.L12-.L14
	.long	.L15-.L14
	.long	.L16-.L14
	.long	.L12-.L14
	.long	.L16-.L14
	.long	.L12-.L14
	.long	.L15-.L14
	.long	.L12-.L14
	.long	.L12-.L14
	.long	.L12-.L14
	.long	.L12-.L14
	.long	.L12-.L14
	.long	.L12-.L14
	.long	.L12-.L14
	.long	.L12-.L14
	.long	.L12-.L14
	.long	.L12-.L14
	.long	.L12-.L14
	.long	.L12-.L14
	.long	.L12-.L14
	.long	.L12-.L14
	.long	.L12-.L14
	.long	.L12-.L14
	.long	.L12-.L14
	.long	.L12-.L14
	.long	.L12-.L14
	.long	.L12-.L14
	.long	.L12-.L14
	.long	.L12-.L14
	.long	.L12-.L14
	.long	.L12-.L14
	.long	.L12-.L14
	.long	.L12-.L14
	.long	.L12-.L14
	.long	.L12-.L14
	.long	.L12-.L14
	.long	.L12-.L14
	.long	.L12-.L14
	.long	.L12-.L14
	.long	.L12-.L14
	.long	.L12-.L14
	.long	.L12-.L14
	.long	.L12-.L14
	.long	.L12-.L14
	.long	.L12-.L14
	.long	.L12-.L14
	.long	.L12-.L14
	.long	.L12-.L14
	.long	.L12-.L14
	.long	.L12-.L14
	.long	.L12-.L14
	.long	.L12-.L14
	.long	.L12-.L14
	.long	.L13-.L14
	.text
.L16:
	movl	$2, %eax
	jmp	.L19
.L15:
	movl	$4, %eax
	jmp	.L19
.L13:
	movl	$5, %eax
	jmp	.L19
.L17:
	movl	$0, %eax
	jmp	.L19
.L18:
	movl	$-1, %eax
	jmp	.L19
.L12:
	movl	$8, %eax
	jmp	.L19
.L11:
	movl	$0, %eax
.L19:
	leave
	.cfi_def_cfa 7, 8
	ret
	.cfi_endproc
.LFE6:
	.size	stack_prec, .-stack_prec
	.globl	in_prec
	.type	in_prec, @function
in_prec:
.LFB8:
	.cfi_startproc
	endbr64
	pushq	%rbp
	.cfi_def_cfa_offset 16
	.cfi_offset 6, -16
	movq	%rsp, %rbp
	.cfi_def_cfa_register 6
	subq	$48, %rsp
	movl	%edi, %eax
	movb	%al, -36(%rbp)
#APP
# 69 "/usr/include/x86_64-linux-gnu/bits/byteswap.h" 1
	##_ANNOTATION_INITIALREGION_-TIG-iO-eFcG-1-in-prec--16
# 0 "" 2
# 73 "/usr/include/x86_64-linux-gnu/bits/byteswap.h" 1
	##_ANNOTATION_ATOMICREGION_-TIG-iO-eFcG-1-in-prec--15
# 0 "" 2
#NO_APP
	movl	$24, %edi
	call	malloc@PLT
	movq	%rax, -24(%rbp)
	movq	-24(%rbp), %rax
	movq	-24(%rbp), %rdx
	movq	%rdx, 16(%rax)
	movq	-24(%rbp), %rax
	movq	-24(%rbp), %rdx
	movq	%rdx, 8(%rax)
	movq	-24(%rbp), %rax
	movq	%rax, _TIG_iO_eFcG_1_in_prec_1_opaque_list_1(%rip)
	call	rand@PLT
	movl	%eax, -32(%rbp)
	movl	$24, %edi
	call	malloc@PLT
	movq	%rax, -16(%rbp)
	movq	-16(%rbp), %rax
	movl	$0, (%rax)
	movq	_TIG_iO_eFcG_1_in_prec_1_opaque_list_1(%rip), %rax
	movq	16(%rax), %rdx
	movq	-16(%rbp), %rax
	movq	%rdx, 16(%rax)
	movq	_TIG_iO_eFcG_1_in_prec_1_opaque_list_1(%rip), %rdx
	movq	-16(%rbp), %rax
	movq	%rdx, 8(%rax)
	movq	_TIG_iO_eFcG_1_in_prec_1_opaque_list_1(%rip), %rax
	movq	16(%rax), %rax
	movq	-16(%rbp), %rdx
	movq	%rdx, 8(%rax)
	movq	_TIG_iO_eFcG_1_in_prec_1_opaque_list_1(%rip), %rax
	movq	-16(%rbp), %rdx
	movq	%rdx, 16(%rax)
	call	rand@PLT
	movl	%eax, -28(%rbp)
	movl	$24, %edi
	call	malloc@PLT
	movq	%rax, -8(%rbp)
	movq	-8(%rbp), %rax
	movl	-28(%rbp), %edx
	movl	%edx, (%rax)
	movq	_TIG_iO_eFcG_1_in_prec_1_opaque_list_1(%rip), %rax
	movq	16(%rax), %rdx
	movq	-8(%rbp), %rax
	movq	%rdx, 16(%rax)
	movq	_TIG_iO_eFcG_1_in_prec_1_opaque_list_1(%rip), %rdx
	movq	-8(%rbp), %rax
	movq	%rdx, 8(%rax)
	movq	_TIG_iO_eFcG_1_in_prec_1_opaque_list_1(%rip), %rax
	movq	16(%rax), %rax
	movq	-8(%rbp), %rdx
	movq	%rdx, 8(%rax)
	movq	_TIG_iO_eFcG_1_in_prec_1_opaque_list_1(%rip), %rax
	movq	-8(%rbp), %rdx
	movq	%rdx, 16(%rax)
	movq	_TIG_iO_eFcG_1_in_prec_1_opaque_list_1(%rip), %rax
	movq	16(%rax), %rax
	movq	%rax, _TIG_iO_eFcG_1_in_prec_1_opaque_ptr_1(%rip)
	movq	_TIG_iO_eFcG_1_in_prec_1_opaque_ptr_1(%rip), %rax
	movq	%rax, _TIG_iO_eFcG_1_in_prec_1_opaque_ptr_2(%rip)
	nop
	nop
	movq	_TIG_iO_eFcG_1_stack_prec_1_opaque_ptr_1(%rip), %rdx
	movq	_TIG_iO_eFcG_1_stack_prec_1_opaque_ptr_2(%rip), %rax
	cmpq	%rax, %rdx
	je	.L21
	movsbl	-36(%rbp), %eax
	cmpl	%eax, -28(%rbp)
	jg	.L22
	movl	$1, %eax
	jmp	.L23
.L21:
	movsbl	-36(%rbp), %eax
	subl	$36, %eax
	cmpl	$58, %eax
	ja	.L24
	movl	%eax, %eax
	leaq	0(,%rax,4), %rdx
	leaq	.L26(%rip), %rax
	movl	(%rdx,%rax), %eax
	cltq
	leaq	.L26(%rip), %rdx
	addq	%rdx, %rax
	notrack jmp	*%rax
	.section	.rodata
	.align 4
	.align 4
.L26:
	.long	.L25-.L26
	.long	.L24-.L26
	.long	.L24-.L26
	.long	.L24-.L26
	.long	.L30-.L26
	.long	.L29-.L26
	.long	.L27-.L26
	.long	.L28-.L26
	.long	.L24-.L26
	.long	.L28-.L26
	.long	.L24-.L26
	.long	.L27-.L26
	.long	.L24-.L26
	.long	.L24-.L26
	.long	.L24-.L26
	.long	.L24-.L26
	.long	.L24-.L26
	.long	.L24-.L26
	.long	.L24-.L26
	.long	.L24-.L26
	.long	.L24-.L26
	.long	.L24-.L26
	.long	.L24-.L26
	.long	.L24-.L26
	.long	.L24-.L26
	.long	.L24-.L26
	.long	.L24-.L26
	.long	.L24-.L26
	.long	.L24-.L26
	.long	.L24-.L26
	.long	.L24-.L26
	.long	.L24-.L26
	.long	.L24-.L26
	.long	.L24-.L26
	.long	.L24-.L26
	.long	.L24-.L26
	.long	.L24-.L26
	.long	.L24-.L26
	.long	.L24-.L26
	.long	.L24-.L26
	.long	.L24-.L26
	.long	.L24-.L26
	.long	.L24-.L26
	.long	.L24-.L26
	.long	.L24-.L26
	.long	.L24-.L26
	.long	.L24-.L26
	.long	.L24-.L26
	.long	.L24-.L26
	.long	.L24-.L26
	.long	.L24-.L26
	.long	.L24-.L26
	.long	.L24-.L26
	.long	.L24-.L26
	.long	.L24-.L26
	.long	.L24-.L26
	.long	.L24-.L26
	.long	.L24-.L26
	.long	.L25-.L26
	.text
.L28:
	movl	$1, %eax
	jmp	.L23
.L27:
	movl	$3, %eax
	jmp	.L23
.L25:
	movl	$6, %eax
	jmp	.L23
.L30:
	movl	$9, %eax
	jmp	.L23
.L29:
	movl	$0, %eax
	jmp	.L23
.L24:
	movl	$7, %eax
	jmp	.L23
.L22:
	movl	$0, %eax
.L23:
	leave
	.cfi_def_cfa 7, 8
	ret
	.cfi_endproc
.LFE8:
	.size	in_prec, .-in_prec
	.globl	convert
	.type	convert, @function
convert:
.LFB9:
	.cfi_startproc
	endbr64
	pushq	%rbp
	.cfi_def_cfa_offset 16
	.cfi_offset 6, -16
	movq	%rsp, %rbp
	.cfi_def_cfa_register 6
	subq	$176, %rsp
	movq	%rdi, -168(%rbp)
	movq	%rsi, -176(%rbp)
	movq	%fs:40, %rax
	movq	%rax, -8(%rbp)
	xorl	%eax, %eax
#APP
# 70 "githubber-me_dsathirdsem_4.c" 1
	##_ANNOTATION_INITIALREGION_-TIG-iO-eFcG-1-convert--14
# 0 "" 2
# 74 "githubber-me_dsathirdsem_4.c" 1
	##_ANNOTATION_ATOMICREGION_-TIG-iO-eFcG-1-convert--13
# 0 "" 2
#NO_APP
	movl	$24, %edi
	call	malloc@PLT
	movq	%rax, -88(%rbp)
	movq	-88(%rbp), %rax
	movq	-88(%rbp), %rdx
	movq	%rdx, (%rax)
	movq	-88(%rbp), %rax
	movq	-88(%rbp), %rdx
	movq	%rdx, 8(%rax)
	movq	-88(%rbp), %rax
	movq	%rax, _TIG_iO_eFcG_1_convert_1_opaque_list_1(%rip)
	call	rand@PLT
	movl	%eax, -136(%rbp)
	movl	$24, %edi
	call	malloc@PLT
	movq	%rax, -80(%rbp)
	movq	-80(%rbp), %rax
	movl	$0, 16(%rax)
	movq	_TIG_iO_eFcG_1_convert_1_opaque_list_1(%rip), %rax
	movq	(%rax), %rdx
	movq	-80(%rbp), %rax
	movq	%rdx, (%rax)
	movq	_TIG_iO_eFcG_1_convert_1_opaque_list_1(%rip), %rdx
	movq	-80(%rbp), %rax
	movq	%rdx, 8(%rax)
	movq	_TIG_iO_eFcG_1_convert_1_opaque_list_1(%rip), %rax
	movq	(%rax), %rax
	movq	-80(%rbp), %rdx
	movq	%rdx, 8(%rax)
	movq	_TIG_iO_eFcG_1_convert_1_opaque_list_1(%rip), %rax
	movq	-80(%rbp), %rdx
	movq	%rdx, (%rax)
	call	rand@PLT
	movl	%eax, -132(%rbp)
	movl	$24, %edi
	call	malloc@PLT
	movq	%rax, -72(%rbp)
	movq	-72(%rbp), %rax
	movl	-132(%rbp), %edx
	movl	%edx, 16(%rax)
	movq	_TIG_iO_eFcG_1_convert_1_opaque_list_1(%rip), %rax
	movq	(%rax), %rdx
	movq	-72(%rbp), %rax
	movq	%rdx, (%rax)
	movq	_TIG_iO_eFcG_1_convert_1_opaque_list_1(%rip), %rdx
	movq	-72(%rbp), %rax
	movq	%rdx, 8(%rax)
	movq	_TIG_iO_eFcG_1_convert_1_opaque_list_1(%rip), %rax
	movq	(%rax), %rax
	movq	-72(%rbp), %rdx
	movq	%rdx, 8(%rax)
	movq	_TIG_iO_eFcG_1_convert_1_opaque_list_1(%rip), %rax
	movq	-72(%rbp), %rdx
	movq	%rdx, (%rax)
	call	rand@PLT
	movl	%eax, -128(%rbp)
	movl	$24, %edi
	call	malloc@PLT
	movq	%rax, -64(%rbp)
	movl	-128(%rbp), %eax
	leal	(%rax,%rax), %edx
	movq	-64(%rbp), %rax
	movl	%edx, 16(%rax)
	movq	_TIG_iO_eFcG_1_convert_1_opaque_list_1(%rip), %rax
	movq	(%rax), %rdx
	movq	-64(%rbp), %rax
	movq	%rdx, (%rax)
	movq	_TIG_iO_eFcG_1_convert_1_opaque_list_1(%rip), %rdx
	movq	-64(%rbp), %rax
	movq	%rdx, 8(%rax)
	movq	_TIG_iO_eFcG_1_convert_1_opaque_list_1(%rip), %rax
	movq	(%rax), %rax
	movq	-64(%rbp), %rdx
	movq	%rdx, 8(%rax)
	movq	_TIG_iO_eFcG_1_convert_1_opaque_list_1(%rip), %rax
	movq	-64(%rbp), %rdx
	movq	%rdx, (%rax)
	call	rand@PLT
	movl	%eax, -124(%rbp)
	movl	$24, %edi
	call	malloc@PLT
	movq	%rax, -56(%rbp)
	movl	-124(%rbp), %edx
	movl	%edx, %eax
	addl	%eax, %eax
	addl	%eax, %edx
	movq	-56(%rbp), %rax
	movl	%edx, 16(%rax)
	movq	_TIG_iO_eFcG_1_convert_1_opaque_list_1(%rip), %rax
	movq	(%rax), %rdx
	movq	-56(%rbp), %rax
	movq	%rdx, (%rax)
	movq	_TIG_iO_eFcG_1_convert_1_opaque_list_1(%rip), %rdx
	movq	-56(%rbp), %rax
	movq	%rdx, 8(%rax)
	movq	_TIG_iO_eFcG_1_convert_1_opaque_list_1(%rip), %rax
	movq	(%rax), %rax
	movq	-56(%rbp), %rdx
	movq	%rdx, 8(%rax)
	movq	_TIG_iO_eFcG_1_convert_1_opaque_list_1(%rip), %rax
	movq	-56(%rbp), %rdx
	movq	%rdx, (%rax)
	movq	_TIG_iO_eFcG_1_convert_1_opaque_list_1(%rip), %rax
	movq	(%rax), %rax
	movq	%rax, _TIG_iO_eFcG_1_convert_1_opaque_ptr_1(%rip)
	movq	_TIG_iO_eFcG_1_convert_1_opaque_ptr_1(%rip), %rax
	movq	%rax, _TIG_iO_eFcG_1_convert_1_opaque_ptr_2(%rip)
	movq	_TIG_iO_eFcG_1_convert_1_opaque_ptr_2(%rip), %rax
	movq	(%rax), %rax
	movq	%rax, _TIG_iO_eFcG_1_convert_1_opaque_ptr_2(%rip)
	nop
	nop
	movl	$-1, -148(%rbp)
	movl	$0, -140(%rbp)
	addl	$1, -148(%rbp)
	movl	-148(%rbp), %eax
	cltq
	movb	$35, -48(%rbp,%rax)
	movl	$0, -144(%rbp)
	jmp	.L32
.L38:
	movl	-144(%rbp), %eax
	movslq	%eax, %rdx
	movq	-168(%rbp), %rax
	addq	%rdx, %rax
	movzbl	(%rax), %eax
	movb	%al, -149(%rbp)
.L35:
	movl	-148(%rbp), %eax
	cltq
	movzbl	-48(%rbp,%rax), %eax
	movsbl	%al, %eax
	movl	%eax, %edi
	call	stack_prec
	movl	%eax, -112(%rbp)
	movsbl	-149(%rbp), %eax
	movl	%eax, %edi
	call	in_prec
	movl	%eax, -108(%rbp)
	movl	-112(%rbp), %eax
	cmpl	-108(%rbp), %eax
	jle	.L45
	movl	-140(%rbp), %eax
	movl	%eax, -104(%rbp)
	addl	$1, -140(%rbp)
	movl	-148(%rbp), %eax
	movl	%eax, -100(%rbp)
	subl	$1, -148(%rbp)
	movl	-104(%rbp), %eax
	movslq	%eax, %rdx
	movq	-176(%rbp), %rax
	addq	%rax, %rdx
	movl	-100(%rbp), %eax
	cltq
	movzbl	-48(%rbp,%rax), %eax
	movb	%al, (%rdx)
	jmp	.L35
.L45:
	nop
	movl	-148(%rbp), %eax
	cltq
	movzbl	-48(%rbp,%rax), %eax
	movsbl	%al, %eax
	movl	%eax, %edi
	call	stack_prec
	movl	%eax, -96(%rbp)
	movsbl	-149(%rbp), %eax
	movl	%eax, %edi
	call	in_prec
	movl	%eax, -92(%rbp)
	movl	-96(%rbp), %eax
	cmpl	-92(%rbp), %eax
	je	.L36
	addl	$1, -148(%rbp)
	movl	-148(%rbp), %eax
	cltq
	movzbl	-149(%rbp), %edx
	movb	%dl, -48(%rbp,%rax)
	jmp	.L37
.L36:
	subl	$1, -148(%rbp)
.L37:
	addl	$1, -144(%rbp)
.L32:
	movl	-144(%rbp), %eax
	movslq	%eax, %rdx
	movq	-168(%rbp), %rax
	addq	%rdx, %rax
	movzbl	(%rax), %eax
	testb	%al, %al
	jne	.L38
	jmp	.L39
.L41:
	movq	_TIG_iO_eFcG_1_stack_prec_1_opaque_ptr_1(%rip), %rdx
	movq	_TIG_iO_eFcG_1_stack_prec_1_opaque_ptr_2(%rip), %rax
	cmpq	%rax, %rdx
	jne	.L40
	movl	-140(%rbp), %eax
	movl	%eax, -120(%rbp)
	addl	$1, -140(%rbp)
	movl	-148(%rbp), %eax
	movl	%eax, -116(%rbp)
	subl	$1, -148(%rbp)
	movl	-120(%rbp), %eax
	movslq	%eax, %rdx
	movq	-176(%rbp), %rax
	addq	%rax, %rdx
	movl	-116(%rbp), %eax
	cltq
	movzbl	-48(%rbp,%rax), %eax
	movb	%al, (%rdx)
	jmp	.L39
.L40:
	movl	-140(%rbp), %eax
	subl	$1, %eax
	movl	%eax, -120(%rbp)
	movl	-140(%rbp), %eax
	addl	$1, %eax
	subl	-128(%rbp), %eax
	movl	%eax, -140(%rbp)
	movl	-132(%rbp), %eax
	movl	%eax, -116(%rbp)
	movl	$7, -148(%rbp)
	movl	-120(%rbp), %eax
	movslq	%eax, %rdx
	movq	-176(%rbp), %rax
	addq	%rdx, %rax
	movb	$2, (%rax)
.L39:
	movl	-148(%rbp), %eax
	cltq
	movzbl	-48(%rbp,%rax), %eax
	cmpb	$35, %al
	jne	.L41
	movl	-140(%rbp), %eax
	movslq	%eax, %rdx
	movq	-176(%rbp), %rax
	addq	%rdx, %rax
	movb	$0, (%rax)
	nop
	movq	-8(%rbp), %rax
	subq	%fs:40, %rax
	je	.L43
	call	__stack_chk_fail@PLT
.L43:
	leave
	.cfi_def_cfa 7, 8
	ret
	.cfi_endproc
.LFE9:
	.size	convert, .-convert
	.ident	"GCC: (Ubuntu 11.4.0-1ubuntu1~22.04) 11.4.0"
	.section	.note.GNU-stack,"",@progbits
	.section	.note.gnu.property,"a"
	.align 8
	.long	1f - 0f
	.long	4f - 1f
	.long	5
0:
	.string	"GNU"
1:
	.align 8
	.long	0xc0000002
	.long	3f - 2f
2:
	.long	0x3
3:
	.align 8
4:
