	.file	"halakundi_DSA-Program_3_opaque.c"
	.text
	.globl	_TIG_iO_QGcn_1___bswap_64_1_opaque_ptr_1
	.bss
	.align 8
	.type	_TIG_iO_QGcn_1___bswap_64_1_opaque_ptr_1, @object
	.size	_TIG_iO_QGcn_1___bswap_64_1_opaque_ptr_1, 8
_TIG_iO_QGcn_1___bswap_64_1_opaque_ptr_1:
	.zero	8
	.globl	_TIG_iO_QGcn_1___bswap_32_1_opaque_list_2
	.align 8
	.type	_TIG_iO_QGcn_1___bswap_32_1_opaque_list_2, @object
	.size	_TIG_iO_QGcn_1___bswap_32_1_opaque_list_2, 8
_TIG_iO_QGcn_1___bswap_32_1_opaque_list_2:
	.zero	8
	.globl	_TIG_iO_QGcn_1___bswap_16_1_opaque_list_2
	.align 8
	.type	_TIG_iO_QGcn_1___bswap_16_1_opaque_list_2, @object
	.size	_TIG_iO_QGcn_1___bswap_16_1_opaque_list_2, 8
_TIG_iO_QGcn_1___bswap_16_1_opaque_list_2:
	.zero	8
	.globl	_TIG_IZ_QGcn_envp
	.align 8
	.type	_TIG_IZ_QGcn_envp, @object
	.size	_TIG_IZ_QGcn_envp, 8
_TIG_IZ_QGcn_envp:
	.zero	8
	.globl	stack
	.align 16
	.type	stack, @object
	.size	stack, 20
stack:
	.zero	20
	.globl	_TIG_iO_QGcn_1_push_1_opaque_list_2
	.align 8
	.type	_TIG_iO_QGcn_1_push_1_opaque_list_2, @object
	.size	_TIG_iO_QGcn_1_push_1_opaque_list_2, 8
_TIG_iO_QGcn_1_push_1_opaque_list_2:
	.zero	8
	.globl	_TIG_iO_QGcn_1___bswap_16_1_opaque_ptr_1
	.align 8
	.type	_TIG_iO_QGcn_1___bswap_16_1_opaque_ptr_1, @object
	.size	_TIG_iO_QGcn_1___bswap_16_1_opaque_ptr_1, 8
_TIG_iO_QGcn_1___bswap_16_1_opaque_ptr_1:
	.zero	8
	.globl	_TIG_iO_QGcn_1_display_1_opaque_ptr_1
	.align 8
	.type	_TIG_iO_QGcn_1_display_1_opaque_ptr_1, @object
	.size	_TIG_iO_QGcn_1_display_1_opaque_ptr_1, 8
_TIG_iO_QGcn_1_display_1_opaque_ptr_1:
	.zero	8
	.globl	_TIG_iO_QGcn_1___uint16_identity_1_opaque_list_1
	.align 8
	.type	_TIG_iO_QGcn_1___uint16_identity_1_opaque_list_1, @object
	.size	_TIG_iO_QGcn_1___uint16_identity_1_opaque_list_1, 8
_TIG_iO_QGcn_1___uint16_identity_1_opaque_list_1:
	.zero	8
	.globl	_TIG_iO_QGcn_1___bswap_16_1_opaque_list_1
	.align 8
	.type	_TIG_iO_QGcn_1___bswap_16_1_opaque_list_1, @object
	.size	_TIG_iO_QGcn_1___bswap_16_1_opaque_list_1, 8
_TIG_iO_QGcn_1___bswap_16_1_opaque_list_1:
	.zero	8
	.globl	ele
	.align 4
	.type	ele, @object
	.size	ele, 4
ele:
	.zero	4
	.globl	_TIG_iO_QGcn_1_display_1_opaque_list_1
	.align 8
	.type	_TIG_iO_QGcn_1_display_1_opaque_list_1, @object
	.size	_TIG_iO_QGcn_1_display_1_opaque_list_1, 8
_TIG_iO_QGcn_1_display_1_opaque_list_1:
	.zero	8
	.globl	_TIG_iO_QGcn_1_main_1_opaque_ptr_2
	.align 8
	.type	_TIG_iO_QGcn_1_main_1_opaque_ptr_2, @object
	.size	_TIG_iO_QGcn_1_main_1_opaque_ptr_2, 8
_TIG_iO_QGcn_1_main_1_opaque_ptr_2:
	.zero	8
	.globl	_TIG_iO_QGcn_1_status_1_opaque_ptr_2
	.align 8
	.type	_TIG_iO_QGcn_1_status_1_opaque_ptr_2, @object
	.size	_TIG_iO_QGcn_1_status_1_opaque_ptr_2, 8
_TIG_iO_QGcn_1_status_1_opaque_ptr_2:
	.zero	8
	.globl	_TIG_iO_QGcn_1___bswap_16_1_opaque_ptr_2
	.align 8
	.type	_TIG_iO_QGcn_1___bswap_16_1_opaque_ptr_2, @object
	.size	_TIG_iO_QGcn_1___bswap_16_1_opaque_ptr_2, 8
_TIG_iO_QGcn_1___bswap_16_1_opaque_ptr_2:
	.zero	8
	.globl	_TIG_iO_QGcn_1_pop_1_opaque_ptr_2
	.align 8
	.type	_TIG_iO_QGcn_1_pop_1_opaque_ptr_2, @object
	.size	_TIG_iO_QGcn_1_pop_1_opaque_ptr_2, 8
_TIG_iO_QGcn_1_pop_1_opaque_ptr_2:
	.zero	8
	.globl	_TIG_iO_QGcn_1___bswap_32_1_opaque_list_1
	.align 8
	.type	_TIG_iO_QGcn_1___bswap_32_1_opaque_list_1, @object
	.size	_TIG_iO_QGcn_1___bswap_32_1_opaque_list_1, 8
_TIG_iO_QGcn_1___bswap_32_1_opaque_list_1:
	.zero	8
	.globl	_TIG_iO_QGcn_1___uint32_identity_1_opaque_list_1
	.align 8
	.type	_TIG_iO_QGcn_1___uint32_identity_1_opaque_list_1, @object
	.size	_TIG_iO_QGcn_1___uint32_identity_1_opaque_list_1, 8
_TIG_iO_QGcn_1___uint32_identity_1_opaque_list_1:
	.zero	8
	.globl	_TIG_iO_QGcn_1___bswap_32_1_opaque_ptr_2
	.align 8
	.type	_TIG_iO_QGcn_1___bswap_32_1_opaque_ptr_2, @object
	.size	_TIG_iO_QGcn_1___bswap_32_1_opaque_ptr_2, 8
_TIG_iO_QGcn_1___bswap_32_1_opaque_ptr_2:
	.zero	8
	.globl	_TIG_iO_QGcn_1___bswap_64_1_opaque_ptr_2
	.align 8
	.type	_TIG_iO_QGcn_1___bswap_64_1_opaque_ptr_2, @object
	.size	_TIG_iO_QGcn_1___bswap_64_1_opaque_ptr_2, 8
_TIG_iO_QGcn_1___bswap_64_1_opaque_ptr_2:
	.zero	8
	.globl	_TIG_iO_QGcn_1___uint64_identity_1_opaque_ptr_1
	.align 8
	.type	_TIG_iO_QGcn_1___uint64_identity_1_opaque_ptr_1, @object
	.size	_TIG_iO_QGcn_1___uint64_identity_1_opaque_ptr_1, 8
_TIG_iO_QGcn_1___uint64_identity_1_opaque_ptr_1:
	.zero	8
	.globl	_TIG_iO_QGcn_1_pop_1_opaque_list_1
	.align 8
	.type	_TIG_iO_QGcn_1_pop_1_opaque_list_1, @object
	.size	_TIG_iO_QGcn_1_pop_1_opaque_list_1, 8
_TIG_iO_QGcn_1_pop_1_opaque_list_1:
	.zero	8
	.globl	_TIG_iO_QGcn_1___uint16_identity_1_opaque_ptr_2
	.align 8
	.type	_TIG_iO_QGcn_1___uint16_identity_1_opaque_ptr_2, @object
	.size	_TIG_iO_QGcn_1___uint16_identity_1_opaque_ptr_2, 8
_TIG_iO_QGcn_1___uint16_identity_1_opaque_ptr_2:
	.zero	8
	.globl	_TIG_iO_QGcn_1_push_1_opaque_list_1
	.align 8
	.type	_TIG_iO_QGcn_1_push_1_opaque_list_1, @object
	.size	_TIG_iO_QGcn_1_push_1_opaque_list_1, 8
_TIG_iO_QGcn_1_push_1_opaque_list_1:
	.zero	8
	.globl	_TIG_iO_QGcn_1___uint32_identity_1_opaque_ptr_2
	.align 8
	.type	_TIG_iO_QGcn_1___uint32_identity_1_opaque_ptr_2, @object
	.size	_TIG_iO_QGcn_1___uint32_identity_1_opaque_ptr_2, 8
_TIG_iO_QGcn_1___uint32_identity_1_opaque_ptr_2:
	.zero	8
	.globl	_TIG_iO_QGcn_1___uint64_identity_1_opaque_list_1
	.align 8
	.type	_TIG_iO_QGcn_1___uint64_identity_1_opaque_list_1, @object
	.size	_TIG_iO_QGcn_1___uint64_identity_1_opaque_list_1, 8
_TIG_iO_QGcn_1___uint64_identity_1_opaque_list_1:
	.zero	8
	.globl	_TIG_iO_QGcn_1_pop_1_opaque_list_2
	.align 8
	.type	_TIG_iO_QGcn_1_pop_1_opaque_list_2, @object
	.size	_TIG_iO_QGcn_1_pop_1_opaque_list_2, 8
_TIG_iO_QGcn_1_pop_1_opaque_list_2:
	.zero	8
	.globl	_TIG_iO_QGcn_1___uint64_identity_1_opaque_ptr_2
	.align 8
	.type	_TIG_iO_QGcn_1___uint64_identity_1_opaque_ptr_2, @object
	.size	_TIG_iO_QGcn_1___uint64_identity_1_opaque_ptr_2, 8
_TIG_iO_QGcn_1___uint64_identity_1_opaque_ptr_2:
	.zero	8
	.globl	_TIG_iO_QGcn_1_display_1_opaque_ptr_2
	.align 8
	.type	_TIG_iO_QGcn_1_display_1_opaque_ptr_2, @object
	.size	_TIG_iO_QGcn_1_display_1_opaque_ptr_2, 8
_TIG_iO_QGcn_1_display_1_opaque_ptr_2:
	.zero	8
	.globl	_TIG_iO_QGcn_1_push_1_opaque_ptr_1
	.align 8
	.type	_TIG_iO_QGcn_1_push_1_opaque_ptr_1, @object
	.size	_TIG_iO_QGcn_1_push_1_opaque_ptr_1, 8
_TIG_iO_QGcn_1_push_1_opaque_ptr_1:
	.zero	8
	.globl	_TIG_iO_QGcn_1___uint32_identity_1_opaque_list_2
	.align 8
	.type	_TIG_iO_QGcn_1___uint32_identity_1_opaque_list_2, @object
	.size	_TIG_iO_QGcn_1___uint32_identity_1_opaque_list_2, 8
_TIG_iO_QGcn_1___uint32_identity_1_opaque_list_2:
	.zero	8
	.globl	_TIG_iO_QGcn_1___bswap_32_1_opaque_ptr_1
	.align 8
	.type	_TIG_iO_QGcn_1___bswap_32_1_opaque_ptr_1, @object
	.size	_TIG_iO_QGcn_1___bswap_32_1_opaque_ptr_1, 8
_TIG_iO_QGcn_1___bswap_32_1_opaque_ptr_1:
	.zero	8
	.globl	_TIG_iO_QGcn_1_pop_1_opaque_ptr_1
	.align 8
	.type	_TIG_iO_QGcn_1_pop_1_opaque_ptr_1, @object
	.size	_TIG_iO_QGcn_1_pop_1_opaque_ptr_1, 8
_TIG_iO_QGcn_1_pop_1_opaque_ptr_1:
	.zero	8
	.globl	_TIG_iO_QGcn_1_status_1_opaque_list_2
	.align 8
	.type	_TIG_iO_QGcn_1_status_1_opaque_list_2, @object
	.size	_TIG_iO_QGcn_1_status_1_opaque_list_2, 8
_TIG_iO_QGcn_1_status_1_opaque_list_2:
	.zero	8
	.globl	_TIG_iO_QGcn_1___uint16_identity_1_opaque_list_2
	.align 8
	.type	_TIG_iO_QGcn_1___uint16_identity_1_opaque_list_2, @object
	.size	_TIG_iO_QGcn_1___uint16_identity_1_opaque_list_2, 8
_TIG_iO_QGcn_1___uint16_identity_1_opaque_list_2:
	.zero	8
	.globl	top
	.align 4
	.type	top, @object
	.size	top, 4
top:
	.zero	4
	.globl	_TIG_IZ_QGcn_argv
	.align 8
	.type	_TIG_IZ_QGcn_argv, @object
	.size	_TIG_IZ_QGcn_argv, 8
_TIG_IZ_QGcn_argv:
	.zero	8
	.globl	_TIG_iO_QGcn_1_main_1_opaque_ptr_1
	.align 8
	.type	_TIG_iO_QGcn_1_main_1_opaque_ptr_1, @object
	.size	_TIG_iO_QGcn_1_main_1_opaque_ptr_1, 8
_TIG_iO_QGcn_1_main_1_opaque_ptr_1:
	.zero	8
	.globl	_TIG_iO_QGcn_1___uint32_identity_1_opaque_ptr_1
	.align 8
	.type	_TIG_iO_QGcn_1___uint32_identity_1_opaque_ptr_1, @object
	.size	_TIG_iO_QGcn_1___uint32_identity_1_opaque_ptr_1, 8
_TIG_iO_QGcn_1___uint32_identity_1_opaque_ptr_1:
	.zero	8
	.globl	_TIG_iO_QGcn_1_display_1_opaque_list_2
	.align 8
	.type	_TIG_iO_QGcn_1_display_1_opaque_list_2, @object
	.size	_TIG_iO_QGcn_1_display_1_opaque_list_2, 8
_TIG_iO_QGcn_1_display_1_opaque_list_2:
	.zero	8
	.globl	_TIG_iO_QGcn_1___bswap_64_1_opaque_list_2
	.align 8
	.type	_TIG_iO_QGcn_1___bswap_64_1_opaque_list_2, @object
	.size	_TIG_iO_QGcn_1___bswap_64_1_opaque_list_2, 8
_TIG_iO_QGcn_1___bswap_64_1_opaque_list_2:
	.zero	8
	.globl	_TIG_iO_QGcn_1_main_1_opaque_list_2
	.align 8
	.type	_TIG_iO_QGcn_1_main_1_opaque_list_2, @object
	.size	_TIG_iO_QGcn_1_main_1_opaque_list_2, 8
_TIG_iO_QGcn_1_main_1_opaque_list_2:
	.zero	8
	.globl	_TIG_iO_QGcn_1_main_1_opaque_list_1
	.align 8
	.type	_TIG_iO_QGcn_1_main_1_opaque_list_1, @object
	.size	_TIG_iO_QGcn_1_main_1_opaque_list_1, 8
_TIG_iO_QGcn_1_main_1_opaque_list_1:
	.zero	8
	.globl	_TIG_iO_QGcn_1___uint64_identity_1_opaque_list_2
	.align 8
	.type	_TIG_iO_QGcn_1___uint64_identity_1_opaque_list_2, @object
	.size	_TIG_iO_QGcn_1___uint64_identity_1_opaque_list_2, 8
_TIG_iO_QGcn_1___uint64_identity_1_opaque_list_2:
	.zero	8
	.globl	_TIG_iO_QGcn_1___bswap_64_1_opaque_list_1
	.align 8
	.type	_TIG_iO_QGcn_1___bswap_64_1_opaque_list_1, @object
	.size	_TIG_iO_QGcn_1___bswap_64_1_opaque_list_1, 8
_TIG_iO_QGcn_1___bswap_64_1_opaque_list_1:
	.zero	8
	.globl	_TIG_iO_QGcn_1_push_1_opaque_ptr_2
	.align 8
	.type	_TIG_iO_QGcn_1_push_1_opaque_ptr_2, @object
	.size	_TIG_iO_QGcn_1_push_1_opaque_ptr_2, 8
_TIG_iO_QGcn_1_push_1_opaque_ptr_2:
	.zero	8
	.globl	_TIG_iO_QGcn_1_status_1_opaque_ptr_1
	.align 8
	.type	_TIG_iO_QGcn_1_status_1_opaque_ptr_1, @object
	.size	_TIG_iO_QGcn_1_status_1_opaque_ptr_1, 8
_TIG_iO_QGcn_1_status_1_opaque_ptr_1:
	.zero	8
	.globl	_TIG_iO_QGcn_1___uint16_identity_1_opaque_ptr_1
	.align 8
	.type	_TIG_iO_QGcn_1___uint16_identity_1_opaque_ptr_1, @object
	.size	_TIG_iO_QGcn_1___uint16_identity_1_opaque_ptr_1, 8
_TIG_iO_QGcn_1___uint16_identity_1_opaque_ptr_1:
	.zero	8
	.globl	_TIG_iO_QGcn_1_status_1_opaque_list_1
	.align 8
	.type	_TIG_iO_QGcn_1_status_1_opaque_list_1, @object
	.size	_TIG_iO_QGcn_1_status_1_opaque_list_1, 8
_TIG_iO_QGcn_1_status_1_opaque_list_1:
	.zero	8
	.globl	_TIG_IZ_QGcn_argc
	.align 4
	.type	_TIG_IZ_QGcn_argc, @object
	.size	_TIG_IZ_QGcn_argc, 4
_TIG_IZ_QGcn_argc:
	.zero	4
	.section	.rodata
	.align 8
.LC0:
	.string	"Menu \n 1.push \n 2.pop \n 3.status \n 4.display \n 5.exit \n enter your choice: "
.LC1:
	.string	"%d"
.LC2:
	.string	"enter element to push: "
.LC3:
	.string	"popped element: %d\n"
	.text
	.globl	main
	.type	main, @function
main:
.LFB1:
	.cfi_startproc
	endbr64
	pushq	%rbp
	.cfi_def_cfa_offset 16
	.cfi_offset 6, -16
	movq	%rsp, %rbp
	.cfi_def_cfa_register 6
	subq	$80, %rsp
	movl	%edi, -52(%rbp)
	movq	%rsi, -64(%rbp)
	movq	%rdx, -72(%rbp)
	movq	%fs:40, %rax
	movq	%rax, -8(%rbp)
	xorl	%eax, %eax
	movl	$-1, top(%rip)
	nop
.L2:
	movl	$0, ele(%rip)
	nop
.L3:
	movl	$0, -44(%rbp)
	jmp	.L4
.L5:
	movl	-44(%rbp), %eax
	cltq
	leaq	0(,%rax,4), %rdx
	leaq	stack(%rip), %rax
	movl	$0, (%rdx,%rax)
	addl	$1, -44(%rbp)
.L4:
	cmpl	$4, -44(%rbp)
	jle	.L5
	nop
.L6:
	movq	$0, _TIG_IZ_QGcn_envp(%rip)
	nop
.L7:
	movq	$0, _TIG_IZ_QGcn_argv(%rip)
	nop
.L8:
	movl	$0, _TIG_IZ_QGcn_argc(%rip)
	nop
	nop
.L9:
.L10:
#APP
# 109 "/usr/include/x86_64-linux-gnu/bits/uintn-identity.h" 1
	##_ANNOTATION_INITIALREGION_-TIG-IZ-QGcn--0
# 0 "" 2
#NO_APP
	movl	-52(%rbp), %eax
	movl	%eax, _TIG_IZ_QGcn_argc(%rip)
	movq	-64(%rbp), %rax
	movq	%rax, _TIG_IZ_QGcn_argv(%rip)
	movq	-72(%rbp), %rax
	movq	%rax, _TIG_IZ_QGcn_envp(%rip)
#APP
# 116 "/usr/include/x86_64-linux-gnu/bits/uintn-identity.h" 1
	##_ANNOTATION_ATOMICREGION_-TIG-iO-QGcn-1-main--15
# 0 "" 2
#NO_APP
	movl	$24, %edi
	call	malloc@PLT
	movq	%rax, -32(%rbp)
	movq	-32(%rbp), %rax
	movq	-32(%rbp), %rdx
	movq	%rdx, 16(%rax)
	movq	-32(%rbp), %rax
	movq	-32(%rbp), %rdx
	movq	%rdx, 8(%rax)
	movq	-32(%rbp), %rax
	movq	%rax, _TIG_iO_QGcn_1_main_1_opaque_list_1(%rip)
	call	rand@PLT
	movl	%eax, -40(%rbp)
	movl	$24, %edi
	call	malloc@PLT
	movq	%rax, -24(%rbp)
	movq	-24(%rbp), %rax
	movl	$0, (%rax)
	movq	_TIG_iO_QGcn_1_main_1_opaque_list_1(%rip), %rax
	movq	16(%rax), %rdx
	movq	-24(%rbp), %rax
	movq	%rdx, 16(%rax)
	movq	_TIG_iO_QGcn_1_main_1_opaque_list_1(%rip), %rdx
	movq	-24(%rbp), %rax
	movq	%rdx, 8(%rax)
	movq	_TIG_iO_QGcn_1_main_1_opaque_list_1(%rip), %rax
	movq	16(%rax), %rax
	movq	-24(%rbp), %rdx
	movq	%rdx, 8(%rax)
	movq	_TIG_iO_QGcn_1_main_1_opaque_list_1(%rip), %rax
	movq	-24(%rbp), %rdx
	movq	%rdx, 16(%rax)
	call	rand@PLT
	movl	%eax, -36(%rbp)
	movl	$24, %edi
	call	malloc@PLT
	movq	%rax, -16(%rbp)
	movq	-16(%rbp), %rax
	movl	-36(%rbp), %edx
	movl	%edx, (%rax)
	movq	_TIG_iO_QGcn_1_main_1_opaque_list_1(%rip), %rax
	movq	16(%rax), %rdx
	movq	-16(%rbp), %rax
	movq	%rdx, 16(%rax)
	movq	_TIG_iO_QGcn_1_main_1_opaque_list_1(%rip), %rdx
	movq	-16(%rbp), %rax
	movq	%rdx, 8(%rax)
	movq	_TIG_iO_QGcn_1_main_1_opaque_list_1(%rip), %rax
	movq	16(%rax), %rax
	movq	-16(%rbp), %rdx
	movq	%rdx, 8(%rax)
	movq	_TIG_iO_QGcn_1_main_1_opaque_list_1(%rip), %rax
	movq	-16(%rbp), %rdx
	movq	%rdx, 16(%rax)
	movq	_TIG_iO_QGcn_1_main_1_opaque_list_1(%rip), %rax
	movq	16(%rax), %rax
	movq	%rax, _TIG_iO_QGcn_1_main_1_opaque_ptr_1(%rip)
	movq	_TIG_iO_QGcn_1_main_1_opaque_ptr_1(%rip), %rax
	movq	%rax, _TIG_iO_QGcn_1_main_1_opaque_ptr_2(%rip)
	nop
	nop
	movq	_TIG_iO_QGcn_1_status_1_opaque_ptr_1(%rip), %rdx
	movq	_TIG_iO_QGcn_1_status_1_opaque_ptr_2(%rip), %rax
	cmpq	%rax, %rdx
	jne	.L11
.L13:
	leaq	-1+.LC0(%rip), %rax
	movq	%rax, %rdi
	movl	$0, %eax
	call	printf@PLT
	leaq	-48(%rbp), %rax
	addq	$4, %rax
	leaq	1+.LC1(%rip), %rdx
	movq	%rax, %rsi
	movq	%rdx, %rdi
	movl	$0, %eax
	call	__isoc99_scanf@PLT
	movl	-48(%rbp), %eax
	cmpl	%eax, -36(%rbp)
	jle	.L13
	call	display
	jmp	.L13
.L11:
	leaq	.LC0(%rip), %rax
	movq	%rax, %rdi
	movl	$0, %eax
	call	printf@PLT
	leaq	-48(%rbp), %rax
	movq	%rax, %rsi
	leaq	.LC1(%rip), %rax
	movq	%rax, %rdi
	movl	$0, %eax
	call	__isoc99_scanf@PLT
	movl	-48(%rbp), %eax
	cmpl	$5, %eax
	ja	.L11
	movl	%eax, %eax
	leaq	0(,%rax,4), %rdx
	leaq	.L16(%rip), %rax
	movl	(%rdx,%rax), %eax
	cltq
	leaq	.L16(%rip), %rdx
	addq	%rdx, %rax
	notrack jmp	*%rax
	.section	.rodata
	.align 4
	.align 4
.L16:
	.long	.L11-.L16
	.long	.L20-.L16
	.long	.L19-.L16
	.long	.L18-.L16
	.long	.L17-.L16
	.long	.L15-.L16
	.text
.L20:
	leaq	.LC2(%rip), %rax
	movq	%rax, %rdi
	movl	$0, %eax
	call	printf@PLT
	leaq	ele(%rip), %rax
	movq	%rax, %rsi
	leaq	.LC1(%rip), %rax
	movq	%rax, %rdi
	movl	$0, %eax
	call	__isoc99_scanf@PLT
	movl	ele(%rip), %eax
	movl	%eax, %edi
	call	push
	jmp	.L14
.L19:
	call	pop
	movl	%eax, ele(%rip)
	movl	ele(%rip), %eax
	movl	%eax, %esi
	leaq	.LC3(%rip), %rax
	movq	%rax, %rdi
	movl	$0, %eax
	call	printf@PLT
	jmp	.L14
.L18:
	call	status
	jmp	.L14
.L17:
	call	display
	jmp	.L14
.L15:
	movl	$0, %edi
	call	exit@PLT
.L14:
	jmp	.L11
	.cfi_endproc
.LFE1:
	.size	main, .-main
	.section	.rodata
.LC4:
	.string	"Stack is full"
	.text
	.globl	push
	.type	push, @function
push:
.LFB4:
	.cfi_startproc
	endbr64
	pushq	%rbp
	.cfi_def_cfa_offset 16
	.cfi_offset 6, -16
	movq	%rsp, %rbp
	.cfi_def_cfa_register 6
	subq	$48, %rsp
	movl	%edi, -36(%rbp)
#APP
# 53 "/usr/include/x86_64-linux-gnu/bits/byteswap.h" 1
	##_ANNOTATION_INITIALREGION_-TIG-iO-QGcn-1-push--20
# 0 "" 2
# 57 "/usr/include/x86_64-linux-gnu/bits/byteswap.h" 1
	##_ANNOTATION_ATOMICREGION_-TIG-iO-QGcn-1-push--19
# 0 "" 2
#NO_APP
	movl	$24, %edi
	call	malloc@PLT
	movq	%rax, -24(%rbp)
	movq	-24(%rbp), %rax
	movq	-24(%rbp), %rdx
	movq	%rdx, 8(%rax)
	movq	-24(%rbp), %rax
	movq	-24(%rbp), %rdx
	movq	%rdx, 16(%rax)
	movq	-24(%rbp), %rax
	movq	%rax, _TIG_iO_QGcn_1_push_1_opaque_list_1(%rip)
	call	rand@PLT
	movl	%eax, -32(%rbp)
	movl	$24, %edi
	call	malloc@PLT
	movq	%rax, -16(%rbp)
	movq	-16(%rbp), %rax
	movl	$0, (%rax)
	movq	_TIG_iO_QGcn_1_push_1_opaque_list_1(%rip), %rax
	movq	8(%rax), %rdx
	movq	-16(%rbp), %rax
	movq	%rdx, 8(%rax)
	movq	_TIG_iO_QGcn_1_push_1_opaque_list_1(%rip), %rdx
	movq	-16(%rbp), %rax
	movq	%rdx, 16(%rax)
	movq	_TIG_iO_QGcn_1_push_1_opaque_list_1(%rip), %rax
	movq	8(%rax), %rax
	movq	-16(%rbp), %rdx
	movq	%rdx, 16(%rax)
	movq	_TIG_iO_QGcn_1_push_1_opaque_list_1(%rip), %rax
	movq	-16(%rbp), %rdx
	movq	%rdx, 8(%rax)
	call	rand@PLT
	movl	%eax, -28(%rbp)
	movl	$24, %edi
	call	malloc@PLT
	movq	%rax, -8(%rbp)
	movq	-8(%rbp), %rax
	movl	-28(%rbp), %edx
	movl	%edx, (%rax)
	movq	_TIG_iO_QGcn_1_push_1_opaque_list_1(%rip), %rax
	movq	8(%rax), %rdx
	movq	-8(%rbp), %rax
	movq	%rdx, 8(%rax)
	movq	_TIG_iO_QGcn_1_push_1_opaque_list_1(%rip), %rdx
	movq	-8(%rbp), %rax
	movq	%rdx, 16(%rax)
	movq	_TIG_iO_QGcn_1_push_1_opaque_list_1(%rip), %rax
	movq	8(%rax), %rax
	movq	-8(%rbp), %rdx
	movq	%rdx, 16(%rax)
	movq	_TIG_iO_QGcn_1_push_1_opaque_list_1(%rip), %rax
	movq	-8(%rbp), %rdx
	movq	%rdx, 8(%rax)
	movq	_TIG_iO_QGcn_1_push_1_opaque_list_1(%rip), %rax
	movq	8(%rax), %rax
	movq	%rax, _TIG_iO_QGcn_1_push_1_opaque_ptr_1(%rip)
	movq	_TIG_iO_QGcn_1_push_1_opaque_ptr_1(%rip), %rax
	movq	%rax, _TIG_iO_QGcn_1_push_1_opaque_ptr_2(%rip)
	nop
	nop
	movq	_TIG_iO_QGcn_1_status_1_opaque_ptr_1(%rip), %rdx
	movq	_TIG_iO_QGcn_1_status_1_opaque_ptr_2(%rip), %rax
	cmpq	%rax, %rdx
	je	.L26
	movl	top(%rip), %eax
	cmpl	$4, %eax
	jne	.L24
	leaq	.LC4(%rip), %rax
	movq	%rax, %rdi
	call	puts@PLT
	jmp	.L26
.L24:
	movl	top(%rip), %eax
	addl	$1, %eax
	movl	%eax, top(%rip)
	movl	top(%rip), %eax
	cltq
	leaq	0(,%rax,4), %rcx
	leaq	stack(%rip), %rdx
	movl	-36(%rbp), %eax
	movl	%eax, (%rcx,%rdx)
	nop
.L26:
	nop
	leave
	.cfi_def_cfa 7, 8
	ret
	.cfi_endproc
.LFE4:
	.size	push, .-push
	.section	.rodata
.LC5:
	.string	"Stack is empty"
	.text
	.globl	pop
	.type	pop, @function
pop:
.LFB6:
	.cfi_startproc
	endbr64
	pushq	%rbp
	.cfi_def_cfa_offset 16
	.cfi_offset 6, -16
	movq	%rsp, %rbp
	.cfi_def_cfa_register 6
	subq	$48, %rsp
#APP
# 62 "/usr/include/x86_64-linux-gnu/bits/uintn-identity.h" 1
	##_ANNOTATION_INITIALREGION_-TIG-iO-QGcn-1-pop--18
# 0 "" 2
# 66 "/usr/include/x86_64-linux-gnu/bits/uintn-identity.h" 1
	##_ANNOTATION_ATOMICREGION_-TIG-iO-QGcn-1-pop--17
# 0 "" 2
#NO_APP
	movl	$24, %edi
	call	malloc@PLT
	movq	%rax, -24(%rbp)
	movq	-24(%rbp), %rax
	movq	-24(%rbp), %rdx
	movq	%rdx, 8(%rax)
	movq	-24(%rbp), %rax
	movq	-24(%rbp), %rdx
	movq	%rdx, (%rax)
	movq	-24(%rbp), %rax
	movq	%rax, _TIG_iO_QGcn_1_pop_1_opaque_list_1(%rip)
	call	rand@PLT
	movl	%eax, -36(%rbp)
	movl	$24, %edi
	call	malloc@PLT
	movq	%rax, -16(%rbp)
	movq	-16(%rbp), %rax
	movl	$0, 16(%rax)
	movq	_TIG_iO_QGcn_1_pop_1_opaque_list_1(%rip), %rax
	movq	8(%rax), %rdx
	movq	-16(%rbp), %rax
	movq	%rdx, 8(%rax)
	movq	_TIG_iO_QGcn_1_pop_1_opaque_list_1(%rip), %rdx
	movq	-16(%rbp), %rax
	movq	%rdx, (%rax)
	movq	_TIG_iO_QGcn_1_pop_1_opaque_list_1(%rip), %rax
	movq	8(%rax), %rax
	movq	-16(%rbp), %rdx
	movq	%rdx, (%rax)
	movq	_TIG_iO_QGcn_1_pop_1_opaque_list_1(%rip), %rax
	movq	-16(%rbp), %rdx
	movq	%rdx, 8(%rax)
	call	rand@PLT
	movl	%eax, -32(%rbp)
	movl	$24, %edi
	call	malloc@PLT
	movq	%rax, -8(%rbp)
	movq	-8(%rbp), %rax
	movl	-32(%rbp), %edx
	movl	%edx, 16(%rax)
	movq	_TIG_iO_QGcn_1_pop_1_opaque_list_1(%rip), %rax
	movq	8(%rax), %rdx
	movq	-8(%rbp), %rax
	movq	%rdx, 8(%rax)
	movq	_TIG_iO_QGcn_1_pop_1_opaque_list_1(%rip), %rdx
	movq	-8(%rbp), %rax
	movq	%rdx, (%rax)
	movq	_TIG_iO_QGcn_1_pop_1_opaque_list_1(%rip), %rax
	movq	8(%rax), %rax
	movq	-8(%rbp), %rdx
	movq	%rdx, (%rax)
	movq	_TIG_iO_QGcn_1_pop_1_opaque_list_1(%rip), %rax
	movq	-8(%rbp), %rdx
	movq	%rdx, 8(%rax)
	movq	_TIG_iO_QGcn_1_pop_1_opaque_list_1(%rip), %rax
	movq	8(%rax), %rax
	movq	%rax, _TIG_iO_QGcn_1_pop_1_opaque_ptr_1(%rip)
	movq	_TIG_iO_QGcn_1_pop_1_opaque_ptr_1(%rip), %rax
	movq	%rax, _TIG_iO_QGcn_1_pop_1_opaque_ptr_2(%rip)
	movq	_TIG_iO_QGcn_1_pop_1_opaque_ptr_2(%rip), %rax
	movq	8(%rax), %rax
	movq	%rax, _TIG_iO_QGcn_1_pop_1_opaque_ptr_2(%rip)
	nop
	nop
	movl	top(%rip), %eax
	cmpl	$-1, %eax
	jne	.L28
	leaq	.LC5(%rip), %rax
	movq	%rax, %rdi
	call	puts@PLT
	movl	$0, %eax
	jmp	.L31
.L28:
	movq	_TIG_iO_QGcn_1_status_1_opaque_ptr_1(%rip), %rdx
	movq	_TIG_iO_QGcn_1_status_1_opaque_ptr_2(%rip), %rax
	cmpq	%rax, %rdx
	jne	.L30
	movl	-32(%rbp), %eax
	movl	%eax, %edi
	call	push
.L30:
	movl	top(%rip), %eax
	movl	%eax, -28(%rbp)
	movl	top(%rip), %eax
	subl	$1, %eax
	movl	%eax, top(%rip)
	movl	-28(%rbp), %eax
	cltq
	leaq	0(,%rax,4), %rdx
	leaq	stack(%rip), %rax
	movl	(%rdx,%rax), %eax
.L31:
	leave
	.cfi_def_cfa 7, 8
	ret
	.cfi_endproc
.LFE6:
	.size	pop, .-pop
	.section	.rodata
.LC6:
	.string	"Stack elements are:"
.LC7:
	.string	"%d\n"
	.text
	.globl	display
	.type	display, @function
display:
.LFB9:
	.cfi_startproc
	endbr64
	pushq	%rbp
	.cfi_def_cfa_offset 16
	.cfi_offset 6, -16
	movq	%rsp, %rbp
	.cfi_def_cfa_register 6
	subq	$64, %rsp
#APP
# 94 "/usr/include/x86_64-linux-gnu/bits/byteswap.h" 1
	##_ANNOTATION_INITIALREGION_-TIG-iO-QGcn-1-display--14
# 0 "" 2
# 98 "/usr/include/x86_64-linux-gnu/bits/byteswap.h" 1
	##_ANNOTATION_ATOMICREGION_-TIG-iO-QGcn-1-display--13
# 0 "" 2
#NO_APP
	movl	$24, %edi
	call	malloc@PLT
	movq	%rax, -40(%rbp)
	movq	-40(%rbp), %rax
	movq	-40(%rbp), %rdx
	movq	%rdx, (%rax)
	movq	-40(%rbp), %rax
	movq	-40(%rbp), %rdx
	movq	%rdx, 8(%rax)
	movq	-40(%rbp), %rax
	movq	%rax, _TIG_iO_QGcn_1_display_1_opaque_list_1(%rip)
	call	rand@PLT
	movl	%eax, -56(%rbp)
	movl	$24, %edi
	call	malloc@PLT
	movq	%rax, -32(%rbp)
	movq	-32(%rbp), %rax
	movl	$0, 16(%rax)
	movq	_TIG_iO_QGcn_1_display_1_opaque_list_1(%rip), %rax
	movq	(%rax), %rdx
	movq	-32(%rbp), %rax
	movq	%rdx, (%rax)
	movq	_TIG_iO_QGcn_1_display_1_opaque_list_1(%rip), %rdx
	movq	-32(%rbp), %rax
	movq	%rdx, 8(%rax)
	movq	_TIG_iO_QGcn_1_display_1_opaque_list_1(%rip), %rax
	movq	(%rax), %rax
	movq	-32(%rbp), %rdx
	movq	%rdx, 8(%rax)
	movq	_TIG_iO_QGcn_1_display_1_opaque_list_1(%rip), %rax
	movq	-32(%rbp), %rdx
	movq	%rdx, (%rax)
	call	rand@PLT
	movl	%eax, -52(%rbp)
	movl	$24, %edi
	call	malloc@PLT
	movq	%rax, -24(%rbp)
	movq	-24(%rbp), %rax
	movl	-52(%rbp), %edx
	movl	%edx, 16(%rax)
	movq	_TIG_iO_QGcn_1_display_1_opaque_list_1(%rip), %rax
	movq	(%rax), %rdx
	movq	-24(%rbp), %rax
	movq	%rdx, (%rax)
	movq	_TIG_iO_QGcn_1_display_1_opaque_list_1(%rip), %rdx
	movq	-24(%rbp), %rax
	movq	%rdx, 8(%rax)
	movq	_TIG_iO_QGcn_1_display_1_opaque_list_1(%rip), %rax
	movq	(%rax), %rax
	movq	-24(%rbp), %rdx
	movq	%rdx, 8(%rax)
	movq	_TIG_iO_QGcn_1_display_1_opaque_list_1(%rip), %rax
	movq	-24(%rbp), %rdx
	movq	%rdx, (%rax)
	call	rand@PLT
	movl	%eax, -48(%rbp)
	movl	$24, %edi
	call	malloc@PLT
	movq	%rax, -16(%rbp)
	movl	-48(%rbp), %eax
	leal	(%rax,%rax), %edx
	movq	-16(%rbp), %rax
	movl	%edx, 16(%rax)
	movq	_TIG_iO_QGcn_1_display_1_opaque_list_1(%rip), %rax
	movq	(%rax), %rdx
	movq	-16(%rbp), %rax
	movq	%rdx, (%rax)
	movq	_TIG_iO_QGcn_1_display_1_opaque_list_1(%rip), %rdx
	movq	-16(%rbp), %rax
	movq	%rdx, 8(%rax)
	movq	_TIG_iO_QGcn_1_display_1_opaque_list_1(%rip), %rax
	movq	(%rax), %rax
	movq	-16(%rbp), %rdx
	movq	%rdx, 8(%rax)
	movq	_TIG_iO_QGcn_1_display_1_opaque_list_1(%rip), %rax
	movq	-16(%rbp), %rdx
	movq	%rdx, (%rax)
	call	rand@PLT
	movl	%eax, -44(%rbp)
	movl	$24, %edi
	call	malloc@PLT
	movq	%rax, -8(%rbp)
	movl	-44(%rbp), %edx
	movl	%edx, %eax
	addl	%eax, %eax
	addl	%eax, %edx
	movq	-8(%rbp), %rax
	movl	%edx, 16(%rax)
	movq	_TIG_iO_QGcn_1_display_1_opaque_list_1(%rip), %rax
	movq	(%rax), %rdx
	movq	-8(%rbp), %rax
	movq	%rdx, (%rax)
	movq	_TIG_iO_QGcn_1_display_1_opaque_list_1(%rip), %rdx
	movq	-8(%rbp), %rax
	movq	%rdx, 8(%rax)
	movq	_TIG_iO_QGcn_1_display_1_opaque_list_1(%rip), %rax
	movq	(%rax), %rax
	movq	-8(%rbp), %rdx
	movq	%rdx, 8(%rax)
	movq	_TIG_iO_QGcn_1_display_1_opaque_list_1(%rip), %rax
	movq	-8(%rbp), %rdx
	movq	%rdx, (%rax)
	movq	_TIG_iO_QGcn_1_display_1_opaque_list_1(%rip), %rax
	movq	(%rax), %rax
	movq	%rax, _TIG_iO_QGcn_1_display_1_opaque_ptr_1(%rip)
	movq	_TIG_iO_QGcn_1_display_1_opaque_ptr_1(%rip), %rax
	movq	%rax, _TIG_iO_QGcn_1_display_1_opaque_ptr_2(%rip)
	movq	_TIG_iO_QGcn_1_display_1_opaque_ptr_2(%rip), %rax
	movq	(%rax), %rax
	movq	%rax, _TIG_iO_QGcn_1_display_1_opaque_ptr_2(%rip)
	nop
	nop
	leaq	.LC6(%rip), %rax
	movq	%rax, %rdi
	call	puts@PLT
	movl	top(%rip), %eax
	movl	%eax, -60(%rbp)
	movq	_TIG_iO_QGcn_1_status_1_opaque_ptr_1(%rip), %rdx
	movq	_TIG_iO_QGcn_1_status_1_opaque_ptr_2(%rip), %rax
	cmpq	%rax, %rdx
	je	.L37
	jmp	.L34
.L35:
	movl	-60(%rbp), %eax
	cltq
	leaq	0(,%rax,4), %rdx
	leaq	stack(%rip), %rax
	movl	(%rdx,%rax), %eax
	movl	%eax, %esi
	leaq	.LC7(%rip), %rax
	movq	%rax, %rdi
	movl	$0, %eax
	call	printf@PLT
	subl	$1, -60(%rbp)
.L34:
	cmpl	$0, -60(%rbp)
	jns	.L35
	nop
.L37:
	nop
	leave
	.cfi_def_cfa 7, 8
	ret
	.cfi_endproc
.LFE9:
	.size	display, .-display
	.globl	status
	.type	status, @function
status:
.LFB10:
	.cfi_startproc
	endbr64
	pushq	%rbp
	.cfi_def_cfa_offset 16
	.cfi_offset 6, -16
	movq	%rsp, %rbp
	.cfi_def_cfa_register 6
	subq	$48, %rsp
#APP
# 103 "halakundi_DSA-Program_3.c" 1
	##_ANNOTATION_INITIALREGION_-TIG-iO-QGcn-1-status--22
# 0 "" 2
# 107 "halakundi_DSA-Program_3.c" 1
	##_ANNOTATION_ATOMICREGION_-TIG-iO-QGcn-1-status--21
# 0 "" 2
#NO_APP
	movl	$24, %edi
	call	malloc@PLT
	movq	%rax, -32(%rbp)
	movq	-32(%rbp), %rax
	movq	-32(%rbp), %rdx
	movq	%rdx, (%rax)
	movq	-32(%rbp), %rax
	movq	-32(%rbp), %rdx
	movq	%rdx, 16(%rax)
	movq	-32(%rbp), %rax
	movq	%rax, _TIG_iO_QGcn_1_status_1_opaque_list_1(%rip)
	call	rand@PLT
	movl	%eax, -44(%rbp)
	movl	$24, %edi
	call	malloc@PLT
	movq	%rax, -24(%rbp)
	movq	-24(%rbp), %rax
	movl	$0, 8(%rax)
	movq	_TIG_iO_QGcn_1_status_1_opaque_list_1(%rip), %rax
	movq	(%rax), %rdx
	movq	-24(%rbp), %rax
	movq	%rdx, (%rax)
	movq	_TIG_iO_QGcn_1_status_1_opaque_list_1(%rip), %rdx
	movq	-24(%rbp), %rax
	movq	%rdx, 16(%rax)
	movq	_TIG_iO_QGcn_1_status_1_opaque_list_1(%rip), %rax
	movq	(%rax), %rax
	movq	-24(%rbp), %rdx
	movq	%rdx, 16(%rax)
	movq	_TIG_iO_QGcn_1_status_1_opaque_list_1(%rip), %rax
	movq	-24(%rbp), %rdx
	movq	%rdx, (%rax)
	call	rand@PLT
	movl	%eax, -40(%rbp)
	movl	$24, %edi
	call	malloc@PLT
	movq	%rax, -16(%rbp)
	movq	-16(%rbp), %rax
	movl	-40(%rbp), %edx
	movl	%edx, 8(%rax)
	movq	_TIG_iO_QGcn_1_status_1_opaque_list_1(%rip), %rax
	movq	(%rax), %rdx
	movq	-16(%rbp), %rax
	movq	%rdx, (%rax)
	movq	_TIG_iO_QGcn_1_status_1_opaque_list_1(%rip), %rdx
	movq	-16(%rbp), %rax
	movq	%rdx, 16(%rax)
	movq	_TIG_iO_QGcn_1_status_1_opaque_list_1(%rip), %rax
	movq	(%rax), %rax
	movq	-16(%rbp), %rdx
	movq	%rdx, 16(%rax)
	movq	_TIG_iO_QGcn_1_status_1_opaque_list_1(%rip), %rax
	movq	-16(%rbp), %rdx
	movq	%rdx, (%rax)
	call	rand@PLT
	movl	%eax, -36(%rbp)
	movl	$24, %edi
	call	malloc@PLT
	movq	%rax, -8(%rbp)
	movl	-36(%rbp), %eax
	leal	(%rax,%rax), %edx
	movq	-8(%rbp), %rax
	movl	%edx, 8(%rax)
	movq	_TIG_iO_QGcn_1_status_1_opaque_list_1(%rip), %rax
	movq	(%rax), %rdx
	movq	-8(%rbp), %rax
	movq	%rdx, (%rax)
	movq	_TIG_iO_QGcn_1_status_1_opaque_list_1(%rip), %rdx
	movq	-8(%rbp), %rax
	movq	%rdx, 16(%rax)
	movq	_TIG_iO_QGcn_1_status_1_opaque_list_1(%rip), %rax
	movq	(%rax), %rax
	movq	-8(%rbp), %rdx
	movq	%rdx, 16(%rax)
	movq	_TIG_iO_QGcn_1_status_1_opaque_list_1(%rip), %rax
	movq	-8(%rbp), %rdx
	movq	%rdx, (%rax)
	movq	_TIG_iO_QGcn_1_status_1_opaque_list_1(%rip), %rax
	movq	(%rax), %rax
	movq	%rax, _TIG_iO_QGcn_1_status_1_opaque_ptr_1(%rip)
	movq	_TIG_iO_QGcn_1_status_1_opaque_ptr_1(%rip), %rax
	movq	%rax, _TIG_iO_QGcn_1_status_1_opaque_ptr_2(%rip)
	movq	_TIG_iO_QGcn_1_status_1_opaque_ptr_2(%rip), %rax
	movq	(%rax), %rax
	movq	%rax, _TIG_iO_QGcn_1_status_1_opaque_ptr_2(%rip)
	nop
	nop
	movl	top(%rip), %eax
	cmpl	$-1, %eax
	jne	.L39
	leaq	.LC5(%rip), %rax
	movq	%rax, %rdi
	call	puts@PLT
	jmp	.L38
.L39:
	movl	top(%rip), %eax
	cmpl	$4, %eax
	jne	.L41
	leaq	.LC4(%rip), %rax
	movq	%rax, %rdi
	call	puts@PLT
	jmp	.L38
.L41:
	movq	_TIG_iO_QGcn_1_status_1_opaque_ptr_1(%rip), %rdx
	movq	_TIG_iO_QGcn_1_status_1_opaque_ptr_2(%rip), %rax
	cmpq	%rax, %rdx
	jne	.L42
	call	status
.L42:
	call	display
	nop
.L38:
	leave
	.cfi_def_cfa 7, 8
	ret
	.cfi_endproc
.LFE10:
	.size	status, .-status
	.ident	"GCC: (Ubuntu 11.4.0-1ubuntu1~22.04) 11.4.0"
	.section	.note.GNU-stack,"",@progbits
	.section	.note.gnu.property,"a"
	.align 8
	.long	1f - 0f
	.long	4f - 1f
	.long	5
0:
	.string	"GNU"
1:
	.align 8
	.long	0xc0000002
	.long	3f - 2f
2:
	.long	0x3
3:
	.align 8
4:
