	.file	"JO2boy_syspro_main_opaque.c"
	.text
	.globl	_TIG_iO_NETu_1_print_user_ids_1_opaque_ptr_2
	.bss
	.align 8
	.type	_TIG_iO_NETu_1_print_user_ids_1_opaque_ptr_2, @object
	.size	_TIG_iO_NETu_1_print_user_ids_1_opaque_ptr_2, 8
_TIG_iO_NETu_1_print_user_ids_1_opaque_ptr_2:
	.zero	8
	.globl	_TIG_iO_NETu_1___bswap_16_1_opaque_list_2
	.align 8
	.type	_TIG_iO_NETu_1___bswap_16_1_opaque_list_2, @object
	.size	_TIG_iO_NETu_1___bswap_16_1_opaque_list_2, 8
_TIG_iO_NETu_1___bswap_16_1_opaque_list_2:
	.zero	8
	.globl	_TIG_iO_NETu_1_print_user_ids_1_opaque_ptr_1
	.align 8
	.type	_TIG_iO_NETu_1_print_user_ids_1_opaque_ptr_1, @object
	.size	_TIG_iO_NETu_1_print_user_ids_1_opaque_ptr_1, 8
_TIG_iO_NETu_1_print_user_ids_1_opaque_ptr_1:
	.zero	8
	.globl	_TIG_iO_NETu_1_print_user_ids_1_opaque_list_2
	.align 8
	.type	_TIG_iO_NETu_1_print_user_ids_1_opaque_list_2, @object
	.size	_TIG_iO_NETu_1_print_user_ids_1_opaque_list_2, 8
_TIG_iO_NETu_1_print_user_ids_1_opaque_list_2:
	.zero	8
	.globl	_TIG_iO_NETu_1_main_1_opaque_ptr_1
	.align 8
	.type	_TIG_iO_NETu_1_main_1_opaque_ptr_1, @object
	.size	_TIG_iO_NETu_1_main_1_opaque_ptr_1, 8
_TIG_iO_NETu_1_main_1_opaque_ptr_1:
	.zero	8
	.globl	_TIG_iO_NETu_1___bswap_64_1_opaque_list_1
	.align 8
	.type	_TIG_iO_NETu_1___bswap_64_1_opaque_list_1, @object
	.size	_TIG_iO_NETu_1___bswap_64_1_opaque_list_1, 8
_TIG_iO_NETu_1___bswap_64_1_opaque_list_1:
	.zero	8
	.globl	_TIG_iO_NETu_1_print_process_id_1_opaque_list_2
	.align 8
	.type	_TIG_iO_NETu_1_print_process_id_1_opaque_list_2, @object
	.size	_TIG_iO_NETu_1_print_process_id_1_opaque_list_2, 8
_TIG_iO_NETu_1_print_process_id_1_opaque_list_2:
	.zero	8
	.globl	_TIG_IZ_NETu_argv
	.align 8
	.type	_TIG_IZ_NETu_argv, @object
	.size	_TIG_IZ_NETu_argv, 8
_TIG_IZ_NETu_argv:
	.zero	8
	.globl	_TIG_IZ_NETu_envp
	.align 8
	.type	_TIG_IZ_NETu_envp, @object
	.size	_TIG_IZ_NETu_envp, 8
_TIG_IZ_NETu_envp:
	.zero	8
	.globl	_TIG_iO_NETu_1___uint16_identity_1_opaque_list_2
	.align 8
	.type	_TIG_iO_NETu_1___uint16_identity_1_opaque_list_2, @object
	.size	_TIG_iO_NETu_1___uint16_identity_1_opaque_list_2, 8
_TIG_iO_NETu_1___uint16_identity_1_opaque_list_2:
	.zero	8
	.globl	_TIG_iO_NETu_1___uint32_identity_1_opaque_ptr_2
	.align 8
	.type	_TIG_iO_NETu_1___uint32_identity_1_opaque_ptr_2, @object
	.size	_TIG_iO_NETu_1___uint32_identity_1_opaque_ptr_2, 8
_TIG_iO_NETu_1___uint32_identity_1_opaque_ptr_2:
	.zero	8
	.globl	_TIG_iO_NETu_1_print_all_environment_variables_1_opaque_list_2
	.align 8
	.type	_TIG_iO_NETu_1_print_all_environment_variables_1_opaque_list_2, @object
	.size	_TIG_iO_NETu_1_print_all_environment_variables_1_opaque_list_2, 8
_TIG_iO_NETu_1_print_all_environment_variables_1_opaque_list_2:
	.zero	8
	.globl	_TIG_iO_NETu_1_print_process_id_1_opaque_ptr_1
	.align 8
	.type	_TIG_iO_NETu_1_print_process_id_1_opaque_ptr_1, @object
	.size	_TIG_iO_NETu_1_print_process_id_1_opaque_ptr_1, 8
_TIG_iO_NETu_1_print_process_id_1_opaque_ptr_1:
	.zero	8
	.globl	_TIG_iO_NETu_1_print_group_ids_1_opaque_ptr_1
	.align 8
	.type	_TIG_iO_NETu_1_print_group_ids_1_opaque_ptr_1, @object
	.size	_TIG_iO_NETu_1_print_group_ids_1_opaque_ptr_1, 8
_TIG_iO_NETu_1_print_group_ids_1_opaque_ptr_1:
	.zero	8
	.globl	_TIG_iO_NETu_1_print_group_ids_1_opaque_ptr_2
	.align 8
	.type	_TIG_iO_NETu_1_print_group_ids_1_opaque_ptr_2, @object
	.size	_TIG_iO_NETu_1_print_group_ids_1_opaque_ptr_2, 8
_TIG_iO_NETu_1_print_group_ids_1_opaque_ptr_2:
	.zero	8
	.globl	_TIG_iO_NETu_1___bswap_32_1_opaque_ptr_1
	.align 8
	.type	_TIG_iO_NETu_1___bswap_32_1_opaque_ptr_1, @object
	.size	_TIG_iO_NETu_1___bswap_32_1_opaque_ptr_1, 8
_TIG_iO_NETu_1___bswap_32_1_opaque_ptr_1:
	.zero	8
	.globl	_TIG_iO_NETu_1_print_parent_process_id_1_opaque_list_1
	.align 8
	.type	_TIG_iO_NETu_1_print_parent_process_id_1_opaque_list_1, @object
	.size	_TIG_iO_NETu_1_print_parent_process_id_1_opaque_list_1, 8
_TIG_iO_NETu_1_print_parent_process_id_1_opaque_list_1:
	.zero	8
	.globl	_TIG_iO_NETu_1_print_environment_variable_1_opaque_list_2
	.align 8
	.type	_TIG_iO_NETu_1_print_environment_variable_1_opaque_list_2, @object
	.size	_TIG_iO_NETu_1_print_environment_variable_1_opaque_list_2, 8
_TIG_iO_NETu_1_print_environment_variable_1_opaque_list_2:
	.zero	8
	.globl	_TIG_iO_NETu_1___uint32_identity_1_opaque_list_1
	.align 8
	.type	_TIG_iO_NETu_1___uint32_identity_1_opaque_list_1, @object
	.size	_TIG_iO_NETu_1___uint32_identity_1_opaque_list_1, 8
_TIG_iO_NETu_1___uint32_identity_1_opaque_list_1:
	.zero	8
	.globl	_TIG_iO_NETu_1_print_all_environment_variables_1_opaque_list_1
	.align 8
	.type	_TIG_iO_NETu_1_print_all_environment_variables_1_opaque_list_1, @object
	.size	_TIG_iO_NETu_1_print_all_environment_variables_1_opaque_list_1, 8
_TIG_iO_NETu_1_print_all_environment_variables_1_opaque_list_1:
	.zero	8
	.globl	_TIG_iO_NETu_1___uint64_identity_1_opaque_list_2
	.align 8
	.type	_TIG_iO_NETu_1___uint64_identity_1_opaque_list_2, @object
	.size	_TIG_iO_NETu_1___uint64_identity_1_opaque_list_2, 8
_TIG_iO_NETu_1___uint64_identity_1_opaque_list_2:
	.zero	8
	.globl	_TIG_iO_NETu_1___uint32_identity_1_opaque_ptr_1
	.align 8
	.type	_TIG_iO_NETu_1___uint32_identity_1_opaque_ptr_1, @object
	.size	_TIG_iO_NETu_1___uint32_identity_1_opaque_ptr_1, 8
_TIG_iO_NETu_1___uint32_identity_1_opaque_ptr_1:
	.zero	8
	.globl	_TIG_iO_NETu_1___uint32_identity_1_opaque_list_2
	.align 8
	.type	_TIG_iO_NETu_1___uint32_identity_1_opaque_list_2, @object
	.size	_TIG_iO_NETu_1___uint32_identity_1_opaque_list_2, 8
_TIG_iO_NETu_1___uint32_identity_1_opaque_list_2:
	.zero	8
	.globl	_TIG_iO_NETu_1___bswap_16_1_opaque_ptr_1
	.align 8
	.type	_TIG_iO_NETu_1___bswap_16_1_opaque_ptr_1, @object
	.size	_TIG_iO_NETu_1___bswap_16_1_opaque_ptr_1, 8
_TIG_iO_NETu_1___bswap_16_1_opaque_ptr_1:
	.zero	8
	.globl	_TIG_iO_NETu_1___bswap_64_1_opaque_list_2
	.align 8
	.type	_TIG_iO_NETu_1___bswap_64_1_opaque_list_2, @object
	.size	_TIG_iO_NETu_1___bswap_64_1_opaque_list_2, 8
_TIG_iO_NETu_1___bswap_64_1_opaque_list_2:
	.zero	8
	.globl	_TIG_iO_NETu_1_print_user_ids_1_opaque_list_1
	.align 8
	.type	_TIG_iO_NETu_1_print_user_ids_1_opaque_list_1, @object
	.size	_TIG_iO_NETu_1_print_user_ids_1_opaque_list_1, 8
_TIG_iO_NETu_1_print_user_ids_1_opaque_list_1:
	.zero	8
	.globl	_TIG_iO_NETu_1___uint16_identity_1_opaque_list_1
	.align 8
	.type	_TIG_iO_NETu_1___uint16_identity_1_opaque_list_1, @object
	.size	_TIG_iO_NETu_1___uint16_identity_1_opaque_list_1, 8
_TIG_iO_NETu_1___uint16_identity_1_opaque_list_1:
	.zero	8
	.globl	_TIG_iO_NETu_1___uint16_identity_1_opaque_ptr_2
	.align 8
	.type	_TIG_iO_NETu_1___uint16_identity_1_opaque_ptr_2, @object
	.size	_TIG_iO_NETu_1___uint16_identity_1_opaque_ptr_2, 8
_TIG_iO_NETu_1___uint16_identity_1_opaque_ptr_2:
	.zero	8
	.globl	_TIG_iO_NETu_1_print_all_environment_variables_1_opaque_ptr_1
	.align 8
	.type	_TIG_iO_NETu_1_print_all_environment_variables_1_opaque_ptr_1, @object
	.size	_TIG_iO_NETu_1_print_all_environment_variables_1_opaque_ptr_1, 8
_TIG_iO_NETu_1_print_all_environment_variables_1_opaque_ptr_1:
	.zero	8
	.globl	_TIG_iO_NETu_1___bswap_64_1_opaque_ptr_2
	.align 8
	.type	_TIG_iO_NETu_1___bswap_64_1_opaque_ptr_2, @object
	.size	_TIG_iO_NETu_1___bswap_64_1_opaque_ptr_2, 8
_TIG_iO_NETu_1___bswap_64_1_opaque_ptr_2:
	.zero	8
	.globl	_TIG_IZ_NETu_argc
	.align 4
	.type	_TIG_IZ_NETu_argc, @object
	.size	_TIG_IZ_NETu_argc, 4
_TIG_IZ_NETu_argc:
	.zero	4
	.globl	_TIG_iO_NETu_1___bswap_32_1_opaque_list_1
	.align 8
	.type	_TIG_iO_NETu_1___bswap_32_1_opaque_list_1, @object
	.size	_TIG_iO_NETu_1___bswap_32_1_opaque_list_1, 8
_TIG_iO_NETu_1___bswap_32_1_opaque_list_1:
	.zero	8
	.globl	_TIG_iO_NETu_1___bswap_32_1_opaque_list_2
	.align 8
	.type	_TIG_iO_NETu_1___bswap_32_1_opaque_list_2, @object
	.size	_TIG_iO_NETu_1___bswap_32_1_opaque_list_2, 8
_TIG_iO_NETu_1___bswap_32_1_opaque_list_2:
	.zero	8
	.globl	_TIG_iO_NETu_1___uint64_identity_1_opaque_ptr_1
	.align 8
	.type	_TIG_iO_NETu_1___uint64_identity_1_opaque_ptr_1, @object
	.size	_TIG_iO_NETu_1___uint64_identity_1_opaque_ptr_1, 8
_TIG_iO_NETu_1___uint64_identity_1_opaque_ptr_1:
	.zero	8
	.globl	_TIG_iO_NETu_1___bswap_16_1_opaque_list_1
	.align 8
	.type	_TIG_iO_NETu_1___bswap_16_1_opaque_list_1, @object
	.size	_TIG_iO_NETu_1___bswap_16_1_opaque_list_1, 8
_TIG_iO_NETu_1___bswap_16_1_opaque_list_1:
	.zero	8
	.globl	_TIG_iO_NETu_1_main_1_opaque_ptr_2
	.align 8
	.type	_TIG_iO_NETu_1_main_1_opaque_ptr_2, @object
	.size	_TIG_iO_NETu_1_main_1_opaque_ptr_2, 8
_TIG_iO_NETu_1_main_1_opaque_ptr_2:
	.zero	8
	.globl	_TIG_iO_NETu_1___bswap_64_1_opaque_ptr_1
	.align 8
	.type	_TIG_iO_NETu_1___bswap_64_1_opaque_ptr_1, @object
	.size	_TIG_iO_NETu_1___bswap_64_1_opaque_ptr_1, 8
_TIG_iO_NETu_1___bswap_64_1_opaque_ptr_1:
	.zero	8
	.globl	_TIG_iO_NETu_1_print_parent_process_id_1_opaque_ptr_1
	.align 8
	.type	_TIG_iO_NETu_1_print_parent_process_id_1_opaque_ptr_1, @object
	.size	_TIG_iO_NETu_1_print_parent_process_id_1_opaque_ptr_1, 8
_TIG_iO_NETu_1_print_parent_process_id_1_opaque_ptr_1:
	.zero	8
	.globl	_TIG_iO_NETu_1_main_1_opaque_list_1
	.align 8
	.type	_TIG_iO_NETu_1_main_1_opaque_list_1, @object
	.size	_TIG_iO_NETu_1_main_1_opaque_list_1, 8
_TIG_iO_NETu_1_main_1_opaque_list_1:
	.zero	8
	.globl	_TIG_iO_NETu_1_print_group_ids_1_opaque_list_2
	.align 8
	.type	_TIG_iO_NETu_1_print_group_ids_1_opaque_list_2, @object
	.size	_TIG_iO_NETu_1_print_group_ids_1_opaque_list_2, 8
_TIG_iO_NETu_1_print_group_ids_1_opaque_list_2:
	.zero	8
	.globl	_TIG_iO_NETu_1_print_environment_variable_1_opaque_list_1
	.align 8
	.type	_TIG_iO_NETu_1_print_environment_variable_1_opaque_list_1, @object
	.size	_TIG_iO_NETu_1_print_environment_variable_1_opaque_list_1, 8
_TIG_iO_NETu_1_print_environment_variable_1_opaque_list_1:
	.zero	8
	.globl	_TIG_iO_NETu_1_print_process_id_1_opaque_list_1
	.align 8
	.type	_TIG_iO_NETu_1_print_process_id_1_opaque_list_1, @object
	.size	_TIG_iO_NETu_1_print_process_id_1_opaque_list_1, 8
_TIG_iO_NETu_1_print_process_id_1_opaque_list_1:
	.zero	8
	.globl	_TIG_iO_NETu_1___uint16_identity_1_opaque_ptr_1
	.align 8
	.type	_TIG_iO_NETu_1___uint16_identity_1_opaque_ptr_1, @object
	.size	_TIG_iO_NETu_1___uint16_identity_1_opaque_ptr_1, 8
_TIG_iO_NETu_1___uint16_identity_1_opaque_ptr_1:
	.zero	8
	.globl	_TIG_iO_NETu_1_print_parent_process_id_1_opaque_ptr_2
	.align 8
	.type	_TIG_iO_NETu_1_print_parent_process_id_1_opaque_ptr_2, @object
	.size	_TIG_iO_NETu_1_print_parent_process_id_1_opaque_ptr_2, 8
_TIG_iO_NETu_1_print_parent_process_id_1_opaque_ptr_2:
	.zero	8
	.globl	_TIG_iO_NETu_1___bswap_32_1_opaque_ptr_2
	.align 8
	.type	_TIG_iO_NETu_1___bswap_32_1_opaque_ptr_2, @object
	.size	_TIG_iO_NETu_1___bswap_32_1_opaque_ptr_2, 8
_TIG_iO_NETu_1___bswap_32_1_opaque_ptr_2:
	.zero	8
	.globl	_TIG_iO_NETu_1_main_1_opaque_list_2
	.align 8
	.type	_TIG_iO_NETu_1_main_1_opaque_list_2, @object
	.size	_TIG_iO_NETu_1_main_1_opaque_list_2, 8
_TIG_iO_NETu_1_main_1_opaque_list_2:
	.zero	8
	.globl	_TIG_iO_NETu_1___uint64_identity_1_opaque_ptr_2
	.align 8
	.type	_TIG_iO_NETu_1___uint64_identity_1_opaque_ptr_2, @object
	.size	_TIG_iO_NETu_1___uint64_identity_1_opaque_ptr_2, 8
_TIG_iO_NETu_1___uint64_identity_1_opaque_ptr_2:
	.zero	8
	.globl	_TIG_iO_NETu_1_print_all_environment_variables_1_opaque_ptr_2
	.align 8
	.type	_TIG_iO_NETu_1_print_all_environment_variables_1_opaque_ptr_2, @object
	.size	_TIG_iO_NETu_1_print_all_environment_variables_1_opaque_ptr_2, 8
_TIG_iO_NETu_1_print_all_environment_variables_1_opaque_ptr_2:
	.zero	8
	.globl	_TIG_iO_NETu_1_print_environment_variable_1_opaque_ptr_2
	.align 8
	.type	_TIG_iO_NETu_1_print_environment_variable_1_opaque_ptr_2, @object
	.size	_TIG_iO_NETu_1_print_environment_variable_1_opaque_ptr_2, 8
_TIG_iO_NETu_1_print_environment_variable_1_opaque_ptr_2:
	.zero	8
	.globl	_TIG_iO_NETu_1___uint64_identity_1_opaque_list_1
	.align 8
	.type	_TIG_iO_NETu_1___uint64_identity_1_opaque_list_1, @object
	.size	_TIG_iO_NETu_1___uint64_identity_1_opaque_list_1, 8
_TIG_iO_NETu_1___uint64_identity_1_opaque_list_1:
	.zero	8
	.globl	_TIG_iO_NETu_1___bswap_16_1_opaque_ptr_2
	.align 8
	.type	_TIG_iO_NETu_1___bswap_16_1_opaque_ptr_2, @object
	.size	_TIG_iO_NETu_1___bswap_16_1_opaque_ptr_2, 8
_TIG_iO_NETu_1___bswap_16_1_opaque_ptr_2:
	.zero	8
	.globl	_TIG_iO_NETu_1_print_process_id_1_opaque_ptr_2
	.align 8
	.type	_TIG_iO_NETu_1_print_process_id_1_opaque_ptr_2, @object
	.size	_TIG_iO_NETu_1_print_process_id_1_opaque_ptr_2, 8
_TIG_iO_NETu_1_print_process_id_1_opaque_ptr_2:
	.zero	8
	.globl	_TIG_iO_NETu_1_print_parent_process_id_1_opaque_list_2
	.align 8
	.type	_TIG_iO_NETu_1_print_parent_process_id_1_opaque_list_2, @object
	.size	_TIG_iO_NETu_1_print_parent_process_id_1_opaque_list_2, 8
_TIG_iO_NETu_1_print_parent_process_id_1_opaque_list_2:
	.zero	8
	.globl	_TIG_iO_NETu_1_print_environment_variable_1_opaque_ptr_1
	.align 8
	.type	_TIG_iO_NETu_1_print_environment_variable_1_opaque_ptr_1, @object
	.size	_TIG_iO_NETu_1_print_environment_variable_1_opaque_ptr_1, 8
_TIG_iO_NETu_1_print_environment_variable_1_opaque_ptr_1:
	.zero	8
	.globl	_TIG_iO_NETu_1_print_group_ids_1_opaque_list_1
	.align 8
	.type	_TIG_iO_NETu_1_print_group_ids_1_opaque_list_1, @object
	.size	_TIG_iO_NETu_1_print_group_ids_1_opaque_list_1, 8
_TIG_iO_NETu_1_print_group_ids_1_opaque_list_1:
	.zero	8
	.section	.rodata
	.align 8
.LC0:
	.string	"my realistic group id : %d\nmy valid group id : %d\n"
	.text
	.globl	print_group_ids
	.type	print_group_ids, @function
print_group_ids:
.LFB1:
	.cfi_startproc
	endbr64
	pushq	%rbp
	.cfi_def_cfa_offset 16
	.cfi_offset 6, -16
	movq	%rsp, %rbp
	.cfi_def_cfa_register 6
	subq	$48, %rsp
#APP
# 68 "/usr/include/x86_64-linux-gnu/bits/uintn-identity.h" 1
	##_ANNOTATION_INITIALREGION_-TIG-iO-NETu-1-print-group-ids--20
# 0 "" 2
# 72 "/usr/include/x86_64-linux-gnu/bits/uintn-identity.h" 1
	##_ANNOTATION_ATOMICREGION_-TIG-iO-NETu-1-print-group-ids--19
# 0 "" 2
#NO_APP
	movl	$24, %edi
	call	malloc@PLT
	movq	%rax, -24(%rbp)
	movq	-24(%rbp), %rax
	movq	-24(%rbp), %rdx
	movq	%rdx, 8(%rax)
	movq	-24(%rbp), %rax
	movq	-24(%rbp), %rdx
	movq	%rdx, 16(%rax)
	movq	-24(%rbp), %rax
	movq	%rax, _TIG_iO_NETu_1_print_group_ids_1_opaque_list_1(%rip)
	call	rand@PLT
	movl	%eax, -48(%rbp)
	movl	$24, %edi
	call	malloc@PLT
	movq	%rax, -16(%rbp)
	movq	-16(%rbp), %rax
	movl	$0, (%rax)
	movq	_TIG_iO_NETu_1_print_group_ids_1_opaque_list_1(%rip), %rax
	movq	8(%rax), %rdx
	movq	-16(%rbp), %rax
	movq	%rdx, 8(%rax)
	movq	_TIG_iO_NETu_1_print_group_ids_1_opaque_list_1(%rip), %rdx
	movq	-16(%rbp), %rax
	movq	%rdx, 16(%rax)
	movq	_TIG_iO_NETu_1_print_group_ids_1_opaque_list_1(%rip), %rax
	movq	8(%rax), %rax
	movq	-16(%rbp), %rdx
	movq	%rdx, 16(%rax)
	movq	_TIG_iO_NETu_1_print_group_ids_1_opaque_list_1(%rip), %rax
	movq	-16(%rbp), %rdx
	movq	%rdx, 8(%rax)
	call	rand@PLT
	movl	%eax, -44(%rbp)
	movl	$24, %edi
	call	malloc@PLT
	movq	%rax, -8(%rbp)
	movq	-8(%rbp), %rax
	movl	-44(%rbp), %edx
	movl	%edx, (%rax)
	movq	_TIG_iO_NETu_1_print_group_ids_1_opaque_list_1(%rip), %rax
	movq	8(%rax), %rdx
	movq	-8(%rbp), %rax
	movq	%rdx, 8(%rax)
	movq	_TIG_iO_NETu_1_print_group_ids_1_opaque_list_1(%rip), %rdx
	movq	-8(%rbp), %rax
	movq	%rdx, 16(%rax)
	movq	_TIG_iO_NETu_1_print_group_ids_1_opaque_list_1(%rip), %rax
	movq	8(%rax), %rax
	movq	-8(%rbp), %rdx
	movq	%rdx, 16(%rax)
	movq	_TIG_iO_NETu_1_print_group_ids_1_opaque_list_1(%rip), %rax
	movq	-8(%rbp), %rdx
	movq	%rdx, 8(%rax)
	movq	_TIG_iO_NETu_1_print_group_ids_1_opaque_list_1(%rip), %rax
	movq	8(%rax), %rax
	movq	%rax, _TIG_iO_NETu_1_print_group_ids_1_opaque_ptr_1(%rip)
	movq	_TIG_iO_NETu_1_print_group_ids_1_opaque_ptr_1(%rip), %rax
	movq	%rax, _TIG_iO_NETu_1_print_group_ids_1_opaque_ptr_2(%rip)
	nop
	nop
	movq	_TIG_iO_NETu_1_print_user_ids_1_opaque_ptr_1(%rip), %rdx
	movq	_TIG_iO_NETu_1_print_user_ids_1_opaque_ptr_2(%rip), %rax
	cmpq	%rax, %rdx
	je	.L2
	call	print_parent_process_id
.L2:
	call	getgid@PLT
	movl	%eax, -40(%rbp)
	movl	-40(%rbp), %eax
	movl	%eax, -36(%rbp)
	call	getegid@PLT
	movl	%eax, -32(%rbp)
	movl	-32(%rbp), %eax
	movl	%eax, -28(%rbp)
	movl	-28(%rbp), %edx
	movl	-36(%rbp), %eax
	movl	%eax, %esi
	leaq	.LC0(%rip), %rax
	movq	%rax, %rdi
	movl	$0, %eax
	call	printf@PLT
	nop
	leave
	.cfi_def_cfa 7, 8
	ret
	.cfi_endproc
.LFE1:
	.size	print_group_ids, .-print_group_ids
	.globl	print_all_environment_variables
	.type	print_all_environment_variables, @function
print_all_environment_variables:
.LFB2:
	.cfi_startproc
	endbr64
	pushq	%rbp
	.cfi_def_cfa_offset 16
	.cfi_offset 6, -16
	movq	%rsp, %rbp
	.cfi_def_cfa_register 6
	subq	$48, %rsp
#APP
# 52 "JO2boy_syspro_main.c" 1
	##_ANNOTATION_INITIALREGION_-TIG-iO-NETu-1-print-all-environment-variables--16
# 0 "" 2
# 56 "JO2boy_syspro_main.c" 1
	##_ANNOTATION_ATOMICREGION_-TIG-iO-NETu-1-print-all-environment-variables--15
# 0 "" 2
#NO_APP
	movl	$24, %edi
	call	malloc@PLT
	movq	%rax, -24(%rbp)
	movq	-24(%rbp), %rax
	movq	-24(%rbp), %rdx
	movq	%rdx, 16(%rax)
	movq	-24(%rbp), %rax
	movq	-24(%rbp), %rdx
	movq	%rdx, 8(%rax)
	movq	-24(%rbp), %rax
	movq	%rax, _TIG_iO_NETu_1_print_all_environment_variables_1_opaque_list_1(%rip)
	call	rand@PLT
	movl	%eax, -40(%rbp)
	movl	$24, %edi
	call	malloc@PLT
	movq	%rax, -16(%rbp)
	movq	-16(%rbp), %rax
	movl	$0, (%rax)
	movq	_TIG_iO_NETu_1_print_all_environment_variables_1_opaque_list_1(%rip), %rax
	movq	16(%rax), %rdx
	movq	-16(%rbp), %rax
	movq	%rdx, 16(%rax)
	movq	_TIG_iO_NETu_1_print_all_environment_variables_1_opaque_list_1(%rip), %rdx
	movq	-16(%rbp), %rax
	movq	%rdx, 8(%rax)
	movq	_TIG_iO_NETu_1_print_all_environment_variables_1_opaque_list_1(%rip), %rax
	movq	16(%rax), %rax
	movq	-16(%rbp), %rdx
	movq	%rdx, 8(%rax)
	movq	_TIG_iO_NETu_1_print_all_environment_variables_1_opaque_list_1(%rip), %rax
	movq	-16(%rbp), %rdx
	movq	%rdx, 16(%rax)
	call	rand@PLT
	movl	%eax, -36(%rbp)
	movl	$24, %edi
	call	malloc@PLT
	movq	%rax, -8(%rbp)
	movq	-8(%rbp), %rax
	movl	-36(%rbp), %edx
	movl	%edx, (%rax)
	movq	_TIG_iO_NETu_1_print_all_environment_variables_1_opaque_list_1(%rip), %rax
	movq	16(%rax), %rdx
	movq	-8(%rbp), %rax
	movq	%rdx, 16(%rax)
	movq	_TIG_iO_NETu_1_print_all_environment_variables_1_opaque_list_1(%rip), %rdx
	movq	-8(%rbp), %rax
	movq	%rdx, 8(%rax)
	movq	_TIG_iO_NETu_1_print_all_environment_variables_1_opaque_list_1(%rip), %rax
	movq	16(%rax), %rax
	movq	-8(%rbp), %rdx
	movq	%rdx, 8(%rax)
	movq	_TIG_iO_NETu_1_print_all_environment_variables_1_opaque_list_1(%rip), %rax
	movq	-8(%rbp), %rdx
	movq	%rdx, 16(%rax)
	movq	_TIG_iO_NETu_1_print_all_environment_variables_1_opaque_list_1(%rip), %rax
	movq	16(%rax), %rax
	movq	%rax, _TIG_iO_NETu_1_print_all_environment_variables_1_opaque_ptr_1(%rip)
	movq	_TIG_iO_NETu_1_print_all_environment_variables_1_opaque_ptr_1(%rip), %rax
	movq	%rax, _TIG_iO_NETu_1_print_all_environment_variables_1_opaque_ptr_2(%rip)
	nop
	nop
	movq	_TIG_iO_NETu_1_print_user_ids_1_opaque_ptr_1(%rip), %rdx
	movq	_TIG_iO_NETu_1_print_user_ids_1_opaque_ptr_2(%rip), %rax
	cmpq	%rax, %rdx
	je	.L5
	call	print_process_id
.L5:
	movq	environ(%rip), %rax
	movq	%rax, -32(%rbp)
	jmp	.L6
.L7:
	movq	-32(%rbp), %rax
	movq	(%rax), %rax
	movq	%rax, %rdi
	call	puts@PLT
	addq	$8, -32(%rbp)
.L6:
	movq	-32(%rbp), %rax
	movq	(%rax), %rax
	testq	%rax, %rax
	jne	.L7
	nop
	leave
	.cfi_def_cfa 7, 8
	ret
	.cfi_endproc
.LFE2:
	.size	print_all_environment_variables, .-print_all_environment_variables
	.section	.rodata
	.align 8
.LC1:
	.string	"Usage: %s [-e ENV_VAR | -u | -g | -i | -p]\n"
.LC2:
	.string	"Unknown option: %s\n"
.LC3:
	.string	"Invalid argument: %s\n"
	.text
	.globl	main
	.type	main, @function
main:
.LFB3:
	.cfi_startproc
	endbr64
	pushq	%rbp
	.cfi_def_cfa_offset 16
	.cfi_offset 6, -16
	movq	%rsp, %rbp
	.cfi_def_cfa_register 6
	subq	$96, %rsp
	movl	%edi, -68(%rbp)
	movq	%rsi, -80(%rbp)
	movq	%rdx, -88(%rbp)
	movq	$0, _TIG_IZ_NETu_envp(%rip)
	nop
.L10:
	movq	$0, _TIG_IZ_NETu_argv(%rip)
	nop
.L11:
	movl	$0, _TIG_IZ_NETu_argc(%rip)
	nop
	nop
.L12:
.L13:
#APP
# 71 "JO2boy_syspro_main.c" 1
	##_ANNOTATION_INITIALREGION_-TIG-IZ-NETu--0
# 0 "" 2
#NO_APP
	movl	-68(%rbp), %eax
	movl	%eax, _TIG_IZ_NETu_argc(%rip)
	movq	-80(%rbp), %rax
	movq	%rax, _TIG_IZ_NETu_argv(%rip)
	movq	-88(%rbp), %rax
	movq	%rax, _TIG_IZ_NETu_envp(%rip)
#APP
# 78 "JO2boy_syspro_main.c" 1
	##_ANNOTATION_ATOMICREGION_-TIG-iO-NETu-1-main--13
# 0 "" 2
#NO_APP
	movl	$24, %edi
	call	malloc@PLT
	movq	%rax, -40(%rbp)
	movq	-40(%rbp), %rax
	movq	-40(%rbp), %rdx
	movq	%rdx, (%rax)
	movq	-40(%rbp), %rax
	movq	-40(%rbp), %rdx
	movq	%rdx, 8(%rax)
	movq	-40(%rbp), %rax
	movq	%rax, _TIG_iO_NETu_1_main_1_opaque_list_1(%rip)
	call	rand@PLT
	movl	%eax, -56(%rbp)
	movl	$24, %edi
	call	malloc@PLT
	movq	%rax, -32(%rbp)
	movq	-32(%rbp), %rax
	movl	$0, 16(%rax)
	movq	_TIG_iO_NETu_1_main_1_opaque_list_1(%rip), %rax
	movq	(%rax), %rdx
	movq	-32(%rbp), %rax
	movq	%rdx, (%rax)
	movq	_TIG_iO_NETu_1_main_1_opaque_list_1(%rip), %rdx
	movq	-32(%rbp), %rax
	movq	%rdx, 8(%rax)
	movq	_TIG_iO_NETu_1_main_1_opaque_list_1(%rip), %rax
	movq	(%rax), %rax
	movq	-32(%rbp), %rdx
	movq	%rdx, 8(%rax)
	movq	_TIG_iO_NETu_1_main_1_opaque_list_1(%rip), %rax
	movq	-32(%rbp), %rdx
	movq	%rdx, (%rax)
	call	rand@PLT
	movl	%eax, -52(%rbp)
	movl	$24, %edi
	call	malloc@PLT
	movq	%rax, -24(%rbp)
	movq	-24(%rbp), %rax
	movl	-52(%rbp), %edx
	movl	%edx, 16(%rax)
	movq	_TIG_iO_NETu_1_main_1_opaque_list_1(%rip), %rax
	movq	(%rax), %rdx
	movq	-24(%rbp), %rax
	movq	%rdx, (%rax)
	movq	_TIG_iO_NETu_1_main_1_opaque_list_1(%rip), %rdx
	movq	-24(%rbp), %rax
	movq	%rdx, 8(%rax)
	movq	_TIG_iO_NETu_1_main_1_opaque_list_1(%rip), %rax
	movq	(%rax), %rax
	movq	-24(%rbp), %rdx
	movq	%rdx, 8(%rax)
	movq	_TIG_iO_NETu_1_main_1_opaque_list_1(%rip), %rax
	movq	-24(%rbp), %rdx
	movq	%rdx, (%rax)
	call	rand@PLT
	movl	%eax, -48(%rbp)
	movl	$24, %edi
	call	malloc@PLT
	movq	%rax, -16(%rbp)
	movl	-48(%rbp), %eax
	leal	(%rax,%rax), %edx
	movq	-16(%rbp), %rax
	movl	%edx, 16(%rax)
	movq	_TIG_iO_NETu_1_main_1_opaque_list_1(%rip), %rax
	movq	(%rax), %rdx
	movq	-16(%rbp), %rax
	movq	%rdx, (%rax)
	movq	_TIG_iO_NETu_1_main_1_opaque_list_1(%rip), %rdx
	movq	-16(%rbp), %rax
	movq	%rdx, 8(%rax)
	movq	_TIG_iO_NETu_1_main_1_opaque_list_1(%rip), %rax
	movq	(%rax), %rax
	movq	-16(%rbp), %rdx
	movq	%rdx, 8(%rax)
	movq	_TIG_iO_NETu_1_main_1_opaque_list_1(%rip), %rax
	movq	-16(%rbp), %rdx
	movq	%rdx, (%rax)
	call	rand@PLT
	movl	%eax, -44(%rbp)
	movl	$24, %edi
	call	malloc@PLT
	movq	%rax, -8(%rbp)
	movl	-44(%rbp), %edx
	movl	%edx, %eax
	addl	%eax, %eax
	addl	%eax, %edx
	movq	-8(%rbp), %rax
	movl	%edx, 16(%rax)
	movq	_TIG_iO_NETu_1_main_1_opaque_list_1(%rip), %rax
	movq	(%rax), %rdx
	movq	-8(%rbp), %rax
	movq	%rdx, (%rax)
	movq	_TIG_iO_NETu_1_main_1_opaque_list_1(%rip), %rdx
	movq	-8(%rbp), %rax
	movq	%rdx, 8(%rax)
	movq	_TIG_iO_NETu_1_main_1_opaque_list_1(%rip), %rax
	movq	(%rax), %rax
	movq	-8(%rbp), %rdx
	movq	%rdx, 8(%rax)
	movq	_TIG_iO_NETu_1_main_1_opaque_list_1(%rip), %rax
	movq	-8(%rbp), %rdx
	movq	%rdx, (%rax)
	movq	_TIG_iO_NETu_1_main_1_opaque_list_1(%rip), %rax
	movq	(%rax), %rax
	movq	%rax, _TIG_iO_NETu_1_main_1_opaque_ptr_1(%rip)
	movq	_TIG_iO_NETu_1_main_1_opaque_ptr_1(%rip), %rax
	movq	%rax, _TIG_iO_NETu_1_main_1_opaque_ptr_2(%rip)
	movq	_TIG_iO_NETu_1_main_1_opaque_ptr_2(%rip), %rax
	movq	(%rax), %rax
	movq	%rax, _TIG_iO_NETu_1_main_1_opaque_ptr_2(%rip)
	nop
	nop
	cmpl	$1, -68(%rbp)
	jne	.L14
	movq	-80(%rbp), %rax
	movq	(%rax), %rax
	movq	%rax, %rsi
	leaq	.LC1(%rip), %rax
	movq	%rax, %rdi
	movl	$0, %eax
	call	printf@PLT
	movl	$1, %eax
	jmp	.L15
.L14:
	movl	$1, -60(%rbp)
	jmp	.L16
.L31:
	movq	_TIG_iO_NETu_1_print_user_ids_1_opaque_ptr_1(%rip), %rdx
	movq	_TIG_iO_NETu_1_print_user_ids_1_opaque_ptr_2(%rip), %rax
	cmpq	%rax, %rdx
	jne	.L17
	movl	-60(%rbp), %eax
	cltq
	leaq	0(,%rax,8), %rdx
	movq	-80(%rbp), %rax
	addq	%rdx, %rax
	movq	(%rax), %rax
	movzbl	(%rax), %eax
	cmpb	$45, %al
	jne	.L18
	movl	-60(%rbp), %eax
	cltq
	leaq	0(,%rax,8), %rdx
	movq	-80(%rbp), %rax
	addq	%rdx, %rax
	movq	(%rax), %rax
	addq	$1, %rax
	movzbl	(%rax), %eax
	testb	%al, %al
	je	.L19
	movl	-60(%rbp), %eax
	cltq
	leaq	0(,%rax,8), %rdx
	movq	-80(%rbp), %rax
	addq	%rdx, %rax
	movq	(%rax), %rax
	addq	$1, %rax
	movzbl	(%rax), %eax
	movsbl	%al, %eax
	subl	$101, %eax
	cmpl	$16, %eax
	ja	.L20
	movl	%eax, %eax
	leaq	0(,%rax,4), %rdx
	leaq	.L22(%rip), %rax
	movl	(%rdx,%rax), %eax
	cltq
	leaq	.L22(%rip), %rdx
	addq	%rdx, %rax
	notrack jmp	*%rax
	.section	.rodata
	.align 4
	.align 4
.L22:
	.long	.L26-.L22
	.long	.L20-.L22
	.long	.L25-.L22
	.long	.L20-.L22
	.long	.L24-.L22
	.long	.L20-.L22
	.long	.L20-.L22
	.long	.L20-.L22
	.long	.L20-.L22
	.long	.L20-.L22
	.long	.L20-.L22
	.long	.L23-.L22
	.long	.L20-.L22
	.long	.L20-.L22
	.long	.L20-.L22
	.long	.L20-.L22
	.long	.L21-.L22
	.text
.L26:
	movl	-60(%rbp), %eax
	addl	$1, %eax
	cmpl	%eax, -68(%rbp)
	jle	.L27
	movl	-60(%rbp), %eax
	cltq
	addq	$1, %rax
	leaq	0(,%rax,8), %rdx
	movq	-80(%rbp), %rax
	addq	%rdx, %rax
	movq	(%rax), %rax
	movq	%rax, %rdi
	call	print_environment_variable
	addl	$1, -60(%rbp)
	jmp	.L30
.L27:
	call	print_all_environment_variables
	jmp	.L30
.L21:
	call	print_user_ids
	jmp	.L30
.L25:
	call	print_group_ids
	jmp	.L30
.L24:
	call	print_process_id
	jmp	.L30
.L23:
	call	print_parent_process_id
	jmp	.L30
.L20:
	movl	-60(%rbp), %eax
	cltq
	leaq	0(,%rax,8), %rdx
	movq	-80(%rbp), %rax
	addq	%rdx, %rax
	movq	(%rax), %rax
	movq	%rax, %rsi
	leaq	.LC2(%rip), %rax
	movq	%rax, %rdi
	movl	$0, %eax
	call	printf@PLT
	jmp	.L30
.L19:
	movl	-60(%rbp), %eax
	cltq
	leaq	0(,%rax,8), %rdx
	movq	-80(%rbp), %rax
	addq	%rdx, %rax
	movq	(%rax), %rax
	movq	%rax, %rsi
	leaq	.LC3(%rip), %rax
	movq	%rax, %rdi
	movl	$0, %eax
	call	printf@PLT
	jmp	.L30
.L18:
	movl	-60(%rbp), %eax
	cltq
	leaq	0(,%rax,8), %rdx
	movq	-80(%rbp), %rax
	addq	%rdx, %rax
	movq	(%rax), %rax
	movq	%rax, %rsi
	leaq	.LC3(%rip), %rax
	movq	%rax, %rdi
	movl	$0, %eax
	call	printf@PLT
	jmp	.L30
.L17:
#APP
# 84 "JO2boy_syspro_main.c" 1
	.byte 0xff
# 0 "" 2
#NO_APP
.L30:
	addl	$1, -60(%rbp)
.L16:
	movl	-60(%rbp), %eax
	cmpl	-68(%rbp), %eax
	jl	.L31
	movl	$0, %eax
.L15:
	leave
	.cfi_def_cfa 7, 8
	ret
	.cfi_endproc
.LFE3:
	.size	main, .-main
	.section	.rodata
.LC4:
	.string	"my process number: %d\n"
	.text
	.globl	print_process_id
	.type	print_process_id, @function
print_process_id:
.LFB5:
	.cfi_startproc
	endbr64
	pushq	%rbp
	.cfi_def_cfa_offset 16
	.cfi_offset 6, -16
	movq	%rsp, %rbp
	.cfi_def_cfa_register 6
	subq	$64, %rsp
#APP
# 65 "/usr/include/x86_64-linux-gnu/bits/uintn-identity.h" 1
	##_ANNOTATION_INITIALREGION_-TIG-iO-NETu-1-print-process-id--24
# 0 "" 2
# 69 "/usr/include/x86_64-linux-gnu/bits/uintn-identity.h" 1
	##_ANNOTATION_ATOMICREGION_-TIG-iO-NETu-1-print-process-id--23
# 0 "" 2
#NO_APP
	movl	$24, %edi
	call	malloc@PLT
	movq	%rax, -32(%rbp)
	movq	-32(%rbp), %rax
	movq	-32(%rbp), %rdx
	movq	%rdx, (%rax)
	movq	-32(%rbp), %rax
	movq	-32(%rbp), %rdx
	movq	%rdx, 8(%rax)
	movq	-32(%rbp), %rax
	movq	%rax, _TIG_iO_NETu_1_print_process_id_1_opaque_list_1(%rip)
	call	rand@PLT
	movl	%eax, -52(%rbp)
	movl	$24, %edi
	call	malloc@PLT
	movq	%rax, -24(%rbp)
	movq	-24(%rbp), %rax
	movl	$0, 16(%rax)
	movq	_TIG_iO_NETu_1_print_process_id_1_opaque_list_1(%rip), %rax
	movq	(%rax), %rdx
	movq	-24(%rbp), %rax
	movq	%rdx, (%rax)
	movq	_TIG_iO_NETu_1_print_process_id_1_opaque_list_1(%rip), %rdx
	movq	-24(%rbp), %rax
	movq	%rdx, 8(%rax)
	movq	_TIG_iO_NETu_1_print_process_id_1_opaque_list_1(%rip), %rax
	movq	(%rax), %rax
	movq	-24(%rbp), %rdx
	movq	%rdx, 8(%rax)
	movq	_TIG_iO_NETu_1_print_process_id_1_opaque_list_1(%rip), %rax
	movq	-24(%rbp), %rdx
	movq	%rdx, (%rax)
	call	rand@PLT
	movl	%eax, -48(%rbp)
	movl	$24, %edi
	call	malloc@PLT
	movq	%rax, -16(%rbp)
	movq	-16(%rbp), %rax
	movl	-48(%rbp), %edx
	movl	%edx, 16(%rax)
	movq	_TIG_iO_NETu_1_print_process_id_1_opaque_list_1(%rip), %rax
	movq	(%rax), %rdx
	movq	-16(%rbp), %rax
	movq	%rdx, (%rax)
	movq	_TIG_iO_NETu_1_print_process_id_1_opaque_list_1(%rip), %rdx
	movq	-16(%rbp), %rax
	movq	%rdx, 8(%rax)
	movq	_TIG_iO_NETu_1_print_process_id_1_opaque_list_1(%rip), %rax
	movq	(%rax), %rax
	movq	-16(%rbp), %rdx
	movq	%rdx, 8(%rax)
	movq	_TIG_iO_NETu_1_print_process_id_1_opaque_list_1(%rip), %rax
	movq	-16(%rbp), %rdx
	movq	%rdx, (%rax)
	call	rand@PLT
	movl	%eax, -44(%rbp)
	movl	$24, %edi
	call	malloc@PLT
	movq	%rax, -8(%rbp)
	movl	-44(%rbp), %eax
	leal	(%rax,%rax), %edx
	movq	-8(%rbp), %rax
	movl	%edx, 16(%rax)
	movq	_TIG_iO_NETu_1_print_process_id_1_opaque_list_1(%rip), %rax
	movq	(%rax), %rdx
	movq	-8(%rbp), %rax
	movq	%rdx, (%rax)
	movq	_TIG_iO_NETu_1_print_process_id_1_opaque_list_1(%rip), %rdx
	movq	-8(%rbp), %rax
	movq	%rdx, 8(%rax)
	movq	_TIG_iO_NETu_1_print_process_id_1_opaque_list_1(%rip), %rax
	movq	(%rax), %rax
	movq	-8(%rbp), %rdx
	movq	%rdx, 8(%rax)
	movq	_TIG_iO_NETu_1_print_process_id_1_opaque_list_1(%rip), %rax
	movq	-8(%rbp), %rdx
	movq	%rdx, (%rax)
	movq	_TIG_iO_NETu_1_print_process_id_1_opaque_list_1(%rip), %rax
	movq	(%rax), %rax
	movq	%rax, _TIG_iO_NETu_1_print_process_id_1_opaque_ptr_1(%rip)
	movq	_TIG_iO_NETu_1_print_process_id_1_opaque_ptr_1(%rip), %rax
	movq	%rax, _TIG_iO_NETu_1_print_process_id_1_opaque_ptr_2(%rip)
	movq	_TIG_iO_NETu_1_print_process_id_1_opaque_ptr_2(%rip), %rax
	movq	(%rax), %rax
	movq	%rax, _TIG_iO_NETu_1_print_process_id_1_opaque_ptr_2(%rip)
	nop
	nop
	call	getpid@PLT
	movl	%eax, -40(%rbp)
	movl	-40(%rbp), %eax
	movl	%eax, -36(%rbp)
	movl	-36(%rbp), %eax
	movl	%eax, %esi
	leaq	.LC4(%rip), %rax
	movq	%rax, %rdi
	movl	$0, %eax
	call	printf@PLT
	movq	_TIG_iO_NETu_1_print_user_ids_1_opaque_ptr_1(%rip), %rdx
	movq	_TIG_iO_NETu_1_print_user_ids_1_opaque_ptr_2(%rip), %rax
	cmpq	%rax, %rdx
	je	.L35
#APP
# 42 "JO2boy_syspro_main.c" 1
	.byte 0x7d
# 0 "" 2
#NO_APP
	jmp	.L32
.L35:
	nop
.L32:
	leave
	.cfi_def_cfa 7, 8
	ret
	.cfi_endproc
.LFE5:
	.size	print_process_id, .-print_process_id
	.section	.rodata
.LC5:
	.string	"%s=%s\n"
	.align 8
.LC6:
	.string	"Environment variable %s not found.\n"
	.text
	.globl	print_environment_variable
	.type	print_environment_variable, @function
print_environment_variable:
.LFB8:
	.cfi_startproc
	endbr64
	pushq	%rbp
	.cfi_def_cfa_offset 16
	.cfi_offset 6, -16
	movq	%rsp, %rbp
	.cfi_def_cfa_register 6
	subq	$64, %rsp
	movq	%rdi, -56(%rbp)
#APP
# 93 "/usr/include/x86_64-linux-gnu/bits/byteswap.h" 1
	##_ANNOTATION_INITIALREGION_-TIG-iO-NETu-1-print-environment-variable--18
# 0 "" 2
# 97 "/usr/include/x86_64-linux-gnu/bits/byteswap.h" 1
	##_ANNOTATION_ATOMICREGION_-TIG-iO-NETu-1-print-environment-variable--17
# 0 "" 2
#NO_APP
	movl	$24, %edi
	call	malloc@PLT
	movq	%rax, -32(%rbp)
	movq	-32(%rbp), %rax
	movq	-32(%rbp), %rdx
	movq	%rdx, 8(%rax)
	movq	-32(%rbp), %rax
	movq	-32(%rbp), %rdx
	movq	%rdx, (%rax)
	movq	-32(%rbp), %rax
	movq	%rax, _TIG_iO_NETu_1_print_environment_variable_1_opaque_list_1(%rip)
	call	rand@PLT
	movl	%eax, -48(%rbp)
	movl	$24, %edi
	call	malloc@PLT
	movq	%rax, -24(%rbp)
	movq	-24(%rbp), %rax
	movl	$0, 16(%rax)
	movq	_TIG_iO_NETu_1_print_environment_variable_1_opaque_list_1(%rip), %rax
	movq	8(%rax), %rdx
	movq	-24(%rbp), %rax
	movq	%rdx, 8(%rax)
	movq	_TIG_iO_NETu_1_print_environment_variable_1_opaque_list_1(%rip), %rdx
	movq	-24(%rbp), %rax
	movq	%rdx, (%rax)
	movq	_TIG_iO_NETu_1_print_environment_variable_1_opaque_list_1(%rip), %rax
	movq	8(%rax), %rax
	movq	-24(%rbp), %rdx
	movq	%rdx, (%rax)
	movq	_TIG_iO_NETu_1_print_environment_variable_1_opaque_list_1(%rip), %rax
	movq	-24(%rbp), %rdx
	movq	%rdx, 8(%rax)
	call	rand@PLT
	movl	%eax, -44(%rbp)
	movl	$24, %edi
	call	malloc@PLT
	movq	%rax, -16(%rbp)
	movq	-16(%rbp), %rax
	movl	-44(%rbp), %edx
	movl	%edx, 16(%rax)
	movq	_TIG_iO_NETu_1_print_environment_variable_1_opaque_list_1(%rip), %rax
	movq	8(%rax), %rdx
	movq	-16(%rbp), %rax
	movq	%rdx, 8(%rax)
	movq	_TIG_iO_NETu_1_print_environment_variable_1_opaque_list_1(%rip), %rdx
	movq	-16(%rbp), %rax
	movq	%rdx, (%rax)
	movq	_TIG_iO_NETu_1_print_environment_variable_1_opaque_list_1(%rip), %rax
	movq	8(%rax), %rax
	movq	-16(%rbp), %rdx
	movq	%rdx, (%rax)
	movq	_TIG_iO_NETu_1_print_environment_variable_1_opaque_list_1(%rip), %rax
	movq	-16(%rbp), %rdx
	movq	%rdx, 8(%rax)
	movq	_TIG_iO_NETu_1_print_environment_variable_1_opaque_list_1(%rip), %rax
	movq	8(%rax), %rax
	movq	%rax, _TIG_iO_NETu_1_print_environment_variable_1_opaque_ptr_1(%rip)
	movq	_TIG_iO_NETu_1_print_environment_variable_1_opaque_ptr_1(%rip), %rax
	movq	%rax, _TIG_iO_NETu_1_print_environment_variable_1_opaque_ptr_2(%rip)
	movq	_TIG_iO_NETu_1_print_environment_variable_1_opaque_ptr_2(%rip), %rax
	movq	8(%rax), %rax
	movq	%rax, _TIG_iO_NETu_1_print_environment_variable_1_opaque_ptr_2(%rip)
	nop
	nop
	movq	_TIG_iO_NETu_1_print_user_ids_1_opaque_ptr_1(%rip), %rdx
	movq	_TIG_iO_NETu_1_print_user_ids_1_opaque_ptr_2(%rip), %rax
	cmpq	%rax, %rdx
	jne	.L37
	movq	-56(%rbp), %rax
	movq	%rax, %rdi
	call	getenv@PLT
	movq	%rax, -8(%rbp)
	movq	-8(%rbp), %rax
	movq	%rax, -40(%rbp)
.L37:
	cmpq	$0, -40(%rbp)
	je	.L38
	movq	-40(%rbp), %rdx
	movq	-56(%rbp), %rax
	movq	%rax, %rsi
	leaq	.LC5(%rip), %rax
	movq	%rax, %rdi
	movl	$0, %eax
	call	printf@PLT
	jmp	.L36
.L38:
	movq	-56(%rbp), %rax
	movq	%rax, %rsi
	leaq	.LC6(%rip), %rax
	movq	%rax, %rdi
	movl	$0, %eax
	call	printf@PLT
	nop
.L36:
	leave
	.cfi_def_cfa 7, 8
	ret
	.cfi_endproc
.LFE8:
	.size	print_environment_variable, .-print_environment_variable
	.section	.rodata
	.align 8
.LC7:
	.string	"my paret's process number : %d\n"
	.text
	.globl	print_parent_process_id
	.type	print_parent_process_id, @function
print_parent_process_id:
.LFB10:
	.cfi_startproc
	endbr64
	pushq	%rbp
	.cfi_def_cfa_offset 16
	.cfi_offset 6, -16
	movq	%rsp, %rbp
	.cfi_def_cfa_register 6
	subq	$64, %rsp
#APP
# 76 "/usr/include/x86_64-linux-gnu/bits/byteswap.h" 1
	##_ANNOTATION_INITIALREGION_-TIG-iO-NETu-1-print-parent-process-id--22
# 0 "" 2
# 80 "/usr/include/x86_64-linux-gnu/bits/byteswap.h" 1
	##_ANNOTATION_ATOMICREGION_-TIG-iO-NETu-1-print-parent-process-id--21
# 0 "" 2
#NO_APP
	movl	$24, %edi
	call	malloc@PLT
	movq	%rax, -32(%rbp)
	movq	-32(%rbp), %rax
	movq	-32(%rbp), %rdx
	movq	%rdx, (%rax)
	movq	-32(%rbp), %rax
	movq	-32(%rbp), %rdx
	movq	%rdx, 16(%rax)
	movq	-32(%rbp), %rax
	movq	%rax, _TIG_iO_NETu_1_print_parent_process_id_1_opaque_list_1(%rip)
	call	rand@PLT
	movl	%eax, -52(%rbp)
	movl	$24, %edi
	call	malloc@PLT
	movq	%rax, -24(%rbp)
	movq	-24(%rbp), %rax
	movl	$0, 8(%rax)
	movq	_TIG_iO_NETu_1_print_parent_process_id_1_opaque_list_1(%rip), %rax
	movq	(%rax), %rdx
	movq	-24(%rbp), %rax
	movq	%rdx, (%rax)
	movq	_TIG_iO_NETu_1_print_parent_process_id_1_opaque_list_1(%rip), %rdx
	movq	-24(%rbp), %rax
	movq	%rdx, 16(%rax)
	movq	_TIG_iO_NETu_1_print_parent_process_id_1_opaque_list_1(%rip), %rax
	movq	(%rax), %rax
	movq	-24(%rbp), %rdx
	movq	%rdx, 16(%rax)
	movq	_TIG_iO_NETu_1_print_parent_process_id_1_opaque_list_1(%rip), %rax
	movq	-24(%rbp), %rdx
	movq	%rdx, (%rax)
	call	rand@PLT
	movl	%eax, -48(%rbp)
	movl	$24, %edi
	call	malloc@PLT
	movq	%rax, -16(%rbp)
	movq	-16(%rbp), %rax
	movl	-48(%rbp), %edx
	movl	%edx, 8(%rax)
	movq	_TIG_iO_NETu_1_print_parent_process_id_1_opaque_list_1(%rip), %rax
	movq	(%rax), %rdx
	movq	-16(%rbp), %rax
	movq	%rdx, (%rax)
	movq	_TIG_iO_NETu_1_print_parent_process_id_1_opaque_list_1(%rip), %rdx
	movq	-16(%rbp), %rax
	movq	%rdx, 16(%rax)
	movq	_TIG_iO_NETu_1_print_parent_process_id_1_opaque_list_1(%rip), %rax
	movq	(%rax), %rax
	movq	-16(%rbp), %rdx
	movq	%rdx, 16(%rax)
	movq	_TIG_iO_NETu_1_print_parent_process_id_1_opaque_list_1(%rip), %rax
	movq	-16(%rbp), %rdx
	movq	%rdx, (%rax)
	call	rand@PLT
	movl	%eax, -44(%rbp)
	movl	$24, %edi
	call	malloc@PLT
	movq	%rax, -8(%rbp)
	movl	-44(%rbp), %eax
	leal	(%rax,%rax), %edx
	movq	-8(%rbp), %rax
	movl	%edx, 8(%rax)
	movq	_TIG_iO_NETu_1_print_parent_process_id_1_opaque_list_1(%rip), %rax
	movq	(%rax), %rdx
	movq	-8(%rbp), %rax
	movq	%rdx, (%rax)
	movq	_TIG_iO_NETu_1_print_parent_process_id_1_opaque_list_1(%rip), %rdx
	movq	-8(%rbp), %rax
	movq	%rdx, 16(%rax)
	movq	_TIG_iO_NETu_1_print_parent_process_id_1_opaque_list_1(%rip), %rax
	movq	(%rax), %rax
	movq	-8(%rbp), %rdx
	movq	%rdx, 16(%rax)
	movq	_TIG_iO_NETu_1_print_parent_process_id_1_opaque_list_1(%rip), %rax
	movq	-8(%rbp), %rdx
	movq	%rdx, (%rax)
	movq	_TIG_iO_NETu_1_print_parent_process_id_1_opaque_list_1(%rip), %rax
	movq	(%rax), %rax
	movq	%rax, _TIG_iO_NETu_1_print_parent_process_id_1_opaque_ptr_1(%rip)
	movq	_TIG_iO_NETu_1_print_parent_process_id_1_opaque_ptr_1(%rip), %rax
	movq	%rax, _TIG_iO_NETu_1_print_parent_process_id_1_opaque_ptr_2(%rip)
	movq	_TIG_iO_NETu_1_print_parent_process_id_1_opaque_ptr_2(%rip), %rax
	movq	(%rax), %rax
	movq	%rax, _TIG_iO_NETu_1_print_parent_process_id_1_opaque_ptr_2(%rip)
	nop
	nop
	movq	_TIG_iO_NETu_1_print_user_ids_1_opaque_ptr_1(%rip), %rdx
	movq	_TIG_iO_NETu_1_print_user_ids_1_opaque_ptr_2(%rip), %rax
	cmpq	%rax, %rdx
	jne	.L42
	call	getppid@PLT
	movl	%eax, -40(%rbp)
	movl	-40(%rbp), %eax
	movl	%eax, -36(%rbp)
	movl	-36(%rbp), %eax
	movl	%eax, %esi
	leaq	.LC7(%rip), %rax
	movq	%rax, %rdi
	movl	$0, %eax
	call	printf@PLT
	jmp	.L41
.L42:
#APP
# 46 "JO2boy_syspro_main.c" 1
	.byte 0x76,0xaa,0x1f,0xa9,0x5a,0xa3,0x44
# 0 "" 2
#NO_APP
	nop
.L41:
	leave
	.cfi_def_cfa 7, 8
	ret
	.cfi_endproc
.LFE10:
	.size	print_parent_process_id, .-print_parent_process_id
	.section	.rodata
	.align 8
.LC8:
	.string	"my realistic user id : %d\nmy valid user id : %d\n"
	.text
	.globl	print_user_ids
	.type	print_user_ids, @function
print_user_ids:
.LFB11:
	.cfi_startproc
	endbr64
	pushq	%rbp
	.cfi_def_cfa_offset 16
	.cfi_offset 6, -16
	movq	%rsp, %rbp
	.cfi_def_cfa_register 6
	subq	$80, %rsp
#APP
# 69 "JO2boy_syspro_main.c" 1
	##_ANNOTATION_INITIALREGION_-TIG-iO-NETu-1-print-user-ids--26
# 0 "" 2
# 73 "JO2boy_syspro_main.c" 1
	##_ANNOTATION_ATOMICREGION_-TIG-iO-NETu-1-print-user-ids--25
# 0 "" 2
#NO_APP
	movl	$24, %edi
	call	malloc@PLT
	movq	%rax, -40(%rbp)
	movq	-40(%rbp), %rax
	movq	-40(%rbp), %rdx
	movq	%rdx, (%rax)
	movq	-40(%rbp), %rax
	movq	-40(%rbp), %rdx
	movq	%rdx, 16(%rax)
	movq	-40(%rbp), %rax
	movq	%rax, _TIG_iO_NETu_1_print_user_ids_1_opaque_list_1(%rip)
	call	rand@PLT
	movl	%eax, -72(%rbp)
	movl	$24, %edi
	call	malloc@PLT
	movq	%rax, -32(%rbp)
	movq	-32(%rbp), %rax
	movl	$0, 8(%rax)
	movq	_TIG_iO_NETu_1_print_user_ids_1_opaque_list_1(%rip), %rax
	movq	(%rax), %rdx
	movq	-32(%rbp), %rax
	movq	%rdx, (%rax)
	movq	_TIG_iO_NETu_1_print_user_ids_1_opaque_list_1(%rip), %rdx
	movq	-32(%rbp), %rax
	movq	%rdx, 16(%rax)
	movq	_TIG_iO_NETu_1_print_user_ids_1_opaque_list_1(%rip), %rax
	movq	(%rax), %rax
	movq	-32(%rbp), %rdx
	movq	%rdx, 16(%rax)
	movq	_TIG_iO_NETu_1_print_user_ids_1_opaque_list_1(%rip), %rax
	movq	-32(%rbp), %rdx
	movq	%rdx, (%rax)
	call	rand@PLT
	movl	%eax, -68(%rbp)
	movl	$24, %edi
	call	malloc@PLT
	movq	%rax, -24(%rbp)
	movq	-24(%rbp), %rax
	movl	-68(%rbp), %edx
	movl	%edx, 8(%rax)
	movq	_TIG_iO_NETu_1_print_user_ids_1_opaque_list_1(%rip), %rax
	movq	(%rax), %rdx
	movq	-24(%rbp), %rax
	movq	%rdx, (%rax)
	movq	_TIG_iO_NETu_1_print_user_ids_1_opaque_list_1(%rip), %rdx
	movq	-24(%rbp), %rax
	movq	%rdx, 16(%rax)
	movq	_TIG_iO_NETu_1_print_user_ids_1_opaque_list_1(%rip), %rax
	movq	(%rax), %rax
	movq	-24(%rbp), %rdx
	movq	%rdx, 16(%rax)
	movq	_TIG_iO_NETu_1_print_user_ids_1_opaque_list_1(%rip), %rax
	movq	-24(%rbp), %rdx
	movq	%rdx, (%rax)
	call	rand@PLT
	movl	%eax, -64(%rbp)
	movl	$24, %edi
	call	malloc@PLT
	movq	%rax, -16(%rbp)
	movl	-64(%rbp), %eax
	leal	(%rax,%rax), %edx
	movq	-16(%rbp), %rax
	movl	%edx, 8(%rax)
	movq	_TIG_iO_NETu_1_print_user_ids_1_opaque_list_1(%rip), %rax
	movq	(%rax), %rdx
	movq	-16(%rbp), %rax
	movq	%rdx, (%rax)
	movq	_TIG_iO_NETu_1_print_user_ids_1_opaque_list_1(%rip), %rdx
	movq	-16(%rbp), %rax
	movq	%rdx, 16(%rax)
	movq	_TIG_iO_NETu_1_print_user_ids_1_opaque_list_1(%rip), %rax
	movq	(%rax), %rax
	movq	-16(%rbp), %rdx
	movq	%rdx, 16(%rax)
	movq	_TIG_iO_NETu_1_print_user_ids_1_opaque_list_1(%rip), %rax
	movq	-16(%rbp), %rdx
	movq	%rdx, (%rax)
	call	rand@PLT
	movl	%eax, -60(%rbp)
	movl	$24, %edi
	call	malloc@PLT
	movq	%rax, -8(%rbp)
	movl	-60(%rbp), %edx
	movl	%edx, %eax
	addl	%eax, %eax
	addl	%eax, %edx
	movq	-8(%rbp), %rax
	movl	%edx, 8(%rax)
	movq	_TIG_iO_NETu_1_print_user_ids_1_opaque_list_1(%rip), %rax
	movq	(%rax), %rdx
	movq	-8(%rbp), %rax
	movq	%rdx, (%rax)
	movq	_TIG_iO_NETu_1_print_user_ids_1_opaque_list_1(%rip), %rdx
	movq	-8(%rbp), %rax
	movq	%rdx, 16(%rax)
	movq	_TIG_iO_NETu_1_print_user_ids_1_opaque_list_1(%rip), %rax
	movq	(%rax), %rax
	movq	-8(%rbp), %rdx
	movq	%rdx, 16(%rax)
	movq	_TIG_iO_NETu_1_print_user_ids_1_opaque_list_1(%rip), %rax
	movq	-8(%rbp), %rdx
	movq	%rdx, (%rax)
	movq	_TIG_iO_NETu_1_print_user_ids_1_opaque_list_1(%rip), %rax
	movq	(%rax), %rax
	movq	%rax, _TIG_iO_NETu_1_print_user_ids_1_opaque_ptr_1(%rip)
	movq	_TIG_iO_NETu_1_print_user_ids_1_opaque_ptr_1(%rip), %rax
	movq	%rax, _TIG_iO_NETu_1_print_user_ids_1_opaque_ptr_2(%rip)
	nop
	nop
	call	getuid@PLT
	movl	%eax, -56(%rbp)
	movl	-56(%rbp), %eax
	movl	%eax, -52(%rbp)
	call	geteuid@PLT
	movl	%eax, -48(%rbp)
	movl	-48(%rbp), %eax
	movl	%eax, -44(%rbp)
	movl	-44(%rbp), %edx
	movl	-52(%rbp), %eax
	movl	%eax, %esi
	leaq	.LC8(%rip), %rax
	movq	%rax, %rdi
	movl	$0, %eax
	call	printf@PLT
	movq	_TIG_iO_NETu_1_print_user_ids_1_opaque_ptr_1(%rip), %rdx
	movq	_TIG_iO_NETu_1_print_user_ids_1_opaque_ptr_2(%rip), %rax
	cmpq	%rax, %rdx
	leave
	.cfi_def_cfa 7, 8
	ret
	.cfi_endproc
.LFE11:
	.size	print_user_ids, .-print_user_ids
	.ident	"GCC: (Ubuntu 11.4.0-1ubuntu1~22.04) 11.4.0"
	.section	.note.GNU-stack,"",@progbits
	.section	.note.gnu.property,"a"
	.align 8
	.long	1f - 0f
	.long	4f - 1f
	.long	5
0:
	.string	"GNU"
1:
	.align 8
	.long	0xc0000002
	.long	3f - 2f
2:
	.long	0x3
3:
	.align 8
4:
