	.file	"JoyceMK_lab-works_8_1_queue_opaque.c"
	.text
	.globl	_TIG_iO_4LpK_1_dequeue_1_opaque_ptr_1
	.bss
	.align 8
	.type	_TIG_iO_4LpK_1_dequeue_1_opaque_ptr_1, @object
	.size	_TIG_iO_4LpK_1_dequeue_1_opaque_ptr_1, 8
_TIG_iO_4LpK_1_dequeue_1_opaque_ptr_1:
	.zero	8
	.globl	_TIG_IZ_4LpK_argc
	.align 4
	.type	_TIG_IZ_4LpK_argc, @object
	.size	_TIG_IZ_4LpK_argc, 4
_TIG_IZ_4LpK_argc:
	.zero	4
	.globl	_TIG_iO_4LpK_1___uint32_identity_1_opaque_ptr_2
	.align 8
	.type	_TIG_iO_4LpK_1___uint32_identity_1_opaque_ptr_2, @object
	.size	_TIG_iO_4LpK_1___uint32_identity_1_opaque_ptr_2, 8
_TIG_iO_4LpK_1___uint32_identity_1_opaque_ptr_2:
	.zero	8
	.globl	_TIG_iO_4LpK_1___uint16_identity_1_opaque_ptr_2
	.align 8
	.type	_TIG_iO_4LpK_1___uint16_identity_1_opaque_ptr_2, @object
	.size	_TIG_iO_4LpK_1___uint16_identity_1_opaque_ptr_2, 8
_TIG_iO_4LpK_1___uint16_identity_1_opaque_ptr_2:
	.zero	8
	.globl	_TIG_iO_4LpK_1___bswap_16_1_opaque_list_1
	.align 8
	.type	_TIG_iO_4LpK_1___bswap_16_1_opaque_list_1, @object
	.size	_TIG_iO_4LpK_1___bswap_16_1_opaque_list_1, 8
_TIG_iO_4LpK_1___bswap_16_1_opaque_list_1:
	.zero	8
	.globl	_TIG_iO_4LpK_1___uint32_identity_1_opaque_ptr_1
	.align 8
	.type	_TIG_iO_4LpK_1___uint32_identity_1_opaque_ptr_1, @object
	.size	_TIG_iO_4LpK_1___uint32_identity_1_opaque_ptr_1, 8
_TIG_iO_4LpK_1___uint32_identity_1_opaque_ptr_1:
	.zero	8
	.globl	_TIG_iO_4LpK_1___bswap_16_1_opaque_list_2
	.align 8
	.type	_TIG_iO_4LpK_1___bswap_16_1_opaque_list_2, @object
	.size	_TIG_iO_4LpK_1___bswap_16_1_opaque_list_2, 8
_TIG_iO_4LpK_1___bswap_16_1_opaque_list_2:
	.zero	8
	.globl	_TIG_iO_4LpK_1___uint16_identity_1_opaque_ptr_1
	.align 8
	.type	_TIG_iO_4LpK_1___uint16_identity_1_opaque_ptr_1, @object
	.size	_TIG_iO_4LpK_1___uint16_identity_1_opaque_ptr_1, 8
_TIG_iO_4LpK_1___uint16_identity_1_opaque_ptr_1:
	.zero	8
	.globl	_TIG_iO_4LpK_1_main_1_opaque_list_2
	.align 8
	.type	_TIG_iO_4LpK_1_main_1_opaque_list_2, @object
	.size	_TIG_iO_4LpK_1_main_1_opaque_list_2, 8
_TIG_iO_4LpK_1_main_1_opaque_list_2:
	.zero	8
	.globl	_TIG_iO_4LpK_1___uint16_identity_1_opaque_list_2
	.align 8
	.type	_TIG_iO_4LpK_1___uint16_identity_1_opaque_list_2, @object
	.size	_TIG_iO_4LpK_1___uint16_identity_1_opaque_list_2, 8
_TIG_iO_4LpK_1___uint16_identity_1_opaque_list_2:
	.zero	8
	.globl	rear
	.align 4
	.type	rear, @object
	.size	rear, 4
rear:
	.zero	4
	.globl	_TIG_iO_4LpK_1___bswap_64_1_opaque_ptr_2
	.align 8
	.type	_TIG_iO_4LpK_1___bswap_64_1_opaque_ptr_2, @object
	.size	_TIG_iO_4LpK_1___bswap_64_1_opaque_ptr_2, 8
_TIG_iO_4LpK_1___bswap_64_1_opaque_ptr_2:
	.zero	8
	.globl	_TIG_iO_4LpK_1___uint32_identity_1_opaque_list_1
	.align 8
	.type	_TIG_iO_4LpK_1___uint32_identity_1_opaque_list_1, @object
	.size	_TIG_iO_4LpK_1___uint32_identity_1_opaque_list_1, 8
_TIG_iO_4LpK_1___uint32_identity_1_opaque_list_1:
	.zero	8
	.globl	_TIG_iO_4LpK_1___bswap_16_1_opaque_ptr_1
	.align 8
	.type	_TIG_iO_4LpK_1___bswap_16_1_opaque_ptr_1, @object
	.size	_TIG_iO_4LpK_1___bswap_16_1_opaque_ptr_1, 8
_TIG_iO_4LpK_1___bswap_16_1_opaque_ptr_1:
	.zero	8
	.globl	_TIG_IZ_4LpK_argv
	.align 8
	.type	_TIG_IZ_4LpK_argv, @object
	.size	_TIG_IZ_4LpK_argv, 8
_TIG_IZ_4LpK_argv:
	.zero	8
	.globl	_TIG_IZ_4LpK_envp
	.align 8
	.type	_TIG_IZ_4LpK_envp, @object
	.size	_TIG_IZ_4LpK_envp, 8
_TIG_IZ_4LpK_envp:
	.zero	8
	.globl	_TIG_iO_4LpK_1___bswap_32_1_opaque_ptr_2
	.align 8
	.type	_TIG_iO_4LpK_1___bswap_32_1_opaque_ptr_2, @object
	.size	_TIG_iO_4LpK_1___bswap_32_1_opaque_ptr_2, 8
_TIG_iO_4LpK_1___bswap_32_1_opaque_ptr_2:
	.zero	8
	.globl	_TIG_iO_4LpK_1___bswap_32_1_opaque_list_2
	.align 8
	.type	_TIG_iO_4LpK_1___bswap_32_1_opaque_list_2, @object
	.size	_TIG_iO_4LpK_1___bswap_32_1_opaque_list_2, 8
_TIG_iO_4LpK_1___bswap_32_1_opaque_list_2:
	.zero	8
	.globl	_TIG_iO_4LpK_1_main_1_opaque_ptr_2
	.align 8
	.type	_TIG_iO_4LpK_1_main_1_opaque_ptr_2, @object
	.size	_TIG_iO_4LpK_1_main_1_opaque_ptr_2, 8
_TIG_iO_4LpK_1_main_1_opaque_ptr_2:
	.zero	8
	.globl	_TIG_iO_4LpK_1___uint64_identity_1_opaque_ptr_2
	.align 8
	.type	_TIG_iO_4LpK_1___uint64_identity_1_opaque_ptr_2, @object
	.size	_TIG_iO_4LpK_1___uint64_identity_1_opaque_ptr_2, 8
_TIG_iO_4LpK_1___uint64_identity_1_opaque_ptr_2:
	.zero	8
	.globl	_TIG_iO_4LpK_1___uint16_identity_1_opaque_list_1
	.align 8
	.type	_TIG_iO_4LpK_1___uint16_identity_1_opaque_list_1, @object
	.size	_TIG_iO_4LpK_1___uint16_identity_1_opaque_list_1, 8
_TIG_iO_4LpK_1___uint16_identity_1_opaque_list_1:
	.zero	8
	.globl	_TIG_iO_4LpK_1_dequeue_1_opaque_ptr_2
	.align 8
	.type	_TIG_iO_4LpK_1_dequeue_1_opaque_ptr_2, @object
	.size	_TIG_iO_4LpK_1_dequeue_1_opaque_ptr_2, 8
_TIG_iO_4LpK_1_dequeue_1_opaque_ptr_2:
	.zero	8
	.globl	queue
	.align 16
	.type	queue, @object
	.size	queue, 20
queue:
	.zero	20
	.globl	_TIG_iO_4LpK_1___uint64_identity_1_opaque_list_2
	.align 8
	.type	_TIG_iO_4LpK_1___uint64_identity_1_opaque_list_2, @object
	.size	_TIG_iO_4LpK_1___uint64_identity_1_opaque_list_2, 8
_TIG_iO_4LpK_1___uint64_identity_1_opaque_list_2:
	.zero	8
	.globl	_TIG_iO_4LpK_1_main_1_opaque_list_1
	.align 8
	.type	_TIG_iO_4LpK_1_main_1_opaque_list_1, @object
	.size	_TIG_iO_4LpK_1_main_1_opaque_list_1, 8
_TIG_iO_4LpK_1_main_1_opaque_list_1:
	.zero	8
	.globl	_TIG_iO_4LpK_1_enqueue_1_opaque_list_1
	.align 8
	.type	_TIG_iO_4LpK_1_enqueue_1_opaque_list_1, @object
	.size	_TIG_iO_4LpK_1_enqueue_1_opaque_list_1, 8
_TIG_iO_4LpK_1_enqueue_1_opaque_list_1:
	.zero	8
	.globl	_TIG_iO_4LpK_1___uint64_identity_1_opaque_ptr_1
	.align 8
	.type	_TIG_iO_4LpK_1___uint64_identity_1_opaque_ptr_1, @object
	.size	_TIG_iO_4LpK_1___uint64_identity_1_opaque_ptr_1, 8
_TIG_iO_4LpK_1___uint64_identity_1_opaque_ptr_1:
	.zero	8
	.globl	_TIG_iO_4LpK_1_dequeue_1_opaque_list_1
	.align 8
	.type	_TIG_iO_4LpK_1_dequeue_1_opaque_list_1, @object
	.size	_TIG_iO_4LpK_1_dequeue_1_opaque_list_1, 8
_TIG_iO_4LpK_1_dequeue_1_opaque_list_1:
	.zero	8
	.globl	_TIG_iO_4LpK_1_enqueue_1_opaque_list_2
	.align 8
	.type	_TIG_iO_4LpK_1_enqueue_1_opaque_list_2, @object
	.size	_TIG_iO_4LpK_1_enqueue_1_opaque_list_2, 8
_TIG_iO_4LpK_1_enqueue_1_opaque_list_2:
	.zero	8
	.globl	_TIG_iO_4LpK_1___bswap_64_1_opaque_ptr_1
	.align 8
	.type	_TIG_iO_4LpK_1___bswap_64_1_opaque_ptr_1, @object
	.size	_TIG_iO_4LpK_1___bswap_64_1_opaque_ptr_1, 8
_TIG_iO_4LpK_1___bswap_64_1_opaque_ptr_1:
	.zero	8
	.globl	front
	.align 4
	.type	front, @object
	.size	front, 4
front:
	.zero	4
	.globl	_TIG_iO_4LpK_1_enqueue_1_opaque_ptr_1
	.align 8
	.type	_TIG_iO_4LpK_1_enqueue_1_opaque_ptr_1, @object
	.size	_TIG_iO_4LpK_1_enqueue_1_opaque_ptr_1, 8
_TIG_iO_4LpK_1_enqueue_1_opaque_ptr_1:
	.zero	8
	.globl	_TIG_iO_4LpK_1___uint64_identity_1_opaque_list_1
	.align 8
	.type	_TIG_iO_4LpK_1___uint64_identity_1_opaque_list_1, @object
	.size	_TIG_iO_4LpK_1___uint64_identity_1_opaque_list_1, 8
_TIG_iO_4LpK_1___uint64_identity_1_opaque_list_1:
	.zero	8
	.globl	_TIG_iO_4LpK_1___bswap_32_1_opaque_list_1
	.align 8
	.type	_TIG_iO_4LpK_1___bswap_32_1_opaque_list_1, @object
	.size	_TIG_iO_4LpK_1___bswap_32_1_opaque_list_1, 8
_TIG_iO_4LpK_1___bswap_32_1_opaque_list_1:
	.zero	8
	.globl	_TIG_iO_4LpK_1_main_1_opaque_ptr_1
	.align 8
	.type	_TIG_iO_4LpK_1_main_1_opaque_ptr_1, @object
	.size	_TIG_iO_4LpK_1_main_1_opaque_ptr_1, 8
_TIG_iO_4LpK_1_main_1_opaque_ptr_1:
	.zero	8
	.globl	_TIG_iO_4LpK_1___uint32_identity_1_opaque_list_2
	.align 8
	.type	_TIG_iO_4LpK_1___uint32_identity_1_opaque_list_2, @object
	.size	_TIG_iO_4LpK_1___uint32_identity_1_opaque_list_2, 8
_TIG_iO_4LpK_1___uint32_identity_1_opaque_list_2:
	.zero	8
	.globl	_TIG_iO_4LpK_1_enqueue_1_opaque_ptr_2
	.align 8
	.type	_TIG_iO_4LpK_1_enqueue_1_opaque_ptr_2, @object
	.size	_TIG_iO_4LpK_1_enqueue_1_opaque_ptr_2, 8
_TIG_iO_4LpK_1_enqueue_1_opaque_ptr_2:
	.zero	8
	.globl	_TIG_iO_4LpK_1___bswap_16_1_opaque_ptr_2
	.align 8
	.type	_TIG_iO_4LpK_1___bswap_16_1_opaque_ptr_2, @object
	.size	_TIG_iO_4LpK_1___bswap_16_1_opaque_ptr_2, 8
_TIG_iO_4LpK_1___bswap_16_1_opaque_ptr_2:
	.zero	8
	.globl	_TIG_iO_4LpK_1___bswap_64_1_opaque_list_1
	.align 8
	.type	_TIG_iO_4LpK_1___bswap_64_1_opaque_list_1, @object
	.size	_TIG_iO_4LpK_1___bswap_64_1_opaque_list_1, 8
_TIG_iO_4LpK_1___bswap_64_1_opaque_list_1:
	.zero	8
	.globl	_TIG_iO_4LpK_1_dequeue_1_opaque_list_2
	.align 8
	.type	_TIG_iO_4LpK_1_dequeue_1_opaque_list_2, @object
	.size	_TIG_iO_4LpK_1_dequeue_1_opaque_list_2, 8
_TIG_iO_4LpK_1_dequeue_1_opaque_list_2:
	.zero	8
	.globl	_TIG_iO_4LpK_1___bswap_32_1_opaque_ptr_1
	.align 8
	.type	_TIG_iO_4LpK_1___bswap_32_1_opaque_ptr_1, @object
	.size	_TIG_iO_4LpK_1___bswap_32_1_opaque_ptr_1, 8
_TIG_iO_4LpK_1___bswap_32_1_opaque_ptr_1:
	.zero	8
	.globl	_TIG_iO_4LpK_1___bswap_64_1_opaque_list_2
	.align 8
	.type	_TIG_iO_4LpK_1___bswap_64_1_opaque_list_2, @object
	.size	_TIG_iO_4LpK_1___bswap_64_1_opaque_list_2, 8
_TIG_iO_4LpK_1___bswap_64_1_opaque_list_2:
	.zero	8
	.section	.rodata
.LC0:
	.string	"Queue is empty"
.LC1:
	.string	"\n\n%d Dequeued\n"
	.text
	.globl	dequeue
	.type	dequeue, @function
dequeue:
.LFB1:
	.cfi_startproc
	endbr64
	pushq	%rbp
	.cfi_def_cfa_offset 16
	.cfi_offset 6, -16
	movq	%rsp, %rbp
	.cfi_def_cfa_register 6
	subq	$64, %rsp
#APP
# 57 "/usr/include/x86_64-linux-gnu/bits/byteswap.h" 1
	##_ANNOTATION_INITIALREGION_-TIG-iO-4LpK-1-dequeue--14
# 0 "" 2
# 61 "/usr/include/x86_64-linux-gnu/bits/byteswap.h" 1
	##_ANNOTATION_ATOMICREGION_-TIG-iO-4LpK-1-dequeue--13
# 0 "" 2
#NO_APP
	movl	$24, %edi
	call	malloc@PLT
	movq	%rax, -40(%rbp)
	movq	-40(%rbp), %rax
	movq	-40(%rbp), %rdx
	movq	%rdx, (%rax)
	movq	-40(%rbp), %rax
	movq	-40(%rbp), %rdx
	movq	%rdx, 8(%rax)
	movq	-40(%rbp), %rax
	movq	%rax, _TIG_iO_4LpK_1_dequeue_1_opaque_list_1(%rip)
	call	rand@PLT
	movl	%eax, -56(%rbp)
	movl	$24, %edi
	call	malloc@PLT
	movq	%rax, -32(%rbp)
	movq	-32(%rbp), %rax
	movl	$0, 16(%rax)
	movq	_TIG_iO_4LpK_1_dequeue_1_opaque_list_1(%rip), %rax
	movq	(%rax), %rdx
	movq	-32(%rbp), %rax
	movq	%rdx, (%rax)
	movq	_TIG_iO_4LpK_1_dequeue_1_opaque_list_1(%rip), %rdx
	movq	-32(%rbp), %rax
	movq	%rdx, 8(%rax)
	movq	_TIG_iO_4LpK_1_dequeue_1_opaque_list_1(%rip), %rax
	movq	(%rax), %rax
	movq	-32(%rbp), %rdx
	movq	%rdx, 8(%rax)
	movq	_TIG_iO_4LpK_1_dequeue_1_opaque_list_1(%rip), %rax
	movq	-32(%rbp), %rdx
	movq	%rdx, (%rax)
	call	rand@PLT
	movl	%eax, -52(%rbp)
	movl	$24, %edi
	call	malloc@PLT
	movq	%rax, -24(%rbp)
	movq	-24(%rbp), %rax
	movl	-52(%rbp), %edx
	movl	%edx, 16(%rax)
	movq	_TIG_iO_4LpK_1_dequeue_1_opaque_list_1(%rip), %rax
	movq	(%rax), %rdx
	movq	-24(%rbp), %rax
	movq	%rdx, (%rax)
	movq	_TIG_iO_4LpK_1_dequeue_1_opaque_list_1(%rip), %rdx
	movq	-24(%rbp), %rax
	movq	%rdx, 8(%rax)
	movq	_TIG_iO_4LpK_1_dequeue_1_opaque_list_1(%rip), %rax
	movq	(%rax), %rax
	movq	-24(%rbp), %rdx
	movq	%rdx, 8(%rax)
	movq	_TIG_iO_4LpK_1_dequeue_1_opaque_list_1(%rip), %rax
	movq	-24(%rbp), %rdx
	movq	%rdx, (%rax)
	call	rand@PLT
	movl	%eax, -48(%rbp)
	movl	$24, %edi
	call	malloc@PLT
	movq	%rax, -16(%rbp)
	movl	-48(%rbp), %eax
	leal	(%rax,%rax), %edx
	movq	-16(%rbp), %rax
	movl	%edx, 16(%rax)
	movq	_TIG_iO_4LpK_1_dequeue_1_opaque_list_1(%rip), %rax
	movq	(%rax), %rdx
	movq	-16(%rbp), %rax
	movq	%rdx, (%rax)
	movq	_TIG_iO_4LpK_1_dequeue_1_opaque_list_1(%rip), %rdx
	movq	-16(%rbp), %rax
	movq	%rdx, 8(%rax)
	movq	_TIG_iO_4LpK_1_dequeue_1_opaque_list_1(%rip), %rax
	movq	(%rax), %rax
	movq	-16(%rbp), %rdx
	movq	%rdx, 8(%rax)
	movq	_TIG_iO_4LpK_1_dequeue_1_opaque_list_1(%rip), %rax
	movq	-16(%rbp), %rdx
	movq	%rdx, (%rax)
	call	rand@PLT
	movl	%eax, -44(%rbp)
	movl	$24, %edi
	call	malloc@PLT
	movq	%rax, -8(%rbp)
	movl	-44(%rbp), %edx
	movl	%edx, %eax
	addl	%eax, %eax
	addl	%eax, %edx
	movq	-8(%rbp), %rax
	movl	%edx, 16(%rax)
	movq	_TIG_iO_4LpK_1_dequeue_1_opaque_list_1(%rip), %rax
	movq	(%rax), %rdx
	movq	-8(%rbp), %rax
	movq	%rdx, (%rax)
	movq	_TIG_iO_4LpK_1_dequeue_1_opaque_list_1(%rip), %rdx
	movq	-8(%rbp), %rax
	movq	%rdx, 8(%rax)
	movq	_TIG_iO_4LpK_1_dequeue_1_opaque_list_1(%rip), %rax
	movq	(%rax), %rax
	movq	-8(%rbp), %rdx
	movq	%rdx, 8(%rax)
	movq	_TIG_iO_4LpK_1_dequeue_1_opaque_list_1(%rip), %rax
	movq	-8(%rbp), %rdx
	movq	%rdx, (%rax)
	movq	_TIG_iO_4LpK_1_dequeue_1_opaque_list_1(%rip), %rax
	movq	(%rax), %rax
	movq	%rax, _TIG_iO_4LpK_1_dequeue_1_opaque_ptr_1(%rip)
	movq	_TIG_iO_4LpK_1_dequeue_1_opaque_ptr_1(%rip), %rax
	movq	%rax, _TIG_iO_4LpK_1_dequeue_1_opaque_ptr_2(%rip)
	movq	_TIG_iO_4LpK_1_dequeue_1_opaque_ptr_2(%rip), %rax
	movq	(%rax), %rax
	movq	%rax, _TIG_iO_4LpK_1_dequeue_1_opaque_ptr_2(%rip)
	nop
	nop
	movl	front(%rip), %eax
	cmpl	$-1, %eax
	jne	.L2
	leaq	.LC0(%rip), %rax
	movq	%rax, %rdi
	call	puts@PLT
	jmp	.L1
.L2:
	movl	front(%rip), %eax
	cltq
	leaq	0(,%rax,4), %rdx
	leaq	queue(%rip), %rax
	movl	(%rdx,%rax), %eax
	movl	%eax, %esi
	leaq	.LC1(%rip), %rax
	movq	%rax, %rdi
	movl	$0, %eax
	call	printf@PLT
	movl	front(%rip), %edx
	movl	rear(%rip), %eax
	cmpl	%eax, %edx
	jne	.L4
	movl	$-1, rear(%rip)
	movl	rear(%rip), %eax
	movl	%eax, front(%rip)
	jmp	.L7
.L4:
	movq	_TIG_iO_4LpK_1_main_1_opaque_ptr_1(%rip), %rdx
	movq	_TIG_iO_4LpK_1_main_1_opaque_ptr_2(%rip), %rax
	cmpq	%rax, %rdx
	jne	.L6
	call	enqueue
.L6:
	movl	front(%rip), %eax
	addl	$1, %eax
	movl	%eax, front(%rip)
.L7:
	nop
.L1:
	leave
	.cfi_def_cfa 7, 8
	ret
	.cfi_endproc
.LFE1:
	.size	dequeue, .-dequeue
	.section	.rodata
	.align 8
.LC2:
	.string	"\n1. Enqueue \n2. Dequeue \n3. Exit \nEnter your option : "
.LC3:
	.string	"%d"
	.text
	.globl	main
	.type	main, @function
main:
.LFB2:
	.cfi_startproc
	endbr64
	pushq	%rbp
	.cfi_def_cfa_offset 16
	.cfi_offset 6, -16
	movq	%rsp, %rbp
	.cfi_def_cfa_register 6
	subq	$80, %rsp
	movl	%edi, -52(%rbp)
	movq	%rsi, -64(%rbp)
	movq	%rdx, -72(%rbp)
	movq	%fs:40, %rax
	movq	%rax, -8(%rbp)
	xorl	%eax, %eax
	movl	$-1, rear(%rip)
	nop
.L9:
	movl	$-1, front(%rip)
	nop
.L10:
	movl	$0, -44(%rbp)
	jmp	.L11
.L12:
	movl	-44(%rbp), %eax
	cltq
	leaq	0(,%rax,4), %rdx
	leaq	queue(%rip), %rax
	movl	$0, (%rdx,%rax)
	addl	$1, -44(%rbp)
.L11:
	cmpl	$4, -44(%rbp)
	jle	.L12
	nop
.L13:
	movq	$0, _TIG_IZ_4LpK_envp(%rip)
	nop
.L14:
	movq	$0, _TIG_IZ_4LpK_argv(%rip)
	nop
.L15:
	movl	$0, _TIG_IZ_4LpK_argc(%rip)
	nop
	nop
.L16:
.L17:
#APP
# 108 "JoyceMK_lab-works_8_1_queue.c" 1
	##_ANNOTATION_INITIALREGION_-TIG-IZ-4LpK--0
# 0 "" 2
#NO_APP
	movl	-52(%rbp), %eax
	movl	%eax, _TIG_IZ_4LpK_argc(%rip)
	movq	-64(%rbp), %rax
	movq	%rax, _TIG_IZ_4LpK_argv(%rip)
	movq	-72(%rbp), %rax
	movq	%rax, _TIG_IZ_4LpK_envp(%rip)
#APP
# 115 "JoyceMK_lab-works_8_1_queue.c" 1
	##_ANNOTATION_ATOMICREGION_-TIG-iO-4LpK-1-main--17
# 0 "" 2
#NO_APP
	movl	$24, %edi
	call	malloc@PLT
	movq	%rax, -32(%rbp)
	movq	-32(%rbp), %rax
	movq	-32(%rbp), %rdx
	movq	%rdx, 8(%rax)
	movq	-32(%rbp), %rax
	movq	-32(%rbp), %rdx
	movq	%rdx, (%rax)
	movq	-32(%rbp), %rax
	movq	%rax, _TIG_iO_4LpK_1_main_1_opaque_list_1(%rip)
	call	rand@PLT
	movl	%eax, -40(%rbp)
	movl	$24, %edi
	call	malloc@PLT
	movq	%rax, -24(%rbp)
	movq	-24(%rbp), %rax
	movl	$0, 16(%rax)
	movq	_TIG_iO_4LpK_1_main_1_opaque_list_1(%rip), %rax
	movq	8(%rax), %rdx
	movq	-24(%rbp), %rax
	movq	%rdx, 8(%rax)
	movq	_TIG_iO_4LpK_1_main_1_opaque_list_1(%rip), %rdx
	movq	-24(%rbp), %rax
	movq	%rdx, (%rax)
	movq	_TIG_iO_4LpK_1_main_1_opaque_list_1(%rip), %rax
	movq	8(%rax), %rax
	movq	-24(%rbp), %rdx
	movq	%rdx, (%rax)
	movq	_TIG_iO_4LpK_1_main_1_opaque_list_1(%rip), %rax
	movq	-24(%rbp), %rdx
	movq	%rdx, 8(%rax)
	call	rand@PLT
	movl	%eax, -36(%rbp)
	movl	$24, %edi
	call	malloc@PLT
	movq	%rax, -16(%rbp)
	movq	-16(%rbp), %rax
	movl	-36(%rbp), %edx
	movl	%edx, 16(%rax)
	movq	_TIG_iO_4LpK_1_main_1_opaque_list_1(%rip), %rax
	movq	8(%rax), %rdx
	movq	-16(%rbp), %rax
	movq	%rdx, 8(%rax)
	movq	_TIG_iO_4LpK_1_main_1_opaque_list_1(%rip), %rdx
	movq	-16(%rbp), %rax
	movq	%rdx, (%rax)
	movq	_TIG_iO_4LpK_1_main_1_opaque_list_1(%rip), %rax
	movq	8(%rax), %rax
	movq	-16(%rbp), %rdx
	movq	%rdx, (%rax)
	movq	_TIG_iO_4LpK_1_main_1_opaque_list_1(%rip), %rax
	movq	-16(%rbp), %rdx
	movq	%rdx, 8(%rax)
	movq	_TIG_iO_4LpK_1_main_1_opaque_list_1(%rip), %rax
	movq	8(%rax), %rax
	movq	%rax, _TIG_iO_4LpK_1_main_1_opaque_ptr_1(%rip)
	movq	_TIG_iO_4LpK_1_main_1_opaque_ptr_1(%rip), %rax
	movq	%rax, _TIG_iO_4LpK_1_main_1_opaque_ptr_2(%rip)
	movq	_TIG_iO_4LpK_1_main_1_opaque_ptr_2(%rip), %rax
	movq	8(%rax), %rax
	movq	%rax, _TIG_iO_4LpK_1_main_1_opaque_ptr_2(%rip)
	nop
	nop
.L24:
	leaq	.LC2(%rip), %rax
	movq	%rax, %rdi
	movl	$0, %eax
	call	printf@PLT
	leaq	-48(%rbp), %rax
	movq	%rax, %rsi
	leaq	.LC3(%rip), %rax
	movq	%rax, %rdi
	movl	$0, %eax
	call	__isoc99_scanf@PLT
	movq	_TIG_iO_4LpK_1_main_1_opaque_ptr_1(%rip), %rdx
	movq	_TIG_iO_4LpK_1_main_1_opaque_ptr_2(%rip), %rax
	cmpq	%rax, %rdx
	je	.L24
	movl	-48(%rbp), %eax
	cmpl	$3, %eax
	je	.L19
	cmpl	$3, %eax
	jg	.L24
	cmpl	$1, %eax
	je	.L21
	cmpl	$2, %eax
	je	.L22
	jmp	.L18
.L21:
	call	enqueue
	jmp	.L18
.L22:
	call	dequeue
	jmp	.L18
.L19:
	movl	$0, %eax
	movq	-8(%rbp), %rdx
	subq	%fs:40, %rdx
	je	.L25
	jmp	.L26
.L18:
	jmp	.L24
.L26:
	call	__stack_chk_fail@PLT
.L25:
	leave
	.cfi_def_cfa 7, 8
	ret
	.cfi_endproc
.LFE2:
	.size	main, .-main
	.section	.rodata
.LC4:
	.string	"Queue is full"
.LC5:
	.string	"Enter element : "
	.text
	.globl	enqueue
	.type	enqueue, @function
enqueue:
.LFB6:
	.cfi_startproc
	endbr64
	pushq	%rbp
	.cfi_def_cfa_offset 16
	.cfi_offset 6, -16
	movq	%rsp, %rbp
	.cfi_def_cfa_register 6
	subq	$32, %rsp
#APP
# 69 "/usr/include/x86_64-linux-gnu/bits/byteswap.h" 1
	##_ANNOTATION_INITIALREGION_-TIG-iO-4LpK-1-enqueue--16
# 0 "" 2
# 73 "/usr/include/x86_64-linux-gnu/bits/byteswap.h" 1
	##_ANNOTATION_ATOMICREGION_-TIG-iO-4LpK-1-enqueue--15
# 0 "" 2
#NO_APP
	movl	$24, %edi
	call	malloc@PLT
	movq	%rax, -24(%rbp)
	movq	-24(%rbp), %rax
	movq	-24(%rbp), %rdx
	movq	%rdx, 16(%rax)
	movq	-24(%rbp), %rax
	movq	-24(%rbp), %rdx
	movq	%rdx, 8(%rax)
	movq	-24(%rbp), %rax
	movq	%rax, _TIG_iO_4LpK_1_enqueue_1_opaque_list_1(%rip)
	call	rand@PLT
	movl	%eax, -32(%rbp)
	movl	$24, %edi
	call	malloc@PLT
	movq	%rax, -16(%rbp)
	movq	-16(%rbp), %rax
	movl	$0, (%rax)
	movq	_TIG_iO_4LpK_1_enqueue_1_opaque_list_1(%rip), %rax
	movq	16(%rax), %rdx
	movq	-16(%rbp), %rax
	movq	%rdx, 16(%rax)
	movq	_TIG_iO_4LpK_1_enqueue_1_opaque_list_1(%rip), %rdx
	movq	-16(%rbp), %rax
	movq	%rdx, 8(%rax)
	movq	_TIG_iO_4LpK_1_enqueue_1_opaque_list_1(%rip), %rax
	movq	16(%rax), %rax
	movq	-16(%rbp), %rdx
	movq	%rdx, 8(%rax)
	movq	_TIG_iO_4LpK_1_enqueue_1_opaque_list_1(%rip), %rax
	movq	-16(%rbp), %rdx
	movq	%rdx, 16(%rax)
	call	rand@PLT
	movl	%eax, -28(%rbp)
	movl	$24, %edi
	call	malloc@PLT
	movq	%rax, -8(%rbp)
	movq	-8(%rbp), %rax
	movl	-28(%rbp), %edx
	movl	%edx, (%rax)
	movq	_TIG_iO_4LpK_1_enqueue_1_opaque_list_1(%rip), %rax
	movq	16(%rax), %rdx
	movq	-8(%rbp), %rax
	movq	%rdx, 16(%rax)
	movq	_TIG_iO_4LpK_1_enqueue_1_opaque_list_1(%rip), %rdx
	movq	-8(%rbp), %rax
	movq	%rdx, 8(%rax)
	movq	_TIG_iO_4LpK_1_enqueue_1_opaque_list_1(%rip), %rax
	movq	16(%rax), %rax
	movq	-8(%rbp), %rdx
	movq	%rdx, 8(%rax)
	movq	_TIG_iO_4LpK_1_enqueue_1_opaque_list_1(%rip), %rax
	movq	-8(%rbp), %rdx
	movq	%rdx, 16(%rax)
	movq	_TIG_iO_4LpK_1_enqueue_1_opaque_list_1(%rip), %rax
	movq	16(%rax), %rax
	movq	%rax, _TIG_iO_4LpK_1_enqueue_1_opaque_ptr_1(%rip)
	movq	_TIG_iO_4LpK_1_enqueue_1_opaque_ptr_1(%rip), %rax
	movq	%rax, _TIG_iO_4LpK_1_enqueue_1_opaque_ptr_2(%rip)
	nop
	nop
	movl	rear(%rip), %eax
	cmpl	$4, %eax
	jne	.L28
	leaq	.LC4(%rip), %rax
	movq	%rax, %rdi
	call	puts@PLT
	movq	_TIG_iO_4LpK_1_main_1_opaque_ptr_1(%rip), %rdx
	movq	_TIG_iO_4LpK_1_main_1_opaque_ptr_2(%rip), %rax
	cmpq	%rax, %rdx
	jne	.L33
	call	enqueue
	jmp	.L33
.L28:
	movl	rear(%rip), %eax
	cmpl	$-1, %eax
	jne	.L31
	movl	$0, rear(%rip)
	movl	rear(%rip), %eax
	movl	%eax, front(%rip)
	jmp	.L32
.L31:
	movl	rear(%rip), %eax
	addl	$1, %eax
	movl	%eax, rear(%rip)
.L32:
	leaq	.LC5(%rip), %rax
	movq	%rax, %rdi
	movl	$0, %eax
	call	printf@PLT
	movl	rear(%rip), %eax
	cltq
	leaq	0(,%rax,4), %rdx
	leaq	queue(%rip), %rax
	addq	%rdx, %rax
	movq	%rax, %rsi
	leaq	.LC3(%rip), %rax
	movq	%rax, %rdi
	movl	$0, %eax
	call	__isoc99_scanf@PLT
	jmp	.L27
.L33:
	nop
.L27:
	leave
	.cfi_def_cfa 7, 8
	ret
	.cfi_endproc
.LFE6:
	.size	enqueue, .-enqueue
	.ident	"GCC: (Ubuntu 11.4.0-1ubuntu1~22.04) 11.4.0"
	.section	.note.GNU-stack,"",@progbits
	.section	.note.gnu.property,"a"
	.align 8
	.long	1f - 0f
	.long	4f - 1f
	.long	5
0:
	.string	"GNU"
1:
	.align 8
	.long	0xc0000002
	.long	3f - 2f
2:
	.long	0x3
3:
	.align 8
4:
