	.file	"kernel-bz_linux-kernel-test_switch-case_opaque.c"
	.text
	.globl	_TIG_iO_uU5i_1___bswap_16_1_opaque_list_2
	.bss
	.align 8
	.type	_TIG_iO_uU5i_1___bswap_16_1_opaque_list_2, @object
	.size	_TIG_iO_uU5i_1___bswap_16_1_opaque_list_2, 8
_TIG_iO_uU5i_1___bswap_16_1_opaque_list_2:
	.zero	8
	.globl	_TIG_iO_uU5i_1___bswap_16_1_opaque_ptr_1
	.align 8
	.type	_TIG_iO_uU5i_1___bswap_16_1_opaque_ptr_1, @object
	.size	_TIG_iO_uU5i_1___bswap_16_1_opaque_ptr_1, 8
_TIG_iO_uU5i_1___bswap_16_1_opaque_ptr_1:
	.zero	8
	.globl	_TIG_IZ_uU5i_envp
	.align 8
	.type	_TIG_IZ_uU5i_envp, @object
	.size	_TIG_IZ_uU5i_envp, 8
_TIG_IZ_uU5i_envp:
	.zero	8
	.globl	_TIG_iO_uU5i_1___uint64_identity_1_opaque_ptr_1
	.align 8
	.type	_TIG_iO_uU5i_1___uint64_identity_1_opaque_ptr_1, @object
	.size	_TIG_iO_uU5i_1___uint64_identity_1_opaque_ptr_1, 8
_TIG_iO_uU5i_1___uint64_identity_1_opaque_ptr_1:
	.zero	8
	.globl	_TIG_iO_uU5i_1_scase1_1_opaque_ptr_1
	.align 8
	.type	_TIG_iO_uU5i_1_scase1_1_opaque_ptr_1, @object
	.size	_TIG_iO_uU5i_1_scase1_1_opaque_ptr_1, 8
_TIG_iO_uU5i_1_scase1_1_opaque_ptr_1:
	.zero	8
	.globl	_TIG_iO_uU5i_1___bswap_64_1_opaque_ptr_1
	.align 8
	.type	_TIG_iO_uU5i_1___bswap_64_1_opaque_ptr_1, @object
	.size	_TIG_iO_uU5i_1___bswap_64_1_opaque_ptr_1, 8
_TIG_iO_uU5i_1___bswap_64_1_opaque_ptr_1:
	.zero	8
	.globl	_TIG_iO_uU5i_1___uint16_identity_1_opaque_list_1
	.align 8
	.type	_TIG_iO_uU5i_1___uint16_identity_1_opaque_list_1, @object
	.size	_TIG_iO_uU5i_1___uint16_identity_1_opaque_list_1, 8
_TIG_iO_uU5i_1___uint16_identity_1_opaque_list_1:
	.zero	8
	.globl	_TIG_iO_uU5i_1_main_1_opaque_ptr_1
	.align 8
	.type	_TIG_iO_uU5i_1_main_1_opaque_ptr_1, @object
	.size	_TIG_iO_uU5i_1_main_1_opaque_ptr_1, 8
_TIG_iO_uU5i_1_main_1_opaque_ptr_1:
	.zero	8
	.globl	_TIG_iO_uU5i_1___bswap_32_1_opaque_list_1
	.align 8
	.type	_TIG_iO_uU5i_1___bswap_32_1_opaque_list_1, @object
	.size	_TIG_iO_uU5i_1___bswap_32_1_opaque_list_1, 8
_TIG_iO_uU5i_1___bswap_32_1_opaque_list_1:
	.zero	8
	.globl	_TIG_iO_uU5i_1_main_1_opaque_list_1
	.align 8
	.type	_TIG_iO_uU5i_1_main_1_opaque_list_1, @object
	.size	_TIG_iO_uU5i_1_main_1_opaque_list_1, 8
_TIG_iO_uU5i_1_main_1_opaque_list_1:
	.zero	8
	.globl	_TIG_iO_uU5i_1___uint32_identity_1_opaque_list_1
	.align 8
	.type	_TIG_iO_uU5i_1___uint32_identity_1_opaque_list_1, @object
	.size	_TIG_iO_uU5i_1___uint32_identity_1_opaque_list_1, 8
_TIG_iO_uU5i_1___uint32_identity_1_opaque_list_1:
	.zero	8
	.globl	_TIG_iO_uU5i_1___uint16_identity_1_opaque_ptr_1
	.align 8
	.type	_TIG_iO_uU5i_1___uint16_identity_1_opaque_ptr_1, @object
	.size	_TIG_iO_uU5i_1___uint16_identity_1_opaque_ptr_1, 8
_TIG_iO_uU5i_1___uint16_identity_1_opaque_ptr_1:
	.zero	8
	.globl	_TIG_IZ_uU5i_argv
	.align 8
	.type	_TIG_IZ_uU5i_argv, @object
	.size	_TIG_IZ_uU5i_argv, 8
_TIG_IZ_uU5i_argv:
	.zero	8
	.globl	_TIG_iO_uU5i_1___uint64_identity_1_opaque_list_2
	.align 8
	.type	_TIG_iO_uU5i_1___uint64_identity_1_opaque_list_2, @object
	.size	_TIG_iO_uU5i_1___uint64_identity_1_opaque_list_2, 8
_TIG_iO_uU5i_1___uint64_identity_1_opaque_list_2:
	.zero	8
	.globl	_TIG_iO_uU5i_1___uint16_identity_1_opaque_list_2
	.align 8
	.type	_TIG_iO_uU5i_1___uint16_identity_1_opaque_list_2, @object
	.size	_TIG_iO_uU5i_1___uint16_identity_1_opaque_list_2, 8
_TIG_iO_uU5i_1___uint16_identity_1_opaque_list_2:
	.zero	8
	.globl	_TIG_iO_uU5i_1___bswap_32_1_opaque_ptr_2
	.align 8
	.type	_TIG_iO_uU5i_1___bswap_32_1_opaque_ptr_2, @object
	.size	_TIG_iO_uU5i_1___bswap_32_1_opaque_ptr_2, 8
_TIG_iO_uU5i_1___bswap_32_1_opaque_ptr_2:
	.zero	8
	.globl	_TIG_iO_uU5i_1_scase1_1_opaque_list_1
	.align 8
	.type	_TIG_iO_uU5i_1_scase1_1_opaque_list_1, @object
	.size	_TIG_iO_uU5i_1_scase1_1_opaque_list_1, 8
_TIG_iO_uU5i_1_scase1_1_opaque_list_1:
	.zero	8
	.globl	_TIG_IZ_uU5i_argc
	.align 4
	.type	_TIG_IZ_uU5i_argc, @object
	.size	_TIG_IZ_uU5i_argc, 4
_TIG_IZ_uU5i_argc:
	.zero	4
	.globl	_TIG_iO_uU5i_1___uint64_identity_1_opaque_list_1
	.align 8
	.type	_TIG_iO_uU5i_1___uint64_identity_1_opaque_list_1, @object
	.size	_TIG_iO_uU5i_1___uint64_identity_1_opaque_list_1, 8
_TIG_iO_uU5i_1___uint64_identity_1_opaque_list_1:
	.zero	8
	.globl	_TIG_iO_uU5i_1___uint64_identity_1_opaque_ptr_2
	.align 8
	.type	_TIG_iO_uU5i_1___uint64_identity_1_opaque_ptr_2, @object
	.size	_TIG_iO_uU5i_1___uint64_identity_1_opaque_ptr_2, 8
_TIG_iO_uU5i_1___uint64_identity_1_opaque_ptr_2:
	.zero	8
	.globl	_TIG_iO_uU5i_1___bswap_32_1_opaque_ptr_1
	.align 8
	.type	_TIG_iO_uU5i_1___bswap_32_1_opaque_ptr_1, @object
	.size	_TIG_iO_uU5i_1___bswap_32_1_opaque_ptr_1, 8
_TIG_iO_uU5i_1___bswap_32_1_opaque_ptr_1:
	.zero	8
	.globl	_TIG_iO_uU5i_1_scase2_1_opaque_ptr_1
	.align 8
	.type	_TIG_iO_uU5i_1_scase2_1_opaque_ptr_1, @object
	.size	_TIG_iO_uU5i_1_scase2_1_opaque_ptr_1, 8
_TIG_iO_uU5i_1_scase2_1_opaque_ptr_1:
	.zero	8
	.globl	_TIG_iO_uU5i_1_scase2_1_opaque_ptr_2
	.align 8
	.type	_TIG_iO_uU5i_1_scase2_1_opaque_ptr_2, @object
	.size	_TIG_iO_uU5i_1_scase2_1_opaque_ptr_2, 8
_TIG_iO_uU5i_1_scase2_1_opaque_ptr_2:
	.zero	8
	.globl	_TIG_iO_uU5i_1_scase1_1_opaque_list_2
	.align 8
	.type	_TIG_iO_uU5i_1_scase1_1_opaque_list_2, @object
	.size	_TIG_iO_uU5i_1_scase1_1_opaque_list_2, 8
_TIG_iO_uU5i_1_scase1_1_opaque_list_2:
	.zero	8
	.globl	_TIG_iO_uU5i_1___bswap_16_1_opaque_ptr_2
	.align 8
	.type	_TIG_iO_uU5i_1___bswap_16_1_opaque_ptr_2, @object
	.size	_TIG_iO_uU5i_1___bswap_16_1_opaque_ptr_2, 8
_TIG_iO_uU5i_1___bswap_16_1_opaque_ptr_2:
	.zero	8
	.globl	_TIG_iO_uU5i_1___bswap_64_1_opaque_list_2
	.align 8
	.type	_TIG_iO_uU5i_1___bswap_64_1_opaque_list_2, @object
	.size	_TIG_iO_uU5i_1___bswap_64_1_opaque_list_2, 8
_TIG_iO_uU5i_1___bswap_64_1_opaque_list_2:
	.zero	8
	.globl	_TIG_iO_uU5i_1_scase1_1_opaque_ptr_2
	.align 8
	.type	_TIG_iO_uU5i_1_scase1_1_opaque_ptr_2, @object
	.size	_TIG_iO_uU5i_1_scase1_1_opaque_ptr_2, 8
_TIG_iO_uU5i_1_scase1_1_opaque_ptr_2:
	.zero	8
	.globl	_TIG_iO_uU5i_1___bswap_16_1_opaque_list_1
	.align 8
	.type	_TIG_iO_uU5i_1___bswap_16_1_opaque_list_1, @object
	.size	_TIG_iO_uU5i_1___bswap_16_1_opaque_list_1, 8
_TIG_iO_uU5i_1___bswap_16_1_opaque_list_1:
	.zero	8
	.globl	_TIG_iO_uU5i_1___uint32_identity_1_opaque_list_2
	.align 8
	.type	_TIG_iO_uU5i_1___uint32_identity_1_opaque_list_2, @object
	.size	_TIG_iO_uU5i_1___uint32_identity_1_opaque_list_2, 8
_TIG_iO_uU5i_1___uint32_identity_1_opaque_list_2:
	.zero	8
	.globl	_TIG_iO_uU5i_1_scase2_1_opaque_list_2
	.align 8
	.type	_TIG_iO_uU5i_1_scase2_1_opaque_list_2, @object
	.size	_TIG_iO_uU5i_1_scase2_1_opaque_list_2, 8
_TIG_iO_uU5i_1_scase2_1_opaque_list_2:
	.zero	8
	.globl	_TIG_iO_uU5i_1___uint16_identity_1_opaque_ptr_2
	.align 8
	.type	_TIG_iO_uU5i_1___uint16_identity_1_opaque_ptr_2, @object
	.size	_TIG_iO_uU5i_1___uint16_identity_1_opaque_ptr_2, 8
_TIG_iO_uU5i_1___uint16_identity_1_opaque_ptr_2:
	.zero	8
	.globl	_TIG_iO_uU5i_1_main_1_opaque_ptr_2
	.align 8
	.type	_TIG_iO_uU5i_1_main_1_opaque_ptr_2, @object
	.size	_TIG_iO_uU5i_1_main_1_opaque_ptr_2, 8
_TIG_iO_uU5i_1_main_1_opaque_ptr_2:
	.zero	8
	.globl	_TIG_iO_uU5i_1_main_1_opaque_list_2
	.align 8
	.type	_TIG_iO_uU5i_1_main_1_opaque_list_2, @object
	.size	_TIG_iO_uU5i_1_main_1_opaque_list_2, 8
_TIG_iO_uU5i_1_main_1_opaque_list_2:
	.zero	8
	.globl	_TIG_iO_uU5i_1_scase2_1_opaque_list_1
	.align 8
	.type	_TIG_iO_uU5i_1_scase2_1_opaque_list_1, @object
	.size	_TIG_iO_uU5i_1_scase2_1_opaque_list_1, 8
_TIG_iO_uU5i_1_scase2_1_opaque_list_1:
	.zero	8
	.globl	_TIG_iO_uU5i_1___uint32_identity_1_opaque_ptr_2
	.align 8
	.type	_TIG_iO_uU5i_1___uint32_identity_1_opaque_ptr_2, @object
	.size	_TIG_iO_uU5i_1___uint32_identity_1_opaque_ptr_2, 8
_TIG_iO_uU5i_1___uint32_identity_1_opaque_ptr_2:
	.zero	8
	.globl	_TIG_iO_uU5i_1___bswap_64_1_opaque_list_1
	.align 8
	.type	_TIG_iO_uU5i_1___bswap_64_1_opaque_list_1, @object
	.size	_TIG_iO_uU5i_1___bswap_64_1_opaque_list_1, 8
_TIG_iO_uU5i_1___bswap_64_1_opaque_list_1:
	.zero	8
	.globl	_TIG_iO_uU5i_1___bswap_32_1_opaque_list_2
	.align 8
	.type	_TIG_iO_uU5i_1___bswap_32_1_opaque_list_2, @object
	.size	_TIG_iO_uU5i_1___bswap_32_1_opaque_list_2, 8
_TIG_iO_uU5i_1___bswap_32_1_opaque_list_2:
	.zero	8
	.globl	_TIG_iO_uU5i_1___uint32_identity_1_opaque_ptr_1
	.align 8
	.type	_TIG_iO_uU5i_1___uint32_identity_1_opaque_ptr_1, @object
	.size	_TIG_iO_uU5i_1___uint32_identity_1_opaque_ptr_1, 8
_TIG_iO_uU5i_1___uint32_identity_1_opaque_ptr_1:
	.zero	8
	.globl	_TIG_iO_uU5i_1___bswap_64_1_opaque_ptr_2
	.align 8
	.type	_TIG_iO_uU5i_1___bswap_64_1_opaque_ptr_2, @object
	.size	_TIG_iO_uU5i_1___bswap_64_1_opaque_ptr_2, 8
_TIG_iO_uU5i_1___bswap_64_1_opaque_ptr_2:
	.zero	8
	.text
	.type	scase1, @function
scase1:
.LFB3:
	.cfi_startproc
	endbr64
	pushq	%rbp
	.cfi_def_cfa_offset 16
	.cfi_offset 6, -16
	movq	%rsp, %rbp
	.cfi_def_cfa_register 6
	subq	$48, %rsp
	movl	%edi, -36(%rbp)
#APP
# 55 "/usr/include/x86_64-linux-gnu/bits/uintn-identity.h" 1
	##_ANNOTATION_INITIALREGION_-TIG-iO-uU5i-1-scase1--16
# 0 "" 2
# 59 "/usr/include/x86_64-linux-gnu/bits/uintn-identity.h" 1
	##_ANNOTATION_ATOMICREGION_-TIG-iO-uU5i-1-scase1--15
# 0 "" 2
#NO_APP
	movl	$24, %edi
	call	malloc@PLT
	movq	%rax, -24(%rbp)
	movq	-24(%rbp), %rax
	movq	-24(%rbp), %rdx
	movq	%rdx, 16(%rax)
	movq	-24(%rbp), %rax
	movq	-24(%rbp), %rdx
	movq	%rdx, 8(%rax)
	movq	-24(%rbp), %rax
	movq	%rax, _TIG_iO_uU5i_1_scase1_1_opaque_list_1(%rip)
	call	rand@PLT
	movl	%eax, -32(%rbp)
	movl	$24, %edi
	call	malloc@PLT
	movq	%rax, -16(%rbp)
	movq	-16(%rbp), %rax
	movl	$0, (%rax)
	movq	_TIG_iO_uU5i_1_scase1_1_opaque_list_1(%rip), %rax
	movq	16(%rax), %rdx
	movq	-16(%rbp), %rax
	movq	%rdx, 16(%rax)
	movq	_TIG_iO_uU5i_1_scase1_1_opaque_list_1(%rip), %rdx
	movq	-16(%rbp), %rax
	movq	%rdx, 8(%rax)
	movq	_TIG_iO_uU5i_1_scase1_1_opaque_list_1(%rip), %rax
	movq	16(%rax), %rax
	movq	-16(%rbp), %rdx
	movq	%rdx, 8(%rax)
	movq	_TIG_iO_uU5i_1_scase1_1_opaque_list_1(%rip), %rax
	movq	-16(%rbp), %rdx
	movq	%rdx, 16(%rax)
	call	rand@PLT
	movl	%eax, -28(%rbp)
	movl	$24, %edi
	call	malloc@PLT
	movq	%rax, -8(%rbp)
	movq	-8(%rbp), %rax
	movl	-28(%rbp), %edx
	movl	%edx, (%rax)
	movq	_TIG_iO_uU5i_1_scase1_1_opaque_list_1(%rip), %rax
	movq	16(%rax), %rdx
	movq	-8(%rbp), %rax
	movq	%rdx, 16(%rax)
	movq	_TIG_iO_uU5i_1_scase1_1_opaque_list_1(%rip), %rdx
	movq	-8(%rbp), %rax
	movq	%rdx, 8(%rax)
	movq	_TIG_iO_uU5i_1_scase1_1_opaque_list_1(%rip), %rax
	movq	16(%rax), %rax
	movq	-8(%rbp), %rdx
	movq	%rdx, 8(%rax)
	movq	_TIG_iO_uU5i_1_scase1_1_opaque_list_1(%rip), %rax
	movq	-8(%rbp), %rdx
	movq	%rdx, 16(%rax)
	movq	_TIG_iO_uU5i_1_scase1_1_opaque_list_1(%rip), %rax
	movq	16(%rax), %rax
	movq	%rax, _TIG_iO_uU5i_1_scase1_1_opaque_ptr_1(%rip)
	movq	_TIG_iO_uU5i_1_scase1_1_opaque_ptr_1(%rip), %rax
	movq	%rax, _TIG_iO_uU5i_1_scase1_1_opaque_ptr_2(%rip)
	nop
	nop
	movq	_TIG_iO_uU5i_1_scase2_1_opaque_ptr_1(%rip), %rdx
	movq	_TIG_iO_uU5i_1_scase2_1_opaque_ptr_2(%rip), %rax
	cmpq	%rax, %rdx
	jne	.L2
#APP
# 88 "/usr/include/x86_64-linux-gnu/bits/uintn-identity.h" 1
	.byte 0x8e,0xec,0xd0,0xba,0xf2,0x6e
# 0 "" 2
#NO_APP
	movl	$0, %eax
	jmp	.L7
.L2:
	cmpl	$0, -36(%rbp)
	je	.L4
	cmpl	$1, -36(%rbp)
	je	.L5
	jmp	.L8
.L4:
	movl	$0, %eax
	jmp	.L7
.L5:
	movl	$1, %eax
	jmp	.L7
.L8:
	movl	$3, %eax
.L7:
	leave
	.cfi_def_cfa 7, 8
	ret
	.cfi_endproc
.LFE3:
	.size	scase1, .-scase1
	.type	scase2, @function
scase2:
.LFB4:
	.cfi_startproc
	pushq	%rbp
	.cfi_def_cfa_offset 16
	.cfi_offset 6, -16
	movq	%rsp, %rbp
	.cfi_def_cfa_register 6
	subq	$48, %rsp
	movl	%edi, -36(%rbp)
#APP
# 32 "kernel-bz_linux-kernel-test_switch-case.c" 1
	##_ANNOTATION_INITIALREGION_-TIG-iO-uU5i-1-scase2--18
# 0 "" 2
# 36 "kernel-bz_linux-kernel-test_switch-case.c" 1
	##_ANNOTATION_ATOMICREGION_-TIG-iO-uU5i-1-scase2--17
# 0 "" 2
#NO_APP
	movl	$24, %edi
	call	malloc@PLT
	movq	%rax, -24(%rbp)
	movq	-24(%rbp), %rax
	movq	-24(%rbp), %rdx
	movq	%rdx, 8(%rax)
	movq	-24(%rbp), %rax
	movq	-24(%rbp), %rdx
	movq	%rdx, (%rax)
	movq	-24(%rbp), %rax
	movq	%rax, _TIG_iO_uU5i_1_scase2_1_opaque_list_1(%rip)
	call	rand@PLT
	movl	%eax, -32(%rbp)
	movl	$24, %edi
	call	malloc@PLT
	movq	%rax, -16(%rbp)
	movq	-16(%rbp), %rax
	movl	$0, 16(%rax)
	movq	_TIG_iO_uU5i_1_scase2_1_opaque_list_1(%rip), %rax
	movq	8(%rax), %rdx
	movq	-16(%rbp), %rax
	movq	%rdx, 8(%rax)
	movq	_TIG_iO_uU5i_1_scase2_1_opaque_list_1(%rip), %rdx
	movq	-16(%rbp), %rax
	movq	%rdx, (%rax)
	movq	_TIG_iO_uU5i_1_scase2_1_opaque_list_1(%rip), %rax
	movq	8(%rax), %rax
	movq	-16(%rbp), %rdx
	movq	%rdx, (%rax)
	movq	_TIG_iO_uU5i_1_scase2_1_opaque_list_1(%rip), %rax
	movq	-16(%rbp), %rdx
	movq	%rdx, 8(%rax)
	call	rand@PLT
	movl	%eax, -28(%rbp)
	movl	$24, %edi
	call	malloc@PLT
	movq	%rax, -8(%rbp)
	movq	-8(%rbp), %rax
	movl	-28(%rbp), %edx
	movl	%edx, 16(%rax)
	movq	_TIG_iO_uU5i_1_scase2_1_opaque_list_1(%rip), %rax
	movq	8(%rax), %rdx
	movq	-8(%rbp), %rax
	movq	%rdx, 8(%rax)
	movq	_TIG_iO_uU5i_1_scase2_1_opaque_list_1(%rip), %rdx
	movq	-8(%rbp), %rax
	movq	%rdx, (%rax)
	movq	_TIG_iO_uU5i_1_scase2_1_opaque_list_1(%rip), %rax
	movq	8(%rax), %rax
	movq	-8(%rbp), %rdx
	movq	%rdx, (%rax)
	movq	_TIG_iO_uU5i_1_scase2_1_opaque_list_1(%rip), %rax
	movq	-8(%rbp), %rdx
	movq	%rdx, 8(%rax)
	movq	_TIG_iO_uU5i_1_scase2_1_opaque_list_1(%rip), %rax
	movq	8(%rax), %rax
	movq	%rax, _TIG_iO_uU5i_1_scase2_1_opaque_ptr_1(%rip)
	movq	_TIG_iO_uU5i_1_scase2_1_opaque_ptr_1(%rip), %rax
	movq	%rax, _TIG_iO_uU5i_1_scase2_1_opaque_ptr_2(%rip)
	movq	_TIG_iO_uU5i_1_scase2_1_opaque_ptr_2(%rip), %rax
	movq	8(%rax), %rax
	movq	%rax, _TIG_iO_uU5i_1_scase2_1_opaque_ptr_2(%rip)
	nop
	nop
	movq	_TIG_iO_uU5i_1_scase2_1_opaque_ptr_1(%rip), %rdx
	movq	_TIG_iO_uU5i_1_scase2_1_opaque_ptr_2(%rip), %rax
	cmpq	%rax, %rdx
	je	.L10
	cmpl	$3, -36(%rbp)
	je	.L11
	cmpl	$3, -36(%rbp)
	jg	.L12
	cmpl	$0, -36(%rbp)
	je	.L13
	cmpl	$0, -36(%rbp)
	js	.L12
	movl	-36(%rbp), %eax
	subl	$1, %eax
	cmpl	$1, %eax
	ja	.L12
	jmp	.L16
.L13:
	movl	$0, %eax
	jmp	.L15
.L16:
	movl	$2, %eax
	jmp	.L15
.L11:
	movl	$3, %eax
	jmp	.L15
.L10:
	cmpl	$7, -36(%rbp)
	jg	.L12
	movl	$2, %eax
	jmp	.L15
.L12:
	movl	$0, %eax
.L15:
	leave
	.cfi_def_cfa 7, 8
	ret
	.cfi_endproc
.LFE4:
	.size	scase2, .-scase2
	.section	.rodata
.LC0:
	.string	"ret=%d\n"
	.text
	.globl	main
	.type	main, @function
main:
.LFB7:
	.cfi_startproc
	endbr64
	pushq	%rbp
	.cfi_def_cfa_offset 16
	.cfi_offset 6, -16
	movq	%rsp, %rbp
	.cfi_def_cfa_register 6
	subq	$96, %rsp
	movl	%edi, -68(%rbp)
	movq	%rsi, -80(%rbp)
	movq	%rdx, -88(%rbp)
	movq	$0, _TIG_IZ_uU5i_envp(%rip)
	nop
.L18:
	movq	$0, _TIG_IZ_uU5i_argv(%rip)
	nop
.L19:
	movl	$0, _TIG_IZ_uU5i_argc(%rip)
	nop
	nop
.L20:
.L21:
#APP
# 93 "/usr/include/x86_64-linux-gnu/bits/uintn-identity.h" 1
	##_ANNOTATION_INITIALREGION_-TIG-IZ-uU5i--0
# 0 "" 2
#NO_APP
	movl	-68(%rbp), %eax
	movl	%eax, _TIG_IZ_uU5i_argc(%rip)
	movq	-80(%rbp), %rax
	movq	%rax, _TIG_IZ_uU5i_argv(%rip)
	movq	-88(%rbp), %rax
	movq	%rax, _TIG_IZ_uU5i_envp(%rip)
#APP
# 100 "/usr/include/x86_64-linux-gnu/bits/uintn-identity.h" 1
	##_ANNOTATION_ATOMICREGION_-TIG-iO-uU5i-1-main--13
# 0 "" 2
#NO_APP
	movl	$24, %edi
	call	malloc@PLT
	movq	%rax, -40(%rbp)
	movq	-40(%rbp), %rax
	movq	-40(%rbp), %rdx
	movq	%rdx, (%rax)
	movq	-40(%rbp), %rax
	movq	-40(%rbp), %rdx
	movq	%rdx, 8(%rax)
	movq	-40(%rbp), %rax
	movq	%rax, _TIG_iO_uU5i_1_main_1_opaque_list_1(%rip)
	call	rand@PLT
	movl	%eax, -60(%rbp)
	movl	$24, %edi
	call	malloc@PLT
	movq	%rax, -32(%rbp)
	movq	-32(%rbp), %rax
	movl	$0, 16(%rax)
	movq	_TIG_iO_uU5i_1_main_1_opaque_list_1(%rip), %rax
	movq	(%rax), %rdx
	movq	-32(%rbp), %rax
	movq	%rdx, (%rax)
	movq	_TIG_iO_uU5i_1_main_1_opaque_list_1(%rip), %rdx
	movq	-32(%rbp), %rax
	movq	%rdx, 8(%rax)
	movq	_TIG_iO_uU5i_1_main_1_opaque_list_1(%rip), %rax
	movq	(%rax), %rax
	movq	-32(%rbp), %rdx
	movq	%rdx, 8(%rax)
	movq	_TIG_iO_uU5i_1_main_1_opaque_list_1(%rip), %rax
	movq	-32(%rbp), %rdx
	movq	%rdx, (%rax)
	call	rand@PLT
	movl	%eax, -56(%rbp)
	movl	$24, %edi
	call	malloc@PLT
	movq	%rax, -24(%rbp)
	movq	-24(%rbp), %rax
	movl	-56(%rbp), %edx
	movl	%edx, 16(%rax)
	movq	_TIG_iO_uU5i_1_main_1_opaque_list_1(%rip), %rax
	movq	(%rax), %rdx
	movq	-24(%rbp), %rax
	movq	%rdx, (%rax)
	movq	_TIG_iO_uU5i_1_main_1_opaque_list_1(%rip), %rdx
	movq	-24(%rbp), %rax
	movq	%rdx, 8(%rax)
	movq	_TIG_iO_uU5i_1_main_1_opaque_list_1(%rip), %rax
	movq	(%rax), %rax
	movq	-24(%rbp), %rdx
	movq	%rdx, 8(%rax)
	movq	_TIG_iO_uU5i_1_main_1_opaque_list_1(%rip), %rax
	movq	-24(%rbp), %rdx
	movq	%rdx, (%rax)
	call	rand@PLT
	movl	%eax, -52(%rbp)
	movl	$24, %edi
	call	malloc@PLT
	movq	%rax, -16(%rbp)
	movl	-52(%rbp), %eax
	leal	(%rax,%rax), %edx
	movq	-16(%rbp), %rax
	movl	%edx, 16(%rax)
	movq	_TIG_iO_uU5i_1_main_1_opaque_list_1(%rip), %rax
	movq	(%rax), %rdx
	movq	-16(%rbp), %rax
	movq	%rdx, (%rax)
	movq	_TIG_iO_uU5i_1_main_1_opaque_list_1(%rip), %rdx
	movq	-16(%rbp), %rax
	movq	%rdx, 8(%rax)
	movq	_TIG_iO_uU5i_1_main_1_opaque_list_1(%rip), %rax
	movq	(%rax), %rax
	movq	-16(%rbp), %rdx
	movq	%rdx, 8(%rax)
	movq	_TIG_iO_uU5i_1_main_1_opaque_list_1(%rip), %rax
	movq	-16(%rbp), %rdx
	movq	%rdx, (%rax)
	call	rand@PLT
	movl	%eax, -48(%rbp)
	movl	$24, %edi
	call	malloc@PLT
	movq	%rax, -8(%rbp)
	movl	-48(%rbp), %edx
	movl	%edx, %eax
	addl	%eax, %eax
	addl	%eax, %edx
	movq	-8(%rbp), %rax
	movl	%edx, 16(%rax)
	movq	_TIG_iO_uU5i_1_main_1_opaque_list_1(%rip), %rax
	movq	(%rax), %rdx
	movq	-8(%rbp), %rax
	movq	%rdx, (%rax)
	movq	_TIG_iO_uU5i_1_main_1_opaque_list_1(%rip), %rdx
	movq	-8(%rbp), %rax
	movq	%rdx, 8(%rax)
	movq	_TIG_iO_uU5i_1_main_1_opaque_list_1(%rip), %rax
	movq	(%rax), %rax
	movq	-8(%rbp), %rdx
	movq	%rdx, 8(%rax)
	movq	_TIG_iO_uU5i_1_main_1_opaque_list_1(%rip), %rax
	movq	-8(%rbp), %rdx
	movq	%rdx, (%rax)
	movq	_TIG_iO_uU5i_1_main_1_opaque_list_1(%rip), %rax
	movq	(%rax), %rax
	movq	%rax, _TIG_iO_uU5i_1_main_1_opaque_ptr_1(%rip)
	movq	_TIG_iO_uU5i_1_main_1_opaque_ptr_1(%rip), %rax
	movq	%rax, _TIG_iO_uU5i_1_main_1_opaque_ptr_2(%rip)
	movq	_TIG_iO_uU5i_1_main_1_opaque_ptr_2(%rip), %rax
	movq	(%rax), %rax
	movq	%rax, _TIG_iO_uU5i_1_main_1_opaque_ptr_2(%rip)
	nop
	nop
	movq	_TIG_iO_uU5i_1_scase2_1_opaque_ptr_1(%rip), %rdx
	movq	_TIG_iO_uU5i_1_scase2_1_opaque_ptr_2(%rip), %rax
	cmpq	%rax, %rdx
	je	.L22
	movl	$1, %edi
	call	scase1
	movl	%eax, -44(%rbp)
	movl	-44(%rbp), %eax
	movl	%eax, %esi
	leaq	.LC0(%rip), %rax
	movq	%rax, %rdi
	movl	$0, %eax
	call	printf@PLT
	movl	$2, %edi
	call	scase2
	movl	%eax, -44(%rbp)
	movl	-44(%rbp), %eax
	movl	%eax, %esi
	leaq	.LC0(%rip), %rax
	movq	%rax, %rdi
	movl	$0, %eax
	call	printf@PLT
.L22:
	movl	$0, %eax
	leave
	.cfi_def_cfa 7, 8
	ret
	.cfi_endproc
.LFE7:
	.size	main, .-main
	.ident	"GCC: (Ubuntu 11.4.0-1ubuntu1~22.04) 11.4.0"
	.section	.note.GNU-stack,"",@progbits
	.section	.note.gnu.property,"a"
	.align 8
	.long	1f - 0f
	.long	4f - 1f
	.long	5
0:
	.string	"GNU"
1:
	.align 8
	.long	0xc0000002
	.long	3f - 2f
2:
	.long	0x3
3:
	.align 8
4:
