	.file	"kohtoa15_adventofcode_main_opaque.c"
	.text
	.globl	_TIG_iO_UTq2_1_feedInput_1_opaque_list_1
	.bss
	.align 8
	.type	_TIG_iO_UTq2_1_feedInput_1_opaque_list_1, @object
	.size	_TIG_iO_UTq2_1_feedInput_1_opaque_list_1, 8
_TIG_iO_UTq2_1_feedInput_1_opaque_list_1:
	.zero	8
	.globl	_TIG_iO_UTq2_1_getFittingKeysLocks_1_opaque_ptr_2
	.align 8
	.type	_TIG_iO_UTq2_1_getFittingKeysLocks_1_opaque_ptr_2, @object
	.size	_TIG_iO_UTq2_1_getFittingKeysLocks_1_opaque_ptr_2, 8
_TIG_iO_UTq2_1_getFittingKeysLocks_1_opaque_ptr_2:
	.zero	8
	.globl	_TIG_iO_UTq2_1_initState_1_opaque_ptr_1
	.align 8
	.type	_TIG_iO_UTq2_1_initState_1_opaque_ptr_1, @object
	.size	_TIG_iO_UTq2_1_initState_1_opaque_ptr_1, 8
_TIG_iO_UTq2_1_initState_1_opaque_ptr_1:
	.zero	8
	.globl	_TIG_iO_UTq2_1_convertKeysAndLocks_1_opaque_ptr_2
	.align 8
	.type	_TIG_iO_UTq2_1_convertKeysAndLocks_1_opaque_ptr_2, @object
	.size	_TIG_iO_UTq2_1_convertKeysAndLocks_1_opaque_ptr_2, 8
_TIG_iO_UTq2_1_convertKeysAndLocks_1_opaque_ptr_2:
	.zero	8
	.globl	_TIG_iO_UTq2_1___bswap_64_1_opaque_list_2
	.align 8
	.type	_TIG_iO_UTq2_1___bswap_64_1_opaque_list_2, @object
	.size	_TIG_iO_UTq2_1___bswap_64_1_opaque_list_2, 8
_TIG_iO_UTq2_1___bswap_64_1_opaque_list_2:
	.zero	8
	.globl	_TIG_iO_UTq2_1_readInput_1_opaque_ptr_1
	.align 8
	.type	_TIG_iO_UTq2_1_readInput_1_opaque_ptr_1, @object
	.size	_TIG_iO_UTq2_1_readInput_1_opaque_ptr_1, 8
_TIG_iO_UTq2_1_readInput_1_opaque_ptr_1:
	.zero	8
	.globl	_TIG_iO_UTq2_1_convertKeysAndLocks_1_opaque_ptr_1
	.align 8
	.type	_TIG_iO_UTq2_1_convertKeysAndLocks_1_opaque_ptr_1, @object
	.size	_TIG_iO_UTq2_1_convertKeysAndLocks_1_opaque_ptr_1, 8
_TIG_iO_UTq2_1_convertKeysAndLocks_1_opaque_ptr_1:
	.zero	8
	.globl	_TIG_iO_UTq2_1___uint32_identity_1_opaque_list_1
	.align 8
	.type	_TIG_iO_UTq2_1___uint32_identity_1_opaque_list_1, @object
	.size	_TIG_iO_UTq2_1___uint32_identity_1_opaque_list_1, 8
_TIG_iO_UTq2_1___uint32_identity_1_opaque_list_1:
	.zero	8
	.globl	_TIG_iO_UTq2_1_feedInput_1_opaque_ptr_1
	.align 8
	.type	_TIG_iO_UTq2_1_feedInput_1_opaque_ptr_1, @object
	.size	_TIG_iO_UTq2_1_feedInput_1_opaque_ptr_1, 8
_TIG_iO_UTq2_1_feedInput_1_opaque_ptr_1:
	.zero	8
	.globl	_TIG_iO_UTq2_1_addHeights_1_opaque_list_1
	.align 8
	.type	_TIG_iO_UTq2_1_addHeights_1_opaque_list_1, @object
	.size	_TIG_iO_UTq2_1_addHeights_1_opaque_list_1, 8
_TIG_iO_UTq2_1_addHeights_1_opaque_list_1:
	.zero	8
	.globl	_TIG_iO_UTq2_1___uint32_identity_1_opaque_ptr_2
	.align 8
	.type	_TIG_iO_UTq2_1___uint32_identity_1_opaque_ptr_2, @object
	.size	_TIG_iO_UTq2_1___uint32_identity_1_opaque_ptr_2, 8
_TIG_iO_UTq2_1___uint32_identity_1_opaque_ptr_2:
	.zero	8
	.globl	_TIG_iO_UTq2_1_newKeyOrLock_1_opaque_ptr_1
	.align 8
	.type	_TIG_iO_UTq2_1_newKeyOrLock_1_opaque_ptr_1, @object
	.size	_TIG_iO_UTq2_1_newKeyOrLock_1_opaque_ptr_1, 8
_TIG_iO_UTq2_1_newKeyOrLock_1_opaque_ptr_1:
	.zero	8
	.globl	_TIG_iO_UTq2_1_initState_1_opaque_list_2
	.align 8
	.type	_TIG_iO_UTq2_1_initState_1_opaque_list_2, @object
	.size	_TIG_iO_UTq2_1_initState_1_opaque_list_2, 8
_TIG_iO_UTq2_1_initState_1_opaque_list_2:
	.zero	8
	.globl	_TIG_iO_UTq2_1___bswap_64_1_opaque_list_1
	.align 8
	.type	_TIG_iO_UTq2_1___bswap_64_1_opaque_list_1, @object
	.size	_TIG_iO_UTq2_1___bswap_64_1_opaque_list_1, 8
_TIG_iO_UTq2_1___bswap_64_1_opaque_list_1:
	.zero	8
	.globl	_TIG_iO_UTq2_1___uint16_identity_1_opaque_ptr_2
	.align 8
	.type	_TIG_iO_UTq2_1___uint16_identity_1_opaque_ptr_2, @object
	.size	_TIG_iO_UTq2_1___uint16_identity_1_opaque_ptr_2, 8
_TIG_iO_UTq2_1___uint16_identity_1_opaque_ptr_2:
	.zero	8
	.globl	_TIG_iO_UTq2_1_getFittingKeysLocks_1_opaque_list_2
	.align 8
	.type	_TIG_iO_UTq2_1_getFittingKeysLocks_1_opaque_list_2, @object
	.size	_TIG_iO_UTq2_1_getFittingKeysLocks_1_opaque_list_2, 8
_TIG_iO_UTq2_1_getFittingKeysLocks_1_opaque_list_2:
	.zero	8
	.globl	_TIG_iO_UTq2_1_newKeyOrLock_1_opaque_ptr_2
	.align 8
	.type	_TIG_iO_UTq2_1_newKeyOrLock_1_opaque_ptr_2, @object
	.size	_TIG_iO_UTq2_1_newKeyOrLock_1_opaque_ptr_2, 8
_TIG_iO_UTq2_1_newKeyOrLock_1_opaque_ptr_2:
	.zero	8
	.globl	_TIG_iO_UTq2_1___bswap_64_1_opaque_ptr_1
	.align 8
	.type	_TIG_iO_UTq2_1___bswap_64_1_opaque_ptr_1, @object
	.size	_TIG_iO_UTq2_1___bswap_64_1_opaque_ptr_1, 8
_TIG_iO_UTq2_1___bswap_64_1_opaque_ptr_1:
	.zero	8
	.globl	_TIG_iO_UTq2_1_main_1_opaque_list_1
	.align 8
	.type	_TIG_iO_UTq2_1_main_1_opaque_list_1, @object
	.size	_TIG_iO_UTq2_1_main_1_opaque_list_1, 8
_TIG_iO_UTq2_1_main_1_opaque_list_1:
	.zero	8
	.globl	_TIG_iO_UTq2_1_addHeights_1_opaque_ptr_1
	.align 8
	.type	_TIG_iO_UTq2_1_addHeights_1_opaque_ptr_1, @object
	.size	_TIG_iO_UTq2_1_addHeights_1_opaque_ptr_1, 8
_TIG_iO_UTq2_1_addHeights_1_opaque_ptr_1:
	.zero	8
	.globl	_TIG_iO_UTq2_1___uint16_identity_1_opaque_ptr_1
	.align 8
	.type	_TIG_iO_UTq2_1___uint16_identity_1_opaque_ptr_1, @object
	.size	_TIG_iO_UTq2_1___uint16_identity_1_opaque_ptr_1, 8
_TIG_iO_UTq2_1___uint16_identity_1_opaque_ptr_1:
	.zero	8
	.globl	_TIG_iO_UTq2_1_getFittingKeysLocks_1_opaque_list_1
	.align 8
	.type	_TIG_iO_UTq2_1_getFittingKeysLocks_1_opaque_list_1, @object
	.size	_TIG_iO_UTq2_1_getFittingKeysLocks_1_opaque_list_1, 8
_TIG_iO_UTq2_1_getFittingKeysLocks_1_opaque_list_1:
	.zero	8
	.globl	_TIG_iO_UTq2_1_main_1_opaque_list_2
	.align 8
	.type	_TIG_iO_UTq2_1_main_1_opaque_list_2, @object
	.size	_TIG_iO_UTq2_1_main_1_opaque_list_2, 8
_TIG_iO_UTq2_1_main_1_opaque_list_2:
	.zero	8
	.globl	_TIG_iO_UTq2_1___bswap_16_1_opaque_ptr_1
	.align 8
	.type	_TIG_iO_UTq2_1___bswap_16_1_opaque_ptr_1, @object
	.size	_TIG_iO_UTq2_1___bswap_16_1_opaque_ptr_1, 8
_TIG_iO_UTq2_1___bswap_16_1_opaque_ptr_1:
	.zero	8
	.globl	_TIG_iO_UTq2_1_readInput_1_opaque_list_1
	.align 8
	.type	_TIG_iO_UTq2_1_readInput_1_opaque_list_1, @object
	.size	_TIG_iO_UTq2_1_readInput_1_opaque_list_1, 8
_TIG_iO_UTq2_1_readInput_1_opaque_list_1:
	.zero	8
	.globl	_TIG_iO_UTq2_1_convertKeysAndLocks_1_opaque_list_2
	.align 8
	.type	_TIG_iO_UTq2_1_convertKeysAndLocks_1_opaque_list_2, @object
	.size	_TIG_iO_UTq2_1_convertKeysAndLocks_1_opaque_list_2, 8
_TIG_iO_UTq2_1_convertKeysAndLocks_1_opaque_list_2:
	.zero	8
	.globl	_TIG_iO_UTq2_1___uint64_identity_1_opaque_list_1
	.align 8
	.type	_TIG_iO_UTq2_1___uint64_identity_1_opaque_list_1, @object
	.size	_TIG_iO_UTq2_1___uint64_identity_1_opaque_list_1, 8
_TIG_iO_UTq2_1___uint64_identity_1_opaque_list_1:
	.zero	8
	.globl	_TIG_iO_UTq2_1_feedInput_1_opaque_list_2
	.align 8
	.type	_TIG_iO_UTq2_1_feedInput_1_opaque_list_2, @object
	.size	_TIG_iO_UTq2_1_feedInput_1_opaque_list_2, 8
_TIG_iO_UTq2_1_feedInput_1_opaque_list_2:
	.zero	8
	.globl	_TIG_iO_UTq2_1___bswap_32_1_opaque_list_2
	.align 8
	.type	_TIG_iO_UTq2_1___bswap_32_1_opaque_list_2, @object
	.size	_TIG_iO_UTq2_1___bswap_32_1_opaque_list_2, 8
_TIG_iO_UTq2_1___bswap_32_1_opaque_list_2:
	.zero	8
	.globl	_TIG_iO_UTq2_1_convertKeysAndLocks_1_opaque_list_1
	.align 8
	.type	_TIG_iO_UTq2_1_convertKeysAndLocks_1_opaque_list_1, @object
	.size	_TIG_iO_UTq2_1_convertKeysAndLocks_1_opaque_list_1, 8
_TIG_iO_UTq2_1_convertKeysAndLocks_1_opaque_list_1:
	.zero	8
	.globl	_TIG_iO_UTq2_1_main_1_opaque_ptr_1
	.align 8
	.type	_TIG_iO_UTq2_1_main_1_opaque_ptr_1, @object
	.size	_TIG_iO_UTq2_1_main_1_opaque_ptr_1, 8
_TIG_iO_UTq2_1_main_1_opaque_ptr_1:
	.zero	8
	.globl	_TIG_iO_UTq2_1___uint64_identity_1_opaque_ptr_1
	.align 8
	.type	_TIG_iO_UTq2_1___uint64_identity_1_opaque_ptr_1, @object
	.size	_TIG_iO_UTq2_1___uint64_identity_1_opaque_ptr_1, 8
_TIG_iO_UTq2_1___uint64_identity_1_opaque_ptr_1:
	.zero	8
	.globl	_TIG_iO_UTq2_1_getFittingKeysLocks_1_opaque_ptr_1
	.align 8
	.type	_TIG_iO_UTq2_1_getFittingKeysLocks_1_opaque_ptr_1, @object
	.size	_TIG_iO_UTq2_1_getFittingKeysLocks_1_opaque_ptr_1, 8
_TIG_iO_UTq2_1_getFittingKeysLocks_1_opaque_ptr_1:
	.zero	8
	.globl	_TIG_iO_UTq2_1___uint32_identity_1_opaque_list_2
	.align 8
	.type	_TIG_iO_UTq2_1___uint32_identity_1_opaque_list_2, @object
	.size	_TIG_iO_UTq2_1___uint32_identity_1_opaque_list_2, 8
_TIG_iO_UTq2_1___uint32_identity_1_opaque_list_2:
	.zero	8
	.globl	_TIG_iO_UTq2_1___bswap_32_1_opaque_ptr_2
	.align 8
	.type	_TIG_iO_UTq2_1___bswap_32_1_opaque_ptr_2, @object
	.size	_TIG_iO_UTq2_1___bswap_32_1_opaque_ptr_2, 8
_TIG_iO_UTq2_1___bswap_32_1_opaque_ptr_2:
	.zero	8
	.globl	_TIG_iO_UTq2_1___uint16_identity_1_opaque_list_1
	.align 8
	.type	_TIG_iO_UTq2_1___uint16_identity_1_opaque_list_1, @object
	.size	_TIG_iO_UTq2_1___uint16_identity_1_opaque_list_1, 8
_TIG_iO_UTq2_1___uint16_identity_1_opaque_list_1:
	.zero	8
	.globl	_TIG_iO_UTq2_1___uint64_identity_1_opaque_list_2
	.align 8
	.type	_TIG_iO_UTq2_1___uint64_identity_1_opaque_list_2, @object
	.size	_TIG_iO_UTq2_1___uint64_identity_1_opaque_list_2, 8
_TIG_iO_UTq2_1___uint64_identity_1_opaque_list_2:
	.zero	8
	.globl	_TIG_iO_UTq2_1_readInput_1_opaque_ptr_2
	.align 8
	.type	_TIG_iO_UTq2_1_readInput_1_opaque_ptr_2, @object
	.size	_TIG_iO_UTq2_1_readInput_1_opaque_ptr_2, 8
_TIG_iO_UTq2_1_readInput_1_opaque_ptr_2:
	.zero	8
	.globl	_TIG_iO_UTq2_1___bswap_64_1_opaque_ptr_2
	.align 8
	.type	_TIG_iO_UTq2_1___bswap_64_1_opaque_ptr_2, @object
	.size	_TIG_iO_UTq2_1___bswap_64_1_opaque_ptr_2, 8
_TIG_iO_UTq2_1___bswap_64_1_opaque_ptr_2:
	.zero	8
	.globl	_TIG_iO_UTq2_1___bswap_16_1_opaque_list_2
	.align 8
	.type	_TIG_iO_UTq2_1___bswap_16_1_opaque_list_2, @object
	.size	_TIG_iO_UTq2_1___bswap_16_1_opaque_list_2, 8
_TIG_iO_UTq2_1___bswap_16_1_opaque_list_2:
	.zero	8
	.globl	_TIG_iO_UTq2_1_addHeights_1_opaque_ptr_2
	.align 8
	.type	_TIG_iO_UTq2_1_addHeights_1_opaque_ptr_2, @object
	.size	_TIG_iO_UTq2_1_addHeights_1_opaque_ptr_2, 8
_TIG_iO_UTq2_1_addHeights_1_opaque_ptr_2:
	.zero	8
	.globl	_TIG_iO_UTq2_1_main_1_opaque_ptr_2
	.align 8
	.type	_TIG_iO_UTq2_1_main_1_opaque_ptr_2, @object
	.size	_TIG_iO_UTq2_1_main_1_opaque_ptr_2, 8
_TIG_iO_UTq2_1_main_1_opaque_ptr_2:
	.zero	8
	.globl	_TIG_IZ_UTq2_argv
	.align 8
	.type	_TIG_IZ_UTq2_argv, @object
	.size	_TIG_IZ_UTq2_argv, 8
_TIG_IZ_UTq2_argv:
	.zero	8
	.globl	_TIG_iO_UTq2_1___uint32_identity_1_opaque_ptr_1
	.align 8
	.type	_TIG_iO_UTq2_1___uint32_identity_1_opaque_ptr_1, @object
	.size	_TIG_iO_UTq2_1___uint32_identity_1_opaque_ptr_1, 8
_TIG_iO_UTq2_1___uint32_identity_1_opaque_ptr_1:
	.zero	8
	.globl	_TIG_iO_UTq2_1_addHeights_1_opaque_list_2
	.align 8
	.type	_TIG_iO_UTq2_1_addHeights_1_opaque_list_2, @object
	.size	_TIG_iO_UTq2_1_addHeights_1_opaque_list_2, 8
_TIG_iO_UTq2_1_addHeights_1_opaque_list_2:
	.zero	8
	.globl	_TIG_IZ_UTq2_envp
	.align 8
	.type	_TIG_IZ_UTq2_envp, @object
	.size	_TIG_IZ_UTq2_envp, 8
_TIG_IZ_UTq2_envp:
	.zero	8
	.globl	_TIG_iO_UTq2_1___bswap_32_1_opaque_ptr_1
	.align 8
	.type	_TIG_iO_UTq2_1___bswap_32_1_opaque_ptr_1, @object
	.size	_TIG_iO_UTq2_1___bswap_32_1_opaque_ptr_1, 8
_TIG_iO_UTq2_1___bswap_32_1_opaque_ptr_1:
	.zero	8
	.globl	_TIG_iO_UTq2_1___bswap_32_1_opaque_list_1
	.align 8
	.type	_TIG_iO_UTq2_1___bswap_32_1_opaque_list_1, @object
	.size	_TIG_iO_UTq2_1___bswap_32_1_opaque_list_1, 8
_TIG_iO_UTq2_1___bswap_32_1_opaque_list_1:
	.zero	8
	.globl	_TIG_IZ_UTq2_argc
	.align 4
	.type	_TIG_IZ_UTq2_argc, @object
	.size	_TIG_IZ_UTq2_argc, 4
_TIG_IZ_UTq2_argc:
	.zero	4
	.globl	_TIG_iO_UTq2_1_readInput_1_opaque_list_2
	.align 8
	.type	_TIG_iO_UTq2_1_readInput_1_opaque_list_2, @object
	.size	_TIG_iO_UTq2_1_readInput_1_opaque_list_2, 8
_TIG_iO_UTq2_1_readInput_1_opaque_list_2:
	.zero	8
	.globl	_TIG_iO_UTq2_1___bswap_16_1_opaque_ptr_2
	.align 8
	.type	_TIG_iO_UTq2_1___bswap_16_1_opaque_ptr_2, @object
	.size	_TIG_iO_UTq2_1___bswap_16_1_opaque_ptr_2, 8
_TIG_iO_UTq2_1___bswap_16_1_opaque_ptr_2:
	.zero	8
	.globl	_TIG_iO_UTq2_1___bswap_16_1_opaque_list_1
	.align 8
	.type	_TIG_iO_UTq2_1___bswap_16_1_opaque_list_1, @object
	.size	_TIG_iO_UTq2_1___bswap_16_1_opaque_list_1, 8
_TIG_iO_UTq2_1___bswap_16_1_opaque_list_1:
	.zero	8
	.globl	_TIG_iO_UTq2_1_initState_1_opaque_ptr_2
	.align 8
	.type	_TIG_iO_UTq2_1_initState_1_opaque_ptr_2, @object
	.size	_TIG_iO_UTq2_1_initState_1_opaque_ptr_2, 8
_TIG_iO_UTq2_1_initState_1_opaque_ptr_2:
	.zero	8
	.globl	_TIG_iO_UTq2_1_initState_1_opaque_list_1
	.align 8
	.type	_TIG_iO_UTq2_1_initState_1_opaque_list_1, @object
	.size	_TIG_iO_UTq2_1_initState_1_opaque_list_1, 8
_TIG_iO_UTq2_1_initState_1_opaque_list_1:
	.zero	8
	.globl	_TIG_iO_UTq2_1___uint16_identity_1_opaque_list_2
	.align 8
	.type	_TIG_iO_UTq2_1___uint16_identity_1_opaque_list_2, @object
	.size	_TIG_iO_UTq2_1___uint16_identity_1_opaque_list_2, 8
_TIG_iO_UTq2_1___uint16_identity_1_opaque_list_2:
	.zero	8
	.globl	_TIG_iO_UTq2_1_feedInput_1_opaque_ptr_2
	.align 8
	.type	_TIG_iO_UTq2_1_feedInput_1_opaque_ptr_2, @object
	.size	_TIG_iO_UTq2_1_feedInput_1_opaque_ptr_2, 8
_TIG_iO_UTq2_1_feedInput_1_opaque_ptr_2:
	.zero	8
	.globl	_TIG_iO_UTq2_1_newKeyOrLock_1_opaque_list_2
	.align 8
	.type	_TIG_iO_UTq2_1_newKeyOrLock_1_opaque_list_2, @object
	.size	_TIG_iO_UTq2_1_newKeyOrLock_1_opaque_list_2, 8
_TIG_iO_UTq2_1_newKeyOrLock_1_opaque_list_2:
	.zero	8
	.globl	_TIG_iO_UTq2_1_newKeyOrLock_1_opaque_list_1
	.align 8
	.type	_TIG_iO_UTq2_1_newKeyOrLock_1_opaque_list_1, @object
	.size	_TIG_iO_UTq2_1_newKeyOrLock_1_opaque_list_1, 8
_TIG_iO_UTq2_1_newKeyOrLock_1_opaque_list_1:
	.zero	8
	.globl	_TIG_iO_UTq2_1___uint64_identity_1_opaque_ptr_2
	.align 8
	.type	_TIG_iO_UTq2_1___uint64_identity_1_opaque_ptr_2, @object
	.size	_TIG_iO_UTq2_1___uint64_identity_1_opaque_ptr_2, 8
_TIG_iO_UTq2_1___uint64_identity_1_opaque_ptr_2:
	.zero	8
	.section	.rodata
.LC0:
	.string	"invalid state %d\n"
	.text
	.globl	feedInput
	.type	feedInput, @function
feedInput:
.LFB2:
	.cfi_startproc
	endbr64
	pushq	%rbp
	.cfi_def_cfa_offset 16
	.cfi_offset 6, -16
	movq	%rsp, %rbp
	.cfi_def_cfa_register 6
	subq	$48, %rsp
	movq	%rdi, -40(%rbp)
	movq	%rsi, -48(%rbp)
#APP
# 93 "/usr/include/x86_64-linux-gnu/bits/byteswap.h" 1
	##_ANNOTATION_INITIALREGION_-TIG-iO-UTq2-1-feedInput--18
# 0 "" 2
# 97 "/usr/include/x86_64-linux-gnu/bits/byteswap.h" 1
	##_ANNOTATION_ATOMICREGION_-TIG-iO-UTq2-1-feedInput--17
# 0 "" 2
#NO_APP
	movl	$24, %edi
	call	malloc@PLT
	movq	%rax, -24(%rbp)
	movq	-24(%rbp), %rax
	movq	-24(%rbp), %rdx
	movq	%rdx, 8(%rax)
	movq	-24(%rbp), %rax
	movq	-24(%rbp), %rdx
	movq	%rdx, (%rax)
	movq	-24(%rbp), %rax
	movq	%rax, _TIG_iO_UTq2_1_feedInput_1_opaque_list_1(%rip)
	call	rand@PLT
	movl	%eax, -32(%rbp)
	movl	$24, %edi
	call	malloc@PLT
	movq	%rax, -16(%rbp)
	movq	-16(%rbp), %rax
	movl	$0, 16(%rax)
	movq	_TIG_iO_UTq2_1_feedInput_1_opaque_list_1(%rip), %rax
	movq	8(%rax), %rdx
	movq	-16(%rbp), %rax
	movq	%rdx, 8(%rax)
	movq	_TIG_iO_UTq2_1_feedInput_1_opaque_list_1(%rip), %rdx
	movq	-16(%rbp), %rax
	movq	%rdx, (%rax)
	movq	_TIG_iO_UTq2_1_feedInput_1_opaque_list_1(%rip), %rax
	movq	8(%rax), %rax
	movq	-16(%rbp), %rdx
	movq	%rdx, (%rax)
	movq	_TIG_iO_UTq2_1_feedInput_1_opaque_list_1(%rip), %rax
	movq	-16(%rbp), %rdx
	movq	%rdx, 8(%rax)
	call	rand@PLT
	movl	%eax, -28(%rbp)
	movl	$24, %edi
	call	malloc@PLT
	movq	%rax, -8(%rbp)
	movq	-8(%rbp), %rax
	movl	-28(%rbp), %edx
	movl	%edx, 16(%rax)
	movq	_TIG_iO_UTq2_1_feedInput_1_opaque_list_1(%rip), %rax
	movq	8(%rax), %rdx
	movq	-8(%rbp), %rax
	movq	%rdx, 8(%rax)
	movq	_TIG_iO_UTq2_1_feedInput_1_opaque_list_1(%rip), %rdx
	movq	-8(%rbp), %rax
	movq	%rdx, (%rax)
	movq	_TIG_iO_UTq2_1_feedInput_1_opaque_list_1(%rip), %rax
	movq	8(%rax), %rax
	movq	-8(%rbp), %rdx
	movq	%rdx, (%rax)
	movq	_TIG_iO_UTq2_1_feedInput_1_opaque_list_1(%rip), %rax
	movq	-8(%rbp), %rdx
	movq	%rdx, 8(%rax)
	movq	_TIG_iO_UTq2_1_feedInput_1_opaque_list_1(%rip), %rax
	movq	8(%rax), %rax
	movq	%rax, _TIG_iO_UTq2_1_feedInput_1_opaque_ptr_1(%rip)
	movq	_TIG_iO_UTq2_1_feedInput_1_opaque_ptr_1(%rip), %rax
	movq	%rax, _TIG_iO_UTq2_1_feedInput_1_opaque_ptr_2(%rip)
	movq	_TIG_iO_UTq2_1_feedInput_1_opaque_ptr_2(%rip), %rax
	movq	8(%rax), %rax
	movq	%rax, _TIG_iO_UTq2_1_feedInput_1_opaque_ptr_2(%rip)
	nop
	nop
	movq	-40(%rbp), %rax
	movl	8(%rax), %eax
	cmpl	$2, %eax
	je	.L2
	cmpl	$2, %eax
	jg	.L3
	testl	%eax, %eax
	je	.L4
	cmpl	$1, %eax
	je	.L5
	jmp	.L3
.L4:
	movq	-48(%rbp), %rdx
	movq	-40(%rbp), %rax
	movq	%rdx, %rsi
	movq	%rax, %rdi
	call	initState
	jmp	.L6
.L5:
	movq	-48(%rbp), %rdx
	movq	-40(%rbp), %rax
	movq	%rdx, %rsi
	movq	%rax, %rdi
	call	addHeights
	movq	_TIG_iO_UTq2_1_readInput_1_opaque_ptr_1(%rip), %rdx
	movq	_TIG_iO_UTq2_1_readInput_1_opaque_ptr_2(%rip), %rax
	cmpq	%rax, %rdx
	je	.L9
	jmp	.L1
.L2:
	movq	-48(%rbp), %rdx
	movq	-40(%rbp), %rax
	movq	%rdx, %rsi
	movq	%rax, %rdi
	call	addHeights
	jmp	.L6
.L3:
	movq	-40(%rbp), %rax
	movl	8(%rax), %eax
	movl	%eax, %esi
	leaq	.LC0(%rip), %rax
	movq	%rax, %rdi
	movl	$0, %eax
	call	printf@PLT
	jmp	.L6
.L9:
	nop
.L6:
	nop
.L1:
	leave
	.cfi_def_cfa 7, 8
	ret
	.cfi_endproc
.LFE2:
	.size	feedInput, .-feedInput
	.globl	newKeyOrLock
	.type	newKeyOrLock, @function
newKeyOrLock:
.LFB3:
	.cfi_startproc
	endbr64
	pushq	%rbp
	.cfi_def_cfa_offset 16
	.cfi_offset 6, -16
	movq	%rsp, %rbp
	.cfi_def_cfa_register 6
	subq	$112, %rsp
	movq	%rdi, -104(%rbp)
#APP
# 142 "kohtoa15_adventofcode_main.c" 1
	##_ANNOTATION_INITIALREGION_-TIG-iO-UTq2-1-newKeyOrLock--26
# 0 "" 2
# 146 "kohtoa15_adventofcode_main.c" 1
	##_ANNOTATION_ATOMICREGION_-TIG-iO-UTq2-1-newKeyOrLock--25
# 0 "" 2
#NO_APP
	movl	$24, %edi
	call	malloc@PLT
	movq	%rax, -72(%rbp)
	movq	-72(%rbp), %rax
	movq	-72(%rbp), %rdx
	movq	%rdx, (%rax)
	movq	-72(%rbp), %rax
	movq	-72(%rbp), %rdx
	movq	%rdx, 16(%rax)
	movq	-72(%rbp), %rax
	movq	%rax, _TIG_iO_UTq2_1_newKeyOrLock_1_opaque_list_1(%rip)
	call	rand@PLT
	movl	%eax, -88(%rbp)
	movl	$24, %edi
	call	malloc@PLT
	movq	%rax, -64(%rbp)
	movq	-64(%rbp), %rax
	movl	$0, 8(%rax)
	movq	_TIG_iO_UTq2_1_newKeyOrLock_1_opaque_list_1(%rip), %rax
	movq	(%rax), %rdx
	movq	-64(%rbp), %rax
	movq	%rdx, (%rax)
	movq	_TIG_iO_UTq2_1_newKeyOrLock_1_opaque_list_1(%rip), %rdx
	movq	-64(%rbp), %rax
	movq	%rdx, 16(%rax)
	movq	_TIG_iO_UTq2_1_newKeyOrLock_1_opaque_list_1(%rip), %rax
	movq	(%rax), %rax
	movq	-64(%rbp), %rdx
	movq	%rdx, 16(%rax)
	movq	_TIG_iO_UTq2_1_newKeyOrLock_1_opaque_list_1(%rip), %rax
	movq	-64(%rbp), %rdx
	movq	%rdx, (%rax)
	call	rand@PLT
	movl	%eax, -84(%rbp)
	movl	$24, %edi
	call	malloc@PLT
	movq	%rax, -56(%rbp)
	movq	-56(%rbp), %rax
	movl	-84(%rbp), %edx
	movl	%edx, 8(%rax)
	movq	_TIG_iO_UTq2_1_newKeyOrLock_1_opaque_list_1(%rip), %rax
	movq	(%rax), %rdx
	movq	-56(%rbp), %rax
	movq	%rdx, (%rax)
	movq	_TIG_iO_UTq2_1_newKeyOrLock_1_opaque_list_1(%rip), %rdx
	movq	-56(%rbp), %rax
	movq	%rdx, 16(%rax)
	movq	_TIG_iO_UTq2_1_newKeyOrLock_1_opaque_list_1(%rip), %rax
	movq	(%rax), %rax
	movq	-56(%rbp), %rdx
	movq	%rdx, 16(%rax)
	movq	_TIG_iO_UTq2_1_newKeyOrLock_1_opaque_list_1(%rip), %rax
	movq	-56(%rbp), %rdx
	movq	%rdx, (%rax)
	call	rand@PLT
	movl	%eax, -80(%rbp)
	movl	$24, %edi
	call	malloc@PLT
	movq	%rax, -48(%rbp)
	movl	-80(%rbp), %eax
	leal	(%rax,%rax), %edx
	movq	-48(%rbp), %rax
	movl	%edx, 8(%rax)
	movq	_TIG_iO_UTq2_1_newKeyOrLock_1_opaque_list_1(%rip), %rax
	movq	(%rax), %rdx
	movq	-48(%rbp), %rax
	movq	%rdx, (%rax)
	movq	_TIG_iO_UTq2_1_newKeyOrLock_1_opaque_list_1(%rip), %rdx
	movq	-48(%rbp), %rax
	movq	%rdx, 16(%rax)
	movq	_TIG_iO_UTq2_1_newKeyOrLock_1_opaque_list_1(%rip), %rax
	movq	(%rax), %rax
	movq	-48(%rbp), %rdx
	movq	%rdx, 16(%rax)
	movq	_TIG_iO_UTq2_1_newKeyOrLock_1_opaque_list_1(%rip), %rax
	movq	-48(%rbp), %rdx
	movq	%rdx, (%rax)
	call	rand@PLT
	movl	%eax, -76(%rbp)
	movl	$24, %edi
	call	malloc@PLT
	movq	%rax, -40(%rbp)
	movl	-76(%rbp), %edx
	movl	%edx, %eax
	addl	%eax, %eax
	addl	%eax, %edx
	movq	-40(%rbp), %rax
	movl	%edx, 8(%rax)
	movq	_TIG_iO_UTq2_1_newKeyOrLock_1_opaque_list_1(%rip), %rax
	movq	(%rax), %rdx
	movq	-40(%rbp), %rax
	movq	%rdx, (%rax)
	movq	_TIG_iO_UTq2_1_newKeyOrLock_1_opaque_list_1(%rip), %rdx
	movq	-40(%rbp), %rax
	movq	%rdx, 16(%rax)
	movq	_TIG_iO_UTq2_1_newKeyOrLock_1_opaque_list_1(%rip), %rax
	movq	(%rax), %rax
	movq	-40(%rbp), %rdx
	movq	%rdx, 16(%rax)
	movq	_TIG_iO_UTq2_1_newKeyOrLock_1_opaque_list_1(%rip), %rax
	movq	-40(%rbp), %rdx
	movq	%rdx, (%rax)
	movq	_TIG_iO_UTq2_1_newKeyOrLock_1_opaque_list_1(%rip), %rax
	movq	(%rax), %rax
	movq	%rax, _TIG_iO_UTq2_1_newKeyOrLock_1_opaque_ptr_1(%rip)
	movq	_TIG_iO_UTq2_1_newKeyOrLock_1_opaque_ptr_1(%rip), %rax
	movq	%rax, _TIG_iO_UTq2_1_newKeyOrLock_1_opaque_ptr_2(%rip)
	nop
	nop
	movq	_TIG_iO_UTq2_1_readInput_1_opaque_ptr_1(%rip), %rdx
	movq	_TIG_iO_UTq2_1_readInput_1_opaque_ptr_2(%rip), %rax
	cmpq	%rax, %rdx
	je	.L11
	movl	-80(%rbp), %eax
	movl	$0, %edx
	movl	$0, %esi
	movl	%eax, %edi
	call	main
	movl	%eax, -76(%rbp)
.L11:
	movq	-104(%rbp), %rax
	movq	8(%rax), %rax
	testq	%rax, %rax
	jne	.L12
	movq	-104(%rbp), %rax
	movq	$64, 8(%rax)
	movq	-104(%rbp), %rax
	movq	8(%rax), %rdx
	movq	%rdx, %rax
	addq	%rax, %rax
	addq	%rdx, %rax
	salq	$2, %rax
	movq	%rax, %rdi
	call	malloc@PLT
	movq	%rax, -16(%rbp)
	movq	-104(%rbp), %rax
	movq	-16(%rbp), %rdx
	movq	%rdx, 16(%rax)
	jmp	.L13
.L12:
	movq	-104(%rbp), %rax
	movq	(%rax), %rdx
	movq	-104(%rbp), %rax
	movq	8(%rax), %rax
	cmpq	%rax, %rdx
	jb	.L13
	movq	-104(%rbp), %rax
	movq	8(%rax), %rax
	leaq	(%rax,%rax), %rdx
	movq	-104(%rbp), %rax
	movq	%rdx, 8(%rax)
	movq	-104(%rbp), %rax
	movq	8(%rax), %rdx
	movq	%rdx, %rax
	addq	%rax, %rax
	addq	%rdx, %rax
	salq	$2, %rax
	movq	%rax, %rdx
	movq	-104(%rbp), %rax
	movq	16(%rax), %rax
	movq	%rdx, %rsi
	movq	%rax, %rdi
	call	realloc@PLT
	movq	%rax, -32(%rbp)
	movq	-32(%rbp), %rax
	movq	%rax, -24(%rbp)
	cmpq	$0, -24(%rbp)
	jne	.L14
	movl	$0, %eax
	jmp	.L15
.L14:
	movq	-104(%rbp), %rax
	movq	-24(%rbp), %rdx
	movq	%rdx, 16(%rax)
.L13:
	movq	-104(%rbp), %rax
	movq	(%rax), %rax
	movq	%rax, -8(%rbp)
	movq	-104(%rbp), %rax
	movq	16(%rax), %rcx
	movq	-8(%rbp), %rdx
	movq	%rdx, %rax
	addq	%rax, %rax
	addq	%rdx, %rax
	salq	$2, %rax
	addq	%rcx, %rax
	movl	$0, 8(%rax)
	movq	-104(%rbp), %rax
	movq	(%rax), %rax
	leaq	1(%rax), %rdx
	movq	-104(%rbp), %rax
	movq	%rdx, (%rax)
	movq	-104(%rbp), %rax
	movq	16(%rax), %rcx
	movq	-8(%rbp), %rdx
	movq	%rdx, %rax
	addq	%rax, %rax
	addq	%rdx, %rax
	salq	$2, %rax
	addq	%rcx, %rax
.L15:
	leave
	.cfi_def_cfa 7, 8
	ret
	.cfi_endproc
.LFE3:
	.size	newKeyOrLock, .-newKeyOrLock
	.section	.rodata
.LC1:
	.string	"....."
.LC2:
	.string	"#####"
.LC3:
	.string	"invalid init row: %s"
	.text
	.globl	initState
	.type	initState, @function
initState:
.LFB4:
	.cfi_startproc
	endbr64
	pushq	%rbp
	.cfi_def_cfa_offset 16
	.cfi_offset 6, -16
	movq	%rsp, %rbp
	.cfi_def_cfa_register 6
	subq	$80, %rsp
	movq	%rdi, -72(%rbp)
	movq	%rsi, -80(%rbp)
#APP
# 87 "kohtoa15_adventofcode_main.c" 1
	##_ANNOTATION_INITIALREGION_-TIG-iO-UTq2-1-initState--22
# 0 "" 2
# 91 "kohtoa15_adventofcode_main.c" 1
	##_ANNOTATION_ATOMICREGION_-TIG-iO-UTq2-1-initState--21
# 0 "" 2
#NO_APP
	movl	$24, %edi
	call	malloc@PLT
	movq	%rax, -32(%rbp)
	movq	-32(%rbp), %rax
	movq	-32(%rbp), %rdx
	movq	%rdx, (%rax)
	movq	-32(%rbp), %rax
	movq	-32(%rbp), %rdx
	movq	%rdx, 16(%rax)
	movq	-32(%rbp), %rax
	movq	%rax, _TIG_iO_UTq2_1_initState_1_opaque_list_1(%rip)
	call	rand@PLT
	movl	%eax, -52(%rbp)
	movl	$24, %edi
	call	malloc@PLT
	movq	%rax, -24(%rbp)
	movq	-24(%rbp), %rax
	movl	$0, 8(%rax)
	movq	_TIG_iO_UTq2_1_initState_1_opaque_list_1(%rip), %rax
	movq	(%rax), %rdx
	movq	-24(%rbp), %rax
	movq	%rdx, (%rax)
	movq	_TIG_iO_UTq2_1_initState_1_opaque_list_1(%rip), %rdx
	movq	-24(%rbp), %rax
	movq	%rdx, 16(%rax)
	movq	_TIG_iO_UTq2_1_initState_1_opaque_list_1(%rip), %rax
	movq	(%rax), %rax
	movq	-24(%rbp), %rdx
	movq	%rdx, 16(%rax)
	movq	_TIG_iO_UTq2_1_initState_1_opaque_list_1(%rip), %rax
	movq	-24(%rbp), %rdx
	movq	%rdx, (%rax)
	call	rand@PLT
	movl	%eax, -48(%rbp)
	movl	$24, %edi
	call	malloc@PLT
	movq	%rax, -16(%rbp)
	movq	-16(%rbp), %rax
	movl	-48(%rbp), %edx
	movl	%edx, 8(%rax)
	movq	_TIG_iO_UTq2_1_initState_1_opaque_list_1(%rip), %rax
	movq	(%rax), %rdx
	movq	-16(%rbp), %rax
	movq	%rdx, (%rax)
	movq	_TIG_iO_UTq2_1_initState_1_opaque_list_1(%rip), %rdx
	movq	-16(%rbp), %rax
	movq	%rdx, 16(%rax)
	movq	_TIG_iO_UTq2_1_initState_1_opaque_list_1(%rip), %rax
	movq	(%rax), %rax
	movq	-16(%rbp), %rdx
	movq	%rdx, 16(%rax)
	movq	_TIG_iO_UTq2_1_initState_1_opaque_list_1(%rip), %rax
	movq	-16(%rbp), %rdx
	movq	%rdx, (%rax)
	call	rand@PLT
	movl	%eax, -44(%rbp)
	movl	$24, %edi
	call	malloc@PLT
	movq	%rax, -8(%rbp)
	movl	-44(%rbp), %eax
	leal	(%rax,%rax), %edx
	movq	-8(%rbp), %rax
	movl	%edx, 8(%rax)
	movq	_TIG_iO_UTq2_1_initState_1_opaque_list_1(%rip), %rax
	movq	(%rax), %rdx
	movq	-8(%rbp), %rax
	movq	%rdx, (%rax)
	movq	_TIG_iO_UTq2_1_initState_1_opaque_list_1(%rip), %rdx
	movq	-8(%rbp), %rax
	movq	%rdx, 16(%rax)
	movq	_TIG_iO_UTq2_1_initState_1_opaque_list_1(%rip), %rax
	movq	(%rax), %rax
	movq	-8(%rbp), %rdx
	movq	%rdx, 16(%rax)
	movq	_TIG_iO_UTq2_1_initState_1_opaque_list_1(%rip), %rax
	movq	-8(%rbp), %rdx
	movq	%rdx, (%rax)
	movq	_TIG_iO_UTq2_1_initState_1_opaque_list_1(%rip), %rax
	movq	(%rax), %rax
	movq	%rax, _TIG_iO_UTq2_1_initState_1_opaque_ptr_1(%rip)
	movq	_TIG_iO_UTq2_1_initState_1_opaque_ptr_1(%rip), %rax
	movq	%rax, _TIG_iO_UTq2_1_initState_1_opaque_ptr_2(%rip)
	movq	_TIG_iO_UTq2_1_initState_1_opaque_ptr_2(%rip), %rax
	movq	(%rax), %rax
	movq	%rax, _TIG_iO_UTq2_1_initState_1_opaque_ptr_2(%rip)
	nop
	nop
	movq	-80(%rbp), %rax
	movl	$5, %edx
	leaq	.LC1(%rip), %rcx
	movq	%rcx, %rsi
	movq	%rax, %rdi
	call	strncmp@PLT
	movl	%eax, -40(%rbp)
	movq	_TIG_iO_UTq2_1_readInput_1_opaque_ptr_1(%rip), %rdx
	movq	_TIG_iO_UTq2_1_readInput_1_opaque_ptr_2(%rip), %rax
	cmpq	%rax, %rdx
	je	.L17
	movq	-80(%rbp), %rdx
	movq	-72(%rbp), %rax
	movq	%rdx, %rsi
	movq	%rax, %rdi
	call	addHeights
.L17:
	cmpl	$0, -40(%rbp)
	jne	.L18
	movq	-72(%rbp), %rax
	movl	$1, 8(%rax)
	jmp	.L16
.L18:
	movq	-80(%rbp), %rax
	movl	$5, %edx
	leaq	.LC2(%rip), %rcx
	movq	%rcx, %rsi
	movq	%rax, %rdi
	call	strncmp@PLT
	movl	%eax, -36(%rbp)
	cmpl	$0, -36(%rbp)
	jne	.L20
	movq	-72(%rbp), %rax
	movl	$2, 8(%rax)
	jmp	.L16
.L20:
	movq	-80(%rbp), %rax
	movq	%rax, %rsi
	leaq	.LC3(%rip), %rax
	movq	%rax, %rdi
	movl	$0, %eax
	call	printf@PLT
	movq	-72(%rbp), %rax
	movl	$-1, 8(%rax)
	nop
.L16:
	leave
	.cfi_def_cfa 7, 8
	ret
	.cfi_endproc
.LFE4:
	.size	initState, .-initState
	.section	.rodata
.LC4:
	.string	"invalid row value %x\n"
	.text
	.globl	addHeights
	.type	addHeights, @function
addHeights:
.LFB6:
	.cfi_startproc
	endbr64
	pushq	%rbp
	.cfi_def_cfa_offset 16
	.cfi_offset 6, -16
	movq	%rsp, %rbp
	.cfi_def_cfa_register 6
	subq	$80, %rsp
	movq	%rdi, -72(%rbp)
	movq	%rsi, -80(%rbp)
#APP
# 73 "/usr/include/x86_64-linux-gnu/bits/byteswap.h" 1
	##_ANNOTATION_INITIALREGION_-TIG-iO-UTq2-1-addHeights--14
# 0 "" 2
# 77 "/usr/include/x86_64-linux-gnu/bits/byteswap.h" 1
	##_ANNOTATION_ATOMICREGION_-TIG-iO-UTq2-1-addHeights--13
# 0 "" 2
#NO_APP
	movl	$24, %edi
	call	malloc@PLT
	movq	%rax, -40(%rbp)
	movq	-40(%rbp), %rax
	movq	-40(%rbp), %rdx
	movq	%rdx, (%rax)
	movq	-40(%rbp), %rax
	movq	-40(%rbp), %rdx
	movq	%rdx, 8(%rax)
	movq	-40(%rbp), %rax
	movq	%rax, _TIG_iO_UTq2_1_addHeights_1_opaque_list_1(%rip)
	call	rand@PLT
	movl	%eax, -56(%rbp)
	movl	$24, %edi
	call	malloc@PLT
	movq	%rax, -32(%rbp)
	movq	-32(%rbp), %rax
	movl	$0, 16(%rax)
	movq	_TIG_iO_UTq2_1_addHeights_1_opaque_list_1(%rip), %rax
	movq	(%rax), %rdx
	movq	-32(%rbp), %rax
	movq	%rdx, (%rax)
	movq	_TIG_iO_UTq2_1_addHeights_1_opaque_list_1(%rip), %rdx
	movq	-32(%rbp), %rax
	movq	%rdx, 8(%rax)
	movq	_TIG_iO_UTq2_1_addHeights_1_opaque_list_1(%rip), %rax
	movq	(%rax), %rax
	movq	-32(%rbp), %rdx
	movq	%rdx, 8(%rax)
	movq	_TIG_iO_UTq2_1_addHeights_1_opaque_list_1(%rip), %rax
	movq	-32(%rbp), %rdx
	movq	%rdx, (%rax)
	call	rand@PLT
	movl	%eax, -52(%rbp)
	movl	$24, %edi
	call	malloc@PLT
	movq	%rax, -24(%rbp)
	movq	-24(%rbp), %rax
	movl	-52(%rbp), %edx
	movl	%edx, 16(%rax)
	movq	_TIG_iO_UTq2_1_addHeights_1_opaque_list_1(%rip), %rax
	movq	(%rax), %rdx
	movq	-24(%rbp), %rax
	movq	%rdx, (%rax)
	movq	_TIG_iO_UTq2_1_addHeights_1_opaque_list_1(%rip), %rdx
	movq	-24(%rbp), %rax
	movq	%rdx, 8(%rax)
	movq	_TIG_iO_UTq2_1_addHeights_1_opaque_list_1(%rip), %rax
	movq	(%rax), %rax
	movq	-24(%rbp), %rdx
	movq	%rdx, 8(%rax)
	movq	_TIG_iO_UTq2_1_addHeights_1_opaque_list_1(%rip), %rax
	movq	-24(%rbp), %rdx
	movq	%rdx, (%rax)
	call	rand@PLT
	movl	%eax, -48(%rbp)
	movl	$24, %edi
	call	malloc@PLT
	movq	%rax, -16(%rbp)
	movl	-48(%rbp), %eax
	leal	(%rax,%rax), %edx
	movq	-16(%rbp), %rax
	movl	%edx, 16(%rax)
	movq	_TIG_iO_UTq2_1_addHeights_1_opaque_list_1(%rip), %rax
	movq	(%rax), %rdx
	movq	-16(%rbp), %rax
	movq	%rdx, (%rax)
	movq	_TIG_iO_UTq2_1_addHeights_1_opaque_list_1(%rip), %rdx
	movq	-16(%rbp), %rax
	movq	%rdx, 8(%rax)
	movq	_TIG_iO_UTq2_1_addHeights_1_opaque_list_1(%rip), %rax
	movq	(%rax), %rax
	movq	-16(%rbp), %rdx
	movq	%rdx, 8(%rax)
	movq	_TIG_iO_UTq2_1_addHeights_1_opaque_list_1(%rip), %rax
	movq	-16(%rbp), %rdx
	movq	%rdx, (%rax)
	call	rand@PLT
	movl	%eax, -44(%rbp)
	movl	$24, %edi
	call	malloc@PLT
	movq	%rax, -8(%rbp)
	movl	-44(%rbp), %edx
	movl	%edx, %eax
	addl	%eax, %eax
	addl	%eax, %edx
	movq	-8(%rbp), %rax
	movl	%edx, 16(%rax)
	movq	_TIG_iO_UTq2_1_addHeights_1_opaque_list_1(%rip), %rax
	movq	(%rax), %rdx
	movq	-8(%rbp), %rax
	movq	%rdx, (%rax)
	movq	_TIG_iO_UTq2_1_addHeights_1_opaque_list_1(%rip), %rdx
	movq	-8(%rbp), %rax
	movq	%rdx, 8(%rax)
	movq	_TIG_iO_UTq2_1_addHeights_1_opaque_list_1(%rip), %rax
	movq	(%rax), %rax
	movq	-8(%rbp), %rdx
	movq	%rdx, 8(%rax)
	movq	_TIG_iO_UTq2_1_addHeights_1_opaque_list_1(%rip), %rax
	movq	-8(%rbp), %rdx
	movq	%rdx, (%rax)
	movq	_TIG_iO_UTq2_1_addHeights_1_opaque_list_1(%rip), %rax
	movq	(%rax), %rax
	movq	%rax, _TIG_iO_UTq2_1_addHeights_1_opaque_ptr_1(%rip)
	movq	_TIG_iO_UTq2_1_addHeights_1_opaque_ptr_1(%rip), %rax
	movq	%rax, _TIG_iO_UTq2_1_addHeights_1_opaque_ptr_2(%rip)
	movq	_TIG_iO_UTq2_1_addHeights_1_opaque_ptr_2(%rip), %rax
	movq	(%rax), %rax
	movq	%rax, _TIG_iO_UTq2_1_addHeights_1_opaque_ptr_2(%rip)
	nop
	nop
	movq	_TIG_iO_UTq2_1_readInput_1_opaque_ptr_1(%rip), %rdx
	movq	_TIG_iO_UTq2_1_readInput_1_opaque_ptr_2(%rip), %rax
	cmpq	%rax, %rdx
	jne	.L24
	movl	$0, -60(%rbp)
	jmp	.L24
.L28:
	movl	-60(%rbp), %eax
	movslq	%eax, %rdx
	movq	-80(%rbp), %rax
	addq	%rdx, %rax
	movzbl	(%rax), %eax
	movsbl	%al, %eax
	cmpl	$35, %eax
	je	.L25
	cmpl	$46, %eax
	jne	.L26
	jmp	.L27
.L25:
	movq	-72(%rbp), %rdx
	movl	-60(%rbp), %eax
	cltq
	movzbl	(%rdx,%rax), %eax
	addl	$1, %eax
	movl	%eax, %ecx
	movq	-72(%rbp), %rdx
	movl	-60(%rbp), %eax
	cltq
	movb	%cl, (%rdx,%rax)
	jmp	.L27
.L26:
	movl	-60(%rbp), %eax
	movslq	%eax, %rdx
	movq	-80(%rbp), %rax
	addq	%rdx, %rax
	movzbl	(%rax), %eax
	movsbl	%al, %eax
	movl	%eax, %esi
	leaq	.LC4(%rip), %rax
	movq	%rax, %rdi
	movl	$0, %eax
	call	printf@PLT
	nop
.L27:
	addl	$1, -60(%rbp)
.L24:
	cmpl	$4, -60(%rbp)
	jle	.L28
	nop
	leave
	.cfi_def_cfa 7, 8
	ret
	.cfi_endproc
.LFE6:
	.size	addHeights, .-addHeights
	.section	.rodata
.LC5:
	.string	"invalid input state %d\n"
	.text
	.globl	convertKeysAndLocks
	.type	convertKeysAndLocks, @function
convertKeysAndLocks:
.LFB7:
	.cfi_startproc
	endbr64
	pushq	%rbp
	.cfi_def_cfa_offset 16
	.cfi_offset 6, -16
	movq	%rsp, %rbp
	.cfi_def_cfa_register 6
	subq	$144, %rsp
	movq	%rdi, -136(%rbp)
	movq	%fs:40, %rax
	movq	%rax, -8(%rbp)
	xorl	%eax, %eax
#APP
# 121 "kohtoa15_adventofcode_main.c" 1
	##_ANNOTATION_INITIALREGION_-TIG-iO-UTq2-1-convertKeysAndLocks--16
# 0 "" 2
# 125 "kohtoa15_adventofcode_main.c" 1
	##_ANNOTATION_ATOMICREGION_-TIG-iO-UTq2-1-convertKeysAndLocks--15
# 0 "" 2
#NO_APP
	movl	$24, %edi
	call	malloc@PLT
	movq	%rax, -104(%rbp)
	movq	-104(%rbp), %rax
	movq	-104(%rbp), %rdx
	movq	%rdx, 16(%rax)
	movq	-104(%rbp), %rax
	movq	-104(%rbp), %rdx
	movq	%rdx, 8(%rax)
	movq	-104(%rbp), %rax
	movq	%rax, _TIG_iO_UTq2_1_convertKeysAndLocks_1_opaque_list_1(%rip)
	call	rand@PLT
	movl	%eax, -120(%rbp)
	movl	$24, %edi
	call	malloc@PLT
	movq	%rax, -96(%rbp)
	movq	-96(%rbp), %rax
	movl	$0, (%rax)
	movq	_TIG_iO_UTq2_1_convertKeysAndLocks_1_opaque_list_1(%rip), %rax
	movq	16(%rax), %rdx
	movq	-96(%rbp), %rax
	movq	%rdx, 16(%rax)
	movq	_TIG_iO_UTq2_1_convertKeysAndLocks_1_opaque_list_1(%rip), %rdx
	movq	-96(%rbp), %rax
	movq	%rdx, 8(%rax)
	movq	_TIG_iO_UTq2_1_convertKeysAndLocks_1_opaque_list_1(%rip), %rax
	movq	16(%rax), %rax
	movq	-96(%rbp), %rdx
	movq	%rdx, 8(%rax)
	movq	_TIG_iO_UTq2_1_convertKeysAndLocks_1_opaque_list_1(%rip), %rax
	movq	-96(%rbp), %rdx
	movq	%rdx, 16(%rax)
	call	rand@PLT
	movl	%eax, -116(%rbp)
	movl	$24, %edi
	call	malloc@PLT
	movq	%rax, -88(%rbp)
	movq	-88(%rbp), %rax
	movl	-116(%rbp), %edx
	movl	%edx, (%rax)
	movq	_TIG_iO_UTq2_1_convertKeysAndLocks_1_opaque_list_1(%rip), %rax
	movq	16(%rax), %rdx
	movq	-88(%rbp), %rax
	movq	%rdx, 16(%rax)
	movq	_TIG_iO_UTq2_1_convertKeysAndLocks_1_opaque_list_1(%rip), %rdx
	movq	-88(%rbp), %rax
	movq	%rdx, 8(%rax)
	movq	_TIG_iO_UTq2_1_convertKeysAndLocks_1_opaque_list_1(%rip), %rax
	movq	16(%rax), %rax
	movq	-88(%rbp), %rdx
	movq	%rdx, 8(%rax)
	movq	_TIG_iO_UTq2_1_convertKeysAndLocks_1_opaque_list_1(%rip), %rax
	movq	-88(%rbp), %rdx
	movq	%rdx, 16(%rax)
	movq	_TIG_iO_UTq2_1_convertKeysAndLocks_1_opaque_list_1(%rip), %rax
	movq	16(%rax), %rax
	movq	%rax, _TIG_iO_UTq2_1_convertKeysAndLocks_1_opaque_ptr_1(%rip)
	movq	_TIG_iO_UTq2_1_convertKeysAndLocks_1_opaque_ptr_1(%rip), %rax
	movq	%rax, _TIG_iO_UTq2_1_convertKeysAndLocks_1_opaque_ptr_2(%rip)
	nop
	nop
	movq	$0, -48(%rbp)
	movq	$0, -40(%rbp)
	movq	$0, -32(%rbp)
	movq	$0, -24(%rbp)
	movq	16(%rbp), %rax
	salq	$3, %rax
	movq	%rax, %rdi
	call	malloc@PLT
	movq	%rax, -80(%rbp)
	movq	-80(%rbp), %rax
	movq	%rax, -32(%rbp)
	movq	16(%rbp), %rax
	salq	$3, %rax
	movq	%rax, %rdi
	call	malloc@PLT
	movq	%rax, -72(%rbp)
	movq	-72(%rbp), %rax
	movq	%rax, -24(%rbp)
	movb	$0, -16(%rbp)
	movl	$1, -124(%rbp)
	movq	_TIG_iO_UTq2_1_readInput_1_opaque_ptr_1(%rip), %rdx
	movq	_TIG_iO_UTq2_1_readInput_1_opaque_ptr_2(%rip), %rax
	cmpq	%rax, %rdx
	je	.L32
	leaq	-48(%rbp), %rax
	subq	$8, %rsp
	pushq	32(%rbp)
	pushq	24(%rbp)
	pushq	16(%rbp)
	movq	%rax, %rdi
	call	convertKeysAndLocks
	addq	$32, %rsp
	jmp	.L32
.L33:
	movl	-124(%rbp), %eax
	movb	$0, -16(%rbp,%rax)
	addl	$1, -124(%rbp)
.L32:
	cmpl	$7, -124(%rbp)
	jbe	.L33
	movq	$0, -112(%rbp)
	jmp	.L34
.L39:
	leaq	-16(%rbp), %rax
	movl	$8, %edx
	movl	$0, %esi
	movq	%rax, %rdi
	call	memset@PLT
	movq	32(%rbp), %rcx
	movq	-112(%rbp), %rdx
	movq	%rdx, %rax
	addq	%rax, %rax
	addq	%rdx, %rax
	salq	$2, %rax
	addq	%rcx, %rax
	movq	%rax, %rcx
	leaq	-16(%rbp), %rax
	movl	$5, %edx
	movq	%rcx, %rsi
	movq	%rax, %rdi
	call	memcpy@PLT
	movq	32(%rbp), %rcx
	movq	-112(%rbp), %rdx
	movq	%rdx, %rax
	addq	%rax, %rax
	addq	%rdx, %rax
	salq	$2, %rax
	addq	%rcx, %rax
	movl	8(%rax), %eax
	cmpl	$1, %eax
	je	.L35
	cmpl	$2, %eax
	je	.L36
	jmp	.L42
.L35:
	movq	-48(%rbp), %rax
	movq	%rax, -56(%rbp)
	movq	-48(%rbp), %rax
	addq	$1, %rax
	movq	%rax, -48(%rbp)
	leaq	-16(%rbp), %rax
	movq	(%rax), %rdx
	movq	-32(%rbp), %rcx
	movq	-56(%rbp), %rax
	salq	$3, %rax
	addq	%rcx, %rax
	movabsq	$-4311810305, %rcx
	addq	%rcx, %rdx
	movq	%rdx, (%rax)
	jmp	.L38
.L36:
	movq	-40(%rbp), %rax
	movq	%rax, -64(%rbp)
	movq	-40(%rbp), %rax
	addq	$1, %rax
	movq	%rax, -40(%rbp)
	leaq	-16(%rbp), %rax
	movq	-24(%rbp), %rcx
	movq	-64(%rbp), %rdx
	salq	$3, %rdx
	addq	%rcx, %rdx
	movq	(%rax), %rax
	movq	%rax, (%rdx)
	jmp	.L38
.L42:
	movq	32(%rbp), %rcx
	movq	-112(%rbp), %rdx
	movq	%rdx, %rax
	addq	%rax, %rax
	addq	%rdx, %rax
	salq	$2, %rax
	addq	%rcx, %rax
	movl	8(%rax), %eax
	movl	%eax, %esi
	leaq	.LC5(%rip), %rax
	movq	%rax, %rdi
	movl	$0, %eax
	call	printf@PLT
	nop
.L38:
	addq	$1, -112(%rbp)
.L34:
	movq	16(%rbp), %rax
	cmpq	%rax, -112(%rbp)
	jb	.L39
	movq	-136(%rbp), %rcx
	movq	-48(%rbp), %rax
	movq	-40(%rbp), %rdx
	movq	%rax, (%rcx)
	movq	%rdx, 8(%rcx)
	movq	-32(%rbp), %rax
	movq	-24(%rbp), %rdx
	movq	%rax, 16(%rcx)
	movq	%rdx, 24(%rcx)
	movq	-8(%rbp), %rax
	subq	%fs:40, %rax
	je	.L41
	call	__stack_chk_fail@PLT
.L41:
	movq	-136(%rbp), %rax
	leave
	.cfi_def_cfa 7, 8
	ret
	.cfi_endproc
.LFE7:
	.size	convertKeysAndLocks, .-convertKeysAndLocks
	.section	.rodata
.LC6:
	.string	"\n"
	.text
	.globl	readInput
	.type	readInput, @function
readInput:
.LFB8:
	.cfi_startproc
	endbr64
	pushq	%rbp
	.cfi_def_cfa_offset 16
	.cfi_offset 6, -16
	movq	%rsp, %rbp
	.cfi_def_cfa_register 6
	subq	$208, %rsp
	movq	%rdi, -200(%rbp)
	movq	%rsi, -208(%rbp)
	movq	%fs:40, %rax
	movq	%rax, -8(%rbp)
	xorl	%eax, %eax
#APP
# 74 "kohtoa15_adventofcode_main.c" 1
	##_ANNOTATION_INITIALREGION_-TIG-iO-UTq2-1-readInput--28
# 0 "" 2
# 78 "kohtoa15_adventofcode_main.c" 1
	##_ANNOTATION_ATOMICREGION_-TIG-iO-UTq2-1-readInput--27
# 0 "" 2
#NO_APP
	movl	$24, %edi
	call	malloc@PLT
	movq	%rax, -160(%rbp)
	movq	-160(%rbp), %rax
	movq	-160(%rbp), %rdx
	movq	%rdx, 16(%rax)
	movq	-160(%rbp), %rax
	movq	-160(%rbp), %rdx
	movq	%rdx, 8(%rax)
	movq	-160(%rbp), %rax
	movq	%rax, _TIG_iO_UTq2_1_readInput_1_opaque_list_1(%rip)
	call	rand@PLT
	movl	%eax, -180(%rbp)
	movl	$24, %edi
	call	malloc@PLT
	movq	%rax, -152(%rbp)
	movq	-152(%rbp), %rax
	movl	$0, (%rax)
	movq	_TIG_iO_UTq2_1_readInput_1_opaque_list_1(%rip), %rax
	movq	16(%rax), %rdx
	movq	-152(%rbp), %rax
	movq	%rdx, 16(%rax)
	movq	_TIG_iO_UTq2_1_readInput_1_opaque_list_1(%rip), %rdx
	movq	-152(%rbp), %rax
	movq	%rdx, 8(%rax)
	movq	_TIG_iO_UTq2_1_readInput_1_opaque_list_1(%rip), %rax
	movq	16(%rax), %rax
	movq	-152(%rbp), %rdx
	movq	%rdx, 8(%rax)
	movq	_TIG_iO_UTq2_1_readInput_1_opaque_list_1(%rip), %rax
	movq	-152(%rbp), %rdx
	movq	%rdx, 16(%rax)
	call	rand@PLT
	movl	%eax, -176(%rbp)
	movl	$24, %edi
	call	malloc@PLT
	movq	%rax, -144(%rbp)
	movq	-144(%rbp), %rax
	movl	-176(%rbp), %edx
	movl	%edx, (%rax)
	movq	_TIG_iO_UTq2_1_readInput_1_opaque_list_1(%rip), %rax
	movq	16(%rax), %rdx
	movq	-144(%rbp), %rax
	movq	%rdx, 16(%rax)
	movq	_TIG_iO_UTq2_1_readInput_1_opaque_list_1(%rip), %rdx
	movq	-144(%rbp), %rax
	movq	%rdx, 8(%rax)
	movq	_TIG_iO_UTq2_1_readInput_1_opaque_list_1(%rip), %rax
	movq	16(%rax), %rax
	movq	-144(%rbp), %rdx
	movq	%rdx, 8(%rax)
	movq	_TIG_iO_UTq2_1_readInput_1_opaque_list_1(%rip), %rax
	movq	-144(%rbp), %rdx
	movq	%rdx, 16(%rax)
	movq	_TIG_iO_UTq2_1_readInput_1_opaque_list_1(%rip), %rax
	movq	16(%rax), %rax
	movq	%rax, _TIG_iO_UTq2_1_readInput_1_opaque_ptr_1(%rip)
	movq	_TIG_iO_UTq2_1_readInput_1_opaque_ptr_1(%rip), %rax
	movq	%rax, _TIG_iO_UTq2_1_readInput_1_opaque_ptr_2(%rip)
	nop
	nop
	movq	_TIG_iO_UTq2_1_readInput_1_opaque_ptr_1(%rip), %rdx
	movq	_TIG_iO_UTq2_1_readInput_1_opaque_ptr_2(%rip), %rax
	cmpq	%rax, %rdx
	jne	.L44
	movq	$0, -112(%rbp)
	movq	$0, -104(%rbp)
	movq	$0, -96(%rbp)
	leaq	-112(%rbp), %rax
	movq	%rax, %rdi
	call	newKeyOrLock
	movq	%rax, -136(%rbp)
	movq	-136(%rbp), %rax
	movq	%rax, -168(%rbp)
	movq	$64, -104(%rbp)
	jmp	.L50
.L44:
	movq	$0, -112(%rbp)
	movq	$0, -104(%rbp)
	movq	$12, -96(%rbp)
	leaq	-112(%rbp), %rax
	addq	$24, %rax
	movq	%rax, %rdi
	call	newKeyOrLock
	movq	%rax, -136(%rbp)
	movq	-136(%rbp), %rax
	subq	$12, %rax
	movq	%rax, -168(%rbp)
	movq	-128(%rbp), %rax
	movq	%rax, -104(%rbp)
.L50:
	movq	-208(%rbp), %rdx
	leaq	-80(%rbp), %rax
	movl	$64, %esi
	movq	%rax, %rdi
	call	fgets@PLT
	movq	%rax, -120(%rbp)
	cmpq	$0, -120(%rbp)
	je	.L54
	leaq	-80(%rbp), %rax
	leaq	.LC6(%rip), %rdx
	movq	%rdx, %rsi
	movq	%rax, %rdi
	call	strcmp@PLT
	movl	%eax, -172(%rbp)
	cmpl	$0, -172(%rbp)
	jne	.L48
	leaq	-112(%rbp), %rax
	movq	%rax, %rdi
	call	newKeyOrLock
	movq	%rax, -168(%rbp)
	jmp	.L50
.L48:
	leaq	-80(%rbp), %rdx
	movq	-168(%rbp), %rax
	movq	%rdx, %rsi
	movq	%rax, %rdi
	call	feedInput
	jmp	.L50
.L54:
	nop
	movq	-200(%rbp), %rcx
	movq	-112(%rbp), %rax
	movq	-104(%rbp), %rdx
	movq	%rax, (%rcx)
	movq	%rdx, 8(%rcx)
	movq	-96(%rbp), %rax
	movq	%rax, 16(%rcx)
	movq	-8(%rbp), %rax
	subq	%fs:40, %rax
	je	.L52
	call	__stack_chk_fail@PLT
.L52:
	movq	-200(%rbp), %rax
	leave
	.cfi_def_cfa 7, 8
	ret
	.cfi_endproc
.LFE8:
	.size	readInput, .-readInput
	.section	.rodata
.LC7:
	.string	"main"
.LC8:
	.string	"kohtoa15_adventofcode_main.c"
.LC9:
	.string	"argc == 2"
.LC10:
	.string	"r"
.LC11:
	.string	"key/lock pairs that fit: %d\n"
	.text
	.globl	main
	.type	main, @function
main:
.LFB11:
	.cfi_startproc
	endbr64
	pushq	%rbp
	.cfi_def_cfa_offset 16
	.cfi_offset 6, -16
	movq	%rsp, %rbp
	.cfi_def_cfa_register 6
	subq	$256, %rsp
	movl	%edi, -228(%rbp)
	movq	%rsi, -240(%rbp)
	movq	%rdx, -248(%rbp)
	movq	%fs:40, %rax
	movq	%rax, -8(%rbp)
	xorl	%eax, %eax
	movq	$0, _TIG_IZ_UTq2_envp(%rip)
	nop
.L56:
	movq	$0, _TIG_IZ_UTq2_argv(%rip)
	nop
.L57:
	movl	$0, _TIG_IZ_UTq2_argc(%rip)
	nop
	nop
.L58:
.L59:
#APP
# 101 "/usr/include/x86_64-linux-gnu/bits/uintn-identity.h" 1
	##_ANNOTATION_INITIALREGION_-TIG-IZ-UTq2--0
# 0 "" 2
#NO_APP
	movl	-228(%rbp), %eax
	movl	%eax, _TIG_IZ_UTq2_argc(%rip)
	movq	-240(%rbp), %rax
	movq	%rax, _TIG_IZ_UTq2_argv(%rip)
	movq	-248(%rbp), %rax
	movq	%rax, _TIG_IZ_UTq2_envp(%rip)
#APP
# 108 "/usr/include/x86_64-linux-gnu/bits/uintn-identity.h" 1
	##_ANNOTATION_ATOMICREGION_-TIG-iO-UTq2-1-main--23
# 0 "" 2
#NO_APP
	movl	$24, %edi
	call	malloc@PLT
	movq	%rax, -192(%rbp)
	movq	-192(%rbp), %rax
	movq	-192(%rbp), %rdx
	movq	%rdx, (%rax)
	movq	-192(%rbp), %rax
	movq	-192(%rbp), %rdx
	movq	%rdx, 8(%rax)
	movq	-192(%rbp), %rax
	movq	%rax, _TIG_iO_UTq2_1_main_1_opaque_list_1(%rip)
	call	rand@PLT
	movl	%eax, -212(%rbp)
	movl	$24, %edi
	call	malloc@PLT
	movq	%rax, -184(%rbp)
	movq	-184(%rbp), %rax
	movl	$0, 16(%rax)
	movq	_TIG_iO_UTq2_1_main_1_opaque_list_1(%rip), %rax
	movq	(%rax), %rdx
	movq	-184(%rbp), %rax
	movq	%rdx, (%rax)
	movq	_TIG_iO_UTq2_1_main_1_opaque_list_1(%rip), %rdx
	movq	-184(%rbp), %rax
	movq	%rdx, 8(%rax)
	movq	_TIG_iO_UTq2_1_main_1_opaque_list_1(%rip), %rax
	movq	(%rax), %rax
	movq	-184(%rbp), %rdx
	movq	%rdx, 8(%rax)
	movq	_TIG_iO_UTq2_1_main_1_opaque_list_1(%rip), %rax
	movq	-184(%rbp), %rdx
	movq	%rdx, (%rax)
	call	rand@PLT
	movl	%eax, -208(%rbp)
	movl	$24, %edi
	call	malloc@PLT
	movq	%rax, -176(%rbp)
	movq	-176(%rbp), %rax
	movl	-208(%rbp), %edx
	movl	%edx, 16(%rax)
	movq	_TIG_iO_UTq2_1_main_1_opaque_list_1(%rip), %rax
	movq	(%rax), %rdx
	movq	-176(%rbp), %rax
	movq	%rdx, (%rax)
	movq	_TIG_iO_UTq2_1_main_1_opaque_list_1(%rip), %rdx
	movq	-176(%rbp), %rax
	movq	%rdx, 8(%rax)
	movq	_TIG_iO_UTq2_1_main_1_opaque_list_1(%rip), %rax
	movq	(%rax), %rax
	movq	-176(%rbp), %rdx
	movq	%rdx, 8(%rax)
	movq	_TIG_iO_UTq2_1_main_1_opaque_list_1(%rip), %rax
	movq	-176(%rbp), %rdx
	movq	%rdx, (%rax)
	call	rand@PLT
	movl	%eax, -204(%rbp)
	movl	$24, %edi
	call	malloc@PLT
	movq	%rax, -168(%rbp)
	movl	-204(%rbp), %eax
	leal	(%rax,%rax), %edx
	movq	-168(%rbp), %rax
	movl	%edx, 16(%rax)
	movq	_TIG_iO_UTq2_1_main_1_opaque_list_1(%rip), %rax
	movq	(%rax), %rdx
	movq	-168(%rbp), %rax
	movq	%rdx, (%rax)
	movq	_TIG_iO_UTq2_1_main_1_opaque_list_1(%rip), %rdx
	movq	-168(%rbp), %rax
	movq	%rdx, 8(%rax)
	movq	_TIG_iO_UTq2_1_main_1_opaque_list_1(%rip), %rax
	movq	(%rax), %rax
	movq	-168(%rbp), %rdx
	movq	%rdx, 8(%rax)
	movq	_TIG_iO_UTq2_1_main_1_opaque_list_1(%rip), %rax
	movq	-168(%rbp), %rdx
	movq	%rdx, (%rax)
	movq	_TIG_iO_UTq2_1_main_1_opaque_list_1(%rip), %rax
	movq	(%rax), %rax
	movq	%rax, _TIG_iO_UTq2_1_main_1_opaque_ptr_1(%rip)
	movq	_TIG_iO_UTq2_1_main_1_opaque_ptr_1(%rip), %rax
	movq	%rax, _TIG_iO_UTq2_1_main_1_opaque_ptr_2(%rip)
	movq	_TIG_iO_UTq2_1_main_1_opaque_ptr_2(%rip), %rax
	movq	(%rax), %rax
	movq	%rax, _TIG_iO_UTq2_1_main_1_opaque_ptr_2(%rip)
	nop
	nop
	cmpl	$2, -228(%rbp)
	je	.L60
	leaq	.LC7(%rip), %rax
	movq	%rax, %rcx
	movl	$155, %edx
	leaq	.LC8(%rip), %rax
	movq	%rax, %rsi
	leaq	.LC9(%rip), %rax
	movq	%rax, %rdi
	call	__assert_fail@PLT
.L60:
	movq	-240(%rbp), %rax
	addq	$8, %rax
	movq	(%rax), %rax
	leaq	.LC10(%rip), %rdx
	movq	%rdx, %rsi
	movq	%rax, %rdi
	call	fopen@PLT
	movq	%rax, -160(%rbp)
	movq	-160(%rbp), %rax
	movq	%rax, -152(%rbp)
	leaq	-112(%rbp), %rax
	movq	-152(%rbp), %rdx
	movq	%rdx, %rsi
	movq	%rax, %rdi
	call	readInput
	movq	-112(%rbp), %rax
	movq	-104(%rbp), %rdx
	movq	%rax, -144(%rbp)
	movq	%rdx, -136(%rbp)
	movq	-96(%rbp), %rax
	movq	%rax, -128(%rbp)
	movq	-152(%rbp), %rax
	movq	%rax, %rdi
	call	fclose@PLT
	leaq	-48(%rbp), %rax
	subq	$8, %rsp
	pushq	-128(%rbp)
	pushq	-136(%rbp)
	pushq	-144(%rbp)
	movq	%rax, %rdi
	call	convertKeysAndLocks
	addq	$32, %rsp
	movq	-48(%rbp), %rax
	movq	-40(%rbp), %rdx
	movq	%rax, -80(%rbp)
	movq	%rdx, -72(%rbp)
	movq	-32(%rbp), %rax
	movq	-24(%rbp), %rdx
	movq	%rax, -64(%rbp)
	movq	%rdx, -56(%rbp)
	pushq	-56(%rbp)
	pushq	-64(%rbp)
	pushq	-72(%rbp)
	pushq	-80(%rbp)
	call	getFittingKeysLocks
	addq	$32, %rsp
	movl	%eax, -200(%rbp)
	movl	-200(%rbp), %eax
	movl	%eax, -196(%rbp)
	movl	-196(%rbp), %eax
	movl	%eax, %esi
	leaq	.LC11(%rip), %rax
	movq	%rax, %rdi
	movl	$0, %eax
	call	printf@PLT
	movq	_TIG_iO_UTq2_1_readInput_1_opaque_ptr_1(%rip), %rdx
	movq	_TIG_iO_UTq2_1_readInput_1_opaque_ptr_2(%rip), %rax
	cmpq	%rax, %rdx
	jne	.L61
	movl	$0, %eax
	jmp	.L62
.L61:
	movl	$0, %eax
.L62:
	movq	-8(%rbp), %rdx
	subq	%fs:40, %rdx
	je	.L63
	call	__stack_chk_fail@PLT
.L63:
	leave
	.cfi_def_cfa 7, 8
	ret
	.cfi_endproc
.LFE11:
	.size	main, .-main
	.globl	getFittingKeysLocks
	.type	getFittingKeysLocks, @function
getFittingKeysLocks:
.LFB13:
	.cfi_startproc
	endbr64
	pushq	%rbp
	.cfi_def_cfa_offset 16
	.cfi_offset 6, -16
	movq	%rsp, %rbp
	.cfi_def_cfa_register 6
	subq	$80, %rsp
#APP
# 59 "/usr/include/x86_64-linux-gnu/bits/byteswap.h" 1
	##_ANNOTATION_INITIALREGION_-TIG-iO-UTq2-1-getFittingKeysLocks--20
# 0 "" 2
# 63 "/usr/include/x86_64-linux-gnu/bits/byteswap.h" 1
	##_ANNOTATION_ATOMICREGION_-TIG-iO-UTq2-1-getFittingKeysLocks--19
# 0 "" 2
#NO_APP
	movl	$24, %edi
	call	malloc@PLT
	movq	%rax, -48(%rbp)
	movq	-48(%rbp), %rax
	movq	-48(%rbp), %rdx
	movq	%rdx, 8(%rax)
	movq	-48(%rbp), %rax
	movq	-48(%rbp), %rdx
	movq	%rdx, 16(%rax)
	movq	-48(%rbp), %rax
	movq	%rax, _TIG_iO_UTq2_1_getFittingKeysLocks_1_opaque_list_1(%rip)
	call	rand@PLT
	movl	%eax, -72(%rbp)
	movl	$24, %edi
	call	malloc@PLT
	movq	%rax, -40(%rbp)
	movq	-40(%rbp), %rax
	movl	$0, (%rax)
	movq	_TIG_iO_UTq2_1_getFittingKeysLocks_1_opaque_list_1(%rip), %rax
	movq	8(%rax), %rdx
	movq	-40(%rbp), %rax
	movq	%rdx, 8(%rax)
	movq	_TIG_iO_UTq2_1_getFittingKeysLocks_1_opaque_list_1(%rip), %rdx
	movq	-40(%rbp), %rax
	movq	%rdx, 16(%rax)
	movq	_TIG_iO_UTq2_1_getFittingKeysLocks_1_opaque_list_1(%rip), %rax
	movq	8(%rax), %rax
	movq	-40(%rbp), %rdx
	movq	%rdx, 16(%rax)
	movq	_TIG_iO_UTq2_1_getFittingKeysLocks_1_opaque_list_1(%rip), %rax
	movq	-40(%rbp), %rdx
	movq	%rdx, 8(%rax)
	call	rand@PLT
	movl	%eax, -68(%rbp)
	movl	$24, %edi
	call	malloc@PLT
	movq	%rax, -32(%rbp)
	movq	-32(%rbp), %rax
	movl	-68(%rbp), %edx
	movl	%edx, (%rax)
	movq	_TIG_iO_UTq2_1_getFittingKeysLocks_1_opaque_list_1(%rip), %rax
	movq	8(%rax), %rdx
	movq	-32(%rbp), %rax
	movq	%rdx, 8(%rax)
	movq	_TIG_iO_UTq2_1_getFittingKeysLocks_1_opaque_list_1(%rip), %rdx
	movq	-32(%rbp), %rax
	movq	%rdx, 16(%rax)
	movq	_TIG_iO_UTq2_1_getFittingKeysLocks_1_opaque_list_1(%rip), %rax
	movq	8(%rax), %rax
	movq	-32(%rbp), %rdx
	movq	%rdx, 16(%rax)
	movq	_TIG_iO_UTq2_1_getFittingKeysLocks_1_opaque_list_1(%rip), %rax
	movq	-32(%rbp), %rdx
	movq	%rdx, 8(%rax)
	movq	_TIG_iO_UTq2_1_getFittingKeysLocks_1_opaque_list_1(%rip), %rax
	movq	8(%rax), %rax
	movq	%rax, _TIG_iO_UTq2_1_getFittingKeysLocks_1_opaque_ptr_1(%rip)
	movq	_TIG_iO_UTq2_1_getFittingKeysLocks_1_opaque_ptr_1(%rip), %rax
	movq	%rax, _TIG_iO_UTq2_1_getFittingKeysLocks_1_opaque_ptr_2(%rip)
	nop
	nop
	movl	$0, -76(%rbp)
	movq	$0, -64(%rbp)
	jmp	.L65
.L69:
	movq	40(%rbp), %rdx
	movq	-64(%rbp), %rax
	salq	$3, %rax
	addq	%rdx, %rax
	movq	(%rax), %rax
	movq	%rax, -24(%rbp)
	movq	$0, -56(%rbp)
	jmp	.L66
.L68:
	movq	32(%rbp), %rdx
	movq	-56(%rbp), %rax
	salq	$3, %rax
	addq	%rdx, %rax
	movq	(%rax), %rax
	movq	%rax, -16(%rbp)
	movq	-24(%rbp), %rdx
	movq	-16(%rbp), %rax
	addq	%rax, %rdx
	movabsq	$43118103050, %rax
	addq	%rdx, %rax
	movq	%rax, -8(%rbp)
	movabsq	$1034834473200, %rax
	andq	-8(%rbp), %rax
	testq	%rax, %rax
	jne	.L67
	addl	$1, -76(%rbp)
.L67:
	addq	$1, -56(%rbp)
.L66:
	movq	16(%rbp), %rax
	cmpq	%rax, -56(%rbp)
	jb	.L68
	addq	$1, -64(%rbp)
.L65:
	movq	24(%rbp), %rax
	cmpq	%rax, -64(%rbp)
	jb	.L69
	movq	_TIG_iO_UTq2_1_readInput_1_opaque_ptr_1(%rip), %rdx
	movq	_TIG_iO_UTq2_1_readInput_1_opaque_ptr_2(%rip), %rax
	cmpq	%rax, %rdx
	je	.L70
	movl	$0, %esi
	movl	$0, %edi
	call	feedInput
.L70:
	movl	-76(%rbp), %eax
	leave
	.cfi_def_cfa 7, 8
	ret
	.cfi_endproc
.LFE13:
	.size	getFittingKeysLocks, .-getFittingKeysLocks
	.ident	"GCC: (Ubuntu 11.4.0-1ubuntu1~22.04) 11.4.0"
	.section	.note.GNU-stack,"",@progbits
	.section	.note.gnu.property,"a"
	.align 8
	.long	1f - 0f
	.long	4f - 1f
	.long	5
0:
	.string	"GNU"
1:
	.align 8
	.long	0xc0000002
	.long	3f - 2f
2:
	.long	0x3
3:
	.align 8
4:
