	.file	"lac-dcc_jotai-benchmarks_extr_linuxtoolsperfutilevsel.c_perf_evsel__read_size_Final_opaque.c"
	.text
	.globl	_TIG_iO_DTNa_1_main_1_opaque_list_1
	.bss
	.align 8
	.type	_TIG_iO_DTNa_1_main_1_opaque_list_1, @object
	.size	_TIG_iO_DTNa_1_main_1_opaque_list_1, 8
_TIG_iO_DTNa_1_main_1_opaque_list_1:
	.zero	8
	.globl	_TIG_iO_DTNa_1_next_i_1_opaque_ptr_1
	.align 8
	.type	_TIG_iO_DTNa_1_next_i_1_opaque_ptr_1, @object
	.size	_TIG_iO_DTNa_1_next_i_1_opaque_ptr_1, 8
_TIG_iO_DTNa_1_next_i_1_opaque_ptr_1:
	.zero	8
	.globl	_TIG_iO_DTNa_1___bswap_32_1_opaque_list_2
	.align 8
	.type	_TIG_iO_DTNa_1___bswap_32_1_opaque_list_2, @object
	.size	_TIG_iO_DTNa_1___bswap_32_1_opaque_list_2, 8
_TIG_iO_DTNa_1___bswap_32_1_opaque_list_2:
	.zero	8
	.globl	_TIG_iO_DTNa_1_main_1_opaque_ptr_2
	.align 8
	.type	_TIG_iO_DTNa_1_main_1_opaque_ptr_2, @object
	.size	_TIG_iO_DTNa_1_main_1_opaque_ptr_2, 8
_TIG_iO_DTNa_1_main_1_opaque_ptr_2:
	.zero	8
	.globl	_TIG_iO_DTNa_1_perf_evsel__read_size_1_opaque_ptr_1
	.align 8
	.type	_TIG_iO_DTNa_1_perf_evsel__read_size_1_opaque_ptr_1, @object
	.size	_TIG_iO_DTNa_1_perf_evsel__read_size_1_opaque_ptr_1, 8
_TIG_iO_DTNa_1_perf_evsel__read_size_1_opaque_ptr_1:
	.zero	8
	.globl	_TIG_iO_DTNa_1_next_f_1_opaque_list_2
	.align 8
	.type	_TIG_iO_DTNa_1_next_f_1_opaque_list_2, @object
	.size	_TIG_iO_DTNa_1_next_f_1_opaque_list_2, 8
_TIG_iO_DTNa_1_next_f_1_opaque_list_2:
	.zero	8
	.globl	_TIG_iO_DTNa_1___bswap_16_1_opaque_list_1
	.align 8
	.type	_TIG_iO_DTNa_1___bswap_16_1_opaque_list_1, @object
	.size	_TIG_iO_DTNa_1___bswap_16_1_opaque_list_1, 8
_TIG_iO_DTNa_1___bswap_16_1_opaque_list_1:
	.zero	8
	.globl	_TIG_iO_DTNa_1_perf_evsel__read_size_1_opaque_list_2
	.align 8
	.type	_TIG_iO_DTNa_1_perf_evsel__read_size_1_opaque_list_2, @object
	.size	_TIG_iO_DTNa_1_perf_evsel__read_size_1_opaque_list_2, 8
_TIG_iO_DTNa_1_perf_evsel__read_size_1_opaque_list_2:
	.zero	8
	.globl	_TIG_iO_DTNa_1_next_i_1_opaque_list_2
	.align 8
	.type	_TIG_iO_DTNa_1_next_i_1_opaque_list_2, @object
	.size	_TIG_iO_DTNa_1_next_i_1_opaque_list_2, 8
_TIG_iO_DTNa_1_next_i_1_opaque_list_2:
	.zero	8
	.globl	_TIG_iO_DTNa_1_perf_evsel__read_size_1_opaque_ptr_2
	.align 8
	.type	_TIG_iO_DTNa_1_perf_evsel__read_size_1_opaque_ptr_2, @object
	.size	_TIG_iO_DTNa_1_perf_evsel__read_size_1_opaque_ptr_2, 8
_TIG_iO_DTNa_1_perf_evsel__read_size_1_opaque_ptr_2:
	.zero	8
	.globl	PERF_FORMAT_TOTAL_TIME_ENABLED
	.align 4
	.type	PERF_FORMAT_TOTAL_TIME_ENABLED, @object
	.size	PERF_FORMAT_TOTAL_TIME_ENABLED, 4
PERF_FORMAT_TOTAL_TIME_ENABLED:
	.zero	4
	.globl	_TIG_iO_DTNa_1___bswap_16_1_opaque_ptr_1
	.align 8
	.type	_TIG_iO_DTNa_1___bswap_16_1_opaque_ptr_1, @object
	.size	_TIG_iO_DTNa_1___bswap_16_1_opaque_ptr_1, 8
_TIG_iO_DTNa_1___bswap_16_1_opaque_ptr_1:
	.zero	8
	.globl	_TIG_iO_DTNa_1___uint16_identity_1_opaque_list_1
	.align 8
	.type	_TIG_iO_DTNa_1___uint16_identity_1_opaque_list_1, @object
	.size	_TIG_iO_DTNa_1___uint16_identity_1_opaque_list_1, 8
_TIG_iO_DTNa_1___uint16_identity_1_opaque_list_1:
	.zero	8
	.globl	_TIG_iO_DTNa_1___bswap_32_1_opaque_ptr_1
	.align 8
	.type	_TIG_iO_DTNa_1___bswap_32_1_opaque_ptr_1, @object
	.size	_TIG_iO_DTNa_1___bswap_32_1_opaque_ptr_1, 8
_TIG_iO_DTNa_1___bswap_32_1_opaque_ptr_1:
	.zero	8
	.globl	PERF_FORMAT_GROUP
	.align 4
	.type	PERF_FORMAT_GROUP, @object
	.size	PERF_FORMAT_GROUP, 4
PERF_FORMAT_GROUP:
	.zero	4
	.globl	_TIG_iO_DTNa_1_usage_1_opaque_ptr_2
	.align 8
	.type	_TIG_iO_DTNa_1_usage_1_opaque_ptr_2, @object
	.size	_TIG_iO_DTNa_1_usage_1_opaque_ptr_2, 8
_TIG_iO_DTNa_1_usage_1_opaque_ptr_2:
	.zero	8
	.globl	_TIG_iO_DTNa_1_usage_1_opaque_list_2
	.align 8
	.type	_TIG_iO_DTNa_1_usage_1_opaque_list_2, @object
	.size	_TIG_iO_DTNa_1_usage_1_opaque_list_2, 8
_TIG_iO_DTNa_1_usage_1_opaque_list_2:
	.zero	8
	.globl	_TIG_iO_DTNa_1_next_i_1_opaque_list_1
	.align 8
	.type	_TIG_iO_DTNa_1_next_i_1_opaque_list_1, @object
	.size	_TIG_iO_DTNa_1_next_i_1_opaque_list_1, 8
_TIG_iO_DTNa_1_next_i_1_opaque_list_1:
	.zero	8
	.globl	_TIG_IZ_DTNa_envp
	.align 8
	.type	_TIG_IZ_DTNa_envp, @object
	.size	_TIG_IZ_DTNa_envp, 8
_TIG_IZ_DTNa_envp:
	.zero	8
	.globl	_TIG_iO_DTNa_1_next_i_1_opaque_ptr_2
	.align 8
	.type	_TIG_iO_DTNa_1_next_i_1_opaque_ptr_2, @object
	.size	_TIG_iO_DTNa_1_next_i_1_opaque_ptr_2, 8
_TIG_iO_DTNa_1_next_i_1_opaque_ptr_2:
	.zero	8
	.globl	_TIG_IZ_DTNa_argv
	.align 8
	.type	_TIG_IZ_DTNa_argv, @object
	.size	_TIG_IZ_DTNa_argv, 8
_TIG_IZ_DTNa_argv:
	.zero	8
	.globl	_TIG_iO_DTNa_1___uint64_identity_1_opaque_ptr_2
	.align 8
	.type	_TIG_iO_DTNa_1___uint64_identity_1_opaque_ptr_2, @object
	.size	_TIG_iO_DTNa_1___uint64_identity_1_opaque_ptr_2, 8
_TIG_iO_DTNa_1___uint64_identity_1_opaque_ptr_2:
	.zero	8
	.globl	_TIG_iO_DTNa_1___uint64_identity_1_opaque_ptr_1
	.align 8
	.type	_TIG_iO_DTNa_1___uint64_identity_1_opaque_ptr_1, @object
	.size	_TIG_iO_DTNa_1___uint64_identity_1_opaque_ptr_1, 8
_TIG_iO_DTNa_1___uint64_identity_1_opaque_ptr_1:
	.zero	8
	.globl	rand_primes
	.align 32
	.type	rand_primes, @object
	.size	rand_primes, 100
rand_primes:
	.zero	100
	.globl	_TIG_iO_DTNa_1___uint16_identity_1_opaque_ptr_2
	.align 8
	.type	_TIG_iO_DTNa_1___uint16_identity_1_opaque_ptr_2, @object
	.size	_TIG_iO_DTNa_1___uint16_identity_1_opaque_ptr_2, 8
_TIG_iO_DTNa_1___uint16_identity_1_opaque_ptr_2:
	.zero	8
	.globl	PERF_FORMAT_TOTAL_TIME_RUNNING
	.align 4
	.type	PERF_FORMAT_TOTAL_TIME_RUNNING, @object
	.size	PERF_FORMAT_TOTAL_TIME_RUNNING, 4
PERF_FORMAT_TOTAL_TIME_RUNNING:
	.zero	4
	.globl	_TIG_iO_DTNa_1___uint32_identity_1_opaque_ptr_1
	.align 8
	.type	_TIG_iO_DTNa_1___uint32_identity_1_opaque_ptr_1, @object
	.size	_TIG_iO_DTNa_1___uint32_identity_1_opaque_ptr_1, 8
_TIG_iO_DTNa_1___uint32_identity_1_opaque_ptr_1:
	.zero	8
	.globl	_TIG_iO_DTNa_1_main_1_opaque_ptr_1
	.align 8
	.type	_TIG_iO_DTNa_1_main_1_opaque_ptr_1, @object
	.size	_TIG_iO_DTNa_1_main_1_opaque_ptr_1, 8
_TIG_iO_DTNa_1_main_1_opaque_ptr_1:
	.zero	8
	.globl	_TIG_IZ_DTNa_argc
	.align 4
	.type	_TIG_IZ_DTNa_argc, @object
	.size	_TIG_IZ_DTNa_argc, 4
_TIG_IZ_DTNa_argc:
	.zero	4
	.globl	_TIG_iO_DTNa_1___uint32_identity_1_opaque_ptr_2
	.align 8
	.type	_TIG_iO_DTNa_1___uint32_identity_1_opaque_ptr_2, @object
	.size	_TIG_iO_DTNa_1___uint32_identity_1_opaque_ptr_2, 8
_TIG_iO_DTNa_1___uint32_identity_1_opaque_ptr_2:
	.zero	8
	.globl	_TIG_iO_DTNa_1___uint32_identity_1_opaque_list_1
	.align 8
	.type	_TIG_iO_DTNa_1___uint32_identity_1_opaque_list_1, @object
	.size	_TIG_iO_DTNa_1___uint32_identity_1_opaque_list_1, 8
_TIG_iO_DTNa_1___uint32_identity_1_opaque_list_1:
	.zero	8
	.globl	_TIG_iO_DTNa_1___uint16_identity_1_opaque_ptr_1
	.align 8
	.type	_TIG_iO_DTNa_1___uint16_identity_1_opaque_ptr_1, @object
	.size	_TIG_iO_DTNa_1___uint16_identity_1_opaque_ptr_1, 8
_TIG_iO_DTNa_1___uint16_identity_1_opaque_ptr_1:
	.zero	8
	.globl	_TIG_iO_DTNa_1___bswap_16_1_opaque_ptr_2
	.align 8
	.type	_TIG_iO_DTNa_1___bswap_16_1_opaque_ptr_2, @object
	.size	_TIG_iO_DTNa_1___bswap_16_1_opaque_ptr_2, 8
_TIG_iO_DTNa_1___bswap_16_1_opaque_ptr_2:
	.zero	8
	.globl	_TIG_iO_DTNa_1_perf_evsel__read_size_1_opaque_list_1
	.align 8
	.type	_TIG_iO_DTNa_1_perf_evsel__read_size_1_opaque_list_1, @object
	.size	_TIG_iO_DTNa_1_perf_evsel__read_size_1_opaque_list_1, 8
_TIG_iO_DTNa_1_perf_evsel__read_size_1_opaque_list_1:
	.zero	8
	.globl	_TIG_iO_DTNa_1___uint64_identity_1_opaque_list_2
	.align 8
	.type	_TIG_iO_DTNa_1___uint64_identity_1_opaque_list_2, @object
	.size	_TIG_iO_DTNa_1___uint64_identity_1_opaque_list_2, 8
_TIG_iO_DTNa_1___uint64_identity_1_opaque_list_2:
	.zero	8
	.globl	_TIG_iO_DTNa_1_main_1_opaque_list_2
	.align 8
	.type	_TIG_iO_DTNa_1_main_1_opaque_list_2, @object
	.size	_TIG_iO_DTNa_1_main_1_opaque_list_2, 8
_TIG_iO_DTNa_1_main_1_opaque_list_2:
	.zero	8
	.globl	_TIG_iO_DTNa_1_usage_1_opaque_list_1
	.align 8
	.type	_TIG_iO_DTNa_1_usage_1_opaque_list_1, @object
	.size	_TIG_iO_DTNa_1_usage_1_opaque_list_1, 8
_TIG_iO_DTNa_1_usage_1_opaque_list_1:
	.zero	8
	.globl	_TIG_iO_DTNa_1_next_f_1_opaque_ptr_2
	.align 8
	.type	_TIG_iO_DTNa_1_next_f_1_opaque_ptr_2, @object
	.size	_TIG_iO_DTNa_1_next_f_1_opaque_ptr_2, 8
_TIG_iO_DTNa_1_next_f_1_opaque_ptr_2:
	.zero	8
	.globl	_TIG_iO_DTNa_1_next_f_1_opaque_ptr_1
	.align 8
	.type	_TIG_iO_DTNa_1_next_f_1_opaque_ptr_1, @object
	.size	_TIG_iO_DTNa_1_next_f_1_opaque_ptr_1, 8
_TIG_iO_DTNa_1_next_f_1_opaque_ptr_1:
	.zero	8
	.globl	_TIG_iO_DTNa_1_usage_1_opaque_ptr_1
	.align 8
	.type	_TIG_iO_DTNa_1_usage_1_opaque_ptr_1, @object
	.size	_TIG_iO_DTNa_1_usage_1_opaque_ptr_1, 8
_TIG_iO_DTNa_1_usage_1_opaque_ptr_1:
	.zero	8
	.globl	_TIG_iO_DTNa_1_next_f_1_opaque_list_1
	.align 8
	.type	_TIG_iO_DTNa_1_next_f_1_opaque_list_1, @object
	.size	_TIG_iO_DTNa_1_next_f_1_opaque_list_1, 8
_TIG_iO_DTNa_1_next_f_1_opaque_list_1:
	.zero	8
	.globl	_TIG_iO_DTNa_1___bswap_64_1_opaque_ptr_1
	.align 8
	.type	_TIG_iO_DTNa_1___bswap_64_1_opaque_ptr_1, @object
	.size	_TIG_iO_DTNa_1___bswap_64_1_opaque_ptr_1, 8
_TIG_iO_DTNa_1___bswap_64_1_opaque_ptr_1:
	.zero	8
	.globl	_TIG_iO_DTNa_1___bswap_32_1_opaque_list_1
	.align 8
	.type	_TIG_iO_DTNa_1___bswap_32_1_opaque_list_1, @object
	.size	_TIG_iO_DTNa_1___bswap_32_1_opaque_list_1, 8
_TIG_iO_DTNa_1___bswap_32_1_opaque_list_1:
	.zero	8
	.globl	_TIG_iO_DTNa_1___bswap_32_1_opaque_ptr_2
	.align 8
	.type	_TIG_iO_DTNa_1___bswap_32_1_opaque_ptr_2, @object
	.size	_TIG_iO_DTNa_1___bswap_32_1_opaque_ptr_2, 8
_TIG_iO_DTNa_1___bswap_32_1_opaque_ptr_2:
	.zero	8
	.globl	_TIG_iO_DTNa_1___bswap_64_1_opaque_ptr_2
	.align 8
	.type	_TIG_iO_DTNa_1___bswap_64_1_opaque_ptr_2, @object
	.size	_TIG_iO_DTNa_1___bswap_64_1_opaque_ptr_2, 8
_TIG_iO_DTNa_1___bswap_64_1_opaque_ptr_2:
	.zero	8
	.globl	_TIG_iO_DTNa_1___uint64_identity_1_opaque_list_1
	.align 8
	.type	_TIG_iO_DTNa_1___uint64_identity_1_opaque_list_1, @object
	.size	_TIG_iO_DTNa_1___uint64_identity_1_opaque_list_1, 8
_TIG_iO_DTNa_1___uint64_identity_1_opaque_list_1:
	.zero	8
	.globl	_TIG_iO_DTNa_1___bswap_64_1_opaque_list_1
	.align 8
	.type	_TIG_iO_DTNa_1___bswap_64_1_opaque_list_1, @object
	.size	_TIG_iO_DTNa_1___bswap_64_1_opaque_list_1, 8
_TIG_iO_DTNa_1___bswap_64_1_opaque_list_1:
	.zero	8
	.globl	_TIG_iO_DTNa_1___uint32_identity_1_opaque_list_2
	.align 8
	.type	_TIG_iO_DTNa_1___uint32_identity_1_opaque_list_2, @object
	.size	_TIG_iO_DTNa_1___uint32_identity_1_opaque_list_2, 8
_TIG_iO_DTNa_1___uint32_identity_1_opaque_list_2:
	.zero	8
	.globl	PERF_FORMAT_ID
	.align 4
	.type	PERF_FORMAT_ID, @object
	.size	PERF_FORMAT_ID, 4
PERF_FORMAT_ID:
	.zero	4
	.globl	_TIG_iO_DTNa_1___bswap_16_1_opaque_list_2
	.align 8
	.type	_TIG_iO_DTNa_1___bswap_16_1_opaque_list_2, @object
	.size	_TIG_iO_DTNa_1___bswap_16_1_opaque_list_2, 8
_TIG_iO_DTNa_1___bswap_16_1_opaque_list_2:
	.zero	8
	.globl	_TIG_iO_DTNa_1___bswap_64_1_opaque_list_2
	.align 8
	.type	_TIG_iO_DTNa_1___bswap_64_1_opaque_list_2, @object
	.size	_TIG_iO_DTNa_1___bswap_64_1_opaque_list_2, 8
_TIG_iO_DTNa_1___bswap_64_1_opaque_list_2:
	.zero	8
	.globl	_TIG_iO_DTNa_1___uint16_identity_1_opaque_list_2
	.align 8
	.type	_TIG_iO_DTNa_1___uint16_identity_1_opaque_list_2, @object
	.size	_TIG_iO_DTNa_1___uint16_identity_1_opaque_list_2, 8
_TIG_iO_DTNa_1___uint16_identity_1_opaque_list_2:
	.zero	8
	.section	.rodata
.LC0:
	.string	"%d\n"
	.text
	.globl	main
	.type	main, @function
main:
.LFB3:
	.cfi_startproc
	endbr64
	pushq	%rbp
	.cfi_def_cfa_offset 16
	.cfi_offset 6, -16
	movq	%rsp, %rbp
	.cfi_def_cfa_register 6
	subq	$240, %rsp
	movl	%edi, -212(%rbp)
	movq	%rsi, -224(%rbp)
	movq	%rdx, -232(%rbp)
	movl	$0, PERF_FORMAT_TOTAL_TIME_RUNNING(%rip)
	nop
.L2:
	movl	$0, PERF_FORMAT_TOTAL_TIME_ENABLED(%rip)
	nop
.L3:
	movl	$0, PERF_FORMAT_ID(%rip)
	nop
.L4:
	movl	$0, PERF_FORMAT_GROUP(%rip)
	nop
.L5:
	movl	$179, rand_primes(%rip)
	movl	$103, 4+rand_primes(%rip)
	movl	$479, 8+rand_primes(%rip)
	movl	$647, 12+rand_primes(%rip)
	movl	$229, 16+rand_primes(%rip)
	movl	$37, 20+rand_primes(%rip)
	movl	$271, 24+rand_primes(%rip)
	movl	$557, 28+rand_primes(%rip)
	movl	$263, 32+rand_primes(%rip)
	movl	$607, 36+rand_primes(%rip)
	movl	$18743, 40+rand_primes(%rip)
	movl	$50359, 44+rand_primes(%rip)
	movl	$21929, 48+rand_primes(%rip)
	movl	$48757, 52+rand_primes(%rip)
	movl	$98179, 56+rand_primes(%rip)
	movl	$12907, 60+rand_primes(%rip)
	movl	$52937, 64+rand_primes(%rip)
	movl	$64579, 68+rand_primes(%rip)
	movl	$49957, 72+rand_primes(%rip)
	movl	$52567, 76+rand_primes(%rip)
	movl	$507163, 80+rand_primes(%rip)
	movl	$149939, 84+rand_primes(%rip)
	movl	$412157, 88+rand_primes(%rip)
	movl	$680861, 92+rand_primes(%rip)
	movl	$757751, 96+rand_primes(%rip)
	nop
.L6:
	movq	$0, _TIG_IZ_DTNa_envp(%rip)
	nop
.L7:
	movq	$0, _TIG_IZ_DTNa_argv(%rip)
	nop
.L8:
	movl	$0, _TIG_IZ_DTNa_argc(%rip)
	nop
	nop
.L9:
.L10:
#APP
# 175 "/usr/include/x86_64-linux-gnu/bits/byteswap.h" 1
	##_ANNOTATION_INITIALREGION_-TIG-IZ-DTNa--0
# 0 "" 2
#NO_APP
	movl	-212(%rbp), %eax
	movl	%eax, _TIG_IZ_DTNa_argc(%rip)
	movq	-224(%rbp), %rax
	movq	%rax, _TIG_IZ_DTNa_argv(%rip)
	movq	-232(%rbp), %rax
	movq	%rax, _TIG_IZ_DTNa_envp(%rip)
#APP
# 182 "/usr/include/x86_64-linux-gnu/bits/byteswap.h" 1
	##_ANNOTATION_ATOMICREGION_-TIG-iO-DTNa-1-main--13
# 0 "" 2
#NO_APP
	movl	$24, %edi
	call	malloc@PLT
	movq	%rax, -88(%rbp)
	movq	-88(%rbp), %rax
	movq	-88(%rbp), %rdx
	movq	%rdx, (%rax)
	movq	-88(%rbp), %rax
	movq	-88(%rbp), %rdx
	movq	%rdx, 8(%rax)
	movq	-88(%rbp), %rax
	movq	%rax, _TIG_iO_DTNa_1_main_1_opaque_list_1(%rip)
	call	rand@PLT
	movl	%eax, -196(%rbp)
	movl	$24, %edi
	call	malloc@PLT
	movq	%rax, -80(%rbp)
	movq	-80(%rbp), %rax
	movl	$0, 16(%rax)
	movq	_TIG_iO_DTNa_1_main_1_opaque_list_1(%rip), %rax
	movq	(%rax), %rdx
	movq	-80(%rbp), %rax
	movq	%rdx, (%rax)
	movq	_TIG_iO_DTNa_1_main_1_opaque_list_1(%rip), %rdx
	movq	-80(%rbp), %rax
	movq	%rdx, 8(%rax)
	movq	_TIG_iO_DTNa_1_main_1_opaque_list_1(%rip), %rax
	movq	(%rax), %rax
	movq	-80(%rbp), %rdx
	movq	%rdx, 8(%rax)
	movq	_TIG_iO_DTNa_1_main_1_opaque_list_1(%rip), %rax
	movq	-80(%rbp), %rdx
	movq	%rdx, (%rax)
	call	rand@PLT
	movl	%eax, -192(%rbp)
	movl	$24, %edi
	call	malloc@PLT
	movq	%rax, -72(%rbp)
	movq	-72(%rbp), %rax
	movl	-192(%rbp), %edx
	movl	%edx, 16(%rax)
	movq	_TIG_iO_DTNa_1_main_1_opaque_list_1(%rip), %rax
	movq	(%rax), %rdx
	movq	-72(%rbp), %rax
	movq	%rdx, (%rax)
	movq	_TIG_iO_DTNa_1_main_1_opaque_list_1(%rip), %rdx
	movq	-72(%rbp), %rax
	movq	%rdx, 8(%rax)
	movq	_TIG_iO_DTNa_1_main_1_opaque_list_1(%rip), %rax
	movq	(%rax), %rax
	movq	-72(%rbp), %rdx
	movq	%rdx, 8(%rax)
	movq	_TIG_iO_DTNa_1_main_1_opaque_list_1(%rip), %rax
	movq	-72(%rbp), %rdx
	movq	%rdx, (%rax)
	call	rand@PLT
	movl	%eax, -188(%rbp)
	movl	$24, %edi
	call	malloc@PLT
	movq	%rax, -64(%rbp)
	movl	-188(%rbp), %eax
	leal	(%rax,%rax), %edx
	movq	-64(%rbp), %rax
	movl	%edx, 16(%rax)
	movq	_TIG_iO_DTNa_1_main_1_opaque_list_1(%rip), %rax
	movq	(%rax), %rdx
	movq	-64(%rbp), %rax
	movq	%rdx, (%rax)
	movq	_TIG_iO_DTNa_1_main_1_opaque_list_1(%rip), %rdx
	movq	-64(%rbp), %rax
	movq	%rdx, 8(%rax)
	movq	_TIG_iO_DTNa_1_main_1_opaque_list_1(%rip), %rax
	movq	(%rax), %rax
	movq	-64(%rbp), %rdx
	movq	%rdx, 8(%rax)
	movq	_TIG_iO_DTNa_1_main_1_opaque_list_1(%rip), %rax
	movq	-64(%rbp), %rdx
	movq	%rdx, (%rax)
	call	rand@PLT
	movl	%eax, -184(%rbp)
	movl	$24, %edi
	call	malloc@PLT
	movq	%rax, -56(%rbp)
	movl	-184(%rbp), %edx
	movl	%edx, %eax
	addl	%eax, %eax
	addl	%eax, %edx
	movq	-56(%rbp), %rax
	movl	%edx, 16(%rax)
	movq	_TIG_iO_DTNa_1_main_1_opaque_list_1(%rip), %rax
	movq	(%rax), %rdx
	movq	-56(%rbp), %rax
	movq	%rdx, (%rax)
	movq	_TIG_iO_DTNa_1_main_1_opaque_list_1(%rip), %rdx
	movq	-56(%rbp), %rax
	movq	%rdx, 8(%rax)
	movq	_TIG_iO_DTNa_1_main_1_opaque_list_1(%rip), %rax
	movq	(%rax), %rax
	movq	-56(%rbp), %rdx
	movq	%rdx, 8(%rax)
	movq	_TIG_iO_DTNa_1_main_1_opaque_list_1(%rip), %rax
	movq	-56(%rbp), %rdx
	movq	%rdx, (%rax)
	movq	_TIG_iO_DTNa_1_main_1_opaque_list_1(%rip), %rax
	movq	(%rax), %rax
	movq	%rax, _TIG_iO_DTNa_1_main_1_opaque_ptr_1(%rip)
	movq	_TIG_iO_DTNa_1_main_1_opaque_ptr_1(%rip), %rax
	movq	%rax, _TIG_iO_DTNa_1_main_1_opaque_ptr_2(%rip)
	movq	_TIG_iO_DTNa_1_main_1_opaque_ptr_2(%rip), %rax
	movq	(%rax), %rax
	movq	%rax, _TIG_iO_DTNa_1_main_1_opaque_ptr_2(%rip)
	nop
	nop
	cmpl	$2, -212(%rbp)
	je	.L11
	call	usage
	movl	$1, %eax
	jmp	.L12
.L11:
	movq	-224(%rbp), %rax
	addq	$8, %rax
	movq	(%rax), %rax
	movq	%rax, %rdi
	call	atoi@PLT
	movl	%eax, -180(%rbp)
	movl	-180(%rbp), %eax
	movl	%eax, -176(%rbp)
	cmpl	$2, -176(%rbp)
	je	.L13
	cmpl	$2, -176(%rbp)
	jg	.L14
	cmpl	$0, -176(%rbp)
	je	.L15
	cmpl	$1, -176(%rbp)
	je	.L16
	jmp	.L14
.L15:
	movl	$65025, -116(%rbp)
	movl	-116(%rbp), %eax
	cltq
	salq	$3, %rax
	movq	%rax, %rdi
	call	malloc@PLT
	movq	%rax, -16(%rbp)
	movq	-16(%rbp), %rax
	movq	%rax, -8(%rbp)
	movl	$0, -208(%rbp)
.L19:
	movq	_TIG_iO_DTNa_1_usage_1_opaque_ptr_1(%rip), %rdx
	movq	_TIG_iO_DTNa_1_usage_1_opaque_ptr_2(%rip), %rax
	cmpq	%rax, %rdx
	je	.L17
	movl	-208(%rbp), %eax
	cmpl	-116(%rbp), %eax
	jge	.L26
.L17:
	call	next_i
	movl	%eax, -104(%rbp)
	call	next_i
	movl	%eax, -100(%rbp)
	movl	-104(%rbp), %eax
	cltd
	shrl	$31, %edx
	addl	%edx, %eax
	andl	$1, %eax
	subl	%edx, %eax
	movl	%eax, %edx
	movl	$0, %eax
	subl	%edx, %eax
	addl	%eax, %eax
	addl	$1, %eax
	movl	-208(%rbp), %edx
	movslq	%edx, %rdx
	leaq	0(,%rdx,8), %rcx
	movq	-8(%rbp), %rdx
	addq	%rcx, %rdx
	imull	-100(%rbp), %eax
	movl	%eax, (%rdx)
	call	next_i
	movl	%eax, -96(%rbp)
	call	next_i
	movl	%eax, -92(%rbp)
	movl	-96(%rbp), %eax
	cltd
	shrl	$31, %edx
	addl	%edx, %eax
	andl	$1, %eax
	subl	%edx, %eax
	movl	%eax, %edx
	movl	$0, %eax
	subl	%edx, %eax
	addl	%eax, %eax
	addl	$1, %eax
	movl	-208(%rbp), %edx
	movslq	%edx, %rdx
	leaq	0(,%rdx,8), %rcx
	movq	-8(%rbp), %rdx
	addq	%rcx, %rdx
	imull	-92(%rbp), %eax
	movl	%eax, 4(%rdx)
	addl	$1, -208(%rbp)
	jmp	.L19
.L26:
	nop
	movq	-8(%rbp), %rax
	movq	%rax, %rdi
	call	perf_evsel__read_size
	movl	%eax, -112(%rbp)
	movl	-112(%rbp), %eax
	movl	%eax, -108(%rbp)
	movl	-108(%rbp), %eax
	movl	%eax, %esi
	leaq	.LC0(%rip), %rax
	movq	%rax, %rdi
	movl	$0, %eax
	call	printf@PLT
	movq	-8(%rbp), %rax
	movq	%rax, %rdi
	call	free@PLT
	jmp	.L20
.L16:
	movl	$100, -144(%rbp)
	movl	-144(%rbp), %eax
	cltq
	salq	$3, %rax
	movq	%rax, %rdi
	call	malloc@PLT
	movq	%rax, -32(%rbp)
	movq	-32(%rbp), %rax
	movq	%rax, -24(%rbp)
	movl	$0, -204(%rbp)
	jmp	.L21
.L22:
	call	next_i
	movl	%eax, -132(%rbp)
	call	next_i
	movl	%eax, -128(%rbp)
	movl	-132(%rbp), %eax
	cltd
	shrl	$31, %edx
	addl	%edx, %eax
	andl	$1, %eax
	subl	%edx, %eax
	movl	%eax, %edx
	movl	$0, %eax
	subl	%edx, %eax
	addl	%eax, %eax
	addl	$1, %eax
	movl	-204(%rbp), %edx
	movslq	%edx, %rdx
	leaq	0(,%rdx,8), %rcx
	movq	-24(%rbp), %rdx
	addq	%rcx, %rdx
	imull	-128(%rbp), %eax
	movl	%eax, (%rdx)
	call	next_i
	movl	%eax, -124(%rbp)
	call	next_i
	movl	%eax, -120(%rbp)
	movl	-124(%rbp), %eax
	cltd
	shrl	$31, %edx
	addl	%edx, %eax
	andl	$1, %eax
	subl	%edx, %eax
	movl	%eax, %edx
	movl	$0, %eax
	subl	%edx, %eax
	addl	%eax, %eax
	addl	$1, %eax
	movl	-204(%rbp), %edx
	movslq	%edx, %rdx
	leaq	0(,%rdx,8), %rcx
	movq	-24(%rbp), %rdx
	addq	%rcx, %rdx
	imull	-120(%rbp), %eax
	movl	%eax, 4(%rdx)
	addl	$1, -204(%rbp)
.L21:
	movl	-204(%rbp), %eax
	cmpl	-144(%rbp), %eax
	jl	.L22
	movq	-24(%rbp), %rax
	movq	%rax, %rdi
	call	perf_evsel__read_size
	movl	%eax, -140(%rbp)
	movl	-140(%rbp), %eax
	movl	%eax, -136(%rbp)
	movl	-136(%rbp), %eax
	movl	%eax, %esi
	leaq	.LC0(%rip), %rax
	movq	%rax, %rdi
	movl	$0, %eax
	call	printf@PLT
	movq	-24(%rbp), %rax
	movq	%rax, %rdi
	call	free@PLT
	jmp	.L20
.L13:
	movl	$1, -172(%rbp)
	movl	-172(%rbp), %eax
	cltq
	salq	$3, %rax
	movq	%rax, %rdi
	call	malloc@PLT
	movq	%rax, -48(%rbp)
	movq	-48(%rbp), %rax
	movq	%rax, -40(%rbp)
	movl	$0, -200(%rbp)
	jmp	.L23
.L24:
	call	next_i
	movl	%eax, -160(%rbp)
	call	next_i
	movl	%eax, -156(%rbp)
	movl	-160(%rbp), %eax
	cltd
	shrl	$31, %edx
	addl	%edx, %eax
	andl	$1, %eax
	subl	%edx, %eax
	movl	%eax, %edx
	movl	$0, %eax
	subl	%edx, %eax
	addl	%eax, %eax
	addl	$1, %eax
	movl	-200(%rbp), %edx
	movslq	%edx, %rdx
	leaq	0(,%rdx,8), %rcx
	movq	-40(%rbp), %rdx
	addq	%rcx, %rdx
	imull	-156(%rbp), %eax
	movl	%eax, (%rdx)
	call	next_i
	movl	%eax, -152(%rbp)
	call	next_i
	movl	%eax, -148(%rbp)
	movl	-152(%rbp), %eax
	cltd
	shrl	$31, %edx
	addl	%edx, %eax
	andl	$1, %eax
	subl	%edx, %eax
	movl	%eax, %edx
	movl	$0, %eax
	subl	%edx, %eax
	addl	%eax, %eax
	addl	$1, %eax
	movl	-200(%rbp), %edx
	movslq	%edx, %rdx
	leaq	0(,%rdx,8), %rcx
	movq	-40(%rbp), %rdx
	addq	%rcx, %rdx
	imull	-148(%rbp), %eax
	movl	%eax, 4(%rdx)
	addl	$1, -200(%rbp)
.L23:
	movl	-200(%rbp), %eax
	cmpl	-172(%rbp), %eax
	jl	.L24
	movq	-40(%rbp), %rax
	movq	%rax, %rdi
	call	perf_evsel__read_size
	movl	%eax, -168(%rbp)
	movl	-168(%rbp), %eax
	movl	%eax, -164(%rbp)
	movl	-164(%rbp), %eax
	movl	%eax, %esi
	leaq	.LC0(%rip), %rax
	movq	%rax, %rdi
	movl	$0, %eax
	call	printf@PLT
	movq	-40(%rbp), %rax
	movq	%rax, %rdi
	call	free@PLT
	jmp	.L20
.L14:
	call	usage
	nop
.L20:
	movl	$0, %eax
.L12:
	leave
	.cfi_def_cfa 7, 8
	ret
	.cfi_endproc
.LFE3:
	.size	main, .-main
	.type	perf_evsel__read_size, @function
perf_evsel__read_size:
.LFB4:
	.cfi_startproc
	endbr64
	pushq	%rbp
	.cfi_def_cfa_offset 16
	.cfi_offset 6, -16
	movq	%rsp, %rbp
	.cfi_def_cfa_register 6
	subq	$64, %rsp
	movq	%rdi, -56(%rbp)
#APP
# 257 "lac-dcc_jotai-benchmarks_extr_linuxtoolsperfutilevsel.c_perf_evsel__read_size_Final.c" 1
	##_ANNOTATION_INITIALREGION_-TIG-iO-DTNa-1-perf-evsel--read-size--20
# 0 "" 2
# 261 "lac-dcc_jotai-benchmarks_extr_linuxtoolsperfutilevsel.c_perf_evsel__read_size_Final.c" 1
	##_ANNOTATION_ATOMICREGION_-TIG-iO-DTNa-1-perf-evsel--read-size--19
# 0 "" 2
#NO_APP
	movl	$24, %edi
	call	malloc@PLT
	movq	%rax, -24(%rbp)
	movq	-24(%rbp), %rax
	movq	-24(%rbp), %rdx
	movq	%rdx, 8(%rax)
	movq	-24(%rbp), %rax
	movq	-24(%rbp), %rdx
	movq	%rdx, 16(%rax)
	movq	-24(%rbp), %rax
	movq	%rax, _TIG_iO_DTNa_1_perf_evsel__read_size_1_opaque_list_1(%rip)
	call	rand@PLT
	movl	%eax, -36(%rbp)
	movl	$24, %edi
	call	malloc@PLT
	movq	%rax, -16(%rbp)
	movq	-16(%rbp), %rax
	movl	$0, (%rax)
	movq	_TIG_iO_DTNa_1_perf_evsel__read_size_1_opaque_list_1(%rip), %rax
	movq	8(%rax), %rdx
	movq	-16(%rbp), %rax
	movq	%rdx, 8(%rax)
	movq	_TIG_iO_DTNa_1_perf_evsel__read_size_1_opaque_list_1(%rip), %rdx
	movq	-16(%rbp), %rax
	movq	%rdx, 16(%rax)
	movq	_TIG_iO_DTNa_1_perf_evsel__read_size_1_opaque_list_1(%rip), %rax
	movq	8(%rax), %rax
	movq	-16(%rbp), %rdx
	movq	%rdx, 16(%rax)
	movq	_TIG_iO_DTNa_1_perf_evsel__read_size_1_opaque_list_1(%rip), %rax
	movq	-16(%rbp), %rdx
	movq	%rdx, 8(%rax)
	call	rand@PLT
	movl	%eax, -32(%rbp)
	movl	$24, %edi
	call	malloc@PLT
	movq	%rax, -8(%rbp)
	movq	-8(%rbp), %rax
	movl	-32(%rbp), %edx
	movl	%edx, (%rax)
	movq	_TIG_iO_DTNa_1_perf_evsel__read_size_1_opaque_list_1(%rip), %rax
	movq	8(%rax), %rdx
	movq	-8(%rbp), %rax
	movq	%rdx, 8(%rax)
	movq	_TIG_iO_DTNa_1_perf_evsel__read_size_1_opaque_list_1(%rip), %rdx
	movq	-8(%rbp), %rax
	movq	%rdx, 16(%rax)
	movq	_TIG_iO_DTNa_1_perf_evsel__read_size_1_opaque_list_1(%rip), %rax
	movq	8(%rax), %rax
	movq	-8(%rbp), %rdx
	movq	%rdx, 16(%rax)
	movq	_TIG_iO_DTNa_1_perf_evsel__read_size_1_opaque_list_1(%rip), %rax
	movq	-8(%rbp), %rdx
	movq	%rdx, 8(%rax)
	movq	_TIG_iO_DTNa_1_perf_evsel__read_size_1_opaque_list_1(%rip), %rax
	movq	8(%rax), %rax
	movq	%rax, _TIG_iO_DTNa_1_perf_evsel__read_size_1_opaque_ptr_1(%rip)
	movq	_TIG_iO_DTNa_1_perf_evsel__read_size_1_opaque_ptr_1(%rip), %rax
	movq	%rax, _TIG_iO_DTNa_1_perf_evsel__read_size_1_opaque_ptr_2(%rip)
	nop
	nop
	movq	-56(%rbp), %rax
	movl	4(%rax), %eax
	movl	%eax, -28(%rbp)
	movl	$4, -48(%rbp)
	movl	$0, -44(%rbp)
	movl	$1, -40(%rbp)
	movl	PERF_FORMAT_TOTAL_TIME_ENABLED(%rip), %eax
	andl	-28(%rbp), %eax
	testl	%eax, %eax
	je	.L28
	movl	-44(%rbp), %eax
	addl	$4, %eax
	movl	%eax, -44(%rbp)
.L28:
	movl	PERF_FORMAT_TOTAL_TIME_RUNNING(%rip), %eax
	andl	-28(%rbp), %eax
	testl	%eax, %eax
	je	.L29
	movl	-44(%rbp), %eax
	addl	$4, %eax
	movl	%eax, -44(%rbp)
.L29:
	movl	PERF_FORMAT_ID(%rip), %eax
	andl	-28(%rbp), %eax
	testl	%eax, %eax
	je	.L30
	movq	_TIG_iO_DTNa_1_usage_1_opaque_ptr_1(%rip), %rdx
	movq	_TIG_iO_DTNa_1_usage_1_opaque_ptr_2(%rip), %rax
	cmpq	%rax, %rdx
	je	.L30
	movl	-48(%rbp), %eax
	addl	$4, %eax
	movl	%eax, -48(%rbp)
.L30:
	movl	PERF_FORMAT_GROUP(%rip), %eax
	andl	-28(%rbp), %eax
	testl	%eax, %eax
	je	.L31
	movq	-56(%rbp), %rax
	movl	(%rax), %eax
	movl	%eax, -40(%rbp)
	movl	-44(%rbp), %eax
	addl	$4, %eax
	movl	%eax, -44(%rbp)
.L31:
	movl	-48(%rbp), %eax
	imull	-40(%rbp), %eax
	addl	%eax, -44(%rbp)
	movl	-44(%rbp), %eax
	leave
	.cfi_def_cfa 7, 8
	ret
	.cfi_endproc
.LFE4:
	.size	perf_evsel__read_size, .-perf_evsel__read_size
	.globl	next_i
	.type	next_i, @function
next_i:
.LFB6:
	.cfi_startproc
	endbr64
	pushq	%rbp
	.cfi_def_cfa_offset 16
	.cfi_offset 6, -16
	movq	%rsp, %rbp
	.cfi_def_cfa_register 6
	subq	$48, %rsp
#APP
# 66 "/usr/include/x86_64-linux-gnu/bits/uintn-identity.h" 1
	##_ANNOTATION_INITIALREGION_-TIG-iO-DTNa-1-next-i--18
# 0 "" 2
# 70 "/usr/include/x86_64-linux-gnu/bits/uintn-identity.h" 1
	##_ANNOTATION_ATOMICREGION_-TIG-iO-DTNa-1-next-i--17
# 0 "" 2
#NO_APP
	movl	$24, %edi
	call	malloc@PLT
	movq	%rax, -24(%rbp)
	movq	-24(%rbp), %rax
	movq	-24(%rbp), %rdx
	movq	%rdx, 8(%rax)
	movq	-24(%rbp), %rax
	movq	-24(%rbp), %rdx
	movq	%rdx, (%rax)
	movq	-24(%rbp), %rax
	movq	%rax, _TIG_iO_DTNa_1_next_i_1_opaque_list_1(%rip)
	call	rand@PLT
	movl	%eax, -32(%rbp)
	movl	$24, %edi
	call	malloc@PLT
	movq	%rax, -16(%rbp)
	movq	-16(%rbp), %rax
	movl	$0, 16(%rax)
	movq	_TIG_iO_DTNa_1_next_i_1_opaque_list_1(%rip), %rax
	movq	8(%rax), %rdx
	movq	-16(%rbp), %rax
	movq	%rdx, 8(%rax)
	movq	_TIG_iO_DTNa_1_next_i_1_opaque_list_1(%rip), %rdx
	movq	-16(%rbp), %rax
	movq	%rdx, (%rax)
	movq	_TIG_iO_DTNa_1_next_i_1_opaque_list_1(%rip), %rax
	movq	8(%rax), %rax
	movq	-16(%rbp), %rdx
	movq	%rdx, (%rax)
	movq	_TIG_iO_DTNa_1_next_i_1_opaque_list_1(%rip), %rax
	movq	-16(%rbp), %rdx
	movq	%rdx, 8(%rax)
	call	rand@PLT
	movl	%eax, -28(%rbp)
	movl	$24, %edi
	call	malloc@PLT
	movq	%rax, -8(%rbp)
	movq	-8(%rbp), %rax
	movl	-28(%rbp), %edx
	movl	%edx, 16(%rax)
	movq	_TIG_iO_DTNa_1_next_i_1_opaque_list_1(%rip), %rax
	movq	8(%rax), %rdx
	movq	-8(%rbp), %rax
	movq	%rdx, 8(%rax)
	movq	_TIG_iO_DTNa_1_next_i_1_opaque_list_1(%rip), %rdx
	movq	-8(%rbp), %rax
	movq	%rdx, (%rax)
	movq	_TIG_iO_DTNa_1_next_i_1_opaque_list_1(%rip), %rax
	movq	8(%rax), %rax
	movq	-8(%rbp), %rdx
	movq	%rdx, (%rax)
	movq	_TIG_iO_DTNa_1_next_i_1_opaque_list_1(%rip), %rax
	movq	-8(%rbp), %rdx
	movq	%rdx, 8(%rax)
	movq	_TIG_iO_DTNa_1_next_i_1_opaque_list_1(%rip), %rax
	movq	8(%rax), %rax
	movq	%rax, _TIG_iO_DTNa_1_next_i_1_opaque_ptr_1(%rip)
	movq	_TIG_iO_DTNa_1_next_i_1_opaque_ptr_1(%rip), %rax
	movq	%rax, _TIG_iO_DTNa_1_next_i_1_opaque_ptr_2(%rip)
	movq	_TIG_iO_DTNa_1_next_i_1_opaque_ptr_2(%rip), %rax
	movq	8(%rax), %rax
	movq	%rax, _TIG_iO_DTNa_1_next_i_1_opaque_ptr_2(%rip)
	nop
	nop
	movq	_TIG_iO_DTNa_1_usage_1_opaque_ptr_1(%rip), %rdx
	movq	_TIG_iO_DTNa_1_usage_1_opaque_ptr_2(%rip), %rax
	cmpq	%rax, %rdx
	je	.L34
	movl	$0, -36(%rbp)
	addl	$1, -36(%rbp)
.L34:
	movl	-36(%rbp), %ecx
	movslq	%ecx, %rax
	imulq	$1374389535, %rax, %rax
	shrq	$32, %rax
	sarl	$3, %eax
	movl	%ecx, %esi
	sarl	$31, %esi
	subl	%esi, %eax
	movl	%eax, %edx
	movl	%edx, %eax
	sall	$2, %eax
	addl	%edx, %eax
	leal	0(,%rax,4), %edx
	addl	%edx, %eax
	subl	%eax, %ecx
	movl	%ecx, %edx
	movslq	%edx, %rax
	leaq	0(,%rax,4), %rdx
	leaq	rand_primes(%rip), %rax
	movl	(%rdx,%rax), %eax
	leave
	.cfi_def_cfa 7, 8
	ret
	.cfi_endproc
.LFE6:
	.size	next_i, .-next_i
	.section	.rodata
	.align 8
.LC1:
	.string	"Usage:\n    prog [ARGS]\n\nARGS:\n       0            big-arr\n       1            big-arr-10x\n       2            empty\n"
	.text
	.globl	usage
	.type	usage, @function
usage:
.LFB7:
	.cfi_startproc
	endbr64
	pushq	%rbp
	.cfi_def_cfa_offset 16
	.cfi_offset 6, -16
	movq	%rsp, %rbp
	.cfi_def_cfa_register 6
	subq	$48, %rsp
#APP
# 37 "lac-dcc_jotai-benchmarks_extr_linuxtoolsperfutilevsel.c_perf_evsel__read_size_Final.c" 1
	##_ANNOTATION_INITIALREGION_-TIG-iO-DTNa-1-usage--22
# 0 "" 2
# 41 "lac-dcc_jotai-benchmarks_extr_linuxtoolsperfutilevsel.c_perf_evsel__read_size_Final.c" 1
	##_ANNOTATION_ATOMICREGION_-TIG-iO-DTNa-1-usage--21
# 0 "" 2
#NO_APP
	movl	$24, %edi
	call	malloc@PLT
	movq	%rax, -32(%rbp)
	movq	-32(%rbp), %rax
	movq	-32(%rbp), %rdx
	movq	%rdx, (%rax)
	movq	-32(%rbp), %rax
	movq	-32(%rbp), %rdx
	movq	%rdx, 16(%rax)
	movq	-32(%rbp), %rax
	movq	%rax, _TIG_iO_DTNa_1_usage_1_opaque_list_1(%rip)
	call	rand@PLT
	movl	%eax, -44(%rbp)
	movl	$24, %edi
	call	malloc@PLT
	movq	%rax, -24(%rbp)
	movq	-24(%rbp), %rax
	movl	$0, 8(%rax)
	movq	_TIG_iO_DTNa_1_usage_1_opaque_list_1(%rip), %rax
	movq	(%rax), %rdx
	movq	-24(%rbp), %rax
	movq	%rdx, (%rax)
	movq	_TIG_iO_DTNa_1_usage_1_opaque_list_1(%rip), %rdx
	movq	-24(%rbp), %rax
	movq	%rdx, 16(%rax)
	movq	_TIG_iO_DTNa_1_usage_1_opaque_list_1(%rip), %rax
	movq	(%rax), %rax
	movq	-24(%rbp), %rdx
	movq	%rdx, 16(%rax)
	movq	_TIG_iO_DTNa_1_usage_1_opaque_list_1(%rip), %rax
	movq	-24(%rbp), %rdx
	movq	%rdx, (%rax)
	call	rand@PLT
	movl	%eax, -40(%rbp)
	movl	$24, %edi
	call	malloc@PLT
	movq	%rax, -16(%rbp)
	movq	-16(%rbp), %rax
	movl	-40(%rbp), %edx
	movl	%edx, 8(%rax)
	movq	_TIG_iO_DTNa_1_usage_1_opaque_list_1(%rip), %rax
	movq	(%rax), %rdx
	movq	-16(%rbp), %rax
	movq	%rdx, (%rax)
	movq	_TIG_iO_DTNa_1_usage_1_opaque_list_1(%rip), %rdx
	movq	-16(%rbp), %rax
	movq	%rdx, 16(%rax)
	movq	_TIG_iO_DTNa_1_usage_1_opaque_list_1(%rip), %rax
	movq	(%rax), %rax
	movq	-16(%rbp), %rdx
	movq	%rdx, 16(%rax)
	movq	_TIG_iO_DTNa_1_usage_1_opaque_list_1(%rip), %rax
	movq	-16(%rbp), %rdx
	movq	%rdx, (%rax)
	call	rand@PLT
	movl	%eax, -36(%rbp)
	movl	$24, %edi
	call	malloc@PLT
	movq	%rax, -8(%rbp)
	movl	-36(%rbp), %eax
	leal	(%rax,%rax), %edx
	movq	-8(%rbp), %rax
	movl	%edx, 8(%rax)
	movq	_TIG_iO_DTNa_1_usage_1_opaque_list_1(%rip), %rax
	movq	(%rax), %rdx
	movq	-8(%rbp), %rax
	movq	%rdx, (%rax)
	movq	_TIG_iO_DTNa_1_usage_1_opaque_list_1(%rip), %rdx
	movq	-8(%rbp), %rax
	movq	%rdx, 16(%rax)
	movq	_TIG_iO_DTNa_1_usage_1_opaque_list_1(%rip), %rax
	movq	(%rax), %rax
	movq	-8(%rbp), %rdx
	movq	%rdx, 16(%rax)
	movq	_TIG_iO_DTNa_1_usage_1_opaque_list_1(%rip), %rax
	movq	-8(%rbp), %rdx
	movq	%rdx, (%rax)
	movq	_TIG_iO_DTNa_1_usage_1_opaque_list_1(%rip), %rax
	movq	(%rax), %rax
	movq	%rax, _TIG_iO_DTNa_1_usage_1_opaque_ptr_1(%rip)
	movq	_TIG_iO_DTNa_1_usage_1_opaque_ptr_1(%rip), %rax
	movq	%rax, _TIG_iO_DTNa_1_usage_1_opaque_ptr_2(%rip)
	movq	_TIG_iO_DTNa_1_usage_1_opaque_ptr_2(%rip), %rax
	movq	(%rax), %rax
	movq	%rax, _TIG_iO_DTNa_1_usage_1_opaque_ptr_2(%rip)
	nop
	nop
	leaq	.LC1(%rip), %rax
	movq	%rax, %rdi
	call	puts@PLT
	movq	_TIG_iO_DTNa_1_usage_1_opaque_ptr_1(%rip), %rdx
	movq	_TIG_iO_DTNa_1_usage_1_opaque_ptr_2(%rip), %rax
	cmpq	%rax, %rdx
	jne	.L39
#APP
# 33 "lac-dcc_jotai-benchmarks_extr_linuxtoolsperfutilevsel.c_perf_evsel__read_size_Final.c" 1
	.byte 0xe0
# 0 "" 2
#NO_APP
	jmp	.L36
.L39:
	nop
.L36:
	leave
	.cfi_def_cfa 7, 8
	ret
	.cfi_endproc
.LFE7:
	.size	usage, .-usage
	.globl	next_f
	.type	next_f, @function
next_f:
.LFB10:
	.cfi_startproc
	endbr64
	pushq	%rbp
	.cfi_def_cfa_offset 16
	.cfi_offset 6, -16
	movq	%rsp, %rbp
	.cfi_def_cfa_register 6
	subq	$48, %rsp
#APP
# 69 "/usr/include/x86_64-linux-gnu/bits/byteswap.h" 1
	##_ANNOTATION_INITIALREGION_-TIG-iO-DTNa-1-next-f--16
# 0 "" 2
# 73 "/usr/include/x86_64-linux-gnu/bits/byteswap.h" 1
	##_ANNOTATION_ATOMICREGION_-TIG-iO-DTNa-1-next-f--15
# 0 "" 2
#NO_APP
	movl	$24, %edi
	call	malloc@PLT
	movq	%rax, -24(%rbp)
	movq	-24(%rbp), %rax
	movq	-24(%rbp), %rdx
	movq	%rdx, 16(%rax)
	movq	-24(%rbp), %rax
	movq	-24(%rbp), %rdx
	movq	%rdx, 8(%rax)
	movq	-24(%rbp), %rax
	movq	%rax, _TIG_iO_DTNa_1_next_f_1_opaque_list_1(%rip)
	call	rand@PLT
	movl	%eax, -36(%rbp)
	movl	$24, %edi
	call	malloc@PLT
	movq	%rax, -16(%rbp)
	movq	-16(%rbp), %rax
	movl	$0, (%rax)
	movq	_TIG_iO_DTNa_1_next_f_1_opaque_list_1(%rip), %rax
	movq	16(%rax), %rdx
	movq	-16(%rbp), %rax
	movq	%rdx, 16(%rax)
	movq	_TIG_iO_DTNa_1_next_f_1_opaque_list_1(%rip), %rdx
	movq	-16(%rbp), %rax
	movq	%rdx, 8(%rax)
	movq	_TIG_iO_DTNa_1_next_f_1_opaque_list_1(%rip), %rax
	movq	16(%rax), %rax
	movq	-16(%rbp), %rdx
	movq	%rdx, 8(%rax)
	movq	_TIG_iO_DTNa_1_next_f_1_opaque_list_1(%rip), %rax
	movq	-16(%rbp), %rdx
	movq	%rdx, 16(%rax)
	call	rand@PLT
	movl	%eax, -32(%rbp)
	movl	$24, %edi
	call	malloc@PLT
	movq	%rax, -8(%rbp)
	movq	-8(%rbp), %rax
	movl	-32(%rbp), %edx
	movl	%edx, (%rax)
	movq	_TIG_iO_DTNa_1_next_f_1_opaque_list_1(%rip), %rax
	movq	16(%rax), %rdx
	movq	-8(%rbp), %rax
	movq	%rdx, 16(%rax)
	movq	_TIG_iO_DTNa_1_next_f_1_opaque_list_1(%rip), %rdx
	movq	-8(%rbp), %rax
	movq	%rdx, 8(%rax)
	movq	_TIG_iO_DTNa_1_next_f_1_opaque_list_1(%rip), %rax
	movq	16(%rax), %rax
	movq	-8(%rbp), %rdx
	movq	%rdx, 8(%rax)
	movq	_TIG_iO_DTNa_1_next_f_1_opaque_list_1(%rip), %rax
	movq	-8(%rbp), %rdx
	movq	%rdx, 16(%rax)
	movq	_TIG_iO_DTNa_1_next_f_1_opaque_list_1(%rip), %rax
	movq	16(%rax), %rax
	movq	%rax, _TIG_iO_DTNa_1_next_f_1_opaque_ptr_1(%rip)
	movq	_TIG_iO_DTNa_1_next_f_1_opaque_ptr_1(%rip), %rax
	movq	%rax, _TIG_iO_DTNa_1_next_f_1_opaque_ptr_2(%rip)
	nop
	nop
	movl	$0, -28(%rbp)
	addl	$1, -28(%rbp)
	movq	_TIG_iO_DTNa_1_usage_1_opaque_ptr_1(%rip), %rdx
	movq	_TIG_iO_DTNa_1_usage_1_opaque_ptr_2(%rip), %rax
	cmpq	%rax, %rdx
	jne	.L41
	movss	.LC2(%rip), %xmm0
	jmp	.L42
.L41:
	movl	-28(%rbp), %ecx
	movslq	%ecx, %rax
	imulq	$1374389535, %rax, %rax
	shrq	$32, %rax
	sarl	$3, %eax
	movl	%ecx, %esi
	sarl	$31, %esi
	subl	%esi, %eax
	movl	%eax, %edx
	movl	%edx, %eax
	sall	$2, %eax
	addl	%edx, %eax
	leal	0(,%rax,4), %edx
	addl	%edx, %eax
	subl	%eax, %ecx
	movl	%ecx, %edx
	movslq	%edx, %rax
	leaq	0(,%rax,4), %rdx
	leaq	rand_primes(%rip), %rax
	movl	(%rdx,%rax), %eax
	movl	%eax, %eax
	testq	%rax, %rax
	js	.L43
	pxor	%xmm0, %xmm0
	cvtsi2ssq	%rax, %xmm0
	jmp	.L44
.L43:
	movq	%rax, %rdx
	shrq	%rdx
	andl	$1, %eax
	orq	%rax, %rdx
	pxor	%xmm0, %xmm0
	cvtsi2ssq	%rdx, %xmm0
	addss	%xmm0, %xmm0
.L44:
	movss	.LC3(%rip), %xmm1
	divss	%xmm1, %xmm0
.L42:
	leave
	.cfi_def_cfa 7, 8
	ret
	.cfi_endproc
.LFE10:
	.size	next_f, .-next_f
	.section	.rodata
	.align 4
.LC2:
	.long	1084227584
	.align 4
.LC3:
	.long	1228472176
	.ident	"GCC: (Ubuntu 11.4.0-1ubuntu1~22.04) 11.4.0"
	.section	.note.GNU-stack,"",@progbits
	.section	.note.gnu.property,"a"
	.align 8
	.long	1f - 0f
	.long	4f - 1f
	.long	5
0:
	.string	"GNU"
1:
	.align 8
	.long	0xc0000002
	.long	3f - 2f
2:
	.long	0x3
3:
	.align 8
4:
