	.file	"liphx_code_setjmp_opaque.c"
	.text
	.globl	_TIG_iO_q7qM_1___uint32_identity_1_opaque_ptr_1
	.bss
	.align 8
	.type	_TIG_iO_q7qM_1___uint32_identity_1_opaque_ptr_1, @object
	.size	_TIG_iO_q7qM_1___uint32_identity_1_opaque_ptr_1, 8
_TIG_iO_q7qM_1___uint32_identity_1_opaque_ptr_1:
	.zero	8
	.globl	_TIG_iO_q7qM_1_main_1_opaque_ptr_2
	.align 8
	.type	_TIG_iO_q7qM_1_main_1_opaque_ptr_2, @object
	.size	_TIG_iO_q7qM_1_main_1_opaque_ptr_2, 8
_TIG_iO_q7qM_1_main_1_opaque_ptr_2:
	.zero	8
	.globl	_TIG_iO_q7qM_1___bswap_64_1_opaque_ptr_1
	.align 8
	.type	_TIG_iO_q7qM_1___bswap_64_1_opaque_ptr_1, @object
	.size	_TIG_iO_q7qM_1___bswap_64_1_opaque_ptr_1, 8
_TIG_iO_q7qM_1___bswap_64_1_opaque_ptr_1:
	.zero	8
	.globl	_TIG_iO_q7qM_1___bswap_32_1_opaque_ptr_2
	.align 8
	.type	_TIG_iO_q7qM_1___bswap_32_1_opaque_ptr_2, @object
	.size	_TIG_iO_q7qM_1___bswap_32_1_opaque_ptr_2, 8
_TIG_iO_q7qM_1___bswap_32_1_opaque_ptr_2:
	.zero	8
	.globl	_TIG_iO_q7qM_1___bswap_16_1_opaque_list_2
	.align 8
	.type	_TIG_iO_q7qM_1___bswap_16_1_opaque_list_2, @object
	.size	_TIG_iO_q7qM_1___bswap_16_1_opaque_list_2, 8
_TIG_iO_q7qM_1___bswap_16_1_opaque_list_2:
	.zero	8
	.globl	_TIG_iO_q7qM_1_main_1_opaque_ptr_1
	.align 8
	.type	_TIG_iO_q7qM_1_main_1_opaque_ptr_1, @object
	.size	_TIG_iO_q7qM_1_main_1_opaque_ptr_1, 8
_TIG_iO_q7qM_1_main_1_opaque_ptr_1:
	.zero	8
	.globl	_TIG_iO_q7qM_1___uint16_identity_1_opaque_ptr_2
	.align 8
	.type	_TIG_iO_q7qM_1___uint16_identity_1_opaque_ptr_2, @object
	.size	_TIG_iO_q7qM_1___uint16_identity_1_opaque_ptr_2, 8
_TIG_iO_q7qM_1___uint16_identity_1_opaque_ptr_2:
	.zero	8
	.globl	_TIG_iO_q7qM_1_func1_1_opaque_list_1
	.align 8
	.type	_TIG_iO_q7qM_1_func1_1_opaque_list_1, @object
	.size	_TIG_iO_q7qM_1_func1_1_opaque_list_1, 8
_TIG_iO_q7qM_1_func1_1_opaque_list_1:
	.zero	8
	.globl	_TIG_iO_q7qM_1___uint64_identity_1_opaque_ptr_1
	.align 8
	.type	_TIG_iO_q7qM_1___uint64_identity_1_opaque_ptr_1, @object
	.size	_TIG_iO_q7qM_1___uint64_identity_1_opaque_ptr_1, 8
_TIG_iO_q7qM_1___uint64_identity_1_opaque_ptr_1:
	.zero	8
	.globl	env
	.align 32
	.type	env, @object
	.size	env, 200
env:
	.zero	200
	.globl	_TIG_iO_q7qM_1___bswap_16_1_opaque_ptr_1
	.align 8
	.type	_TIG_iO_q7qM_1___bswap_16_1_opaque_ptr_1, @object
	.size	_TIG_iO_q7qM_1___bswap_16_1_opaque_ptr_1, 8
_TIG_iO_q7qM_1___bswap_16_1_opaque_ptr_1:
	.zero	8
	.globl	_TIG_iO_q7qM_1___uint64_identity_1_opaque_ptr_2
	.align 8
	.type	_TIG_iO_q7qM_1___uint64_identity_1_opaque_ptr_2, @object
	.size	_TIG_iO_q7qM_1___uint64_identity_1_opaque_ptr_2, 8
_TIG_iO_q7qM_1___uint64_identity_1_opaque_ptr_2:
	.zero	8
	.globl	_TIG_iO_q7qM_1___bswap_32_1_opaque_list_1
	.align 8
	.type	_TIG_iO_q7qM_1___bswap_32_1_opaque_list_1, @object
	.size	_TIG_iO_q7qM_1___bswap_32_1_opaque_list_1, 8
_TIG_iO_q7qM_1___bswap_32_1_opaque_list_1:
	.zero	8
	.globl	_TIG_iO_q7qM_1_func2_1_opaque_list_2
	.align 8
	.type	_TIG_iO_q7qM_1_func2_1_opaque_list_2, @object
	.size	_TIG_iO_q7qM_1_func2_1_opaque_list_2, 8
_TIG_iO_q7qM_1_func2_1_opaque_list_2:
	.zero	8
	.globl	_TIG_iO_q7qM_1___uint64_identity_1_opaque_list_1
	.align 8
	.type	_TIG_iO_q7qM_1___uint64_identity_1_opaque_list_1, @object
	.size	_TIG_iO_q7qM_1___uint64_identity_1_opaque_list_1, 8
_TIG_iO_q7qM_1___uint64_identity_1_opaque_list_1:
	.zero	8
	.globl	_TIG_iO_q7qM_1___bswap_32_1_opaque_ptr_1
	.align 8
	.type	_TIG_iO_q7qM_1___bswap_32_1_opaque_ptr_1, @object
	.size	_TIG_iO_q7qM_1___bswap_32_1_opaque_ptr_1, 8
_TIG_iO_q7qM_1___bswap_32_1_opaque_ptr_1:
	.zero	8
	.globl	_TIG_iO_q7qM_1_func2_1_opaque_ptr_1
	.align 8
	.type	_TIG_iO_q7qM_1_func2_1_opaque_ptr_1, @object
	.size	_TIG_iO_q7qM_1_func2_1_opaque_ptr_1, 8
_TIG_iO_q7qM_1_func2_1_opaque_ptr_1:
	.zero	8
	.globl	_TIG_iO_q7qM_1___bswap_16_1_opaque_ptr_2
	.align 8
	.type	_TIG_iO_q7qM_1___bswap_16_1_opaque_ptr_2, @object
	.size	_TIG_iO_q7qM_1___bswap_16_1_opaque_ptr_2, 8
_TIG_iO_q7qM_1___bswap_16_1_opaque_ptr_2:
	.zero	8
	.globl	_TIG_iO_q7qM_1___bswap_64_1_opaque_list_1
	.align 8
	.type	_TIG_iO_q7qM_1___bswap_64_1_opaque_list_1, @object
	.size	_TIG_iO_q7qM_1___bswap_64_1_opaque_list_1, 8
_TIG_iO_q7qM_1___bswap_64_1_opaque_list_1:
	.zero	8
	.globl	_TIG_iO_q7qM_1_main_1_opaque_list_1
	.align 8
	.type	_TIG_iO_q7qM_1_main_1_opaque_list_1, @object
	.size	_TIG_iO_q7qM_1_main_1_opaque_list_1, 8
_TIG_iO_q7qM_1_main_1_opaque_list_1:
	.zero	8
	.globl	_TIG_iO_q7qM_1___uint16_identity_1_opaque_list_1
	.align 8
	.type	_TIG_iO_q7qM_1___uint16_identity_1_opaque_list_1, @object
	.size	_TIG_iO_q7qM_1___uint16_identity_1_opaque_list_1, 8
_TIG_iO_q7qM_1___uint16_identity_1_opaque_list_1:
	.zero	8
	.globl	_TIG_iO_q7qM_1_func1_1_opaque_list_2
	.align 8
	.type	_TIG_iO_q7qM_1_func1_1_opaque_list_2, @object
	.size	_TIG_iO_q7qM_1_func1_1_opaque_list_2, 8
_TIG_iO_q7qM_1_func1_1_opaque_list_2:
	.zero	8
	.globl	_TIG_iO_q7qM_1___uint16_identity_1_opaque_ptr_1
	.align 8
	.type	_TIG_iO_q7qM_1___uint16_identity_1_opaque_ptr_1, @object
	.size	_TIG_iO_q7qM_1___uint16_identity_1_opaque_ptr_1, 8
_TIG_iO_q7qM_1___uint16_identity_1_opaque_ptr_1:
	.zero	8
	.globl	_TIG_IZ_q7qM_argv
	.align 8
	.type	_TIG_IZ_q7qM_argv, @object
	.size	_TIG_IZ_q7qM_argv, 8
_TIG_IZ_q7qM_argv:
	.zero	8
	.globl	_TIG_iO_q7qM_1___bswap_64_1_opaque_ptr_2
	.align 8
	.type	_TIG_iO_q7qM_1___bswap_64_1_opaque_ptr_2, @object
	.size	_TIG_iO_q7qM_1___bswap_64_1_opaque_ptr_2, 8
_TIG_iO_q7qM_1___bswap_64_1_opaque_ptr_2:
	.zero	8
	.globl	_TIG_iO_q7qM_1___bswap_32_1_opaque_list_2
	.align 8
	.type	_TIG_iO_q7qM_1___bswap_32_1_opaque_list_2, @object
	.size	_TIG_iO_q7qM_1___bswap_32_1_opaque_list_2, 8
_TIG_iO_q7qM_1___bswap_32_1_opaque_list_2:
	.zero	8
	.globl	_TIG_iO_q7qM_1___uint32_identity_1_opaque_ptr_2
	.align 8
	.type	_TIG_iO_q7qM_1___uint32_identity_1_opaque_ptr_2, @object
	.size	_TIG_iO_q7qM_1___uint32_identity_1_opaque_ptr_2, 8
_TIG_iO_q7qM_1___uint32_identity_1_opaque_ptr_2:
	.zero	8
	.globl	_TIG_iO_q7qM_1_func2_1_opaque_list_1
	.align 8
	.type	_TIG_iO_q7qM_1_func2_1_opaque_list_1, @object
	.size	_TIG_iO_q7qM_1_func2_1_opaque_list_1, 8
_TIG_iO_q7qM_1_func2_1_opaque_list_1:
	.zero	8
	.globl	_TIG_iO_q7qM_1___uint32_identity_1_opaque_list_2
	.align 8
	.type	_TIG_iO_q7qM_1___uint32_identity_1_opaque_list_2, @object
	.size	_TIG_iO_q7qM_1___uint32_identity_1_opaque_list_2, 8
_TIG_iO_q7qM_1___uint32_identity_1_opaque_list_2:
	.zero	8
	.globl	_TIG_iO_q7qM_1___uint16_identity_1_opaque_list_2
	.align 8
	.type	_TIG_iO_q7qM_1___uint16_identity_1_opaque_list_2, @object
	.size	_TIG_iO_q7qM_1___uint16_identity_1_opaque_list_2, 8
_TIG_iO_q7qM_1___uint16_identity_1_opaque_list_2:
	.zero	8
	.globl	_TIG_iO_q7qM_1___bswap_16_1_opaque_list_1
	.align 8
	.type	_TIG_iO_q7qM_1___bswap_16_1_opaque_list_1, @object
	.size	_TIG_iO_q7qM_1___bswap_16_1_opaque_list_1, 8
_TIG_iO_q7qM_1___bswap_16_1_opaque_list_1:
	.zero	8
	.globl	_TIG_iO_q7qM_1_main_1_opaque_list_2
	.align 8
	.type	_TIG_iO_q7qM_1_main_1_opaque_list_2, @object
	.size	_TIG_iO_q7qM_1_main_1_opaque_list_2, 8
_TIG_iO_q7qM_1_main_1_opaque_list_2:
	.zero	8
	.globl	_TIG_iO_q7qM_1_func2_1_opaque_ptr_2
	.align 8
	.type	_TIG_iO_q7qM_1_func2_1_opaque_ptr_2, @object
	.size	_TIG_iO_q7qM_1_func2_1_opaque_ptr_2, 8
_TIG_iO_q7qM_1_func2_1_opaque_ptr_2:
	.zero	8
	.globl	_TIG_iO_q7qM_1_func1_1_opaque_ptr_2
	.align 8
	.type	_TIG_iO_q7qM_1_func1_1_opaque_ptr_2, @object
	.size	_TIG_iO_q7qM_1_func1_1_opaque_ptr_2, 8
_TIG_iO_q7qM_1_func1_1_opaque_ptr_2:
	.zero	8
	.globl	_TIG_IZ_q7qM_argc
	.align 4
	.type	_TIG_IZ_q7qM_argc, @object
	.size	_TIG_IZ_q7qM_argc, 4
_TIG_IZ_q7qM_argc:
	.zero	4
	.globl	_TIG_IZ_q7qM_envp
	.align 8
	.type	_TIG_IZ_q7qM_envp, @object
	.size	_TIG_IZ_q7qM_envp, 8
_TIG_IZ_q7qM_envp:
	.zero	8
	.globl	_TIG_iO_q7qM_1___uint32_identity_1_opaque_list_1
	.align 8
	.type	_TIG_iO_q7qM_1___uint32_identity_1_opaque_list_1, @object
	.size	_TIG_iO_q7qM_1___uint32_identity_1_opaque_list_1, 8
_TIG_iO_q7qM_1___uint32_identity_1_opaque_list_1:
	.zero	8
	.globl	_TIG_iO_q7qM_1_func1_1_opaque_ptr_1
	.align 8
	.type	_TIG_iO_q7qM_1_func1_1_opaque_ptr_1, @object
	.size	_TIG_iO_q7qM_1_func1_1_opaque_ptr_1, 8
_TIG_iO_q7qM_1_func1_1_opaque_ptr_1:
	.zero	8
	.globl	_TIG_iO_q7qM_1___uint64_identity_1_opaque_list_2
	.align 8
	.type	_TIG_iO_q7qM_1___uint64_identity_1_opaque_list_2, @object
	.size	_TIG_iO_q7qM_1___uint64_identity_1_opaque_list_2, 8
_TIG_iO_q7qM_1___uint64_identity_1_opaque_list_2:
	.zero	8
	.globl	_TIG_iO_q7qM_1___bswap_64_1_opaque_list_2
	.align 8
	.type	_TIG_iO_q7qM_1___bswap_64_1_opaque_list_2, @object
	.size	_TIG_iO_q7qM_1___bswap_64_1_opaque_list_2, 8
_TIG_iO_q7qM_1___bswap_64_1_opaque_list_2:
	.zero	8
	.section	.rodata
.LC0:
	.string	"func1 called"
	.text
	.type	func1, @function
func1:
.LFB3:
	.cfi_startproc
	endbr64
	pushq	%rbp
	.cfi_def_cfa_offset 16
	.cfi_offset 6, -16
	movq	%rsp, %rbp
	.cfi_def_cfa_register 6
	subq	$80, %rsp
	movl	%edi, -68(%rbp)
#APP
# 62 "/usr/include/x86_64-linux-gnu/bits/uintn-identity.h" 1
	##_ANNOTATION_INITIALREGION_-TIG-iO-q7qM-1-func1--14
# 0 "" 2
# 66 "/usr/include/x86_64-linux-gnu/bits/uintn-identity.h" 1
	##_ANNOTATION_ATOMICREGION_-TIG-iO-q7qM-1-func1--13
# 0 "" 2
#NO_APP
	movl	$24, %edi
	call	malloc@PLT
	movq	%rax, -40(%rbp)
	movq	-40(%rbp), %rax
	movq	-40(%rbp), %rdx
	movq	%rdx, (%rax)
	movq	-40(%rbp), %rax
	movq	-40(%rbp), %rdx
	movq	%rdx, 8(%rax)
	movq	-40(%rbp), %rax
	movq	%rax, _TIG_iO_q7qM_1_func1_1_opaque_list_1(%rip)
	call	rand@PLT
	movl	%eax, -56(%rbp)
	movl	$24, %edi
	call	malloc@PLT
	movq	%rax, -32(%rbp)
	movq	-32(%rbp), %rax
	movl	$0, 16(%rax)
	movq	_TIG_iO_q7qM_1_func1_1_opaque_list_1(%rip), %rax
	movq	(%rax), %rdx
	movq	-32(%rbp), %rax
	movq	%rdx, (%rax)
	movq	_TIG_iO_q7qM_1_func1_1_opaque_list_1(%rip), %rdx
	movq	-32(%rbp), %rax
	movq	%rdx, 8(%rax)
	movq	_TIG_iO_q7qM_1_func1_1_opaque_list_1(%rip), %rax
	movq	(%rax), %rax
	movq	-32(%rbp), %rdx
	movq	%rdx, 8(%rax)
	movq	_TIG_iO_q7qM_1_func1_1_opaque_list_1(%rip), %rax
	movq	-32(%rbp), %rdx
	movq	%rdx, (%rax)
	call	rand@PLT
	movl	%eax, -52(%rbp)
	movl	$24, %edi
	call	malloc@PLT
	movq	%rax, -24(%rbp)
	movq	-24(%rbp), %rax
	movl	-52(%rbp), %edx
	movl	%edx, 16(%rax)
	movq	_TIG_iO_q7qM_1_func1_1_opaque_list_1(%rip), %rax
	movq	(%rax), %rdx
	movq	-24(%rbp), %rax
	movq	%rdx, (%rax)
	movq	_TIG_iO_q7qM_1_func1_1_opaque_list_1(%rip), %rdx
	movq	-24(%rbp), %rax
	movq	%rdx, 8(%rax)
	movq	_TIG_iO_q7qM_1_func1_1_opaque_list_1(%rip), %rax
	movq	(%rax), %rax
	movq	-24(%rbp), %rdx
	movq	%rdx, 8(%rax)
	movq	_TIG_iO_q7qM_1_func1_1_opaque_list_1(%rip), %rax
	movq	-24(%rbp), %rdx
	movq	%rdx, (%rax)
	call	rand@PLT
	movl	%eax, -48(%rbp)
	movl	$24, %edi
	call	malloc@PLT
	movq	%rax, -16(%rbp)
	movl	-48(%rbp), %eax
	leal	(%rax,%rax), %edx
	movq	-16(%rbp), %rax
	movl	%edx, 16(%rax)
	movq	_TIG_iO_q7qM_1_func1_1_opaque_list_1(%rip), %rax
	movq	(%rax), %rdx
	movq	-16(%rbp), %rax
	movq	%rdx, (%rax)
	movq	_TIG_iO_q7qM_1_func1_1_opaque_list_1(%rip), %rdx
	movq	-16(%rbp), %rax
	movq	%rdx, 8(%rax)
	movq	_TIG_iO_q7qM_1_func1_1_opaque_list_1(%rip), %rax
	movq	(%rax), %rax
	movq	-16(%rbp), %rdx
	movq	%rdx, 8(%rax)
	movq	_TIG_iO_q7qM_1_func1_1_opaque_list_1(%rip), %rax
	movq	-16(%rbp), %rdx
	movq	%rdx, (%rax)
	call	rand@PLT
	movl	%eax, -44(%rbp)
	movl	$24, %edi
	call	malloc@PLT
	movq	%rax, -8(%rbp)
	movl	-44(%rbp), %edx
	movl	%edx, %eax
	addl	%eax, %eax
	addl	%eax, %edx
	movq	-8(%rbp), %rax
	movl	%edx, 16(%rax)
	movq	_TIG_iO_q7qM_1_func1_1_opaque_list_1(%rip), %rax
	movq	(%rax), %rdx
	movq	-8(%rbp), %rax
	movq	%rdx, (%rax)
	movq	_TIG_iO_q7qM_1_func1_1_opaque_list_1(%rip), %rdx
	movq	-8(%rbp), %rax
	movq	%rdx, 8(%rax)
	movq	_TIG_iO_q7qM_1_func1_1_opaque_list_1(%rip), %rax
	movq	(%rax), %rax
	movq	-8(%rbp), %rdx
	movq	%rdx, 8(%rax)
	movq	_TIG_iO_q7qM_1_func1_1_opaque_list_1(%rip), %rax
	movq	-8(%rbp), %rdx
	movq	%rdx, (%rax)
	movq	_TIG_iO_q7qM_1_func1_1_opaque_list_1(%rip), %rax
	movq	(%rax), %rax
	movq	%rax, _TIG_iO_q7qM_1_func1_1_opaque_ptr_1(%rip)
	movq	_TIG_iO_q7qM_1_func1_1_opaque_ptr_1(%rip), %rax
	movq	%rax, _TIG_iO_q7qM_1_func1_1_opaque_ptr_2(%rip)
	movq	_TIG_iO_q7qM_1_func1_1_opaque_ptr_2(%rip), %rax
	movq	(%rax), %rax
	movq	%rax, _TIG_iO_q7qM_1_func1_1_opaque_ptr_2(%rip)
	nop
	nop
	leaq	.LC0(%rip), %rax
	movq	%rax, %rdi
	call	puts@PLT
	cmpl	$0, -68(%rbp)
	jns	.L2
	movl	$1, %esi
	leaq	env(%rip), %rax
	movq	%rax, %rdi
	call	longjmp@PLT
.L2:
	movq	_TIG_iO_q7qM_1_main_1_opaque_ptr_1(%rip), %rdx
	movq	_TIG_iO_q7qM_1_main_1_opaque_ptr_2(%rip), %rax
	cmpq	%rax, %rdx
	je	.L3
	movl	-68(%rbp), %eax
	movl	%eax, %edi
	call	func2
	jmp	.L1
.L3:
#APP
# 43 "liphx_code_setjmp.c" 1
	.byte 0xac,0xf9,0xff,0xff,0x0,0x0,0x0,0x31
# 0 "" 2
#NO_APP
	nop
.L1:
	leave
	.cfi_def_cfa 7, 8
	ret
	.cfi_endproc
.LFE3:
	.size	func1, .-func1
	.section	.rodata
.LC1:
	.string	"func2 called"
	.text
	.type	func2, @function
func2:
.LFB4:
	.cfi_startproc
	endbr64
	pushq	%rbp
	.cfi_def_cfa_offset 16
	.cfi_offset 6, -16
	movq	%rsp, %rbp
	.cfi_def_cfa_register 6
	subq	$48, %rsp
	movl	%edi, -36(%rbp)
#APP
# 58 "liphx_code_setjmp.c" 1
	##_ANNOTATION_INITIALREGION_-TIG-iO-q7qM-1-func2--16
# 0 "" 2
# 62 "liphx_code_setjmp.c" 1
	##_ANNOTATION_ATOMICREGION_-TIG-iO-q7qM-1-func2--15
# 0 "" 2
#NO_APP
	movl	$24, %edi
	call	malloc@PLT
	movq	%rax, -24(%rbp)
	movq	-24(%rbp), %rax
	movq	-24(%rbp), %rdx
	movq	%rdx, 16(%rax)
	movq	-24(%rbp), %rax
	movq	-24(%rbp), %rdx
	movq	%rdx, 8(%rax)
	movq	-24(%rbp), %rax
	movq	%rax, _TIG_iO_q7qM_1_func2_1_opaque_list_1(%rip)
	call	rand@PLT
	movl	%eax, -32(%rbp)
	movl	$24, %edi
	call	malloc@PLT
	movq	%rax, -16(%rbp)
	movq	-16(%rbp), %rax
	movl	$0, (%rax)
	movq	_TIG_iO_q7qM_1_func2_1_opaque_list_1(%rip), %rax
	movq	16(%rax), %rdx
	movq	-16(%rbp), %rax
	movq	%rdx, 16(%rax)
	movq	_TIG_iO_q7qM_1_func2_1_opaque_list_1(%rip), %rdx
	movq	-16(%rbp), %rax
	movq	%rdx, 8(%rax)
	movq	_TIG_iO_q7qM_1_func2_1_opaque_list_1(%rip), %rax
	movq	16(%rax), %rax
	movq	-16(%rbp), %rdx
	movq	%rdx, 8(%rax)
	movq	_TIG_iO_q7qM_1_func2_1_opaque_list_1(%rip), %rax
	movq	-16(%rbp), %rdx
	movq	%rdx, 16(%rax)
	call	rand@PLT
	movl	%eax, -28(%rbp)
	movl	$24, %edi
	call	malloc@PLT
	movq	%rax, -8(%rbp)
	movq	-8(%rbp), %rax
	movl	-28(%rbp), %edx
	movl	%edx, (%rax)
	movq	_TIG_iO_q7qM_1_func2_1_opaque_list_1(%rip), %rax
	movq	16(%rax), %rdx
	movq	-8(%rbp), %rax
	movq	%rdx, 16(%rax)
	movq	_TIG_iO_q7qM_1_func2_1_opaque_list_1(%rip), %rdx
	movq	-8(%rbp), %rax
	movq	%rdx, 8(%rax)
	movq	_TIG_iO_q7qM_1_func2_1_opaque_list_1(%rip), %rax
	movq	16(%rax), %rax
	movq	-8(%rbp), %rdx
	movq	%rdx, 8(%rax)
	movq	_TIG_iO_q7qM_1_func2_1_opaque_list_1(%rip), %rax
	movq	-8(%rbp), %rdx
	movq	%rdx, 16(%rax)
	movq	_TIG_iO_q7qM_1_func2_1_opaque_list_1(%rip), %rax
	movq	16(%rax), %rax
	movq	%rax, _TIG_iO_q7qM_1_func2_1_opaque_ptr_1(%rip)
	movq	_TIG_iO_q7qM_1_func2_1_opaque_ptr_1(%rip), %rax
	movq	%rax, _TIG_iO_q7qM_1_func2_1_opaque_ptr_2(%rip)
	nop
	nop
	leaq	.LC1(%rip), %rax
	movq	%rax, %rdi
	call	puts@PLT
	movl	-36(%rbp), %eax
	andl	$1, %eax
	testl	%eax, %eax
	jne	.L10
	movq	_TIG_iO_q7qM_1_main_1_opaque_ptr_1(%rip), %rdx
	movq	_TIG_iO_q7qM_1_main_1_opaque_ptr_2(%rip), %rax
	cmpq	%rax, %rdx
	jne	.L8
	leaq	200+env(%rip), %rax
	movl	$1, %esi
	movq	%rax, %rdi
	call	longjmp@PLT
.L8:
	movl	$2, %esi
	leaq	env(%rip), %rax
	movq	%rax, %rdi
	call	longjmp@PLT
.L10:
	nop
	leave
	.cfi_def_cfa 7, 8
	ret
	.cfi_endproc
.LFE4:
	.size	func2, .-func2
	.section	.rodata
.LC2:
	.string	"func1 error\n"
.LC3:
	.string	"func2 error\n"
	.text
	.globl	main
	.type	main, @function
main:
.LFB5:
	.cfi_startproc
	endbr64
	pushq	%rbp
	.cfi_def_cfa_offset 16
	.cfi_offset 6, -16
	movq	%rsp, %rbp
	.cfi_def_cfa_register 6
	subq	$80, %rsp
	movl	%edi, -52(%rbp)
	movq	%rsi, -64(%rbp)
	movq	%rdx, -72(%rbp)
	movq	$0, env(%rip)
	movq	$0, 8+env(%rip)
	movq	$0, 16+env(%rip)
	movq	$0, 24+env(%rip)
	movq	$0, 32+env(%rip)
	movq	$0, 40+env(%rip)
	movq	$0, 48+env(%rip)
	movq	$0, 56+env(%rip)
	movl	$0, 64+env(%rip)
	movq	$0, 72+env(%rip)
	movq	$0, 80+env(%rip)
	movq	$0, 88+env(%rip)
	movq	$0, 96+env(%rip)
	movq	$0, 104+env(%rip)
	movq	$0, 112+env(%rip)
	movq	$0, 120+env(%rip)
	movq	$0, 128+env(%rip)
	movq	$0, 136+env(%rip)
	movq	$0, 144+env(%rip)
	movq	$0, 152+env(%rip)
	movq	$0, 160+env(%rip)
	movq	$0, 168+env(%rip)
	movq	$0, 176+env(%rip)
	movq	$0, 184+env(%rip)
	movq	$0, 192+env(%rip)
	nop
.L12:
	movq	$0, _TIG_IZ_q7qM_envp(%rip)
	nop
.L13:
	movq	$0, _TIG_IZ_q7qM_argv(%rip)
	nop
.L14:
	movl	$0, _TIG_IZ_q7qM_argc(%rip)
	nop
	nop
.L15:
.L16:
#APP
# 122 "liphx_code_setjmp.c" 1
	##_ANNOTATION_INITIALREGION_-TIG-IZ-q7qM--0
# 0 "" 2
#NO_APP
	movl	-52(%rbp), %eax
	movl	%eax, _TIG_IZ_q7qM_argc(%rip)
	movq	-64(%rbp), %rax
	movq	%rax, _TIG_IZ_q7qM_argv(%rip)
	movq	-72(%rbp), %rax
	movq	%rax, _TIG_IZ_q7qM_envp(%rip)
#APP
# 129 "liphx_code_setjmp.c" 1
	##_ANNOTATION_ATOMICREGION_-TIG-iO-q7qM-1-main--17
# 0 "" 2
#NO_APP
	movl	$24, %edi
	call	malloc@PLT
	movq	%rax, -24(%rbp)
	movq	-24(%rbp), %rax
	movq	-24(%rbp), %rdx
	movq	%rdx, 8(%rax)
	movq	-24(%rbp), %rax
	movq	-24(%rbp), %rdx
	movq	%rdx, (%rax)
	movq	-24(%rbp), %rax
	movq	%rax, _TIG_iO_q7qM_1_main_1_opaque_list_1(%rip)
	call	rand@PLT
	movl	%eax, -36(%rbp)
	movl	$24, %edi
	call	malloc@PLT
	movq	%rax, -16(%rbp)
	movq	-16(%rbp), %rax
	movl	$0, 16(%rax)
	movq	_TIG_iO_q7qM_1_main_1_opaque_list_1(%rip), %rax
	movq	8(%rax), %rdx
	movq	-16(%rbp), %rax
	movq	%rdx, 8(%rax)
	movq	_TIG_iO_q7qM_1_main_1_opaque_list_1(%rip), %rdx
	movq	-16(%rbp), %rax
	movq	%rdx, (%rax)
	movq	_TIG_iO_q7qM_1_main_1_opaque_list_1(%rip), %rax
	movq	8(%rax), %rax
	movq	-16(%rbp), %rdx
	movq	%rdx, (%rax)
	movq	_TIG_iO_q7qM_1_main_1_opaque_list_1(%rip), %rax
	movq	-16(%rbp), %rdx
	movq	%rdx, 8(%rax)
	call	rand@PLT
	movl	%eax, -32(%rbp)
	movl	$24, %edi
	call	malloc@PLT
	movq	%rax, -8(%rbp)
	movq	-8(%rbp), %rax
	movl	-32(%rbp), %edx
	movl	%edx, 16(%rax)
	movq	_TIG_iO_q7qM_1_main_1_opaque_list_1(%rip), %rax
	movq	8(%rax), %rdx
	movq	-8(%rbp), %rax
	movq	%rdx, 8(%rax)
	movq	_TIG_iO_q7qM_1_main_1_opaque_list_1(%rip), %rdx
	movq	-8(%rbp), %rax
	movq	%rdx, (%rax)
	movq	_TIG_iO_q7qM_1_main_1_opaque_list_1(%rip), %rax
	movq	8(%rax), %rax
	movq	-8(%rbp), %rdx
	movq	%rdx, (%rax)
	movq	_TIG_iO_q7qM_1_main_1_opaque_list_1(%rip), %rax
	movq	-8(%rbp), %rdx
	movq	%rdx, 8(%rax)
	movq	_TIG_iO_q7qM_1_main_1_opaque_list_1(%rip), %rax
	movq	8(%rax), %rax
	movq	%rax, _TIG_iO_q7qM_1_main_1_opaque_ptr_1(%rip)
	movq	_TIG_iO_q7qM_1_main_1_opaque_ptr_1(%rip), %rax
	movq	%rax, _TIG_iO_q7qM_1_main_1_opaque_ptr_2(%rip)
	movq	_TIG_iO_q7qM_1_main_1_opaque_ptr_2(%rip), %rax
	movq	8(%rax), %rax
	movq	%rax, _TIG_iO_q7qM_1_main_1_opaque_ptr_2(%rip)
	nop
	nop
	leaq	env(%rip), %rax
	movq	%rax, %rdi
	call	_setjmp@PLT
	endbr64
	movl	%eax, -28(%rbp)
	movq	_TIG_iO_q7qM_1_main_1_opaque_ptr_1(%rip), %rdx
	movq	_TIG_iO_q7qM_1_main_1_opaque_ptr_2(%rip), %rax
	cmpq	%rax, %rdx
	jne	.L18
	movq	-72(%rbp), %rdx
	movq	-64(%rbp), %rcx
	movl	-32(%rbp), %eax
	movq	%rcx, %rsi
	movl	%eax, %edi
	call	main
	movl	%eax, -36(%rbp)
.L18:
	cmpl	$2, -28(%rbp)
	je	.L19
	cmpl	$2, -28(%rbp)
	jg	.L20
	cmpl	$0, -28(%rbp)
	je	.L24
	cmpl	$1, -28(%rbp)
	jne	.L20
	movq	stderr(%rip), %rax
	movq	%rax, %rcx
	movl	$12, %edx
	movl	$1, %esi
	leaq	.LC2(%rip), %rax
	movq	%rax, %rdi
	call	fwrite@PLT
	movl	$1, %edi
	call	exit@PLT
.L19:
	movq	stderr(%rip), %rax
	movq	%rax, %rcx
	movl	$12, %edx
	movl	$1, %esi
	leaq	.LC3(%rip), %rax
	movq	%rax, %rdi
	call	fwrite@PLT
	movl	$2, %edi
	call	exit@PLT
.L20:
	movl	$-1, %edi
	call	exit@PLT
.L24:
	nop
	movl	$2, %edi
	call	func1
	movl	$0, %edi
	call	exit@PLT
	.cfi_endproc
.LFE5:
	.size	main, .-main
	.ident	"GCC: (Ubuntu 11.4.0-1ubuntu1~22.04) 11.4.0"
	.section	.note.GNU-stack,"",@progbits
	.section	.note.gnu.property,"a"
	.align 8
	.long	1f - 0f
	.long	4f - 1f
	.long	5
0:
	.string	"GNU"
1:
	.align 8
	.long	0xc0000002
	.long	3f - 2f
2:
	.long	0x3
3:
	.align 8
4:
