	.file	"Melearner777_Guvi-Ds-with-C_4_opaque.c"
	.text
	.globl	_TIG_iO_j712_1___uint16_identity_1_opaque_ptr_1
	.bss
	.align 8
	.type	_TIG_iO_j712_1___uint16_identity_1_opaque_ptr_1, @object
	.size	_TIG_iO_j712_1___uint16_identity_1_opaque_ptr_1, 8
_TIG_iO_j712_1___uint16_identity_1_opaque_ptr_1:
	.zero	8
	.globl	_TIG_iO_j712_1___bswap_64_1_opaque_ptr_2
	.align 8
	.type	_TIG_iO_j712_1___bswap_64_1_opaque_ptr_2, @object
	.size	_TIG_iO_j712_1___bswap_64_1_opaque_ptr_2, 8
_TIG_iO_j712_1___bswap_64_1_opaque_ptr_2:
	.zero	8
	.globl	_TIG_iO_j712_1___bswap_64_1_opaque_list_2
	.align 8
	.type	_TIG_iO_j712_1___bswap_64_1_opaque_list_2, @object
	.size	_TIG_iO_j712_1___bswap_64_1_opaque_list_2, 8
_TIG_iO_j712_1___bswap_64_1_opaque_list_2:
	.zero	8
	.globl	_TIG_iO_j712_1___uint16_identity_1_opaque_list_1
	.align 8
	.type	_TIG_iO_j712_1___uint16_identity_1_opaque_list_1, @object
	.size	_TIG_iO_j712_1___uint16_identity_1_opaque_list_1, 8
_TIG_iO_j712_1___uint16_identity_1_opaque_list_1:
	.zero	8
	.globl	_TIG_iO_j712_1___bswap_32_1_opaque_list_2
	.align 8
	.type	_TIG_iO_j712_1___bswap_32_1_opaque_list_2, @object
	.size	_TIG_iO_j712_1___bswap_32_1_opaque_list_2, 8
_TIG_iO_j712_1___bswap_32_1_opaque_list_2:
	.zero	8
	.globl	_TIG_iO_j712_1_displayBooks_1_opaque_ptr_2
	.align 8
	.type	_TIG_iO_j712_1_displayBooks_1_opaque_ptr_2, @object
	.size	_TIG_iO_j712_1_displayBooks_1_opaque_ptr_2, 8
_TIG_iO_j712_1_displayBooks_1_opaque_ptr_2:
	.zero	8
	.globl	_TIG_iO_j712_1_displayBooks_1_opaque_ptr_1
	.align 8
	.type	_TIG_iO_j712_1_displayBooks_1_opaque_ptr_1, @object
	.size	_TIG_iO_j712_1_displayBooks_1_opaque_ptr_1, 8
_TIG_iO_j712_1_displayBooks_1_opaque_ptr_1:
	.zero	8
	.globl	_TIG_iO_j712_1___uint32_identity_1_opaque_ptr_2
	.align 8
	.type	_TIG_iO_j712_1___uint32_identity_1_opaque_ptr_2, @object
	.size	_TIG_iO_j712_1___uint32_identity_1_opaque_ptr_2, 8
_TIG_iO_j712_1___uint32_identity_1_opaque_ptr_2:
	.zero	8
	.globl	_TIG_iO_j712_1_main_1_opaque_ptr_1
	.align 8
	.type	_TIG_iO_j712_1_main_1_opaque_ptr_1, @object
	.size	_TIG_iO_j712_1_main_1_opaque_ptr_1, 8
_TIG_iO_j712_1_main_1_opaque_ptr_1:
	.zero	8
	.globl	_TIG_iO_j712_1___uint32_identity_1_opaque_list_2
	.align 8
	.type	_TIG_iO_j712_1___uint32_identity_1_opaque_list_2, @object
	.size	_TIG_iO_j712_1___uint32_identity_1_opaque_list_2, 8
_TIG_iO_j712_1___uint32_identity_1_opaque_list_2:
	.zero	8
	.globl	_TIG_iO_j712_1_addBook_1_opaque_ptr_1
	.align 8
	.type	_TIG_iO_j712_1_addBook_1_opaque_ptr_1, @object
	.size	_TIG_iO_j712_1_addBook_1_opaque_ptr_1, 8
_TIG_iO_j712_1_addBook_1_opaque_ptr_1:
	.zero	8
	.globl	_TIG_iO_j712_1_initLibrary_1_opaque_list_1
	.align 8
	.type	_TIG_iO_j712_1_initLibrary_1_opaque_list_1, @object
	.size	_TIG_iO_j712_1_initLibrary_1_opaque_list_1, 8
_TIG_iO_j712_1_initLibrary_1_opaque_list_1:
	.zero	8
	.globl	_TIG_iO_j712_1___bswap_16_1_opaque_list_1
	.align 8
	.type	_TIG_iO_j712_1___bswap_16_1_opaque_list_1, @object
	.size	_TIG_iO_j712_1___bswap_16_1_opaque_list_1, 8
_TIG_iO_j712_1___bswap_16_1_opaque_list_1:
	.zero	8
	.globl	_TIG_iO_j712_1_initLibrary_1_opaque_ptr_1
	.align 8
	.type	_TIG_iO_j712_1_initLibrary_1_opaque_ptr_1, @object
	.size	_TIG_iO_j712_1_initLibrary_1_opaque_ptr_1, 8
_TIG_iO_j712_1_initLibrary_1_opaque_ptr_1:
	.zero	8
	.globl	_TIG_iO_j712_1_displayBooks_1_opaque_list_1
	.align 8
	.type	_TIG_iO_j712_1_displayBooks_1_opaque_list_1, @object
	.size	_TIG_iO_j712_1_displayBooks_1_opaque_list_1, 8
_TIG_iO_j712_1_displayBooks_1_opaque_list_1:
	.zero	8
	.globl	_TIG_iO_j712_1___bswap_16_1_opaque_list_2
	.align 8
	.type	_TIG_iO_j712_1___bswap_16_1_opaque_list_2, @object
	.size	_TIG_iO_j712_1___bswap_16_1_opaque_list_2, 8
_TIG_iO_j712_1___bswap_16_1_opaque_list_2:
	.zero	8
	.globl	_TIG_iO_j712_1___bswap_32_1_opaque_ptr_1
	.align 8
	.type	_TIG_iO_j712_1___bswap_32_1_opaque_ptr_1, @object
	.size	_TIG_iO_j712_1___bswap_32_1_opaque_ptr_1, 8
_TIG_iO_j712_1___bswap_32_1_opaque_ptr_1:
	.zero	8
	.globl	_TIG_iO_j712_1_searchBook_1_opaque_ptr_1
	.align 8
	.type	_TIG_iO_j712_1_searchBook_1_opaque_ptr_1, @object
	.size	_TIG_iO_j712_1_searchBook_1_opaque_ptr_1, 8
_TIG_iO_j712_1_searchBook_1_opaque_ptr_1:
	.zero	8
	.globl	_TIG_iO_j712_1_initLibrary_1_opaque_ptr_2
	.align 8
	.type	_TIG_iO_j712_1_initLibrary_1_opaque_ptr_2, @object
	.size	_TIG_iO_j712_1_initLibrary_1_opaque_ptr_2, 8
_TIG_iO_j712_1_initLibrary_1_opaque_ptr_2:
	.zero	8
	.globl	_TIG_iO_j712_1___uint16_identity_1_opaque_list_2
	.align 8
	.type	_TIG_iO_j712_1___uint16_identity_1_opaque_list_2, @object
	.size	_TIG_iO_j712_1___uint16_identity_1_opaque_list_2, 8
_TIG_iO_j712_1___uint16_identity_1_opaque_list_2:
	.zero	8
	.globl	_TIG_iO_j712_1_searchBook_1_opaque_list_2
	.align 8
	.type	_TIG_iO_j712_1_searchBook_1_opaque_list_2, @object
	.size	_TIG_iO_j712_1_searchBook_1_opaque_list_2, 8
_TIG_iO_j712_1_searchBook_1_opaque_list_2:
	.zero	8
	.globl	_TIG_iO_j712_1_addBook_1_opaque_list_2
	.align 8
	.type	_TIG_iO_j712_1_addBook_1_opaque_list_2, @object
	.size	_TIG_iO_j712_1_addBook_1_opaque_list_2, 8
_TIG_iO_j712_1_addBook_1_opaque_list_2:
	.zero	8
	.globl	_TIG_iO_j712_1___uint16_identity_1_opaque_ptr_2
	.align 8
	.type	_TIG_iO_j712_1___uint16_identity_1_opaque_ptr_2, @object
	.size	_TIG_iO_j712_1___uint16_identity_1_opaque_ptr_2, 8
_TIG_iO_j712_1___uint16_identity_1_opaque_ptr_2:
	.zero	8
	.globl	_TIG_iO_j712_1___bswap_16_1_opaque_ptr_1
	.align 8
	.type	_TIG_iO_j712_1___bswap_16_1_opaque_ptr_1, @object
	.size	_TIG_iO_j712_1___bswap_16_1_opaque_ptr_1, 8
_TIG_iO_j712_1___bswap_16_1_opaque_ptr_1:
	.zero	8
	.globl	_TIG_iO_j712_1___uint32_identity_1_opaque_ptr_1
	.align 8
	.type	_TIG_iO_j712_1___uint32_identity_1_opaque_ptr_1, @object
	.size	_TIG_iO_j712_1___uint32_identity_1_opaque_ptr_1, 8
_TIG_iO_j712_1___uint32_identity_1_opaque_ptr_1:
	.zero	8
	.globl	_TIG_iO_j712_1_addBook_1_opaque_list_1
	.align 8
	.type	_TIG_iO_j712_1_addBook_1_opaque_list_1, @object
	.size	_TIG_iO_j712_1_addBook_1_opaque_list_1, 8
_TIG_iO_j712_1_addBook_1_opaque_list_1:
	.zero	8
	.globl	_TIG_iO_j712_1___uint64_identity_1_opaque_list_2
	.align 8
	.type	_TIG_iO_j712_1___uint64_identity_1_opaque_list_2, @object
	.size	_TIG_iO_j712_1___uint64_identity_1_opaque_list_2, 8
_TIG_iO_j712_1___uint64_identity_1_opaque_list_2:
	.zero	8
	.globl	_TIG_iO_j712_1_main_1_opaque_ptr_2
	.align 8
	.type	_TIG_iO_j712_1_main_1_opaque_ptr_2, @object
	.size	_TIG_iO_j712_1_main_1_opaque_ptr_2, 8
_TIG_iO_j712_1_main_1_opaque_ptr_2:
	.zero	8
	.globl	_TIG_iO_j712_1___bswap_32_1_opaque_ptr_2
	.align 8
	.type	_TIG_iO_j712_1___bswap_32_1_opaque_ptr_2, @object
	.size	_TIG_iO_j712_1___bswap_32_1_opaque_ptr_2, 8
_TIG_iO_j712_1___bswap_32_1_opaque_ptr_2:
	.zero	8
	.globl	_TIG_IZ_j712_envp
	.align 8
	.type	_TIG_IZ_j712_envp, @object
	.size	_TIG_IZ_j712_envp, 8
_TIG_IZ_j712_envp:
	.zero	8
	.globl	_TIG_iO_j712_1___bswap_32_1_opaque_list_1
	.align 8
	.type	_TIG_iO_j712_1___bswap_32_1_opaque_list_1, @object
	.size	_TIG_iO_j712_1___bswap_32_1_opaque_list_1, 8
_TIG_iO_j712_1___bswap_32_1_opaque_list_1:
	.zero	8
	.globl	_TIG_iO_j712_1_main_1_opaque_list_1
	.align 8
	.type	_TIG_iO_j712_1_main_1_opaque_list_1, @object
	.size	_TIG_iO_j712_1_main_1_opaque_list_1, 8
_TIG_iO_j712_1_main_1_opaque_list_1:
	.zero	8
	.globl	_TIG_iO_j712_1_searchBook_1_opaque_ptr_2
	.align 8
	.type	_TIG_iO_j712_1_searchBook_1_opaque_ptr_2, @object
	.size	_TIG_iO_j712_1_searchBook_1_opaque_ptr_2, 8
_TIG_iO_j712_1_searchBook_1_opaque_ptr_2:
	.zero	8
	.globl	_TIG_iO_j712_1___bswap_16_1_opaque_ptr_2
	.align 8
	.type	_TIG_iO_j712_1___bswap_16_1_opaque_ptr_2, @object
	.size	_TIG_iO_j712_1___bswap_16_1_opaque_ptr_2, 8
_TIG_iO_j712_1___bswap_16_1_opaque_ptr_2:
	.zero	8
	.globl	_TIG_iO_j712_1___bswap_64_1_opaque_ptr_1
	.align 8
	.type	_TIG_iO_j712_1___bswap_64_1_opaque_ptr_1, @object
	.size	_TIG_iO_j712_1___bswap_64_1_opaque_ptr_1, 8
_TIG_iO_j712_1___bswap_64_1_opaque_ptr_1:
	.zero	8
	.globl	_TIG_iO_j712_1_displayBooks_1_opaque_list_2
	.align 8
	.type	_TIG_iO_j712_1_displayBooks_1_opaque_list_2, @object
	.size	_TIG_iO_j712_1_displayBooks_1_opaque_list_2, 8
_TIG_iO_j712_1_displayBooks_1_opaque_list_2:
	.zero	8
	.globl	_TIG_iO_j712_1_initLibrary_1_opaque_list_2
	.align 8
	.type	_TIG_iO_j712_1_initLibrary_1_opaque_list_2, @object
	.size	_TIG_iO_j712_1_initLibrary_1_opaque_list_2, 8
_TIG_iO_j712_1_initLibrary_1_opaque_list_2:
	.zero	8
	.globl	_TIG_iO_j712_1___uint64_identity_1_opaque_ptr_1
	.align 8
	.type	_TIG_iO_j712_1___uint64_identity_1_opaque_ptr_1, @object
	.size	_TIG_iO_j712_1___uint64_identity_1_opaque_ptr_1, 8
_TIG_iO_j712_1___uint64_identity_1_opaque_ptr_1:
	.zero	8
	.globl	_TIG_IZ_j712_argv
	.align 8
	.type	_TIG_IZ_j712_argv, @object
	.size	_TIG_IZ_j712_argv, 8
_TIG_IZ_j712_argv:
	.zero	8
	.globl	_TIG_iO_j712_1_searchBook_1_opaque_list_1
	.align 8
	.type	_TIG_iO_j712_1_searchBook_1_opaque_list_1, @object
	.size	_TIG_iO_j712_1_searchBook_1_opaque_list_1, 8
_TIG_iO_j712_1_searchBook_1_opaque_list_1:
	.zero	8
	.globl	_TIG_IZ_j712_argc
	.align 4
	.type	_TIG_IZ_j712_argc, @object
	.size	_TIG_IZ_j712_argc, 4
_TIG_IZ_j712_argc:
	.zero	4
	.globl	_TIG_iO_j712_1___bswap_64_1_opaque_list_1
	.align 8
	.type	_TIG_iO_j712_1___bswap_64_1_opaque_list_1, @object
	.size	_TIG_iO_j712_1___bswap_64_1_opaque_list_1, 8
_TIG_iO_j712_1___bswap_64_1_opaque_list_1:
	.zero	8
	.globl	_TIG_iO_j712_1_main_1_opaque_list_2
	.align 8
	.type	_TIG_iO_j712_1_main_1_opaque_list_2, @object
	.size	_TIG_iO_j712_1_main_1_opaque_list_2, 8
_TIG_iO_j712_1_main_1_opaque_list_2:
	.zero	8
	.globl	_TIG_iO_j712_1___uint32_identity_1_opaque_list_1
	.align 8
	.type	_TIG_iO_j712_1___uint32_identity_1_opaque_list_1, @object
	.size	_TIG_iO_j712_1___uint32_identity_1_opaque_list_1, 8
_TIG_iO_j712_1___uint32_identity_1_opaque_list_1:
	.zero	8
	.globl	_TIG_iO_j712_1___uint64_identity_1_opaque_ptr_2
	.align 8
	.type	_TIG_iO_j712_1___uint64_identity_1_opaque_ptr_2, @object
	.size	_TIG_iO_j712_1___uint64_identity_1_opaque_ptr_2, 8
_TIG_iO_j712_1___uint64_identity_1_opaque_ptr_2:
	.zero	8
	.globl	_TIG_iO_j712_1___uint64_identity_1_opaque_list_1
	.align 8
	.type	_TIG_iO_j712_1___uint64_identity_1_opaque_list_1, @object
	.size	_TIG_iO_j712_1___uint64_identity_1_opaque_list_1, 8
_TIG_iO_j712_1___uint64_identity_1_opaque_list_1:
	.zero	8
	.globl	_TIG_iO_j712_1_addBook_1_opaque_ptr_2
	.align 8
	.type	_TIG_iO_j712_1_addBook_1_opaque_ptr_2, @object
	.size	_TIG_iO_j712_1_addBook_1_opaque_ptr_2, 8
_TIG_iO_j712_1_addBook_1_opaque_ptr_2:
	.zero	8
	.section	.rodata
.LC0:
	.string	"%d"
.LC1:
	.string	"Exiting..."
	.align 8
.LC2:
	.string	"Invalid choice. Please try again."
	.text
	.globl	main
	.type	main, @function
main:
.LFB0:
	.cfi_startproc
	endbr64
	pushq	%rbp
	.cfi_def_cfa_offset 16
	.cfi_offset 6, -16
	movq	%rsp, %rbp
	.cfi_def_cfa_register 6
	subq	$112, %rsp
	movl	%edi, -84(%rbp)
	movq	%rsi, -96(%rbp)
	movq	%rdx, -104(%rbp)
	movq	%fs:40, %rax
	movq	%rax, -8(%rbp)
	xorl	%eax, %eax
	movq	$0, _TIG_IZ_j712_envp(%rip)
	nop
.L2:
	movq	$0, _TIG_IZ_j712_argv(%rip)
	nop
.L3:
	movl	$0, _TIG_IZ_j712_argc(%rip)
	nop
	nop
.L4:
.L5:
#APP
# 105 "/usr/include/stdlib.h" 1
	##_ANNOTATION_INITIALREGION_-TIG-IZ-j712--0
# 0 "" 2
#NO_APP
	movl	-84(%rbp), %eax
	movl	%eax, _TIG_IZ_j712_argc(%rip)
	movq	-96(%rbp), %rax
	movq	%rax, _TIG_IZ_j712_argv(%rip)
	movq	-104(%rbp), %rax
	movq	%rax, _TIG_IZ_j712_envp(%rip)
#APP
# 112 "/usr/include/stdlib.h" 1
	##_ANNOTATION_ATOMICREGION_-TIG-iO-j712-1-main--19
# 0 "" 2
#NO_APP
	movl	$24, %edi
	call	malloc@PLT
	movq	%rax, -56(%rbp)
	movq	-56(%rbp), %rax
	movq	-56(%rbp), %rdx
	movq	%rdx, 8(%rax)
	movq	-56(%rbp), %rax
	movq	-56(%rbp), %rdx
	movq	%rdx, 16(%rax)
	movq	-56(%rbp), %rax
	movq	%rax, _TIG_iO_j712_1_main_1_opaque_list_1(%rip)
	call	rand@PLT
	movl	%eax, -64(%rbp)
	movl	$24, %edi
	call	malloc@PLT
	movq	%rax, -48(%rbp)
	movq	-48(%rbp), %rax
	movl	$0, (%rax)
	movq	_TIG_iO_j712_1_main_1_opaque_list_1(%rip), %rax
	movq	8(%rax), %rdx
	movq	-48(%rbp), %rax
	movq	%rdx, 8(%rax)
	movq	_TIG_iO_j712_1_main_1_opaque_list_1(%rip), %rdx
	movq	-48(%rbp), %rax
	movq	%rdx, 16(%rax)
	movq	_TIG_iO_j712_1_main_1_opaque_list_1(%rip), %rax
	movq	8(%rax), %rax
	movq	-48(%rbp), %rdx
	movq	%rdx, 16(%rax)
	movq	_TIG_iO_j712_1_main_1_opaque_list_1(%rip), %rax
	movq	-48(%rbp), %rdx
	movq	%rdx, 8(%rax)
	call	rand@PLT
	movl	%eax, -60(%rbp)
	movl	$24, %edi
	call	malloc@PLT
	movq	%rax, -40(%rbp)
	movq	-40(%rbp), %rax
	movl	-60(%rbp), %edx
	movl	%edx, (%rax)
	movq	_TIG_iO_j712_1_main_1_opaque_list_1(%rip), %rax
	movq	8(%rax), %rdx
	movq	-40(%rbp), %rax
	movq	%rdx, 8(%rax)
	movq	_TIG_iO_j712_1_main_1_opaque_list_1(%rip), %rdx
	movq	-40(%rbp), %rax
	movq	%rdx, 16(%rax)
	movq	_TIG_iO_j712_1_main_1_opaque_list_1(%rip), %rax
	movq	8(%rax), %rax
	movq	-40(%rbp), %rdx
	movq	%rdx, 16(%rax)
	movq	_TIG_iO_j712_1_main_1_opaque_list_1(%rip), %rax
	movq	-40(%rbp), %rdx
	movq	%rdx, 8(%rax)
	movq	_TIG_iO_j712_1_main_1_opaque_list_1(%rip), %rax
	movq	8(%rax), %rax
	movq	%rax, _TIG_iO_j712_1_main_1_opaque_ptr_1(%rip)
	movq	_TIG_iO_j712_1_main_1_opaque_ptr_1(%rip), %rax
	movq	%rax, _TIG_iO_j712_1_main_1_opaque_ptr_2(%rip)
	nop
	nop
	movq	_TIG_iO_j712_1_searchBook_1_opaque_ptr_1(%rip), %rdx
	movq	_TIG_iO_j712_1_searchBook_1_opaque_ptr_2(%rip), %rax
	cmpq	%rax, %rdx
	jne	.L6
#APP
# 141 "/usr/include/stdlib.h" 1
	.byte 0x7e,0x60
# 0 "" 2
#NO_APP
	jmp	.L16
.L6:
	leaq	-32(%rbp), %rax
	movq	%rax, %rdi
	call	initLibrary
.L16:
	leaq	-68(%rbp), %rax
	movq	%rax, %rsi
	leaq	.LC0(%rip), %rax
	movq	%rax, %rdi
	movl	$0, %eax
	call	__isoc99_scanf@PLT
	movl	-68(%rbp), %eax
	cmpl	$4, %eax
	je	.L8
	cmpl	$4, %eax
	jg	.L9
	cmpl	$3, %eax
	je	.L10
	cmpl	$3, %eax
	jg	.L9
	cmpl	$1, %eax
	je	.L11
	cmpl	$2, %eax
	je	.L12
	jmp	.L9
.L11:
	leaq	-32(%rbp), %rax
	movq	%rax, %rdi
	call	addBook
	jmp	.L13
.L12:
	leaq	-32(%rbp), %rax
	movq	%rax, %rdi
	call	displayBooks
	jmp	.L13
.L10:
	leaq	-32(%rbp), %rax
	movq	%rax, %rdi
	call	searchBook
	jmp	.L13
.L8:
	leaq	.LC1(%rip), %rax
	movq	%rax, %rdi
	call	puts@PLT
	jmp	.L13
.L9:
	leaq	.LC2(%rip), %rax
	movq	%rax, %rdi
	call	puts@PLT
.L13:
	movl	-68(%rbp), %eax
	cmpl	$4, %eax
	je	.L20
	jmp	.L16
.L20:
	nop
	movq	-32(%rbp), %rax
	movq	%rax, %rdi
	call	free@PLT
	movl	$0, %eax
	movq	-8(%rbp), %rdx
	subq	%fs:40, %rdx
	je	.L18
	call	__stack_chk_fail@PLT
.L18:
	leave
	.cfi_def_cfa 7, 8
	ret
	.cfi_endproc
.LFE0:
	.size	main, .-main
	.section	.rodata
.LC3:
	.string	" %[^\n]"
.LC4:
	.string	"Books found:"
	.align 8
.LC5:
	.string	"Title: %s, Author: %s, Year: %d\n"
	.align 8
.LC6:
	.string	"No book found with the given title."
	.text
	.globl	searchBook
	.type	searchBook, @function
searchBook:
.LFB1:
	.cfi_startproc
	endbr64
	pushq	%rbp
	.cfi_def_cfa_offset 16
	.cfi_offset 6, -16
	movq	%rsp, %rbp
	.cfi_def_cfa_register 6
	subq	$192, %rsp
	movq	%rdi, -184(%rbp)
	movq	%fs:40, %rax
	movq	%rax, -8(%rbp)
	xorl	%eax, %eax
#APP
# 193 "Melearner777_Guvi-Ds-with-C_4.c" 1
	##_ANNOTATION_INITIALREGION_-TIG-iO-j712-1-searchBook--22
# 0 "" 2
# 197 "Melearner777_Guvi-Ds-with-C_4.c" 1
	##_ANNOTATION_ATOMICREGION_-TIG-iO-j712-1-searchBook--21
# 0 "" 2
#NO_APP
	movl	$24, %edi
	call	malloc@PLT
	movq	%rax, -152(%rbp)
	movq	-152(%rbp), %rax
	movq	-152(%rbp), %rdx
	movq	%rdx, (%rax)
	movq	-152(%rbp), %rax
	movq	-152(%rbp), %rdx
	movq	%rdx, 16(%rax)
	movq	-152(%rbp), %rax
	movq	%rax, _TIG_iO_j712_1_searchBook_1_opaque_list_1(%rip)
	call	rand@PLT
	movl	%eax, -164(%rbp)
	movl	$24, %edi
	call	malloc@PLT
	movq	%rax, -144(%rbp)
	movq	-144(%rbp), %rax
	movl	$0, 8(%rax)
	movq	_TIG_iO_j712_1_searchBook_1_opaque_list_1(%rip), %rax
	movq	(%rax), %rdx
	movq	-144(%rbp), %rax
	movq	%rdx, (%rax)
	movq	_TIG_iO_j712_1_searchBook_1_opaque_list_1(%rip), %rdx
	movq	-144(%rbp), %rax
	movq	%rdx, 16(%rax)
	movq	_TIG_iO_j712_1_searchBook_1_opaque_list_1(%rip), %rax
	movq	(%rax), %rax
	movq	-144(%rbp), %rdx
	movq	%rdx, 16(%rax)
	movq	_TIG_iO_j712_1_searchBook_1_opaque_list_1(%rip), %rax
	movq	-144(%rbp), %rdx
	movq	%rdx, (%rax)
	call	rand@PLT
	movl	%eax, -160(%rbp)
	movl	$24, %edi
	call	malloc@PLT
	movq	%rax, -136(%rbp)
	movq	-136(%rbp), %rax
	movl	-160(%rbp), %edx
	movl	%edx, 8(%rax)
	movq	_TIG_iO_j712_1_searchBook_1_opaque_list_1(%rip), %rax
	movq	(%rax), %rdx
	movq	-136(%rbp), %rax
	movq	%rdx, (%rax)
	movq	_TIG_iO_j712_1_searchBook_1_opaque_list_1(%rip), %rdx
	movq	-136(%rbp), %rax
	movq	%rdx, 16(%rax)
	movq	_TIG_iO_j712_1_searchBook_1_opaque_list_1(%rip), %rax
	movq	(%rax), %rax
	movq	-136(%rbp), %rdx
	movq	%rdx, 16(%rax)
	movq	_TIG_iO_j712_1_searchBook_1_opaque_list_1(%rip), %rax
	movq	-136(%rbp), %rdx
	movq	%rdx, (%rax)
	call	rand@PLT
	movl	%eax, -156(%rbp)
	movl	$24, %edi
	call	malloc@PLT
	movq	%rax, -128(%rbp)
	movl	-156(%rbp), %eax
	leal	(%rax,%rax), %edx
	movq	-128(%rbp), %rax
	movl	%edx, 8(%rax)
	movq	_TIG_iO_j712_1_searchBook_1_opaque_list_1(%rip), %rax
	movq	(%rax), %rdx
	movq	-128(%rbp), %rax
	movq	%rdx, (%rax)
	movq	_TIG_iO_j712_1_searchBook_1_opaque_list_1(%rip), %rdx
	movq	-128(%rbp), %rax
	movq	%rdx, 16(%rax)
	movq	_TIG_iO_j712_1_searchBook_1_opaque_list_1(%rip), %rax
	movq	(%rax), %rax
	movq	-128(%rbp), %rdx
	movq	%rdx, 16(%rax)
	movq	_TIG_iO_j712_1_searchBook_1_opaque_list_1(%rip), %rax
	movq	-128(%rbp), %rdx
	movq	%rdx, (%rax)
	movq	_TIG_iO_j712_1_searchBook_1_opaque_list_1(%rip), %rax
	movq	(%rax), %rax
	movq	%rax, _TIG_iO_j712_1_searchBook_1_opaque_ptr_1(%rip)
	movq	_TIG_iO_j712_1_searchBook_1_opaque_ptr_1(%rip), %rax
	movq	%rax, _TIG_iO_j712_1_searchBook_1_opaque_ptr_2(%rip)
	movq	_TIG_iO_j712_1_searchBook_1_opaque_ptr_2(%rip), %rax
	movq	(%rax), %rax
	movq	%rax, _TIG_iO_j712_1_searchBook_1_opaque_ptr_2(%rip)
	nop
	nop
	leaq	-112(%rbp), %rax
	movq	%rax, %rsi
	leaq	.LC3(%rip), %rax
	movq	%rax, %rdi
	movl	$0, %eax
	call	__isoc99_scanf@PLT
	movl	$0, -172(%rbp)
	movl	$0, -168(%rbp)
	jmp	.L22
.L25:
	movq	-184(%rbp), %rax
	movq	(%rax), %rdx
	movl	-168(%rbp), %eax
	cltq
	imulq	$204, %rax, %rax
	addq	%rdx, %rax
	movq	%rax, %rdx
	leaq	-112(%rbp), %rax
	movq	%rax, %rsi
	movq	%rdx, %rdi
	call	strstr@PLT
	movq	%rax, -120(%rbp)
	cmpq	$0, -120(%rbp)
	je	.L23
	cmpl	$0, -172(%rbp)
	jne	.L24
	leaq	.LC4(%rip), %rax
	movq	%rax, %rdi
	call	puts@PLT
	movl	$1, -172(%rbp)
.L24:
	movq	-184(%rbp), %rax
	movq	(%rax), %rdx
	movl	-168(%rbp), %eax
	cltq
	imulq	$204, %rax, %rax
	addq	%rdx, %rax
	movl	200(%rax), %eax
	movq	-184(%rbp), %rdx
	movq	(%rdx), %rcx
	movl	-168(%rbp), %edx
	movslq	%edx, %rdx
	imulq	$204, %rdx, %rdx
	addq	%rcx, %rdx
	addq	$100, %rdx
	movq	-184(%rbp), %rcx
	movq	(%rcx), %rsi
	movl	-168(%rbp), %ecx
	movslq	%ecx, %rcx
	imulq	$204, %rcx, %rcx
	addq	%rsi, %rcx
	movq	%rcx, %rsi
	movl	%eax, %ecx
	leaq	.LC5(%rip), %rax
	movq	%rax, %rdi
	movl	$0, %eax
	call	printf@PLT
.L23:
	addl	$1, -168(%rbp)
.L22:
	movq	-184(%rbp), %rax
	movl	8(%rax), %eax
	cmpl	%eax, -168(%rbp)
	jl	.L25
	cmpl	$0, -172(%rbp)
	jne	.L26
	leaq	.LC6(%rip), %rax
	movq	%rax, %rdi
	call	puts@PLT
.L26:
	movq	_TIG_iO_j712_1_searchBook_1_opaque_ptr_1(%rip), %rdx
	movq	_TIG_iO_j712_1_searchBook_1_opaque_ptr_2(%rip), %rax
	cmpq	%rax, %rdx
	nop
	movq	-8(%rbp), %rax
	subq	%fs:40, %rax
	je	.L30
	call	__stack_chk_fail@PLT
.L30:
	leave
	.cfi_def_cfa 7, 8
	ret
	.cfi_endproc
.LFE1:
	.size	searchBook, .-searchBook
	.section	.rodata
.LC7:
	.string	"No books in the library."
.LC8:
	.string	"Books in library:"
	.text
	.globl	displayBooks
	.type	displayBooks, @function
displayBooks:
.LFB6:
	.cfi_startproc
	endbr64
	pushq	%rbp
	.cfi_def_cfa_offset 16
	.cfi_offset 6, -16
	movq	%rsp, %rbp
	.cfi_def_cfa_register 6
	subq	$64, %rsp
	movq	%rdi, -56(%rbp)
#APP
# 54 "/usr/include/x86_64-linux-gnu/bits/byteswap.h" 1
	##_ANNOTATION_INITIALREGION_-TIG-iO-j712-1-displayBooks--16
# 0 "" 2
# 58 "/usr/include/x86_64-linux-gnu/bits/byteswap.h" 1
	##_ANNOTATION_ATOMICREGION_-TIG-iO-j712-1-displayBooks--15
# 0 "" 2
#NO_APP
	movl	$24, %edi
	call	malloc@PLT
	movq	%rax, -24(%rbp)
	movq	-24(%rbp), %rax
	movq	-24(%rbp), %rdx
	movq	%rdx, 16(%rax)
	movq	-24(%rbp), %rax
	movq	-24(%rbp), %rdx
	movq	%rdx, 8(%rax)
	movq	-24(%rbp), %rax
	movq	%rax, _TIG_iO_j712_1_displayBooks_1_opaque_list_1(%rip)
	call	rand@PLT
	movl	%eax, -32(%rbp)
	movl	$24, %edi
	call	malloc@PLT
	movq	%rax, -16(%rbp)
	movq	-16(%rbp), %rax
	movl	$0, (%rax)
	movq	_TIG_iO_j712_1_displayBooks_1_opaque_list_1(%rip), %rax
	movq	16(%rax), %rdx
	movq	-16(%rbp), %rax
	movq	%rdx, 16(%rax)
	movq	_TIG_iO_j712_1_displayBooks_1_opaque_list_1(%rip), %rdx
	movq	-16(%rbp), %rax
	movq	%rdx, 8(%rax)
	movq	_TIG_iO_j712_1_displayBooks_1_opaque_list_1(%rip), %rax
	movq	16(%rax), %rax
	movq	-16(%rbp), %rdx
	movq	%rdx, 8(%rax)
	movq	_TIG_iO_j712_1_displayBooks_1_opaque_list_1(%rip), %rax
	movq	-16(%rbp), %rdx
	movq	%rdx, 16(%rax)
	call	rand@PLT
	movl	%eax, -28(%rbp)
	movl	$24, %edi
	call	malloc@PLT
	movq	%rax, -8(%rbp)
	movq	-8(%rbp), %rax
	movl	-28(%rbp), %edx
	movl	%edx, (%rax)
	movq	_TIG_iO_j712_1_displayBooks_1_opaque_list_1(%rip), %rax
	movq	16(%rax), %rdx
	movq	-8(%rbp), %rax
	movq	%rdx, 16(%rax)
	movq	_TIG_iO_j712_1_displayBooks_1_opaque_list_1(%rip), %rdx
	movq	-8(%rbp), %rax
	movq	%rdx, 8(%rax)
	movq	_TIG_iO_j712_1_displayBooks_1_opaque_list_1(%rip), %rax
	movq	16(%rax), %rax
	movq	-8(%rbp), %rdx
	movq	%rdx, 8(%rax)
	movq	_TIG_iO_j712_1_displayBooks_1_opaque_list_1(%rip), %rax
	movq	-8(%rbp), %rdx
	movq	%rdx, 16(%rax)
	movq	_TIG_iO_j712_1_displayBooks_1_opaque_list_1(%rip), %rax
	movq	16(%rax), %rax
	movq	%rax, _TIG_iO_j712_1_displayBooks_1_opaque_ptr_1(%rip)
	movq	_TIG_iO_j712_1_displayBooks_1_opaque_ptr_1(%rip), %rax
	movq	%rax, _TIG_iO_j712_1_displayBooks_1_opaque_ptr_2(%rip)
	nop
	nop
	movq	-56(%rbp), %rax
	movl	8(%rax), %eax
	testl	%eax, %eax
	jne	.L32
	leaq	.LC7(%rip), %rax
	movq	%rax, %rdi
	call	puts@PLT
	movq	_TIG_iO_j712_1_searchBook_1_opaque_ptr_1(%rip), %rdx
	movq	_TIG_iO_j712_1_searchBook_1_opaque_ptr_2(%rip), %rax
	cmpq	%rax, %rdx
	jne	.L37
#APP
# 116 "Melearner777_Guvi-Ds-with-C_4.c" 1
	.byte 0xb1,0x30,0x0,0x0,0x48,0x8d
# 0 "" 2
#NO_APP
.L32:
	leaq	.LC8(%rip), %rax
	movq	%rax, %rdi
	call	puts@PLT
	movl	$0, -36(%rbp)
	jmp	.L35
.L36:
	movq	-56(%rbp), %rax
	movq	(%rax), %rdx
	movl	-36(%rbp), %eax
	cltq
	imulq	$204, %rax, %rax
	addq	%rdx, %rax
	movl	200(%rax), %eax
	movq	-56(%rbp), %rdx
	movq	(%rdx), %rcx
	movl	-36(%rbp), %edx
	movslq	%edx, %rdx
	imulq	$204, %rdx, %rdx
	addq	%rcx, %rdx
	addq	$100, %rdx
	movq	-56(%rbp), %rcx
	movq	(%rcx), %rsi
	movl	-36(%rbp), %ecx
	movslq	%ecx, %rcx
	imulq	$204, %rcx, %rcx
	addq	%rsi, %rcx
	movq	%rcx, %rsi
	movl	%eax, %ecx
	leaq	.LC5(%rip), %rax
	movq	%rax, %rdi
	movl	$0, %eax
	call	printf@PLT
	addl	$1, -36(%rbp)
.L35:
	movq	-56(%rbp), %rax
	movl	8(%rax), %eax
	cmpl	%eax, -36(%rbp)
	jl	.L36
	jmp	.L31
.L37:
	nop
.L31:
	leave
	.cfi_def_cfa 7, 8
	ret
	.cfi_endproc
.LFE6:
	.size	displayBooks, .-displayBooks
	.section	.rodata
.LC9:
	.string	"Memory allocation failed."
.LC10:
	.string	"Book added successfully."
	.text
	.globl	addBook
	.type	addBook, @function
addBook:
.LFB8:
	.cfi_startproc
	endbr64
	pushq	%rbp
	.cfi_def_cfa_offset 16
	.cfi_offset 6, -16
	movq	%rsp, %rbp
	.cfi_def_cfa_register 6
	pushq	%rbx
	subq	$344, %rsp
	.cfi_offset 3, -24
	movq	%rdi, -344(%rbp)
	movq	%fs:40, %rax
	movq	%rax, -24(%rbp)
	xorl	%eax, %eax
#APP
# 71 "/usr/include/x86_64-linux-gnu/bits/uintn-identity.h" 1
	##_ANNOTATION_INITIALREGION_-TIG-iO-j712-1-addBook--14
# 0 "" 2
# 75 "/usr/include/x86_64-linux-gnu/bits/uintn-identity.h" 1
	##_ANNOTATION_ATOMICREGION_-TIG-iO-j712-1-addBook--13
# 0 "" 2
#NO_APP
	movl	$24, %edi
	call	malloc@PLT
	movq	%rax, -296(%rbp)
	movq	-296(%rbp), %rax
	movq	-296(%rbp), %rdx
	movq	%rdx, (%rax)
	movq	-296(%rbp), %rax
	movq	-296(%rbp), %rdx
	movq	%rdx, 8(%rax)
	movq	-296(%rbp), %rax
	movq	%rax, _TIG_iO_j712_1_addBook_1_opaque_list_1(%rip)
	call	rand@PLT
	movl	%eax, -320(%rbp)
	movl	$24, %edi
	call	malloc@PLT
	movq	%rax, -288(%rbp)
	movq	-288(%rbp), %rax
	movl	$0, 16(%rax)
	movq	_TIG_iO_j712_1_addBook_1_opaque_list_1(%rip), %rax
	movq	(%rax), %rdx
	movq	-288(%rbp), %rax
	movq	%rdx, (%rax)
	movq	_TIG_iO_j712_1_addBook_1_opaque_list_1(%rip), %rdx
	movq	-288(%rbp), %rax
	movq	%rdx, 8(%rax)
	movq	_TIG_iO_j712_1_addBook_1_opaque_list_1(%rip), %rax
	movq	(%rax), %rax
	movq	-288(%rbp), %rdx
	movq	%rdx, 8(%rax)
	movq	_TIG_iO_j712_1_addBook_1_opaque_list_1(%rip), %rax
	movq	-288(%rbp), %rdx
	movq	%rdx, (%rax)
	call	rand@PLT
	movl	%eax, -316(%rbp)
	movl	$24, %edi
	call	malloc@PLT
	movq	%rax, -280(%rbp)
	movq	-280(%rbp), %rax
	movl	-316(%rbp), %edx
	movl	%edx, 16(%rax)
	movq	_TIG_iO_j712_1_addBook_1_opaque_list_1(%rip), %rax
	movq	(%rax), %rdx
	movq	-280(%rbp), %rax
	movq	%rdx, (%rax)
	movq	_TIG_iO_j712_1_addBook_1_opaque_list_1(%rip), %rdx
	movq	-280(%rbp), %rax
	movq	%rdx, 8(%rax)
	movq	_TIG_iO_j712_1_addBook_1_opaque_list_1(%rip), %rax
	movq	(%rax), %rax
	movq	-280(%rbp), %rdx
	movq	%rdx, 8(%rax)
	movq	_TIG_iO_j712_1_addBook_1_opaque_list_1(%rip), %rax
	movq	-280(%rbp), %rdx
	movq	%rdx, (%rax)
	call	rand@PLT
	movl	%eax, -312(%rbp)
	movl	$24, %edi
	call	malloc@PLT
	movq	%rax, -272(%rbp)
	movl	-312(%rbp), %eax
	leal	(%rax,%rax), %edx
	movq	-272(%rbp), %rax
	movl	%edx, 16(%rax)
	movq	_TIG_iO_j712_1_addBook_1_opaque_list_1(%rip), %rax
	movq	(%rax), %rdx
	movq	-272(%rbp), %rax
	movq	%rdx, (%rax)
	movq	_TIG_iO_j712_1_addBook_1_opaque_list_1(%rip), %rdx
	movq	-272(%rbp), %rax
	movq	%rdx, 8(%rax)
	movq	_TIG_iO_j712_1_addBook_1_opaque_list_1(%rip), %rax
	movq	(%rax), %rax
	movq	-272(%rbp), %rdx
	movq	%rdx, 8(%rax)
	movq	_TIG_iO_j712_1_addBook_1_opaque_list_1(%rip), %rax
	movq	-272(%rbp), %rdx
	movq	%rdx, (%rax)
	call	rand@PLT
	movl	%eax, -308(%rbp)
	movl	$24, %edi
	call	malloc@PLT
	movq	%rax, -264(%rbp)
	movl	-308(%rbp), %edx
	movl	%edx, %eax
	addl	%eax, %eax
	addl	%eax, %edx
	movq	-264(%rbp), %rax
	movl	%edx, 16(%rax)
	movq	_TIG_iO_j712_1_addBook_1_opaque_list_1(%rip), %rax
	movq	(%rax), %rdx
	movq	-264(%rbp), %rax
	movq	%rdx, (%rax)
	movq	_TIG_iO_j712_1_addBook_1_opaque_list_1(%rip), %rdx
	movq	-264(%rbp), %rax
	movq	%rdx, 8(%rax)
	movq	_TIG_iO_j712_1_addBook_1_opaque_list_1(%rip), %rax
	movq	(%rax), %rax
	movq	-264(%rbp), %rdx
	movq	%rdx, 8(%rax)
	movq	_TIG_iO_j712_1_addBook_1_opaque_list_1(%rip), %rax
	movq	-264(%rbp), %rdx
	movq	%rdx, (%rax)
	movq	_TIG_iO_j712_1_addBook_1_opaque_list_1(%rip), %rax
	movq	(%rax), %rax
	movq	%rax, _TIG_iO_j712_1_addBook_1_opaque_ptr_1(%rip)
	movq	_TIG_iO_j712_1_addBook_1_opaque_ptr_1(%rip), %rax
	movq	%rax, _TIG_iO_j712_1_addBook_1_opaque_ptr_2(%rip)
	movq	_TIG_iO_j712_1_addBook_1_opaque_ptr_2(%rip), %rax
	movq	(%rax), %rax
	movq	%rax, _TIG_iO_j712_1_addBook_1_opaque_ptr_2(%rip)
	nop
	nop
	movq	-344(%rbp), %rax
	movl	8(%rax), %edx
	movq	-344(%rbp), %rax
	movl	12(%rax), %eax
	cmpl	%eax, %edx
	jne	.L39
	movq	-344(%rbp), %rax
	movl	12(%rax), %eax
	testl	%eax, %eax
	jne	.L40
	movl	$1, -324(%rbp)
	jmp	.L41
.L40:
	movq	_TIG_iO_j712_1_searchBook_1_opaque_ptr_1(%rip), %rdx
	movq	_TIG_iO_j712_1_searchBook_1_opaque_ptr_2(%rip), %rax
	cmpq	%rax, %rdx
	je	.L41
	movq	-344(%rbp), %rax
	movl	12(%rax), %eax
	addl	%eax, %eax
	movl	%eax, -324(%rbp)
.L41:
	movl	-324(%rbp), %eax
	movl	%eax, -304(%rbp)
	movl	-304(%rbp), %eax
	cltq
	imulq	$204, %rax, %rdx
	movq	-344(%rbp), %rax
	movq	(%rax), %rax
	movq	%rdx, %rsi
	movq	%rax, %rdi
	call	realloc@PLT
	movq	%rax, -256(%rbp)
	movq	-256(%rbp), %rax
	movq	%rax, -248(%rbp)
	cmpq	$0, -248(%rbp)
	jne	.L42
	leaq	.LC9(%rip), %rax
	movq	%rax, %rdi
	call	puts@PLT
	jmp	.L38
.L42:
	movq	-344(%rbp), %rax
	movq	-248(%rbp), %rdx
	movq	%rdx, (%rax)
	movq	-344(%rbp), %rax
	movl	-304(%rbp), %edx
	movl	%edx, 12(%rax)
.L39:
	leaq	-240(%rbp), %rax
	movq	%rax, %rsi
	leaq	.LC3(%rip), %rax
	movq	%rax, %rdi
	movl	$0, %eax
	call	__isoc99_scanf@PLT
	leaq	-240(%rbp), %rax
	addq	$100, %rax
	movq	%rax, %rsi
	leaq	.LC3(%rip), %rax
	movq	%rax, %rdi
	movl	$0, %eax
	call	__isoc99_scanf@PLT
	leaq	-240(%rbp), %rax
	addq	$200, %rax
	movq	%rax, %rsi
	leaq	.LC0(%rip), %rax
	movq	%rax, %rdi
	movl	$0, %eax
	call	__isoc99_scanf@PLT
	movq	-344(%rbp), %rax
	movl	8(%rax), %eax
	movl	%eax, -300(%rbp)
	movq	-344(%rbp), %rax
	movl	8(%rax), %eax
	leal	1(%rax), %edx
	movq	-344(%rbp), %rax
	movl	%edx, 8(%rax)
	movq	-344(%rbp), %rax
	movq	(%rax), %rdx
	movl	-300(%rbp), %eax
	cltq
	imulq	$204, %rax, %rax
	addq	%rdx, %rax
	movq	-240(%rbp), %rcx
	movq	-232(%rbp), %rbx
	movq	%rcx, (%rax)
	movq	%rbx, 8(%rax)
	movq	-224(%rbp), %rcx
	movq	-216(%rbp), %rbx
	movq	%rcx, 16(%rax)
	movq	%rbx, 24(%rax)
	movq	-208(%rbp), %rcx
	movq	-200(%rbp), %rbx
	movq	%rcx, 32(%rax)
	movq	%rbx, 40(%rax)
	movq	-192(%rbp), %rcx
	movq	-184(%rbp), %rbx
	movq	%rcx, 48(%rax)
	movq	%rbx, 56(%rax)
	movq	-176(%rbp), %rcx
	movq	-168(%rbp), %rbx
	movq	%rcx, 64(%rax)
	movq	%rbx, 72(%rax)
	movq	-160(%rbp), %rcx
	movq	-152(%rbp), %rbx
	movq	%rcx, 80(%rax)
	movq	%rbx, 88(%rax)
	movq	-144(%rbp), %rcx
	movq	-136(%rbp), %rbx
	movq	%rcx, 96(%rax)
	movq	%rbx, 104(%rax)
	movq	-128(%rbp), %rcx
	movq	-120(%rbp), %rbx
	movq	%rcx, 112(%rax)
	movq	%rbx, 120(%rax)
	movq	-112(%rbp), %rcx
	movq	-104(%rbp), %rbx
	movq	%rcx, 128(%rax)
	movq	%rbx, 136(%rax)
	movq	-96(%rbp), %rcx
	movq	-88(%rbp), %rbx
	movq	%rcx, 144(%rax)
	movq	%rbx, 152(%rax)
	movq	-80(%rbp), %rcx
	movq	-72(%rbp), %rbx
	movq	%rcx, 160(%rax)
	movq	%rbx, 168(%rax)
	movq	-64(%rbp), %rcx
	movq	-56(%rbp), %rbx
	movq	%rcx, 176(%rax)
	movq	%rbx, 184(%rax)
	movq	-48(%rbp), %rdx
	movq	%rdx, 192(%rax)
	movl	-40(%rbp), %edx
	movl	%edx, 200(%rax)
	leaq	.LC10(%rip), %rax
	movq	%rax, %rdi
	call	puts@PLT
	nop
.L38:
	movq	-24(%rbp), %rax
	subq	%fs:40, %rax
	je	.L45
	call	__stack_chk_fail@PLT
.L45:
	movq	-8(%rbp), %rbx
	leave
	.cfi_def_cfa 7, 8
	ret
	.cfi_endproc
.LFE8:
	.size	addBook, .-addBook
	.globl	initLibrary
	.type	initLibrary, @function
initLibrary:
.LFB10:
	.cfi_startproc
	endbr64
	pushq	%rbp
	.cfi_def_cfa_offset 16
	.cfi_offset 6, -16
	movq	%rsp, %rbp
	.cfi_def_cfa_register 6
	subq	$48, %rsp
	movq	%rdi, -40(%rbp)
#APP
# 65 "/usr/include/x86_64-linux-gnu/bits/uintn-identity.h" 1
	##_ANNOTATION_INITIALREGION_-TIG-iO-j712-1-initLibrary--18
# 0 "" 2
# 69 "/usr/include/x86_64-linux-gnu/bits/uintn-identity.h" 1
	##_ANNOTATION_ATOMICREGION_-TIG-iO-j712-1-initLibrary--17
# 0 "" 2
#NO_APP
	movl	$24, %edi
	call	malloc@PLT
	movq	%rax, -24(%rbp)
	movq	-24(%rbp), %rax
	movq	-24(%rbp), %rdx
	movq	%rdx, 8(%rax)
	movq	-24(%rbp), %rax
	movq	-24(%rbp), %rdx
	movq	%rdx, (%rax)
	movq	-24(%rbp), %rax
	movq	%rax, _TIG_iO_j712_1_initLibrary_1_opaque_list_1(%rip)
	call	rand@PLT
	movl	%eax, -32(%rbp)
	movl	$24, %edi
	call	malloc@PLT
	movq	%rax, -16(%rbp)
	movq	-16(%rbp), %rax
	movl	$0, 16(%rax)
	movq	_TIG_iO_j712_1_initLibrary_1_opaque_list_1(%rip), %rax
	movq	8(%rax), %rdx
	movq	-16(%rbp), %rax
	movq	%rdx, 8(%rax)
	movq	_TIG_iO_j712_1_initLibrary_1_opaque_list_1(%rip), %rdx
	movq	-16(%rbp), %rax
	movq	%rdx, (%rax)
	movq	_TIG_iO_j712_1_initLibrary_1_opaque_list_1(%rip), %rax
	movq	8(%rax), %rax
	movq	-16(%rbp), %rdx
	movq	%rdx, (%rax)
	movq	_TIG_iO_j712_1_initLibrary_1_opaque_list_1(%rip), %rax
	movq	-16(%rbp), %rdx
	movq	%rdx, 8(%rax)
	call	rand@PLT
	movl	%eax, -28(%rbp)
	movl	$24, %edi
	call	malloc@PLT
	movq	%rax, -8(%rbp)
	movq	-8(%rbp), %rax
	movl	-28(%rbp), %edx
	movl	%edx, 16(%rax)
	movq	_TIG_iO_j712_1_initLibrary_1_opaque_list_1(%rip), %rax
	movq	8(%rax), %rdx
	movq	-8(%rbp), %rax
	movq	%rdx, 8(%rax)
	movq	_TIG_iO_j712_1_initLibrary_1_opaque_list_1(%rip), %rdx
	movq	-8(%rbp), %rax
	movq	%rdx, (%rax)
	movq	_TIG_iO_j712_1_initLibrary_1_opaque_list_1(%rip), %rax
	movq	8(%rax), %rax
	movq	-8(%rbp), %rdx
	movq	%rdx, (%rax)
	movq	_TIG_iO_j712_1_initLibrary_1_opaque_list_1(%rip), %rax
	movq	-8(%rbp), %rdx
	movq	%rdx, 8(%rax)
	movq	_TIG_iO_j712_1_initLibrary_1_opaque_list_1(%rip), %rax
	movq	8(%rax), %rax
	movq	%rax, _TIG_iO_j712_1_initLibrary_1_opaque_ptr_1(%rip)
	movq	_TIG_iO_j712_1_initLibrary_1_opaque_ptr_1(%rip), %rax
	movq	%rax, _TIG_iO_j712_1_initLibrary_1_opaque_ptr_2(%rip)
	movq	_TIG_iO_j712_1_initLibrary_1_opaque_ptr_2(%rip), %rax
	movq	8(%rax), %rax
	movq	%rax, _TIG_iO_j712_1_initLibrary_1_opaque_ptr_2(%rip)
	nop
	nop
	movq	-40(%rbp), %rax
	movq	$0, (%rax)
	movq	-40(%rbp), %rax
	movl	$0, 8(%rax)
	movq	-40(%rbp), %rax
	movl	$0, 12(%rax)
	movq	_TIG_iO_j712_1_searchBook_1_opaque_ptr_1(%rip), %rdx
	movq	_TIG_iO_j712_1_searchBook_1_opaque_ptr_2(%rip), %rax
	cmpq	%rax, %rdx
	jne	.L49
	movq	-40(%rbp), %rax
	movq	%rax, %rdi
	call	initLibrary
	nop
.L49:
	nop
	leave
	.cfi_def_cfa 7, 8
	ret
	.cfi_endproc
.LFE10:
	.size	initLibrary, .-initLibrary
	.ident	"GCC: (Ubuntu 11.4.0-1ubuntu1~22.04) 11.4.0"
	.section	.note.GNU-stack,"",@progbits
	.section	.note.gnu.property,"a"
	.align 8
	.long	1f - 0f
	.long	4f - 1f
	.long	5
0:
	.string	"GNU"
1:
	.align 8
	.long	0xc0000002
	.long	3f - 2f
2:
	.long	0x3
3:
	.align 8
4:
