	.file	"Nitish481_VVI_4_opaque.c"
	.text
	.globl	_TIG_iO_vumR_1___bswap_64_1_opaque_ptr_2
	.bss
	.align 8
	.type	_TIG_iO_vumR_1___bswap_64_1_opaque_ptr_2, @object
	.size	_TIG_iO_vumR_1___bswap_64_1_opaque_ptr_2, 8
_TIG_iO_vumR_1___bswap_64_1_opaque_ptr_2:
	.zero	8
	.globl	_TIG_iO_vumR_1___bswap_64_1_opaque_ptr_1
	.align 8
	.type	_TIG_iO_vumR_1___bswap_64_1_opaque_ptr_1, @object
	.size	_TIG_iO_vumR_1___bswap_64_1_opaque_ptr_1, 8
_TIG_iO_vumR_1___bswap_64_1_opaque_ptr_1:
	.zero	8
	.globl	_TIG_iO_vumR_1_postorder_1_opaque_list_1
	.align 8
	.type	_TIG_iO_vumR_1_postorder_1_opaque_list_1, @object
	.size	_TIG_iO_vumR_1_postorder_1_opaque_list_1, 8
_TIG_iO_vumR_1_postorder_1_opaque_list_1:
	.zero	8
	.globl	_TIG_iO_vumR_1___bswap_64_1_opaque_list_1
	.align 8
	.type	_TIG_iO_vumR_1___bswap_64_1_opaque_list_1, @object
	.size	_TIG_iO_vumR_1___bswap_64_1_opaque_list_1, 8
_TIG_iO_vumR_1___bswap_64_1_opaque_list_1:
	.zero	8
	.globl	_TIG_iO_vumR_1_postorder_1_opaque_ptr_2
	.align 8
	.type	_TIG_iO_vumR_1_postorder_1_opaque_ptr_2, @object
	.size	_TIG_iO_vumR_1_postorder_1_opaque_ptr_2, 8
_TIG_iO_vumR_1_postorder_1_opaque_ptr_2:
	.zero	8
	.globl	_TIG_iO_vumR_1_create_tree_1_opaque_ptr_2
	.align 8
	.type	_TIG_iO_vumR_1_create_tree_1_opaque_ptr_2, @object
	.size	_TIG_iO_vumR_1_create_tree_1_opaque_ptr_2, 8
_TIG_iO_vumR_1_create_tree_1_opaque_ptr_2:
	.zero	8
	.globl	_TIG_iO_vumR_1_insertiterative_1_opaque_list_1
	.align 8
	.type	_TIG_iO_vumR_1_insertiterative_1_opaque_list_1, @object
	.size	_TIG_iO_vumR_1_insertiterative_1_opaque_list_1, 8
_TIG_iO_vumR_1_insertiterative_1_opaque_list_1:
	.zero	8
	.globl	_TIG_iO_vumR_1___bswap_32_1_opaque_ptr_1
	.align 8
	.type	_TIG_iO_vumR_1___bswap_32_1_opaque_ptr_1, @object
	.size	_TIG_iO_vumR_1___bswap_32_1_opaque_ptr_1, 8
_TIG_iO_vumR_1___bswap_32_1_opaque_ptr_1:
	.zero	8
	.globl	_TIG_iO_vumR_1_searchiterative_1_opaque_list_1
	.align 8
	.type	_TIG_iO_vumR_1_searchiterative_1_opaque_list_1, @object
	.size	_TIG_iO_vumR_1_searchiterative_1_opaque_list_1, 8
_TIG_iO_vumR_1_searchiterative_1_opaque_list_1:
	.zero	8
	.globl	_TIG_iO_vumR_1_inorder_1_opaque_list_1
	.align 8
	.type	_TIG_iO_vumR_1_inorder_1_opaque_list_1, @object
	.size	_TIG_iO_vumR_1_inorder_1_opaque_list_1, 8
_TIG_iO_vumR_1_inorder_1_opaque_list_1:
	.zero	8
	.globl	_TIG_iO_vumR_1_main_1_opaque_ptr_2
	.align 8
	.type	_TIG_iO_vumR_1_main_1_opaque_ptr_2, @object
	.size	_TIG_iO_vumR_1_main_1_opaque_ptr_2, 8
_TIG_iO_vumR_1_main_1_opaque_ptr_2:
	.zero	8
	.globl	_TIG_iO_vumR_1___uint16_identity_1_opaque_list_2
	.align 8
	.type	_TIG_iO_vumR_1___uint16_identity_1_opaque_list_2, @object
	.size	_TIG_iO_vumR_1___uint16_identity_1_opaque_list_2, 8
_TIG_iO_vumR_1___uint16_identity_1_opaque_list_2:
	.zero	8
	.globl	_TIG_iO_vumR_1___bswap_16_1_opaque_list_1
	.align 8
	.type	_TIG_iO_vumR_1___bswap_16_1_opaque_list_1, @object
	.size	_TIG_iO_vumR_1___bswap_16_1_opaque_list_1, 8
_TIG_iO_vumR_1___bswap_16_1_opaque_list_1:
	.zero	8
	.globl	_TIG_iO_vumR_1_deletenode_1_opaque_ptr_1
	.align 8
	.type	_TIG_iO_vumR_1_deletenode_1_opaque_ptr_1, @object
	.size	_TIG_iO_vumR_1_deletenode_1_opaque_ptr_1, 8
_TIG_iO_vumR_1_deletenode_1_opaque_ptr_1:
	.zero	8
	.globl	_TIG_iO_vumR_1___uint16_identity_1_opaque_ptr_1
	.align 8
	.type	_TIG_iO_vumR_1___uint16_identity_1_opaque_ptr_1, @object
	.size	_TIG_iO_vumR_1___uint16_identity_1_opaque_ptr_1, 8
_TIG_iO_vumR_1___uint16_identity_1_opaque_ptr_1:
	.zero	8
	.globl	_TIG_iO_vumR_1___uint64_identity_1_opaque_list_1
	.align 8
	.type	_TIG_iO_vumR_1___uint64_identity_1_opaque_list_1, @object
	.size	_TIG_iO_vumR_1___uint64_identity_1_opaque_list_1, 8
_TIG_iO_vumR_1___uint64_identity_1_opaque_list_1:
	.zero	8
	.globl	_TIG_iO_vumR_1_small_1_opaque_list_1
	.align 8
	.type	_TIG_iO_vumR_1_small_1_opaque_list_1, @object
	.size	_TIG_iO_vumR_1_small_1_opaque_list_1, 8
_TIG_iO_vumR_1_small_1_opaque_list_1:
	.zero	8
	.globl	_TIG_iO_vumR_1_main_1_opaque_ptr_1
	.align 8
	.type	_TIG_iO_vumR_1_main_1_opaque_ptr_1, @object
	.size	_TIG_iO_vumR_1_main_1_opaque_ptr_1, 8
_TIG_iO_vumR_1_main_1_opaque_ptr_1:
	.zero	8
	.globl	_TIG_iO_vumR_1_insertiterative_1_opaque_ptr_1
	.align 8
	.type	_TIG_iO_vumR_1_insertiterative_1_opaque_ptr_1, @object
	.size	_TIG_iO_vumR_1_insertiterative_1_opaque_ptr_1, 8
_TIG_iO_vumR_1_insertiterative_1_opaque_ptr_1:
	.zero	8
	.globl	_TIG_iO_vumR_1_postorder_1_opaque_list_2
	.align 8
	.type	_TIG_iO_vumR_1_postorder_1_opaque_list_2, @object
	.size	_TIG_iO_vumR_1_postorder_1_opaque_list_2, 8
_TIG_iO_vumR_1_postorder_1_opaque_list_2:
	.zero	8
	.globl	_TIG_iO_vumR_1___bswap_16_1_opaque_ptr_2
	.align 8
	.type	_TIG_iO_vumR_1___bswap_16_1_opaque_ptr_2, @object
	.size	_TIG_iO_vumR_1___bswap_16_1_opaque_ptr_2, 8
_TIG_iO_vumR_1___bswap_16_1_opaque_ptr_2:
	.zero	8
	.globl	_TIG_IZ_vumR_envp
	.align 8
	.type	_TIG_IZ_vumR_envp, @object
	.size	_TIG_IZ_vumR_envp, 8
_TIG_IZ_vumR_envp:
	.zero	8
	.globl	_TIG_iO_vumR_1_deletenode_1_opaque_list_1
	.align 8
	.type	_TIG_iO_vumR_1_deletenode_1_opaque_list_1, @object
	.size	_TIG_iO_vumR_1_deletenode_1_opaque_list_1, 8
_TIG_iO_vumR_1_deletenode_1_opaque_list_1:
	.zero	8
	.globl	_TIG_iO_vumR_1_searchiterative_1_opaque_ptr_1
	.align 8
	.type	_TIG_iO_vumR_1_searchiterative_1_opaque_ptr_1, @object
	.size	_TIG_iO_vumR_1_searchiterative_1_opaque_ptr_1, 8
_TIG_iO_vumR_1_searchiterative_1_opaque_ptr_1:
	.zero	8
	.globl	_TIG_iO_vumR_1_small_1_opaque_ptr_1
	.align 8
	.type	_TIG_iO_vumR_1_small_1_opaque_ptr_1, @object
	.size	_TIG_iO_vumR_1_small_1_opaque_ptr_1, 8
_TIG_iO_vumR_1_small_1_opaque_ptr_1:
	.zero	8
	.globl	_TIG_iO_vumR_1_create_1_opaque_ptr_1
	.align 8
	.type	_TIG_iO_vumR_1_create_1_opaque_ptr_1, @object
	.size	_TIG_iO_vumR_1_create_1_opaque_ptr_1, 8
_TIG_iO_vumR_1_create_1_opaque_ptr_1:
	.zero	8
	.globl	_TIG_iO_vumR_1___bswap_64_1_opaque_list_2
	.align 8
	.type	_TIG_iO_vumR_1___bswap_64_1_opaque_list_2, @object
	.size	_TIG_iO_vumR_1___bswap_64_1_opaque_list_2, 8
_TIG_iO_vumR_1___bswap_64_1_opaque_list_2:
	.zero	8
	.globl	_TIG_iO_vumR_1_preorder_1_opaque_ptr_1
	.align 8
	.type	_TIG_iO_vumR_1_preorder_1_opaque_ptr_1, @object
	.size	_TIG_iO_vumR_1_preorder_1_opaque_ptr_1, 8
_TIG_iO_vumR_1_preorder_1_opaque_ptr_1:
	.zero	8
	.globl	_TIG_iO_vumR_1_inorder_1_opaque_ptr_2
	.align 8
	.type	_TIG_iO_vumR_1_inorder_1_opaque_ptr_2, @object
	.size	_TIG_iO_vumR_1_inorder_1_opaque_ptr_2, 8
_TIG_iO_vumR_1_inorder_1_opaque_ptr_2:
	.zero	8
	.globl	_TIG_iO_vumR_1_main_1_opaque_list_1
	.align 8
	.type	_TIG_iO_vumR_1_main_1_opaque_list_1, @object
	.size	_TIG_iO_vumR_1_main_1_opaque_list_1, 8
_TIG_iO_vumR_1_main_1_opaque_list_1:
	.zero	8
	.globl	_TIG_iO_vumR_1_inorder_1_opaque_ptr_1
	.align 8
	.type	_TIG_iO_vumR_1_inorder_1_opaque_ptr_1, @object
	.size	_TIG_iO_vumR_1_inorder_1_opaque_ptr_1, 8
_TIG_iO_vumR_1_inorder_1_opaque_ptr_1:
	.zero	8
	.globl	_TIG_iO_vumR_1___uint16_identity_1_opaque_list_1
	.align 8
	.type	_TIG_iO_vumR_1___uint16_identity_1_opaque_list_1, @object
	.size	_TIG_iO_vumR_1___uint16_identity_1_opaque_list_1, 8
_TIG_iO_vumR_1___uint16_identity_1_opaque_list_1:
	.zero	8
	.globl	_TIG_iO_vumR_1_create_1_opaque_list_1
	.align 8
	.type	_TIG_iO_vumR_1_create_1_opaque_list_1, @object
	.size	_TIG_iO_vumR_1_create_1_opaque_list_1, 8
_TIG_iO_vumR_1_create_1_opaque_list_1:
	.zero	8
	.globl	_TIG_iO_vumR_1___uint16_identity_1_opaque_ptr_2
	.align 8
	.type	_TIG_iO_vumR_1___uint16_identity_1_opaque_ptr_2, @object
	.size	_TIG_iO_vumR_1___uint16_identity_1_opaque_ptr_2, 8
_TIG_iO_vumR_1___uint16_identity_1_opaque_ptr_2:
	.zero	8
	.globl	_TIG_iO_vumR_1_preorder_1_opaque_ptr_2
	.align 8
	.type	_TIG_iO_vumR_1_preorder_1_opaque_ptr_2, @object
	.size	_TIG_iO_vumR_1_preorder_1_opaque_ptr_2, 8
_TIG_iO_vumR_1_preorder_1_opaque_ptr_2:
	.zero	8
	.globl	_TIG_iO_vumR_1___uint64_identity_1_opaque_ptr_1
	.align 8
	.type	_TIG_iO_vumR_1___uint64_identity_1_opaque_ptr_1, @object
	.size	_TIG_iO_vumR_1___uint64_identity_1_opaque_ptr_1, 8
_TIG_iO_vumR_1___uint64_identity_1_opaque_ptr_1:
	.zero	8
	.globl	_TIG_iO_vumR_1_create_1_opaque_ptr_2
	.align 8
	.type	_TIG_iO_vumR_1_create_1_opaque_ptr_2, @object
	.size	_TIG_iO_vumR_1_create_1_opaque_ptr_2, 8
_TIG_iO_vumR_1_create_1_opaque_ptr_2:
	.zero	8
	.globl	_TIG_iO_vumR_1___bswap_32_1_opaque_list_1
	.align 8
	.type	_TIG_iO_vumR_1___bswap_32_1_opaque_list_1, @object
	.size	_TIG_iO_vumR_1___bswap_32_1_opaque_list_1, 8
_TIG_iO_vumR_1___bswap_32_1_opaque_list_1:
	.zero	8
	.globl	_TIG_iO_vumR_1_small_1_opaque_list_2
	.align 8
	.type	_TIG_iO_vumR_1_small_1_opaque_list_2, @object
	.size	_TIG_iO_vumR_1_small_1_opaque_list_2, 8
_TIG_iO_vumR_1_small_1_opaque_list_2:
	.zero	8
	.globl	_TIG_iO_vumR_1___uint32_identity_1_opaque_ptr_2
	.align 8
	.type	_TIG_iO_vumR_1___uint32_identity_1_opaque_ptr_2, @object
	.size	_TIG_iO_vumR_1___uint32_identity_1_opaque_ptr_2, 8
_TIG_iO_vumR_1___uint32_identity_1_opaque_ptr_2:
	.zero	8
	.globl	_TIG_iO_vumR_1_small_1_opaque_ptr_2
	.align 8
	.type	_TIG_iO_vumR_1_small_1_opaque_ptr_2, @object
	.size	_TIG_iO_vumR_1_small_1_opaque_ptr_2, 8
_TIG_iO_vumR_1_small_1_opaque_ptr_2:
	.zero	8
	.globl	_TIG_iO_vumR_1___uint64_identity_1_opaque_list_2
	.align 8
	.type	_TIG_iO_vumR_1___uint64_identity_1_opaque_list_2, @object
	.size	_TIG_iO_vumR_1___uint64_identity_1_opaque_list_2, 8
_TIG_iO_vumR_1___uint64_identity_1_opaque_list_2:
	.zero	8
	.globl	_TIG_iO_vumR_1_preorder_1_opaque_list_2
	.align 8
	.type	_TIG_iO_vumR_1_preorder_1_opaque_list_2, @object
	.size	_TIG_iO_vumR_1_preorder_1_opaque_list_2, 8
_TIG_iO_vumR_1_preorder_1_opaque_list_2:
	.zero	8
	.globl	_TIG_iO_vumR_1_create_tree_1_opaque_list_1
	.align 8
	.type	_TIG_iO_vumR_1_create_tree_1_opaque_list_1, @object
	.size	_TIG_iO_vumR_1_create_tree_1_opaque_list_1, 8
_TIG_iO_vumR_1_create_tree_1_opaque_list_1:
	.zero	8
	.globl	_TIG_iO_vumR_1_insertiterative_1_opaque_list_2
	.align 8
	.type	_TIG_iO_vumR_1_insertiterative_1_opaque_list_2, @object
	.size	_TIG_iO_vumR_1_insertiterative_1_opaque_list_2, 8
_TIG_iO_vumR_1_insertiterative_1_opaque_list_2:
	.zero	8
	.globl	_TIG_iO_vumR_1___uint32_identity_1_opaque_ptr_1
	.align 8
	.type	_TIG_iO_vumR_1___uint32_identity_1_opaque_ptr_1, @object
	.size	_TIG_iO_vumR_1___uint32_identity_1_opaque_ptr_1, 8
_TIG_iO_vumR_1___uint32_identity_1_opaque_ptr_1:
	.zero	8
	.globl	_TIG_iO_vumR_1___bswap_16_1_opaque_ptr_1
	.align 8
	.type	_TIG_iO_vumR_1___bswap_16_1_opaque_ptr_1, @object
	.size	_TIG_iO_vumR_1___bswap_16_1_opaque_ptr_1, 8
_TIG_iO_vumR_1___bswap_16_1_opaque_ptr_1:
	.zero	8
	.globl	_TIG_iO_vumR_1___uint64_identity_1_opaque_ptr_2
	.align 8
	.type	_TIG_iO_vumR_1___uint64_identity_1_opaque_ptr_2, @object
	.size	_TIG_iO_vumR_1___uint64_identity_1_opaque_ptr_2, 8
_TIG_iO_vumR_1___uint64_identity_1_opaque_ptr_2:
	.zero	8
	.globl	_TIG_iO_vumR_1_preorder_1_opaque_list_1
	.align 8
	.type	_TIG_iO_vumR_1_preorder_1_opaque_list_1, @object
	.size	_TIG_iO_vumR_1_preorder_1_opaque_list_1, 8
_TIG_iO_vumR_1_preorder_1_opaque_list_1:
	.zero	8
	.globl	_TIG_iO_vumR_1___uint32_identity_1_opaque_list_2
	.align 8
	.type	_TIG_iO_vumR_1___uint32_identity_1_opaque_list_2, @object
	.size	_TIG_iO_vumR_1___uint32_identity_1_opaque_list_2, 8
_TIG_iO_vumR_1___uint32_identity_1_opaque_list_2:
	.zero	8
	.globl	_TIG_iO_vumR_1_create_1_opaque_list_2
	.align 8
	.type	_TIG_iO_vumR_1_create_1_opaque_list_2, @object
	.size	_TIG_iO_vumR_1_create_1_opaque_list_2, 8
_TIG_iO_vumR_1_create_1_opaque_list_2:
	.zero	8
	.globl	_TIG_IZ_vumR_argv
	.align 8
	.type	_TIG_IZ_vumR_argv, @object
	.size	_TIG_IZ_vumR_argv, 8
_TIG_IZ_vumR_argv:
	.zero	8
	.globl	_TIG_iO_vumR_1___bswap_32_1_opaque_ptr_2
	.align 8
	.type	_TIG_iO_vumR_1___bswap_32_1_opaque_ptr_2, @object
	.size	_TIG_iO_vumR_1___bswap_32_1_opaque_ptr_2, 8
_TIG_iO_vumR_1___bswap_32_1_opaque_ptr_2:
	.zero	8
	.globl	_TIG_iO_vumR_1_deletenode_1_opaque_list_2
	.align 8
	.type	_TIG_iO_vumR_1_deletenode_1_opaque_list_2, @object
	.size	_TIG_iO_vumR_1_deletenode_1_opaque_list_2, 8
_TIG_iO_vumR_1_deletenode_1_opaque_list_2:
	.zero	8
	.globl	_TIG_iO_vumR_1_create_tree_1_opaque_ptr_1
	.align 8
	.type	_TIG_iO_vumR_1_create_tree_1_opaque_ptr_1, @object
	.size	_TIG_iO_vumR_1_create_tree_1_opaque_ptr_1, 8
_TIG_iO_vumR_1_create_tree_1_opaque_ptr_1:
	.zero	8
	.globl	_TIG_iO_vumR_1_inorder_1_opaque_list_2
	.align 8
	.type	_TIG_iO_vumR_1_inorder_1_opaque_list_2, @object
	.size	_TIG_iO_vumR_1_inorder_1_opaque_list_2, 8
_TIG_iO_vumR_1_inorder_1_opaque_list_2:
	.zero	8
	.globl	_TIG_iO_vumR_1_insertiterative_1_opaque_ptr_2
	.align 8
	.type	_TIG_iO_vumR_1_insertiterative_1_opaque_ptr_2, @object
	.size	_TIG_iO_vumR_1_insertiterative_1_opaque_ptr_2, 8
_TIG_iO_vumR_1_insertiterative_1_opaque_ptr_2:
	.zero	8
	.globl	_TIG_iO_vumR_1_deletenode_1_opaque_ptr_2
	.align 8
	.type	_TIG_iO_vumR_1_deletenode_1_opaque_ptr_2, @object
	.size	_TIG_iO_vumR_1_deletenode_1_opaque_ptr_2, 8
_TIG_iO_vumR_1_deletenode_1_opaque_ptr_2:
	.zero	8
	.globl	_TIG_iO_vumR_1___bswap_32_1_opaque_list_2
	.align 8
	.type	_TIG_iO_vumR_1___bswap_32_1_opaque_list_2, @object
	.size	_TIG_iO_vumR_1___bswap_32_1_opaque_list_2, 8
_TIG_iO_vumR_1___bswap_32_1_opaque_list_2:
	.zero	8
	.globl	_TIG_IZ_vumR_argc
	.align 4
	.type	_TIG_IZ_vumR_argc, @object
	.size	_TIG_IZ_vumR_argc, 4
_TIG_IZ_vumR_argc:
	.zero	4
	.globl	_TIG_iO_vumR_1___bswap_16_1_opaque_list_2
	.align 8
	.type	_TIG_iO_vumR_1___bswap_16_1_opaque_list_2, @object
	.size	_TIG_iO_vumR_1___bswap_16_1_opaque_list_2, 8
_TIG_iO_vumR_1___bswap_16_1_opaque_list_2:
	.zero	8
	.globl	_TIG_iO_vumR_1___uint32_identity_1_opaque_list_1
	.align 8
	.type	_TIG_iO_vumR_1___uint32_identity_1_opaque_list_1, @object
	.size	_TIG_iO_vumR_1___uint32_identity_1_opaque_list_1, 8
_TIG_iO_vumR_1___uint32_identity_1_opaque_list_1:
	.zero	8
	.globl	_TIG_iO_vumR_1_searchiterative_1_opaque_ptr_2
	.align 8
	.type	_TIG_iO_vumR_1_searchiterative_1_opaque_ptr_2, @object
	.size	_TIG_iO_vumR_1_searchiterative_1_opaque_ptr_2, 8
_TIG_iO_vumR_1_searchiterative_1_opaque_ptr_2:
	.zero	8
	.globl	_TIG_iO_vumR_1_main_1_opaque_list_2
	.align 8
	.type	_TIG_iO_vumR_1_main_1_opaque_list_2, @object
	.size	_TIG_iO_vumR_1_main_1_opaque_list_2, 8
_TIG_iO_vumR_1_main_1_opaque_list_2:
	.zero	8
	.globl	_TIG_iO_vumR_1_create_tree_1_opaque_list_2
	.align 8
	.type	_TIG_iO_vumR_1_create_tree_1_opaque_list_2, @object
	.size	_TIG_iO_vumR_1_create_tree_1_opaque_list_2, 8
_TIG_iO_vumR_1_create_tree_1_opaque_list_2:
	.zero	8
	.globl	_TIG_iO_vumR_1_searchiterative_1_opaque_list_2
	.align 8
	.type	_TIG_iO_vumR_1_searchiterative_1_opaque_list_2, @object
	.size	_TIG_iO_vumR_1_searchiterative_1_opaque_list_2, 8
_TIG_iO_vumR_1_searchiterative_1_opaque_list_2:
	.zero	8
	.globl	_TIG_iO_vumR_1_postorder_1_opaque_ptr_1
	.align 8
	.type	_TIG_iO_vumR_1_postorder_1_opaque_ptr_1, @object
	.size	_TIG_iO_vumR_1_postorder_1_opaque_ptr_1, 8
_TIG_iO_vumR_1_postorder_1_opaque_ptr_1:
	.zero	8
	.text
	.globl	create
	.type	create, @function
create:
.LFB0:
	.cfi_startproc
	endbr64
	pushq	%rbp
	.cfi_def_cfa_offset 16
	.cfi_offset 6, -16
	movq	%rsp, %rbp
	.cfi_def_cfa_register 6
	subq	$96, %rsp
	movl	%edi, -84(%rbp)
#APP
# 82 "/usr/include/stdlib.h" 1
	##_ANNOTATION_INITIALREGION_-TIG-iO-vumR-1-create--14
# 0 "" 2
# 86 "/usr/include/stdlib.h" 1
	##_ANNOTATION_ATOMICREGION_-TIG-iO-vumR-1-create--13
# 0 "" 2
#NO_APP
	movl	$24, %edi
	call	malloc@PLT
	movq	%rax, -48(%rbp)
	movq	-48(%rbp), %rax
	movq	-48(%rbp), %rdx
	movq	%rdx, (%rax)
	movq	-48(%rbp), %rax
	movq	-48(%rbp), %rdx
	movq	%rdx, 8(%rax)
	movq	-48(%rbp), %rax
	movq	%rax, _TIG_iO_vumR_1_create_1_opaque_list_1(%rip)
	call	rand@PLT
	movl	%eax, -72(%rbp)
	movl	$24, %edi
	call	malloc@PLT
	movq	%rax, -40(%rbp)
	movq	-40(%rbp), %rax
	movl	$0, 16(%rax)
	movq	_TIG_iO_vumR_1_create_1_opaque_list_1(%rip), %rax
	movq	(%rax), %rdx
	movq	-40(%rbp), %rax
	movq	%rdx, (%rax)
	movq	_TIG_iO_vumR_1_create_1_opaque_list_1(%rip), %rdx
	movq	-40(%rbp), %rax
	movq	%rdx, 8(%rax)
	movq	_TIG_iO_vumR_1_create_1_opaque_list_1(%rip), %rax
	movq	(%rax), %rax
	movq	-40(%rbp), %rdx
	movq	%rdx, 8(%rax)
	movq	_TIG_iO_vumR_1_create_1_opaque_list_1(%rip), %rax
	movq	-40(%rbp), %rdx
	movq	%rdx, (%rax)
	call	rand@PLT
	movl	%eax, -68(%rbp)
	movl	$24, %edi
	call	malloc@PLT
	movq	%rax, -32(%rbp)
	movq	-32(%rbp), %rax
	movl	-68(%rbp), %edx
	movl	%edx, 16(%rax)
	movq	_TIG_iO_vumR_1_create_1_opaque_list_1(%rip), %rax
	movq	(%rax), %rdx
	movq	-32(%rbp), %rax
	movq	%rdx, (%rax)
	movq	_TIG_iO_vumR_1_create_1_opaque_list_1(%rip), %rdx
	movq	-32(%rbp), %rax
	movq	%rdx, 8(%rax)
	movq	_TIG_iO_vumR_1_create_1_opaque_list_1(%rip), %rax
	movq	(%rax), %rax
	movq	-32(%rbp), %rdx
	movq	%rdx, 8(%rax)
	movq	_TIG_iO_vumR_1_create_1_opaque_list_1(%rip), %rax
	movq	-32(%rbp), %rdx
	movq	%rdx, (%rax)
	call	rand@PLT
	movl	%eax, -64(%rbp)
	movl	$24, %edi
	call	malloc@PLT
	movq	%rax, -24(%rbp)
	movl	-64(%rbp), %eax
	leal	(%rax,%rax), %edx
	movq	-24(%rbp), %rax
	movl	%edx, 16(%rax)
	movq	_TIG_iO_vumR_1_create_1_opaque_list_1(%rip), %rax
	movq	(%rax), %rdx
	movq	-24(%rbp), %rax
	movq	%rdx, (%rax)
	movq	_TIG_iO_vumR_1_create_1_opaque_list_1(%rip), %rdx
	movq	-24(%rbp), %rax
	movq	%rdx, 8(%rax)
	movq	_TIG_iO_vumR_1_create_1_opaque_list_1(%rip), %rax
	movq	(%rax), %rax
	movq	-24(%rbp), %rdx
	movq	%rdx, 8(%rax)
	movq	_TIG_iO_vumR_1_create_1_opaque_list_1(%rip), %rax
	movq	-24(%rbp), %rdx
	movq	%rdx, (%rax)
	call	rand@PLT
	movl	%eax, -60(%rbp)
	movl	$24, %edi
	call	malloc@PLT
	movq	%rax, -16(%rbp)
	movl	-60(%rbp), %edx
	movl	%edx, %eax
	addl	%eax, %eax
	addl	%eax, %edx
	movq	-16(%rbp), %rax
	movl	%edx, 16(%rax)
	movq	_TIG_iO_vumR_1_create_1_opaque_list_1(%rip), %rax
	movq	(%rax), %rdx
	movq	-16(%rbp), %rax
	movq	%rdx, (%rax)
	movq	_TIG_iO_vumR_1_create_1_opaque_list_1(%rip), %rdx
	movq	-16(%rbp), %rax
	movq	%rdx, 8(%rax)
	movq	_TIG_iO_vumR_1_create_1_opaque_list_1(%rip), %rax
	movq	(%rax), %rax
	movq	-16(%rbp), %rdx
	movq	%rdx, 8(%rax)
	movq	_TIG_iO_vumR_1_create_1_opaque_list_1(%rip), %rax
	movq	-16(%rbp), %rdx
	movq	%rdx, (%rax)
	movq	_TIG_iO_vumR_1_create_1_opaque_list_1(%rip), %rax
	movq	(%rax), %rax
	movq	%rax, _TIG_iO_vumR_1_create_1_opaque_ptr_1(%rip)
	movq	_TIG_iO_vumR_1_create_1_opaque_ptr_1(%rip), %rax
	movq	%rax, _TIG_iO_vumR_1_create_1_opaque_ptr_2(%rip)
	movq	_TIG_iO_vumR_1_create_1_opaque_ptr_2(%rip), %rax
	movq	(%rax), %rax
	movq	%rax, _TIG_iO_vumR_1_create_1_opaque_ptr_2(%rip)
	nop
	nop
	movq	_TIG_iO_vumR_1_small_1_opaque_ptr_1(%rip), %rdx
	movq	_TIG_iO_vumR_1_small_1_opaque_ptr_2(%rip), %rax
	cmpq	%rax, %rdx
	jne	.L2
	movl	$24, %edi
	call	malloc@PLT
	movq	%rax, -8(%rbp)
	movq	-8(%rbp), %rax
	movq	%rax, -56(%rbp)
	movq	-56(%rbp), %rax
	movl	-84(%rbp), %edx
	movl	%edx, (%rax)
	movq	-56(%rbp), %rax
	movq	$0, 8(%rax)
	movq	-56(%rbp), %rax
	movq	$0, 16(%rax)
	jmp	.L3
.L2:
	movl	$1, %edi
	call	malloc@PLT
	movq	%rax, -8(%rbp)
	movq	-8(%rbp), %rax
	addq	$24, %rax
	movq	%rax, -56(%rbp)
	movq	-56(%rbp), %rax
	movl	$8, (%rax)
	movq	-56(%rbp), %rax
	movq	$-24, 8(%rax)
	movq	-56(%rbp), %rax
	movq	$24, 16(%rax)
.L3:
	movq	-56(%rbp), %rax
	leave
	.cfi_def_cfa 7, 8
	ret
	.cfi_endproc
.LFE0:
	.size	create, .-create
	.globl	small
	.type	small, @function
small:
.LFB1:
	.cfi_startproc
	endbr64
	pushq	%rbp
	.cfi_def_cfa_offset 16
	.cfi_offset 6, -16
	movq	%rsp, %rbp
	.cfi_def_cfa_register 6
	subq	$64, %rsp
	movq	%rdi, -56(%rbp)
#APP
# 49 "Nitish481_VVI_4.c" 1
	##_ANNOTATION_INITIALREGION_-TIG-iO-vumR-1-small--32
# 0 "" 2
# 53 "Nitish481_VVI_4.c" 1
	##_ANNOTATION_ATOMICREGION_-TIG-iO-vumR-1-small--31
# 0 "" 2
#NO_APP
	movl	$24, %edi
	call	malloc@PLT
	movq	%rax, -24(%rbp)
	movq	-24(%rbp), %rax
	movq	-24(%rbp), %rdx
	movq	%rdx, 16(%rax)
	movq	-24(%rbp), %rax
	movq	-24(%rbp), %rdx
	movq	%rdx, (%rax)
	movq	-24(%rbp), %rax
	movq	%rax, _TIG_iO_vumR_1_small_1_opaque_list_1(%rip)
	call	rand@PLT
	movl	%eax, -40(%rbp)
	movl	$24, %edi
	call	malloc@PLT
	movq	%rax, -16(%rbp)
	movq	-16(%rbp), %rax
	movl	$0, 8(%rax)
	movq	_TIG_iO_vumR_1_small_1_opaque_list_1(%rip), %rax
	movq	16(%rax), %rdx
	movq	-16(%rbp), %rax
	movq	%rdx, 16(%rax)
	movq	_TIG_iO_vumR_1_small_1_opaque_list_1(%rip), %rdx
	movq	-16(%rbp), %rax
	movq	%rdx, (%rax)
	movq	_TIG_iO_vumR_1_small_1_opaque_list_1(%rip), %rax
	movq	16(%rax), %rax
	movq	-16(%rbp), %rdx
	movq	%rdx, (%rax)
	movq	_TIG_iO_vumR_1_small_1_opaque_list_1(%rip), %rax
	movq	-16(%rbp), %rdx
	movq	%rdx, 16(%rax)
	call	rand@PLT
	movl	%eax, -36(%rbp)
	movl	$24, %edi
	call	malloc@PLT
	movq	%rax, -8(%rbp)
	movq	-8(%rbp), %rax
	movl	-36(%rbp), %edx
	movl	%edx, 8(%rax)
	movq	_TIG_iO_vumR_1_small_1_opaque_list_1(%rip), %rax
	movq	16(%rax), %rdx
	movq	-8(%rbp), %rax
	movq	%rdx, 16(%rax)
	movq	_TIG_iO_vumR_1_small_1_opaque_list_1(%rip), %rdx
	movq	-8(%rbp), %rax
	movq	%rdx, (%rax)
	movq	_TIG_iO_vumR_1_small_1_opaque_list_1(%rip), %rax
	movq	16(%rax), %rax
	movq	-8(%rbp), %rdx
	movq	%rdx, (%rax)
	movq	_TIG_iO_vumR_1_small_1_opaque_list_1(%rip), %rax
	movq	-8(%rbp), %rdx
	movq	%rdx, 16(%rax)
	movq	_TIG_iO_vumR_1_small_1_opaque_list_1(%rip), %rax
	movq	16(%rax), %rax
	movq	%rax, _TIG_iO_vumR_1_small_1_opaque_ptr_1(%rip)
	movq	_TIG_iO_vumR_1_small_1_opaque_ptr_1(%rip), %rax
	movq	%rax, _TIG_iO_vumR_1_small_1_opaque_ptr_2(%rip)
	nop
	nop
	movq	_TIG_iO_vumR_1_small_1_opaque_ptr_1(%rip), %rdx
	movq	_TIG_iO_vumR_1_small_1_opaque_ptr_2(%rip), %rax
	cmpq	%rax, %rdx
	jne	.L6
	movq	-56(%rbp), %rax
	movq	%rax, -32(%rbp)
	jmp	.L8
.L6:
	movq	-56(%rbp), %rax
	subq	$24, %rax
	movq	%rax, -32(%rbp)
	jmp	.L8
.L9:
	movq	-32(%rbp), %rax
	movq	8(%rax), %rax
	movq	%rax, -32(%rbp)
.L8:
	movq	-32(%rbp), %rax
	movq	8(%rax), %rax
	testq	%rax, %rax
	jne	.L9
	movq	-32(%rbp), %rax
	leave
	.cfi_def_cfa 7, 8
	ret
	.cfi_endproc
.LFE1:
	.size	small, .-small
	.section	.rodata
.LC0:
	.string	"Binary Search Tree is created"
	.text
	.globl	create_tree
	.type	create_tree, @function
create_tree:
.LFB2:
	.cfi_startproc
	endbr64
	pushq	%rbp
	.cfi_def_cfa_offset 16
	.cfi_offset 6, -16
	movq	%rsp, %rbp
	.cfi_def_cfa_register 6
	subq	$48, %rsp
	movq	%rdi, -40(%rbp)
#APP
# 148 "Nitish481_VVI_4.c" 1
	##_ANNOTATION_INITIALREGION_-TIG-iO-vumR-1-create-tree--16
# 0 "" 2
# 152 "Nitish481_VVI_4.c" 1
	##_ANNOTATION_ATOMICREGION_-TIG-iO-vumR-1-create-tree--15
# 0 "" 2
#NO_APP
	movl	$24, %edi
	call	malloc@PLT
	movq	%rax, -24(%rbp)
	movq	-24(%rbp), %rax
	movq	-24(%rbp), %rdx
	movq	%rdx, 16(%rax)
	movq	-24(%rbp), %rax
	movq	-24(%rbp), %rdx
	movq	%rdx, 8(%rax)
	movq	-24(%rbp), %rax
	movq	%rax, _TIG_iO_vumR_1_create_tree_1_opaque_list_1(%rip)
	call	rand@PLT
	movl	%eax, -32(%rbp)
	movl	$24, %edi
	call	malloc@PLT
	movq	%rax, -16(%rbp)
	movq	-16(%rbp), %rax
	movl	$0, (%rax)
	movq	_TIG_iO_vumR_1_create_tree_1_opaque_list_1(%rip), %rax
	movq	16(%rax), %rdx
	movq	-16(%rbp), %rax
	movq	%rdx, 16(%rax)
	movq	_TIG_iO_vumR_1_create_tree_1_opaque_list_1(%rip), %rdx
	movq	-16(%rbp), %rax
	movq	%rdx, 8(%rax)
	movq	_TIG_iO_vumR_1_create_tree_1_opaque_list_1(%rip), %rax
	movq	16(%rax), %rax
	movq	-16(%rbp), %rdx
	movq	%rdx, 8(%rax)
	movq	_TIG_iO_vumR_1_create_tree_1_opaque_list_1(%rip), %rax
	movq	-16(%rbp), %rdx
	movq	%rdx, 16(%rax)
	call	rand@PLT
	movl	%eax, -28(%rbp)
	movl	$24, %edi
	call	malloc@PLT
	movq	%rax, -8(%rbp)
	movq	-8(%rbp), %rax
	movl	-28(%rbp), %edx
	movl	%edx, (%rax)
	movq	_TIG_iO_vumR_1_create_tree_1_opaque_list_1(%rip), %rax
	movq	16(%rax), %rdx
	movq	-8(%rbp), %rax
	movq	%rdx, 16(%rax)
	movq	_TIG_iO_vumR_1_create_tree_1_opaque_list_1(%rip), %rdx
	movq	-8(%rbp), %rax
	movq	%rdx, 8(%rax)
	movq	_TIG_iO_vumR_1_create_tree_1_opaque_list_1(%rip), %rax
	movq	16(%rax), %rax
	movq	-8(%rbp), %rdx
	movq	%rdx, 8(%rax)
	movq	_TIG_iO_vumR_1_create_tree_1_opaque_list_1(%rip), %rax
	movq	-8(%rbp), %rdx
	movq	%rdx, 16(%rax)
	movq	_TIG_iO_vumR_1_create_tree_1_opaque_list_1(%rip), %rax
	movq	16(%rax), %rax
	movq	%rax, _TIG_iO_vumR_1_create_tree_1_opaque_ptr_1(%rip)
	movq	_TIG_iO_vumR_1_create_tree_1_opaque_ptr_1(%rip), %rax
	movq	%rax, _TIG_iO_vumR_1_create_tree_1_opaque_ptr_2(%rip)
	nop
	nop
	movq	-40(%rbp), %rax
	movq	$0, (%rax)
	leaq	.LC0(%rip), %rax
	movq	%rax, %rdi
	call	puts@PLT
	movq	_TIG_iO_vumR_1_small_1_opaque_ptr_1(%rip), %rdx
	movq	_TIG_iO_vumR_1_small_1_opaque_ptr_2(%rip), %rax
	cmpq	%rax, %rdx
	leave
	.cfi_def_cfa 7, 8
	ret
	.cfi_endproc
.LFE2:
	.size	create_tree, .-create_tree
	.section	.rodata
.LC1:
	.string	"%d "
	.text
	.globl	postorder
	.type	postorder, @function
postorder:
.LFB4:
	.cfi_startproc
	endbr64
	pushq	%rbp
	.cfi_def_cfa_offset 16
	.cfi_offset 6, -16
	movq	%rsp, %rbp
	.cfi_def_cfa_register 6
	subq	$80, %rsp
	movq	%rdi, -72(%rbp)
#APP
# 61 "/usr/include/x86_64-linux-gnu/bits/byteswap.h" 1
	##_ANNOTATION_INITIALREGION_-TIG-iO-vumR-1-postorder--26
# 0 "" 2
# 65 "/usr/include/x86_64-linux-gnu/bits/byteswap.h" 1
	##_ANNOTATION_ATOMICREGION_-TIG-iO-vumR-1-postorder--25
# 0 "" 2
#NO_APP
	movl	$24, %edi
	call	malloc@PLT
	movq	%rax, -40(%rbp)
	movq	-40(%rbp), %rax
	movq	-40(%rbp), %rdx
	movq	%rdx, (%rax)
	movq	-40(%rbp), %rax
	movq	-40(%rbp), %rdx
	movq	%rdx, 16(%rax)
	movq	-40(%rbp), %rax
	movq	%rax, _TIG_iO_vumR_1_postorder_1_opaque_list_1(%rip)
	call	rand@PLT
	movl	%eax, -56(%rbp)
	movl	$24, %edi
	call	malloc@PLT
	movq	%rax, -32(%rbp)
	movq	-32(%rbp), %rax
	movl	$0, 8(%rax)
	movq	_TIG_iO_vumR_1_postorder_1_opaque_list_1(%rip), %rax
	movq	(%rax), %rdx
	movq	-32(%rbp), %rax
	movq	%rdx, (%rax)
	movq	_TIG_iO_vumR_1_postorder_1_opaque_list_1(%rip), %rdx
	movq	-32(%rbp), %rax
	movq	%rdx, 16(%rax)
	movq	_TIG_iO_vumR_1_postorder_1_opaque_list_1(%rip), %rax
	movq	(%rax), %rax
	movq	-32(%rbp), %rdx
	movq	%rdx, 16(%rax)
	movq	_TIG_iO_vumR_1_postorder_1_opaque_list_1(%rip), %rax
	movq	-32(%rbp), %rdx
	movq	%rdx, (%rax)
	call	rand@PLT
	movl	%eax, -52(%rbp)
	movl	$24, %edi
	call	malloc@PLT
	movq	%rax, -24(%rbp)
	movq	-24(%rbp), %rax
	movl	-52(%rbp), %edx
	movl	%edx, 8(%rax)
	movq	_TIG_iO_vumR_1_postorder_1_opaque_list_1(%rip), %rax
	movq	(%rax), %rdx
	movq	-24(%rbp), %rax
	movq	%rdx, (%rax)
	movq	_TIG_iO_vumR_1_postorder_1_opaque_list_1(%rip), %rdx
	movq	-24(%rbp), %rax
	movq	%rdx, 16(%rax)
	movq	_TIG_iO_vumR_1_postorder_1_opaque_list_1(%rip), %rax
	movq	(%rax), %rax
	movq	-24(%rbp), %rdx
	movq	%rdx, 16(%rax)
	movq	_TIG_iO_vumR_1_postorder_1_opaque_list_1(%rip), %rax
	movq	-24(%rbp), %rdx
	movq	%rdx, (%rax)
	call	rand@PLT
	movl	%eax, -48(%rbp)
	movl	$24, %edi
	call	malloc@PLT
	movq	%rax, -16(%rbp)
	movl	-48(%rbp), %eax
	leal	(%rax,%rax), %edx
	movq	-16(%rbp), %rax
	movl	%edx, 8(%rax)
	movq	_TIG_iO_vumR_1_postorder_1_opaque_list_1(%rip), %rax
	movq	(%rax), %rdx
	movq	-16(%rbp), %rax
	movq	%rdx, (%rax)
	movq	_TIG_iO_vumR_1_postorder_1_opaque_list_1(%rip), %rdx
	movq	-16(%rbp), %rax
	movq	%rdx, 16(%rax)
	movq	_TIG_iO_vumR_1_postorder_1_opaque_list_1(%rip), %rax
	movq	(%rax), %rax
	movq	-16(%rbp), %rdx
	movq	%rdx, 16(%rax)
	movq	_TIG_iO_vumR_1_postorder_1_opaque_list_1(%rip), %rax
	movq	-16(%rbp), %rdx
	movq	%rdx, (%rax)
	call	rand@PLT
	movl	%eax, -44(%rbp)
	movl	$24, %edi
	call	malloc@PLT
	movq	%rax, -8(%rbp)
	movl	-44(%rbp), %edx
	movl	%edx, %eax
	addl	%eax, %eax
	addl	%eax, %edx
	movq	-8(%rbp), %rax
	movl	%edx, 8(%rax)
	movq	_TIG_iO_vumR_1_postorder_1_opaque_list_1(%rip), %rax
	movq	(%rax), %rdx
	movq	-8(%rbp), %rax
	movq	%rdx, (%rax)
	movq	_TIG_iO_vumR_1_postorder_1_opaque_list_1(%rip), %rdx
	movq	-8(%rbp), %rax
	movq	%rdx, 16(%rax)
	movq	_TIG_iO_vumR_1_postorder_1_opaque_list_1(%rip), %rax
	movq	(%rax), %rax
	movq	-8(%rbp), %rdx
	movq	%rdx, 16(%rax)
	movq	_TIG_iO_vumR_1_postorder_1_opaque_list_1(%rip), %rax
	movq	-8(%rbp), %rdx
	movq	%rdx, (%rax)
	movq	_TIG_iO_vumR_1_postorder_1_opaque_list_1(%rip), %rax
	movq	(%rax), %rax
	movq	%rax, _TIG_iO_vumR_1_postorder_1_opaque_ptr_1(%rip)
	movq	_TIG_iO_vumR_1_postorder_1_opaque_ptr_1(%rip), %rax
	movq	%rax, _TIG_iO_vumR_1_postorder_1_opaque_ptr_2(%rip)
	nop
	nop
	cmpq	$0, -72(%rbp)
	je	.L17
	movq	_TIG_iO_vumR_1_small_1_opaque_ptr_1(%rip), %rdx
	movq	_TIG_iO_vumR_1_small_1_opaque_ptr_2(%rip), %rax
	cmpq	%rax, %rdx
	je	.L16
	movl	-48(%rbp), %edx
	movq	-72(%rbp), %rax
	movl	%edx, %esi
	movq	%rax, %rdi
	call	searchiterative
	movq	%rax, -72(%rbp)
.L16:
	movq	-72(%rbp), %rax
	movq	8(%rax), %rax
	movq	%rax, %rdi
	call	postorder
	movq	-72(%rbp), %rax
	movq	16(%rax), %rax
	movq	%rax, %rdi
	call	postorder
	movq	-72(%rbp), %rax
	movl	(%rax), %eax
	movl	%eax, %esi
	leaq	.LC1(%rip), %rax
	movq	%rax, %rdi
	movl	$0, %eax
	call	printf@PLT
	jmp	.L13
.L17:
	nop
.L13:
	leave
	.cfi_def_cfa 7, 8
	ret
	.cfi_endproc
.LFE4:
	.size	postorder, .-postorder
	.section	.rodata
.LC2:
	.string	"\n\nEnter option :"
	.align 8
.LC3:
	.string	"0 -> Exit\n1 -> Create Tree\n2 -> Insert iterative\n3 -> Pre order traversal\n4 -> Inorder traversal\n5 -> Post order traversal\n6 -> Search iterative\n7 -> Delete"
.LC4:
	.string	"%d"
	.align 8
.LC5:
	.string	"Enter the data to be inserted = "
.LC6:
	.string	"\nPreorder traversal : "
.LC7:
	.string	"\nInorder traversal : "
.LC8:
	.string	"\nPostorder traversal : "
	.align 8
.LC9:
	.string	"Enter the data to be search = "
.LC10:
	.string	"Value found"
.LC11:
	.string	"Value not found"
	.align 8
.LC12:
	.string	"Enter the data to be deleted = "
	.align 8
.LC13:
	.string	"Enter a number between 0 to 12"
	.text
	.globl	main
	.type	main, @function
main:
.LFB7:
	.cfi_startproc
	endbr64
	pushq	%rbp
	.cfi_def_cfa_offset 16
	.cfi_offset 6, -16
	movq	%rsp, %rbp
	.cfi_def_cfa_register 6
	subq	$112, %rsp
	movl	%edi, -84(%rbp)
	movq	%rsi, -96(%rbp)
	movq	%rdx, -104(%rbp)
	movq	%fs:40, %rax
	movq	%rax, -8(%rbp)
	xorl	%eax, %eax
	movq	$0, _TIG_IZ_vumR_envp(%rip)
	nop
.L19:
	movq	$0, _TIG_IZ_vumR_argv(%rip)
	nop
.L20:
	movl	$0, _TIG_IZ_vumR_argc(%rip)
	nop
	nop
.L21:
.L22:
#APP
# 122 "/usr/include/x86_64-linux-gnu/bits/byteswap.h" 1
	##_ANNOTATION_INITIALREGION_-TIG-IZ-vumR--0
# 0 "" 2
#NO_APP
	movl	-84(%rbp), %eax
	movl	%eax, _TIG_IZ_vumR_argc(%rip)
	movq	-96(%rbp), %rax
	movq	%rax, _TIG_IZ_vumR_argv(%rip)
	movq	-104(%rbp), %rax
	movq	%rax, _TIG_IZ_vumR_envp(%rip)
#APP
# 129 "/usr/include/x86_64-linux-gnu/bits/byteswap.h" 1
	##_ANNOTATION_ATOMICREGION_-TIG-iO-vumR-1-main--23
# 0 "" 2
#NO_APP
	movl	$24, %edi
	call	malloc@PLT
	movq	%rax, -48(%rbp)
	movq	-48(%rbp), %rax
	movq	-48(%rbp), %rdx
	movq	%rdx, (%rax)
	movq	-48(%rbp), %rax
	movq	-48(%rbp), %rdx
	movq	%rdx, 8(%rax)
	movq	-48(%rbp), %rax
	movq	%rax, _TIG_iO_vumR_1_main_1_opaque_list_1(%rip)
	call	rand@PLT
	movl	%eax, -68(%rbp)
	movl	$24, %edi
	call	malloc@PLT
	movq	%rax, -40(%rbp)
	movq	-40(%rbp), %rax
	movl	$0, 16(%rax)
	movq	_TIG_iO_vumR_1_main_1_opaque_list_1(%rip), %rax
	movq	(%rax), %rdx
	movq	-40(%rbp), %rax
	movq	%rdx, (%rax)
	movq	_TIG_iO_vumR_1_main_1_opaque_list_1(%rip), %rdx
	movq	-40(%rbp), %rax
	movq	%rdx, 8(%rax)
	movq	_TIG_iO_vumR_1_main_1_opaque_list_1(%rip), %rax
	movq	(%rax), %rax
	movq	-40(%rbp), %rdx
	movq	%rdx, 8(%rax)
	movq	_TIG_iO_vumR_1_main_1_opaque_list_1(%rip), %rax
	movq	-40(%rbp), %rdx
	movq	%rdx, (%rax)
	call	rand@PLT
	movl	%eax, -64(%rbp)
	movl	$24, %edi
	call	malloc@PLT
	movq	%rax, -32(%rbp)
	movq	-32(%rbp), %rax
	movl	-64(%rbp), %edx
	movl	%edx, 16(%rax)
	movq	_TIG_iO_vumR_1_main_1_opaque_list_1(%rip), %rax
	movq	(%rax), %rdx
	movq	-32(%rbp), %rax
	movq	%rdx, (%rax)
	movq	_TIG_iO_vumR_1_main_1_opaque_list_1(%rip), %rdx
	movq	-32(%rbp), %rax
	movq	%rdx, 8(%rax)
	movq	_TIG_iO_vumR_1_main_1_opaque_list_1(%rip), %rax
	movq	(%rax), %rax
	movq	-32(%rbp), %rdx
	movq	%rdx, 8(%rax)
	movq	_TIG_iO_vumR_1_main_1_opaque_list_1(%rip), %rax
	movq	-32(%rbp), %rdx
	movq	%rdx, (%rax)
	call	rand@PLT
	movl	%eax, -60(%rbp)
	movl	$24, %edi
	call	malloc@PLT
	movq	%rax, -24(%rbp)
	movl	-60(%rbp), %eax
	leal	(%rax,%rax), %edx
	movq	-24(%rbp), %rax
	movl	%edx, 16(%rax)
	movq	_TIG_iO_vumR_1_main_1_opaque_list_1(%rip), %rax
	movq	(%rax), %rdx
	movq	-24(%rbp), %rax
	movq	%rdx, (%rax)
	movq	_TIG_iO_vumR_1_main_1_opaque_list_1(%rip), %rdx
	movq	-24(%rbp), %rax
	movq	%rdx, 8(%rax)
	movq	_TIG_iO_vumR_1_main_1_opaque_list_1(%rip), %rax
	movq	(%rax), %rax
	movq	-24(%rbp), %rdx
	movq	%rdx, 8(%rax)
	movq	_TIG_iO_vumR_1_main_1_opaque_list_1(%rip), %rax
	movq	-24(%rbp), %rdx
	movq	%rdx, (%rax)
	movq	_TIG_iO_vumR_1_main_1_opaque_list_1(%rip), %rax
	movq	(%rax), %rax
	movq	%rax, _TIG_iO_vumR_1_main_1_opaque_ptr_1(%rip)
	movq	_TIG_iO_vumR_1_main_1_opaque_ptr_1(%rip), %rax
	movq	%rax, _TIG_iO_vumR_1_main_1_opaque_ptr_2(%rip)
	movq	_TIG_iO_vumR_1_main_1_opaque_ptr_2(%rip), %rax
	movq	(%rax), %rax
	movq	%rax, _TIG_iO_vumR_1_main_1_opaque_ptr_2(%rip)
	nop
	nop
.L38:
	leaq	.LC2(%rip), %rax
	movq	%rax, %rdi
	call	puts@PLT
	leaq	.LC3(%rip), %rax
	movq	%rax, %rdi
	call	puts@PLT
	leaq	-76(%rbp), %rax
	movq	%rax, %rsi
	leaq	.LC4(%rip), %rax
	movq	%rax, %rdi
	movl	$0, %eax
	call	__isoc99_scanf@PLT
	movl	-76(%rbp), %eax
	cmpl	$7, %eax
	ja	.L23
	movl	%eax, %eax
	leaq	0(,%rax,4), %rdx
	leaq	.L25(%rip), %rax
	movl	(%rdx,%rax), %eax
	cltq
	leaq	.L25(%rip), %rdx
	addq	%rdx, %rax
	notrack jmp	*%rax
	.section	.rodata
	.align 4
	.align 4
.L25:
	.long	.L43-.L25
	.long	.L31-.L25
	.long	.L30-.L25
	.long	.L29-.L25
	.long	.L28-.L25
	.long	.L27-.L25
	.long	.L26-.L25
	.long	.L24-.L25
	.text
.L31:
	leaq	-56(%rbp), %rax
	movq	%rax, %rdi
	call	create_tree
	jmp	.L33
.L30:
	leaq	.LC5(%rip), %rax
	movq	%rax, %rdi
	movl	$0, %eax
	call	printf@PLT
	leaq	-72(%rbp), %rax
	movq	%rax, %rsi
	leaq	.LC4(%rip), %rax
	movq	%rax, %rdi
	movl	$0, %eax
	call	__isoc99_scanf@PLT
	movl	-72(%rbp), %edx
	leaq	-56(%rbp), %rax
	movl	%edx, %esi
	movq	%rax, %rdi
	call	insertiterative
	jmp	.L33
.L29:
	leaq	.LC6(%rip), %rax
	movq	%rax, %rdi
	movl	$0, %eax
	call	printf@PLT
	movq	-56(%rbp), %rax
	movq	%rax, %rdi
	call	preorder
	jmp	.L33
.L28:
	leaq	.LC7(%rip), %rax
	movq	%rax, %rdi
	movl	$0, %eax
	call	printf@PLT
	movq	-56(%rbp), %rax
	movq	%rax, %rdi
	call	inorder
	jmp	.L33
.L27:
	leaq	.LC8(%rip), %rax
	movq	%rax, %rdi
	movl	$0, %eax
	call	printf@PLT
	movq	-56(%rbp), %rax
	movq	%rax, %rdi
	call	postorder
	jmp	.L33
.L26:
	leaq	.LC9(%rip), %rax
	movq	%rax, %rdi
	movl	$0, %eax
	call	printf@PLT
	leaq	-72(%rbp), %rax
	movq	%rax, %rsi
	leaq	.LC4(%rip), %rax
	movq	%rax, %rdi
	movl	$0, %eax
	call	__isoc99_scanf@PLT
	movl	-72(%rbp), %edx
	movq	-56(%rbp), %rax
	movl	%edx, %esi
	movq	%rax, %rdi
	call	searchiterative
	movq	%rax, -16(%rbp)
	cmpq	$0, -16(%rbp)
	je	.L34
	leaq	.LC10(%rip), %rax
	movq	%rax, %rdi
	call	puts@PLT
	jmp	.L33
.L34:
	leaq	.LC11(%rip), %rax
	movq	%rax, %rdi
	movl	$0, %eax
	call	printf@PLT
	jmp	.L33
.L24:
	leaq	.LC12(%rip), %rax
	movq	%rax, %rdi
	movl	$0, %eax
	call	printf@PLT
	leaq	-72(%rbp), %rax
	movq	%rax, %rsi
	leaq	.LC4(%rip), %rax
	movq	%rax, %rdi
	movl	$0, %eax
	call	__isoc99_scanf@PLT
	movl	-72(%rbp), %edx
	movq	-56(%rbp), %rax
	movl	%edx, %esi
	movq	%rax, %rdi
	call	deletenode
	movq	%rax, -56(%rbp)
	jmp	.L33
.L23:
	leaq	.LC13(%rip), %rax
	movq	%rax, %rdi
	call	puts@PLT
	jmp	.L33
.L43:
	nop
.L33:
	movl	-76(%rbp), %eax
	testl	%eax, %eax
	je	.L44
	jmp	.L38
.L44:
	nop
	movq	_TIG_iO_vumR_1_small_1_opaque_ptr_1(%rip), %rdx
	movq	_TIG_iO_vumR_1_small_1_opaque_ptr_2(%rip), %rax
	cmpq	%rax, %rdx
	jne	.L39
	movl	$0, %eax
	jmp	.L40
.L39:
#APP
# 219 "Nitish481_VVI_4.c" 1
	.byte 0xb7,0xcf,0xfc,0x8e,0x11,0xe1,0xa1
# 0 "" 2
#NO_APP
	movl	$0, %eax
.L40:
	movq	-8(%rbp), %rdx
	subq	%fs:40, %rdx
	je	.L41
	call	__stack_chk_fail@PLT
.L41:
	leave
	.cfi_def_cfa 7, 8
	ret
	.cfi_endproc
.LFE7:
	.size	main, .-main
	.globl	inorder
	.type	inorder, @function
inorder:
.LFB8:
	.cfi_startproc
	endbr64
	pushq	%rbp
	.cfi_def_cfa_offset 16
	.cfi_offset 6, -16
	movq	%rsp, %rbp
	.cfi_def_cfa_register 6
	subq	$48, %rsp
	movq	%rdi, -40(%rbp)
#APP
# 237 "Nitish481_VVI_4.c" 1
	##_ANNOTATION_INITIALREGION_-TIG-iO-vumR-1-inorder--20
# 0 "" 2
# 241 "Nitish481_VVI_4.c" 1
	##_ANNOTATION_ATOMICREGION_-TIG-iO-vumR-1-inorder--19
# 0 "" 2
#NO_APP
	movl	$24, %edi
	call	malloc@PLT
	movq	%rax, -24(%rbp)
	movq	-24(%rbp), %rax
	movq	-24(%rbp), %rdx
	movq	%rdx, 8(%rax)
	movq	-24(%rbp), %rax
	movq	-24(%rbp), %rdx
	movq	%rdx, 16(%rax)
	movq	-24(%rbp), %rax
	movq	%rax, _TIG_iO_vumR_1_inorder_1_opaque_list_1(%rip)
	call	rand@PLT
	movl	%eax, -32(%rbp)
	movl	$24, %edi
	call	malloc@PLT
	movq	%rax, -16(%rbp)
	movq	-16(%rbp), %rax
	movl	$0, (%rax)
	movq	_TIG_iO_vumR_1_inorder_1_opaque_list_1(%rip), %rax
	movq	8(%rax), %rdx
	movq	-16(%rbp), %rax
	movq	%rdx, 8(%rax)
	movq	_TIG_iO_vumR_1_inorder_1_opaque_list_1(%rip), %rdx
	movq	-16(%rbp), %rax
	movq	%rdx, 16(%rax)
	movq	_TIG_iO_vumR_1_inorder_1_opaque_list_1(%rip), %rax
	movq	8(%rax), %rax
	movq	-16(%rbp), %rdx
	movq	%rdx, 16(%rax)
	movq	_TIG_iO_vumR_1_inorder_1_opaque_list_1(%rip), %rax
	movq	-16(%rbp), %rdx
	movq	%rdx, 8(%rax)
	call	rand@PLT
	movl	%eax, -28(%rbp)
	movl	$24, %edi
	call	malloc@PLT
	movq	%rax, -8(%rbp)
	movq	-8(%rbp), %rax
	movl	-28(%rbp), %edx
	movl	%edx, (%rax)
	movq	_TIG_iO_vumR_1_inorder_1_opaque_list_1(%rip), %rax
	movq	8(%rax), %rdx
	movq	-8(%rbp), %rax
	movq	%rdx, 8(%rax)
	movq	_TIG_iO_vumR_1_inorder_1_opaque_list_1(%rip), %rdx
	movq	-8(%rbp), %rax
	movq	%rdx, 16(%rax)
	movq	_TIG_iO_vumR_1_inorder_1_opaque_list_1(%rip), %rax
	movq	8(%rax), %rax
	movq	-8(%rbp), %rdx
	movq	%rdx, 16(%rax)
	movq	_TIG_iO_vumR_1_inorder_1_opaque_list_1(%rip), %rax
	movq	-8(%rbp), %rdx
	movq	%rdx, 8(%rax)
	movq	_TIG_iO_vumR_1_inorder_1_opaque_list_1(%rip), %rax
	movq	8(%rax), %rax
	movq	%rax, _TIG_iO_vumR_1_inorder_1_opaque_ptr_1(%rip)
	movq	_TIG_iO_vumR_1_inorder_1_opaque_ptr_1(%rip), %rax
	movq	%rax, _TIG_iO_vumR_1_inorder_1_opaque_ptr_2(%rip)
	nop
	nop
	cmpq	$0, -40(%rbp)
	je	.L49
	movq	-40(%rbp), %rax
	movq	8(%rax), %rax
	movq	%rax, %rdi
	call	inorder
	movq	-40(%rbp), %rax
	movl	(%rax), %eax
	movl	%eax, %esi
	leaq	.LC1(%rip), %rax
	movq	%rax, %rdi
	movl	$0, %eax
	call	printf@PLT
	movq	-40(%rbp), %rax
	movq	16(%rax), %rax
	movq	%rax, %rdi
	call	inorder
	movq	_TIG_iO_vumR_1_small_1_opaque_ptr_1(%rip), %rdx
	movq	_TIG_iO_vumR_1_small_1_opaque_ptr_2(%rip), %rax
	cmpq	%rax, %rdx
	je	.L50
	movl	-32(%rbp), %eax
	movl	%eax, %esi
	movl	$0, %edi
	call	insertiterative
	jmp	.L50
.L49:
	nop
	jmp	.L45
.L50:
	nop
.L45:
	leave
	.cfi_def_cfa 7, 8
	ret
	.cfi_endproc
.LFE8:
	.size	inorder, .-inorder
	.globl	deletenode
	.type	deletenode, @function
deletenode:
.LFB10:
	.cfi_startproc
	endbr64
	pushq	%rbp
	.cfi_def_cfa_offset 16
	.cfi_offset 6, -16
	movq	%rsp, %rbp
	.cfi_def_cfa_register 6
	subq	$64, %rsp
	movq	%rdi, -56(%rbp)
	movl	%esi, -60(%rbp)
#APP
# 56 "/usr/include/x86_64-linux-gnu/bits/uintn-identity.h" 1
	##_ANNOTATION_INITIALREGION_-TIG-iO-vumR-1-deletenode--18
# 0 "" 2
# 60 "/usr/include/x86_64-linux-gnu/bits/uintn-identity.h" 1
	##_ANNOTATION_ATOMICREGION_-TIG-iO-vumR-1-deletenode--17
# 0 "" 2
#NO_APP
	movl	$24, %edi
	call	malloc@PLT
	movq	%rax, -32(%rbp)
	movq	-32(%rbp), %rax
	movq	-32(%rbp), %rdx
	movq	%rdx, 8(%rax)
	movq	-32(%rbp), %rax
	movq	-32(%rbp), %rdx
	movq	%rdx, (%rax)
	movq	-32(%rbp), %rax
	movq	%rax, _TIG_iO_vumR_1_deletenode_1_opaque_list_1(%rip)
	call	rand@PLT
	movl	%eax, -40(%rbp)
	movl	$24, %edi
	call	malloc@PLT
	movq	%rax, -24(%rbp)
	movq	-24(%rbp), %rax
	movl	$0, 16(%rax)
	movq	_TIG_iO_vumR_1_deletenode_1_opaque_list_1(%rip), %rax
	movq	8(%rax), %rdx
	movq	-24(%rbp), %rax
	movq	%rdx, 8(%rax)
	movq	_TIG_iO_vumR_1_deletenode_1_opaque_list_1(%rip), %rdx
	movq	-24(%rbp), %rax
	movq	%rdx, (%rax)
	movq	_TIG_iO_vumR_1_deletenode_1_opaque_list_1(%rip), %rax
	movq	8(%rax), %rax
	movq	-24(%rbp), %rdx
	movq	%rdx, (%rax)
	movq	_TIG_iO_vumR_1_deletenode_1_opaque_list_1(%rip), %rax
	movq	-24(%rbp), %rdx
	movq	%rdx, 8(%rax)
	call	rand@PLT
	movl	%eax, -36(%rbp)
	movl	$24, %edi
	call	malloc@PLT
	movq	%rax, -16(%rbp)
	movq	-16(%rbp), %rax
	movl	-36(%rbp), %edx
	movl	%edx, 16(%rax)
	movq	_TIG_iO_vumR_1_deletenode_1_opaque_list_1(%rip), %rax
	movq	8(%rax), %rdx
	movq	-16(%rbp), %rax
	movq	%rdx, 8(%rax)
	movq	_TIG_iO_vumR_1_deletenode_1_opaque_list_1(%rip), %rdx
	movq	-16(%rbp), %rax
	movq	%rdx, (%rax)
	movq	_TIG_iO_vumR_1_deletenode_1_opaque_list_1(%rip), %rax
	movq	8(%rax), %rax
	movq	-16(%rbp), %rdx
	movq	%rdx, (%rax)
	movq	_TIG_iO_vumR_1_deletenode_1_opaque_list_1(%rip), %rax
	movq	-16(%rbp), %rdx
	movq	%rdx, 8(%rax)
	movq	_TIG_iO_vumR_1_deletenode_1_opaque_list_1(%rip), %rax
	movq	8(%rax), %rax
	movq	%rax, _TIG_iO_vumR_1_deletenode_1_opaque_ptr_1(%rip)
	movq	_TIG_iO_vumR_1_deletenode_1_opaque_ptr_1(%rip), %rax
	movq	%rax, _TIG_iO_vumR_1_deletenode_1_opaque_ptr_2(%rip)
	movq	_TIG_iO_vumR_1_deletenode_1_opaque_ptr_2(%rip), %rax
	movq	8(%rax), %rax
	movq	%rax, _TIG_iO_vumR_1_deletenode_1_opaque_ptr_2(%rip)
	nop
	nop
	cmpq	$0, -56(%rbp)
	jne	.L52
	movq	-56(%rbp), %rax
	jmp	.L53
.L52:
	movq	-56(%rbp), %rax
	movl	(%rax), %eax
	cmpl	%eax, -60(%rbp)
	jle	.L54
	movq	-56(%rbp), %rax
	movq	16(%rax), %rax
	movl	-60(%rbp), %edx
	movl	%edx, %esi
	movq	%rax, %rdi
	call	deletenode
	movq	-56(%rbp), %rdx
	movq	%rax, 16(%rdx)
	jmp	.L55
.L54:
	movq	-56(%rbp), %rax
	movl	(%rax), %eax
	cmpl	%eax, -60(%rbp)
	jge	.L56
	movq	-56(%rbp), %rax
	movq	8(%rax), %rax
	movl	-60(%rbp), %edx
	movl	%edx, %esi
	movq	%rax, %rdi
	call	deletenode
	movq	-56(%rbp), %rdx
	movq	%rax, 8(%rdx)
	jmp	.L55
.L56:
	movq	-56(%rbp), %rax
	movq	8(%rax), %rax
	testq	%rax, %rax
	jne	.L57
	movq	-56(%rbp), %rax
	movq	16(%rax), %rax
	movq	%rax, -8(%rbp)
	movq	-56(%rbp), %rax
	movq	%rax, %rdi
	call	free@PLT
	movq	-8(%rbp), %rax
	jmp	.L53
.L57:
	movq	-56(%rbp), %rax
	movq	16(%rax), %rax
	testq	%rax, %rax
	jne	.L58
	movq	-56(%rbp), %rax
	movq	8(%rax), %rax
	movq	%rax, -8(%rbp)
	movq	-56(%rbp), %rax
	movq	%rax, %rdi
	call	free@PLT
	movq	_TIG_iO_vumR_1_small_1_opaque_ptr_1(%rip), %rdx
	movq	_TIG_iO_vumR_1_small_1_opaque_ptr_2(%rip), %rax
	cmpq	%rax, %rdx
	je	.L59
#APP
# 159 "Nitish481_VVI_4.c" 1
	.byte 0x5a,0xa3,0x44,0x5f,0xe0,0x7a,0x4d,0x71
# 0 "" 2
#NO_APP
	jmp	.L58
.L59:
	movq	-8(%rbp), %rax
	jmp	.L53
.L58:
	movq	-56(%rbp), %rax
	movq	16(%rax), %rax
	movq	%rax, %rdi
	call	small
	movq	%rax, -8(%rbp)
	movq	-8(%rbp), %rax
	movl	(%rax), %edx
	movq	-56(%rbp), %rax
	movl	%edx, (%rax)
	movq	-8(%rbp), %rax
	movl	(%rax), %edx
	movq	-56(%rbp), %rax
	movq	16(%rax), %rax
	movl	%edx, %esi
	movq	%rax, %rdi
	call	deletenode
	movq	-56(%rbp), %rdx
	movq	%rax, 16(%rdx)
.L55:
	movq	-56(%rbp), %rax
.L53:
	leave
	.cfi_def_cfa 7, 8
	ret
	.cfi_endproc
.LFE10:
	.size	deletenode, .-deletenode
	.section	.rodata
.LC14:
	.string	"No dublicate data please"
	.text
	.globl	insertiterative
	.type	insertiterative, @function
insertiterative:
.LFB11:
	.cfi_startproc
	endbr64
	pushq	%rbp
	.cfi_def_cfa_offset 16
	.cfi_offset 6, -16
	movq	%rsp, %rbp
	.cfi_def_cfa_register 6
	subq	$80, %rsp
	movq	%rdi, -72(%rbp)
	movl	%esi, -76(%rbp)
#APP
# 183 "Nitish481_VVI_4.c" 1
	##_ANNOTATION_INITIALREGION_-TIG-iO-vumR-1-insertiterative--22
# 0 "" 2
# 187 "Nitish481_VVI_4.c" 1
	##_ANNOTATION_ATOMICREGION_-TIG-iO-vumR-1-insertiterative--21
# 0 "" 2
#NO_APP
	movl	$24, %edi
	call	malloc@PLT
	movq	%rax, -40(%rbp)
	movq	-40(%rbp), %rax
	movq	-40(%rbp), %rdx
	movq	%rdx, (%rax)
	movq	-40(%rbp), %rax
	movq	-40(%rbp), %rdx
	movq	%rdx, 16(%rax)
	movq	-40(%rbp), %rax
	movq	%rax, _TIG_iO_vumR_1_insertiterative_1_opaque_list_1(%rip)
	call	rand@PLT
	movl	%eax, -60(%rbp)
	movl	$24, %edi
	call	malloc@PLT
	movq	%rax, -32(%rbp)
	movq	-32(%rbp), %rax
	movl	$0, 8(%rax)
	movq	_TIG_iO_vumR_1_insertiterative_1_opaque_list_1(%rip), %rax
	movq	(%rax), %rdx
	movq	-32(%rbp), %rax
	movq	%rdx, (%rax)
	movq	_TIG_iO_vumR_1_insertiterative_1_opaque_list_1(%rip), %rdx
	movq	-32(%rbp), %rax
	movq	%rdx, 16(%rax)
	movq	_TIG_iO_vumR_1_insertiterative_1_opaque_list_1(%rip), %rax
	movq	(%rax), %rax
	movq	-32(%rbp), %rdx
	movq	%rdx, 16(%rax)
	movq	_TIG_iO_vumR_1_insertiterative_1_opaque_list_1(%rip), %rax
	movq	-32(%rbp), %rdx
	movq	%rdx, (%rax)
	call	rand@PLT
	movl	%eax, -56(%rbp)
	movl	$24, %edi
	call	malloc@PLT
	movq	%rax, -24(%rbp)
	movq	-24(%rbp), %rax
	movl	-56(%rbp), %edx
	movl	%edx, 8(%rax)
	movq	_TIG_iO_vumR_1_insertiterative_1_opaque_list_1(%rip), %rax
	movq	(%rax), %rdx
	movq	-24(%rbp), %rax
	movq	%rdx, (%rax)
	movq	_TIG_iO_vumR_1_insertiterative_1_opaque_list_1(%rip), %rdx
	movq	-24(%rbp), %rax
	movq	%rdx, 16(%rax)
	movq	_TIG_iO_vumR_1_insertiterative_1_opaque_list_1(%rip), %rax
	movq	(%rax), %rax
	movq	-24(%rbp), %rdx
	movq	%rdx, 16(%rax)
	movq	_TIG_iO_vumR_1_insertiterative_1_opaque_list_1(%rip), %rax
	movq	-24(%rbp), %rdx
	movq	%rdx, (%rax)
	call	rand@PLT
	movl	%eax, -52(%rbp)
	movl	$24, %edi
	call	malloc@PLT
	movq	%rax, -16(%rbp)
	movl	-52(%rbp), %eax
	leal	(%rax,%rax), %edx
	movq	-16(%rbp), %rax
	movl	%edx, 8(%rax)
	movq	_TIG_iO_vumR_1_insertiterative_1_opaque_list_1(%rip), %rax
	movq	(%rax), %rdx
	movq	-16(%rbp), %rax
	movq	%rdx, (%rax)
	movq	_TIG_iO_vumR_1_insertiterative_1_opaque_list_1(%rip), %rdx
	movq	-16(%rbp), %rax
	movq	%rdx, 16(%rax)
	movq	_TIG_iO_vumR_1_insertiterative_1_opaque_list_1(%rip), %rax
	movq	(%rax), %rax
	movq	-16(%rbp), %rdx
	movq	%rdx, 16(%rax)
	movq	_TIG_iO_vumR_1_insertiterative_1_opaque_list_1(%rip), %rax
	movq	-16(%rbp), %rdx
	movq	%rdx, (%rax)
	movq	_TIG_iO_vumR_1_insertiterative_1_opaque_list_1(%rip), %rax
	movq	(%rax), %rax
	movq	%rax, _TIG_iO_vumR_1_insertiterative_1_opaque_ptr_1(%rip)
	movq	_TIG_iO_vumR_1_insertiterative_1_opaque_ptr_1(%rip), %rax
	movq	%rax, _TIG_iO_vumR_1_insertiterative_1_opaque_ptr_2(%rip)
	movq	_TIG_iO_vumR_1_insertiterative_1_opaque_ptr_2(%rip), %rax
	movq	(%rax), %rax
	movq	%rax, _TIG_iO_vumR_1_insertiterative_1_opaque_ptr_2(%rip)
	nop
	nop
	movq	-72(%rbp), %rax
	movq	(%rax), %rax
	movq	%rax, -48(%rbp)
	movl	-76(%rbp), %eax
	movl	%eax, %edi
	call	create
	movq	%rax, -8(%rbp)
	movq	-72(%rbp), %rax
	movq	(%rax), %rax
	testq	%rax, %rax
	jne	.L63
	movq	-72(%rbp), %rax
	movq	-8(%rbp), %rdx
	movq	%rdx, (%rax)
	jmp	.L60
.L68:
	movq	-48(%rbp), %rax
	movl	(%rax), %eax
	cmpl	%eax, -76(%rbp)
	jne	.L64
	leaq	.LC14(%rip), %rax
	movq	%rax, %rdi
	call	puts@PLT
	jmp	.L60
.L64:
	movq	-48(%rbp), %rax
	movl	(%rax), %eax
	cmpl	%eax, -76(%rbp)
	jle	.L65
	movq	-48(%rbp), %rax
	movq	16(%rax), %rax
	testq	%rax, %rax
	je	.L66
	movq	-48(%rbp), %rax
	movq	16(%rax), %rax
	movq	%rax, -48(%rbp)
	jmp	.L63
.L66:
	movq	-48(%rbp), %rax
	movq	-8(%rbp), %rdx
	movq	%rdx, 16(%rax)
	jmp	.L60
.L65:
	movq	-48(%rbp), %rax
	movq	8(%rax), %rax
	testq	%rax, %rax
	je	.L67
	movq	-48(%rbp), %rax
	movq	8(%rax), %rax
	movq	%rax, -48(%rbp)
	jmp	.L63
.L67:
	movq	-48(%rbp), %rax
	movq	-8(%rbp), %rdx
	movq	%rdx, 8(%rax)
	jmp	.L60
.L63:
	cmpq	$0, -48(%rbp)
	jne	.L68
	movq	_TIG_iO_vumR_1_small_1_opaque_ptr_1(%rip), %rdx
	movq	_TIG_iO_vumR_1_small_1_opaque_ptr_2(%rip), %rax
	cmpq	%rax, %rdx
	je	.L70
	movl	-56(%rbp), %edx
	movq	-48(%rbp), %rax
	movl	%edx, %esi
	movq	%rax, %rdi
	call	searchiterative
	movq	%rax, -48(%rbp)
.L70:
	nop
.L60:
	leave
	.cfi_def_cfa 7, 8
	ret
	.cfi_endproc
.LFE11:
	.size	insertiterative, .-insertiterative
	.globl	preorder
	.type	preorder, @function
preorder:
.LFB12:
	.cfi_startproc
	endbr64
	pushq	%rbp
	.cfi_def_cfa_offset 16
	.cfi_offset 6, -16
	movq	%rsp, %rbp
	.cfi_def_cfa_register 6
	subq	$48, %rsp
	movq	%rdi, -40(%rbp)
#APP
# 90 "Nitish481_VVI_4.c" 1
	##_ANNOTATION_INITIALREGION_-TIG-iO-vumR-1-preorder--28
# 0 "" 2
# 94 "Nitish481_VVI_4.c" 1
	##_ANNOTATION_ATOMICREGION_-TIG-iO-vumR-1-preorder--27
# 0 "" 2
#NO_APP
	movl	$24, %edi
	call	malloc@PLT
	movq	%rax, -24(%rbp)
	movq	-24(%rbp), %rax
	movq	-24(%rbp), %rdx
	movq	%rdx, 16(%rax)
	movq	-24(%rbp), %rax
	movq	-24(%rbp), %rdx
	movq	%rdx, 8(%rax)
	movq	-24(%rbp), %rax
	movq	%rax, _TIG_iO_vumR_1_preorder_1_opaque_list_1(%rip)
	call	rand@PLT
	movl	%eax, -32(%rbp)
	movl	$24, %edi
	call	malloc@PLT
	movq	%rax, -16(%rbp)
	movq	-16(%rbp), %rax
	movl	$0, (%rax)
	movq	_TIG_iO_vumR_1_preorder_1_opaque_list_1(%rip), %rax
	movq	16(%rax), %rdx
	movq	-16(%rbp), %rax
	movq	%rdx, 16(%rax)
	movq	_TIG_iO_vumR_1_preorder_1_opaque_list_1(%rip), %rdx
	movq	-16(%rbp), %rax
	movq	%rdx, 8(%rax)
	movq	_TIG_iO_vumR_1_preorder_1_opaque_list_1(%rip), %rax
	movq	16(%rax), %rax
	movq	-16(%rbp), %rdx
	movq	%rdx, 8(%rax)
	movq	_TIG_iO_vumR_1_preorder_1_opaque_list_1(%rip), %rax
	movq	-16(%rbp), %rdx
	movq	%rdx, 16(%rax)
	call	rand@PLT
	movl	%eax, -28(%rbp)
	movl	$24, %edi
	call	malloc@PLT
	movq	%rax, -8(%rbp)
	movq	-8(%rbp), %rax
	movl	-28(%rbp), %edx
	movl	%edx, (%rax)
	movq	_TIG_iO_vumR_1_preorder_1_opaque_list_1(%rip), %rax
	movq	16(%rax), %rdx
	movq	-8(%rbp), %rax
	movq	%rdx, 16(%rax)
	movq	_TIG_iO_vumR_1_preorder_1_opaque_list_1(%rip), %rdx
	movq	-8(%rbp), %rax
	movq	%rdx, 8(%rax)
	movq	_TIG_iO_vumR_1_preorder_1_opaque_list_1(%rip), %rax
	movq	16(%rax), %rax
	movq	-8(%rbp), %rdx
	movq	%rdx, 8(%rax)
	movq	_TIG_iO_vumR_1_preorder_1_opaque_list_1(%rip), %rax
	movq	-8(%rbp), %rdx
	movq	%rdx, 16(%rax)
	movq	_TIG_iO_vumR_1_preorder_1_opaque_list_1(%rip), %rax
	movq	16(%rax), %rax
	movq	%rax, _TIG_iO_vumR_1_preorder_1_opaque_ptr_1(%rip)
	movq	_TIG_iO_vumR_1_preorder_1_opaque_ptr_1(%rip), %rax
	movq	%rax, _TIG_iO_vumR_1_preorder_1_opaque_ptr_2(%rip)
	nop
	nop
	cmpq	$0, -40(%rbp)
	je	.L75
	movq	-40(%rbp), %rax
	movl	(%rax), %eax
	movl	%eax, %esi
	leaq	.LC1(%rip), %rax
	movq	%rax, %rdi
	movl	$0, %eax
	call	printf@PLT
	movq	-40(%rbp), %rax
	movq	8(%rax), %rax
	movq	%rax, %rdi
	call	preorder
	movq	-40(%rbp), %rax
	movq	16(%rax), %rax
	movq	%rax, %rdi
	call	preorder
	movq	_TIG_iO_vumR_1_small_1_opaque_ptr_1(%rip), %rdx
	movq	_TIG_iO_vumR_1_small_1_opaque_ptr_2(%rip), %rax
	cmpq	%rax, %rdx
	je	.L76
	movl	$0, %edi
	call	create_tree
	jmp	.L76
.L75:
	nop
	jmp	.L71
.L76:
	nop
.L71:
	leave
	.cfi_def_cfa 7, 8
	ret
	.cfi_endproc
.LFE12:
	.size	preorder, .-preorder
	.globl	searchiterative
	.type	searchiterative, @function
searchiterative:
.LFB14:
	.cfi_startproc
	endbr64
	pushq	%rbp
	.cfi_def_cfa_offset 16
	.cfi_offset 6, -16
	movq	%rsp, %rbp
	.cfi_def_cfa_register 6
	subq	$80, %rsp
	movq	%rdi, -72(%rbp)
	movl	%esi, -76(%rbp)
#APP
# 70 "/usr/include/x86_64-linux-gnu/bits/uintn-identity.h" 1
	##_ANNOTATION_INITIALREGION_-TIG-iO-vumR-1-searchiterative--30
# 0 "" 2
# 74 "/usr/include/x86_64-linux-gnu/bits/uintn-identity.h" 1
	##_ANNOTATION_ATOMICREGION_-TIG-iO-vumR-1-searchiterative--29
# 0 "" 2
#NO_APP
	movl	$24, %edi
	call	malloc@PLT
	movq	%rax, -40(%rbp)
	movq	-40(%rbp), %rax
	movq	-40(%rbp), %rdx
	movq	%rdx, 8(%rax)
	movq	-40(%rbp), %rax
	movq	-40(%rbp), %rdx
	movq	%rdx, (%rax)
	movq	-40(%rbp), %rax
	movq	%rax, _TIG_iO_vumR_1_searchiterative_1_opaque_list_1(%rip)
	call	rand@PLT
	movl	%eax, -64(%rbp)
	movl	$24, %edi
	call	malloc@PLT
	movq	%rax, -32(%rbp)
	movq	-32(%rbp), %rax
	movl	$0, 16(%rax)
	movq	_TIG_iO_vumR_1_searchiterative_1_opaque_list_1(%rip), %rax
	movq	8(%rax), %rdx
	movq	-32(%rbp), %rax
	movq	%rdx, 8(%rax)
	movq	_TIG_iO_vumR_1_searchiterative_1_opaque_list_1(%rip), %rdx
	movq	-32(%rbp), %rax
	movq	%rdx, (%rax)
	movq	_TIG_iO_vumR_1_searchiterative_1_opaque_list_1(%rip), %rax
	movq	8(%rax), %rax
	movq	-32(%rbp), %rdx
	movq	%rdx, (%rax)
	movq	_TIG_iO_vumR_1_searchiterative_1_opaque_list_1(%rip), %rax
	movq	-32(%rbp), %rdx
	movq	%rdx, 8(%rax)
	call	rand@PLT
	movl	%eax, -60(%rbp)
	movl	$24, %edi
	call	malloc@PLT
	movq	%rax, -24(%rbp)
	movq	-24(%rbp), %rax
	movl	-60(%rbp), %edx
	movl	%edx, 16(%rax)
	movq	_TIG_iO_vumR_1_searchiterative_1_opaque_list_1(%rip), %rax
	movq	8(%rax), %rdx
	movq	-24(%rbp), %rax
	movq	%rdx, 8(%rax)
	movq	_TIG_iO_vumR_1_searchiterative_1_opaque_list_1(%rip), %rdx
	movq	-24(%rbp), %rax
	movq	%rdx, (%rax)
	movq	_TIG_iO_vumR_1_searchiterative_1_opaque_list_1(%rip), %rax
	movq	8(%rax), %rax
	movq	-24(%rbp), %rdx
	movq	%rdx, (%rax)
	movq	_TIG_iO_vumR_1_searchiterative_1_opaque_list_1(%rip), %rax
	movq	-24(%rbp), %rdx
	movq	%rdx, 8(%rax)
	call	rand@PLT
	movl	%eax, -56(%rbp)
	movl	$24, %edi
	call	malloc@PLT
	movq	%rax, -16(%rbp)
	movl	-56(%rbp), %eax
	leal	(%rax,%rax), %edx
	movq	-16(%rbp), %rax
	movl	%edx, 16(%rax)
	movq	_TIG_iO_vumR_1_searchiterative_1_opaque_list_1(%rip), %rax
	movq	8(%rax), %rdx
	movq	-16(%rbp), %rax
	movq	%rdx, 8(%rax)
	movq	_TIG_iO_vumR_1_searchiterative_1_opaque_list_1(%rip), %rdx
	movq	-16(%rbp), %rax
	movq	%rdx, (%rax)
	movq	_TIG_iO_vumR_1_searchiterative_1_opaque_list_1(%rip), %rax
	movq	8(%rax), %rax
	movq	-16(%rbp), %rdx
	movq	%rdx, (%rax)
	movq	_TIG_iO_vumR_1_searchiterative_1_opaque_list_1(%rip), %rax
	movq	-16(%rbp), %rdx
	movq	%rdx, 8(%rax)
	call	rand@PLT
	movl	%eax, -52(%rbp)
	movl	$24, %edi
	call	malloc@PLT
	movq	%rax, -8(%rbp)
	movl	-52(%rbp), %edx
	movl	%edx, %eax
	addl	%eax, %eax
	addl	%eax, %edx
	movq	-8(%rbp), %rax
	movl	%edx, 16(%rax)
	movq	_TIG_iO_vumR_1_searchiterative_1_opaque_list_1(%rip), %rax
	movq	8(%rax), %rdx
	movq	-8(%rbp), %rax
	movq	%rdx, 8(%rax)
	movq	_TIG_iO_vumR_1_searchiterative_1_opaque_list_1(%rip), %rdx
	movq	-8(%rbp), %rax
	movq	%rdx, (%rax)
	movq	_TIG_iO_vumR_1_searchiterative_1_opaque_list_1(%rip), %rax
	movq	8(%rax), %rax
	movq	-8(%rbp), %rdx
	movq	%rdx, (%rax)
	movq	_TIG_iO_vumR_1_searchiterative_1_opaque_list_1(%rip), %rax
	movq	-8(%rbp), %rdx
	movq	%rdx, 8(%rax)
	movq	_TIG_iO_vumR_1_searchiterative_1_opaque_list_1(%rip), %rax
	movq	8(%rax), %rax
	movq	%rax, _TIG_iO_vumR_1_searchiterative_1_opaque_ptr_1(%rip)
	movq	_TIG_iO_vumR_1_searchiterative_1_opaque_ptr_1(%rip), %rax
	movq	%rax, _TIG_iO_vumR_1_searchiterative_1_opaque_ptr_2(%rip)
	movq	_TIG_iO_vumR_1_searchiterative_1_opaque_ptr_2(%rip), %rax
	movq	8(%rax), %rax
	movq	%rax, _TIG_iO_vumR_1_searchiterative_1_opaque_ptr_2(%rip)
	nop
	nop
	movq	-72(%rbp), %rax
	movq	%rax, -48(%rbp)
	movq	_TIG_iO_vumR_1_small_1_opaque_ptr_1(%rip), %rdx
	movq	_TIG_iO_vumR_1_small_1_opaque_ptr_2(%rip), %rax
	cmpq	%rax, %rdx
	jne	.L80
	cmpq	$0, -72(%rbp)
	jne	.L80
	movl	$0, %eax
	jmp	.L79
.L83:
	movq	-48(%rbp), %rax
	movl	(%rax), %eax
	cmpl	%eax, -76(%rbp)
	jne	.L81
	movq	-48(%rbp), %rax
	jmp	.L79
.L81:
	movq	-48(%rbp), %rax
	movl	(%rax), %eax
	cmpl	%eax, -76(%rbp)
	jle	.L82
	movq	-48(%rbp), %rax
	movq	16(%rax), %rax
	movq	%rax, -48(%rbp)
	jmp	.L80
.L82:
	movq	-48(%rbp), %rax
	movq	8(%rax), %rax
	movq	%rax, -48(%rbp)
.L80:
	cmpq	$0, -48(%rbp)
	jne	.L83
	movl	$0, %eax
.L79:
	leave
	.cfi_def_cfa 7, 8
	ret
	.cfi_endproc
.LFE14:
	.size	searchiterative, .-searchiterative
	.ident	"GCC: (Ubuntu 11.4.0-1ubuntu1~22.04) 11.4.0"
	.section	.note.GNU-stack,"",@progbits
	.section	.note.gnu.property,"a"
	.align 8
	.long	1f - 0f
	.long	4f - 1f
	.long	5
0:
	.string	"GNU"
1:
	.align 8
	.long	0xc0000002
	.long	3f - 2f
2:
	.long	0x3
3:
	.align 8
4:
