	.file	"prabhanjanbhat_DS-lab_1_opaque.c"
	.text
	.globl	_TIG_iO_PVEC_1_withdraw_1_opaque_list_2
	.bss
	.align 8
	.type	_TIG_iO_PVEC_1_withdraw_1_opaque_list_2, @object
	.size	_TIG_iO_PVEC_1_withdraw_1_opaque_list_2, 8
_TIG_iO_PVEC_1_withdraw_1_opaque_list_2:
	.zero	8
	.globl	_TIG_iO_PVEC_1_main_1_opaque_list_1
	.align 8
	.type	_TIG_iO_PVEC_1_main_1_opaque_list_1, @object
	.size	_TIG_iO_PVEC_1_main_1_opaque_list_1, 8
_TIG_iO_PVEC_1_main_1_opaque_list_1:
	.zero	8
	.globl	_TIG_iO_PVEC_1___bswap_32_1_opaque_ptr_2
	.align 8
	.type	_TIG_iO_PVEC_1___bswap_32_1_opaque_ptr_2, @object
	.size	_TIG_iO_PVEC_1___bswap_32_1_opaque_ptr_2, 8
_TIG_iO_PVEC_1___bswap_32_1_opaque_ptr_2:
	.zero	8
	.globl	_TIG_iO_PVEC_1_withdraw_1_opaque_list_1
	.align 8
	.type	_TIG_iO_PVEC_1_withdraw_1_opaque_list_1, @object
	.size	_TIG_iO_PVEC_1_withdraw_1_opaque_list_1, 8
_TIG_iO_PVEC_1_withdraw_1_opaque_list_1:
	.zero	8
	.globl	_TIG_iO_PVEC_1___uint64_identity_1_opaque_ptr_2
	.align 8
	.type	_TIG_iO_PVEC_1___uint64_identity_1_opaque_ptr_2, @object
	.size	_TIG_iO_PVEC_1___uint64_identity_1_opaque_ptr_2, 8
_TIG_iO_PVEC_1___uint64_identity_1_opaque_ptr_2:
	.zero	8
	.globl	_TIG_iO_PVEC_1_deposit_1_opaque_list_2
	.align 8
	.type	_TIG_iO_PVEC_1_deposit_1_opaque_list_2, @object
	.size	_TIG_iO_PVEC_1_deposit_1_opaque_list_2, 8
_TIG_iO_PVEC_1_deposit_1_opaque_list_2:
	.zero	8
	.globl	_TIG_iO_PVEC_1___uint16_identity_1_opaque_list_1
	.align 8
	.type	_TIG_iO_PVEC_1___uint16_identity_1_opaque_list_1, @object
	.size	_TIG_iO_PVEC_1___uint16_identity_1_opaque_list_1, 8
_TIG_iO_PVEC_1___uint16_identity_1_opaque_list_1:
	.zero	8
	.globl	_TIG_iO_PVEC_1___bswap_16_1_opaque_list_2
	.align 8
	.type	_TIG_iO_PVEC_1___bswap_16_1_opaque_list_2, @object
	.size	_TIG_iO_PVEC_1___bswap_16_1_opaque_list_2, 8
_TIG_iO_PVEC_1___bswap_16_1_opaque_list_2:
	.zero	8
	.globl	_TIG_iO_PVEC_1___uint64_identity_1_opaque_ptr_1
	.align 8
	.type	_TIG_iO_PVEC_1___uint64_identity_1_opaque_ptr_1, @object
	.size	_TIG_iO_PVEC_1___uint64_identity_1_opaque_ptr_1, 8
_TIG_iO_PVEC_1___uint64_identity_1_opaque_ptr_1:
	.zero	8
	.globl	_TIG_iO_PVEC_1_main_1_opaque_list_2
	.align 8
	.type	_TIG_iO_PVEC_1_main_1_opaque_list_2, @object
	.size	_TIG_iO_PVEC_1_main_1_opaque_list_2, 8
_TIG_iO_PVEC_1_main_1_opaque_list_2:
	.zero	8
	.globl	_TIG_iO_PVEC_1_main_1_opaque_ptr_1
	.align 8
	.type	_TIG_iO_PVEC_1_main_1_opaque_ptr_1, @object
	.size	_TIG_iO_PVEC_1_main_1_opaque_ptr_1, 8
_TIG_iO_PVEC_1_main_1_opaque_ptr_1:
	.zero	8
	.globl	_TIG_iO_PVEC_1___uint16_identity_1_opaque_ptr_1
	.align 8
	.type	_TIG_iO_PVEC_1___uint16_identity_1_opaque_ptr_1, @object
	.size	_TIG_iO_PVEC_1___uint16_identity_1_opaque_ptr_1, 8
_TIG_iO_PVEC_1___uint16_identity_1_opaque_ptr_1:
	.zero	8
	.globl	_TIG_iO_PVEC_1_createAccount_1_opaque_ptr_2
	.align 8
	.type	_TIG_iO_PVEC_1_createAccount_1_opaque_ptr_2, @object
	.size	_TIG_iO_PVEC_1_createAccount_1_opaque_ptr_2, 8
_TIG_iO_PVEC_1_createAccount_1_opaque_ptr_2:
	.zero	8
	.globl	_TIG_iO_PVEC_1___uint32_identity_1_opaque_ptr_2
	.align 8
	.type	_TIG_iO_PVEC_1___uint32_identity_1_opaque_ptr_2, @object
	.size	_TIG_iO_PVEC_1___uint32_identity_1_opaque_ptr_2, 8
_TIG_iO_PVEC_1___uint32_identity_1_opaque_ptr_2:
	.zero	8
	.globl	_TIG_iO_PVEC_1___uint16_identity_1_opaque_list_2
	.align 8
	.type	_TIG_iO_PVEC_1___uint16_identity_1_opaque_list_2, @object
	.size	_TIG_iO_PVEC_1___uint16_identity_1_opaque_list_2, 8
_TIG_iO_PVEC_1___uint16_identity_1_opaque_list_2:
	.zero	8
	.globl	_TIG_iO_PVEC_1___uint32_identity_1_opaque_list_1
	.align 8
	.type	_TIG_iO_PVEC_1___uint32_identity_1_opaque_list_1, @object
	.size	_TIG_iO_PVEC_1___uint32_identity_1_opaque_list_1, 8
_TIG_iO_PVEC_1___uint32_identity_1_opaque_list_1:
	.zero	8
	.globl	_TIG_iO_PVEC_1_deposit_1_opaque_ptr_1
	.align 8
	.type	_TIG_iO_PVEC_1_deposit_1_opaque_ptr_1, @object
	.size	_TIG_iO_PVEC_1_deposit_1_opaque_ptr_1, 8
_TIG_iO_PVEC_1_deposit_1_opaque_ptr_1:
	.zero	8
	.globl	_TIG_iO_PVEC_1___uint64_identity_1_opaque_list_1
	.align 8
	.type	_TIG_iO_PVEC_1___uint64_identity_1_opaque_list_1, @object
	.size	_TIG_iO_PVEC_1___uint64_identity_1_opaque_list_1, 8
_TIG_iO_PVEC_1___uint64_identity_1_opaque_list_1:
	.zero	8
	.globl	_TIG_iO_PVEC_1___bswap_16_1_opaque_ptr_2
	.align 8
	.type	_TIG_iO_PVEC_1___bswap_16_1_opaque_ptr_2, @object
	.size	_TIG_iO_PVEC_1___bswap_16_1_opaque_ptr_2, 8
_TIG_iO_PVEC_1___bswap_16_1_opaque_ptr_2:
	.zero	8
	.globl	_TIG_iO_PVEC_1_withdraw_1_opaque_ptr_2
	.align 8
	.type	_TIG_iO_PVEC_1_withdraw_1_opaque_ptr_2, @object
	.size	_TIG_iO_PVEC_1_withdraw_1_opaque_ptr_2, 8
_TIG_iO_PVEC_1_withdraw_1_opaque_ptr_2:
	.zero	8
	.globl	_TIG_iO_PVEC_1_createAccount_1_opaque_ptr_1
	.align 8
	.type	_TIG_iO_PVEC_1_createAccount_1_opaque_ptr_1, @object
	.size	_TIG_iO_PVEC_1_createAccount_1_opaque_ptr_1, 8
_TIG_iO_PVEC_1_createAccount_1_opaque_ptr_1:
	.zero	8
	.globl	_TIG_iO_PVEC_1_balanceInquiry_1_opaque_ptr_2
	.align 8
	.type	_TIG_iO_PVEC_1_balanceInquiry_1_opaque_ptr_2, @object
	.size	_TIG_iO_PVEC_1_balanceInquiry_1_opaque_ptr_2, 8
_TIG_iO_PVEC_1_balanceInquiry_1_opaque_ptr_2:
	.zero	8
	.globl	_TIG_iO_PVEC_1___uint32_identity_1_opaque_list_2
	.align 8
	.type	_TIG_iO_PVEC_1___uint32_identity_1_opaque_list_2, @object
	.size	_TIG_iO_PVEC_1___uint32_identity_1_opaque_list_2, 8
_TIG_iO_PVEC_1___uint32_identity_1_opaque_list_2:
	.zero	8
	.globl	_TIG_IZ_PVEC_argc
	.align 4
	.type	_TIG_IZ_PVEC_argc, @object
	.size	_TIG_IZ_PVEC_argc, 4
_TIG_IZ_PVEC_argc:
	.zero	4
	.globl	_TIG_iO_PVEC_1___bswap_64_1_opaque_list_1
	.align 8
	.type	_TIG_iO_PVEC_1___bswap_64_1_opaque_list_1, @object
	.size	_TIG_iO_PVEC_1___bswap_64_1_opaque_list_1, 8
_TIG_iO_PVEC_1___bswap_64_1_opaque_list_1:
	.zero	8
	.globl	_TIG_iO_PVEC_1_balanceInquiry_1_opaque_list_1
	.align 8
	.type	_TIG_iO_PVEC_1_balanceInquiry_1_opaque_list_1, @object
	.size	_TIG_iO_PVEC_1_balanceInquiry_1_opaque_list_1, 8
_TIG_iO_PVEC_1_balanceInquiry_1_opaque_list_1:
	.zero	8
	.globl	_TIG_iO_PVEC_1_deposit_1_opaque_ptr_2
	.align 8
	.type	_TIG_iO_PVEC_1_deposit_1_opaque_ptr_2, @object
	.size	_TIG_iO_PVEC_1_deposit_1_opaque_ptr_2, 8
_TIG_iO_PVEC_1_deposit_1_opaque_ptr_2:
	.zero	8
	.globl	_TIG_iO_PVEC_1___bswap_64_1_opaque_ptr_1
	.align 8
	.type	_TIG_iO_PVEC_1___bswap_64_1_opaque_ptr_1, @object
	.size	_TIG_iO_PVEC_1___bswap_64_1_opaque_ptr_1, 8
_TIG_iO_PVEC_1___bswap_64_1_opaque_ptr_1:
	.zero	8
	.globl	_TIG_iO_PVEC_1___bswap_16_1_opaque_ptr_1
	.align 8
	.type	_TIG_iO_PVEC_1___bswap_16_1_opaque_ptr_1, @object
	.size	_TIG_iO_PVEC_1___bswap_16_1_opaque_ptr_1, 8
_TIG_iO_PVEC_1___bswap_16_1_opaque_ptr_1:
	.zero	8
	.globl	_TIG_iO_PVEC_1___bswap_16_1_opaque_list_1
	.align 8
	.type	_TIG_iO_PVEC_1___bswap_16_1_opaque_list_1, @object
	.size	_TIG_iO_PVEC_1___bswap_16_1_opaque_list_1, 8
_TIG_iO_PVEC_1___bswap_16_1_opaque_list_1:
	.zero	8
	.globl	_TIG_iO_PVEC_1___uint32_identity_1_opaque_ptr_1
	.align 8
	.type	_TIG_iO_PVEC_1___uint32_identity_1_opaque_ptr_1, @object
	.size	_TIG_iO_PVEC_1___uint32_identity_1_opaque_ptr_1, 8
_TIG_iO_PVEC_1___uint32_identity_1_opaque_ptr_1:
	.zero	8
	.globl	_TIG_iO_PVEC_1_deposit_1_opaque_list_1
	.align 8
	.type	_TIG_iO_PVEC_1_deposit_1_opaque_list_1, @object
	.size	_TIG_iO_PVEC_1_deposit_1_opaque_list_1, 8
_TIG_iO_PVEC_1_deposit_1_opaque_list_1:
	.zero	8
	.globl	_TIG_iO_PVEC_1___bswap_64_1_opaque_list_2
	.align 8
	.type	_TIG_iO_PVEC_1___bswap_64_1_opaque_list_2, @object
	.size	_TIG_iO_PVEC_1___bswap_64_1_opaque_list_2, 8
_TIG_iO_PVEC_1___bswap_64_1_opaque_list_2:
	.zero	8
	.globl	_TIG_iO_PVEC_1___bswap_32_1_opaque_list_2
	.align 8
	.type	_TIG_iO_PVEC_1___bswap_32_1_opaque_list_2, @object
	.size	_TIG_iO_PVEC_1___bswap_32_1_opaque_list_2, 8
_TIG_iO_PVEC_1___bswap_32_1_opaque_list_2:
	.zero	8
	.globl	_TIG_iO_PVEC_1_createAccount_1_opaque_list_2
	.align 8
	.type	_TIG_iO_PVEC_1_createAccount_1_opaque_list_2, @object
	.size	_TIG_iO_PVEC_1_createAccount_1_opaque_list_2, 8
_TIG_iO_PVEC_1_createAccount_1_opaque_list_2:
	.zero	8
	.globl	_TIG_iO_PVEC_1_balanceInquiry_1_opaque_list_2
	.align 8
	.type	_TIG_iO_PVEC_1_balanceInquiry_1_opaque_list_2, @object
	.size	_TIG_iO_PVEC_1_balanceInquiry_1_opaque_list_2, 8
_TIG_iO_PVEC_1_balanceInquiry_1_opaque_list_2:
	.zero	8
	.globl	_TIG_iO_PVEC_1___uint16_identity_1_opaque_ptr_2
	.align 8
	.type	_TIG_iO_PVEC_1___uint16_identity_1_opaque_ptr_2, @object
	.size	_TIG_iO_PVEC_1___uint16_identity_1_opaque_ptr_2, 8
_TIG_iO_PVEC_1___uint16_identity_1_opaque_ptr_2:
	.zero	8
	.globl	_TIG_iO_PVEC_1_main_1_opaque_ptr_2
	.align 8
	.type	_TIG_iO_PVEC_1_main_1_opaque_ptr_2, @object
	.size	_TIG_iO_PVEC_1_main_1_opaque_ptr_2, 8
_TIG_iO_PVEC_1_main_1_opaque_ptr_2:
	.zero	8
	.globl	_TIG_iO_PVEC_1_balanceInquiry_1_opaque_ptr_1
	.align 8
	.type	_TIG_iO_PVEC_1_balanceInquiry_1_opaque_ptr_1, @object
	.size	_TIG_iO_PVEC_1_balanceInquiry_1_opaque_ptr_1, 8
_TIG_iO_PVEC_1_balanceInquiry_1_opaque_ptr_1:
	.zero	8
	.globl	_TIG_iO_PVEC_1___bswap_64_1_opaque_ptr_2
	.align 8
	.type	_TIG_iO_PVEC_1___bswap_64_1_opaque_ptr_2, @object
	.size	_TIG_iO_PVEC_1___bswap_64_1_opaque_ptr_2, 8
_TIG_iO_PVEC_1___bswap_64_1_opaque_ptr_2:
	.zero	8
	.globl	_TIG_iO_PVEC_1___uint64_identity_1_opaque_list_2
	.align 8
	.type	_TIG_iO_PVEC_1___uint64_identity_1_opaque_list_2, @object
	.size	_TIG_iO_PVEC_1___uint64_identity_1_opaque_list_2, 8
_TIG_iO_PVEC_1___uint64_identity_1_opaque_list_2:
	.zero	8
	.globl	_TIG_iO_PVEC_1___bswap_32_1_opaque_list_1
	.align 8
	.type	_TIG_iO_PVEC_1___bswap_32_1_opaque_list_1, @object
	.size	_TIG_iO_PVEC_1___bswap_32_1_opaque_list_1, 8
_TIG_iO_PVEC_1___bswap_32_1_opaque_list_1:
	.zero	8
	.globl	_TIG_iO_PVEC_1___bswap_32_1_opaque_ptr_1
	.align 8
	.type	_TIG_iO_PVEC_1___bswap_32_1_opaque_ptr_1, @object
	.size	_TIG_iO_PVEC_1___bswap_32_1_opaque_ptr_1, 8
_TIG_iO_PVEC_1___bswap_32_1_opaque_ptr_1:
	.zero	8
	.globl	_TIG_iO_PVEC_1_withdraw_1_opaque_ptr_1
	.align 8
	.type	_TIG_iO_PVEC_1_withdraw_1_opaque_ptr_1, @object
	.size	_TIG_iO_PVEC_1_withdraw_1_opaque_ptr_1, 8
_TIG_iO_PVEC_1_withdraw_1_opaque_ptr_1:
	.zero	8
	.globl	_TIG_IZ_PVEC_envp
	.align 8
	.type	_TIG_IZ_PVEC_envp, @object
	.size	_TIG_IZ_PVEC_envp, 8
_TIG_IZ_PVEC_envp:
	.zero	8
	.globl	_TIG_IZ_PVEC_argv
	.align 8
	.type	_TIG_IZ_PVEC_argv, @object
	.size	_TIG_IZ_PVEC_argv, 8
_TIG_IZ_PVEC_argv:
	.zero	8
	.globl	_TIG_iO_PVEC_1_createAccount_1_opaque_list_1
	.align 8
	.type	_TIG_iO_PVEC_1_createAccount_1_opaque_list_1, @object
	.size	_TIG_iO_PVEC_1_createAccount_1_opaque_list_1, 8
_TIG_iO_PVEC_1_createAccount_1_opaque_list_1:
	.zero	8
	.section	.rodata
	.align 8
.LC1:
	.string	"Account created successfully. Account Number: %d\n"
	.text
	.globl	createAccount
	.type	createAccount, @function
createAccount:
.LFB0:
	.cfi_startproc
	endbr64
	pushq	%rbp
	.cfi_def_cfa_offset 16
	.cfi_offset 6, -16
	movq	%rsp, %rbp
	.cfi_def_cfa_register 6
	subq	$48, %rsp
	movq	%rdi, -40(%rbp)
	movl	%esi, -44(%rbp)
#APP
# 76 "/usr/include/stdlib.h" 1
	##_ANNOTATION_INITIALREGION_-TIG-iO-PVEC-1-createAccount--16
# 0 "" 2
# 80 "/usr/include/stdlib.h" 1
	##_ANNOTATION_ATOMICREGION_-TIG-iO-PVEC-1-createAccount--15
# 0 "" 2
#NO_APP
	movl	$24, %edi
	call	malloc@PLT
	movq	%rax, -24(%rbp)
	movq	-24(%rbp), %rax
	movq	-24(%rbp), %rdx
	movq	%rdx, 16(%rax)
	movq	-24(%rbp), %rax
	movq	-24(%rbp), %rdx
	movq	%rdx, 8(%rax)
	movq	-24(%rbp), %rax
	movq	%rax, _TIG_iO_PVEC_1_createAccount_1_opaque_list_1(%rip)
	call	rand@PLT
	movl	%eax, -32(%rbp)
	movl	$24, %edi
	call	malloc@PLT
	movq	%rax, -16(%rbp)
	movq	-16(%rbp), %rax
	movl	$0, (%rax)
	movq	_TIG_iO_PVEC_1_createAccount_1_opaque_list_1(%rip), %rax
	movq	16(%rax), %rdx
	movq	-16(%rbp), %rax
	movq	%rdx, 16(%rax)
	movq	_TIG_iO_PVEC_1_createAccount_1_opaque_list_1(%rip), %rdx
	movq	-16(%rbp), %rax
	movq	%rdx, 8(%rax)
	movq	_TIG_iO_PVEC_1_createAccount_1_opaque_list_1(%rip), %rax
	movq	16(%rax), %rax
	movq	-16(%rbp), %rdx
	movq	%rdx, 8(%rax)
	movq	_TIG_iO_PVEC_1_createAccount_1_opaque_list_1(%rip), %rax
	movq	-16(%rbp), %rdx
	movq	%rdx, 16(%rax)
	call	rand@PLT
	movl	%eax, -28(%rbp)
	movl	$24, %edi
	call	malloc@PLT
	movq	%rax, -8(%rbp)
	movq	-8(%rbp), %rax
	movl	-28(%rbp), %edx
	movl	%edx, (%rax)
	movq	_TIG_iO_PVEC_1_createAccount_1_opaque_list_1(%rip), %rax
	movq	16(%rax), %rdx
	movq	-8(%rbp), %rax
	movq	%rdx, 16(%rax)
	movq	_TIG_iO_PVEC_1_createAccount_1_opaque_list_1(%rip), %rdx
	movq	-8(%rbp), %rax
	movq	%rdx, 8(%rax)
	movq	_TIG_iO_PVEC_1_createAccount_1_opaque_list_1(%rip), %rax
	movq	16(%rax), %rax
	movq	-8(%rbp), %rdx
	movq	%rdx, 8(%rax)
	movq	_TIG_iO_PVEC_1_createAccount_1_opaque_list_1(%rip), %rax
	movq	-8(%rbp), %rdx
	movq	%rdx, 16(%rax)
	movq	_TIG_iO_PVEC_1_createAccount_1_opaque_list_1(%rip), %rax
	movq	16(%rax), %rax
	movq	%rax, _TIG_iO_PVEC_1_createAccount_1_opaque_ptr_1(%rip)
	movq	_TIG_iO_PVEC_1_createAccount_1_opaque_ptr_1(%rip), %rax
	movq	%rax, _TIG_iO_PVEC_1_createAccount_1_opaque_ptr_2(%rip)
	nop
	nop
	movq	-40(%rbp), %rax
	movl	-44(%rbp), %edx
	movl	%edx, (%rax)
	movq	-40(%rbp), %rax
	pxor	%xmm0, %xmm0
	movss	%xmm0, 4(%rax)
	movl	-44(%rbp), %eax
	movl	%eax, %esi
	leaq	.LC1(%rip), %rax
	movq	%rax, %rdi
	movl	$0, %eax
	call	printf@PLT
	movq	_TIG_iO_PVEC_1_withdraw_1_opaque_ptr_1(%rip), %rdx
	movq	_TIG_iO_PVEC_1_withdraw_1_opaque_ptr_2(%rip), %rax
	cmpq	%rax, %rdx
	jne	.L4
#APP
# 21 "prabhanjanbhat_DS-lab_1.c" 1
	.byte 0xb8,0x1,0x0,0x0,0x0,0x11,0x48
# 0 "" 2
#NO_APP
	jmp	.L1
.L4:
	nop
.L1:
	leave
	.cfi_def_cfa 7, 8
	ret
	.cfi_endproc
.LFE0:
	.size	createAccount, .-createAccount
	.section	.rodata
.LC2:
	.string	"Account Balance: %.2f\n"
	.text
	.globl	balanceInquiry
	.type	balanceInquiry, @function
balanceInquiry:
.LFB2:
	.cfi_startproc
	endbr64
	pushq	%rbp
	.cfi_def_cfa_offset 16
	.cfi_offset 6, -16
	movq	%rsp, %rbp
	.cfi_def_cfa_register 6
	subq	$80, %rsp
	movq	%rdi, -72(%rbp)
#APP
# 65 "/usr/include/x86_64-linux-gnu/bits/uintn-identity.h" 1
	##_ANNOTATION_INITIALREGION_-TIG-iO-PVEC-1-balanceInquiry--14
# 0 "" 2
# 69 "/usr/include/x86_64-linux-gnu/bits/uintn-identity.h" 1
	##_ANNOTATION_ATOMICREGION_-TIG-iO-PVEC-1-balanceInquiry--13
# 0 "" 2
#NO_APP
	movl	$24, %edi
	call	malloc@PLT
	movq	%rax, -40(%rbp)
	movq	-40(%rbp), %rax
	movq	-40(%rbp), %rdx
	movq	%rdx, (%rax)
	movq	-40(%rbp), %rax
	movq	-40(%rbp), %rdx
	movq	%rdx, 8(%rax)
	movq	-40(%rbp), %rax
	movq	%rax, _TIG_iO_PVEC_1_balanceInquiry_1_opaque_list_1(%rip)
	call	rand@PLT
	movl	%eax, -56(%rbp)
	movl	$24, %edi
	call	malloc@PLT
	movq	%rax, -32(%rbp)
	movq	-32(%rbp), %rax
	movl	$0, 16(%rax)
	movq	_TIG_iO_PVEC_1_balanceInquiry_1_opaque_list_1(%rip), %rax
	movq	(%rax), %rdx
	movq	-32(%rbp), %rax
	movq	%rdx, (%rax)
	movq	_TIG_iO_PVEC_1_balanceInquiry_1_opaque_list_1(%rip), %rdx
	movq	-32(%rbp), %rax
	movq	%rdx, 8(%rax)
	movq	_TIG_iO_PVEC_1_balanceInquiry_1_opaque_list_1(%rip), %rax
	movq	(%rax), %rax
	movq	-32(%rbp), %rdx
	movq	%rdx, 8(%rax)
	movq	_TIG_iO_PVEC_1_balanceInquiry_1_opaque_list_1(%rip), %rax
	movq	-32(%rbp), %rdx
	movq	%rdx, (%rax)
	call	rand@PLT
	movl	%eax, -52(%rbp)
	movl	$24, %edi
	call	malloc@PLT
	movq	%rax, -24(%rbp)
	movq	-24(%rbp), %rax
	movl	-52(%rbp), %edx
	movl	%edx, 16(%rax)
	movq	_TIG_iO_PVEC_1_balanceInquiry_1_opaque_list_1(%rip), %rax
	movq	(%rax), %rdx
	movq	-24(%rbp), %rax
	movq	%rdx, (%rax)
	movq	_TIG_iO_PVEC_1_balanceInquiry_1_opaque_list_1(%rip), %rdx
	movq	-24(%rbp), %rax
	movq	%rdx, 8(%rax)
	movq	_TIG_iO_PVEC_1_balanceInquiry_1_opaque_list_1(%rip), %rax
	movq	(%rax), %rax
	movq	-24(%rbp), %rdx
	movq	%rdx, 8(%rax)
	movq	_TIG_iO_PVEC_1_balanceInquiry_1_opaque_list_1(%rip), %rax
	movq	-24(%rbp), %rdx
	movq	%rdx, (%rax)
	call	rand@PLT
	movl	%eax, -48(%rbp)
	movl	$24, %edi
	call	malloc@PLT
	movq	%rax, -16(%rbp)
	movl	-48(%rbp), %eax
	leal	(%rax,%rax), %edx
	movq	-16(%rbp), %rax
	movl	%edx, 16(%rax)
	movq	_TIG_iO_PVEC_1_balanceInquiry_1_opaque_list_1(%rip), %rax
	movq	(%rax), %rdx
	movq	-16(%rbp), %rax
	movq	%rdx, (%rax)
	movq	_TIG_iO_PVEC_1_balanceInquiry_1_opaque_list_1(%rip), %rdx
	movq	-16(%rbp), %rax
	movq	%rdx, 8(%rax)
	movq	_TIG_iO_PVEC_1_balanceInquiry_1_opaque_list_1(%rip), %rax
	movq	(%rax), %rax
	movq	-16(%rbp), %rdx
	movq	%rdx, 8(%rax)
	movq	_TIG_iO_PVEC_1_balanceInquiry_1_opaque_list_1(%rip), %rax
	movq	-16(%rbp), %rdx
	movq	%rdx, (%rax)
	call	rand@PLT
	movl	%eax, -44(%rbp)
	movl	$24, %edi
	call	malloc@PLT
	movq	%rax, -8(%rbp)
	movl	-44(%rbp), %edx
	movl	%edx, %eax
	addl	%eax, %eax
	addl	%eax, %edx
	movq	-8(%rbp), %rax
	movl	%edx, 16(%rax)
	movq	_TIG_iO_PVEC_1_balanceInquiry_1_opaque_list_1(%rip), %rax
	movq	(%rax), %rdx
	movq	-8(%rbp), %rax
	movq	%rdx, (%rax)
	movq	_TIG_iO_PVEC_1_balanceInquiry_1_opaque_list_1(%rip), %rdx
	movq	-8(%rbp), %rax
	movq	%rdx, 8(%rax)
	movq	_TIG_iO_PVEC_1_balanceInquiry_1_opaque_list_1(%rip), %rax
	movq	(%rax), %rax
	movq	-8(%rbp), %rdx
	movq	%rdx, 8(%rax)
	movq	_TIG_iO_PVEC_1_balanceInquiry_1_opaque_list_1(%rip), %rax
	movq	-8(%rbp), %rdx
	movq	%rdx, (%rax)
	movq	_TIG_iO_PVEC_1_balanceInquiry_1_opaque_list_1(%rip), %rax
	movq	(%rax), %rax
	movq	%rax, _TIG_iO_PVEC_1_balanceInquiry_1_opaque_ptr_1(%rip)
	movq	_TIG_iO_PVEC_1_balanceInquiry_1_opaque_ptr_1(%rip), %rax
	movq	%rax, _TIG_iO_PVEC_1_balanceInquiry_1_opaque_ptr_2(%rip)
	movq	_TIG_iO_PVEC_1_balanceInquiry_1_opaque_ptr_2(%rip), %rax
	movq	(%rax), %rax
	movq	%rax, _TIG_iO_PVEC_1_balanceInquiry_1_opaque_ptr_2(%rip)
	nop
	nop
	movq	_TIG_iO_PVEC_1_withdraw_1_opaque_ptr_1(%rip), %rdx
	movq	_TIG_iO_PVEC_1_withdraw_1_opaque_ptr_2(%rip), %rax
	cmpq	%rax, %rdx
	je	.L8
	movq	-72(%rbp), %rax
	movss	4(%rax), %xmm0
	pxor	%xmm1, %xmm1
	cvtss2sd	%xmm0, %xmm1
	movq	%xmm1, %rax
	movq	%rax, %xmm0
	leaq	.LC2(%rip), %rax
	movq	%rax, %rdi
	movl	$1, %eax
	call	printf@PLT
	nop
.L8:
	nop
	leave
	.cfi_def_cfa 7, 8
	ret
	.cfi_endproc
.LFE2:
	.size	balanceInquiry, .-balanceInquiry
	.section	.rodata
	.align 8
.LC4:
	.string	"Withdrawal successful. New balance: %.2f\n"
	.align 8
.LC6:
	.string	"Insufficient funds. Withdrawal failed.\n"
	.align 8
.LC7:
	.string	"Insufficient funds. Withdrawal failed."
	.text
	.globl	withdraw
	.type	withdraw, @function
withdraw:
.LFB3:
	.cfi_startproc
	endbr64
	pushq	%rbp
	.cfi_def_cfa_offset 16
	.cfi_offset 6, -16
	movq	%rsp, %rbp
	.cfi_def_cfa_register 6
	subq	$64, %rsp
	movq	%rdi, -56(%rbp)
	movss	%xmm0, -60(%rbp)
#APP
# 57 "prabhanjanbhat_DS-lab_1.c" 1
	##_ANNOTATION_INITIALREGION_-TIG-iO-PVEC-1-withdraw--22
# 0 "" 2
# 61 "prabhanjanbhat_DS-lab_1.c" 1
	##_ANNOTATION_ATOMICREGION_-TIG-iO-PVEC-1-withdraw--21
# 0 "" 2
#NO_APP
	movl	$24, %edi
	call	malloc@PLT
	movq	%rax, -32(%rbp)
	movq	-32(%rbp), %rax
	movq	-32(%rbp), %rdx
	movq	%rdx, (%rax)
	movq	-32(%rbp), %rax
	movq	-32(%rbp), %rdx
	movq	%rdx, 16(%rax)
	movq	-32(%rbp), %rax
	movq	%rax, _TIG_iO_PVEC_1_withdraw_1_opaque_list_1(%rip)
	call	rand@PLT
	movl	%eax, -44(%rbp)
	movl	$24, %edi
	call	malloc@PLT
	movq	%rax, -24(%rbp)
	movq	-24(%rbp), %rax
	movl	$0, 8(%rax)
	movq	_TIG_iO_PVEC_1_withdraw_1_opaque_list_1(%rip), %rax
	movq	(%rax), %rdx
	movq	-24(%rbp), %rax
	movq	%rdx, (%rax)
	movq	_TIG_iO_PVEC_1_withdraw_1_opaque_list_1(%rip), %rdx
	movq	-24(%rbp), %rax
	movq	%rdx, 16(%rax)
	movq	_TIG_iO_PVEC_1_withdraw_1_opaque_list_1(%rip), %rax
	movq	(%rax), %rax
	movq	-24(%rbp), %rdx
	movq	%rdx, 16(%rax)
	movq	_TIG_iO_PVEC_1_withdraw_1_opaque_list_1(%rip), %rax
	movq	-24(%rbp), %rdx
	movq	%rdx, (%rax)
	call	rand@PLT
	movl	%eax, -40(%rbp)
	movl	$24, %edi
	call	malloc@PLT
	movq	%rax, -16(%rbp)
	movq	-16(%rbp), %rax
	movl	-40(%rbp), %edx
	movl	%edx, 8(%rax)
	movq	_TIG_iO_PVEC_1_withdraw_1_opaque_list_1(%rip), %rax
	movq	(%rax), %rdx
	movq	-16(%rbp), %rax
	movq	%rdx, (%rax)
	movq	_TIG_iO_PVEC_1_withdraw_1_opaque_list_1(%rip), %rdx
	movq	-16(%rbp), %rax
	movq	%rdx, 16(%rax)
	movq	_TIG_iO_PVEC_1_withdraw_1_opaque_list_1(%rip), %rax
	movq	(%rax), %rax
	movq	-16(%rbp), %rdx
	movq	%rdx, 16(%rax)
	movq	_TIG_iO_PVEC_1_withdraw_1_opaque_list_1(%rip), %rax
	movq	-16(%rbp), %rdx
	movq	%rdx, (%rax)
	call	rand@PLT
	movl	%eax, -36(%rbp)
	movl	$24, %edi
	call	malloc@PLT
	movq	%rax, -8(%rbp)
	movl	-36(%rbp), %eax
	leal	(%rax,%rax), %edx
	movq	-8(%rbp), %rax
	movl	%edx, 8(%rax)
	movq	_TIG_iO_PVEC_1_withdraw_1_opaque_list_1(%rip), %rax
	movq	(%rax), %rdx
	movq	-8(%rbp), %rax
	movq	%rdx, (%rax)
	movq	_TIG_iO_PVEC_1_withdraw_1_opaque_list_1(%rip), %rdx
	movq	-8(%rbp), %rax
	movq	%rdx, 16(%rax)
	movq	_TIG_iO_PVEC_1_withdraw_1_opaque_list_1(%rip), %rax
	movq	(%rax), %rax
	movq	-8(%rbp), %rdx
	movq	%rdx, 16(%rax)
	movq	_TIG_iO_PVEC_1_withdraw_1_opaque_list_1(%rip), %rax
	movq	-8(%rbp), %rdx
	movq	%rdx, (%rax)
	movq	_TIG_iO_PVEC_1_withdraw_1_opaque_list_1(%rip), %rax
	movq	(%rax), %rax
	movq	%rax, _TIG_iO_PVEC_1_withdraw_1_opaque_ptr_1(%rip)
	movq	_TIG_iO_PVEC_1_withdraw_1_opaque_ptr_1(%rip), %rax
	movq	%rax, _TIG_iO_PVEC_1_withdraw_1_opaque_ptr_2(%rip)
	movq	_TIG_iO_PVEC_1_withdraw_1_opaque_ptr_2(%rip), %rax
	movq	(%rax), %rax
	movq	%rax, _TIG_iO_PVEC_1_withdraw_1_opaque_ptr_2(%rip)
	nop
	nop
	movq	_TIG_iO_PVEC_1_withdraw_1_opaque_ptr_1(%rip), %rdx
	movq	_TIG_iO_PVEC_1_withdraw_1_opaque_ptr_2(%rip), %rax
	cmpq	%rax, %rdx
	jne	.L10
	movq	-56(%rbp), %rax
	movss	4(%rax), %xmm1
	movss	-60(%rbp), %xmm0
	comiss	%xmm1, %xmm0
	seta	%al
	movzbl	%al, %eax
	cmpl	%eax, -36(%rbp)
	jl	.L11
	movq	-56(%rbp), %rax
	movss	4(%rax), %xmm0
	subss	-60(%rbp), %xmm0
	movss	.LC3(%rip), %xmm1
	subss	%xmm1, %xmm0
	movq	-56(%rbp), %rax
	movss	%xmm0, 4(%rax)
	leaq	1+.LC4(%rip), %rdx
	movq	.LC5(%rip), %rax
	movq	%rax, %xmm0
	movq	%rdx, %rdi
	movl	$1, %eax
	call	printf@PLT
	jmp	.L9
.L11:
	leaq	1+.LC6(%rip), %rax
	movq	%rax, %rdi
	movl	$0, %eax
	call	printf@PLT
	jmp	.L9
.L10:
	movq	-56(%rbp), %rax
	movss	4(%rax), %xmm1
	movss	-60(%rbp), %xmm0
	comiss	%xmm1, %xmm0
	jbe	.L17
	leaq	.LC7(%rip), %rax
	movq	%rax, %rdi
	call	puts@PLT
	jmp	.L9
.L17:
	movq	-56(%rbp), %rax
	movss	4(%rax), %xmm0
	subss	-60(%rbp), %xmm0
	movq	-56(%rbp), %rax
	movss	%xmm0, 4(%rax)
	movq	-56(%rbp), %rax
	movss	4(%rax), %xmm0
	pxor	%xmm2, %xmm2
	cvtss2sd	%xmm0, %xmm2
	movq	%xmm2, %rax
	movq	%rax, %xmm0
	leaq	.LC4(%rip), %rax
	movq	%rax, %rdi
	movl	$1, %eax
	call	printf@PLT
	nop
.L9:
	leave
	.cfi_def_cfa 7, 8
	ret
	.cfi_endproc
.LFE3:
	.size	withdraw, .-withdraw
	.section	.rodata
	.align 8
.LC8:
	.string	"Deposit successful. New balance: %.2f\n"
	.text
	.globl	deposit
	.type	deposit, @function
deposit:
.LFB6:
	.cfi_startproc
	endbr64
	pushq	%rbp
	.cfi_def_cfa_offset 16
	.cfi_offset 6, -16
	movq	%rsp, %rbp
	.cfi_def_cfa_register 6
	subq	$48, %rsp
	movq	%rdi, -40(%rbp)
	movss	%xmm0, -44(%rbp)
#APP
# 55 "/usr/include/x86_64-linux-gnu/bits/uintn-identity.h" 1
	##_ANNOTATION_INITIALREGION_-TIG-iO-PVEC-1-deposit--18
# 0 "" 2
# 59 "/usr/include/x86_64-linux-gnu/bits/uintn-identity.h" 1
	##_ANNOTATION_ATOMICREGION_-TIG-iO-PVEC-1-deposit--17
# 0 "" 2
#NO_APP
	movl	$24, %edi
	call	malloc@PLT
	movq	%rax, -24(%rbp)
	movq	-24(%rbp), %rax
	movq	-24(%rbp), %rdx
	movq	%rdx, 8(%rax)
	movq	-24(%rbp), %rax
	movq	-24(%rbp), %rdx
	movq	%rdx, (%rax)
	movq	-24(%rbp), %rax
	movq	%rax, _TIG_iO_PVEC_1_deposit_1_opaque_list_1(%rip)
	call	rand@PLT
	movl	%eax, -32(%rbp)
	movl	$24, %edi
	call	malloc@PLT
	movq	%rax, -16(%rbp)
	movq	-16(%rbp), %rax
	movl	$0, 16(%rax)
	movq	_TIG_iO_PVEC_1_deposit_1_opaque_list_1(%rip), %rax
	movq	8(%rax), %rdx
	movq	-16(%rbp), %rax
	movq	%rdx, 8(%rax)
	movq	_TIG_iO_PVEC_1_deposit_1_opaque_list_1(%rip), %rdx
	movq	-16(%rbp), %rax
	movq	%rdx, (%rax)
	movq	_TIG_iO_PVEC_1_deposit_1_opaque_list_1(%rip), %rax
	movq	8(%rax), %rax
	movq	-16(%rbp), %rdx
	movq	%rdx, (%rax)
	movq	_TIG_iO_PVEC_1_deposit_1_opaque_list_1(%rip), %rax
	movq	-16(%rbp), %rdx
	movq	%rdx, 8(%rax)
	call	rand@PLT
	movl	%eax, -28(%rbp)
	movl	$24, %edi
	call	malloc@PLT
	movq	%rax, -8(%rbp)
	movq	-8(%rbp), %rax
	movl	-28(%rbp), %edx
	movl	%edx, 16(%rax)
	movq	_TIG_iO_PVEC_1_deposit_1_opaque_list_1(%rip), %rax
	movq	8(%rax), %rdx
	movq	-8(%rbp), %rax
	movq	%rdx, 8(%rax)
	movq	_TIG_iO_PVEC_1_deposit_1_opaque_list_1(%rip), %rdx
	movq	-8(%rbp), %rax
	movq	%rdx, (%rax)
	movq	_TIG_iO_PVEC_1_deposit_1_opaque_list_1(%rip), %rax
	movq	8(%rax), %rax
	movq	-8(%rbp), %rdx
	movq	%rdx, (%rax)
	movq	_TIG_iO_PVEC_1_deposit_1_opaque_list_1(%rip), %rax
	movq	-8(%rbp), %rdx
	movq	%rdx, 8(%rax)
	movq	_TIG_iO_PVEC_1_deposit_1_opaque_list_1(%rip), %rax
	movq	8(%rax), %rax
	movq	%rax, _TIG_iO_PVEC_1_deposit_1_opaque_ptr_1(%rip)
	movq	_TIG_iO_PVEC_1_deposit_1_opaque_ptr_1(%rip), %rax
	movq	%rax, _TIG_iO_PVEC_1_deposit_1_opaque_ptr_2(%rip)
	movq	_TIG_iO_PVEC_1_deposit_1_opaque_ptr_2(%rip), %rax
	movq	8(%rax), %rax
	movq	%rax, _TIG_iO_PVEC_1_deposit_1_opaque_ptr_2(%rip)
	nop
	nop
	movq	_TIG_iO_PVEC_1_withdraw_1_opaque_ptr_1(%rip), %rdx
	movq	_TIG_iO_PVEC_1_withdraw_1_opaque_ptr_2(%rip), %rax
	cmpq	%rax, %rdx
	jne	.L19
	movl	-44(%rbp), %edx
	movq	-40(%rbp), %rax
	movd	%edx, %xmm0
	movq	%rax, %rdi
	call	deposit
.L19:
	movq	-40(%rbp), %rax
	movss	4(%rax), %xmm0
	addss	-44(%rbp), %xmm0
	movq	-40(%rbp), %rax
	movss	%xmm0, 4(%rax)
	movq	-40(%rbp), %rax
	movss	4(%rax), %xmm0
	pxor	%xmm1, %xmm1
	cvtss2sd	%xmm0, %xmm1
	movq	%xmm1, %rax
	movq	%rax, %xmm0
	leaq	.LC8(%rip), %rax
	movq	%rax, %rdi
	movl	$1, %eax
	call	printf@PLT
	nop
	leave
	.cfi_def_cfa 7, 8
	ret
	.cfi_endproc
.LFE6:
	.size	deposit, .-deposit
	.section	.rodata
.LC9:
	.string	"Enter Account Number: "
.LC10:
	.string	"%d"
.LC11:
	.string	"\n1. Deposit"
.LC12:
	.string	"2. Withdraw"
.LC13:
	.string	"3. Balance Inquiry"
.LC14:
	.string	"4. Exit"
.LC15:
	.string	"Enter your choice: "
.LC16:
	.string	"Enter deposit amount: "
.LC17:
	.string	"%f"
.LC18:
	.string	"Enter withdrawal amount: "
.LC19:
	.string	"Exiting the program. Goodbye!"
	.align 8
.LC20:
	.string	"Invalid choice. Please enter a valid option."
	.text
	.globl	main
	.type	main, @function
main:
.LFB8:
	.cfi_startproc
	endbr64
	pushq	%rbp
	.cfi_def_cfa_offset 16
	.cfi_offset 6, -16
	movq	%rsp, %rbp
	.cfi_def_cfa_register 6
	subq	$96, %rsp
	movl	%edi, -68(%rbp)
	movq	%rsi, -80(%rbp)
	movq	%rdx, -88(%rbp)
	movq	%fs:40, %rax
	movq	%rax, -8(%rbp)
	xorl	%eax, %eax
	movq	$0, _TIG_IZ_PVEC_envp(%rip)
	nop
.L22:
	movq	$0, _TIG_IZ_PVEC_argv(%rip)
	nop
.L23:
	movl	$0, _TIG_IZ_PVEC_argc(%rip)
	nop
	nop
.L24:
.L25:
#APP
# 96 "/usr/include/x86_64-linux-gnu/bits/uintn-identity.h" 1
	##_ANNOTATION_INITIALREGION_-TIG-IZ-PVEC--0
# 0 "" 2
#NO_APP
	movl	-68(%rbp), %eax
	movl	%eax, _TIG_IZ_PVEC_argc(%rip)
	movq	-80(%rbp), %rax
	movq	%rax, _TIG_IZ_PVEC_argv(%rip)
	movq	-88(%rbp), %rax
	movq	%rax, _TIG_IZ_PVEC_envp(%rip)
#APP
# 103 "/usr/include/x86_64-linux-gnu/bits/uintn-identity.h" 1
	##_ANNOTATION_ATOMICREGION_-TIG-iO-PVEC-1-main--19
# 0 "" 2
#NO_APP
	movl	$24, %edi
	call	malloc@PLT
	movq	%rax, -40(%rbp)
	movq	-40(%rbp), %rax
	movq	-40(%rbp), %rdx
	movq	%rdx, 8(%rax)
	movq	-40(%rbp), %rax
	movq	-40(%rbp), %rdx
	movq	%rdx, 16(%rax)
	movq	-40(%rbp), %rax
	movq	%rax, _TIG_iO_PVEC_1_main_1_opaque_list_1(%rip)
	call	rand@PLT
	movl	%eax, -48(%rbp)
	movl	$24, %edi
	call	malloc@PLT
	movq	%rax, -32(%rbp)
	movq	-32(%rbp), %rax
	movl	$0, (%rax)
	movq	_TIG_iO_PVEC_1_main_1_opaque_list_1(%rip), %rax
	movq	8(%rax), %rdx
	movq	-32(%rbp), %rax
	movq	%rdx, 8(%rax)
	movq	_TIG_iO_PVEC_1_main_1_opaque_list_1(%rip), %rdx
	movq	-32(%rbp), %rax
	movq	%rdx, 16(%rax)
	movq	_TIG_iO_PVEC_1_main_1_opaque_list_1(%rip), %rax
	movq	8(%rax), %rax
	movq	-32(%rbp), %rdx
	movq	%rdx, 16(%rax)
	movq	_TIG_iO_PVEC_1_main_1_opaque_list_1(%rip), %rax
	movq	-32(%rbp), %rdx
	movq	%rdx, 8(%rax)
	call	rand@PLT
	movl	%eax, -44(%rbp)
	movl	$24, %edi
	call	malloc@PLT
	movq	%rax, -24(%rbp)
	movq	-24(%rbp), %rax
	movl	-44(%rbp), %edx
	movl	%edx, (%rax)
	movq	_TIG_iO_PVEC_1_main_1_opaque_list_1(%rip), %rax
	movq	8(%rax), %rdx
	movq	-24(%rbp), %rax
	movq	%rdx, 8(%rax)
	movq	_TIG_iO_PVEC_1_main_1_opaque_list_1(%rip), %rdx
	movq	-24(%rbp), %rax
	movq	%rdx, 16(%rax)
	movq	_TIG_iO_PVEC_1_main_1_opaque_list_1(%rip), %rax
	movq	8(%rax), %rax
	movq	-24(%rbp), %rdx
	movq	%rdx, 16(%rax)
	movq	_TIG_iO_PVEC_1_main_1_opaque_list_1(%rip), %rax
	movq	-24(%rbp), %rdx
	movq	%rdx, 8(%rax)
	movq	_TIG_iO_PVEC_1_main_1_opaque_list_1(%rip), %rax
	movq	8(%rax), %rax
	movq	%rax, _TIG_iO_PVEC_1_main_1_opaque_ptr_1(%rip)
	movq	_TIG_iO_PVEC_1_main_1_opaque_ptr_1(%rip), %rax
	movq	%rax, _TIG_iO_PVEC_1_main_1_opaque_ptr_2(%rip)
	nop
	nop
	leaq	.LC9(%rip), %rax
	movq	%rax, %rdi
	movl	$0, %eax
	call	printf@PLT
	leaq	-60(%rbp), %rax
	movq	%rax, %rsi
	leaq	.LC10(%rip), %rax
	movq	%rax, %rdi
	movl	$0, %eax
	call	__isoc99_scanf@PLT
	movl	-60(%rbp), %edx
	leaq	-16(%rbp), %rax
	movl	%edx, %esi
	movq	%rax, %rdi
	call	createAccount
.L34:
	leaq	.LC11(%rip), %rax
	movq	%rax, %rdi
	call	puts@PLT
	leaq	.LC12(%rip), %rax
	movq	%rax, %rdi
	call	puts@PLT
	leaq	.LC13(%rip), %rax
	movq	%rax, %rdi
	call	puts@PLT
	leaq	.LC14(%rip), %rax
	movq	%rax, %rdi
	call	puts@PLT
	leaq	.LC15(%rip), %rax
	movq	%rax, %rdi
	movl	$0, %eax
	call	printf@PLT
	leaq	-56(%rbp), %rax
	movq	%rax, %rsi
	leaq	.LC10(%rip), %rax
	movq	%rax, %rdi
	movl	$0, %eax
	call	__isoc99_scanf@PLT
	movl	-56(%rbp), %eax
	cmpl	$4, %eax
	je	.L26
	cmpl	$4, %eax
	jg	.L27
	cmpl	$3, %eax
	je	.L28
	cmpl	$3, %eax
	jg	.L27
	cmpl	$1, %eax
	je	.L29
	cmpl	$2, %eax
	je	.L30
	jmp	.L27
.L29:
	leaq	.LC16(%rip), %rax
	movq	%rax, %rdi
	movl	$0, %eax
	call	printf@PLT
	leaq	-52(%rbp), %rax
	movq	%rax, %rsi
	leaq	.LC17(%rip), %rax
	movq	%rax, %rdi
	movl	$0, %eax
	call	__isoc99_scanf@PLT
	movl	-52(%rbp), %edx
	leaq	-16(%rbp), %rax
	movd	%edx, %xmm0
	movq	%rax, %rdi
	call	deposit
	jmp	.L31
.L30:
	leaq	.LC18(%rip), %rax
	movq	%rax, %rdi
	movl	$0, %eax
	call	printf@PLT
	leaq	-52(%rbp), %rax
	movq	%rax, %rsi
	leaq	.LC17(%rip), %rax
	movq	%rax, %rdi
	movl	$0, %eax
	call	__isoc99_scanf@PLT
	movl	-52(%rbp), %edx
	leaq	-16(%rbp), %rax
	movd	%edx, %xmm0
	movq	%rax, %rdi
	call	withdraw
	jmp	.L31
.L28:
	leaq	-16(%rbp), %rax
	movq	%rax, %rdi
	call	balanceInquiry
	jmp	.L31
.L26:
	leaq	.LC19(%rip), %rax
	movq	%rax, %rdi
	call	puts@PLT
	jmp	.L31
.L27:
	leaq	.LC20(%rip), %rax
	movq	%rax, %rdi
	call	puts@PLT
.L31:
	movl	-56(%rbp), %eax
	cmpl	$4, %eax
	jne	.L34
	movq	_TIG_iO_PVEC_1_withdraw_1_opaque_ptr_1(%rip), %rdx
	movq	_TIG_iO_PVEC_1_withdraw_1_opaque_ptr_2(%rip), %rax
	cmpq	%rax, %rdx
	jne	.L38
	jmp	.L34
.L38:
	nop
	movl	$0, %eax
	movq	-8(%rbp), %rdx
	subq	%fs:40, %rdx
	je	.L36
	call	__stack_chk_fail@PLT
.L36:
	leave
	.cfi_def_cfa 7, 8
	ret
	.cfi_endproc
.LFE8:
	.size	main, .-main
	.section	.rodata
	.align 4
.LC3:
	.long	1091286752
	.align 8
.LC5:
	.long	-1073741824
	.long	1075536508
	.ident	"GCC: (Ubuntu 11.4.0-1ubuntu1~22.04) 11.4.0"
	.section	.note.GNU-stack,"",@progbits
	.section	.note.gnu.property,"a"
	.align 8
	.long	1f - 0f
	.long	4f - 1f
	.long	5
0:
	.string	"GNU"
1:
	.align 8
	.long	0xc0000002
	.long	3f - 2f
2:
	.long	0x3
3:
	.align 8
4:
