	.file	"sifat6472_Problem-Solving_Lucky_opaque.c"
	.text
	.globl	_TIG_iO_jXF2_1_solve_1_opaque_ptr_2
	.bss
	.align 8
	.type	_TIG_iO_jXF2_1_solve_1_opaque_ptr_2, @object
	.size	_TIG_iO_jXF2_1_solve_1_opaque_ptr_2, 8
_TIG_iO_jXF2_1_solve_1_opaque_ptr_2:
	.zero	8
	.globl	_TIG_iO_jXF2_1_main_1_opaque_list_2
	.align 8
	.type	_TIG_iO_jXF2_1_main_1_opaque_list_2, @object
	.size	_TIG_iO_jXF2_1_main_1_opaque_list_2, 8
_TIG_iO_jXF2_1_main_1_opaque_list_2:
	.zero	8
	.globl	_TIG_IZ_jXF2_envp
	.align 8
	.type	_TIG_IZ_jXF2_envp, @object
	.size	_TIG_IZ_jXF2_envp, 8
_TIG_IZ_jXF2_envp:
	.zero	8
	.globl	_TIG_IZ_jXF2_argv
	.align 8
	.type	_TIG_IZ_jXF2_argv, @object
	.size	_TIG_IZ_jXF2_argv, 8
_TIG_IZ_jXF2_argv:
	.zero	8
	.globl	_TIG_iO_jXF2_1___bswap_64_1_opaque_ptr_2
	.align 8
	.type	_TIG_iO_jXF2_1___bswap_64_1_opaque_ptr_2, @object
	.size	_TIG_iO_jXF2_1___bswap_64_1_opaque_ptr_2, 8
_TIG_iO_jXF2_1___bswap_64_1_opaque_ptr_2:
	.zero	8
	.globl	_TIG_iO_jXF2_1_main_1_opaque_ptr_2
	.align 8
	.type	_TIG_iO_jXF2_1_main_1_opaque_ptr_2, @object
	.size	_TIG_iO_jXF2_1_main_1_opaque_ptr_2, 8
_TIG_iO_jXF2_1_main_1_opaque_ptr_2:
	.zero	8
	.globl	_TIG_iO_jXF2_1___bswap_64_1_opaque_list_1
	.align 8
	.type	_TIG_iO_jXF2_1___bswap_64_1_opaque_list_1, @object
	.size	_TIG_iO_jXF2_1___bswap_64_1_opaque_list_1, 8
_TIG_iO_jXF2_1___bswap_64_1_opaque_list_1:
	.zero	8
	.globl	_TIG_iO_jXF2_1_main_1_opaque_list_1
	.align 8
	.type	_TIG_iO_jXF2_1_main_1_opaque_list_1, @object
	.size	_TIG_iO_jXF2_1_main_1_opaque_list_1, 8
_TIG_iO_jXF2_1_main_1_opaque_list_1:
	.zero	8
	.globl	_TIG_iO_jXF2_1___bswap_16_1_opaque_list_2
	.align 8
	.type	_TIG_iO_jXF2_1___bswap_16_1_opaque_list_2, @object
	.size	_TIG_iO_jXF2_1___bswap_16_1_opaque_list_2, 8
_TIG_iO_jXF2_1___bswap_16_1_opaque_list_2:
	.zero	8
	.globl	_TIG_iO_jXF2_1___bswap_16_1_opaque_ptr_1
	.align 8
	.type	_TIG_iO_jXF2_1___bswap_16_1_opaque_ptr_1, @object
	.size	_TIG_iO_jXF2_1___bswap_16_1_opaque_ptr_1, 8
_TIG_iO_jXF2_1___bswap_16_1_opaque_ptr_1:
	.zero	8
	.globl	_TIG_iO_jXF2_1_solve_1_opaque_ptr_1
	.align 8
	.type	_TIG_iO_jXF2_1_solve_1_opaque_ptr_1, @object
	.size	_TIG_iO_jXF2_1_solve_1_opaque_ptr_1, 8
_TIG_iO_jXF2_1_solve_1_opaque_ptr_1:
	.zero	8
	.globl	_TIG_IZ_jXF2_argc
	.align 4
	.type	_TIG_IZ_jXF2_argc, @object
	.size	_TIG_IZ_jXF2_argc, 4
_TIG_IZ_jXF2_argc:
	.zero	4
	.globl	_TIG_iO_jXF2_1___uint64_identity_1_opaque_list_2
	.align 8
	.type	_TIG_iO_jXF2_1___uint64_identity_1_opaque_list_2, @object
	.size	_TIG_iO_jXF2_1___uint64_identity_1_opaque_list_2, 8
_TIG_iO_jXF2_1___uint64_identity_1_opaque_list_2:
	.zero	8
	.globl	_TIG_iO_jXF2_1___uint16_identity_1_opaque_list_1
	.align 8
	.type	_TIG_iO_jXF2_1___uint16_identity_1_opaque_list_1, @object
	.size	_TIG_iO_jXF2_1___uint16_identity_1_opaque_list_1, 8
_TIG_iO_jXF2_1___uint16_identity_1_opaque_list_1:
	.zero	8
	.globl	_TIG_iO_jXF2_1___bswap_64_1_opaque_list_2
	.align 8
	.type	_TIG_iO_jXF2_1___bswap_64_1_opaque_list_2, @object
	.size	_TIG_iO_jXF2_1___bswap_64_1_opaque_list_2, 8
_TIG_iO_jXF2_1___bswap_64_1_opaque_list_2:
	.zero	8
	.globl	ticket
	.type	ticket, @object
	.size	ticket, 7
ticket:
	.zero	7
	.globl	_TIG_iO_jXF2_1_solve_1_opaque_list_1
	.align 8
	.type	_TIG_iO_jXF2_1_solve_1_opaque_list_1, @object
	.size	_TIG_iO_jXF2_1_solve_1_opaque_list_1, 8
_TIG_iO_jXF2_1_solve_1_opaque_list_1:
	.zero	8
	.globl	_TIG_iO_jXF2_1___uint64_identity_1_opaque_ptr_2
	.align 8
	.type	_TIG_iO_jXF2_1___uint64_identity_1_opaque_ptr_2, @object
	.size	_TIG_iO_jXF2_1___uint64_identity_1_opaque_ptr_2, 8
_TIG_iO_jXF2_1___uint64_identity_1_opaque_ptr_2:
	.zero	8
	.globl	_TIG_iO_jXF2_1___uint16_identity_1_opaque_list_2
	.align 8
	.type	_TIG_iO_jXF2_1___uint16_identity_1_opaque_list_2, @object
	.size	_TIG_iO_jXF2_1___uint16_identity_1_opaque_list_2, 8
_TIG_iO_jXF2_1___uint16_identity_1_opaque_list_2:
	.zero	8
	.globl	_TIG_iO_jXF2_1___uint16_identity_1_opaque_ptr_1
	.align 8
	.type	_TIG_iO_jXF2_1___uint16_identity_1_opaque_ptr_1, @object
	.size	_TIG_iO_jXF2_1___uint16_identity_1_opaque_ptr_1, 8
_TIG_iO_jXF2_1___uint16_identity_1_opaque_ptr_1:
	.zero	8
	.globl	_TIG_iO_jXF2_1___uint32_identity_1_opaque_list_2
	.align 8
	.type	_TIG_iO_jXF2_1___uint32_identity_1_opaque_list_2, @object
	.size	_TIG_iO_jXF2_1___uint32_identity_1_opaque_list_2, 8
_TIG_iO_jXF2_1___uint32_identity_1_opaque_list_2:
	.zero	8
	.globl	_TIG_iO_jXF2_1___bswap_32_1_opaque_list_2
	.align 8
	.type	_TIG_iO_jXF2_1___bswap_32_1_opaque_list_2, @object
	.size	_TIG_iO_jXF2_1___bswap_32_1_opaque_list_2, 8
_TIG_iO_jXF2_1___bswap_32_1_opaque_list_2:
	.zero	8
	.globl	_TIG_iO_jXF2_1___bswap_32_1_opaque_ptr_2
	.align 8
	.type	_TIG_iO_jXF2_1___bswap_32_1_opaque_ptr_2, @object
	.size	_TIG_iO_jXF2_1___bswap_32_1_opaque_ptr_2, 8
_TIG_iO_jXF2_1___bswap_32_1_opaque_ptr_2:
	.zero	8
	.globl	last3sum
	.align 4
	.type	last3sum, @object
	.size	last3sum, 4
last3sum:
	.zero	4
	.globl	_TIG_iO_jXF2_1___bswap_64_1_opaque_ptr_1
	.align 8
	.type	_TIG_iO_jXF2_1___bswap_64_1_opaque_ptr_1, @object
	.size	_TIG_iO_jXF2_1___bswap_64_1_opaque_ptr_1, 8
_TIG_iO_jXF2_1___bswap_64_1_opaque_ptr_1:
	.zero	8
	.globl	_TIG_iO_jXF2_1___uint32_identity_1_opaque_list_1
	.align 8
	.type	_TIG_iO_jXF2_1___uint32_identity_1_opaque_list_1, @object
	.size	_TIG_iO_jXF2_1___uint32_identity_1_opaque_list_1, 8
_TIG_iO_jXF2_1___uint32_identity_1_opaque_list_1:
	.zero	8
	.globl	_TIG_iO_jXF2_1_main_1_opaque_ptr_1
	.align 8
	.type	_TIG_iO_jXF2_1_main_1_opaque_ptr_1, @object
	.size	_TIG_iO_jXF2_1_main_1_opaque_ptr_1, 8
_TIG_iO_jXF2_1_main_1_opaque_ptr_1:
	.zero	8
	.globl	_TIG_iO_jXF2_1___bswap_32_1_opaque_list_1
	.align 8
	.type	_TIG_iO_jXF2_1___bswap_32_1_opaque_list_1, @object
	.size	_TIG_iO_jXF2_1___bswap_32_1_opaque_list_1, 8
_TIG_iO_jXF2_1___bswap_32_1_opaque_list_1:
	.zero	8
	.globl	_TIG_iO_jXF2_1___bswap_16_1_opaque_ptr_2
	.align 8
	.type	_TIG_iO_jXF2_1___bswap_16_1_opaque_ptr_2, @object
	.size	_TIG_iO_jXF2_1___bswap_16_1_opaque_ptr_2, 8
_TIG_iO_jXF2_1___bswap_16_1_opaque_ptr_2:
	.zero	8
	.globl	_TIG_iO_jXF2_1___uint16_identity_1_opaque_ptr_2
	.align 8
	.type	_TIG_iO_jXF2_1___uint16_identity_1_opaque_ptr_2, @object
	.size	_TIG_iO_jXF2_1___uint16_identity_1_opaque_ptr_2, 8
_TIG_iO_jXF2_1___uint16_identity_1_opaque_ptr_2:
	.zero	8
	.globl	idx
	.align 4
	.type	idx, @object
	.size	idx, 4
idx:
	.zero	4
	.globl	_TIG_iO_jXF2_1___uint64_identity_1_opaque_list_1
	.align 8
	.type	_TIG_iO_jXF2_1___uint64_identity_1_opaque_list_1, @object
	.size	_TIG_iO_jXF2_1___uint64_identity_1_opaque_list_1, 8
_TIG_iO_jXF2_1___uint64_identity_1_opaque_list_1:
	.zero	8
	.globl	_TIG_iO_jXF2_1___uint32_identity_1_opaque_ptr_1
	.align 8
	.type	_TIG_iO_jXF2_1___uint32_identity_1_opaque_ptr_1, @object
	.size	_TIG_iO_jXF2_1___uint32_identity_1_opaque_ptr_1, 8
_TIG_iO_jXF2_1___uint32_identity_1_opaque_ptr_1:
	.zero	8
	.globl	_TIG_iO_jXF2_1___uint64_identity_1_opaque_ptr_1
	.align 8
	.type	_TIG_iO_jXF2_1___uint64_identity_1_opaque_ptr_1, @object
	.size	_TIG_iO_jXF2_1___uint64_identity_1_opaque_ptr_1, 8
_TIG_iO_jXF2_1___uint64_identity_1_opaque_ptr_1:
	.zero	8
	.globl	_TIG_iO_jXF2_1_solve_1_opaque_list_2
	.align 8
	.type	_TIG_iO_jXF2_1_solve_1_opaque_list_2, @object
	.size	_TIG_iO_jXF2_1_solve_1_opaque_list_2, 8
_TIG_iO_jXF2_1_solve_1_opaque_list_2:
	.zero	8
	.globl	_TIG_iO_jXF2_1___uint32_identity_1_opaque_ptr_2
	.align 8
	.type	_TIG_iO_jXF2_1___uint32_identity_1_opaque_ptr_2, @object
	.size	_TIG_iO_jXF2_1___uint32_identity_1_opaque_ptr_2, 8
_TIG_iO_jXF2_1___uint32_identity_1_opaque_ptr_2:
	.zero	8
	.globl	_TIG_iO_jXF2_1___bswap_32_1_opaque_ptr_1
	.align 8
	.type	_TIG_iO_jXF2_1___bswap_32_1_opaque_ptr_1, @object
	.size	_TIG_iO_jXF2_1___bswap_32_1_opaque_ptr_1, 8
_TIG_iO_jXF2_1___bswap_32_1_opaque_ptr_1:
	.zero	8
	.globl	_TIG_iO_jXF2_1___bswap_16_1_opaque_list_1
	.align 8
	.type	_TIG_iO_jXF2_1___bswap_16_1_opaque_list_1, @object
	.size	_TIG_iO_jXF2_1___bswap_16_1_opaque_list_1, 8
_TIG_iO_jXF2_1___bswap_16_1_opaque_list_1:
	.zero	8
	.globl	first3sum
	.align 4
	.type	first3sum, @object
	.size	first3sum, 4
first3sum:
	.zero	4
	.section	.rodata
.LC0:
	.string	"%d"
	.text
	.globl	main
	.type	main, @function
main:
.LFB3:
	.cfi_startproc
	endbr64
	pushq	%rbp
	.cfi_def_cfa_offset 16
	.cfi_offset 6, -16
	movq	%rsp, %rbp
	.cfi_def_cfa_register 6
	subq	$112, %rsp
	movl	%edi, -84(%rbp)
	movq	%rsi, -96(%rbp)
	movq	%rdx, -104(%rbp)
	movq	%fs:40, %rax
	movq	%rax, -8(%rbp)
	xorl	%eax, %eax
	movl	$0, last3sum(%rip)
	nop
.L2:
	movl	$0, first3sum(%rip)
	nop
.L3:
	movl	$0, idx(%rip)
	nop
.L4:
	movl	$0, -72(%rbp)
	jmp	.L5
.L6:
	movl	-72(%rbp), %eax
	cltq
	leaq	ticket(%rip), %rdx
	movb	$0, (%rax,%rdx)
	addl	$1, -72(%rbp)
.L5:
	cmpl	$6, -72(%rbp)
	jle	.L6
	nop
.L7:
	movq	$0, _TIG_IZ_jXF2_envp(%rip)
	nop
.L8:
	movq	$0, _TIG_IZ_jXF2_argv(%rip)
	nop
.L9:
	movl	$0, _TIG_IZ_jXF2_argc(%rip)
	nop
	nop
.L10:
.L11:
#APP
# 155 "/usr/include/x86_64-linux-gnu/bits/byteswap.h" 1
	##_ANNOTATION_INITIALREGION_-TIG-IZ-jXF2--0
# 0 "" 2
#NO_APP
	movl	-84(%rbp), %eax
	movl	%eax, _TIG_IZ_jXF2_argc(%rip)
	movq	-96(%rbp), %rax
	movq	%rax, _TIG_IZ_jXF2_argv(%rip)
	movq	-104(%rbp), %rax
	movq	%rax, _TIG_IZ_jXF2_envp(%rip)
#APP
# 162 "/usr/include/x86_64-linux-gnu/bits/byteswap.h" 1
	##_ANNOTATION_ATOMICREGION_-TIG-iO-jXF2-1-main--13
# 0 "" 2
#NO_APP
	movl	$24, %edi
	call	malloc@PLT
	movq	%rax, -48(%rbp)
	movq	-48(%rbp), %rax
	movq	-48(%rbp), %rdx
	movq	%rdx, (%rax)
	movq	-48(%rbp), %rax
	movq	-48(%rbp), %rdx
	movq	%rdx, 8(%rax)
	movq	-48(%rbp), %rax
	movq	%rax, _TIG_iO_jXF2_1_main_1_opaque_list_1(%rip)
	call	rand@PLT
	movl	%eax, -68(%rbp)
	movl	$24, %edi
	call	malloc@PLT
	movq	%rax, -40(%rbp)
	movq	-40(%rbp), %rax
	movl	$0, 16(%rax)
	movq	_TIG_iO_jXF2_1_main_1_opaque_list_1(%rip), %rax
	movq	(%rax), %rdx
	movq	-40(%rbp), %rax
	movq	%rdx, (%rax)
	movq	_TIG_iO_jXF2_1_main_1_opaque_list_1(%rip), %rdx
	movq	-40(%rbp), %rax
	movq	%rdx, 8(%rax)
	movq	_TIG_iO_jXF2_1_main_1_opaque_list_1(%rip), %rax
	movq	(%rax), %rax
	movq	-40(%rbp), %rdx
	movq	%rdx, 8(%rax)
	movq	_TIG_iO_jXF2_1_main_1_opaque_list_1(%rip), %rax
	movq	-40(%rbp), %rdx
	movq	%rdx, (%rax)
	call	rand@PLT
	movl	%eax, -64(%rbp)
	movl	$24, %edi
	call	malloc@PLT
	movq	%rax, -32(%rbp)
	movq	-32(%rbp), %rax
	movl	-64(%rbp), %edx
	movl	%edx, 16(%rax)
	movq	_TIG_iO_jXF2_1_main_1_opaque_list_1(%rip), %rax
	movq	(%rax), %rdx
	movq	-32(%rbp), %rax
	movq	%rdx, (%rax)
	movq	_TIG_iO_jXF2_1_main_1_opaque_list_1(%rip), %rdx
	movq	-32(%rbp), %rax
	movq	%rdx, 8(%rax)
	movq	_TIG_iO_jXF2_1_main_1_opaque_list_1(%rip), %rax
	movq	(%rax), %rax
	movq	-32(%rbp), %rdx
	movq	%rdx, 8(%rax)
	movq	_TIG_iO_jXF2_1_main_1_opaque_list_1(%rip), %rax
	movq	-32(%rbp), %rdx
	movq	%rdx, (%rax)
	call	rand@PLT
	movl	%eax, -60(%rbp)
	movl	$24, %edi
	call	malloc@PLT
	movq	%rax, -24(%rbp)
	movl	-60(%rbp), %eax
	leal	(%rax,%rax), %edx
	movq	-24(%rbp), %rax
	movl	%edx, 16(%rax)
	movq	_TIG_iO_jXF2_1_main_1_opaque_list_1(%rip), %rax
	movq	(%rax), %rdx
	movq	-24(%rbp), %rax
	movq	%rdx, (%rax)
	movq	_TIG_iO_jXF2_1_main_1_opaque_list_1(%rip), %rdx
	movq	-24(%rbp), %rax
	movq	%rdx, 8(%rax)
	movq	_TIG_iO_jXF2_1_main_1_opaque_list_1(%rip), %rax
	movq	(%rax), %rax
	movq	-24(%rbp), %rdx
	movq	%rdx, 8(%rax)
	movq	_TIG_iO_jXF2_1_main_1_opaque_list_1(%rip), %rax
	movq	-24(%rbp), %rdx
	movq	%rdx, (%rax)
	call	rand@PLT
	movl	%eax, -56(%rbp)
	movl	$24, %edi
	call	malloc@PLT
	movq	%rax, -16(%rbp)
	movl	-56(%rbp), %edx
	movl	%edx, %eax
	addl	%eax, %eax
	addl	%eax, %edx
	movq	-16(%rbp), %rax
	movl	%edx, 16(%rax)
	movq	_TIG_iO_jXF2_1_main_1_opaque_list_1(%rip), %rax
	movq	(%rax), %rdx
	movq	-16(%rbp), %rax
	movq	%rdx, (%rax)
	movq	_TIG_iO_jXF2_1_main_1_opaque_list_1(%rip), %rdx
	movq	-16(%rbp), %rax
	movq	%rdx, 8(%rax)
	movq	_TIG_iO_jXF2_1_main_1_opaque_list_1(%rip), %rax
	movq	(%rax), %rax
	movq	-16(%rbp), %rdx
	movq	%rdx, 8(%rax)
	movq	_TIG_iO_jXF2_1_main_1_opaque_list_1(%rip), %rax
	movq	-16(%rbp), %rdx
	movq	%rdx, (%rax)
	movq	_TIG_iO_jXF2_1_main_1_opaque_list_1(%rip), %rax
	movq	(%rax), %rax
	movq	%rax, _TIG_iO_jXF2_1_main_1_opaque_ptr_1(%rip)
	movq	_TIG_iO_jXF2_1_main_1_opaque_ptr_1(%rip), %rax
	movq	%rax, _TIG_iO_jXF2_1_main_1_opaque_ptr_2(%rip)
	movq	_TIG_iO_jXF2_1_main_1_opaque_ptr_2(%rip), %rax
	movq	(%rax), %rax
	movq	%rax, _TIG_iO_jXF2_1_main_1_opaque_ptr_2(%rip)
	nop
	nop
	movq	_TIG_iO_jXF2_1_solve_1_opaque_ptr_1(%rip), %rdx
	movq	_TIG_iO_jXF2_1_solve_1_opaque_ptr_2(%rip), %rax
	cmpq	%rax, %rdx
	jne	.L15
	leaq	-76(%rbp), %rax
	movq	%rax, %rsi
	leaq	.LC0(%rip), %rax
	movq	%rax, %rdi
	movl	$0, %eax
	call	__isoc99_scanf@PLT
	call	getchar@PLT
.L15:
	movl	-76(%rbp), %eax
	movl	%eax, -52(%rbp)
	movl	-76(%rbp), %eax
	subl	$1, %eax
	movl	%eax, -76(%rbp)
	cmpl	$0, -52(%rbp)
	je	.L19
	call	solve
	jmp	.L15
.L19:
	nop
	movl	$0, %eax
	movq	-8(%rbp), %rdx
	subq	%fs:40, %rdx
	je	.L17
	call	__stack_chk_fail@PLT
.L17:
	leave
	.cfi_def_cfa 7, 8
	ret
	.cfi_endproc
.LFE3:
	.size	main, .-main
	.section	.rodata
.LC1:
	.string	"%s"
.LC2:
	.string	"YES"
.LC3:
	.string	"NO"
	.text
	.globl	solve
	.type	solve, @function
solve:
.LFB7:
	.cfi_startproc
	endbr64
	pushq	%rbp
	.cfi_def_cfa_offset 16
	.cfi_offset 6, -16
	movq	%rsp, %rbp
	.cfi_def_cfa_register 6
	subq	$48, %rsp
#APP
# 54 "/usr/include/x86_64-linux-gnu/bits/uintn-identity.h" 1
	##_ANNOTATION_INITIALREGION_-TIG-iO-jXF2-1-solve--16
# 0 "" 2
# 58 "/usr/include/x86_64-linux-gnu/bits/uintn-identity.h" 1
	##_ANNOTATION_ATOMICREGION_-TIG-iO-jXF2-1-solve--15
# 0 "" 2
#NO_APP
	movl	$24, %edi
	call	malloc@PLT
	movq	%rax, -24(%rbp)
	movq	-24(%rbp), %rax
	movq	-24(%rbp), %rdx
	movq	%rdx, 16(%rax)
	movq	-24(%rbp), %rax
	movq	-24(%rbp), %rdx
	movq	%rdx, 8(%rax)
	movq	-24(%rbp), %rax
	movq	%rax, _TIG_iO_jXF2_1_solve_1_opaque_list_1(%rip)
	call	rand@PLT
	movl	%eax, -40(%rbp)
	movl	$24, %edi
	call	malloc@PLT
	movq	%rax, -16(%rbp)
	movq	-16(%rbp), %rax
	movl	$0, (%rax)
	movq	_TIG_iO_jXF2_1_solve_1_opaque_list_1(%rip), %rax
	movq	16(%rax), %rdx
	movq	-16(%rbp), %rax
	movq	%rdx, 16(%rax)
	movq	_TIG_iO_jXF2_1_solve_1_opaque_list_1(%rip), %rdx
	movq	-16(%rbp), %rax
	movq	%rdx, 8(%rax)
	movq	_TIG_iO_jXF2_1_solve_1_opaque_list_1(%rip), %rax
	movq	16(%rax), %rax
	movq	-16(%rbp), %rdx
	movq	%rdx, 8(%rax)
	movq	_TIG_iO_jXF2_1_solve_1_opaque_list_1(%rip), %rax
	movq	-16(%rbp), %rdx
	movq	%rdx, 16(%rax)
	call	rand@PLT
	movl	%eax, -36(%rbp)
	movl	$24, %edi
	call	malloc@PLT
	movq	%rax, -8(%rbp)
	movq	-8(%rbp), %rax
	movl	-36(%rbp), %edx
	movl	%edx, (%rax)
	movq	_TIG_iO_jXF2_1_solve_1_opaque_list_1(%rip), %rax
	movq	16(%rax), %rdx
	movq	-8(%rbp), %rax
	movq	%rdx, 16(%rax)
	movq	_TIG_iO_jXF2_1_solve_1_opaque_list_1(%rip), %rdx
	movq	-8(%rbp), %rax
	movq	%rdx, 8(%rax)
	movq	_TIG_iO_jXF2_1_solve_1_opaque_list_1(%rip), %rax
	movq	16(%rax), %rax
	movq	-8(%rbp), %rdx
	movq	%rdx, 8(%rax)
	movq	_TIG_iO_jXF2_1_solve_1_opaque_list_1(%rip), %rax
	movq	-8(%rbp), %rdx
	movq	%rdx, 16(%rax)
	movq	_TIG_iO_jXF2_1_solve_1_opaque_list_1(%rip), %rax
	movq	16(%rax), %rax
	movq	%rax, _TIG_iO_jXF2_1_solve_1_opaque_ptr_1(%rip)
	movq	_TIG_iO_jXF2_1_solve_1_opaque_ptr_1(%rip), %rax
	movq	%rax, _TIG_iO_jXF2_1_solve_1_opaque_ptr_2(%rip)
	nop
	nop
	movl	$0, first3sum(%rip)
	movl	$0, last3sum(%rip)
	leaq	ticket(%rip), %rax
	movq	%rax, %rsi
	leaq	.LC1(%rip), %rax
	movq	%rax, %rdi
	movl	$0, %eax
	call	__isoc99_scanf@PLT
	movl	$0, idx(%rip)
	jmp	.L21
.L27:
	movl	idx(%rip), %eax
	cmpl	$2, %eax
	jg	.L22
	testl	%eax, %eax
	jns	.L23
	jmp	.L33
.L22:
	subl	$3, %eax
	cmpl	$2, %eax
	ja	.L33
	jmp	.L32
.L23:
	movl	idx(%rip), %eax
	cltq
	leaq	ticket(%rip), %rdx
	movzbl	(%rax,%rdx), %eax
	movsbl	%al, %eax
	leal	-48(%rax), %edx
	movl	first3sum(%rip), %eax
	addl	%edx, %eax
	movl	%eax, first3sum(%rip)
	jmp	.L26
.L32:
	movl	idx(%rip), %eax
	cltq
	leaq	ticket(%rip), %rdx
	movzbl	(%rax,%rdx), %eax
	movsbl	%al, %eax
	leal	-48(%rax), %edx
	movl	last3sum(%rip), %eax
	addl	%edx, %eax
	movl	%eax, last3sum(%rip)
	jmp	.L26
.L33:
	nop
.L26:
	movl	idx(%rip), %eax
	addl	$1, %eax
	movl	%eax, idx(%rip)
.L21:
	movl	idx(%rip), %eax
	cltq
	leaq	ticket(%rip), %rdx
	movzbl	(%rax,%rdx), %eax
	testb	%al, %al
	jne	.L27
	movl	first3sum(%rip), %edx
	movl	last3sum(%rip), %eax
	cmpl	%eax, %edx
	jne	.L28
	leaq	.LC2(%rip), %rax
	movq	%rax, -32(%rbp)
	jmp	.L29
.L28:
	leaq	.LC3(%rip), %rax
	movq	%rax, -32(%rbp)
.L29:
	movq	_TIG_iO_jXF2_1_solve_1_opaque_ptr_1(%rip), %rdx
	movq	_TIG_iO_jXF2_1_solve_1_opaque_ptr_2(%rip), %rax
	cmpq	%rax, %rdx
	jne	.L34
	movq	-32(%rbp), %rax
	movq	%rax, %rdi
	call	puts@PLT
	nop
.L34:
	nop
	leave
	.cfi_def_cfa 7, 8
	ret
	.cfi_endproc
.LFE7:
	.size	solve, .-solve
	.ident	"GCC: (Ubuntu 11.4.0-1ubuntu1~22.04) 11.4.0"
	.section	.note.GNU-stack,"",@progbits
	.section	.note.gnu.property,"a"
	.align 8
	.long	1f - 0f
	.long	4f - 1f
	.long	5
0:
	.string	"GNU"
1:
	.align 8
	.long	0xc0000002
	.long	3f - 2f
2:
	.long	0x3
3:
	.align 8
4:
