	.file	"stupidJoon_algorithm_1924_opaque.c"
	.text
	.globl	_TIG_iO_Z5fV_1_main_1_opaque_ptr_2
	.bss
	.align 8
	.type	_TIG_iO_Z5fV_1_main_1_opaque_ptr_2, @object
	.size	_TIG_iO_Z5fV_1_main_1_opaque_ptr_2, 8
_TIG_iO_Z5fV_1_main_1_opaque_ptr_2:
	.zero	8
	.globl	_TIG_iO_Z5fV_1_main_1_opaque_ptr_1
	.align 8
	.type	_TIG_iO_Z5fV_1_main_1_opaque_ptr_1, @object
	.size	_TIG_iO_Z5fV_1_main_1_opaque_ptr_1, 8
_TIG_iO_Z5fV_1_main_1_opaque_ptr_1:
	.zero	8
	.globl	_TIG_iO_Z5fV_1___bswap_16_1_opaque_list_2
	.align 8
	.type	_TIG_iO_Z5fV_1___bswap_16_1_opaque_list_2, @object
	.size	_TIG_iO_Z5fV_1___bswap_16_1_opaque_list_2, 8
_TIG_iO_Z5fV_1___bswap_16_1_opaque_list_2:
	.zero	8
	.globl	_TIG_iO_Z5fV_1___uint16_identity_1_opaque_ptr_2
	.align 8
	.type	_TIG_iO_Z5fV_1___uint16_identity_1_opaque_ptr_2, @object
	.size	_TIG_iO_Z5fV_1___uint16_identity_1_opaque_ptr_2, 8
_TIG_iO_Z5fV_1___uint16_identity_1_opaque_ptr_2:
	.zero	8
	.globl	_TIG_iO_Z5fV_1___uint16_identity_1_opaque_list_1
	.align 8
	.type	_TIG_iO_Z5fV_1___uint16_identity_1_opaque_list_1, @object
	.size	_TIG_iO_Z5fV_1___uint16_identity_1_opaque_list_1, 8
_TIG_iO_Z5fV_1___uint16_identity_1_opaque_list_1:
	.zero	8
	.globl	_TIG_iO_Z5fV_1___bswap_16_1_opaque_ptr_2
	.align 8
	.type	_TIG_iO_Z5fV_1___bswap_16_1_opaque_ptr_2, @object
	.size	_TIG_iO_Z5fV_1___bswap_16_1_opaque_ptr_2, 8
_TIG_iO_Z5fV_1___bswap_16_1_opaque_ptr_2:
	.zero	8
	.globl	_TIG_iO_Z5fV_1___bswap_32_1_opaque_list_1
	.align 8
	.type	_TIG_iO_Z5fV_1___bswap_32_1_opaque_list_1, @object
	.size	_TIG_iO_Z5fV_1___bswap_32_1_opaque_list_1, 8
_TIG_iO_Z5fV_1___bswap_32_1_opaque_list_1:
	.zero	8
	.globl	_TIG_iO_Z5fV_1___bswap_32_1_opaque_list_2
	.align 8
	.type	_TIG_iO_Z5fV_1___bswap_32_1_opaque_list_2, @object
	.size	_TIG_iO_Z5fV_1___bswap_32_1_opaque_list_2, 8
_TIG_iO_Z5fV_1___bswap_32_1_opaque_list_2:
	.zero	8
	.globl	_TIG_iO_Z5fV_1___bswap_64_1_opaque_ptr_1
	.align 8
	.type	_TIG_iO_Z5fV_1___bswap_64_1_opaque_ptr_1, @object
	.size	_TIG_iO_Z5fV_1___bswap_64_1_opaque_ptr_1, 8
_TIG_iO_Z5fV_1___bswap_64_1_opaque_ptr_1:
	.zero	8
	.globl	_TIG_iO_Z5fV_1___bswap_64_1_opaque_ptr_2
	.align 8
	.type	_TIG_iO_Z5fV_1___bswap_64_1_opaque_ptr_2, @object
	.size	_TIG_iO_Z5fV_1___bswap_64_1_opaque_ptr_2, 8
_TIG_iO_Z5fV_1___bswap_64_1_opaque_ptr_2:
	.zero	8
	.globl	_TIG_iO_Z5fV_1___uint32_identity_1_opaque_ptr_2
	.align 8
	.type	_TIG_iO_Z5fV_1___uint32_identity_1_opaque_ptr_2, @object
	.size	_TIG_iO_Z5fV_1___uint32_identity_1_opaque_ptr_2, 8
_TIG_iO_Z5fV_1___uint32_identity_1_opaque_ptr_2:
	.zero	8
	.globl	_TIG_iO_Z5fV_1_main_1_opaque_list_1
	.align 8
	.type	_TIG_iO_Z5fV_1_main_1_opaque_list_1, @object
	.size	_TIG_iO_Z5fV_1_main_1_opaque_list_1, 8
_TIG_iO_Z5fV_1_main_1_opaque_list_1:
	.zero	8
	.globl	_TIG_IZ_Z5fV_argc
	.align 4
	.type	_TIG_IZ_Z5fV_argc, @object
	.size	_TIG_IZ_Z5fV_argc, 4
_TIG_IZ_Z5fV_argc:
	.zero	4
	.globl	_TIG_iO_Z5fV_1___uint32_identity_1_opaque_list_2
	.align 8
	.type	_TIG_iO_Z5fV_1___uint32_identity_1_opaque_list_2, @object
	.size	_TIG_iO_Z5fV_1___uint32_identity_1_opaque_list_2, 8
_TIG_iO_Z5fV_1___uint32_identity_1_opaque_list_2:
	.zero	8
	.globl	_TIG_iO_Z5fV_1___bswap_64_1_opaque_list_1
	.align 8
	.type	_TIG_iO_Z5fV_1___bswap_64_1_opaque_list_1, @object
	.size	_TIG_iO_Z5fV_1___bswap_64_1_opaque_list_1, 8
_TIG_iO_Z5fV_1___bswap_64_1_opaque_list_1:
	.zero	8
	.globl	_TIG_iO_Z5fV_1___uint64_identity_1_opaque_list_2
	.align 8
	.type	_TIG_iO_Z5fV_1___uint64_identity_1_opaque_list_2, @object
	.size	_TIG_iO_Z5fV_1___uint64_identity_1_opaque_list_2, 8
_TIG_iO_Z5fV_1___uint64_identity_1_opaque_list_2:
	.zero	8
	.globl	_TIG_iO_Z5fV_1___bswap_16_1_opaque_list_1
	.align 8
	.type	_TIG_iO_Z5fV_1___bswap_16_1_opaque_list_1, @object
	.size	_TIG_iO_Z5fV_1___bswap_16_1_opaque_list_1, 8
_TIG_iO_Z5fV_1___bswap_16_1_opaque_list_1:
	.zero	8
	.globl	_TIG_iO_Z5fV_1___uint64_identity_1_opaque_ptr_2
	.align 8
	.type	_TIG_iO_Z5fV_1___uint64_identity_1_opaque_ptr_2, @object
	.size	_TIG_iO_Z5fV_1___uint64_identity_1_opaque_ptr_2, 8
_TIG_iO_Z5fV_1___uint64_identity_1_opaque_ptr_2:
	.zero	8
	.globl	_TIG_iO_Z5fV_1___bswap_32_1_opaque_ptr_2
	.align 8
	.type	_TIG_iO_Z5fV_1___bswap_32_1_opaque_ptr_2, @object
	.size	_TIG_iO_Z5fV_1___bswap_32_1_opaque_ptr_2, 8
_TIG_iO_Z5fV_1___bswap_32_1_opaque_ptr_2:
	.zero	8
	.globl	_TIG_iO_Z5fV_1___uint64_identity_1_opaque_list_1
	.align 8
	.type	_TIG_iO_Z5fV_1___uint64_identity_1_opaque_list_1, @object
	.size	_TIG_iO_Z5fV_1___uint64_identity_1_opaque_list_1, 8
_TIG_iO_Z5fV_1___uint64_identity_1_opaque_list_1:
	.zero	8
	.globl	_TIG_iO_Z5fV_1___bswap_32_1_opaque_ptr_1
	.align 8
	.type	_TIG_iO_Z5fV_1___bswap_32_1_opaque_ptr_1, @object
	.size	_TIG_iO_Z5fV_1___bswap_32_1_opaque_ptr_1, 8
_TIG_iO_Z5fV_1___bswap_32_1_opaque_ptr_1:
	.zero	8
	.globl	_TIG_IZ_Z5fV_argv
	.align 8
	.type	_TIG_IZ_Z5fV_argv, @object
	.size	_TIG_IZ_Z5fV_argv, 8
_TIG_IZ_Z5fV_argv:
	.zero	8
	.globl	_TIG_IZ_Z5fV_envp
	.align 8
	.type	_TIG_IZ_Z5fV_envp, @object
	.size	_TIG_IZ_Z5fV_envp, 8
_TIG_IZ_Z5fV_envp:
	.zero	8
	.globl	_TIG_iO_Z5fV_1___uint32_identity_1_opaque_list_1
	.align 8
	.type	_TIG_iO_Z5fV_1___uint32_identity_1_opaque_list_1, @object
	.size	_TIG_iO_Z5fV_1___uint32_identity_1_opaque_list_1, 8
_TIG_iO_Z5fV_1___uint32_identity_1_opaque_list_1:
	.zero	8
	.globl	_TIG_iO_Z5fV_1___bswap_64_1_opaque_list_2
	.align 8
	.type	_TIG_iO_Z5fV_1___bswap_64_1_opaque_list_2, @object
	.size	_TIG_iO_Z5fV_1___bswap_64_1_opaque_list_2, 8
_TIG_iO_Z5fV_1___bswap_64_1_opaque_list_2:
	.zero	8
	.globl	_TIG_iO_Z5fV_1_main_1_opaque_list_2
	.align 8
	.type	_TIG_iO_Z5fV_1_main_1_opaque_list_2, @object
	.size	_TIG_iO_Z5fV_1_main_1_opaque_list_2, 8
_TIG_iO_Z5fV_1_main_1_opaque_list_2:
	.zero	8
	.globl	_TIG_iO_Z5fV_1___uint16_identity_1_opaque_list_2
	.align 8
	.type	_TIG_iO_Z5fV_1___uint16_identity_1_opaque_list_2, @object
	.size	_TIG_iO_Z5fV_1___uint16_identity_1_opaque_list_2, 8
_TIG_iO_Z5fV_1___uint16_identity_1_opaque_list_2:
	.zero	8
	.globl	_TIG_iO_Z5fV_1___uint64_identity_1_opaque_ptr_1
	.align 8
	.type	_TIG_iO_Z5fV_1___uint64_identity_1_opaque_ptr_1, @object
	.size	_TIG_iO_Z5fV_1___uint64_identity_1_opaque_ptr_1, 8
_TIG_iO_Z5fV_1___uint64_identity_1_opaque_ptr_1:
	.zero	8
	.globl	_TIG_iO_Z5fV_1___bswap_16_1_opaque_ptr_1
	.align 8
	.type	_TIG_iO_Z5fV_1___bswap_16_1_opaque_ptr_1, @object
	.size	_TIG_iO_Z5fV_1___bswap_16_1_opaque_ptr_1, 8
_TIG_iO_Z5fV_1___bswap_16_1_opaque_ptr_1:
	.zero	8
	.globl	_TIG_iO_Z5fV_1___uint32_identity_1_opaque_ptr_1
	.align 8
	.type	_TIG_iO_Z5fV_1___uint32_identity_1_opaque_ptr_1, @object
	.size	_TIG_iO_Z5fV_1___uint32_identity_1_opaque_ptr_1, 8
_TIG_iO_Z5fV_1___uint32_identity_1_opaque_ptr_1:
	.zero	8
	.globl	_TIG_iO_Z5fV_1___uint16_identity_1_opaque_ptr_1
	.align 8
	.type	_TIG_iO_Z5fV_1___uint16_identity_1_opaque_ptr_1, @object
	.size	_TIG_iO_Z5fV_1___uint16_identity_1_opaque_ptr_1, 8
_TIG_iO_Z5fV_1___uint16_identity_1_opaque_ptr_1:
	.zero	8
	.section	.rodata
.LC0:
	.string	"%d %d"
.LC1:
	.string	"SUN"
.LC2:
	.string	"MON"
.LC3:
	.string	"TUE"
.LC4:
	.string	"WED"
.LC5:
	.string	"THU"
.LC6:
	.string	"FRI"
.LC7:
	.string	"SAT"
	.text
	.globl	main
	.type	main, @function
main:
.LFB6:
	.cfi_startproc
	endbr64
	pushq	%rbp
	.cfi_def_cfa_offset 16
	.cfi_offset 6, -16
	movq	%rsp, %rbp
	.cfi_def_cfa_register 6
	subq	$112, %rsp
	movl	%edi, -84(%rbp)
	movq	%rsi, -96(%rbp)
	movq	%rdx, -104(%rbp)
	movq	%fs:40, %rax
	movq	%rax, -8(%rbp)
	xorl	%eax, %eax
	movq	$0, _TIG_IZ_Z5fV_envp(%rip)
	nop
.L2:
	movq	$0, _TIG_IZ_Z5fV_argv(%rip)
	nop
.L3:
	movl	$0, _TIG_IZ_Z5fV_argc(%rip)
	nop
	nop
.L4:
.L5:
#APP
# 102 "/usr/include/x86_64-linux-gnu/bits/uintn-identity.h" 1
	##_ANNOTATION_INITIALREGION_-TIG-IZ-Z5fV--0
# 0 "" 2
#NO_APP
	movl	-84(%rbp), %eax
	movl	%eax, _TIG_IZ_Z5fV_argc(%rip)
	movq	-96(%rbp), %rax
	movq	%rax, _TIG_IZ_Z5fV_argv(%rip)
	movq	-104(%rbp), %rax
	movq	%rax, _TIG_IZ_Z5fV_envp(%rip)
#APP
# 109 "/usr/include/x86_64-linux-gnu/bits/uintn-identity.h" 1
	##_ANNOTATION_ATOMICREGION_-TIG-iO-Z5fV-1-main--13
# 0 "" 2
#NO_APP
	movl	$24, %edi
	call	malloc@PLT
	movq	%rax, -48(%rbp)
	movq	-48(%rbp), %rax
	movq	-48(%rbp), %rdx
	movq	%rdx, (%rax)
	movq	-48(%rbp), %rax
	movq	-48(%rbp), %rdx
	movq	%rdx, 8(%rax)
	movq	-48(%rbp), %rax
	movq	%rax, _TIG_iO_Z5fV_1_main_1_opaque_list_1(%rip)
	call	rand@PLT
	movl	%eax, -64(%rbp)
	movl	$24, %edi
	call	malloc@PLT
	movq	%rax, -40(%rbp)
	movq	-40(%rbp), %rax
	movl	$0, 16(%rax)
	movq	_TIG_iO_Z5fV_1_main_1_opaque_list_1(%rip), %rax
	movq	(%rax), %rdx
	movq	-40(%rbp), %rax
	movq	%rdx, (%rax)
	movq	_TIG_iO_Z5fV_1_main_1_opaque_list_1(%rip), %rdx
	movq	-40(%rbp), %rax
	movq	%rdx, 8(%rax)
	movq	_TIG_iO_Z5fV_1_main_1_opaque_list_1(%rip), %rax
	movq	(%rax), %rax
	movq	-40(%rbp), %rdx
	movq	%rdx, 8(%rax)
	movq	_TIG_iO_Z5fV_1_main_1_opaque_list_1(%rip), %rax
	movq	-40(%rbp), %rdx
	movq	%rdx, (%rax)
	call	rand@PLT
	movl	%eax, -60(%rbp)
	movl	$24, %edi
	call	malloc@PLT
	movq	%rax, -32(%rbp)
	movq	-32(%rbp), %rax
	movl	-60(%rbp), %edx
	movl	%edx, 16(%rax)
	movq	_TIG_iO_Z5fV_1_main_1_opaque_list_1(%rip), %rax
	movq	(%rax), %rdx
	movq	-32(%rbp), %rax
	movq	%rdx, (%rax)
	movq	_TIG_iO_Z5fV_1_main_1_opaque_list_1(%rip), %rdx
	movq	-32(%rbp), %rax
	movq	%rdx, 8(%rax)
	movq	_TIG_iO_Z5fV_1_main_1_opaque_list_1(%rip), %rax
	movq	(%rax), %rax
	movq	-32(%rbp), %rdx
	movq	%rdx, 8(%rax)
	movq	_TIG_iO_Z5fV_1_main_1_opaque_list_1(%rip), %rax
	movq	-32(%rbp), %rdx
	movq	%rdx, (%rax)
	call	rand@PLT
	movl	%eax, -56(%rbp)
	movl	$24, %edi
	call	malloc@PLT
	movq	%rax, -24(%rbp)
	movl	-56(%rbp), %eax
	leal	(%rax,%rax), %edx
	movq	-24(%rbp), %rax
	movl	%edx, 16(%rax)
	movq	_TIG_iO_Z5fV_1_main_1_opaque_list_1(%rip), %rax
	movq	(%rax), %rdx
	movq	-24(%rbp), %rax
	movq	%rdx, (%rax)
	movq	_TIG_iO_Z5fV_1_main_1_opaque_list_1(%rip), %rdx
	movq	-24(%rbp), %rax
	movq	%rdx, 8(%rax)
	movq	_TIG_iO_Z5fV_1_main_1_opaque_list_1(%rip), %rax
	movq	(%rax), %rax
	movq	-24(%rbp), %rdx
	movq	%rdx, 8(%rax)
	movq	_TIG_iO_Z5fV_1_main_1_opaque_list_1(%rip), %rax
	movq	-24(%rbp), %rdx
	movq	%rdx, (%rax)
	call	rand@PLT
	movl	%eax, -52(%rbp)
	movl	$24, %edi
	call	malloc@PLT
	movq	%rax, -16(%rbp)
	movl	-52(%rbp), %edx
	movl	%edx, %eax
	addl	%eax, %eax
	addl	%eax, %edx
	movq	-16(%rbp), %rax
	movl	%edx, 16(%rax)
	movq	_TIG_iO_Z5fV_1_main_1_opaque_list_1(%rip), %rax
	movq	(%rax), %rdx
	movq	-16(%rbp), %rax
	movq	%rdx, (%rax)
	movq	_TIG_iO_Z5fV_1_main_1_opaque_list_1(%rip), %rdx
	movq	-16(%rbp), %rax
	movq	%rdx, 8(%rax)
	movq	_TIG_iO_Z5fV_1_main_1_opaque_list_1(%rip), %rax
	movq	(%rax), %rax
	movq	-16(%rbp), %rdx
	movq	%rdx, 8(%rax)
	movq	_TIG_iO_Z5fV_1_main_1_opaque_list_1(%rip), %rax
	movq	-16(%rbp), %rdx
	movq	%rdx, (%rax)
	movq	_TIG_iO_Z5fV_1_main_1_opaque_list_1(%rip), %rax
	movq	(%rax), %rax
	movq	%rax, _TIG_iO_Z5fV_1_main_1_opaque_ptr_1(%rip)
	movq	_TIG_iO_Z5fV_1_main_1_opaque_ptr_1(%rip), %rax
	movq	%rax, _TIG_iO_Z5fV_1_main_1_opaque_ptr_2(%rip)
	movq	_TIG_iO_Z5fV_1_main_1_opaque_ptr_2(%rip), %rax
	movq	(%rax), %rax
	movq	%rax, _TIG_iO_Z5fV_1_main_1_opaque_ptr_2(%rip)
	nop
	nop
	leaq	-76(%rbp), %rdx
	leaq	-80(%rbp), %rax
	movq	%rax, %rsi
	leaq	.LC0(%rip), %rax
	movq	%rax, %rdi
	movl	$0, %eax
	call	__isoc99_scanf@PLT
	movl	-76(%rbp), %eax
	movl	%eax, -72(%rbp)
	movl	$1, -68(%rbp)
	jmp	.L6
.L14:
	cmpl	$2, -68(%rbp)
	jne	.L7
	addl	$28, -72(%rbp)
	jmp	.L8
.L7:
	cmpl	$4, -68(%rbp)
	jne	.L9
	addl	$30, -72(%rbp)
	jmp	.L8
.L9:
	cmpl	$6, -68(%rbp)
	jne	.L10
	addl	$30, -72(%rbp)
	jmp	.L8
.L10:
	cmpl	$9, -68(%rbp)
	jne	.L11
	addl	$30, -72(%rbp)
	jmp	.L8
.L11:
	cmpl	$11, -68(%rbp)
	jne	.L12
	addl	$30, -72(%rbp)
	jmp	.L8
.L12:
	movq	_TIG_iO_Z5fV_1_main_1_opaque_ptr_1(%rip), %rdx
	movq	_TIG_iO_Z5fV_1_main_1_opaque_ptr_2(%rip), %rax
	cmpq	%rax, %rdx
	jne	.L13
	movq	-96(%rbp), %rdx
	movq	-104(%rbp), %rcx
	movl	-52(%rbp), %eax
	movq	%rcx, %rsi
	movl	%eax, %edi
	call	main
	movl	%eax, -72(%rbp)
.L13:
	addl	$31, -72(%rbp)
.L8:
	addl	$1, -68(%rbp)
.L6:
	movl	-80(%rbp), %eax
	cmpl	%eax, -68(%rbp)
	jl	.L14
	movl	-72(%rbp), %edx
	movslq	%edx, %rax
	imulq	$-1840700269, %rax, %rax
	shrq	$32, %rax
	addl	%edx, %eax
	sarl	$2, %eax
	movl	%edx, %ecx
	sarl	$31, %ecx
	subl	%ecx, %eax
	movl	%eax, %ecx
	sall	$3, %ecx
	subl	%eax, %ecx
	movl	%edx, %eax
	subl	%ecx, %eax
	cmpl	$6, %eax
	ja	.L15
	movl	%eax, %eax
	leaq	0(,%rax,4), %rdx
	leaq	.L17(%rip), %rax
	movl	(%rdx,%rax), %eax
	cltq
	leaq	.L17(%rip), %rdx
	addq	%rdx, %rax
	notrack jmp	*%rax
	.section	.rodata
	.align 4
	.align 4
.L17:
	.long	.L23-.L17
	.long	.L22-.L17
	.long	.L21-.L17
	.long	.L20-.L17
	.long	.L19-.L17
	.long	.L18-.L17
	.long	.L16-.L17
	.text
.L23:
	leaq	.LC1(%rip), %rax
	movq	%rax, %rdi
	movl	$0, %eax
	call	printf@PLT
	jmp	.L15
.L22:
	leaq	.LC2(%rip), %rax
	movq	%rax, %rdi
	movl	$0, %eax
	call	printf@PLT
	jmp	.L15
.L21:
	leaq	.LC3(%rip), %rax
	movq	%rax, %rdi
	movl	$0, %eax
	call	printf@PLT
	jmp	.L15
.L20:
	leaq	.LC4(%rip), %rax
	movq	%rax, %rdi
	movl	$0, %eax
	call	printf@PLT
	jmp	.L15
.L19:
	leaq	.LC5(%rip), %rax
	movq	%rax, %rdi
	movl	$0, %eax
	call	printf@PLT
	jmp	.L15
.L18:
	leaq	.LC6(%rip), %rax
	movq	%rax, %rdi
	movl	$0, %eax
	call	printf@PLT
	jmp	.L15
.L16:
	leaq	.LC7(%rip), %rax
	movq	%rax, %rdi
	movl	$0, %eax
	call	printf@PLT
	nop
.L15:
	movl	$0, %eax
	movq	-8(%rbp), %rdx
	subq	%fs:40, %rdx
	je	.L25
	call	__stack_chk_fail@PLT
.L25:
	leave
	.cfi_def_cfa 7, 8
	ret
	.cfi_endproc
.LFE6:
	.size	main, .-main
	.ident	"GCC: (Ubuntu 11.4.0-1ubuntu1~22.04) 11.4.0"
	.section	.note.GNU-stack,"",@progbits
	.section	.note.gnu.property,"a"
	.align 8
	.long	1f - 0f
	.long	4f - 1f
	.long	5
0:
	.string	"GNU"
1:
	.align 8
	.long	0xc0000002
	.long	3f - 2f
2:
	.long	0x3
3:
	.align 8
4:
