	.file	"timber-they_AdventOfCode21_4_opaque.c"
	.text
	.globl	_TIG_iO_IAnR_1___bswap_32_1_opaque_ptr_1
	.bss
	.align 8
	.type	_TIG_iO_IAnR_1___bswap_32_1_opaque_ptr_1, @object
	.size	_TIG_iO_IAnR_1___bswap_32_1_opaque_ptr_1, 8
_TIG_iO_IAnR_1___bswap_32_1_opaque_ptr_1:
	.zero	8
	.globl	_TIG_iO_IAnR_1_readBoards_1_opaque_list_1
	.align 8
	.type	_TIG_iO_IAnR_1_readBoards_1_opaque_list_1, @object
	.size	_TIG_iO_IAnR_1_readBoards_1_opaque_list_1, 8
_TIG_iO_IAnR_1_readBoards_1_opaque_list_1:
	.zero	8
	.globl	_TIG_iO_IAnR_1___bswap_32_1_opaque_list_2
	.align 8
	.type	_TIG_iO_IAnR_1___bswap_32_1_opaque_list_2, @object
	.size	_TIG_iO_IAnR_1___bswap_32_1_opaque_list_2, 8
_TIG_iO_IAnR_1___bswap_32_1_opaque_list_2:
	.zero	8
	.globl	_TIG_iO_IAnR_1_readNumbers_1_opaque_ptr_2
	.align 8
	.type	_TIG_iO_IAnR_1_readNumbers_1_opaque_ptr_2, @object
	.size	_TIG_iO_IAnR_1_readNumbers_1_opaque_ptr_2, 8
_TIG_iO_IAnR_1_readNumbers_1_opaque_ptr_2:
	.zero	8
	.globl	_TIG_iO_IAnR_1___bswap_16_1_opaque_list_1
	.align 8
	.type	_TIG_iO_IAnR_1___bswap_16_1_opaque_list_1, @object
	.size	_TIG_iO_IAnR_1___bswap_16_1_opaque_list_1, 8
_TIG_iO_IAnR_1___bswap_16_1_opaque_list_1:
	.zero	8
	.globl	_TIG_iO_IAnR_1_hasWon_1_opaque_ptr_1
	.align 8
	.type	_TIG_iO_IAnR_1_hasWon_1_opaque_ptr_1, @object
	.size	_TIG_iO_IAnR_1_hasWon_1_opaque_ptr_1, 8
_TIG_iO_IAnR_1_hasWon_1_opaque_ptr_1:
	.zero	8
	.globl	_TIG_iO_IAnR_1_part2_1_opaque_ptr_1
	.align 8
	.type	_TIG_iO_IAnR_1_part2_1_opaque_ptr_1, @object
	.size	_TIG_iO_IAnR_1_part2_1_opaque_ptr_1, 8
_TIG_iO_IAnR_1_part2_1_opaque_ptr_1:
	.zero	8
	.globl	_TIG_iO_IAnR_1_hasWon_1_opaque_list_1
	.align 8
	.type	_TIG_iO_IAnR_1_hasWon_1_opaque_list_1, @object
	.size	_TIG_iO_IAnR_1_hasWon_1_opaque_list_1, 8
_TIG_iO_IAnR_1_hasWon_1_opaque_list_1:
	.zero	8
	.globl	_TIG_iO_IAnR_1_printBoard_1_opaque_list_1
	.align 8
	.type	_TIG_iO_IAnR_1_printBoard_1_opaque_list_1, @object
	.size	_TIG_iO_IAnR_1_printBoard_1_opaque_list_1, 8
_TIG_iO_IAnR_1_printBoard_1_opaque_list_1:
	.zero	8
	.globl	_TIG_iO_IAnR_1_part2_1_opaque_list_2
	.align 8
	.type	_TIG_iO_IAnR_1_part2_1_opaque_list_2, @object
	.size	_TIG_iO_IAnR_1_part2_1_opaque_list_2, 8
_TIG_iO_IAnR_1_part2_1_opaque_list_2:
	.zero	8
	.globl	_TIG_iO_IAnR_1___bswap_16_1_opaque_ptr_2
	.align 8
	.type	_TIG_iO_IAnR_1___bswap_16_1_opaque_ptr_2, @object
	.size	_TIG_iO_IAnR_1___bswap_16_1_opaque_ptr_2, 8
_TIG_iO_IAnR_1___bswap_16_1_opaque_ptr_2:
	.zero	8
	.globl	_TIG_iO_IAnR_1___uint16_identity_1_opaque_list_1
	.align 8
	.type	_TIG_iO_IAnR_1___uint16_identity_1_opaque_list_1, @object
	.size	_TIG_iO_IAnR_1___uint16_identity_1_opaque_list_1, 8
_TIG_iO_IAnR_1___uint16_identity_1_opaque_list_1:
	.zero	8
	.globl	_TIG_iO_IAnR_1___uint16_identity_1_opaque_list_2
	.align 8
	.type	_TIG_iO_IAnR_1___uint16_identity_1_opaque_list_2, @object
	.size	_TIG_iO_IAnR_1___uint16_identity_1_opaque_list_2, 8
_TIG_iO_IAnR_1___uint16_identity_1_opaque_list_2:
	.zero	8
	.globl	_TIG_iO_IAnR_1_part2_1_opaque_list_1
	.align 8
	.type	_TIG_iO_IAnR_1_part2_1_opaque_list_1, @object
	.size	_TIG_iO_IAnR_1_part2_1_opaque_list_1, 8
_TIG_iO_IAnR_1_part2_1_opaque_list_1:
	.zero	8
	.globl	_TIG_iO_IAnR_1_readNumbers_1_opaque_list_2
	.align 8
	.type	_TIG_iO_IAnR_1_readNumbers_1_opaque_list_2, @object
	.size	_TIG_iO_IAnR_1_readNumbers_1_opaque_list_2, 8
_TIG_iO_IAnR_1_readNumbers_1_opaque_list_2:
	.zero	8
	.globl	_TIG_iO_IAnR_1___uint64_identity_1_opaque_ptr_1
	.align 8
	.type	_TIG_iO_IAnR_1___uint64_identity_1_opaque_ptr_1, @object
	.size	_TIG_iO_IAnR_1___uint64_identity_1_opaque_ptr_1, 8
_TIG_iO_IAnR_1___uint64_identity_1_opaque_ptr_1:
	.zero	8
	.globl	_TIG_iO_IAnR_1___uint64_identity_1_opaque_list_2
	.align 8
	.type	_TIG_iO_IAnR_1___uint64_identity_1_opaque_list_2, @object
	.size	_TIG_iO_IAnR_1___uint64_identity_1_opaque_list_2, 8
_TIG_iO_IAnR_1___uint64_identity_1_opaque_list_2:
	.zero	8
	.globl	_TIG_iO_IAnR_1_iterate_1_opaque_list_2
	.align 8
	.type	_TIG_iO_IAnR_1_iterate_1_opaque_list_2, @object
	.size	_TIG_iO_IAnR_1_iterate_1_opaque_list_2, 8
_TIG_iO_IAnR_1_iterate_1_opaque_list_2:
	.zero	8
	.globl	_TIG_iO_IAnR_1_getScore_1_opaque_list_2
	.align 8
	.type	_TIG_iO_IAnR_1_getScore_1_opaque_list_2, @object
	.size	_TIG_iO_IAnR_1_getScore_1_opaque_list_2, 8
_TIG_iO_IAnR_1_getScore_1_opaque_list_2:
	.zero	8
	.globl	_TIG_iO_IAnR_1___bswap_64_1_opaque_ptr_1
	.align 8
	.type	_TIG_iO_IAnR_1___bswap_64_1_opaque_ptr_1, @object
	.size	_TIG_iO_IAnR_1___bswap_64_1_opaque_ptr_1, 8
_TIG_iO_IAnR_1___bswap_64_1_opaque_ptr_1:
	.zero	8
	.globl	_TIG_iO_IAnR_1_getScore_1_opaque_ptr_2
	.align 8
	.type	_TIG_iO_IAnR_1_getScore_1_opaque_ptr_2, @object
	.size	_TIG_iO_IAnR_1_getScore_1_opaque_ptr_2, 8
_TIG_iO_IAnR_1_getScore_1_opaque_ptr_2:
	.zero	8
	.globl	_TIG_iO_IAnR_1_readBoards_1_opaque_list_2
	.align 8
	.type	_TIG_iO_IAnR_1_readBoards_1_opaque_list_2, @object
	.size	_TIG_iO_IAnR_1_readBoards_1_opaque_list_2, 8
_TIG_iO_IAnR_1_readBoards_1_opaque_list_2:
	.zero	8
	.globl	_TIG_iO_IAnR_1_readBoards_1_opaque_ptr_1
	.align 8
	.type	_TIG_iO_IAnR_1_readBoards_1_opaque_ptr_1, @object
	.size	_TIG_iO_IAnR_1_readBoards_1_opaque_ptr_1, 8
_TIG_iO_IAnR_1_readBoards_1_opaque_ptr_1:
	.zero	8
	.globl	_TIG_iO_IAnR_1___uint16_identity_1_opaque_ptr_2
	.align 8
	.type	_TIG_iO_IAnR_1___uint16_identity_1_opaque_ptr_2, @object
	.size	_TIG_iO_IAnR_1___uint16_identity_1_opaque_ptr_2, 8
_TIG_iO_IAnR_1___uint16_identity_1_opaque_ptr_2:
	.zero	8
	.globl	_TIG_iO_IAnR_1_hasWon_1_opaque_ptr_2
	.align 8
	.type	_TIG_iO_IAnR_1_hasWon_1_opaque_ptr_2, @object
	.size	_TIG_iO_IAnR_1_hasWon_1_opaque_ptr_2, 8
_TIG_iO_IAnR_1_hasWon_1_opaque_ptr_2:
	.zero	8
	.globl	_TIG_iO_IAnR_1___bswap_16_1_opaque_list_2
	.align 8
	.type	_TIG_iO_IAnR_1___bswap_16_1_opaque_list_2, @object
	.size	_TIG_iO_IAnR_1___bswap_16_1_opaque_list_2, 8
_TIG_iO_IAnR_1___bswap_16_1_opaque_list_2:
	.zero	8
	.globl	_TIG_IZ_IAnR_argv
	.align 8
	.type	_TIG_IZ_IAnR_argv, @object
	.size	_TIG_IZ_IAnR_argv, 8
_TIG_IZ_IAnR_argv:
	.zero	8
	.globl	_TIG_iO_IAnR_1_readNumbers_1_opaque_ptr_1
	.align 8
	.type	_TIG_iO_IAnR_1_readNumbers_1_opaque_ptr_1, @object
	.size	_TIG_iO_IAnR_1_readNumbers_1_opaque_ptr_1, 8
_TIG_iO_IAnR_1_readNumbers_1_opaque_ptr_1:
	.zero	8
	.globl	_TIG_iO_IAnR_1___bswap_64_1_opaque_list_1
	.align 8
	.type	_TIG_iO_IAnR_1___bswap_64_1_opaque_list_1, @object
	.size	_TIG_iO_IAnR_1___bswap_64_1_opaque_list_1, 8
_TIG_iO_IAnR_1___bswap_64_1_opaque_list_1:
	.zero	8
	.globl	_TIG_iO_IAnR_1_iterate_1_opaque_ptr_2
	.align 8
	.type	_TIG_iO_IAnR_1_iterate_1_opaque_ptr_2, @object
	.size	_TIG_iO_IAnR_1_iterate_1_opaque_ptr_2, 8
_TIG_iO_IAnR_1_iterate_1_opaque_ptr_2:
	.zero	8
	.globl	_TIG_iO_IAnR_1___uint16_identity_1_opaque_ptr_1
	.align 8
	.type	_TIG_iO_IAnR_1___uint16_identity_1_opaque_ptr_1, @object
	.size	_TIG_iO_IAnR_1___uint16_identity_1_opaque_ptr_1, 8
_TIG_iO_IAnR_1___uint16_identity_1_opaque_ptr_1:
	.zero	8
	.globl	_TIG_iO_IAnR_1___uint64_identity_1_opaque_list_1
	.align 8
	.type	_TIG_iO_IAnR_1___uint64_identity_1_opaque_list_1, @object
	.size	_TIG_iO_IAnR_1___uint64_identity_1_opaque_list_1, 8
_TIG_iO_IAnR_1___uint64_identity_1_opaque_list_1:
	.zero	8
	.globl	_TIG_iO_IAnR_1_getScore_1_opaque_list_1
	.align 8
	.type	_TIG_iO_IAnR_1_getScore_1_opaque_list_1, @object
	.size	_TIG_iO_IAnR_1_getScore_1_opaque_list_1, 8
_TIG_iO_IAnR_1_getScore_1_opaque_list_1:
	.zero	8
	.globl	_TIG_iO_IAnR_1_part1_1_opaque_list_2
	.align 8
	.type	_TIG_iO_IAnR_1_part1_1_opaque_list_2, @object
	.size	_TIG_iO_IAnR_1_part1_1_opaque_list_2, 8
_TIG_iO_IAnR_1_part1_1_opaque_list_2:
	.zero	8
	.globl	_TIG_iO_IAnR_1_getScore_1_opaque_ptr_1
	.align 8
	.type	_TIG_iO_IAnR_1_getScore_1_opaque_ptr_1, @object
	.size	_TIG_iO_IAnR_1_getScore_1_opaque_ptr_1, 8
_TIG_iO_IAnR_1_getScore_1_opaque_ptr_1:
	.zero	8
	.globl	_TIG_iO_IAnR_1___uint32_identity_1_opaque_list_2
	.align 8
	.type	_TIG_iO_IAnR_1___uint32_identity_1_opaque_list_2, @object
	.size	_TIG_iO_IAnR_1___uint32_identity_1_opaque_list_2, 8
_TIG_iO_IAnR_1___uint32_identity_1_opaque_list_2:
	.zero	8
	.globl	_TIG_iO_IAnR_1_readBoards_1_opaque_ptr_2
	.align 8
	.type	_TIG_iO_IAnR_1_readBoards_1_opaque_ptr_2, @object
	.size	_TIG_iO_IAnR_1_readBoards_1_opaque_ptr_2, 8
_TIG_iO_IAnR_1_readBoards_1_opaque_ptr_2:
	.zero	8
	.globl	_TIG_iO_IAnR_1___uint32_identity_1_opaque_ptr_2
	.align 8
	.type	_TIG_iO_IAnR_1___uint32_identity_1_opaque_ptr_2, @object
	.size	_TIG_iO_IAnR_1___uint32_identity_1_opaque_ptr_2, 8
_TIG_iO_IAnR_1___uint32_identity_1_opaque_ptr_2:
	.zero	8
	.globl	_TIG_iO_IAnR_1_part1_1_opaque_list_1
	.align 8
	.type	_TIG_iO_IAnR_1_part1_1_opaque_list_1, @object
	.size	_TIG_iO_IAnR_1_part1_1_opaque_list_1, 8
_TIG_iO_IAnR_1_part1_1_opaque_list_1:
	.zero	8
	.globl	_TIG_iO_IAnR_1_main_1_opaque_ptr_2
	.align 8
	.type	_TIG_iO_IAnR_1_main_1_opaque_ptr_2, @object
	.size	_TIG_iO_IAnR_1_main_1_opaque_ptr_2, 8
_TIG_iO_IAnR_1_main_1_opaque_ptr_2:
	.zero	8
	.globl	_TIG_iO_IAnR_1_main_1_opaque_list_2
	.align 8
	.type	_TIG_iO_IAnR_1_main_1_opaque_list_2, @object
	.size	_TIG_iO_IAnR_1_main_1_opaque_list_2, 8
_TIG_iO_IAnR_1_main_1_opaque_list_2:
	.zero	8
	.globl	_TIG_iO_IAnR_1_hasWon_1_opaque_list_2
	.align 8
	.type	_TIG_iO_IAnR_1_hasWon_1_opaque_list_2, @object
	.size	_TIG_iO_IAnR_1_hasWon_1_opaque_list_2, 8
_TIG_iO_IAnR_1_hasWon_1_opaque_list_2:
	.zero	8
	.globl	_TIG_iO_IAnR_1___uint64_identity_1_opaque_ptr_2
	.align 8
	.type	_TIG_iO_IAnR_1___uint64_identity_1_opaque_ptr_2, @object
	.size	_TIG_iO_IAnR_1___uint64_identity_1_opaque_ptr_2, 8
_TIG_iO_IAnR_1___uint64_identity_1_opaque_ptr_2:
	.zero	8
	.globl	_TIG_iO_IAnR_1_main_1_opaque_list_1
	.align 8
	.type	_TIG_iO_IAnR_1_main_1_opaque_list_1, @object
	.size	_TIG_iO_IAnR_1_main_1_opaque_list_1, 8
_TIG_iO_IAnR_1_main_1_opaque_list_1:
	.zero	8
	.globl	_TIG_iO_IAnR_1_part2_1_opaque_ptr_2
	.align 8
	.type	_TIG_iO_IAnR_1_part2_1_opaque_ptr_2, @object
	.size	_TIG_iO_IAnR_1_part2_1_opaque_ptr_2, 8
_TIG_iO_IAnR_1_part2_1_opaque_ptr_2:
	.zero	8
	.globl	_TIG_iO_IAnR_1_printBoard_1_opaque_list_2
	.align 8
	.type	_TIG_iO_IAnR_1_printBoard_1_opaque_list_2, @object
	.size	_TIG_iO_IAnR_1_printBoard_1_opaque_list_2, 8
_TIG_iO_IAnR_1_printBoard_1_opaque_list_2:
	.zero	8
	.globl	_TIG_iO_IAnR_1___uint32_identity_1_opaque_list_1
	.align 8
	.type	_TIG_iO_IAnR_1___uint32_identity_1_opaque_list_1, @object
	.size	_TIG_iO_IAnR_1___uint32_identity_1_opaque_list_1, 8
_TIG_iO_IAnR_1___uint32_identity_1_opaque_list_1:
	.zero	8
	.globl	_TIG_iO_IAnR_1_readNumbers_1_opaque_list_1
	.align 8
	.type	_TIG_iO_IAnR_1_readNumbers_1_opaque_list_1, @object
	.size	_TIG_iO_IAnR_1_readNumbers_1_opaque_list_1, 8
_TIG_iO_IAnR_1_readNumbers_1_opaque_list_1:
	.zero	8
	.globl	_TIG_iO_IAnR_1___bswap_64_1_opaque_list_2
	.align 8
	.type	_TIG_iO_IAnR_1___bswap_64_1_opaque_list_2, @object
	.size	_TIG_iO_IAnR_1___bswap_64_1_opaque_list_2, 8
_TIG_iO_IAnR_1___bswap_64_1_opaque_list_2:
	.zero	8
	.globl	_TIG_IZ_IAnR_argc
	.align 4
	.type	_TIG_IZ_IAnR_argc, @object
	.size	_TIG_IZ_IAnR_argc, 4
_TIG_IZ_IAnR_argc:
	.zero	4
	.globl	_TIG_iO_IAnR_1_printBoard_1_opaque_ptr_1
	.align 8
	.type	_TIG_iO_IAnR_1_printBoard_1_opaque_ptr_1, @object
	.size	_TIG_iO_IAnR_1_printBoard_1_opaque_ptr_1, 8
_TIG_iO_IAnR_1_printBoard_1_opaque_ptr_1:
	.zero	8
	.globl	_TIG_iO_IAnR_1___bswap_32_1_opaque_ptr_2
	.align 8
	.type	_TIG_iO_IAnR_1___bswap_32_1_opaque_ptr_2, @object
	.size	_TIG_iO_IAnR_1___bswap_32_1_opaque_ptr_2, 8
_TIG_iO_IAnR_1___bswap_32_1_opaque_ptr_2:
	.zero	8
	.globl	_TIG_iO_IAnR_1_iterate_1_opaque_list_1
	.align 8
	.type	_TIG_iO_IAnR_1_iterate_1_opaque_list_1, @object
	.size	_TIG_iO_IAnR_1_iterate_1_opaque_list_1, 8
_TIG_iO_IAnR_1_iterate_1_opaque_list_1:
	.zero	8
	.globl	_TIG_iO_IAnR_1___bswap_32_1_opaque_list_1
	.align 8
	.type	_TIG_iO_IAnR_1___bswap_32_1_opaque_list_1, @object
	.size	_TIG_iO_IAnR_1___bswap_32_1_opaque_list_1, 8
_TIG_iO_IAnR_1___bswap_32_1_opaque_list_1:
	.zero	8
	.globl	_TIG_iO_IAnR_1_part1_1_opaque_ptr_2
	.align 8
	.type	_TIG_iO_IAnR_1_part1_1_opaque_ptr_2, @object
	.size	_TIG_iO_IAnR_1_part1_1_opaque_ptr_2, 8
_TIG_iO_IAnR_1_part1_1_opaque_ptr_2:
	.zero	8
	.globl	_TIG_IZ_IAnR_envp
	.align 8
	.type	_TIG_IZ_IAnR_envp, @object
	.size	_TIG_IZ_IAnR_envp, 8
_TIG_IZ_IAnR_envp:
	.zero	8
	.globl	_TIG_iO_IAnR_1___bswap_64_1_opaque_ptr_2
	.align 8
	.type	_TIG_iO_IAnR_1___bswap_64_1_opaque_ptr_2, @object
	.size	_TIG_iO_IAnR_1___bswap_64_1_opaque_ptr_2, 8
_TIG_iO_IAnR_1___bswap_64_1_opaque_ptr_2:
	.zero	8
	.globl	_TIG_iO_IAnR_1_part1_1_opaque_ptr_1
	.align 8
	.type	_TIG_iO_IAnR_1_part1_1_opaque_ptr_1, @object
	.size	_TIG_iO_IAnR_1_part1_1_opaque_ptr_1, 8
_TIG_iO_IAnR_1_part1_1_opaque_ptr_1:
	.zero	8
	.globl	_TIG_iO_IAnR_1_main_1_opaque_ptr_1
	.align 8
	.type	_TIG_iO_IAnR_1_main_1_opaque_ptr_1, @object
	.size	_TIG_iO_IAnR_1_main_1_opaque_ptr_1, 8
_TIG_iO_IAnR_1_main_1_opaque_ptr_1:
	.zero	8
	.globl	_TIG_iO_IAnR_1___uint32_identity_1_opaque_ptr_1
	.align 8
	.type	_TIG_iO_IAnR_1___uint32_identity_1_opaque_ptr_1, @object
	.size	_TIG_iO_IAnR_1___uint32_identity_1_opaque_ptr_1, 8
_TIG_iO_IAnR_1___uint32_identity_1_opaque_ptr_1:
	.zero	8
	.globl	_TIG_iO_IAnR_1_printBoard_1_opaque_ptr_2
	.align 8
	.type	_TIG_iO_IAnR_1_printBoard_1_opaque_ptr_2, @object
	.size	_TIG_iO_IAnR_1_printBoard_1_opaque_ptr_2, 8
_TIG_iO_IAnR_1_printBoard_1_opaque_ptr_2:
	.zero	8
	.globl	_TIG_iO_IAnR_1___bswap_16_1_opaque_ptr_1
	.align 8
	.type	_TIG_iO_IAnR_1___bswap_16_1_opaque_ptr_1, @object
	.size	_TIG_iO_IAnR_1___bswap_16_1_opaque_ptr_1, 8
_TIG_iO_IAnR_1___bswap_16_1_opaque_ptr_1:
	.zero	8
	.globl	_TIG_iO_IAnR_1_iterate_1_opaque_ptr_1
	.align 8
	.type	_TIG_iO_IAnR_1_iterate_1_opaque_ptr_1, @object
	.size	_TIG_iO_IAnR_1_iterate_1_opaque_ptr_1, 8
_TIG_iO_IAnR_1_iterate_1_opaque_ptr_1:
	.zero	8
	.section	.rodata
.LC0:
	.string	"Last: %d\n"
.LC1:
	.string	"\342\226\210"
.LC2:
	.string	" "
.LC3:
	.string	"%s%2d "
	.text
	.globl	printBoard
	.type	printBoard, @function
printBoard:
.LFB0:
	.cfi_startproc
	endbr64
	pushq	%rbp
	.cfi_def_cfa_offset 16
	.cfi_offset 6, -16
	movq	%rsp, %rbp
	.cfi_def_cfa_register 6
	subq	$80, %rsp
#APP
# 83 "/usr/include/stdlib.h" 1
	##_ANNOTATION_INITIALREGION_-TIG-iO-IAnR-1-printBoard--26
# 0 "" 2
# 87 "/usr/include/stdlib.h" 1
	##_ANNOTATION_ATOMICREGION_-TIG-iO-IAnR-1-printBoard--25
# 0 "" 2
#NO_APP
	movl	$24, %edi
	call	malloc@PLT
	movq	%rax, -40(%rbp)
	movq	-40(%rbp), %rax
	movq	-40(%rbp), %rdx
	movq	%rdx, (%rax)
	movq	-40(%rbp), %rax
	movq	-40(%rbp), %rdx
	movq	%rdx, 16(%rax)
	movq	-40(%rbp), %rax
	movq	%rax, _TIG_iO_IAnR_1_printBoard_1_opaque_list_1(%rip)
	call	rand@PLT
	movl	%eax, -64(%rbp)
	movl	$24, %edi
	call	malloc@PLT
	movq	%rax, -32(%rbp)
	movq	-32(%rbp), %rax
	movl	$0, 8(%rax)
	movq	_TIG_iO_IAnR_1_printBoard_1_opaque_list_1(%rip), %rax
	movq	(%rax), %rdx
	movq	-32(%rbp), %rax
	movq	%rdx, (%rax)
	movq	_TIG_iO_IAnR_1_printBoard_1_opaque_list_1(%rip), %rdx
	movq	-32(%rbp), %rax
	movq	%rdx, 16(%rax)
	movq	_TIG_iO_IAnR_1_printBoard_1_opaque_list_1(%rip), %rax
	movq	(%rax), %rax
	movq	-32(%rbp), %rdx
	movq	%rdx, 16(%rax)
	movq	_TIG_iO_IAnR_1_printBoard_1_opaque_list_1(%rip), %rax
	movq	-32(%rbp), %rdx
	movq	%rdx, (%rax)
	call	rand@PLT
	movl	%eax, -60(%rbp)
	movl	$24, %edi
	call	malloc@PLT
	movq	%rax, -24(%rbp)
	movq	-24(%rbp), %rax
	movl	-60(%rbp), %edx
	movl	%edx, 8(%rax)
	movq	_TIG_iO_IAnR_1_printBoard_1_opaque_list_1(%rip), %rax
	movq	(%rax), %rdx
	movq	-24(%rbp), %rax
	movq	%rdx, (%rax)
	movq	_TIG_iO_IAnR_1_printBoard_1_opaque_list_1(%rip), %rdx
	movq	-24(%rbp), %rax
	movq	%rdx, 16(%rax)
	movq	_TIG_iO_IAnR_1_printBoard_1_opaque_list_1(%rip), %rax
	movq	(%rax), %rax
	movq	-24(%rbp), %rdx
	movq	%rdx, 16(%rax)
	movq	_TIG_iO_IAnR_1_printBoard_1_opaque_list_1(%rip), %rax
	movq	-24(%rbp), %rdx
	movq	%rdx, (%rax)
	call	rand@PLT
	movl	%eax, -56(%rbp)
	movl	$24, %edi
	call	malloc@PLT
	movq	%rax, -16(%rbp)
	movl	-56(%rbp), %eax
	leal	(%rax,%rax), %edx
	movq	-16(%rbp), %rax
	movl	%edx, 8(%rax)
	movq	_TIG_iO_IAnR_1_printBoard_1_opaque_list_1(%rip), %rax
	movq	(%rax), %rdx
	movq	-16(%rbp), %rax
	movq	%rdx, (%rax)
	movq	_TIG_iO_IAnR_1_printBoard_1_opaque_list_1(%rip), %rdx
	movq	-16(%rbp), %rax
	movq	%rdx, 16(%rax)
	movq	_TIG_iO_IAnR_1_printBoard_1_opaque_list_1(%rip), %rax
	movq	(%rax), %rax
	movq	-16(%rbp), %rdx
	movq	%rdx, 16(%rax)
	movq	_TIG_iO_IAnR_1_printBoard_1_opaque_list_1(%rip), %rax
	movq	-16(%rbp), %rdx
	movq	%rdx, (%rax)
	call	rand@PLT
	movl	%eax, -52(%rbp)
	movl	$24, %edi
	call	malloc@PLT
	movq	%rax, -8(%rbp)
	movl	-52(%rbp), %edx
	movl	%edx, %eax
	addl	%eax, %eax
	addl	%eax, %edx
	movq	-8(%rbp), %rax
	movl	%edx, 8(%rax)
	movq	_TIG_iO_IAnR_1_printBoard_1_opaque_list_1(%rip), %rax
	movq	(%rax), %rdx
	movq	-8(%rbp), %rax
	movq	%rdx, (%rax)
	movq	_TIG_iO_IAnR_1_printBoard_1_opaque_list_1(%rip), %rdx
	movq	-8(%rbp), %rax
	movq	%rdx, 16(%rax)
	movq	_TIG_iO_IAnR_1_printBoard_1_opaque_list_1(%rip), %rax
	movq	(%rax), %rax
	movq	-8(%rbp), %rdx
	movq	%rdx, 16(%rax)
	movq	_TIG_iO_IAnR_1_printBoard_1_opaque_list_1(%rip), %rax
	movq	-8(%rbp), %rdx
	movq	%rdx, (%rax)
	movq	_TIG_iO_IAnR_1_printBoard_1_opaque_list_1(%rip), %rax
	movq	(%rax), %rax
	movq	%rax, _TIG_iO_IAnR_1_printBoard_1_opaque_ptr_1(%rip)
	movq	_TIG_iO_IAnR_1_printBoard_1_opaque_ptr_1(%rip), %rax
	movq	%rax, _TIG_iO_IAnR_1_printBoard_1_opaque_ptr_2(%rip)
	nop
	nop
	movl	32(%rbp), %eax
	movl	%eax, %esi
	leaq	.LC0(%rip), %rax
	movq	%rax, %rdi
	movl	$0, %eax
	call	printf@PLT
	movl	$0, -72(%rbp)
	jmp	.L2
.L7:
	movl	$0, -68(%rbp)
	jmp	.L3
.L6:
	movq	_TIG_iO_IAnR_1_readNumbers_1_opaque_ptr_1(%rip), %rdx
	movq	_TIG_iO_IAnR_1_readNumbers_1_opaque_ptr_2(%rip), %rax
	cmpq	%rax, %rdx
	je	.L4
	movq	24(%rbp), %rcx
	movl	-72(%rbp), %edx
	movl	%edx, %eax
	sall	$2, %eax
	addl	%eax, %edx
	movl	-68(%rbp), %eax
	addl	%edx, %eax
	cltq
	salq	$2, %rax
	addq	%rcx, %rax
	movl	(%rax), %eax
	testl	%eax, %eax
	je	.L5
	leaq	.LC1(%rip), %rax
	movq	%rax, -48(%rbp)
	jmp	.L4
.L5:
	leaq	.LC2(%rip), %rax
	movq	%rax, -48(%rbp)
.L4:
	movq	16(%rbp), %rcx
	movl	-72(%rbp), %edx
	movl	%edx, %eax
	sall	$2, %eax
	addl	%eax, %edx
	movl	-68(%rbp), %eax
	addl	%edx, %eax
	cltq
	salq	$2, %rax
	addq	%rcx, %rax
	movl	(%rax), %edx
	movq	-48(%rbp), %rax
	movq	%rax, %rsi
	leaq	.LC3(%rip), %rax
	movq	%rax, %rdi
	movl	$0, %eax
	call	printf@PLT
	addl	$1, -68(%rbp)
.L3:
	cmpl	$4, -68(%rbp)
	jle	.L6
	movl	$10, %edi
	call	putchar@PLT
	addl	$1, -72(%rbp)
.L2:
	cmpl	$4, -72(%rbp)
	jle	.L7
	nop
	leave
	.cfi_def_cfa 7, 8
	ret
	.cfi_endproc
.LFE0:
	.size	printBoard, .-printBoard
	.globl	readNumbers
	.type	readNumbers, @function
readNumbers:
.LFB2:
	.cfi_startproc
	endbr64
	pushq	%rbp
	.cfi_def_cfa_offset 16
	.cfi_offset 6, -16
	movq	%rsp, %rbp
	.cfi_def_cfa_register 6
	addq	$-128, %rsp
	movq	%rdi, -120(%rbp)
	movq	%rsi, -128(%rbp)
#APP
# 99 "/usr/include/x86_64-linux-gnu/bits/byteswap.h" 1
	##_ANNOTATION_INITIALREGION_-TIG-iO-IAnR-1-readNumbers--30
# 0 "" 2
# 103 "/usr/include/x86_64-linux-gnu/bits/byteswap.h" 1
	##_ANNOTATION_ATOMICREGION_-TIG-iO-IAnR-1-readNumbers--29
# 0 "" 2
#NO_APP
	movl	$24, %edi
	call	malloc@PLT
	movq	%rax, -72(%rbp)
	movq	-72(%rbp), %rax
	movq	-72(%rbp), %rdx
	movq	%rdx, 8(%rax)
	movq	-72(%rbp), %rax
	movq	-72(%rbp), %rdx
	movq	%rdx, (%rax)
	movq	-72(%rbp), %rax
	movq	%rax, _TIG_iO_IAnR_1_readNumbers_1_opaque_list_1(%rip)
	call	rand@PLT
	movl	%eax, -100(%rbp)
	movl	$24, %edi
	call	malloc@PLT
	movq	%rax, -64(%rbp)
	movq	-64(%rbp), %rax
	movl	$0, 16(%rax)
	movq	_TIG_iO_IAnR_1_readNumbers_1_opaque_list_1(%rip), %rax
	movq	8(%rax), %rdx
	movq	-64(%rbp), %rax
	movq	%rdx, 8(%rax)
	movq	_TIG_iO_IAnR_1_readNumbers_1_opaque_list_1(%rip), %rdx
	movq	-64(%rbp), %rax
	movq	%rdx, (%rax)
	movq	_TIG_iO_IAnR_1_readNumbers_1_opaque_list_1(%rip), %rax
	movq	8(%rax), %rax
	movq	-64(%rbp), %rdx
	movq	%rdx, (%rax)
	movq	_TIG_iO_IAnR_1_readNumbers_1_opaque_list_1(%rip), %rax
	movq	-64(%rbp), %rdx
	movq	%rdx, 8(%rax)
	call	rand@PLT
	movl	%eax, -96(%rbp)
	movl	$24, %edi
	call	malloc@PLT
	movq	%rax, -56(%rbp)
	movq	-56(%rbp), %rax
	movl	-96(%rbp), %edx
	movl	%edx, 16(%rax)
	movq	_TIG_iO_IAnR_1_readNumbers_1_opaque_list_1(%rip), %rax
	movq	8(%rax), %rdx
	movq	-56(%rbp), %rax
	movq	%rdx, 8(%rax)
	movq	_TIG_iO_IAnR_1_readNumbers_1_opaque_list_1(%rip), %rdx
	movq	-56(%rbp), %rax
	movq	%rdx, (%rax)
	movq	_TIG_iO_IAnR_1_readNumbers_1_opaque_list_1(%rip), %rax
	movq	8(%rax), %rax
	movq	-56(%rbp), %rdx
	movq	%rdx, (%rax)
	movq	_TIG_iO_IAnR_1_readNumbers_1_opaque_list_1(%rip), %rax
	movq	-56(%rbp), %rdx
	movq	%rdx, 8(%rax)
	call	rand@PLT
	movl	%eax, -92(%rbp)
	movl	$24, %edi
	call	malloc@PLT
	movq	%rax, -48(%rbp)
	movl	-92(%rbp), %eax
	leal	(%rax,%rax), %edx
	movq	-48(%rbp), %rax
	movl	%edx, 16(%rax)
	movq	_TIG_iO_IAnR_1_readNumbers_1_opaque_list_1(%rip), %rax
	movq	8(%rax), %rdx
	movq	-48(%rbp), %rax
	movq	%rdx, 8(%rax)
	movq	_TIG_iO_IAnR_1_readNumbers_1_opaque_list_1(%rip), %rdx
	movq	-48(%rbp), %rax
	movq	%rdx, (%rax)
	movq	_TIG_iO_IAnR_1_readNumbers_1_opaque_list_1(%rip), %rax
	movq	8(%rax), %rax
	movq	-48(%rbp), %rdx
	movq	%rdx, (%rax)
	movq	_TIG_iO_IAnR_1_readNumbers_1_opaque_list_1(%rip), %rax
	movq	-48(%rbp), %rdx
	movq	%rdx, 8(%rax)
	call	rand@PLT
	movl	%eax, -88(%rbp)
	movl	$24, %edi
	call	malloc@PLT
	movq	%rax, -40(%rbp)
	movl	-88(%rbp), %edx
	movl	%edx, %eax
	addl	%eax, %eax
	addl	%eax, %edx
	movq	-40(%rbp), %rax
	movl	%edx, 16(%rax)
	movq	_TIG_iO_IAnR_1_readNumbers_1_opaque_list_1(%rip), %rax
	movq	8(%rax), %rdx
	movq	-40(%rbp), %rax
	movq	%rdx, 8(%rax)
	movq	_TIG_iO_IAnR_1_readNumbers_1_opaque_list_1(%rip), %rdx
	movq	-40(%rbp), %rax
	movq	%rdx, (%rax)
	movq	_TIG_iO_IAnR_1_readNumbers_1_opaque_list_1(%rip), %rax
	movq	8(%rax), %rax
	movq	-40(%rbp), %rdx
	movq	%rdx, (%rax)
	movq	_TIG_iO_IAnR_1_readNumbers_1_opaque_list_1(%rip), %rax
	movq	-40(%rbp), %rdx
	movq	%rdx, 8(%rax)
	movq	_TIG_iO_IAnR_1_readNumbers_1_opaque_list_1(%rip), %rax
	movq	8(%rax), %rax
	movq	%rax, _TIG_iO_IAnR_1_readNumbers_1_opaque_ptr_1(%rip)
	movq	_TIG_iO_IAnR_1_readNumbers_1_opaque_ptr_1(%rip), %rax
	movq	%rax, _TIG_iO_IAnR_1_readNumbers_1_opaque_ptr_2(%rip)
	movq	_TIG_iO_IAnR_1_readNumbers_1_opaque_ptr_2(%rip), %rax
	movq	8(%rax), %rax
	movq	%rax, _TIG_iO_IAnR_1_readNumbers_1_opaque_ptr_2(%rip)
	nop
	nop
	movl	$0, -108(%rbp)
	movl	$0, -104(%rbp)
.L14:
	movq	-120(%rbp), %rax
	movq	%rax, %rdi
	call	fgetc@PLT
	movl	%eax, -84(%rbp)
	cmpl	$10, -84(%rbp)
	je	.L18
	cmpl	$44, -84(%rbp)
	jne	.L12
	movl	-108(%rbp), %eax
	movl	%eax, -80(%rbp)
	addl	$1, -108(%rbp)
	movl	-80(%rbp), %eax
	cltq
	leaq	0(,%rax,4), %rdx
	movq	-128(%rbp), %rax
	addq	%rax, %rdx
	movl	-104(%rbp), %eax
	movl	%eax, (%rdx)
	movl	$0, -104(%rbp)
	jmp	.L13
.L12:
	movl	-104(%rbp), %edx
	movl	%edx, %eax
	sall	$2, %eax
	addl	%edx, %eax
	addl	%eax, %eax
	movl	%eax, %edx
	movl	-84(%rbp), %eax
	subl	$48, %eax
	addl	%edx, %eax
	movl	%eax, -104(%rbp)
.L13:
	jmp	.L14
.L18:
	nop
	movl	-108(%rbp), %eax
	movl	%eax, -76(%rbp)
	addl	$1, -108(%rbp)
	movl	-76(%rbp), %eax
	cltq
	leaq	0(,%rax,4), %rdx
	movq	-128(%rbp), %rax
	addq	%rax, %rdx
	movl	-104(%rbp), %eax
	movl	%eax, (%rdx)
	movq	_TIG_iO_IAnR_1_readNumbers_1_opaque_ptr_1(%rip), %rdx
	movq	_TIG_iO_IAnR_1_readNumbers_1_opaque_ptr_2(%rip), %rax
	cmpq	%rax, %rdx
	jne	.L15
	subq	$8, %rsp
	pushq	-16(%rbp)
	pushq	-24(%rbp)
	pushq	-32(%rbp)
	call	hasWon
	addq	$32, %rsp
	movl	%eax, -80(%rbp)
.L15:
	movq	-128(%rbp), %rax
	leave
	.cfi_def_cfa 7, 8
	ret
	.cfi_endproc
.LFE2:
	.size	readNumbers, .-readNumbers
	.section	.rodata
.LC4:
	.string	"Expected line break!\n"
	.text
	.globl	part1
	.type	part1, @function
part1:
.LFB3:
	.cfi_startproc
	endbr64
	pushq	%rbp
	.cfi_def_cfa_offset 16
	.cfi_offset 6, -16
	movq	%rsp, %rbp
	.cfi_def_cfa_register 6
	leaq	-20480(%rsp), %r11
.LPSRL0:
	subq	$4096, %rsp
	orq	$0, (%rsp)
	cmpq	%r11, %rsp
	jne	.LPSRL0
	subq	$2464, %rsp
	movq	%rdi, -22936(%rbp)
	movq	%fs:40, %rax
	movq	%rax, -8(%rbp)
	xorl	%eax, %eax
#APP
# 143 "timber-they_AdventOfCode21_4.c" 1
	##_ANNOTATION_INITIALREGION_-TIG-iO-IAnR-1-part1--22
# 0 "" 2
# 147 "timber-they_AdventOfCode21_4.c" 1
	##_ANNOTATION_ATOMICREGION_-TIG-iO-IAnR-1-part1--21
# 0 "" 2
#NO_APP
	movl	$24, %edi
	call	malloc@PLT
	movq	%rax, -22880(%rbp)
	movq	-22880(%rbp), %rax
	movq	-22880(%rbp), %rdx
	movq	%rdx, (%rax)
	movq	-22880(%rbp), %rax
	movq	-22880(%rbp), %rdx
	movq	%rdx, 16(%rax)
	movq	-22880(%rbp), %rax
	movq	%rax, _TIG_iO_IAnR_1_part1_1_opaque_list_1(%rip)
	call	rand@PLT
	movl	%eax, -22908(%rbp)
	movl	$24, %edi
	call	malloc@PLT
	movq	%rax, -22872(%rbp)
	movq	-22872(%rbp), %rax
	movl	$0, 8(%rax)
	movq	_TIG_iO_IAnR_1_part1_1_opaque_list_1(%rip), %rax
	movq	(%rax), %rdx
	movq	-22872(%rbp), %rax
	movq	%rdx, (%rax)
	movq	_TIG_iO_IAnR_1_part1_1_opaque_list_1(%rip), %rdx
	movq	-22872(%rbp), %rax
	movq	%rdx, 16(%rax)
	movq	_TIG_iO_IAnR_1_part1_1_opaque_list_1(%rip), %rax
	movq	(%rax), %rax
	movq	-22872(%rbp), %rdx
	movq	%rdx, 16(%rax)
	movq	_TIG_iO_IAnR_1_part1_1_opaque_list_1(%rip), %rax
	movq	-22872(%rbp), %rdx
	movq	%rdx, (%rax)
	call	rand@PLT
	movl	%eax, -22904(%rbp)
	movl	$24, %edi
	call	malloc@PLT
	movq	%rax, -22864(%rbp)
	movq	-22864(%rbp), %rax
	movl	-22904(%rbp), %edx
	movl	%edx, 8(%rax)
	movq	_TIG_iO_IAnR_1_part1_1_opaque_list_1(%rip), %rax
	movq	(%rax), %rdx
	movq	-22864(%rbp), %rax
	movq	%rdx, (%rax)
	movq	_TIG_iO_IAnR_1_part1_1_opaque_list_1(%rip), %rdx
	movq	-22864(%rbp), %rax
	movq	%rdx, 16(%rax)
	movq	_TIG_iO_IAnR_1_part1_1_opaque_list_1(%rip), %rax
	movq	(%rax), %rax
	movq	-22864(%rbp), %rdx
	movq	%rdx, 16(%rax)
	movq	_TIG_iO_IAnR_1_part1_1_opaque_list_1(%rip), %rax
	movq	-22864(%rbp), %rdx
	movq	%rdx, (%rax)
	call	rand@PLT
	movl	%eax, -22900(%rbp)
	movl	$24, %edi
	call	malloc@PLT
	movq	%rax, -22856(%rbp)
	movl	-22900(%rbp), %eax
	leal	(%rax,%rax), %edx
	movq	-22856(%rbp), %rax
	movl	%edx, 8(%rax)
	movq	_TIG_iO_IAnR_1_part1_1_opaque_list_1(%rip), %rax
	movq	(%rax), %rdx
	movq	-22856(%rbp), %rax
	movq	%rdx, (%rax)
	movq	_TIG_iO_IAnR_1_part1_1_opaque_list_1(%rip), %rdx
	movq	-22856(%rbp), %rax
	movq	%rdx, 16(%rax)
	movq	_TIG_iO_IAnR_1_part1_1_opaque_list_1(%rip), %rax
	movq	(%rax), %rax
	movq	-22856(%rbp), %rdx
	movq	%rdx, 16(%rax)
	movq	_TIG_iO_IAnR_1_part1_1_opaque_list_1(%rip), %rax
	movq	-22856(%rbp), %rdx
	movq	%rdx, (%rax)
	movq	_TIG_iO_IAnR_1_part1_1_opaque_list_1(%rip), %rax
	movq	(%rax), %rax
	movq	%rax, _TIG_iO_IAnR_1_part1_1_opaque_ptr_1(%rip)
	movq	_TIG_iO_IAnR_1_part1_1_opaque_ptr_1(%rip), %rax
	movq	%rax, _TIG_iO_IAnR_1_part1_1_opaque_ptr_2(%rip)
	movq	_TIG_iO_IAnR_1_part1_1_opaque_ptr_2(%rip), %rax
	movq	(%rax), %rax
	movq	%rax, _TIG_iO_IAnR_1_part1_1_opaque_ptr_2(%rip)
	nop
	nop
	movl	$0, -10016(%rbp)
	movl	$1, -22916(%rbp)
	jmp	.L20
.L21:
	movl	-22916(%rbp), %eax
	movl	$0, -10016(%rbp,%rax,4)
	addl	$1, -22916(%rbp)
.L20:
	cmpl	$2499, -22916(%rbp)
	jbe	.L21
	leaq	-22816(%rbp), %rdx
	movq	-22936(%rbp), %rax
	movq	%rdx, %rsi
	movq	%rax, %rdi
	call	readNumbers
	movq	%rax, -22848(%rbp)
	movq	-22848(%rbp), %rax
	movq	%rax, -22840(%rbp)
	movq	-22936(%rbp), %rax
	movq	%rax, %rdi
	call	fgetc@PLT
	movl	%eax, -22896(%rbp)
	cmpl	$10, -22896(%rbp)
	je	.L22
	movq	stderr(%rip), %rax
	movq	%rax, %rcx
	movl	$21, %edx
	movl	$1, %esi
	leaq	.LC4(%rip), %rax
	movq	%rax, %rdi
	call	fwrite@PLT
.L22:
	leaq	-10016(%rbp), %rcx
	leaq	-20016(%rbp), %rdx
	leaq	-22416(%rbp), %rsi
	movq	-22936(%rbp), %rax
	movq	%rax, %rdi
	call	readBoards
	movq	%rax, -22832(%rbp)
	movq	-22832(%rbp), %rax
	movq	%rax, -22824(%rbp)
	movl	$0, -22912(%rbp)
	jmp	.L23
.L27:
	movq	_TIG_iO_IAnR_1_readNumbers_1_opaque_ptr_1(%rip), %rdx
	movq	_TIG_iO_IAnR_1_readNumbers_1_opaque_ptr_2(%rip), %rax
	cmpq	%rax, %rdx
	jne	.L24
	movl	-22900(%rbp), %eax
	movl	$0, %edx
	movl	$0, %esi
	movl	%eax, %edi
	call	main
	movl	%eax, -22892(%rbp)
.L24:
	movl	-22912(%rbp), %eax
	cltq
	leaq	0(,%rax,4), %rdx
	movq	-22840(%rbp), %rax
	addq	%rdx, %rax
	movl	(%rax), %ecx
	movl	-22912(%rbp), %edx
	movq	-22824(%rbp), %rax
	movl	%ecx, %esi
	movq	%rax, %rdi
	call	iterate
	movl	%eax, -22888(%rbp)
	movl	-22888(%rbp), %eax
	movl	%eax, -22892(%rbp)
	cmpl	$0, -22892(%rbp)
	js	.L25
	movl	-22892(%rbp), %eax
	movslq	%eax, %rdx
	movq	%rdx, %rax
	addq	%rax, %rax
	addq	%rdx, %rax
	salq	$3, %rax
	movq	%rax, %rdx
	movq	-22824(%rbp), %rax
	addq	%rdx, %rax
	subq	$8, %rsp
	pushq	16(%rax)
	pushq	8(%rax)
	pushq	(%rax)
	call	getScore
	addq	$32, %rsp
	movl	%eax, -22884(%rbp)
	movl	-22884(%rbp), %eax
	jmp	.L28
.L25:
	addl	$1, -22912(%rbp)
.L23:
	cmpl	$99, -22912(%rbp)
	jle	.L27
	movl	$-1, %eax
.L28:
	movq	-8(%rbp), %rdx
	subq	%fs:40, %rdx
	je	.L29
	call	__stack_chk_fail@PLT
.L29:
	leave
	.cfi_def_cfa 7, 8
	ret
	.cfi_endproc
.LFE3:
	.size	part1, .-part1
	.globl	iterate
	.type	iterate, @function
iterate:
.LFB7:
	.cfi_startproc
	endbr64
	pushq	%rbp
	.cfi_def_cfa_offset 16
	.cfi_offset 6, -16
	movq	%rsp, %rbp
	.cfi_def_cfa_register 6
	subq	$64, %rsp
	movq	%rdi, -56(%rbp)
	movl	%esi, -60(%rbp)
	movl	%edx, -64(%rbp)
#APP
# 68 "/usr/include/x86_64-linux-gnu/bits/uintn-identity.h" 1
	##_ANNOTATION_INITIALREGION_-TIG-iO-IAnR-1-iterate--18
# 0 "" 2
# 72 "/usr/include/x86_64-linux-gnu/bits/uintn-identity.h" 1
	##_ANNOTATION_ATOMICREGION_-TIG-iO-IAnR-1-iterate--17
# 0 "" 2
#NO_APP
	movl	$24, %edi
	call	malloc@PLT
	movq	%rax, -24(%rbp)
	movq	-24(%rbp), %rax
	movq	-24(%rbp), %rdx
	movq	%rdx, 8(%rax)
	movq	-24(%rbp), %rax
	movq	-24(%rbp), %rdx
	movq	%rdx, (%rax)
	movq	-24(%rbp), %rax
	movq	%rax, _TIG_iO_IAnR_1_iterate_1_opaque_list_1(%rip)
	call	rand@PLT
	movl	%eax, -36(%rbp)
	movl	$24, %edi
	call	malloc@PLT
	movq	%rax, -16(%rbp)
	movq	-16(%rbp), %rax
	movl	$0, 16(%rax)
	movq	_TIG_iO_IAnR_1_iterate_1_opaque_list_1(%rip), %rax
	movq	8(%rax), %rdx
	movq	-16(%rbp), %rax
	movq	%rdx, 8(%rax)
	movq	_TIG_iO_IAnR_1_iterate_1_opaque_list_1(%rip), %rdx
	movq	-16(%rbp), %rax
	movq	%rdx, (%rax)
	movq	_TIG_iO_IAnR_1_iterate_1_opaque_list_1(%rip), %rax
	movq	8(%rax), %rax
	movq	-16(%rbp), %rdx
	movq	%rdx, (%rax)
	movq	_TIG_iO_IAnR_1_iterate_1_opaque_list_1(%rip), %rax
	movq	-16(%rbp), %rdx
	movq	%rdx, 8(%rax)
	call	rand@PLT
	movl	%eax, -32(%rbp)
	movl	$24, %edi
	call	malloc@PLT
	movq	%rax, -8(%rbp)
	movq	-8(%rbp), %rax
	movl	-32(%rbp), %edx
	movl	%edx, 16(%rax)
	movq	_TIG_iO_IAnR_1_iterate_1_opaque_list_1(%rip), %rax
	movq	8(%rax), %rdx
	movq	-8(%rbp), %rax
	movq	%rdx, 8(%rax)
	movq	_TIG_iO_IAnR_1_iterate_1_opaque_list_1(%rip), %rdx
	movq	-8(%rbp), %rax
	movq	%rdx, (%rax)
	movq	_TIG_iO_IAnR_1_iterate_1_opaque_list_1(%rip), %rax
	movq	8(%rax), %rax
	movq	-8(%rbp), %rdx
	movq	%rdx, (%rax)
	movq	_TIG_iO_IAnR_1_iterate_1_opaque_list_1(%rip), %rax
	movq	-8(%rbp), %rdx
	movq	%rdx, 8(%rax)
	movq	_TIG_iO_IAnR_1_iterate_1_opaque_list_1(%rip), %rax
	movq	8(%rax), %rax
	movq	%rax, _TIG_iO_IAnR_1_iterate_1_opaque_ptr_1(%rip)
	movq	_TIG_iO_IAnR_1_iterate_1_opaque_ptr_1(%rip), %rax
	movq	%rax, _TIG_iO_IAnR_1_iterate_1_opaque_ptr_2(%rip)
	movq	_TIG_iO_IAnR_1_iterate_1_opaque_ptr_2(%rip), %rax
	movq	8(%rax), %rax
	movq	%rax, _TIG_iO_IAnR_1_iterate_1_opaque_ptr_2(%rip)
	nop
	nop
	movl	$-1, -48(%rbp)
	movl	$0, -44(%rbp)
.L39:
	movq	_TIG_iO_IAnR_1_readNumbers_1_opaque_ptr_1(%rip), %rdx
	movq	_TIG_iO_IAnR_1_readNumbers_1_opaque_ptr_2(%rip), %rax
	cmpq	%rax, %rdx
	je	.L31
	cmpl	$99, -44(%rbp)
	jle	.L32
	jmp	.L41
.L31:
#APP
# 185 "timber-they_AdventOfCode21_4.c" 1
	.byte 0x0,0x0,0xc7,0x5,0x7d,0x40,0x0,0x0
# 0 "" 2
#NO_APP
.L32:
	movl	-44(%rbp), %eax
	movslq	%eax, %rdx
	movq	%rdx, %rax
	addq	%rax, %rax
	addq	%rdx, %rax
	salq	$3, %rax
	movq	%rax, %rdx
	movq	-56(%rbp), %rax
	addq	%rdx, %rax
	movl	20(%rax), %eax
	testl	%eax, %eax
	jne	.L42
	movl	$0, -40(%rbp)
	jmp	.L36
.L38:
	movl	-44(%rbp), %eax
	movslq	%eax, %rdx
	movq	%rdx, %rax
	addq	%rax, %rax
	addq	%rdx, %rax
	salq	$3, %rax
	movq	%rax, %rdx
	movq	-56(%rbp), %rax
	addq	%rdx, %rax
	movq	(%rax), %rdx
	movl	-40(%rbp), %eax
	cltq
	salq	$2, %rax
	addq	%rdx, %rax
	movl	(%rax), %eax
	cmpl	%eax, -60(%rbp)
	jne	.L37
	movl	-44(%rbp), %eax
	movslq	%eax, %rdx
	movq	%rdx, %rax
	addq	%rax, %rax
	addq	%rdx, %rax
	salq	$3, %rax
	movq	%rax, %rdx
	movq	-56(%rbp), %rax
	addq	%rdx, %rax
	movq	8(%rax), %rdx
	movl	-40(%rbp), %eax
	cltq
	salq	$2, %rax
	addq	%rdx, %rax
	movl	$1, (%rax)
.L37:
	addl	$1, -40(%rbp)
.L36:
	cmpl	$24, -40(%rbp)
	jle	.L38
	movl	-44(%rbp), %eax
	movslq	%eax, %rdx
	movq	%rdx, %rax
	addq	%rax, %rax
	addq	%rdx, %rax
	salq	$3, %rax
	movq	%rax, %rdx
	movq	-56(%rbp), %rax
	addq	%rax, %rdx
	movl	-60(%rbp), %eax
	movl	%eax, 16(%rdx)
	movl	-44(%rbp), %eax
	movslq	%eax, %rdx
	movq	%rdx, %rax
	addq	%rax, %rax
	addq	%rdx, %rax
	salq	$3, %rax
	movq	%rax, %rdx
	movq	-56(%rbp), %rax
	addq	%rdx, %rax
	subq	$8, %rsp
	pushq	16(%rax)
	pushq	8(%rax)
	pushq	(%rax)
	call	hasWon
	addq	$32, %rsp
	movl	%eax, -28(%rbp)
	cmpl	$0, -28(%rbp)
	je	.L43
	movl	-44(%rbp), %eax
	movslq	%eax, %rdx
	movq	%rdx, %rax
	addq	%rax, %rax
	addq	%rdx, %rax
	salq	$3, %rax
	movq	%rax, %rdx
	movq	-56(%rbp), %rax
	addq	%rdx, %rax
	movl	-64(%rbp), %edx
	addl	$1, %edx
	movl	%edx, 20(%rax)
	movl	-44(%rbp), %eax
	movl	%eax, -48(%rbp)
	jmp	.L35
.L42:
	nop
	jmp	.L35
.L43:
	nop
.L35:
	addl	$1, -44(%rbp)
	jmp	.L39
.L41:
	movl	-48(%rbp), %eax
	leave
	.cfi_def_cfa 7, 8
	ret
	.cfi_endproc
.LFE7:
	.size	iterate, .-iterate
	.section	.rodata
	.align 8
.LC5:
	.string	"Board %d didn't win at all! What if the squid chose this one?\n"
	.text
	.globl	part2
	.type	part2, @function
part2:
.LFB8:
	.cfi_startproc
	endbr64
	pushq	%rbp
	.cfi_def_cfa_offset 16
	.cfi_offset 6, -16
	movq	%rsp, %rbp
	.cfi_def_cfa_register 6
	leaq	-20480(%rsp), %r11
.LPSRL1:
	subq	$4096, %rsp
	orq	$0, (%rsp)
	cmpq	%r11, %rsp
	jne	.LPSRL1
	subq	$2464, %rsp
	movq	%rdi, -22936(%rbp)
	movq	%fs:40, %rax
	movq	%rax, -8(%rbp)
	xorl	%eax, %eax
#APP
# 228 "timber-they_AdventOfCode21_4.c" 1
	##_ANNOTATION_INITIALREGION_-TIG-iO-IAnR-1-part2--24
# 0 "" 2
# 232 "timber-they_AdventOfCode21_4.c" 1
	##_ANNOTATION_ATOMICREGION_-TIG-iO-IAnR-1-part2--23
# 0 "" 2
#NO_APP
	movl	$24, %edi
	call	malloc@PLT
	movq	%rax, -22880(%rbp)
	movq	-22880(%rbp), %rax
	movq	-22880(%rbp), %rdx
	movq	%rdx, (%rax)
	movq	-22880(%rbp), %rax
	movq	-22880(%rbp), %rdx
	movq	%rdx, 8(%rax)
	movq	-22880(%rbp), %rax
	movq	%rax, _TIG_iO_IAnR_1_part2_1_opaque_list_1(%rip)
	call	rand@PLT
	movl	%eax, -22900(%rbp)
	movl	$24, %edi
	call	malloc@PLT
	movq	%rax, -22872(%rbp)
	movq	-22872(%rbp), %rax
	movl	$0, 16(%rax)
	movq	_TIG_iO_IAnR_1_part2_1_opaque_list_1(%rip), %rax
	movq	(%rax), %rdx
	movq	-22872(%rbp), %rax
	movq	%rdx, (%rax)
	movq	_TIG_iO_IAnR_1_part2_1_opaque_list_1(%rip), %rdx
	movq	-22872(%rbp), %rax
	movq	%rdx, 8(%rax)
	movq	_TIG_iO_IAnR_1_part2_1_opaque_list_1(%rip), %rax
	movq	(%rax), %rax
	movq	-22872(%rbp), %rdx
	movq	%rdx, 8(%rax)
	movq	_TIG_iO_IAnR_1_part2_1_opaque_list_1(%rip), %rax
	movq	-22872(%rbp), %rdx
	movq	%rdx, (%rax)
	call	rand@PLT
	movl	%eax, -22896(%rbp)
	movl	$24, %edi
	call	malloc@PLT
	movq	%rax, -22864(%rbp)
	movq	-22864(%rbp), %rax
	movl	-22896(%rbp), %edx
	movl	%edx, 16(%rax)
	movq	_TIG_iO_IAnR_1_part2_1_opaque_list_1(%rip), %rax
	movq	(%rax), %rdx
	movq	-22864(%rbp), %rax
	movq	%rdx, (%rax)
	movq	_TIG_iO_IAnR_1_part2_1_opaque_list_1(%rip), %rdx
	movq	-22864(%rbp), %rax
	movq	%rdx, 8(%rax)
	movq	_TIG_iO_IAnR_1_part2_1_opaque_list_1(%rip), %rax
	movq	(%rax), %rax
	movq	-22864(%rbp), %rdx
	movq	%rdx, 8(%rax)
	movq	_TIG_iO_IAnR_1_part2_1_opaque_list_1(%rip), %rax
	movq	-22864(%rbp), %rdx
	movq	%rdx, (%rax)
	call	rand@PLT
	movl	%eax, -22892(%rbp)
	movl	$24, %edi
	call	malloc@PLT
	movq	%rax, -22856(%rbp)
	movl	-22892(%rbp), %eax
	leal	(%rax,%rax), %edx
	movq	-22856(%rbp), %rax
	movl	%edx, 16(%rax)
	movq	_TIG_iO_IAnR_1_part2_1_opaque_list_1(%rip), %rax
	movq	(%rax), %rdx
	movq	-22856(%rbp), %rax
	movq	%rdx, (%rax)
	movq	_TIG_iO_IAnR_1_part2_1_opaque_list_1(%rip), %rdx
	movq	-22856(%rbp), %rax
	movq	%rdx, 8(%rax)
	movq	_TIG_iO_IAnR_1_part2_1_opaque_list_1(%rip), %rax
	movq	(%rax), %rax
	movq	-22856(%rbp), %rdx
	movq	%rdx, 8(%rax)
	movq	_TIG_iO_IAnR_1_part2_1_opaque_list_1(%rip), %rax
	movq	-22856(%rbp), %rdx
	movq	%rdx, (%rax)
	movq	_TIG_iO_IAnR_1_part2_1_opaque_list_1(%rip), %rax
	movq	(%rax), %rax
	movq	%rax, _TIG_iO_IAnR_1_part2_1_opaque_ptr_1(%rip)
	movq	_TIG_iO_IAnR_1_part2_1_opaque_ptr_1(%rip), %rax
	movq	%rax, _TIG_iO_IAnR_1_part2_1_opaque_ptr_2(%rip)
	movq	_TIG_iO_IAnR_1_part2_1_opaque_ptr_2(%rip), %rax
	movq	(%rax), %rax
	movq	%rax, _TIG_iO_IAnR_1_part2_1_opaque_ptr_2(%rip)
	nop
	nop
	movl	$0, -10016(%rbp)
	movl	$1, -22916(%rbp)
	movq	_TIG_iO_IAnR_1_readNumbers_1_opaque_ptr_1(%rip), %rdx
	movq	_TIG_iO_IAnR_1_readNumbers_1_opaque_ptr_2(%rip), %rax
	cmpq	%rax, %rdx
	jne	.L49
.L48:
	cmpl	$2499, -22916(%rbp)
	seta	%al
	movzbl	%al, %eax
	cmpl	%eax, -22888(%rbp)
	jl	.L46
	movl	-22904(%rbp), %eax
	jmp	.L58
.L46:
	movl	-22916(%rbp), %eax
	movl	$0, -10016(%rbp,%rax,4)
	jmp	.L48
.L50:
	movl	-22916(%rbp), %eax
	movl	$0, -10016(%rbp,%rax,4)
	addl	$1, -22916(%rbp)
.L49:
	cmpl	$2499, -22916(%rbp)
	jbe	.L50
	leaq	-22816(%rbp), %rdx
	movq	-22936(%rbp), %rax
	movq	%rdx, %rsi
	movq	%rax, %rdi
	call	readNumbers
	movq	%rax, -22848(%rbp)
	movq	-22848(%rbp), %rax
	movq	%rax, -22840(%rbp)
	movq	-22936(%rbp), %rax
	movq	%rax, %rdi
	call	fgetc@PLT
	movl	%eax, -22888(%rbp)
	cmpl	$10, -22888(%rbp)
	je	.L51
	movq	stderr(%rip), %rax
	movq	%rax, %rcx
	movl	$21, %edx
	movl	$1, %esi
	leaq	.LC4(%rip), %rax
	movq	%rax, %rdi
	call	fwrite@PLT
.L51:
	leaq	-10016(%rbp), %rcx
	leaq	-20016(%rbp), %rdx
	leaq	-22416(%rbp), %rsi
	movq	-22936(%rbp), %rax
	movq	%rax, %rdi
	call	readBoards
	movq	%rax, -22832(%rbp)
	movq	-22832(%rbp), %rax
	movq	%rax, -22824(%rbp)
	movl	$0, -22912(%rbp)
	jmp	.L52
.L53:
	movl	-22912(%rbp), %eax
	cltq
	leaq	0(,%rax,4), %rdx
	movq	-22840(%rbp), %rax
	addq	%rdx, %rax
	movl	(%rax), %ecx
	movl	-22912(%rbp), %edx
	movq	-22824(%rbp), %rax
	movl	%ecx, %esi
	movq	%rax, %rdi
	call	iterate
	addl	$1, -22912(%rbp)
.L52:
	cmpl	$99, -22912(%rbp)
	jle	.L53
	movl	$0, -22908(%rbp)
	movl	$1, -22904(%rbp)
	jmp	.L54
.L57:
	movl	-22904(%rbp), %eax
	movslq	%eax, %rdx
	movq	%rdx, %rax
	addq	%rax, %rax
	addq	%rdx, %rax
	salq	$3, %rax
	movq	%rax, %rdx
	movq	-22824(%rbp), %rax
	addq	%rdx, %rax
	movl	20(%rax), %eax
	testl	%eax, %eax
	jne	.L55
	movq	stderr(%rip), %rax
	movl	-22904(%rbp), %edx
	leaq	.LC5(%rip), %rcx
	movq	%rcx, %rsi
	movq	%rax, %rdi
	movl	$0, %eax
	call	fprintf@PLT
.L55:
	movl	-22904(%rbp), %eax
	movslq	%eax, %rdx
	movq	%rdx, %rax
	addq	%rax, %rax
	addq	%rdx, %rax
	salq	$3, %rax
	movq	%rax, %rdx
	movq	-22824(%rbp), %rax
	addq	%rdx, %rax
	movl	20(%rax), %ecx
	movl	-22908(%rbp), %eax
	movslq	%eax, %rdx
	movq	%rdx, %rax
	addq	%rax, %rax
	addq	%rdx, %rax
	salq	$3, %rax
	movq	%rax, %rdx
	movq	-22824(%rbp), %rax
	addq	%rdx, %rax
	movl	20(%rax), %eax
	cmpl	%eax, %ecx
	jle	.L56
	movl	-22904(%rbp), %eax
	movl	%eax, -22908(%rbp)
.L56:
	addl	$1, -22904(%rbp)
.L54:
	cmpl	$99, -22904(%rbp)
	jle	.L57
	movl	-22908(%rbp), %eax
	movslq	%eax, %rdx
	movq	%rdx, %rax
	addq	%rax, %rax
	addq	%rdx, %rax
	salq	$3, %rax
	movq	%rax, %rdx
	movq	-22824(%rbp), %rax
	addq	%rdx, %rax
	subq	$8, %rsp
	pushq	16(%rax)
	pushq	8(%rax)
	pushq	(%rax)
	call	getScore
	addq	$32, %rsp
	movl	%eax, -22884(%rbp)
	movl	-22884(%rbp), %eax
.L58:
	movq	-8(%rbp), %rdx
	subq	%fs:40, %rdx
	je	.L59
	call	__stack_chk_fail@PLT
.L59:
	leave
	.cfi_def_cfa 7, 8
	ret
	.cfi_endproc
.LFE8:
	.size	part2, .-part2
	.globl	hasWon
	.type	hasWon, @function
hasWon:
.LFB9:
	.cfi_startproc
	endbr64
	pushq	%rbp
	.cfi_def_cfa_offset 16
	.cfi_offset 6, -16
	movq	%rsp, %rbp
	.cfi_def_cfa_register 6
	subq	$48, %rsp
#APP
# 111 "timber-they_AdventOfCode21_4.c" 1
	##_ANNOTATION_INITIALREGION_-TIG-iO-IAnR-1-hasWon--16
# 0 "" 2
# 115 "timber-they_AdventOfCode21_4.c" 1
	##_ANNOTATION_ATOMICREGION_-TIG-iO-IAnR-1-hasWon--15
# 0 "" 2
#NO_APP
	movl	$24, %edi
	call	malloc@PLT
	movq	%rax, -24(%rbp)
	movq	-24(%rbp), %rax
	movq	-24(%rbp), %rdx
	movq	%rdx, 16(%rax)
	movq	-24(%rbp), %rax
	movq	-24(%rbp), %rdx
	movq	%rdx, 8(%rax)
	movq	-24(%rbp), %rax
	movq	%rax, _TIG_iO_IAnR_1_hasWon_1_opaque_list_1(%rip)
	call	rand@PLT
	movl	%eax, -32(%rbp)
	movl	$24, %edi
	call	malloc@PLT
	movq	%rax, -16(%rbp)
	movq	-16(%rbp), %rax
	movl	$0, (%rax)
	movq	_TIG_iO_IAnR_1_hasWon_1_opaque_list_1(%rip), %rax
	movq	16(%rax), %rdx
	movq	-16(%rbp), %rax
	movq	%rdx, 16(%rax)
	movq	_TIG_iO_IAnR_1_hasWon_1_opaque_list_1(%rip), %rdx
	movq	-16(%rbp), %rax
	movq	%rdx, 8(%rax)
	movq	_TIG_iO_IAnR_1_hasWon_1_opaque_list_1(%rip), %rax
	movq	16(%rax), %rax
	movq	-16(%rbp), %rdx
	movq	%rdx, 8(%rax)
	movq	_TIG_iO_IAnR_1_hasWon_1_opaque_list_1(%rip), %rax
	movq	-16(%rbp), %rdx
	movq	%rdx, 16(%rax)
	call	rand@PLT
	movl	%eax, -28(%rbp)
	movl	$24, %edi
	call	malloc@PLT
	movq	%rax, -8(%rbp)
	movq	-8(%rbp), %rax
	movl	-28(%rbp), %edx
	movl	%edx, (%rax)
	movq	_TIG_iO_IAnR_1_hasWon_1_opaque_list_1(%rip), %rax
	movq	16(%rax), %rdx
	movq	-8(%rbp), %rax
	movq	%rdx, 16(%rax)
	movq	_TIG_iO_IAnR_1_hasWon_1_opaque_list_1(%rip), %rdx
	movq	-8(%rbp), %rax
	movq	%rdx, 8(%rax)
	movq	_TIG_iO_IAnR_1_hasWon_1_opaque_list_1(%rip), %rax
	movq	16(%rax), %rax
	movq	-8(%rbp), %rdx
	movq	%rdx, 8(%rax)
	movq	_TIG_iO_IAnR_1_hasWon_1_opaque_list_1(%rip), %rax
	movq	-8(%rbp), %rdx
	movq	%rdx, 16(%rax)
	movq	_TIG_iO_IAnR_1_hasWon_1_opaque_list_1(%rip), %rax
	movq	16(%rax), %rax
	movq	%rax, _TIG_iO_IAnR_1_hasWon_1_opaque_ptr_1(%rip)
	movq	_TIG_iO_IAnR_1_hasWon_1_opaque_ptr_1(%rip), %rax
	movq	%rax, _TIG_iO_IAnR_1_hasWon_1_opaque_ptr_2(%rip)
	nop
	nop
	movl	$0, -48(%rbp)
	jmp	.L61
.L68:
	movl	$0, -44(%rbp)
	jmp	.L62
.L65:
	movq	24(%rbp), %rcx
	movl	-48(%rbp), %edx
	movl	%edx, %eax
	sall	$2, %eax
	addl	%eax, %edx
	movl	-44(%rbp), %eax
	addl	%edx, %eax
	cltq
	salq	$2, %rax
	addq	%rcx, %rax
	movl	(%rax), %eax
	testl	%eax, %eax
	je	.L77
	addl	$1, -44(%rbp)
.L62:
	cmpl	$4, -44(%rbp)
	jle	.L65
	jmp	.L64
.L77:
	nop
.L64:
	cmpl	$5, -44(%rbp)
	jne	.L66
	movl	$1, %eax
	jmp	.L67
.L66:
	addl	$1, -48(%rbp)
.L61:
	cmpl	$4, -48(%rbp)
	jle	.L68
	movl	$0, -40(%rbp)
	jmp	.L69
.L75:
	movl	$0, -36(%rbp)
	jmp	.L70
.L73:
	movq	24(%rbp), %rcx
	movl	-36(%rbp), %edx
	movl	%edx, %eax
	sall	$2, %eax
	addl	%eax, %edx
	movl	-40(%rbp), %eax
	addl	%edx, %eax
	cltq
	salq	$2, %rax
	addq	%rcx, %rax
	movl	(%rax), %eax
	testl	%eax, %eax
	je	.L78
	addl	$1, -36(%rbp)
.L70:
	cmpl	$4, -36(%rbp)
	jle	.L73
	jmp	.L72
.L78:
	nop
.L72:
	cmpl	$5, -36(%rbp)
	jne	.L74
	movl	$2, %eax
	jmp	.L67
.L74:
	addl	$1, -40(%rbp)
.L69:
	cmpl	$4, -40(%rbp)
	jle	.L75
	movq	_TIG_iO_IAnR_1_readNumbers_1_opaque_ptr_1(%rip), %rdx
	movq	_TIG_iO_IAnR_1_readNumbers_1_opaque_ptr_2(%rip), %rax
	cmpq	%rax, %rdx
	jne	.L76
	movl	$0, %eax
	jmp	.L67
.L76:
	movl	$0, %eax
.L67:
	leave
	.cfi_def_cfa 7, 8
	ret
	.cfi_endproc
.LFE9:
	.size	hasWon, .-hasWon
	.globl	getScore
	.type	getScore, @function
getScore:
.LFB12:
	.cfi_startproc
	endbr64
	pushq	%rbp
	.cfi_def_cfa_offset 16
	.cfi_offset 6, -16
	movq	%rsp, %rbp
	.cfi_def_cfa_register 6
	subq	$64, %rsp
#APP
# 78 "/usr/include/x86_64-linux-gnu/bits/byteswap.h" 1
	##_ANNOTATION_INITIALREGION_-TIG-iO-IAnR-1-getScore--14
# 0 "" 2
# 82 "/usr/include/x86_64-linux-gnu/bits/byteswap.h" 1
	##_ANNOTATION_ATOMICREGION_-TIG-iO-IAnR-1-getScore--13
# 0 "" 2
#NO_APP
	movl	$24, %edi
	call	malloc@PLT
	movq	%rax, -40(%rbp)
	movq	-40(%rbp), %rax
	movq	-40(%rbp), %rdx
	movq	%rdx, (%rax)
	movq	-40(%rbp), %rax
	movq	-40(%rbp), %rdx
	movq	%rdx, 8(%rax)
	movq	-40(%rbp), %rax
	movq	%rax, _TIG_iO_IAnR_1_getScore_1_opaque_list_1(%rip)
	call	rand@PLT
	movl	%eax, -56(%rbp)
	movl	$24, %edi
	call	malloc@PLT
	movq	%rax, -32(%rbp)
	movq	-32(%rbp), %rax
	movl	$0, 16(%rax)
	movq	_TIG_iO_IAnR_1_getScore_1_opaque_list_1(%rip), %rax
	movq	(%rax), %rdx
	movq	-32(%rbp), %rax
	movq	%rdx, (%rax)
	movq	_TIG_iO_IAnR_1_getScore_1_opaque_list_1(%rip), %rdx
	movq	-32(%rbp), %rax
	movq	%rdx, 8(%rax)
	movq	_TIG_iO_IAnR_1_getScore_1_opaque_list_1(%rip), %rax
	movq	(%rax), %rax
	movq	-32(%rbp), %rdx
	movq	%rdx, 8(%rax)
	movq	_TIG_iO_IAnR_1_getScore_1_opaque_list_1(%rip), %rax
	movq	-32(%rbp), %rdx
	movq	%rdx, (%rax)
	call	rand@PLT
	movl	%eax, -52(%rbp)
	movl	$24, %edi
	call	malloc@PLT
	movq	%rax, -24(%rbp)
	movq	-24(%rbp), %rax
	movl	-52(%rbp), %edx
	movl	%edx, 16(%rax)
	movq	_TIG_iO_IAnR_1_getScore_1_opaque_list_1(%rip), %rax
	movq	(%rax), %rdx
	movq	-24(%rbp), %rax
	movq	%rdx, (%rax)
	movq	_TIG_iO_IAnR_1_getScore_1_opaque_list_1(%rip), %rdx
	movq	-24(%rbp), %rax
	movq	%rdx, 8(%rax)
	movq	_TIG_iO_IAnR_1_getScore_1_opaque_list_1(%rip), %rax
	movq	(%rax), %rax
	movq	-24(%rbp), %rdx
	movq	%rdx, 8(%rax)
	movq	_TIG_iO_IAnR_1_getScore_1_opaque_list_1(%rip), %rax
	movq	-24(%rbp), %rdx
	movq	%rdx, (%rax)
	call	rand@PLT
	movl	%eax, -48(%rbp)
	movl	$24, %edi
	call	malloc@PLT
	movq	%rax, -16(%rbp)
	movl	-48(%rbp), %eax
	leal	(%rax,%rax), %edx
	movq	-16(%rbp), %rax
	movl	%edx, 16(%rax)
	movq	_TIG_iO_IAnR_1_getScore_1_opaque_list_1(%rip), %rax
	movq	(%rax), %rdx
	movq	-16(%rbp), %rax
	movq	%rdx, (%rax)
	movq	_TIG_iO_IAnR_1_getScore_1_opaque_list_1(%rip), %rdx
	movq	-16(%rbp), %rax
	movq	%rdx, 8(%rax)
	movq	_TIG_iO_IAnR_1_getScore_1_opaque_list_1(%rip), %rax
	movq	(%rax), %rax
	movq	-16(%rbp), %rdx
	movq	%rdx, 8(%rax)
	movq	_TIG_iO_IAnR_1_getScore_1_opaque_list_1(%rip), %rax
	movq	-16(%rbp), %rdx
	movq	%rdx, (%rax)
	call	rand@PLT
	movl	%eax, -44(%rbp)
	movl	$24, %edi
	call	malloc@PLT
	movq	%rax, -8(%rbp)
	movl	-44(%rbp), %edx
	movl	%edx, %eax
	addl	%eax, %eax
	addl	%eax, %edx
	movq	-8(%rbp), %rax
	movl	%edx, 16(%rax)
	movq	_TIG_iO_IAnR_1_getScore_1_opaque_list_1(%rip), %rax
	movq	(%rax), %rdx
	movq	-8(%rbp), %rax
	movq	%rdx, (%rax)
	movq	_TIG_iO_IAnR_1_getScore_1_opaque_list_1(%rip), %rdx
	movq	-8(%rbp), %rax
	movq	%rdx, 8(%rax)
	movq	_TIG_iO_IAnR_1_getScore_1_opaque_list_1(%rip), %rax
	movq	(%rax), %rax
	movq	-8(%rbp), %rdx
	movq	%rdx, 8(%rax)
	movq	_TIG_iO_IAnR_1_getScore_1_opaque_list_1(%rip), %rax
	movq	-8(%rbp), %rdx
	movq	%rdx, (%rax)
	movq	_TIG_iO_IAnR_1_getScore_1_opaque_list_1(%rip), %rax
	movq	(%rax), %rax
	movq	%rax, _TIG_iO_IAnR_1_getScore_1_opaque_ptr_1(%rip)
	movq	_TIG_iO_IAnR_1_getScore_1_opaque_ptr_1(%rip), %rax
	movq	%rax, _TIG_iO_IAnR_1_getScore_1_opaque_ptr_2(%rip)
	movq	_TIG_iO_IAnR_1_getScore_1_opaque_ptr_2(%rip), %rax
	movq	(%rax), %rax
	movq	%rax, _TIG_iO_IAnR_1_getScore_1_opaque_ptr_2(%rip)
	nop
	nop
	movl	$0, -64(%rbp)
	movl	$0, -60(%rbp)
	jmp	.L80
.L83:
	movq	24(%rbp), %rdx
	movl	-60(%rbp), %eax
	cltq
	salq	$2, %rax
	addq	%rdx, %rax
	movl	(%rax), %eax
	testl	%eax, %eax
	jne	.L81
	movq	_TIG_iO_IAnR_1_readNumbers_1_opaque_ptr_1(%rip), %rdx
	movq	_TIG_iO_IAnR_1_readNumbers_1_opaque_ptr_2(%rip), %rax
	cmpq	%rax, %rdx
	je	.L82
	movq	16(%rbp), %rdx
	movl	-60(%rbp), %eax
	cltq
	salq	$2, %rax
	addq	%rdx, %rax
	movl	(%rax), %eax
	addl	%eax, -64(%rbp)
	jmp	.L81
.L82:
	movq	16(%rbp), %rdx
	movl	-60(%rbp), %eax
	cltq
	salq	$2, %rax
	addq	%rdx, %rax
	movl	(%rax), %edx
	movl	-64(%rbp), %eax
	addl	%eax, %edx
	movl	-52(%rbp), %eax
	addl	%edx, %eax
	movl	%eax, -64(%rbp)
.L81:
	addl	$1, -60(%rbp)
.L80:
	cmpl	$24, -60(%rbp)
	jle	.L83
	movl	32(%rbp), %eax
	imull	-64(%rbp), %eax
	leave
	.cfi_def_cfa 7, 8
	ret
	.cfi_endproc
.LFE12:
	.size	getScore, .-getScore
	.section	.rodata
.LC6:
	.string	"r"
.LC7:
	.string	"in4"
.LC8:
	.string	"Part1: %d\n"
.LC9:
	.string	"Part2: %d\n"
	.text
	.globl	main
	.type	main, @function
main:
.LFB13:
	.cfi_startproc
	endbr64
	pushq	%rbp
	.cfi_def_cfa_offset 16
	.cfi_offset 6, -16
	movq	%rsp, %rbp
	.cfi_def_cfa_register 6
	subq	$96, %rsp
	movl	%edi, -68(%rbp)
	movq	%rsi, -80(%rbp)
	movq	%rdx, -88(%rbp)
	movq	$0, _TIG_IZ_IAnR_envp(%rip)
	nop
.L86:
	movq	$0, _TIG_IZ_IAnR_argv(%rip)
	nop
.L87:
	movl	$0, _TIG_IZ_IAnR_argc(%rip)
	nop
	nop
.L88:
.L89:
#APP
# 275 "timber-they_AdventOfCode21_4.c" 1
	##_ANNOTATION_INITIALREGION_-TIG-IZ-IAnR--0
# 0 "" 2
#NO_APP
	movl	-68(%rbp), %eax
	movl	%eax, _TIG_IZ_IAnR_argc(%rip)
	movq	-80(%rbp), %rax
	movq	%rax, _TIG_IZ_IAnR_argv(%rip)
	movq	-88(%rbp), %rax
	movq	%rax, _TIG_IZ_IAnR_envp(%rip)
#APP
# 282 "timber-they_AdventOfCode21_4.c" 1
	##_ANNOTATION_ATOMICREGION_-TIG-iO-IAnR-1-main--19
# 0 "" 2
#NO_APP
	movl	$24, %edi
	call	malloc@PLT
	movq	%rax, -40(%rbp)
	movq	-40(%rbp), %rax
	movq	-40(%rbp), %rdx
	movq	%rdx, 8(%rax)
	movq	-40(%rbp), %rax
	movq	-40(%rbp), %rdx
	movq	%rdx, 16(%rax)
	movq	-40(%rbp), %rax
	movq	%rax, _TIG_iO_IAnR_1_main_1_opaque_list_1(%rip)
	call	rand@PLT
	movl	%eax, -56(%rbp)
	movl	$24, %edi
	call	malloc@PLT
	movq	%rax, -32(%rbp)
	movq	-32(%rbp), %rax
	movl	$0, (%rax)
	movq	_TIG_iO_IAnR_1_main_1_opaque_list_1(%rip), %rax
	movq	8(%rax), %rdx
	movq	-32(%rbp), %rax
	movq	%rdx, 8(%rax)
	movq	_TIG_iO_IAnR_1_main_1_opaque_list_1(%rip), %rdx
	movq	-32(%rbp), %rax
	movq	%rdx, 16(%rax)
	movq	_TIG_iO_IAnR_1_main_1_opaque_list_1(%rip), %rax
	movq	8(%rax), %rax
	movq	-32(%rbp), %rdx
	movq	%rdx, 16(%rax)
	movq	_TIG_iO_IAnR_1_main_1_opaque_list_1(%rip), %rax
	movq	-32(%rbp), %rdx
	movq	%rdx, 8(%rax)
	call	rand@PLT
	movl	%eax, -52(%rbp)
	movl	$24, %edi
	call	malloc@PLT
	movq	%rax, -24(%rbp)
	movq	-24(%rbp), %rax
	movl	-52(%rbp), %edx
	movl	%edx, (%rax)
	movq	_TIG_iO_IAnR_1_main_1_opaque_list_1(%rip), %rax
	movq	8(%rax), %rdx
	movq	-24(%rbp), %rax
	movq	%rdx, 8(%rax)
	movq	_TIG_iO_IAnR_1_main_1_opaque_list_1(%rip), %rdx
	movq	-24(%rbp), %rax
	movq	%rdx, 16(%rax)
	movq	_TIG_iO_IAnR_1_main_1_opaque_list_1(%rip), %rax
	movq	8(%rax), %rax
	movq	-24(%rbp), %rdx
	movq	%rdx, 16(%rax)
	movq	_TIG_iO_IAnR_1_main_1_opaque_list_1(%rip), %rax
	movq	-24(%rbp), %rdx
	movq	%rdx, 8(%rax)
	movq	_TIG_iO_IAnR_1_main_1_opaque_list_1(%rip), %rax
	movq	8(%rax), %rax
	movq	%rax, _TIG_iO_IAnR_1_main_1_opaque_ptr_1(%rip)
	movq	_TIG_iO_IAnR_1_main_1_opaque_ptr_1(%rip), %rax
	movq	%rax, _TIG_iO_IAnR_1_main_1_opaque_ptr_2(%rip)
	nop
	nop
	leaq	.LC6(%rip), %rax
	movq	%rax, %rsi
	leaq	.LC7(%rip), %rax
	movq	%rax, %rdi
	call	fopen@PLT
	movq	%rax, -16(%rbp)
	movq	-16(%rbp), %rax
	movq	%rax, -8(%rbp)
	movq	-8(%rbp), %rax
	movq	%rax, %rdi
	call	part1
	movl	%eax, -48(%rbp)
	movl	-48(%rbp), %eax
	movl	%eax, %esi
	leaq	.LC8(%rip), %rax
	movq	%rax, %rdi
	movl	$0, %eax
	call	printf@PLT
	movq	-8(%rbp), %rax
	movq	%rax, %rdi
	call	rewind@PLT
	movq	-8(%rbp), %rax
	movq	%rax, %rdi
	call	part2
	movl	%eax, -44(%rbp)
	movl	-44(%rbp), %eax
	movl	%eax, %esi
	leaq	.LC9(%rip), %rax
	movq	%rax, %rdi
	movl	$0, %eax
	call	printf@PLT
	movq	-8(%rbp), %rax
	movq	%rax, %rdi
	call	fclose@PLT
	movq	_TIG_iO_IAnR_1_readNumbers_1_opaque_ptr_1(%rip), %rdx
	movq	_TIG_iO_IAnR_1_readNumbers_1_opaque_ptr_2(%rip), %rax
	cmpq	%rax, %rdx
	je	.L90
	movl	$0, %eax
	jmp	.L91
.L90:
	movl	$0, %eax
.L91:
	leave
	.cfi_def_cfa 7, 8
	ret
	.cfi_endproc
.LFE13:
	.size	main, .-main
	.globl	readBoards
	.type	readBoards, @function
readBoards:
.LFB14:
	.cfi_startproc
	endbr64
	pushq	%rbp
	.cfi_def_cfa_offset 16
	.cfi_offset 6, -16
	movq	%rsp, %rbp
	.cfi_def_cfa_register 6
	subq	$176, %rsp
	movq	%rdi, -152(%rbp)
	movq	%rsi, -160(%rbp)
	movq	%rdx, -168(%rbp)
	movq	%rcx, -176(%rbp)
#APP
# 72 "timber-they_AdventOfCode21_4.c" 1
	##_ANNOTATION_INITIALREGION_-TIG-iO-IAnR-1-readBoards--28
# 0 "" 2
# 76 "timber-they_AdventOfCode21_4.c" 1
	##_ANNOTATION_ATOMICREGION_-TIG-iO-IAnR-1-readBoards--27
# 0 "" 2
#NO_APP
	movl	$24, %edi
	call	malloc@PLT
	movq	%rax, -88(%rbp)
	movq	-88(%rbp), %rax
	movq	-88(%rbp), %rdx
	movq	%rdx, 16(%rax)
	movq	-88(%rbp), %rax
	movq	-88(%rbp), %rdx
	movq	%rdx, 8(%rax)
	movq	-88(%rbp), %rax
	movq	%rax, _TIG_iO_IAnR_1_readBoards_1_opaque_list_1(%rip)
	call	rand@PLT
	movl	%eax, -112(%rbp)
	movl	$24, %edi
	call	malloc@PLT
	movq	%rax, -80(%rbp)
	movq	-80(%rbp), %rax
	movl	$0, (%rax)
	movq	_TIG_iO_IAnR_1_readBoards_1_opaque_list_1(%rip), %rax
	movq	16(%rax), %rdx
	movq	-80(%rbp), %rax
	movq	%rdx, 16(%rax)
	movq	_TIG_iO_IAnR_1_readBoards_1_opaque_list_1(%rip), %rdx
	movq	-80(%rbp), %rax
	movq	%rdx, 8(%rax)
	movq	_TIG_iO_IAnR_1_readBoards_1_opaque_list_1(%rip), %rax
	movq	16(%rax), %rax
	movq	-80(%rbp), %rdx
	movq	%rdx, 8(%rax)
	movq	_TIG_iO_IAnR_1_readBoards_1_opaque_list_1(%rip), %rax
	movq	-80(%rbp), %rdx
	movq	%rdx, 16(%rax)
	call	rand@PLT
	movl	%eax, -108(%rbp)
	movl	$24, %edi
	call	malloc@PLT
	movq	%rax, -72(%rbp)
	movq	-72(%rbp), %rax
	movl	-108(%rbp), %edx
	movl	%edx, (%rax)
	movq	_TIG_iO_IAnR_1_readBoards_1_opaque_list_1(%rip), %rax
	movq	16(%rax), %rdx
	movq	-72(%rbp), %rax
	movq	%rdx, 16(%rax)
	movq	_TIG_iO_IAnR_1_readBoards_1_opaque_list_1(%rip), %rdx
	movq	-72(%rbp), %rax
	movq	%rdx, 8(%rax)
	movq	_TIG_iO_IAnR_1_readBoards_1_opaque_list_1(%rip), %rax
	movq	16(%rax), %rax
	movq	-72(%rbp), %rdx
	movq	%rdx, 8(%rax)
	movq	_TIG_iO_IAnR_1_readBoards_1_opaque_list_1(%rip), %rax
	movq	-72(%rbp), %rdx
	movq	%rdx, 16(%rax)
	movq	_TIG_iO_IAnR_1_readBoards_1_opaque_list_1(%rip), %rax
	movq	16(%rax), %rax
	movq	%rax, _TIG_iO_IAnR_1_readBoards_1_opaque_ptr_1(%rip)
	movq	_TIG_iO_IAnR_1_readBoards_1_opaque_ptr_1(%rip), %rax
	movq	%rax, _TIG_iO_IAnR_1_readBoards_1_opaque_ptr_2(%rip)
	nop
	nop
	movl	$0, -132(%rbp)
	movl	$0, -128(%rbp)
	movl	$0, -124(%rbp)
.L95:
	movq	-152(%rbp), %rax
	movq	%rax, %rdi
	call	fgetc@PLT
	movl	%eax, -120(%rbp)
	cmpl	$32, -120(%rbp)
	jne	.L112
	jmp	.L95
.L112:
	nop
	movl	$0, -116(%rbp)
.L109:
	cmpl	$32, -120(%rbp)
	je	.L96
	cmpl	$32, -120(%rbp)
	jg	.L97
	cmpl	$-1, -120(%rbp)
	je	.L98
	cmpl	$10, -120(%rbp)
	je	.L99
	jmp	.L97
.L96:
	movl	-124(%rbp), %eax
	movl	%eax, -104(%rbp)
	addl	$1, -124(%rbp)
	movl	-128(%rbp), %edx
	movl	%edx, %eax
	sall	$2, %eax
	addl	%eax, %edx
	movl	-104(%rbp), %eax
	addl	%edx, %eax
	cltq
	leaq	0(,%rax,4), %rdx
	movq	-168(%rbp), %rax
	addq	%rax, %rdx
	movl	-116(%rbp), %eax
	movl	%eax, (%rdx)
	movl	$0, -116(%rbp)
	jmp	.L100
.L99:
	cmpl	$0, -124(%rbp)
	jne	.L101
	movl	-132(%rbp), %eax
	movl	%eax, -96(%rbp)
	addl	$1, -132(%rbp)
	movq	-168(%rbp), %rax
	movq	%rax, -64(%rbp)
	movq	-176(%rbp), %rax
	movq	%rax, -56(%rbp)
	movl	$-1, -48(%rbp)
	movl	$0, -44(%rbp)
	movl	-96(%rbp), %eax
	movslq	%eax, %rdx
	movq	%rdx, %rax
	addq	%rax, %rax
	addq	%rdx, %rax
	salq	$3, %rax
	movq	%rax, %rdx
	movq	-160(%rbp), %rax
	leaq	(%rdx,%rax), %rcx
	movq	-64(%rbp), %rax
	movq	-56(%rbp), %rdx
	movq	%rax, (%rcx)
	movq	%rdx, 8(%rcx)
	movq	-48(%rbp), %rax
	movq	%rax, 16(%rcx)
	addq	$100, -168(%rbp)
	addq	$100, -176(%rbp)
	movl	$0, -128(%rbp)
	jmp	.L100
.L101:
	movl	-128(%rbp), %eax
	movl	%eax, -100(%rbp)
	addl	$1, -128(%rbp)
	movl	-100(%rbp), %edx
	movl	%edx, %eax
	sall	$2, %eax
	addl	%eax, %edx
	movl	-124(%rbp), %eax
	addl	%edx, %eax
	cltq
	leaq	0(,%rax,4), %rdx
	movq	-168(%rbp), %rax
	addq	%rax, %rdx
	movl	-116(%rbp), %eax
	movl	%eax, (%rdx)
	movl	$0, -124(%rbp)
	movl	$0, -116(%rbp)
	jmp	.L100
.L98:
	movl	-132(%rbp), %eax
	movl	%eax, -92(%rbp)
	addl	$1, -132(%rbp)
	movq	-168(%rbp), %rax
	movq	%rax, -32(%rbp)
	movq	-176(%rbp), %rax
	movq	%rax, -24(%rbp)
	movl	$-1, -16(%rbp)
	movl	$0, -12(%rbp)
	movl	-92(%rbp), %eax
	movslq	%eax, %rdx
	movq	%rdx, %rax
	addq	%rax, %rax
	addq	%rdx, %rax
	salq	$3, %rax
	movq	%rax, %rdx
	movq	-160(%rbp), %rax
	leaq	(%rdx,%rax), %rcx
	movq	-32(%rbp), %rax
	movq	-24(%rbp), %rdx
	movq	%rax, (%rcx)
	movq	%rdx, 8(%rcx)
	movq	-16(%rbp), %rax
	movq	%rax, 16(%rcx)
	movq	-160(%rbp), %rax
	jmp	.L110
.L97:
	movl	-116(%rbp), %edx
	movl	%edx, %eax
	sall	$2, %eax
	addl	%edx, %eax
	addl	%eax, %eax
	movl	%eax, %edx
	movl	-120(%rbp), %eax
	subl	$48, %eax
	addl	%edx, %eax
	movl	%eax, -116(%rbp)
	movq	-152(%rbp), %rax
	movq	%rax, %rdi
	call	fgetc@PLT
	movl	%eax, -120(%rbp)
	jmp	.L103
.L100:
	movq	_TIG_iO_IAnR_1_readNumbers_1_opaque_ptr_1(%rip), %rdx
	movq	_TIG_iO_IAnR_1_readNumbers_1_opaque_ptr_2(%rip), %rax
	cmpq	%rax, %rdx
	je	.L104
.L107:
	movq	-152(%rbp), %rax
	movq	%rax, %rdi
	call	fgetc@PLT
	movl	%eax, -120(%rbp)
	cmpl	$32, -120(%rbp)
	jne	.L113
	jmp	.L107
.L104:
	movq	-152(%rbp), %rax
	subq	$216, %rax
	movq	%rax, %rdi
	call	fgetc@PLT
	movl	%eax, -120(%rbp)
	cmpl	$32, -120(%rbp)
	sete	%al
	movzbl	%al, %eax
	cmpl	%eax, -120(%rbp)
	jg	.L104
	movq	-160(%rbp), %rax
	jmp	.L110
.L113:
	nop
.L103:
	jmp	.L109
.L110:
	leave
	.cfi_def_cfa 7, 8
	ret
	.cfi_endproc
.LFE14:
	.size	readBoards, .-readBoards
	.ident	"GCC: (Ubuntu 11.4.0-1ubuntu1~22.04) 11.4.0"
	.section	.note.GNU-stack,"",@progbits
	.section	.note.gnu.property,"a"
	.align 8
	.long	1f - 0f
	.long	4f - 1f
	.long	5
0:
	.string	"GNU"
1:
	.align 8
	.long	0xc0000002
	.long	3f - 2f
2:
	.long	0x3
3:
	.align 8
4:
