	.file	"WangLouis_Ardupilot_kai_main_opaque.c"
	.text
	.globl	_TIG_iO_35H6_1_emit_userdata_field_1_opaque_ptr_2
	.bss
	.align 8
	.type	_TIG_iO_35H6_1_emit_userdata_field_1_opaque_ptr_2, @object
	.size	_TIG_iO_35H6_1_emit_userdata_field_1_opaque_ptr_2, 8
_TIG_iO_35H6_1_emit_userdata_field_1_opaque_ptr_2:
	.zero	8
	.globl	_TIG_iO_35H6_1___uint16_identity_1_opaque_list_2
	.align 8
	.type	_TIG_iO_35H6_1___uint16_identity_1_opaque_list_2, @object
	.size	_TIG_iO_35H6_1___uint16_identity_1_opaque_list_2, 8
_TIG_iO_35H6_1___uint16_identity_1_opaque_list_2:
	.zero	8
	.globl	description
	.align 8
	.type	description, @object
	.size	description, 8
description:
	.zero	8
	.globl	_TIG_iO_35H6_1_handle_method_1_opaque_ptr_1
	.align 8
	.type	_TIG_iO_35H6_1_handle_method_1_opaque_ptr_1, @object
	.size	_TIG_iO_35H6_1_handle_method_1_opaque_ptr_1, 8
_TIG_iO_35H6_1_handle_method_1_opaque_ptr_1:
	.zero	8
	.globl	_TIG_iO_35H6_1_emit_userdata_declarations_1_opaque_ptr_2
	.align 8
	.type	_TIG_iO_35H6_1_emit_userdata_declarations_1_opaque_ptr_2, @object
	.size	_TIG_iO_35H6_1_emit_userdata_declarations_1_opaque_ptr_2, 8
_TIG_iO_35H6_1_emit_userdata_declarations_1_opaque_ptr_2:
	.zero	8
	.globl	_TIG_IZ_35H6_argc
	.align 4
	.type	_TIG_IZ_35H6_argc, @object
	.size	_TIG_IZ_35H6_argc, 4
_TIG_IZ_35H6_argc:
	.zero	4
	.globl	_TIG_iO_35H6_1_emit_ap_object_allocators_1_opaque_list_1
	.align 8
	.type	_TIG_iO_35H6_1_emit_ap_object_allocators_1_opaque_list_1, @object
	.size	_TIG_iO_35H6_1_emit_ap_object_allocators_1_opaque_list_1, 8
_TIG_iO_35H6_1_emit_ap_object_allocators_1_opaque_list_1:
	.zero	8
	.globl	_TIG_iO_35H6_1_emit_sandbox_1_opaque_list_1
	.align 8
	.type	_TIG_iO_35H6_1_emit_sandbox_1_opaque_list_1, @object
	.size	_TIG_iO_35H6_1_emit_sandbox_1_opaque_list_1, 8
_TIG_iO_35H6_1_emit_sandbox_1_opaque_list_1:
	.zero	8
	.globl	_TIG_iO_35H6_1_handle_userdata_1_opaque_list_2
	.align 8
	.type	_TIG_iO_35H6_1_handle_userdata_1_opaque_list_2, @object
	.size	_TIG_iO_35H6_1_handle_userdata_1_opaque_list_2, 8
_TIG_iO_35H6_1_handle_userdata_1_opaque_list_2:
	.zero	8
	.globl	_TIG_iO_35H6_1_handle_header_1_opaque_ptr_2
	.align 8
	.type	_TIG_iO_35H6_1_handle_header_1_opaque_ptr_2, @object
	.size	_TIG_iO_35H6_1_handle_header_1_opaque_ptr_2, 8
_TIG_iO_35H6_1_handle_header_1_opaque_ptr_2:
	.zero	8
	.globl	keyword_alias
	.type	keyword_alias, @object
	.size	keyword_alias, 6
keyword_alias:
	.zero	6
	.local	parsed_userdata
	.comm	parsed_userdata,8,8
	.globl	_TIG_iO_35H6_1_emit_references_1_opaque_ptr_1
	.align 8
	.type	_TIG_iO_35H6_1_emit_references_1_opaque_ptr_1, @object
	.size	_TIG_iO_35H6_1_emit_references_1_opaque_ptr_1, 8
_TIG_iO_35H6_1_emit_references_1_opaque_ptr_1:
	.zero	8
	.globl	_TIG_iO_35H6_1_parse_range_check_1_opaque_list_2
	.align 8
	.type	_TIG_iO_35H6_1_parse_range_check_1_opaque_list_2, @object
	.size	_TIG_iO_35H6_1_parse_range_check_1_opaque_list_2, 8
_TIG_iO_35H6_1_parse_range_check_1_opaque_list_2:
	.zero	8
	.globl	_TIG_iO_35H6_1_string_copy_1_opaque_ptr_2
	.align 8
	.type	_TIG_iO_35H6_1_string_copy_1_opaque_ptr_2, @object
	.size	_TIG_iO_35H6_1_string_copy_1_opaque_ptr_2, 8
_TIG_iO_35H6_1_string_copy_1_opaque_ptr_2:
	.zero	8
	.globl	_TIG_iO_35H6_1_main_1_opaque_ptr_2
	.align 8
	.type	_TIG_iO_35H6_1_main_1_opaque_ptr_2, @object
	.size	_TIG_iO_35H6_1_main_1_opaque_ptr_2, 8
_TIG_iO_35H6_1_main_1_opaque_ptr_2:
	.zero	8
	.globl	_TIG_iO_35H6_1_sanitize_character_1_opaque_ptr_2
	.align 8
	.type	_TIG_iO_35H6_1_sanitize_character_1_opaque_ptr_2, @object
	.size	_TIG_iO_35H6_1_sanitize_character_1_opaque_ptr_2, 8
_TIG_iO_35H6_1_sanitize_character_1_opaque_ptr_2:
	.zero	8
	.globl	TRACE_LEVEL
	.align 4
	.type	TRACE_LEVEL, @object
	.size	TRACE_LEVEL, 4
TRACE_LEVEL:
	.zero	4
	.globl	_TIG_iO_35H6_1_sanatize_name_1_opaque_ptr_2
	.align 8
	.type	_TIG_iO_35H6_1_sanatize_name_1_opaque_ptr_2, @object
	.size	_TIG_iO_35H6_1_sanatize_name_1_opaque_ptr_2, 8
_TIG_iO_35H6_1_sanatize_name_1_opaque_ptr_2:
	.zero	8
	.globl	_TIG_iO_35H6_1_emit_userdata_field_1_opaque_list_2
	.align 8
	.type	_TIG_iO_35H6_1_emit_userdata_field_1_opaque_list_2, @object
	.size	_TIG_iO_35H6_1_emit_userdata_field_1_opaque_list_2, 8
_TIG_iO_35H6_1_emit_userdata_field_1_opaque_list_2:
	.zero	8
	.globl	_TIG_iO_35H6_1_handle_header_1_opaque_ptr_1
	.align 8
	.type	_TIG_iO_35H6_1_handle_header_1_opaque_ptr_1, @object
	.size	_TIG_iO_35H6_1_handle_header_1_opaque_ptr_1, 8
_TIG_iO_35H6_1_handle_header_1_opaque_ptr_1:
	.zero	8
	.globl	_TIG_iO_35H6_1_emit_operators_1_opaque_list_2
	.align 8
	.type	_TIG_iO_35H6_1_emit_operators_1_opaque_list_2, @object
	.size	_TIG_iO_35H6_1_emit_operators_1_opaque_list_2, 8
_TIG_iO_35H6_1_emit_operators_1_opaque_list_2:
	.zero	8
	.globl	keyword_attr_array
	.type	keyword_attr_array, @object
	.size	keyword_attr_array, 7
keyword_attr_array:
	.zero	7
	.globl	_TIG_iO_35H6_1_emit_singleton_metatables_1_opaque_ptr_1
	.align 8
	.type	_TIG_iO_35H6_1_emit_singleton_metatables_1_opaque_ptr_1, @object
	.size	_TIG_iO_35H6_1_emit_singleton_metatables_1_opaque_ptr_1, 8
_TIG_iO_35H6_1_emit_singleton_metatables_1_opaque_ptr_1:
	.zero	8
	.globl	_TIG_iO_35H6_1___uint64_identity_1_opaque_list_1
	.align 8
	.type	_TIG_iO_35H6_1___uint64_identity_1_opaque_list_1, @object
	.size	_TIG_iO_35H6_1___uint64_identity_1_opaque_list_1, 8
_TIG_iO_35H6_1___uint64_identity_1_opaque_list_1:
	.zero	8
	.globl	_TIG_iO_35H6_1_main_1_opaque_list_1
	.align 8
	.type	_TIG_iO_35H6_1_main_1_opaque_list_1, @object
	.size	_TIG_iO_35H6_1_main_1_opaque_list_1, 8
_TIG_iO_35H6_1_main_1_opaque_list_1:
	.zero	8
	.globl	_TIG_iO_35H6_1_end_dependency_1_opaque_ptr_1
	.align 8
	.type	_TIG_iO_35H6_1_end_dependency_1_opaque_ptr_1, @object
	.size	_TIG_iO_35H6_1_end_dependency_1_opaque_ptr_1, 8
_TIG_iO_35H6_1_end_dependency_1_opaque_ptr_1:
	.zero	8
	.globl	_TIG_iO_35H6_1_emit_ap_object_checkers_1_opaque_list_1
	.align 8
	.type	_TIG_iO_35H6_1_emit_ap_object_checkers_1_opaque_list_1, @object
	.size	_TIG_iO_35H6_1_emit_ap_object_checkers_1_opaque_list_1, 8
_TIG_iO_35H6_1_emit_ap_object_checkers_1_opaque_list_1:
	.zero	8
	.globl	_TIG_iO_35H6_1_parse_type_1_opaque_ptr_2
	.align 8
	.type	_TIG_iO_35H6_1_parse_type_1_opaque_ptr_2, @object
	.size	_TIG_iO_35H6_1_parse_type_1_opaque_ptr_2, 8
_TIG_iO_35H6_1_parse_type_1_opaque_ptr_2:
	.zero	8
	.globl	_TIG_iO_35H6_1_emit_userdata_allocators_1_opaque_list_2
	.align 8
	.type	_TIG_iO_35H6_1_emit_userdata_allocators_1_opaque_list_2, @object
	.size	_TIG_iO_35H6_1_emit_userdata_allocators_1_opaque_list_2, 8
_TIG_iO_35H6_1_emit_userdata_allocators_1_opaque_list_2:
	.zero	8
	.globl	_TIG_iO_35H6_1_emit_ap_object_declarations_1_opaque_ptr_2
	.align 8
	.type	_TIG_iO_35H6_1_emit_ap_object_declarations_1_opaque_ptr_2, @object
	.size	_TIG_iO_35H6_1_emit_ap_object_declarations_1_opaque_ptr_2, 8
_TIG_iO_35H6_1_emit_ap_object_declarations_1_opaque_ptr_2:
	.zero	8
	.globl	_TIG_iO_35H6_1_emit_operators_1_opaque_list_1
	.align 8
	.type	_TIG_iO_35H6_1_emit_operators_1_opaque_list_1, @object
	.size	_TIG_iO_35H6_1_emit_operators_1_opaque_list_1, 8
_TIG_iO_35H6_1_emit_operators_1_opaque_list_1:
	.zero	8
	.globl	_TIG_iO_35H6_1_emit_argcheck_helper_1_opaque_list_1
	.align 8
	.type	_TIG_iO_35H6_1_emit_argcheck_helper_1_opaque_list_1, @object
	.size	_TIG_iO_35H6_1_emit_argcheck_helper_1_opaque_list_1, 8
_TIG_iO_35H6_1_emit_argcheck_helper_1_opaque_list_1:
	.zero	8
	.globl	_TIG_iO_35H6_1_emit_not_supported_helper_1_opaque_list_1
	.align 8
	.type	_TIG_iO_35H6_1_emit_not_supported_helper_1_opaque_list_1, @object
	.size	_TIG_iO_35H6_1_emit_not_supported_helper_1_opaque_list_1, 8
_TIG_iO_35H6_1_emit_not_supported_helper_1_opaque_list_1:
	.zero	8
	.globl	_TIG_iO_35H6_1_emit_metas_1_opaque_ptr_2
	.align 8
	.type	_TIG_iO_35H6_1_emit_metas_1_opaque_ptr_2, @object
	.size	_TIG_iO_35H6_1_emit_metas_1_opaque_ptr_2, 8
_TIG_iO_35H6_1_emit_metas_1_opaque_ptr_2:
	.zero	8
	.globl	_TIG_iO_35H6_1___bswap_64_1_opaque_ptr_2
	.align 8
	.type	_TIG_iO_35H6_1___bswap_64_1_opaque_ptr_2, @object
	.size	_TIG_iO_35H6_1___bswap_64_1_opaque_ptr_2, 8
_TIG_iO_35H6_1___bswap_64_1_opaque_ptr_2:
	.zero	8
	.globl	_TIG_iO_35H6_1_next_token_1_opaque_ptr_2
	.align 8
	.type	_TIG_iO_35H6_1_next_token_1_opaque_ptr_2, @object
	.size	_TIG_iO_35H6_1_next_token_1_opaque_ptr_2, 8
_TIG_iO_35H6_1_next_token_1_opaque_ptr_2:
	.zero	8
	.globl	_TIG_iO_35H6_1_emit_sandbox_1_opaque_ptr_2
	.align 8
	.type	_TIG_iO_35H6_1_emit_sandbox_1_opaque_ptr_2, @object
	.size	_TIG_iO_35H6_1_emit_sandbox_1_opaque_ptr_2, 8
_TIG_iO_35H6_1_emit_sandbox_1_opaque_ptr_2:
	.zero	8
	.globl	_TIG_iO_35H6_1_handle_userdata_field_1_opaque_list_1
	.align 8
	.type	_TIG_iO_35H6_1_handle_userdata_field_1_opaque_list_1, @object
	.size	_TIG_iO_35H6_1_handle_userdata_field_1_opaque_list_1, 8
_TIG_iO_35H6_1_handle_userdata_field_1_opaque_list_1:
	.zero	8
	.globl	_TIG_iO_35H6_1_emit_ap_object_checkers_1_opaque_list_2
	.align 8
	.type	_TIG_iO_35H6_1_emit_ap_object_checkers_1_opaque_list_2, @object
	.size	_TIG_iO_35H6_1_emit_ap_object_checkers_1_opaque_list_2, 8
_TIG_iO_35H6_1_emit_ap_object_checkers_1_opaque_list_2:
	.zero	8
	.globl	_TIG_iO_35H6_1_handle_singleton_1_opaque_list_2
	.align 8
	.type	_TIG_iO_35H6_1_handle_singleton_1_opaque_list_2, @object
	.size	_TIG_iO_35H6_1_handle_singleton_1_opaque_list_2, 8
_TIG_iO_35H6_1_handle_singleton_1_opaque_list_2:
	.zero	8
	.globl	_TIG_iO_35H6_1_start_line_1_opaque_ptr_1
	.align 8
	.type	_TIG_iO_35H6_1_start_line_1_opaque_ptr_1, @object
	.size	_TIG_iO_35H6_1_start_line_1_opaque_ptr_1, 8
_TIG_iO_35H6_1_start_line_1_opaque_ptr_1:
	.zero	8
	.globl	_TIG_iO_35H6_1_get_name_for_operation_1_opaque_ptr_2
	.align 8
	.type	_TIG_iO_35H6_1_get_name_for_operation_1_opaque_ptr_2, @object
	.size	_TIG_iO_35H6_1_get_name_for_operation_1_opaque_ptr_2, 8
_TIG_iO_35H6_1_get_name_for_operation_1_opaque_ptr_2:
	.zero	8
	.globl	_TIG_IZ_35H6_argv
	.align 8
	.type	_TIG_IZ_35H6_argv, @object
	.size	_TIG_IZ_35H6_argv, 8
_TIG_IZ_35H6_argv:
	.zero	8
	.globl	_TIG_iO_35H6_1_parse_range_check_1_opaque_list_1
	.align 8
	.type	_TIG_iO_35H6_1_parse_range_check_1_opaque_list_1, @object
	.size	_TIG_iO_35H6_1_parse_range_check_1_opaque_list_1, 8
_TIG_iO_35H6_1_parse_range_check_1_opaque_list_1:
	.zero	8
	.globl	_TIG_iO_35H6_1_parse_type_1_opaque_list_2
	.align 8
	.type	_TIG_iO_35H6_1_parse_type_1_opaque_list_2, @object
	.size	_TIG_iO_35H6_1_parse_type_1_opaque_list_2, 8
_TIG_iO_35H6_1_parse_type_1_opaque_list_2:
	.zero	8
	.globl	_TIG_iO_35H6_1_sanity_check_userdata_1_opaque_ptr_1
	.align 8
	.type	_TIG_iO_35H6_1_sanity_check_userdata_1_opaque_ptr_1, @object
	.size	_TIG_iO_35H6_1_sanity_check_userdata_1_opaque_ptr_1, 8
_TIG_iO_35H6_1_sanity_check_userdata_1_opaque_ptr_1:
	.zero	8
	.globl	type_labels
	.align 32
	.type	type_labels, @object
	.size	type_labels, 104
type_labels:
	.zero	104
	.globl	_TIG_iO_35H6_1_emit_enums_1_opaque_ptr_2
	.align 8
	.type	_TIG_iO_35H6_1_emit_enums_1_opaque_ptr_2, @object
	.size	_TIG_iO_35H6_1_emit_enums_1_opaque_ptr_2, 8
_TIG_iO_35H6_1_emit_enums_1_opaque_ptr_2:
	.zero	8
	.globl	_TIG_iO_35H6_1_sanitize_character_1_opaque_list_2
	.align 8
	.type	_TIG_iO_35H6_1_sanitize_character_1_opaque_list_2, @object
	.size	_TIG_iO_35H6_1_sanitize_character_1_opaque_list_2, 8
_TIG_iO_35H6_1_sanitize_character_1_opaque_list_2:
	.zero	8
	.globl	_TIG_iO_35H6_1_end_dependency_1_opaque_list_1
	.align 8
	.type	_TIG_iO_35H6_1_end_dependency_1_opaque_list_1, @object
	.size	_TIG_iO_35H6_1_end_dependency_1_opaque_list_1, 8
_TIG_iO_35H6_1_end_dependency_1_opaque_list_1:
	.zero	8
	.globl	_TIG_iO_35H6_1_handle_ap_object_1_opaque_list_2
	.align 8
	.type	_TIG_iO_35H6_1_handle_ap_object_1_opaque_list_2, @object
	.size	_TIG_iO_35H6_1_handle_ap_object_1_opaque_list_2, 8
_TIG_iO_35H6_1_handle_ap_object_1_opaque_list_2:
	.zero	8
	.globl	_TIG_iO_35H6_1_handle_userdata_enum_1_opaque_ptr_1
	.align 8
	.type	_TIG_iO_35H6_1_handle_userdata_enum_1_opaque_ptr_1, @object
	.size	_TIG_iO_35H6_1_handle_userdata_enum_1_opaque_ptr_1, 8
_TIG_iO_35H6_1_handle_userdata_enum_1_opaque_ptr_1:
	.zero	8
	.globl	_TIG_iO_35H6_1_emit_singleton_metatables_1_opaque_ptr_2
	.align 8
	.type	_TIG_iO_35H6_1_emit_singleton_metatables_1_opaque_ptr_2, @object
	.size	_TIG_iO_35H6_1_emit_singleton_metatables_1_opaque_ptr_2, 8
_TIG_iO_35H6_1_emit_singleton_metatables_1_opaque_ptr_2:
	.zero	8
	.globl	_TIG_iO_35H6_1_parse_type_1_opaque_ptr_1
	.align 8
	.type	_TIG_iO_35H6_1_parse_type_1_opaque_ptr_1, @object
	.size	_TIG_iO_35H6_1_parse_type_1_opaque_ptr_1, 8
_TIG_iO_35H6_1_parse_type_1_opaque_ptr_1:
	.zero	8
	.globl	_TIG_iO_35H6_1_emit_checker_1_opaque_list_1
	.align 8
	.type	_TIG_iO_35H6_1_emit_checker_1_opaque_list_1, @object
	.size	_TIG_iO_35H6_1_emit_checker_1_opaque_list_1, 8
_TIG_iO_35H6_1_emit_checker_1_opaque_list_1:
	.zero	8
	.globl	_TIG_iO_35H6_1_emit_ap_object_allocators_1_opaque_list_2
	.align 8
	.type	_TIG_iO_35H6_1_emit_ap_object_allocators_1_opaque_list_2, @object
	.size	_TIG_iO_35H6_1_emit_ap_object_allocators_1_opaque_list_2, 8
_TIG_iO_35H6_1_emit_ap_object_allocators_1_opaque_list_2:
	.zero	8
	.globl	_TIG_iO_35H6_1___bswap_16_1_opaque_ptr_1
	.align 8
	.type	_TIG_iO_35H6_1___bswap_16_1_opaque_ptr_1, @object
	.size	_TIG_iO_35H6_1___bswap_16_1_opaque_ptr_1, 8
_TIG_iO_35H6_1___bswap_16_1_opaque_ptr_1:
	.zero	8
	.globl	_TIG_iO_35H6_1_emit_loaders_1_opaque_ptr_2
	.align 8
	.type	_TIG_iO_35H6_1_emit_loaders_1_opaque_ptr_2, @object
	.size	_TIG_iO_35H6_1_emit_loaders_1_opaque_ptr_2, 8
_TIG_iO_35H6_1_emit_loaders_1_opaque_ptr_2:
	.zero	8
	.globl	_TIG_iO_35H6_1___uint16_identity_1_opaque_ptr_2
	.align 8
	.type	_TIG_iO_35H6_1___uint16_identity_1_opaque_ptr_2, @object
	.size	_TIG_iO_35H6_1___uint16_identity_1_opaque_ptr_2, 8
_TIG_iO_35H6_1___uint16_identity_1_opaque_ptr_2:
	.zero	8
	.globl	_TIG_iO_35H6_1_error_1_opaque_list_1
	.align 8
	.type	_TIG_iO_35H6_1_error_1_opaque_list_1, @object
	.size	_TIG_iO_35H6_1_error_1_opaque_list_1, 8
_TIG_iO_35H6_1_error_1_opaque_list_1:
	.zero	8
	.globl	_TIG_iO_35H6_1___bswap_16_1_opaque_list_2
	.align 8
	.type	_TIG_iO_35H6_1___bswap_16_1_opaque_list_2, @object
	.size	_TIG_iO_35H6_1___bswap_16_1_opaque_list_2, 8
_TIG_iO_35H6_1___bswap_16_1_opaque_list_2:
	.zero	8
	.globl	_TIG_iO_35H6_1_sanitize_character_1_opaque_ptr_1
	.align 8
	.type	_TIG_iO_35H6_1_sanitize_character_1_opaque_ptr_1, @object
	.size	_TIG_iO_35H6_1_sanitize_character_1_opaque_ptr_1, 8
_TIG_iO_35H6_1_sanitize_character_1_opaque_ptr_1:
	.zero	8
	.local	headers
	.comm	headers,8,8
	.globl	_TIG_iO_35H6_1_emit_ap_object_checkers_1_opaque_ptr_2
	.align 8
	.type	_TIG_iO_35H6_1_emit_ap_object_checkers_1_opaque_ptr_2, @object
	.size	_TIG_iO_35H6_1_emit_ap_object_checkers_1_opaque_ptr_2, 8
_TIG_iO_35H6_1_emit_ap_object_checkers_1_opaque_ptr_2:
	.zero	8
	.globl	_TIG_iO_35H6_1_emit_userdata_declarations_1_opaque_ptr_1
	.align 8
	.type	_TIG_iO_35H6_1_emit_userdata_declarations_1_opaque_ptr_1, @object
	.size	_TIG_iO_35H6_1_emit_userdata_declarations_1_opaque_ptr_1, 8
_TIG_iO_35H6_1_emit_userdata_declarations_1_opaque_ptr_1:
	.zero	8
	.globl	keyword_operator
	.align 8
	.type	keyword_operator, @object
	.size	keyword_operator, 9
keyword_operator:
	.zero	9
	.globl	_TIG_iO_35H6_1_start_dependency_1_opaque_ptr_2
	.align 8
	.type	_TIG_iO_35H6_1_start_dependency_1_opaque_ptr_2, @object
	.size	_TIG_iO_35H6_1_start_dependency_1_opaque_ptr_2, 8
_TIG_iO_35H6_1_start_dependency_1_opaque_ptr_2:
	.zero	8
	.globl	_TIG_iO_35H6_1_emit_userdata_method_1_opaque_list_1
	.align 8
	.type	_TIG_iO_35H6_1_emit_userdata_method_1_opaque_list_1, @object
	.size	_TIG_iO_35H6_1_emit_userdata_method_1_opaque_list_1, 8
_TIG_iO_35H6_1_emit_userdata_method_1_opaque_list_1:
	.zero	8
	.globl	_TIG_iO_35H6_1_handle_userdata_1_opaque_ptr_1
	.align 8
	.type	_TIG_iO_35H6_1_handle_userdata_1_opaque_ptr_1, @object
	.size	_TIG_iO_35H6_1_handle_userdata_1_opaque_ptr_1, 8
_TIG_iO_35H6_1_handle_userdata_1_opaque_ptr_1:
	.zero	8
	.globl	_TIG_iO_35H6_1___uint64_identity_1_opaque_list_2
	.align 8
	.type	_TIG_iO_35H6_1___uint64_identity_1_opaque_list_2, @object
	.size	_TIG_iO_35H6_1___uint64_identity_1_opaque_list_2, 8
_TIG_iO_35H6_1___uint64_identity_1_opaque_list_2:
	.zero	8
	.globl	_TIG_iO_35H6_1_emit_singleton_metatables_1_opaque_list_2
	.align 8
	.type	_TIG_iO_35H6_1_emit_singleton_metatables_1_opaque_list_2, @object
	.size	_TIG_iO_35H6_1_emit_singleton_metatables_1_opaque_list_2, 8
_TIG_iO_35H6_1_emit_singleton_metatables_1_opaque_list_2:
	.zero	8
	.globl	_TIG_iO_35H6_1_string_copy_1_opaque_list_2
	.align 8
	.type	_TIG_iO_35H6_1_string_copy_1_opaque_list_2, @object
	.size	_TIG_iO_35H6_1_string_copy_1_opaque_list_2, 8
_TIG_iO_35H6_1_string_copy_1_opaque_list_2:
	.zero	8
	.globl	_TIG_iO_35H6_1_handle_userdata_1_opaque_list_1
	.align 8
	.type	_TIG_iO_35H6_1_handle_userdata_1_opaque_list_1, @object
	.size	_TIG_iO_35H6_1_handle_userdata_1_opaque_list_1, 8
_TIG_iO_35H6_1_handle_userdata_1_opaque_list_1:
	.zero	8
	.globl	_TIG_IZ_35H6_envp
	.align 8
	.type	_TIG_IZ_35H6_envp, @object
	.size	_TIG_IZ_35H6_envp, 8
_TIG_IZ_35H6_envp:
	.zero	8
	.globl	_TIG_iO_35H6_1_start_dependency_1_opaque_ptr_1
	.align 8
	.type	_TIG_iO_35H6_1_start_dependency_1_opaque_ptr_1, @object
	.size	_TIG_iO_35H6_1_start_dependency_1_opaque_ptr_1, 8
_TIG_iO_35H6_1_start_dependency_1_opaque_ptr_1:
	.zero	8
	.globl	keyword_boolean
	.align 8
	.type	keyword_boolean, @object
	.size	keyword_boolean, 8
keyword_boolean:
	.zero	8
	.globl	keyword_userdata
	.align 8
	.type	keyword_userdata, @object
	.size	keyword_userdata, 9
keyword_userdata:
	.zero	9
	.globl	_TIG_iO_35H6_1_emit_enums_1_opaque_ptr_1
	.align 8
	.type	_TIG_iO_35H6_1_emit_enums_1_opaque_ptr_1, @object
	.size	_TIG_iO_35H6_1_emit_enums_1_opaque_ptr_1, 8
_TIG_iO_35H6_1_emit_enums_1_opaque_ptr_1:
	.zero	8
	.globl	_TIG_iO_35H6_1_emit_enums_1_opaque_list_2
	.align 8
	.type	_TIG_iO_35H6_1_emit_enums_1_opaque_list_2, @object
	.size	_TIG_iO_35H6_1_emit_enums_1_opaque_list_2, 8
_TIG_iO_35H6_1_emit_enums_1_opaque_list_2:
	.zero	8
	.globl	_TIG_iO_35H6_1_emit_userdata_method_1_opaque_ptr_1
	.align 8
	.type	_TIG_iO_35H6_1_emit_userdata_method_1_opaque_ptr_1, @object
	.size	_TIG_iO_35H6_1_emit_userdata_method_1_opaque_ptr_1, 8
_TIG_iO_35H6_1_emit_userdata_method_1_opaque_ptr_1:
	.zero	8
	.globl	_TIG_iO_35H6_1_emit_references_1_opaque_ptr_2
	.align 8
	.type	_TIG_iO_35H6_1_emit_references_1_opaque_ptr_2, @object
	.size	_TIG_iO_35H6_1_emit_references_1_opaque_ptr_2, 8
_TIG_iO_35H6_1_emit_references_1_opaque_ptr_2:
	.zero	8
	.globl	_TIG_iO_35H6_1_start_dependency_1_opaque_list_2
	.align 8
	.type	_TIG_iO_35H6_1_start_dependency_1_opaque_list_2, @object
	.size	_TIG_iO_35H6_1_start_dependency_1_opaque_list_2, 8
_TIG_iO_35H6_1_start_dependency_1_opaque_list_2:
	.zero	8
	.globl	keyword_depends
	.align 8
	.type	keyword_depends, @object
	.size	keyword_depends, 8
keyword_depends:
	.zero	8
	.globl	_TIG_iO_35H6_1_emit_argcheck_helper_1_opaque_ptr_2
	.align 8
	.type	_TIG_iO_35H6_1_emit_argcheck_helper_1_opaque_ptr_2, @object
	.size	_TIG_iO_35H6_1_emit_argcheck_helper_1_opaque_ptr_2, 8
_TIG_iO_35H6_1_emit_argcheck_helper_1_opaque_ptr_2:
	.zero	8
	.globl	_TIG_iO_35H6_1_sanatize_name_1_opaque_list_1
	.align 8
	.type	_TIG_iO_35H6_1_sanatize_name_1_opaque_list_1, @object
	.size	_TIG_iO_35H6_1_sanatize_name_1_opaque_list_1, 8
_TIG_iO_35H6_1_sanatize_name_1_opaque_list_1:
	.zero	8
	.globl	_TIG_iO_35H6_1_parse_access_flags_1_opaque_list_1
	.align 8
	.type	_TIG_iO_35H6_1_parse_access_flags_1_opaque_list_1, @object
	.size	_TIG_iO_35H6_1_parse_access_flags_1_opaque_list_1, 8
_TIG_iO_35H6_1_parse_access_flags_1_opaque_list_1:
	.zero	8
	.globl	_TIG_iO_35H6_1_emit_checker_1_opaque_list_2
	.align 8
	.type	_TIG_iO_35H6_1_emit_checker_1_opaque_list_2, @object
	.size	_TIG_iO_35H6_1_emit_checker_1_opaque_list_2, 8
_TIG_iO_35H6_1_emit_checker_1_opaque_list_2:
	.zero	8
	.globl	_TIG_iO_35H6_1_emit_userdata_fields_1_opaque_list_2
	.align 8
	.type	_TIG_iO_35H6_1_emit_userdata_fields_1_opaque_list_2, @object
	.size	_TIG_iO_35H6_1_emit_userdata_fields_1_opaque_list_2, 8
_TIG_iO_35H6_1_emit_userdata_fields_1_opaque_list_2:
	.zero	8
	.globl	token_delimiters
	.align 8
	.type	token_delimiters, @object
	.size	token_delimiters, 8
token_delimiters:
	.zero	8
	.globl	_TIG_iO_35H6_1_sanatize_name_1_opaque_list_2
	.align 8
	.type	_TIG_iO_35H6_1_sanatize_name_1_opaque_list_2, @object
	.size	_TIG_iO_35H6_1_sanatize_name_1_opaque_list_2, 8
_TIG_iO_35H6_1_sanatize_name_1_opaque_list_2:
	.zero	8
	.globl	_TIG_iO_35H6_1_emit_headers_1_opaque_list_2
	.align 8
	.type	_TIG_iO_35H6_1_emit_headers_1_opaque_list_2, @object
	.size	_TIG_iO_35H6_1_emit_headers_1_opaque_list_2, 8
_TIG_iO_35H6_1_emit_headers_1_opaque_list_2:
	.zero	8
	.globl	_TIG_iO_35H6_1_allocate_1_opaque_ptr_1
	.align 8
	.type	_TIG_iO_35H6_1_allocate_1_opaque_ptr_1, @object
	.size	_TIG_iO_35H6_1_allocate_1_opaque_ptr_1, 8
_TIG_iO_35H6_1_allocate_1_opaque_ptr_1:
	.zero	8
	.globl	_TIG_iO_35H6_1_emit_headers_1_opaque_ptr_2
	.align 8
	.type	_TIG_iO_35H6_1_emit_headers_1_opaque_ptr_2, @object
	.size	_TIG_iO_35H6_1_emit_headers_1_opaque_ptr_2, 8
_TIG_iO_35H6_1_emit_headers_1_opaque_ptr_2:
	.zero	8
	.globl	_TIG_iO_35H6_1_emit_checker_1_opaque_ptr_1
	.align 8
	.type	_TIG_iO_35H6_1_emit_checker_1_opaque_ptr_1, @object
	.size	_TIG_iO_35H6_1_emit_checker_1_opaque_ptr_1, 8
_TIG_iO_35H6_1_emit_checker_1_opaque_ptr_1:
	.zero	8
	.globl	_TIG_iO_35H6_1_emit_headers_1_opaque_list_1
	.align 8
	.type	_TIG_iO_35H6_1_emit_headers_1_opaque_list_1, @object
	.size	_TIG_iO_35H6_1_emit_headers_1_opaque_list_1, 8
_TIG_iO_35H6_1_emit_headers_1_opaque_list_1:
	.zero	8
	.globl	_TIG_iO_35H6_1_emit_userdata_checkers_1_opaque_list_2
	.align 8
	.type	_TIG_iO_35H6_1_emit_userdata_checkers_1_opaque_list_2, @object
	.size	_TIG_iO_35H6_1_emit_userdata_checkers_1_opaque_list_2, 8
_TIG_iO_35H6_1_emit_userdata_checkers_1_opaque_list_2:
	.zero	8
	.globl	_TIG_iO_35H6_1_start_line_1_opaque_list_1
	.align 8
	.type	_TIG_iO_35H6_1_start_line_1_opaque_list_1, @object
	.size	_TIG_iO_35H6_1_start_line_1_opaque_list_1, 8
_TIG_iO_35H6_1_start_line_1_opaque_list_1:
	.zero	8
	.globl	_TIG_iO_35H6_1_handle_userdata_field_1_opaque_ptr_1
	.align 8
	.type	_TIG_iO_35H6_1_handle_userdata_field_1_opaque_ptr_1, @object
	.size	_TIG_iO_35H6_1_handle_userdata_field_1_opaque_ptr_1, 8
_TIG_iO_35H6_1_handle_userdata_field_1_opaque_ptr_1:
	.zero	8
	.globl	_TIG_iO_35H6_1_handle_userdata_enum_1_opaque_list_2
	.align 8
	.type	_TIG_iO_35H6_1_handle_userdata_enum_1_opaque_list_2, @object
	.size	_TIG_iO_35H6_1_handle_userdata_enum_1_opaque_list_2, 8
_TIG_iO_35H6_1_handle_userdata_enum_1_opaque_list_2:
	.zero	8
	.globl	_TIG_iO_35H6_1_emit_sandbox_1_opaque_list_2
	.align 8
	.type	_TIG_iO_35H6_1_emit_sandbox_1_opaque_list_2, @object
	.size	_TIG_iO_35H6_1_emit_sandbox_1_opaque_list_2, 8
_TIG_iO_35H6_1_emit_sandbox_1_opaque_list_2:
	.zero	8
	.globl	keyword_scheduler_semaphore
	.align 16
	.type	keyword_scheduler_semaphore, @object
	.size	keyword_scheduler_semaphore, 20
keyword_scheduler_semaphore:
	.zero	20
	.globl	_TIG_iO_35H6_1_handle_method_1_opaque_list_1
	.align 8
	.type	_TIG_iO_35H6_1_handle_method_1_opaque_list_1, @object
	.size	_TIG_iO_35H6_1_handle_method_1_opaque_list_1, 8
_TIG_iO_35H6_1_handle_method_1_opaque_list_1:
	.zero	8
	.globl	_TIG_iO_35H6_1_handle_singleton_1_opaque_ptr_2
	.align 8
	.type	_TIG_iO_35H6_1_handle_singleton_1_opaque_ptr_2, @object
	.size	_TIG_iO_35H6_1_handle_singleton_1_opaque_ptr_2, 8
_TIG_iO_35H6_1_handle_singleton_1_opaque_ptr_2:
	.zero	8
	.globl	keyword_float
	.type	keyword_float, @object
	.size	keyword_float, 6
keyword_float:
	.zero	6
	.globl	_TIG_iO_35H6_1_error_1_opaque_ptr_2
	.align 8
	.type	_TIG_iO_35H6_1_error_1_opaque_ptr_2, @object
	.size	_TIG_iO_35H6_1_error_1_opaque_ptr_2, 8
_TIG_iO_35H6_1_error_1_opaque_ptr_2:
	.zero	8
	.globl	keyword_semaphore_pointer
	.align 16
	.type	keyword_semaphore_pointer, @object
	.size	keyword_semaphore_pointer, 18
keyword_semaphore_pointer:
	.zero	18
	.globl	_TIG_iO_35H6_1_get_name_for_operation_1_opaque_ptr_1
	.align 8
	.type	_TIG_iO_35H6_1_get_name_for_operation_1_opaque_ptr_1, @object
	.size	_TIG_iO_35H6_1_get_name_for_operation_1_opaque_ptr_1, 8
_TIG_iO_35H6_1_get_name_for_operation_1_opaque_ptr_1:
	.zero	8
	.globl	_TIG_iO_35H6_1_handle_userdata_field_1_opaque_ptr_2
	.align 8
	.type	_TIG_iO_35H6_1_handle_userdata_field_1_opaque_ptr_2, @object
	.size	_TIG_iO_35H6_1_handle_userdata_field_1_opaque_ptr_2, 8
_TIG_iO_35H6_1_handle_userdata_field_1_opaque_ptr_2:
	.zero	8
	.globl	_TIG_iO_35H6_1_emit_argcheck_helper_1_opaque_list_2
	.align 8
	.type	_TIG_iO_35H6_1_emit_argcheck_helper_1_opaque_list_2, @object
	.size	_TIG_iO_35H6_1_emit_argcheck_helper_1_opaque_list_2, 8
_TIG_iO_35H6_1_emit_argcheck_helper_1_opaque_list_2:
	.zero	8
	.globl	_TIG_iO_35H6_1_handle_method_1_opaque_list_2
	.align 8
	.type	_TIG_iO_35H6_1_handle_method_1_opaque_list_2, @object
	.size	_TIG_iO_35H6_1_handle_method_1_opaque_list_2, 8
_TIG_iO_35H6_1_handle_method_1_opaque_list_2:
	.zero	8
	.globl	_TIG_iO_35H6_1_emit_not_supported_helper_1_opaque_ptr_1
	.align 8
	.type	_TIG_iO_35H6_1_emit_not_supported_helper_1_opaque_ptr_1, @object
	.size	_TIG_iO_35H6_1_emit_not_supported_helper_1_opaque_ptr_1, 8
_TIG_iO_35H6_1_emit_not_supported_helper_1_opaque_ptr_1:
	.zero	8
	.globl	_TIG_iO_35H6_1_emit_not_supported_helper_1_opaque_list_2
	.align 8
	.type	_TIG_iO_35H6_1_emit_not_supported_helper_1_opaque_list_2, @object
	.size	_TIG_iO_35H6_1_emit_not_supported_helper_1_opaque_list_2, 8
_TIG_iO_35H6_1_emit_not_supported_helper_1_opaque_list_2:
	.zero	8
	.globl	_TIG_iO_35H6_1_handle_ap_object_1_opaque_list_1
	.align 8
	.type	_TIG_iO_35H6_1_handle_ap_object_1_opaque_list_1, @object
	.size	_TIG_iO_35H6_1_handle_ap_object_1_opaque_list_1, 8
_TIG_iO_35H6_1_handle_ap_object_1_opaque_list_1:
	.zero	8
	.globl	_TIG_iO_35H6_1___uint32_identity_1_opaque_ptr_2
	.align 8
	.type	_TIG_iO_35H6_1___uint32_identity_1_opaque_ptr_2, @object
	.size	_TIG_iO_35H6_1___uint32_identity_1_opaque_ptr_2, 8
_TIG_iO_35H6_1___uint32_identity_1_opaque_ptr_2:
	.zero	8
	.globl	_TIG_iO_35H6_1_emit_userdata_metatables_1_opaque_ptr_1
	.align 8
	.type	_TIG_iO_35H6_1_emit_userdata_metatables_1_opaque_ptr_1, @object
	.size	_TIG_iO_35H6_1_emit_userdata_metatables_1_opaque_ptr_1, 8
_TIG_iO_35H6_1_emit_userdata_metatables_1_opaque_ptr_1:
	.zero	8
	.globl	_TIG_iO_35H6_1_next_token_1_opaque_list_1
	.align 8
	.type	_TIG_iO_35H6_1_next_token_1_opaque_list_1, @object
	.size	_TIG_iO_35H6_1_next_token_1_opaque_list_1, 8
_TIG_iO_35H6_1_next_token_1_opaque_list_1:
	.zero	8
	.globl	_TIG_iO_35H6_1_emit_argcheck_helper_1_opaque_ptr_1
	.align 8
	.type	_TIG_iO_35H6_1_emit_argcheck_helper_1_opaque_ptr_1, @object
	.size	_TIG_iO_35H6_1_emit_argcheck_helper_1_opaque_ptr_1, 8
_TIG_iO_35H6_1_emit_argcheck_helper_1_opaque_ptr_1:
	.zero	8
	.globl	keyword_void
	.type	keyword_void, @object
	.size	keyword_void, 5
keyword_void:
	.zero	5
	.globl	_TIG_iO_35H6_1_handle_singleton_1_opaque_ptr_1
	.align 8
	.type	_TIG_iO_35H6_1_handle_singleton_1_opaque_ptr_1, @object
	.size	_TIG_iO_35H6_1_handle_singleton_1_opaque_ptr_1, 8
_TIG_iO_35H6_1_handle_singleton_1_opaque_ptr_1:
	.zero	8
	.globl	_TIG_iO_35H6_1_emit_userdata_metatables_1_opaque_list_2
	.align 8
	.type	_TIG_iO_35H6_1_emit_userdata_metatables_1_opaque_list_2, @object
	.size	_TIG_iO_35H6_1_emit_userdata_metatables_1_opaque_list_2, 8
_TIG_iO_35H6_1_emit_userdata_metatables_1_opaque_list_2:
	.zero	8
	.globl	_TIG_iO_35H6_1_handle_userdata_enum_1_opaque_ptr_2
	.align 8
	.type	_TIG_iO_35H6_1_handle_userdata_enum_1_opaque_ptr_2, @object
	.size	_TIG_iO_35H6_1_handle_userdata_enum_1_opaque_ptr_2, 8
_TIG_iO_35H6_1_handle_userdata_enum_1_opaque_ptr_2:
	.zero	8
	.globl	_TIG_iO_35H6_1___uint16_identity_1_opaque_ptr_1
	.align 8
	.type	_TIG_iO_35H6_1___uint16_identity_1_opaque_ptr_1, @object
	.size	_TIG_iO_35H6_1___uint16_identity_1_opaque_ptr_1, 8
_TIG_iO_35H6_1___uint16_identity_1_opaque_ptr_1:
	.zero	8
	.globl	_TIG_iO_35H6_1_emit_userdata_checkers_1_opaque_list_1
	.align 8
	.type	_TIG_iO_35H6_1_emit_userdata_checkers_1_opaque_list_1, @object
	.size	_TIG_iO_35H6_1_emit_userdata_checkers_1_opaque_list_1, 8
_TIG_iO_35H6_1_emit_userdata_checkers_1_opaque_list_1:
	.zero	8
	.globl	_TIG_iO_35H6_1_string_copy_1_opaque_list_1
	.align 8
	.type	_TIG_iO_35H6_1_string_copy_1_opaque_list_1, @object
	.size	_TIG_iO_35H6_1_string_copy_1_opaque_list_1, 8
_TIG_iO_35H6_1_string_copy_1_opaque_list_1:
	.zero	8
	.globl	_TIG_iO_35H6_1_emit_userdata_allocators_1_opaque_ptr_1
	.align 8
	.type	_TIG_iO_35H6_1_emit_userdata_allocators_1_opaque_ptr_1, @object
	.size	_TIG_iO_35H6_1_emit_userdata_allocators_1_opaque_ptr_1, 8
_TIG_iO_35H6_1_emit_userdata_allocators_1_opaque_ptr_1:
	.zero	8
	.local	parsed_ap_objects
	.comm	parsed_ap_objects,8,8
	.globl	_TIG_iO_35H6_1_trace_1_opaque_ptr_1
	.align 8
	.type	_TIG_iO_35H6_1_trace_1_opaque_ptr_1, @object
	.size	_TIG_iO_35H6_1_trace_1_opaque_ptr_1, 8
_TIG_iO_35H6_1_trace_1_opaque_ptr_1:
	.zero	8
	.globl	keyword_attr_literal
	.align 8
	.type	keyword_attr_literal, @object
	.size	keyword_attr_literal, 9
keyword_attr_literal:
	.zero	9
	.globl	_TIG_iO_35H6_1_emit_loaders_1_opaque_ptr_1
	.align 8
	.type	_TIG_iO_35H6_1_emit_loaders_1_opaque_ptr_1, @object
	.size	_TIG_iO_35H6_1_emit_loaders_1_opaque_ptr_1, 8
_TIG_iO_35H6_1_emit_loaders_1_opaque_ptr_1:
	.zero	8
	.globl	_TIG_iO_35H6_1_end_dependency_1_opaque_list_2
	.align 8
	.type	_TIG_iO_35H6_1_end_dependency_1_opaque_list_2, @object
	.size	_TIG_iO_35H6_1_end_dependency_1_opaque_list_2, 8
_TIG_iO_35H6_1_end_dependency_1_opaque_list_2:
	.zero	8
	.globl	_TIG_iO_35H6_1_handle_singleton_1_opaque_list_1
	.align 8
	.type	_TIG_iO_35H6_1_handle_singleton_1_opaque_list_1, @object
	.size	_TIG_iO_35H6_1_handle_singleton_1_opaque_list_1, 8
_TIG_iO_35H6_1_handle_singleton_1_opaque_list_1:
	.zero	8
	.globl	_TIG_iO_35H6_1_emit_loaders_1_opaque_list_2
	.align 8
	.type	_TIG_iO_35H6_1_emit_loaders_1_opaque_list_2, @object
	.size	_TIG_iO_35H6_1_emit_loaders_1_opaque_list_2, 8
_TIG_iO_35H6_1_emit_loaders_1_opaque_list_2:
	.zero	8
	.globl	_TIG_iO_35H6_1_error_1_opaque_list_2
	.align 8
	.type	_TIG_iO_35H6_1_error_1_opaque_list_2, @object
	.size	_TIG_iO_35H6_1_error_1_opaque_list_2, 8
_TIG_iO_35H6_1_error_1_opaque_list_2:
	.zero	8
	.globl	_TIG_iO_35H6_1_sanity_check_userdata_1_opaque_list_1
	.align 8
	.type	_TIG_iO_35H6_1_sanity_check_userdata_1_opaque_list_1, @object
	.size	_TIG_iO_35H6_1_sanity_check_userdata_1_opaque_list_1, 8
_TIG_iO_35H6_1_sanity_check_userdata_1_opaque_list_1:
	.zero	8
	.globl	_TIG_iO_35H6_1_allocate_1_opaque_list_2
	.align 8
	.type	_TIG_iO_35H6_1_allocate_1_opaque_list_2, @object
	.size	_TIG_iO_35H6_1_allocate_1_opaque_list_2, 8
_TIG_iO_35H6_1_allocate_1_opaque_list_2:
	.zero	8
	.globl	keyword_attr_reference
	.type	keyword_attr_reference, @object
	.size	keyword_attr_reference, 5
keyword_attr_reference:
	.zero	5
	.globl	_TIG_iO_35H6_1_emit_metas_1_opaque_list_2
	.align 8
	.type	_TIG_iO_35H6_1_emit_metas_1_opaque_list_2, @object
	.size	_TIG_iO_35H6_1_emit_metas_1_opaque_list_2, 8
_TIG_iO_35H6_1_emit_metas_1_opaque_list_2:
	.zero	8
	.globl	_TIG_iO_35H6_1_allocate_1_opaque_list_1
	.align 8
	.type	_TIG_iO_35H6_1_allocate_1_opaque_list_1, @object
	.size	_TIG_iO_35H6_1_allocate_1_opaque_list_1, 8
_TIG_iO_35H6_1_allocate_1_opaque_list_1:
	.zero	8
	.globl	_TIG_iO_35H6_1_trace_1_opaque_list_2
	.align 8
	.type	_TIG_iO_35H6_1_trace_1_opaque_list_2, @object
	.size	_TIG_iO_35H6_1_trace_1_opaque_list_2, 8
_TIG_iO_35H6_1_trace_1_opaque_list_2:
	.zero	8
	.globl	_TIG_iO_35H6_1_handle_userdata_1_opaque_ptr_2
	.align 8
	.type	_TIG_iO_35H6_1_handle_userdata_1_opaque_ptr_2, @object
	.size	_TIG_iO_35H6_1_handle_userdata_1_opaque_ptr_2, 8
_TIG_iO_35H6_1_handle_userdata_1_opaque_ptr_2:
	.zero	8
	.globl	_TIG_iO_35H6_1_allocate_1_opaque_ptr_2
	.align 8
	.type	_TIG_iO_35H6_1_allocate_1_opaque_ptr_2, @object
	.size	_TIG_iO_35H6_1_allocate_1_opaque_ptr_2, 8
_TIG_iO_35H6_1_allocate_1_opaque_ptr_2:
	.zero	8
	.globl	keyword_read
	.type	keyword_read, @object
	.size	keyword_read, 5
keyword_read:
	.zero	5
	.globl	_TIG_iO_35H6_1_sanity_check_userdata_1_opaque_list_2
	.align 8
	.type	_TIG_iO_35H6_1_sanity_check_userdata_1_opaque_list_2, @object
	.size	_TIG_iO_35H6_1_sanity_check_userdata_1_opaque_list_2, 8
_TIG_iO_35H6_1_sanity_check_userdata_1_opaque_list_2:
	.zero	8
	.globl	_TIG_iO_35H6_1_emit_userdata_metatables_1_opaque_ptr_2
	.align 8
	.type	_TIG_iO_35H6_1_emit_userdata_metatables_1_opaque_ptr_2, @object
	.size	_TIG_iO_35H6_1_emit_userdata_metatables_1_opaque_ptr_2, 8
_TIG_iO_35H6_1_emit_userdata_metatables_1_opaque_ptr_2:
	.zero	8
	.globl	_TIG_iO_35H6_1_error_1_opaque_ptr_1
	.align 8
	.type	_TIG_iO_35H6_1_error_1_opaque_ptr_1, @object
	.size	_TIG_iO_35H6_1_error_1_opaque_ptr_1, 8
_TIG_iO_35H6_1_error_1_opaque_ptr_1:
	.zero	8
	.globl	_TIG_iO_35H6_1_emit_userdata_declarations_1_opaque_list_2
	.align 8
	.type	_TIG_iO_35H6_1_emit_userdata_declarations_1_opaque_list_2, @object
	.size	_TIG_iO_35H6_1_emit_userdata_declarations_1_opaque_list_2, 8
_TIG_iO_35H6_1_emit_userdata_declarations_1_opaque_list_2:
	.zero	8
	.globl	keyword_singleton
	.align 8
	.type	keyword_singleton, @object
	.size	keyword_singleton, 10
keyword_singleton:
	.zero	10
	.globl	_TIG_iO_35H6_1_handle_ap_object_1_opaque_ptr_2
	.align 8
	.type	_TIG_iO_35H6_1_handle_ap_object_1_opaque_ptr_2, @object
	.size	_TIG_iO_35H6_1_handle_ap_object_1_opaque_ptr_2, 8
_TIG_iO_35H6_1_handle_ap_object_1_opaque_ptr_2:
	.zero	8
	.globl	_TIG_iO_35H6_1_handle_operator_1_opaque_list_2
	.align 8
	.type	_TIG_iO_35H6_1_handle_operator_1_opaque_list_2, @object
	.size	_TIG_iO_35H6_1_handle_operator_1_opaque_list_2, 8
_TIG_iO_35H6_1_handle_operator_1_opaque_list_2:
	.zero	8
	.globl	output_path
	.align 8
	.type	output_path, @object
	.size	output_path, 8
output_path:
	.zero	8
	.globl	_TIG_iO_35H6_1_emit_references_1_opaque_list_2
	.align 8
	.type	_TIG_iO_35H6_1_emit_references_1_opaque_list_2, @object
	.size	_TIG_iO_35H6_1_emit_references_1_opaque_list_2, 8
_TIG_iO_35H6_1_emit_references_1_opaque_list_2:
	.zero	8
	.globl	_TIG_iO_35H6_1_start_line_1_opaque_ptr_2
	.align 8
	.type	_TIG_iO_35H6_1_start_line_1_opaque_ptr_2, @object
	.size	_TIG_iO_35H6_1_start_line_1_opaque_ptr_2, 8
_TIG_iO_35H6_1_start_line_1_opaque_ptr_2:
	.zero	8
	.globl	_TIG_iO_35H6_1_trace_1_opaque_ptr_2
	.align 8
	.type	_TIG_iO_35H6_1_trace_1_opaque_ptr_2, @object
	.size	_TIG_iO_35H6_1_trace_1_opaque_ptr_2, 8
_TIG_iO_35H6_1_trace_1_opaque_ptr_2:
	.zero	8
	.globl	_TIG_iO_35H6_1_main_1_opaque_ptr_1
	.align 8
	.type	_TIG_iO_35H6_1_main_1_opaque_ptr_1, @object
	.size	_TIG_iO_35H6_1_main_1_opaque_ptr_1, 8
_TIG_iO_35H6_1_main_1_opaque_ptr_1:
	.zero	8
	.globl	_TIG_iO_35H6_1_emit_metas_1_opaque_list_1
	.align 8
	.type	_TIG_iO_35H6_1_emit_metas_1_opaque_list_1, @object
	.size	_TIG_iO_35H6_1_emit_metas_1_opaque_list_1, 8
_TIG_iO_35H6_1_emit_metas_1_opaque_list_1:
	.zero	8
	.globl	keyword_int8_t
	.type	keyword_int8_t, @object
	.size	keyword_int8_t, 7
keyword_int8_t:
	.zero	7
	.globl	_TIG_iO_35H6_1_trace_1_opaque_list_1
	.align 8
	.type	_TIG_iO_35H6_1_trace_1_opaque_list_1, @object
	.size	_TIG_iO_35H6_1_trace_1_opaque_list_1, 8
_TIG_iO_35H6_1_trace_1_opaque_list_1:
	.zero	8
	.globl	keyword_int16_t
	.align 8
	.type	keyword_int16_t, @object
	.size	keyword_int16_t, 8
keyword_int16_t:
	.zero	8
	.globl	_TIG_iO_35H6_1_emit_headers_1_opaque_ptr_1
	.align 8
	.type	_TIG_iO_35H6_1_emit_headers_1_opaque_ptr_1, @object
	.size	_TIG_iO_35H6_1_emit_headers_1_opaque_ptr_1, 8
_TIG_iO_35H6_1_emit_headers_1_opaque_ptr_1:
	.zero	8
	.globl	_TIG_iO_35H6_1_parse_type_1_opaque_list_1
	.align 8
	.type	_TIG_iO_35H6_1_parse_type_1_opaque_list_1, @object
	.size	_TIG_iO_35H6_1_parse_type_1_opaque_list_1, 8
_TIG_iO_35H6_1_parse_type_1_opaque_list_1:
	.zero	8
	.globl	_TIG_iO_35H6_1_parse_access_flags_1_opaque_ptr_2
	.align 8
	.type	_TIG_iO_35H6_1_parse_access_flags_1_opaque_ptr_2, @object
	.size	_TIG_iO_35H6_1_parse_access_flags_1_opaque_ptr_2, 8
_TIG_iO_35H6_1_parse_access_flags_1_opaque_ptr_2:
	.zero	8
	.globl	header
	.align 8
	.type	header, @object
	.size	header, 8
header:
	.zero	8
	.globl	source
	.align 8
	.type	source, @object
	.size	source, 8
source:
	.zero	8
	.globl	_TIG_iO_35H6_1_emit_checker_1_opaque_ptr_2
	.align 8
	.type	_TIG_iO_35H6_1_emit_checker_1_opaque_ptr_2, @object
	.size	_TIG_iO_35H6_1_emit_checker_1_opaque_ptr_2, 8
_TIG_iO_35H6_1_emit_checker_1_opaque_ptr_2:
	.zero	8
	.globl	_TIG_iO_35H6_1_emit_singleton_metatables_1_opaque_list_1
	.align 8
	.type	_TIG_iO_35H6_1_emit_singleton_metatables_1_opaque_list_1, @object
	.size	_TIG_iO_35H6_1_emit_singleton_metatables_1_opaque_list_1, 8
_TIG_iO_35H6_1_emit_singleton_metatables_1_opaque_list_1:
	.zero	8
	.globl	keyword_uint32_t
	.align 8
	.type	keyword_uint32_t, @object
	.size	keyword_uint32_t, 9
keyword_uint32_t:
	.zero	9
	.globl	keyword_attr_null
	.type	keyword_attr_null, @object
	.size	keyword_attr_null, 6
keyword_attr_null:
	.zero	6
	.globl	_TIG_iO_35H6_1_handle_userdata_field_1_opaque_list_2
	.align 8
	.type	_TIG_iO_35H6_1_handle_userdata_field_1_opaque_list_2, @object
	.size	_TIG_iO_35H6_1_handle_userdata_field_1_opaque_list_2, 8
_TIG_iO_35H6_1_handle_userdata_field_1_opaque_list_2:
	.zero	8
	.local	state
	.comm	state,16400,32
	.globl	_TIG_iO_35H6_1_emit_loaders_1_opaque_list_1
	.align 8
	.type	_TIG_iO_35H6_1_emit_loaders_1_opaque_list_1, @object
	.size	_TIG_iO_35H6_1_emit_loaders_1_opaque_list_1, 8
_TIG_iO_35H6_1_emit_loaders_1_opaque_list_1:
	.zero	8
	.globl	_TIG_iO_35H6_1_emit_operators_1_opaque_ptr_2
	.align 8
	.type	_TIG_iO_35H6_1_emit_operators_1_opaque_ptr_2, @object
	.size	_TIG_iO_35H6_1_emit_operators_1_opaque_ptr_2, 8
_TIG_iO_35H6_1_emit_operators_1_opaque_ptr_2:
	.zero	8
	.globl	_TIG_iO_35H6_1_sanity_check_userdata_1_opaque_ptr_2
	.align 8
	.type	_TIG_iO_35H6_1_sanity_check_userdata_1_opaque_ptr_2, @object
	.size	_TIG_iO_35H6_1_sanity_check_userdata_1_opaque_ptr_2, 8
_TIG_iO_35H6_1_sanity_check_userdata_1_opaque_ptr_2:
	.zero	8
	.globl	_TIG_iO_35H6_1_emit_ap_object_allocators_1_opaque_ptr_2
	.align 8
	.type	_TIG_iO_35H6_1_emit_ap_object_allocators_1_opaque_ptr_2, @object
	.size	_TIG_iO_35H6_1_emit_ap_object_allocators_1_opaque_ptr_2, 8
_TIG_iO_35H6_1_emit_ap_object_allocators_1_opaque_ptr_2:
	.zero	8
	.globl	_TIG_iO_35H6_1_main_1_opaque_list_2
	.align 8
	.type	_TIG_iO_35H6_1_main_1_opaque_list_2, @object
	.size	_TIG_iO_35H6_1_main_1_opaque_list_2, 8
_TIG_iO_35H6_1_main_1_opaque_list_2:
	.zero	8
	.globl	_TIG_iO_35H6_1_emit_userdata_declarations_1_opaque_list_1
	.align 8
	.type	_TIG_iO_35H6_1_emit_userdata_declarations_1_opaque_list_1, @object
	.size	_TIG_iO_35H6_1_emit_userdata_declarations_1_opaque_list_1, 8
_TIG_iO_35H6_1_emit_userdata_declarations_1_opaque_list_1:
	.zero	8
	.globl	keyword_literal
	.align 8
	.type	keyword_literal, @object
	.size	keyword_literal, 8
keyword_literal:
	.zero	8
	.globl	_TIG_iO_35H6_1___uint64_identity_1_opaque_ptr_1
	.align 8
	.type	_TIG_iO_35H6_1___uint64_identity_1_opaque_ptr_1, @object
	.size	_TIG_iO_35H6_1___uint64_identity_1_opaque_ptr_1, 8
_TIG_iO_35H6_1___uint64_identity_1_opaque_ptr_1:
	.zero	8
	.globl	keyword_uint8_t
	.align 8
	.type	keyword_uint8_t, @object
	.size	keyword_uint8_t, 8
keyword_uint8_t:
	.zero	8
	.globl	_TIG_iO_35H6_1_sanatize_name_1_opaque_ptr_1
	.align 8
	.type	_TIG_iO_35H6_1_sanatize_name_1_opaque_ptr_1, @object
	.size	_TIG_iO_35H6_1_sanatize_name_1_opaque_ptr_1, 8
_TIG_iO_35H6_1_sanatize_name_1_opaque_ptr_1:
	.zero	8
	.globl	_TIG_iO_35H6_1___bswap_64_1_opaque_list_2
	.align 8
	.type	_TIG_iO_35H6_1___bswap_64_1_opaque_list_2, @object
	.size	_TIG_iO_35H6_1___bswap_64_1_opaque_list_2, 8
_TIG_iO_35H6_1___bswap_64_1_opaque_list_2:
	.zero	8
	.globl	keyword_uint16_t
	.align 8
	.type	keyword_uint16_t, @object
	.size	keyword_uint16_t, 9
keyword_uint16_t:
	.zero	9
	.globl	_TIG_iO_35H6_1___uint32_identity_1_opaque_list_2
	.align 8
	.type	_TIG_iO_35H6_1___uint32_identity_1_opaque_list_2, @object
	.size	_TIG_iO_35H6_1___uint32_identity_1_opaque_list_2, 8
_TIG_iO_35H6_1___uint32_identity_1_opaque_list_2:
	.zero	8
	.globl	_TIG_iO_35H6_1___bswap_32_1_opaque_list_2
	.align 8
	.type	_TIG_iO_35H6_1___bswap_32_1_opaque_list_2, @object
	.size	_TIG_iO_35H6_1___bswap_32_1_opaque_list_2, 8
_TIG_iO_35H6_1___bswap_32_1_opaque_list_2:
	.zero	8
	.globl	parsed_singletons
	.align 8
	.type	parsed_singletons, @object
	.size	parsed_singletons, 8
parsed_singletons:
	.zero	8
	.globl	keyword_ap_object
	.align 8
	.type	keyword_ap_object, @object
	.size	keyword_ap_object, 10
keyword_ap_object:
	.zero	10
	.globl	_TIG_iO_35H6_1___bswap_16_1_opaque_ptr_2
	.align 8
	.type	_TIG_iO_35H6_1___bswap_16_1_opaque_ptr_2, @object
	.size	_TIG_iO_35H6_1___bswap_16_1_opaque_ptr_2, 8
_TIG_iO_35H6_1___bswap_16_1_opaque_ptr_2:
	.zero	8
	.globl	_TIG_iO_35H6_1_emit_metas_1_opaque_ptr_1
	.align 8
	.type	_TIG_iO_35H6_1_emit_metas_1_opaque_ptr_1, @object
	.size	_TIG_iO_35H6_1_emit_metas_1_opaque_ptr_1, 8
_TIG_iO_35H6_1_emit_metas_1_opaque_ptr_1:
	.zero	8
	.globl	_TIG_iO_35H6_1_handle_header_1_opaque_list_1
	.align 8
	.type	_TIG_iO_35H6_1_handle_header_1_opaque_list_1, @object
	.size	_TIG_iO_35H6_1_handle_header_1_opaque_list_1, 8
_TIG_iO_35H6_1_handle_header_1_opaque_list_1:
	.zero	8
	.globl	_TIG_iO_35H6_1___uint32_identity_1_opaque_list_1
	.align 8
	.type	_TIG_iO_35H6_1___uint32_identity_1_opaque_list_1, @object
	.size	_TIG_iO_35H6_1___uint32_identity_1_opaque_list_1, 8
_TIG_iO_35H6_1___uint32_identity_1_opaque_list_1:
	.zero	8
	.globl	_TIG_iO_35H6_1_handle_method_1_opaque_ptr_2
	.align 8
	.type	_TIG_iO_35H6_1_handle_method_1_opaque_ptr_2, @object
	.size	_TIG_iO_35H6_1_handle_method_1_opaque_ptr_2, 8
_TIG_iO_35H6_1_handle_method_1_opaque_ptr_2:
	.zero	8
	.globl	_TIG_iO_35H6_1_get_name_for_operation_1_opaque_list_1
	.align 8
	.type	_TIG_iO_35H6_1_get_name_for_operation_1_opaque_list_1, @object
	.size	_TIG_iO_35H6_1_get_name_for_operation_1_opaque_list_1, 8
_TIG_iO_35H6_1_get_name_for_operation_1_opaque_list_1:
	.zero	8
	.globl	keyword_semaphore
	.align 8
	.type	keyword_semaphore, @object
	.size	keyword_semaphore, 10
keyword_semaphore:
	.zero	10
	.globl	keyword_write
	.type	keyword_write, @object
	.size	keyword_write, 6
keyword_write:
	.zero	6
	.globl	_TIG_iO_35H6_1___bswap_16_1_opaque_list_1
	.align 8
	.type	_TIG_iO_35H6_1___bswap_16_1_opaque_list_1, @object
	.size	_TIG_iO_35H6_1___bswap_16_1_opaque_list_1, 8
_TIG_iO_35H6_1___bswap_16_1_opaque_list_1:
	.zero	8
	.globl	keyword_method
	.type	keyword_method, @object
	.size	keyword_method, 7
keyword_method:
	.zero	7
	.globl	_TIG_iO_35H6_1_emit_userdata_allocators_1_opaque_ptr_2
	.align 8
	.type	_TIG_iO_35H6_1_emit_userdata_allocators_1_opaque_ptr_2, @object
	.size	_TIG_iO_35H6_1_emit_userdata_allocators_1_opaque_ptr_2, 8
_TIG_iO_35H6_1_emit_userdata_allocators_1_opaque_ptr_2:
	.zero	8
	.globl	_TIG_iO_35H6_1_emit_userdata_methods_1_opaque_list_1
	.align 8
	.type	_TIG_iO_35H6_1_emit_userdata_methods_1_opaque_list_1, @object
	.size	_TIG_iO_35H6_1_emit_userdata_methods_1_opaque_list_1, 8
_TIG_iO_35H6_1_emit_userdata_methods_1_opaque_list_1:
	.zero	8
	.globl	_TIG_iO_35H6_1_emit_ap_object_declarations_1_opaque_ptr_1
	.align 8
	.type	_TIG_iO_35H6_1_emit_ap_object_declarations_1_opaque_ptr_1, @object
	.size	_TIG_iO_35H6_1_emit_ap_object_declarations_1_opaque_ptr_1, 8
_TIG_iO_35H6_1_emit_ap_object_declarations_1_opaque_ptr_1:
	.zero	8
	.globl	_TIG_iO_35H6_1_emit_ap_object_allocators_1_opaque_ptr_1
	.align 8
	.type	_TIG_iO_35H6_1_emit_ap_object_allocators_1_opaque_ptr_1, @object
	.size	_TIG_iO_35H6_1_emit_ap_object_allocators_1_opaque_ptr_1, 8
_TIG_iO_35H6_1_emit_ap_object_allocators_1_opaque_ptr_1:
	.zero	8
	.globl	_TIG_iO_35H6_1_emit_not_supported_helper_1_opaque_ptr_2
	.align 8
	.type	_TIG_iO_35H6_1_emit_not_supported_helper_1_opaque_ptr_2, @object
	.size	_TIG_iO_35H6_1_emit_not_supported_helper_1_opaque_ptr_2, 8
_TIG_iO_35H6_1_emit_not_supported_helper_1_opaque_ptr_2:
	.zero	8
	.globl	_TIG_iO_35H6_1_emit_sandbox_1_opaque_ptr_1
	.align 8
	.type	_TIG_iO_35H6_1_emit_sandbox_1_opaque_ptr_1, @object
	.size	_TIG_iO_35H6_1_emit_sandbox_1_opaque_ptr_1, 8
_TIG_iO_35H6_1_emit_sandbox_1_opaque_ptr_1:
	.zero	8
	.globl	_TIG_iO_35H6_1_emit_userdata_method_1_opaque_ptr_2
	.align 8
	.type	_TIG_iO_35H6_1_emit_userdata_method_1_opaque_ptr_2, @object
	.size	_TIG_iO_35H6_1_emit_userdata_method_1_opaque_ptr_2, 8
_TIG_iO_35H6_1_emit_userdata_method_1_opaque_ptr_2:
	.zero	8
	.globl	_TIG_iO_35H6_1_next_token_1_opaque_list_2
	.align 8
	.type	_TIG_iO_35H6_1_next_token_1_opaque_list_2, @object
	.size	_TIG_iO_35H6_1_next_token_1_opaque_list_2, 8
_TIG_iO_35H6_1_next_token_1_opaque_list_2:
	.zero	8
	.globl	_TIG_iO_35H6_1_emit_ap_object_declarations_1_opaque_list_1
	.align 8
	.type	_TIG_iO_35H6_1_emit_ap_object_declarations_1_opaque_list_1, @object
	.size	_TIG_iO_35H6_1_emit_ap_object_declarations_1_opaque_list_1, 8
_TIG_iO_35H6_1_emit_ap_object_declarations_1_opaque_list_1:
	.zero	8
	.globl	_TIG_iO_35H6_1_handle_header_1_opaque_list_2
	.align 8
	.type	_TIG_iO_35H6_1_handle_header_1_opaque_list_2, @object
	.size	_TIG_iO_35H6_1_handle_header_1_opaque_list_2, 8
_TIG_iO_35H6_1_handle_header_1_opaque_list_2:
	.zero	8
	.globl	_TIG_iO_35H6_1___bswap_32_1_opaque_list_1
	.align 8
	.type	_TIG_iO_35H6_1___bswap_32_1_opaque_list_1, @object
	.size	_TIG_iO_35H6_1___bswap_32_1_opaque_list_1, 8
_TIG_iO_35H6_1___bswap_32_1_opaque_list_1:
	.zero	8
	.globl	_TIG_iO_35H6_1_emit_userdata_checkers_1_opaque_ptr_2
	.align 8
	.type	_TIG_iO_35H6_1_emit_userdata_checkers_1_opaque_ptr_2, @object
	.size	_TIG_iO_35H6_1_emit_userdata_checkers_1_opaque_ptr_2, 8
_TIG_iO_35H6_1_emit_userdata_checkers_1_opaque_ptr_2:
	.zero	8
	.globl	_TIG_iO_35H6_1_emit_userdata_methods_1_opaque_ptr_1
	.align 8
	.type	_TIG_iO_35H6_1_emit_userdata_methods_1_opaque_ptr_1, @object
	.size	_TIG_iO_35H6_1_emit_userdata_methods_1_opaque_ptr_1, 8
_TIG_iO_35H6_1_emit_userdata_methods_1_opaque_ptr_1:
	.zero	8
	.globl	keyword_int32_t
	.align 8
	.type	keyword_int32_t, @object
	.size	keyword_int32_t, 8
keyword_int32_t:
	.zero	8
	.globl	_TIG_iO_35H6_1_emit_ap_object_checkers_1_opaque_ptr_1
	.align 8
	.type	_TIG_iO_35H6_1_emit_ap_object_checkers_1_opaque_ptr_1, @object
	.size	_TIG_iO_35H6_1_emit_ap_object_checkers_1_opaque_ptr_1, 8
_TIG_iO_35H6_1_emit_ap_object_checkers_1_opaque_ptr_1:
	.zero	8
	.globl	keyword_include
	.align 8
	.type	keyword_include, @object
	.size	keyword_include, 8
keyword_include:
	.zero	8
	.globl	_TIG_iO_35H6_1_handle_operator_1_opaque_ptr_2
	.align 8
	.type	_TIG_iO_35H6_1_handle_operator_1_opaque_ptr_2, @object
	.size	_TIG_iO_35H6_1_handle_operator_1_opaque_ptr_2, 8
_TIG_iO_35H6_1_handle_operator_1_opaque_ptr_2:
	.zero	8
	.globl	_TIG_iO_35H6_1_handle_operator_1_opaque_list_1
	.align 8
	.type	_TIG_iO_35H6_1_handle_operator_1_opaque_list_1, @object
	.size	_TIG_iO_35H6_1_handle_operator_1_opaque_list_1, 8
_TIG_iO_35H6_1_handle_operator_1_opaque_list_1:
	.zero	8
	.globl	_TIG_iO_35H6_1_handle_operator_1_opaque_ptr_1
	.align 8
	.type	_TIG_iO_35H6_1_handle_operator_1_opaque_ptr_1, @object
	.size	_TIG_iO_35H6_1_handle_operator_1_opaque_ptr_1, 8
_TIG_iO_35H6_1_handle_operator_1_opaque_ptr_1:
	.zero	8
	.globl	_TIG_iO_35H6_1_handle_userdata_enum_1_opaque_list_1
	.align 8
	.type	_TIG_iO_35H6_1_handle_userdata_enum_1_opaque_list_1, @object
	.size	_TIG_iO_35H6_1_handle_userdata_enum_1_opaque_list_1, 8
_TIG_iO_35H6_1_handle_userdata_enum_1_opaque_list_1:
	.zero	8
	.globl	_TIG_iO_35H6_1_next_token_1_opaque_ptr_1
	.align 8
	.type	_TIG_iO_35H6_1_next_token_1_opaque_ptr_1, @object
	.size	_TIG_iO_35H6_1_next_token_1_opaque_ptr_1, 8
_TIG_iO_35H6_1_next_token_1_opaque_ptr_1:
	.zero	8
	.globl	_TIG_iO_35H6_1_end_dependency_1_opaque_ptr_2
	.align 8
	.type	_TIG_iO_35H6_1_end_dependency_1_opaque_ptr_2, @object
	.size	_TIG_iO_35H6_1_end_dependency_1_opaque_ptr_2, 8
_TIG_iO_35H6_1_end_dependency_1_opaque_ptr_2:
	.zero	8
	.globl	_TIG_iO_35H6_1_parse_range_check_1_opaque_ptr_2
	.align 8
	.type	_TIG_iO_35H6_1_parse_range_check_1_opaque_ptr_2, @object
	.size	_TIG_iO_35H6_1_parse_range_check_1_opaque_ptr_2, 8
_TIG_iO_35H6_1_parse_range_check_1_opaque_ptr_2:
	.zero	8
	.globl	_TIG_iO_35H6_1_parse_access_flags_1_opaque_ptr_1
	.align 8
	.type	_TIG_iO_35H6_1_parse_access_flags_1_opaque_ptr_1, @object
	.size	_TIG_iO_35H6_1_parse_access_flags_1_opaque_ptr_1, 8
_TIG_iO_35H6_1_parse_access_flags_1_opaque_ptr_1:
	.zero	8
	.globl	_TIG_iO_35H6_1_emit_userdata_methods_1_opaque_list_2
	.align 8
	.type	_TIG_iO_35H6_1_emit_userdata_methods_1_opaque_list_2, @object
	.size	_TIG_iO_35H6_1_emit_userdata_methods_1_opaque_list_2, 8
_TIG_iO_35H6_1_emit_userdata_methods_1_opaque_list_2:
	.zero	8
	.globl	_TIG_iO_35H6_1_emit_ap_object_declarations_1_opaque_list_2
	.align 8
	.type	_TIG_iO_35H6_1_emit_ap_object_declarations_1_opaque_list_2, @object
	.size	_TIG_iO_35H6_1_emit_ap_object_declarations_1_opaque_list_2, 8
_TIG_iO_35H6_1_emit_ap_object_declarations_1_opaque_list_2:
	.zero	8
	.globl	_TIG_iO_35H6_1_handle_ap_object_1_opaque_ptr_1
	.align 8
	.type	_TIG_iO_35H6_1_handle_ap_object_1_opaque_ptr_1, @object
	.size	_TIG_iO_35H6_1_handle_ap_object_1_opaque_ptr_1, 8
_TIG_iO_35H6_1_handle_ap_object_1_opaque_ptr_1:
	.zero	8
	.globl	_TIG_iO_35H6_1___uint16_identity_1_opaque_list_1
	.align 8
	.type	_TIG_iO_35H6_1___uint16_identity_1_opaque_list_1, @object
	.size	_TIG_iO_35H6_1___uint16_identity_1_opaque_list_1, 8
_TIG_iO_35H6_1___uint16_identity_1_opaque_list_1:
	.zero	8
	.globl	_TIG_iO_35H6_1_emit_userdata_checkers_1_opaque_ptr_1
	.align 8
	.type	_TIG_iO_35H6_1_emit_userdata_checkers_1_opaque_ptr_1, @object
	.size	_TIG_iO_35H6_1_emit_userdata_checkers_1_opaque_ptr_1, 8
_TIG_iO_35H6_1_emit_userdata_checkers_1_opaque_ptr_1:
	.zero	8
	.globl	_TIG_iO_35H6_1_emit_userdata_allocators_1_opaque_list_1
	.align 8
	.type	_TIG_iO_35H6_1_emit_userdata_allocators_1_opaque_list_1, @object
	.size	_TIG_iO_35H6_1_emit_userdata_allocators_1_opaque_list_1, 8
_TIG_iO_35H6_1_emit_userdata_allocators_1_opaque_list_1:
	.zero	8
	.globl	_TIG_iO_35H6_1___bswap_64_1_opaque_list_1
	.align 8
	.type	_TIG_iO_35H6_1___bswap_64_1_opaque_list_1, @object
	.size	_TIG_iO_35H6_1___bswap_64_1_opaque_list_1, 8
_TIG_iO_35H6_1___bswap_64_1_opaque_list_1:
	.zero	8
	.globl	_TIG_iO_35H6_1_parse_range_check_1_opaque_ptr_1
	.align 8
	.type	_TIG_iO_35H6_1_parse_range_check_1_opaque_ptr_1, @object
	.size	_TIG_iO_35H6_1_parse_range_check_1_opaque_ptr_1, 8
_TIG_iO_35H6_1_parse_range_check_1_opaque_ptr_1:
	.zero	8
	.globl	_TIG_iO_35H6_1___uint32_identity_1_opaque_ptr_1
	.align 8
	.type	_TIG_iO_35H6_1___uint32_identity_1_opaque_ptr_1, @object
	.size	_TIG_iO_35H6_1___uint32_identity_1_opaque_ptr_1, 8
_TIG_iO_35H6_1___uint32_identity_1_opaque_ptr_1:
	.zero	8
	.globl	_TIG_iO_35H6_1_emit_enums_1_opaque_list_1
	.align 8
	.type	_TIG_iO_35H6_1_emit_enums_1_opaque_list_1, @object
	.size	_TIG_iO_35H6_1_emit_enums_1_opaque_list_1, 8
_TIG_iO_35H6_1_emit_enums_1_opaque_list_1:
	.zero	8
	.globl	_TIG_iO_35H6_1_emit_userdata_field_1_opaque_list_1
	.align 8
	.type	_TIG_iO_35H6_1_emit_userdata_field_1_opaque_list_1, @object
	.size	_TIG_iO_35H6_1_emit_userdata_field_1_opaque_list_1, 8
_TIG_iO_35H6_1_emit_userdata_field_1_opaque_list_1:
	.zero	8
	.globl	_TIG_iO_35H6_1_emit_userdata_methods_1_opaque_ptr_2
	.align 8
	.type	_TIG_iO_35H6_1_emit_userdata_methods_1_opaque_ptr_2, @object
	.size	_TIG_iO_35H6_1_emit_userdata_methods_1_opaque_ptr_2, 8
_TIG_iO_35H6_1_emit_userdata_methods_1_opaque_ptr_2:
	.zero	8
	.globl	_TIG_iO_35H6_1___bswap_32_1_opaque_ptr_2
	.align 8
	.type	_TIG_iO_35H6_1___bswap_32_1_opaque_ptr_2, @object
	.size	_TIG_iO_35H6_1___bswap_32_1_opaque_ptr_2, 8
_TIG_iO_35H6_1___bswap_32_1_opaque_ptr_2:
	.zero	8
	.globl	_TIG_iO_35H6_1_string_copy_1_opaque_ptr_1
	.align 8
	.type	_TIG_iO_35H6_1_string_copy_1_opaque_ptr_1, @object
	.size	_TIG_iO_35H6_1_string_copy_1_opaque_ptr_1, 8
_TIG_iO_35H6_1_string_copy_1_opaque_ptr_1:
	.zero	8
	.globl	keyword_attr_enum
	.type	keyword_attr_enum, @object
	.size	keyword_attr_enum, 6
keyword_attr_enum:
	.zero	6
	.globl	keyword_enum
	.type	keyword_enum, @object
	.size	keyword_enum, 5
keyword_enum:
	.zero	5
	.globl	_TIG_iO_35H6_1___bswap_64_1_opaque_ptr_1
	.align 8
	.type	_TIG_iO_35H6_1___bswap_64_1_opaque_ptr_1, @object
	.size	_TIG_iO_35H6_1___bswap_64_1_opaque_ptr_1, 8
_TIG_iO_35H6_1___bswap_64_1_opaque_ptr_1:
	.zero	8
	.globl	keyword_comment
	.type	keyword_comment, @object
	.size	keyword_comment, 3
keyword_comment:
	.zero	3
	.globl	_TIG_iO_35H6_1_emit_userdata_fields_1_opaque_ptr_1
	.align 8
	.type	_TIG_iO_35H6_1_emit_userdata_fields_1_opaque_ptr_1, @object
	.size	_TIG_iO_35H6_1_emit_userdata_fields_1_opaque_ptr_1, 8
_TIG_iO_35H6_1_emit_userdata_fields_1_opaque_ptr_1:
	.zero	8
	.globl	_TIG_iO_35H6_1_emit_userdata_field_1_opaque_ptr_1
	.align 8
	.type	_TIG_iO_35H6_1_emit_userdata_field_1_opaque_ptr_1, @object
	.size	_TIG_iO_35H6_1_emit_userdata_field_1_opaque_ptr_1, 8
_TIG_iO_35H6_1_emit_userdata_field_1_opaque_ptr_1:
	.zero	8
	.globl	_TIG_iO_35H6_1_emit_userdata_metatables_1_opaque_list_1
	.align 8
	.type	_TIG_iO_35H6_1_emit_userdata_metatables_1_opaque_list_1, @object
	.size	_TIG_iO_35H6_1_emit_userdata_metatables_1_opaque_list_1, 8
_TIG_iO_35H6_1_emit_userdata_metatables_1_opaque_list_1:
	.zero	8
	.globl	_TIG_iO_35H6_1_get_name_for_operation_1_opaque_list_2
	.align 8
	.type	_TIG_iO_35H6_1_get_name_for_operation_1_opaque_list_2, @object
	.size	_TIG_iO_35H6_1_get_name_for_operation_1_opaque_list_2, 8
_TIG_iO_35H6_1_get_name_for_operation_1_opaque_list_2:
	.zero	8
	.globl	_TIG_iO_35H6_1_emit_userdata_fields_1_opaque_list_1
	.align 8
	.type	_TIG_iO_35H6_1_emit_userdata_fields_1_opaque_list_1, @object
	.size	_TIG_iO_35H6_1_emit_userdata_fields_1_opaque_list_1, 8
_TIG_iO_35H6_1_emit_userdata_fields_1_opaque_list_1:
	.zero	8
	.globl	keyword_field
	.type	keyword_field, @object
	.size	keyword_field, 6
keyword_field:
	.zero	6
	.globl	_TIG_iO_35H6_1_emit_userdata_fields_1_opaque_ptr_2
	.align 8
	.type	_TIG_iO_35H6_1_emit_userdata_fields_1_opaque_ptr_2, @object
	.size	_TIG_iO_35H6_1_emit_userdata_fields_1_opaque_ptr_2, 8
_TIG_iO_35H6_1_emit_userdata_fields_1_opaque_ptr_2:
	.zero	8
	.globl	_TIG_iO_35H6_1___bswap_32_1_opaque_ptr_1
	.align 8
	.type	_TIG_iO_35H6_1___bswap_32_1_opaque_ptr_1, @object
	.size	_TIG_iO_35H6_1___bswap_32_1_opaque_ptr_1, 8
_TIG_iO_35H6_1___bswap_32_1_opaque_ptr_1:
	.zero	8
	.globl	_TIG_iO_35H6_1___uint64_identity_1_opaque_ptr_2
	.align 8
	.type	_TIG_iO_35H6_1___uint64_identity_1_opaque_ptr_2, @object
	.size	_TIG_iO_35H6_1___uint64_identity_1_opaque_ptr_2, 8
_TIG_iO_35H6_1___uint64_identity_1_opaque_ptr_2:
	.zero	8
	.globl	_TIG_iO_35H6_1_sanitize_character_1_opaque_list_1
	.align 8
	.type	_TIG_iO_35H6_1_sanitize_character_1_opaque_list_1, @object
	.size	_TIG_iO_35H6_1_sanitize_character_1_opaque_list_1, 8
_TIG_iO_35H6_1_sanitize_character_1_opaque_list_1:
	.zero	8
	.globl	_TIG_iO_35H6_1_start_dependency_1_opaque_list_1
	.align 8
	.type	_TIG_iO_35H6_1_start_dependency_1_opaque_list_1, @object
	.size	_TIG_iO_35H6_1_start_dependency_1_opaque_list_1, 8
_TIG_iO_35H6_1_start_dependency_1_opaque_list_1:
	.zero	8
	.globl	_TIG_iO_35H6_1_emit_userdata_method_1_opaque_list_2
	.align 8
	.type	_TIG_iO_35H6_1_emit_userdata_method_1_opaque_list_2, @object
	.size	_TIG_iO_35H6_1_emit_userdata_method_1_opaque_list_2, 8
_TIG_iO_35H6_1_emit_userdata_method_1_opaque_list_2:
	.zero	8
	.globl	_TIG_iO_35H6_1_parse_access_flags_1_opaque_list_2
	.align 8
	.type	_TIG_iO_35H6_1_parse_access_flags_1_opaque_list_2, @object
	.size	_TIG_iO_35H6_1_parse_access_flags_1_opaque_list_2, 8
_TIG_iO_35H6_1_parse_access_flags_1_opaque_list_2:
	.zero	8
	.globl	keyword_string
	.type	keyword_string, @object
	.size	keyword_string, 7
keyword_string:
	.zero	7
	.globl	_TIG_iO_35H6_1_emit_references_1_opaque_list_1
	.align 8
	.type	_TIG_iO_35H6_1_emit_references_1_opaque_list_1, @object
	.size	_TIG_iO_35H6_1_emit_references_1_opaque_list_1, 8
_TIG_iO_35H6_1_emit_references_1_opaque_list_1:
	.zero	8
	.globl	_TIG_iO_35H6_1_emit_operators_1_opaque_ptr_1
	.align 8
	.type	_TIG_iO_35H6_1_emit_operators_1_opaque_ptr_1, @object
	.size	_TIG_iO_35H6_1_emit_operators_1_opaque_ptr_1, 8
_TIG_iO_35H6_1_emit_operators_1_opaque_ptr_1:
	.zero	8
	.globl	_TIG_iO_35H6_1_start_line_1_opaque_list_2
	.align 8
	.type	_TIG_iO_35H6_1_start_line_1_opaque_list_2, @object
	.size	_TIG_iO_35H6_1_start_line_1_opaque_list_2, 8
_TIG_iO_35H6_1_start_line_1_opaque_list_2:
	.zero	8
	.text
	.globl	emit_userdata_methods
	.type	emit_userdata_methods, @function
emit_userdata_methods:
.LFB1:
	.cfi_startproc
	endbr64
	pushq	%rbp
	.cfi_def_cfa_offset 16
	.cfi_offset 6, -16
	movq	%rsp, %rbp
	.cfi_def_cfa_register 6
	subq	$80, %rsp
	movq	%rdi, -72(%rbp)
#APP
# 67 "/usr/include/x86_64-linux-gnu/bits/uintn-identity.h" 1
	##_ANNOTATION_INITIALREGION_-TIG-iO-35H6-1-emit-userdata-methods--58
# 0 "" 2
# 71 "/usr/include/x86_64-linux-gnu/bits/uintn-identity.h" 1
	##_ANNOTATION_ATOMICREGION_-TIG-iO-35H6-1-emit-userdata-methods--57
# 0 "" 2
#NO_APP
	movl	$24, %edi
	call	malloc@PLT
	movq	%rax, -32(%rbp)
	movq	-32(%rbp), %rax
	movq	-32(%rbp), %rdx
	movq	%rdx, 8(%rax)
	movq	-32(%rbp), %rax
	movq	-32(%rbp), %rdx
	movq	%rdx, 16(%rax)
	movq	-32(%rbp), %rax
	movq	%rax, _TIG_iO_35H6_1_emit_userdata_methods_1_opaque_list_1(%rip)
	call	rand@PLT
	movl	%eax, -52(%rbp)
	movl	$24, %edi
	call	malloc@PLT
	movq	%rax, -24(%rbp)
	movq	-24(%rbp), %rax
	movl	$0, (%rax)
	movq	_TIG_iO_35H6_1_emit_userdata_methods_1_opaque_list_1(%rip), %rax
	movq	8(%rax), %rdx
	movq	-24(%rbp), %rax
	movq	%rdx, 8(%rax)
	movq	_TIG_iO_35H6_1_emit_userdata_methods_1_opaque_list_1(%rip), %rdx
	movq	-24(%rbp), %rax
	movq	%rdx, 16(%rax)
	movq	_TIG_iO_35H6_1_emit_userdata_methods_1_opaque_list_1(%rip), %rax
	movq	8(%rax), %rax
	movq	-24(%rbp), %rdx
	movq	%rdx, 16(%rax)
	movq	_TIG_iO_35H6_1_emit_userdata_methods_1_opaque_list_1(%rip), %rax
	movq	-24(%rbp), %rdx
	movq	%rdx, 8(%rax)
	call	rand@PLT
	movl	%eax, -48(%rbp)
	movl	$24, %edi
	call	malloc@PLT
	movq	%rax, -16(%rbp)
	movq	-16(%rbp), %rax
	movl	-48(%rbp), %edx
	movl	%edx, (%rax)
	movq	_TIG_iO_35H6_1_emit_userdata_methods_1_opaque_list_1(%rip), %rax
	movq	8(%rax), %rdx
	movq	-16(%rbp), %rax
	movq	%rdx, 8(%rax)
	movq	_TIG_iO_35H6_1_emit_userdata_methods_1_opaque_list_1(%rip), %rdx
	movq	-16(%rbp), %rax
	movq	%rdx, 16(%rax)
	movq	_TIG_iO_35H6_1_emit_userdata_methods_1_opaque_list_1(%rip), %rax
	movq	8(%rax), %rax
	movq	-16(%rbp), %rdx
	movq	%rdx, 16(%rax)
	movq	_TIG_iO_35H6_1_emit_userdata_methods_1_opaque_list_1(%rip), %rax
	movq	-16(%rbp), %rdx
	movq	%rdx, 8(%rax)
	call	rand@PLT
	movl	%eax, -44(%rbp)
	movl	$24, %edi
	call	malloc@PLT
	movq	%rax, -8(%rbp)
	movl	-44(%rbp), %eax
	leal	(%rax,%rax), %edx
	movq	-8(%rbp), %rax
	movl	%edx, (%rax)
	movq	_TIG_iO_35H6_1_emit_userdata_methods_1_opaque_list_1(%rip), %rax
	movq	8(%rax), %rdx
	movq	-8(%rbp), %rax
	movq	%rdx, 8(%rax)
	movq	_TIG_iO_35H6_1_emit_userdata_methods_1_opaque_list_1(%rip), %rdx
	movq	-8(%rbp), %rax
	movq	%rdx, 16(%rax)
	movq	_TIG_iO_35H6_1_emit_userdata_methods_1_opaque_list_1(%rip), %rax
	movq	8(%rax), %rax
	movq	-8(%rbp), %rdx
	movq	%rdx, 16(%rax)
	movq	_TIG_iO_35H6_1_emit_userdata_methods_1_opaque_list_1(%rip), %rax
	movq	-8(%rbp), %rdx
	movq	%rdx, 8(%rax)
	movq	_TIG_iO_35H6_1_emit_userdata_methods_1_opaque_list_1(%rip), %rax
	movq	8(%rax), %rax
	movq	%rax, _TIG_iO_35H6_1_emit_userdata_methods_1_opaque_ptr_1(%rip)
	movq	_TIG_iO_35H6_1_emit_userdata_methods_1_opaque_ptr_1(%rip), %rax
	movq	%rax, _TIG_iO_35H6_1_emit_userdata_methods_1_opaque_ptr_2(%rip)
	nop
	nop
.L8:
	cmpq	$0, -72(%rbp)
	jne	.L2
	movq	_TIG_iO_35H6_1_trace_1_opaque_ptr_1(%rip), %rdx
	movq	_TIG_iO_35H6_1_trace_1_opaque_ptr_2(%rip), %rax
	cmpq	%rax, %rdx
	jne	.L11
#APP
# 1827 "WangLouis_Ardupilot_kai_main.c" 1
	.byte 0x5c,0x18,0xd5,0xe4,0x30,0xa1,0x15
# 0 "" 2
#NO_APP
.L2:
	movq	-72(%rbp), %rax
	movq	40(%rax), %rax
	movq	%rax, -40(%rbp)
	jmp	.L5
.L6:
	movq	-40(%rbp), %rdx
	movq	-72(%rbp), %rax
	movq	%rdx, %rsi
	movq	%rax, %rdi
	call	emit_userdata_method
	movq	-40(%rbp), %rax
	movq	(%rax), %rax
	movq	%rax, -40(%rbp)
.L5:
	cmpq	$0, -40(%rbp)
	jne	.L6
	movq	-72(%rbp), %rax
	movl	60(%rax), %eax
	testl	%eax, %eax
	je	.L7
	movq	-72(%rbp), %rax
	movq	%rax, %rdi
	call	emit_operators
.L7:
	movq	-72(%rbp), %rax
	movq	(%rax), %rax
	movq	%rax, -72(%rbp)
	jmp	.L8
.L11:
	nop
	nop
	leave
	.cfi_def_cfa 7, 8
	ret
	.cfi_endproc
.LFE1:
	.size	emit_userdata_methods, .-emit_userdata_methods
	.section	.rodata
	.align 8
.LC0:
	.string	"Missing low value for a range check (type: %s)"
.LC1:
	.string	"Range check: Low: %s"
	.align 8
.LC2:
	.string	"Missing high value for a range check"
.LC3:
	.string	"Range check: High: %s"
	.text
	.globl	parse_range_check
	.type	parse_range_check, @function
parse_range_check:
.LFB2:
	.cfi_startproc
	endbr64
	pushq	%rbp
	.cfi_def_cfa_offset 16
	.cfi_offset 6, -16
	movq	%rsp, %rbp
	.cfi_def_cfa_register 6
	subq	$96, %rsp
	movl	%edi, -84(%rbp)
#APP
# 1861 "WangLouis_Ardupilot_kai_main.c" 1
	##_ANNOTATION_INITIALREGION_-TIG-iO-35H6-1-parse-range-check--88
# 0 "" 2
# 1865 "WangLouis_Ardupilot_kai_main.c" 1
	##_ANNOTATION_ATOMICREGION_-TIG-iO-35H6-1-parse-range-check--87
# 0 "" 2
#NO_APP
	movl	$24, %edi
	call	malloc@PLT
	movq	%rax, -72(%rbp)
	movq	-72(%rbp), %rax
	movq	-72(%rbp), %rdx
	movq	%rdx, 16(%rax)
	movq	-72(%rbp), %rax
	movq	-72(%rbp), %rdx
	movq	%rdx, 8(%rax)
	movq	-72(%rbp), %rax
	movq	%rax, _TIG_iO_35H6_1_parse_range_check_1_opaque_list_1(%rip)
	call	rand@PLT
	movl	%eax, -80(%rbp)
	movl	$24, %edi
	call	malloc@PLT
	movq	%rax, -64(%rbp)
	movq	-64(%rbp), %rax
	movl	$0, (%rax)
	movq	_TIG_iO_35H6_1_parse_range_check_1_opaque_list_1(%rip), %rax
	movq	16(%rax), %rdx
	movq	-64(%rbp), %rax
	movq	%rdx, 16(%rax)
	movq	_TIG_iO_35H6_1_parse_range_check_1_opaque_list_1(%rip), %rdx
	movq	-64(%rbp), %rax
	movq	%rdx, 8(%rax)
	movq	_TIG_iO_35H6_1_parse_range_check_1_opaque_list_1(%rip), %rax
	movq	16(%rax), %rax
	movq	-64(%rbp), %rdx
	movq	%rdx, 8(%rax)
	movq	_TIG_iO_35H6_1_parse_range_check_1_opaque_list_1(%rip), %rax
	movq	-64(%rbp), %rdx
	movq	%rdx, 16(%rax)
	call	rand@PLT
	movl	%eax, -76(%rbp)
	movl	$24, %edi
	call	malloc@PLT
	movq	%rax, -56(%rbp)
	movq	-56(%rbp), %rax
	movl	-76(%rbp), %edx
	movl	%edx, (%rax)
	movq	_TIG_iO_35H6_1_parse_range_check_1_opaque_list_1(%rip), %rax
	movq	16(%rax), %rdx
	movq	-56(%rbp), %rax
	movq	%rdx, 16(%rax)
	movq	_TIG_iO_35H6_1_parse_range_check_1_opaque_list_1(%rip), %rdx
	movq	-56(%rbp), %rax
	movq	%rdx, 8(%rax)
	movq	_TIG_iO_35H6_1_parse_range_check_1_opaque_list_1(%rip), %rax
	movq	16(%rax), %rax
	movq	-56(%rbp), %rdx
	movq	%rdx, 8(%rax)
	movq	_TIG_iO_35H6_1_parse_range_check_1_opaque_list_1(%rip), %rax
	movq	-56(%rbp), %rdx
	movq	%rdx, 16(%rax)
	movq	_TIG_iO_35H6_1_parse_range_check_1_opaque_list_1(%rip), %rax
	movq	16(%rax), %rax
	movq	%rax, _TIG_iO_35H6_1_parse_range_check_1_opaque_ptr_1(%rip)
	movq	_TIG_iO_35H6_1_parse_range_check_1_opaque_ptr_1(%rip), %rax
	movq	%rax, _TIG_iO_35H6_1_parse_range_check_1_opaque_ptr_2(%rip)
	movq	_TIG_iO_35H6_1_parse_range_check_1_opaque_ptr_2(%rip), %rax
	movq	16(%rax), %rax
	movq	%rax, _TIG_iO_35H6_1_parse_range_check_1_opaque_ptr_2(%rip)
	nop
	nop
	call	next_token
	movq	%rax, -48(%rbp)
	movq	-48(%rbp), %rax
	movq	%rax, -40(%rbp)
	cmpq	$0, -40(%rbp)
	jne	.L13
	movl	-84(%rbp), %eax
	leaq	0(,%rax,8), %rdx
	leaq	type_labels(%rip), %rax
	movq	(%rdx,%rax), %rax
	movq	%rax, %rdx
	leaq	.LC0(%rip), %rax
	movq	%rax, %rsi
	movl	$4, %edi
	movl	$0, %eax
	call	error
.L13:
	movq	-40(%rbp), %rax
	movq	%rax, %rdx
	leaq	.LC1(%rip), %rax
	movq	%rax, %rsi
	movl	$1, %edi
	movl	$0, %eax
	call	trace
	call	next_token
	movq	%rax, -32(%rbp)
	movq	-32(%rbp), %rax
	movq	%rax, -24(%rbp)
	cmpq	$0, -24(%rbp)
	jne	.L14
	leaq	.LC2(%rip), %rax
	movq	%rax, %rsi
	movl	$4, %edi
	movl	$0, %eax
	call	error
.L14:
	movq	_TIG_iO_35H6_1_trace_1_opaque_ptr_1(%rip), %rdx
	movq	_TIG_iO_35H6_1_trace_1_opaque_ptr_2(%rip), %rax
	cmpq	%rax, %rdx
	jne	.L15
	call	handle_singleton
.L15:
	movq	-24(%rbp), %rax
	movq	%rax, %rdx
	leaq	.LC3(%rip), %rax
	movq	%rax, %rsi
	movl	$1, %edi
	movl	$0, %eax
	call	trace
	movl	$16, %edi
	call	allocate
	movq	%rax, -16(%rbp)
	movq	-16(%rbp), %rax
	movq	%rax, -8(%rbp)
	movq	-8(%rbp), %rax
	movq	-40(%rbp), %rdx
	movq	%rdx, %rsi
	movq	%rax, %rdi
	call	string_copy
	movq	-8(%rbp), %rax
	leaq	8(%rax), %rdx
	movq	-24(%rbp), %rax
	movq	%rax, %rsi
	movq	%rdx, %rdi
	call	string_copy
	movq	-8(%rbp), %rax
	leave
	.cfi_def_cfa 7, 8
	ret
	.cfi_endproc
.LFE2:
	.size	parse_range_check, .-parse_range_check
	.section	.rodata
.LC4:
	.string	"Discarding carriage return"
.LC5:
	.string	"Discarding newline"
.LC6:
	.string	"Start of line token %d:%d %s"
	.text
	.globl	start_line
	.type	start_line, @function
start_line:
.LFB3:
	.cfi_startproc
	endbr64
	pushq	%rbp
	.cfi_def_cfa_offset 16
	.cfi_offset 6, -16
	movq	%rsp, %rbp
	.cfi_def_cfa_register 6
	subq	$80, %rsp
#APP
# 444 "WangLouis_Ardupilot_kai_main.c" 1
	##_ANNOTATION_INITIALREGION_-TIG-iO-35H6-1-start-line--100
# 0 "" 2
# 448 "WangLouis_Ardupilot_kai_main.c" 1
	##_ANNOTATION_ATOMICREGION_-TIG-iO-35H6-1-start-line--99
# 0 "" 2
#NO_APP
	movl	$24, %edi
	call	malloc@PLT
	movq	%rax, -48(%rbp)
	movq	-48(%rbp), %rax
	movq	-48(%rbp), %rdx
	movq	%rdx, 8(%rax)
	movq	-48(%rbp), %rax
	movq	-48(%rbp), %rdx
	movq	%rdx, 16(%rax)
	movq	-48(%rbp), %rax
	movq	%rax, _TIG_iO_35H6_1_start_line_1_opaque_list_1(%rip)
	call	rand@PLT
	movl	%eax, -68(%rbp)
	movl	$24, %edi
	call	malloc@PLT
	movq	%rax, -40(%rbp)
	movq	-40(%rbp), %rax
	movl	$0, (%rax)
	movq	_TIG_iO_35H6_1_start_line_1_opaque_list_1(%rip), %rax
	movq	8(%rax), %rdx
	movq	-40(%rbp), %rax
	movq	%rdx, 8(%rax)
	movq	_TIG_iO_35H6_1_start_line_1_opaque_list_1(%rip), %rdx
	movq	-40(%rbp), %rax
	movq	%rdx, 16(%rax)
	movq	_TIG_iO_35H6_1_start_line_1_opaque_list_1(%rip), %rax
	movq	8(%rax), %rax
	movq	-40(%rbp), %rdx
	movq	%rdx, 16(%rax)
	movq	_TIG_iO_35H6_1_start_line_1_opaque_list_1(%rip), %rax
	movq	-40(%rbp), %rdx
	movq	%rdx, 8(%rax)
	call	rand@PLT
	movl	%eax, -64(%rbp)
	movl	$24, %edi
	call	malloc@PLT
	movq	%rax, -32(%rbp)
	movq	-32(%rbp), %rax
	movl	-64(%rbp), %edx
	movl	%edx, (%rax)
	movq	_TIG_iO_35H6_1_start_line_1_opaque_list_1(%rip), %rax
	movq	8(%rax), %rdx
	movq	-32(%rbp), %rax
	movq	%rdx, 8(%rax)
	movq	_TIG_iO_35H6_1_start_line_1_opaque_list_1(%rip), %rdx
	movq	-32(%rbp), %rax
	movq	%rdx, 16(%rax)
	movq	_TIG_iO_35H6_1_start_line_1_opaque_list_1(%rip), %rax
	movq	8(%rax), %rax
	movq	-32(%rbp), %rdx
	movq	%rdx, 16(%rax)
	movq	_TIG_iO_35H6_1_start_line_1_opaque_list_1(%rip), %rax
	movq	-32(%rbp), %rdx
	movq	%rdx, 8(%rax)
	call	rand@PLT
	movl	%eax, -60(%rbp)
	movl	$24, %edi
	call	malloc@PLT
	movq	%rax, -24(%rbp)
	movl	-60(%rbp), %eax
	leal	(%rax,%rax), %edx
	movq	-24(%rbp), %rax
	movl	%edx, (%rax)
	movq	_TIG_iO_35H6_1_start_line_1_opaque_list_1(%rip), %rax
	movq	8(%rax), %rdx
	movq	-24(%rbp), %rax
	movq	%rdx, 8(%rax)
	movq	_TIG_iO_35H6_1_start_line_1_opaque_list_1(%rip), %rdx
	movq	-24(%rbp), %rax
	movq	%rdx, 16(%rax)
	movq	_TIG_iO_35H6_1_start_line_1_opaque_list_1(%rip), %rax
	movq	8(%rax), %rax
	movq	-24(%rbp), %rdx
	movq	%rdx, 16(%rax)
	movq	_TIG_iO_35H6_1_start_line_1_opaque_list_1(%rip), %rax
	movq	-24(%rbp), %rdx
	movq	%rdx, 8(%rax)
	movq	_TIG_iO_35H6_1_start_line_1_opaque_list_1(%rip), %rax
	movq	8(%rax), %rax
	movq	%rax, _TIG_iO_35H6_1_start_line_1_opaque_ptr_1(%rip)
	movq	_TIG_iO_35H6_1_start_line_1_opaque_ptr_1(%rip), %rax
	movq	%rax, _TIG_iO_35H6_1_start_line_1_opaque_ptr_2(%rip)
	movq	_TIG_iO_35H6_1_start_line_1_opaque_ptr_2(%rip), %rax
	movq	8(%rax), %rax
	movq	%rax, _TIG_iO_35H6_1_start_line_1_opaque_ptr_2(%rip)
	nop
	nop
.L28:
	movq	description(%rip), %rax
	movq	%rax, %rdx
	movl	$16384, %esi
	leaq	state(%rip), %rax
	movq	%rax, %rdi
	call	fgets@PLT
	movq	%rax, -16(%rbp)
	cmpq	$0, -16(%rbp)
	je	.L30
	movq	_TIG_iO_35H6_1_trace_1_opaque_ptr_1(%rip), %rdx
	movq	_TIG_iO_35H6_1_trace_1_opaque_ptr_2(%rip), %rax
	cmpq	%rax, %rdx
	je	.L20
	movl	16384+state(%rip), %eax
	addl	$1, %eax
	movl	%eax, 16384+state(%rip)
	leaq	state(%rip), %rax
	movq	%rax, %rdi
	call	strlen@PLT
	movq	%rax, -8(%rbp)
	movq	-8(%rbp), %rax
	movq	%rax, -56(%rbp)
	jmp	.L21
.L20:
	movl	16384+state(%rip), %eax
	leal	1(%rax), %edx
	movl	-68(%rbp), %eax
	addl	%edx, %eax
	movl	%eax, 16384+state(%rip)
	leaq	1+state(%rip), %rax
	movq	%rax, %rdi
	call	strlen@PLT
	movq	%rax, -8(%rbp)
.L21:
	cmpq	$1, -56(%rbp)
	jbe	.L31
	movq	-56(%rbp), %rax
	leaq	-2(%rax), %rdx
	leaq	state(%rip), %rax
	movzbl	(%rdx,%rax), %eax
	cmpb	$13, %al
	jne	.L32
	leaq	.LC4(%rip), %rax
	movq	%rax, %rsi
	movl	$1, %edi
	movl	$0, %eax
	call	trace
	cmpq	$2, -56(%rbp)
	je	.L33
	movq	-56(%rbp), %rax
	leaq	-2(%rax), %rdx
	leaq	state(%rip), %rax
	movb	$0, (%rdx,%rax)
	jmp	.L26
.L31:
	nop
	jmp	.L22
.L32:
	nop
.L22:
	cmpq	$0, -56(%rbp)
	je	.L26
	movq	-56(%rbp), %rax
	leaq	-1(%rax), %rdx
	leaq	state(%rip), %rax
	movzbl	(%rdx,%rax), %eax
	cmpb	$10, %al
	jne	.L26
	leaq	.LC5(%rip), %rax
	movq	%rax, %rsi
	movl	$1, %edi
	movl	$0, %eax
	call	trace
	cmpq	$1, -56(%rbp)
	je	.L34
	movq	-56(%rbp), %rax
	leaq	-1(%rax), %rdx
	leaq	state(%rip), %rax
	movb	$0, (%rdx,%rax)
.L26:
	movq	token_delimiters(%rip), %rax
	movq	%rax, %rsi
	leaq	state(%rip), %rax
	movq	%rax, %rdi
	call	strtok@PLT
	movq	%rax, 16392+state(%rip)
	movl	$1, 16388+state(%rip)
	movq	16392+state(%rip), %rcx
	movl	16388+state(%rip), %edx
	movl	16384+state(%rip), %eax
	movq	%rcx, %r8
	movl	%edx, %ecx
	movl	%eax, %edx
	leaq	.LC6(%rip), %rax
	movq	%rax, %rsi
	movl	$1, %edi
	movl	$0, %eax
	call	trace
	movq	16392+state(%rip), %rax
	testq	%rax, %rax
	jne	.L35
	jmp	.L28
.L33:
	nop
	jmp	.L28
.L34:
	nop
	jmp	.L28
.L30:
	nop
	jmp	.L19
.L35:
	nop
.L19:
	movq	16392+state(%rip), %rax
	leave
	.cfi_def_cfa 7, 8
	ret
	.cfi_endproc
.LFE3:
	.size	start_line, .-start_line
	.section	.rodata
	.align 8
.LC7:
	.string	"%s ** check_%s(lua_State *L, int arg) {\n"
	.align 8
.LC8:
	.string	"    void *data = luaL_checkudata(L, arg, \"%s\");\n"
.LC9:
	.string	"    return (%s **)data;\n"
.LC10:
	.string	"}\n"
	.text
	.globl	emit_ap_object_checkers
	.type	emit_ap_object_checkers, @function
emit_ap_object_checkers:
.LFB4:
	.cfi_startproc
	endbr64
	pushq	%rbp
	.cfi_def_cfa_offset 16
	.cfi_offset 6, -16
	movq	%rsp, %rbp
	.cfi_def_cfa_register 6
	subq	$48, %rsp
#APP
# 265 "WangLouis_Ardupilot_kai_main.c" 1
	##_ANNOTATION_INITIALREGION_-TIG-iO-35H6-1-emit-ap-object-checkers--18
# 0 "" 2
# 269 "WangLouis_Ardupilot_kai_main.c" 1
	##_ANNOTATION_ATOMICREGION_-TIG-iO-35H6-1-emit-ap-object-checkers--17
# 0 "" 2
#NO_APP
	movl	$24, %edi
	call	malloc@PLT
	movq	%rax, -24(%rbp)
	movq	-24(%rbp), %rax
	movq	-24(%rbp), %rdx
	movq	%rdx, 8(%rax)
	movq	-24(%rbp), %rax
	movq	-24(%rbp), %rdx
	movq	%rdx, (%rax)
	movq	-24(%rbp), %rax
	movq	%rax, _TIG_iO_35H6_1_emit_ap_object_checkers_1_opaque_list_1(%rip)
	call	rand@PLT
	movl	%eax, -40(%rbp)
	movl	$24, %edi
	call	malloc@PLT
	movq	%rax, -16(%rbp)
	movq	-16(%rbp), %rax
	movl	$0, 16(%rax)
	movq	_TIG_iO_35H6_1_emit_ap_object_checkers_1_opaque_list_1(%rip), %rax
	movq	8(%rax), %rdx
	movq	-16(%rbp), %rax
	movq	%rdx, 8(%rax)
	movq	_TIG_iO_35H6_1_emit_ap_object_checkers_1_opaque_list_1(%rip), %rdx
	movq	-16(%rbp), %rax
	movq	%rdx, (%rax)
	movq	_TIG_iO_35H6_1_emit_ap_object_checkers_1_opaque_list_1(%rip), %rax
	movq	8(%rax), %rax
	movq	-16(%rbp), %rdx
	movq	%rdx, (%rax)
	movq	_TIG_iO_35H6_1_emit_ap_object_checkers_1_opaque_list_1(%rip), %rax
	movq	-16(%rbp), %rdx
	movq	%rdx, 8(%rax)
	call	rand@PLT
	movl	%eax, -36(%rbp)
	movl	$24, %edi
	call	malloc@PLT
	movq	%rax, -8(%rbp)
	movq	-8(%rbp), %rax
	movl	-36(%rbp), %edx
	movl	%edx, 16(%rax)
	movq	_TIG_iO_35H6_1_emit_ap_object_checkers_1_opaque_list_1(%rip), %rax
	movq	8(%rax), %rdx
	movq	-8(%rbp), %rax
	movq	%rdx, 8(%rax)
	movq	_TIG_iO_35H6_1_emit_ap_object_checkers_1_opaque_list_1(%rip), %rdx
	movq	-8(%rbp), %rax
	movq	%rdx, (%rax)
	movq	_TIG_iO_35H6_1_emit_ap_object_checkers_1_opaque_list_1(%rip), %rax
	movq	8(%rax), %rax
	movq	-8(%rbp), %rdx
	movq	%rdx, (%rax)
	movq	_TIG_iO_35H6_1_emit_ap_object_checkers_1_opaque_list_1(%rip), %rax
	movq	-8(%rbp), %rdx
	movq	%rdx, 8(%rax)
	movq	_TIG_iO_35H6_1_emit_ap_object_checkers_1_opaque_list_1(%rip), %rax
	movq	8(%rax), %rax
	movq	%rax, _TIG_iO_35H6_1_emit_ap_object_checkers_1_opaque_ptr_1(%rip)
	movq	_TIG_iO_35H6_1_emit_ap_object_checkers_1_opaque_ptr_1(%rip), %rax
	movq	%rax, _TIG_iO_35H6_1_emit_ap_object_checkers_1_opaque_ptr_2(%rip)
	movq	_TIG_iO_35H6_1_emit_ap_object_checkers_1_opaque_ptr_2(%rip), %rax
	movq	8(%rax), %rax
	movq	%rax, _TIG_iO_35H6_1_emit_ap_object_checkers_1_opaque_ptr_2(%rip)
	nop
	nop
	movq	parsed_ap_objects(%rip), %rax
	movq	%rax, -32(%rbp)
	jmp	.L37
.L38:
	movq	-32(%rbp), %rax
	movq	72(%rax), %rdx
	movq	source(%rip), %rax
	movq	%rdx, %rsi
	movq	%rax, %rdi
	call	start_dependency
	movq	-32(%rbp), %rax
	movq	16(%rax), %rcx
	movq	-32(%rbp), %rax
	movq	8(%rax), %rdx
	movq	source(%rip), %rax
	leaq	.LC7(%rip), %rsi
	movq	%rax, %rdi
	movl	$0, %eax
	call	fprintf@PLT
	movq	-32(%rbp), %rax
	movq	8(%rax), %rdx
	movq	source(%rip), %rax
	leaq	.LC8(%rip), %rcx
	movq	%rcx, %rsi
	movq	%rax, %rdi
	movl	$0, %eax
	call	fprintf@PLT
	movq	-32(%rbp), %rax
	movq	8(%rax), %rdx
	movq	source(%rip), %rax
	leaq	.LC9(%rip), %rcx
	movq	%rcx, %rsi
	movq	%rax, %rdi
	movl	$0, %eax
	call	fprintf@PLT
	movq	source(%rip), %rax
	movq	%rax, %rcx
	movl	$2, %edx
	movl	$1, %esi
	leaq	.LC10(%rip), %rax
	movq	%rax, %rdi
	call	fwrite@PLT
	movq	-32(%rbp), %rax
	movq	72(%rax), %rdx
	movq	source(%rip), %rax
	movq	%rdx, %rsi
	movq	%rax, %rdi
	call	end_dependency
	movq	source(%rip), %rax
	movq	%rax, %rsi
	movl	$10, %edi
	call	fputc@PLT
	movq	-32(%rbp), %rax
	movq	(%rax), %rax
	movq	%rax, -32(%rbp)
.L37:
	cmpq	$0, -32(%rbp)
	jne	.L38
	movq	_TIG_iO_35H6_1_trace_1_opaque_ptr_1(%rip), %rdx
	movq	_TIG_iO_35H6_1_trace_1_opaque_ptr_2(%rip), %rax
	cmpq	%rax, %rdx
	jne	.L41
#APP
# 1107 "WangLouis_Ardupilot_kai_main.c" 1
	.byte 0x0,0x0,0x0,0x0
# 0 "" 2
#NO_APP
	jmp	.L36
.L41:
	nop
.L36:
	leave
	.cfi_def_cfa 7, 8
	ret
	.cfi_endproc
.LFE4:
	.size	emit_ap_object_checkers, .-emit_ap_object_checkers
	.section	.rodata
.LC11:
	.string	"Adding a userdata enum"
.LC12:
	.string	"Adding enum %s"
	.text
	.globl	handle_userdata_enum
	.type	handle_userdata_enum, @function
handle_userdata_enum:
.LFB5:
	.cfi_startproc
	endbr64
	pushq	%rbp
	.cfi_def_cfa_offset 16
	.cfi_offset 6, -16
	movq	%rsp, %rbp
	.cfi_def_cfa_register 6
	subq	$80, %rsp
	movq	%rdi, -72(%rbp)
#APP
# 1128 "WangLouis_Ardupilot_kai_main.c" 1
	##_ANNOTATION_INITIALREGION_-TIG-iO-35H6-1-handle-userdata-enum--78
# 0 "" 2
# 1132 "WangLouis_Ardupilot_kai_main.c" 1
	##_ANNOTATION_ATOMICREGION_-TIG-iO-35H6-1-handle-userdata-enum--77
# 0 "" 2
#NO_APP
	movl	$24, %edi
	call	malloc@PLT
	movq	%rax, -48(%rbp)
	movq	-48(%rbp), %rax
	movq	-48(%rbp), %rdx
	movq	%rdx, (%rax)
	movq	-48(%rbp), %rax
	movq	-48(%rbp), %rdx
	movq	%rdx, 8(%rax)
	movq	-48(%rbp), %rax
	movq	%rax, _TIG_iO_35H6_1_handle_userdata_enum_1_opaque_list_1(%rip)
	call	rand@PLT
	movl	%eax, -56(%rbp)
	movl	$24, %edi
	call	malloc@PLT
	movq	%rax, -40(%rbp)
	movq	-40(%rbp), %rax
	movl	$0, 16(%rax)
	movq	_TIG_iO_35H6_1_handle_userdata_enum_1_opaque_list_1(%rip), %rax
	movq	(%rax), %rdx
	movq	-40(%rbp), %rax
	movq	%rdx, (%rax)
	movq	_TIG_iO_35H6_1_handle_userdata_enum_1_opaque_list_1(%rip), %rdx
	movq	-40(%rbp), %rax
	movq	%rdx, 8(%rax)
	movq	_TIG_iO_35H6_1_handle_userdata_enum_1_opaque_list_1(%rip), %rax
	movq	(%rax), %rax
	movq	-40(%rbp), %rdx
	movq	%rdx, 8(%rax)
	movq	_TIG_iO_35H6_1_handle_userdata_enum_1_opaque_list_1(%rip), %rax
	movq	-40(%rbp), %rdx
	movq	%rdx, (%rax)
	call	rand@PLT
	movl	%eax, -52(%rbp)
	movl	$24, %edi
	call	malloc@PLT
	movq	%rax, -32(%rbp)
	movq	-32(%rbp), %rax
	movl	-52(%rbp), %edx
	movl	%edx, 16(%rax)
	movq	_TIG_iO_35H6_1_handle_userdata_enum_1_opaque_list_1(%rip), %rax
	movq	(%rax), %rdx
	movq	-32(%rbp), %rax
	movq	%rdx, (%rax)
	movq	_TIG_iO_35H6_1_handle_userdata_enum_1_opaque_list_1(%rip), %rdx
	movq	-32(%rbp), %rax
	movq	%rdx, 8(%rax)
	movq	_TIG_iO_35H6_1_handle_userdata_enum_1_opaque_list_1(%rip), %rax
	movq	(%rax), %rax
	movq	-32(%rbp), %rdx
	movq	%rdx, 8(%rax)
	movq	_TIG_iO_35H6_1_handle_userdata_enum_1_opaque_list_1(%rip), %rax
	movq	-32(%rbp), %rdx
	movq	%rdx, (%rax)
	movq	_TIG_iO_35H6_1_handle_userdata_enum_1_opaque_list_1(%rip), %rax
	movq	(%rax), %rax
	movq	%rax, _TIG_iO_35H6_1_handle_userdata_enum_1_opaque_ptr_1(%rip)
	movq	_TIG_iO_35H6_1_handle_userdata_enum_1_opaque_ptr_1(%rip), %rax
	movq	%rax, _TIG_iO_35H6_1_handle_userdata_enum_1_opaque_ptr_2(%rip)
	nop
	nop
	leaq	.LC11(%rip), %rax
	movq	%rax, %rsi
	movl	$8, %edi
	movl	$0, %eax
	call	trace
.L45:
	call	next_token
	movq	%rax, -24(%rbp)
	cmpq	$0, -24(%rbp)
	je	.L49
	movq	-24(%rbp), %rax
	movq	%rax, %rdx
	leaq	.LC12(%rip), %rax
	movq	%rax, %rsi
	movl	$8, %edi
	movl	$0, %eax
	call	trace
	movl	$16, %edi
	call	allocate
	movq	%rax, -16(%rbp)
	movq	-16(%rbp), %rax
	movq	%rax, -8(%rbp)
	movq	-72(%rbp), %rax
	movq	48(%rax), %rdx
	movq	-8(%rbp), %rax
	movq	%rdx, (%rax)
	movq	-8(%rbp), %rax
	leaq	8(%rax), %rdx
	movq	-24(%rbp), %rax
	movq	%rax, %rsi
	movq	%rdx, %rdi
	call	string_copy
	movq	-72(%rbp), %rax
	movq	-8(%rbp), %rdx
	movq	%rdx, 48(%rax)
	jmp	.L45
.L49:
	nop
	movq	_TIG_iO_35H6_1_trace_1_opaque_ptr_1(%rip), %rdx
	movq	_TIG_iO_35H6_1_trace_1_opaque_ptr_2(%rip), %rax
	cmpq	%rax, %rdx
	nop
	leave
	.cfi_def_cfa 7, 8
	ret
	.cfi_endproc
.LFE5:
	.size	handle_userdata_enum, .-handle_userdata_enum
	.section	.rodata
.LC13:
	.string	" \n"
.LC14:
	.string	"bool"
.LC15:
	.string	"float"
.LC16:
	.string	"int8_t"
.LC17:
	.string	"int16_t"
.LC18:
	.string	"int32_t"
.LC19:
	.string	"uint8_t"
.LC20:
	.string	"uint16_t"
.LC21:
	.string	"void"
.LC22:
	.string	"string"
.LC23:
	.string	"enum"
.LC24:
	.string	"userdata"
.LC25:
	.string	"ap_object"
.LC26:
	.string	"i:o:"
	.align 8
.LC27:
	.string	"Already loaded a description file"
	.align 8
.LC28:
	.string	"Loading a description file: %s"
.LC29:
	.string	"r"
	.align 8
.LC30:
	.string	"Unable to load the description file: %s"
	.align 8
.LC31:
	.string	"An output path was already selected."
.LC32:
	.string	"Loading an output path of %s"
	.align 8
.LC33:
	.string	"An output path must be provided for the generated bindings"
.LC34:
	.string	"Expected a keyword, got: %s"
.LC35:
	.string	"Extra token provided: %s"
.LC36:
	.string	"%s.cpp"
.LC37:
	.string	"w"
	.align 8
.LC38:
	.string	"Unable to open the output source file: %s"
	.align 8
.LC39:
	.string	"// auto generated bindings, don't manually edit.  See README.md for details.\n"
.LC40:
	.string	"Sanity checking parsed input"
	.align 8
.LC41:
	.string	"#include \"lua_generated_bindings.h\"\n"
	.align 8
.LC42:
	.string	"#include <AP_Scripting/lua_boxed_numerics.h>\n"
.LC43:
	.string	"Starting emission"
.LC44:
	.string	"\n\n"
.LC45:
	.string	"%s.h"
	.align 8
.LC46:
	.string	"Unable to open the output header file: %s"
.LC47:
	.string	"#pragma once\n"
	.align 8
.LC48:
	.string	"#include <AP_Vehicle/AP_Vehicle_Type.h> // needed for APM_BUILD_TYPE #if\n"
	.align 8
.LC49:
	.string	"#include <AP_Scripting/lua/src/lua.hpp>\n"
.LC50:
	.string	"#include <new>\n\n"
	.align 8
.LC51:
	.string	"void load_generated_bindings(lua_State *L);\n"
	.align 8
.LC52:
	.string	"void load_generated_sandbox(lua_State *L);\n"
	.text
	.globl	main
	.type	main, @function
main:
.LFB7:
	.cfi_startproc
	endbr64
	pushq	%rbp
	.cfi_def_cfa_offset 16
	.cfi_offset 6, -16
	movq	%rsp, %rbp
	.cfi_def_cfa_register 6
	subq	$160, %rsp
	movl	%edi, -132(%rbp)
	movq	%rsi, -144(%rbp)
	movq	%rdx, -152(%rbp)
	movq	$0, output_path(%rip)
	nop
.L51:
	movq	$0, parsed_singletons(%rip)
	nop
.L52:
	movq	$0, parsed_ap_objects(%rip)
	nop
.L53:
	movq	$0, parsed_userdata(%rip)
	nop
.L54:
	leaq	.LC13(%rip), %rax
	movq	%rax, token_delimiters(%rip)
	nop
.L55:
	movl	$0, TRACE_LEVEL(%rip)
	nop
.L56:
	leaq	.LC14(%rip), %rax
	movq	%rax, type_labels(%rip)
	leaq	.LC15(%rip), %rax
	movq	%rax, 8+type_labels(%rip)
	leaq	.LC16(%rip), %rax
	movq	%rax, 16+type_labels(%rip)
	leaq	.LC17(%rip), %rax
	movq	%rax, 24+type_labels(%rip)
	leaq	.LC18(%rip), %rax
	movq	%rax, 32+type_labels(%rip)
	leaq	.LC19(%rip), %rax
	movq	%rax, 40+type_labels(%rip)
	leaq	.LC20(%rip), %rax
	movq	%rax, 48+type_labels(%rip)
	leaq	.LC21(%rip), %rax
	movq	%rax, 56+type_labels(%rip)
	leaq	.LC22(%rip), %rax
	movq	%rax, 64+type_labels(%rip)
	leaq	.LC23(%rip), %rax
	movq	%rax, 72+type_labels(%rip)
	leaq	.LC24(%rip), %rax
	movq	%rax, 80+type_labels(%rip)
	leaq	.LC25(%rip), %rax
	movq	%rax, 88+type_labels(%rip)
	nop
.L57:
	movq	$0, headers(%rip)
	nop
.L58:
	movb	$0, state(%rip)
	movb	$0, 1+state(%rip)
	movb	$0, 2+state(%rip)
	movb	$0, 3+state(%rip)
	movb	$0, 4+state(%rip)
	movb	$0, 5+state(%rip)
	movb	$0, 6+state(%rip)
	movb	$0, 7+state(%rip)
	movb	$0, 8+state(%rip)
	movb	$0, 9+state(%rip)
	movb	$0, 10+state(%rip)
	movb	$0, 11+state(%rip)
	movb	$0, 12+state(%rip)
	movb	$0, 13+state(%rip)
	movb	$0, 14+state(%rip)
	movb	$0, 15+state(%rip)
	movb	$0, 16+state(%rip)
	movb	$0, 17+state(%rip)
	movb	$0, 18+state(%rip)
	movb	$0, 19+state(%rip)
	movb	$0, 20+state(%rip)
	movb	$0, 21+state(%rip)
	movb	$0, 22+state(%rip)
	movb	$0, 23+state(%rip)
	movb	$0, 24+state(%rip)
	movb	$0, 25+state(%rip)
	movb	$0, 26+state(%rip)
	movb	$0, 27+state(%rip)
	movb	$0, 28+state(%rip)
	movb	$0, 29+state(%rip)
	movb	$0, 30+state(%rip)
	movb	$0, 31+state(%rip)
	movb	$0, 32+state(%rip)
	movb	$0, 33+state(%rip)
	movb	$0, 34+state(%rip)
	movb	$0, 35+state(%rip)
	movb	$0, 36+state(%rip)
	movb	$0, 37+state(%rip)
	movb	$0, 38+state(%rip)
	movb	$0, 39+state(%rip)
	movb	$0, 40+state(%rip)
	movb	$0, 41+state(%rip)
	movb	$0, 42+state(%rip)
	movb	$0, 43+state(%rip)
	movb	$0, 44+state(%rip)
	movb	$0, 45+state(%rip)
	movb	$0, 46+state(%rip)
	movb	$0, 47+state(%rip)
	movb	$0, 48+state(%rip)
	movb	$0, 49+state(%rip)
	movb	$0, 50+state(%rip)
	movb	$0, 51+state(%rip)
	movb	$0, 52+state(%rip)
	movb	$0, 53+state(%rip)
	movb	$0, 54+state(%rip)
	movb	$0, 55+state(%rip)
	movb	$0, 56+state(%rip)
	movb	$0, 57+state(%rip)
	movb	$0, 58+state(%rip)
	movb	$0, 59+state(%rip)
	movb	$0, 60+state(%rip)
	movb	$0, 61+state(%rip)
	movb	$0, 62+state(%rip)
	movb	$0, 63+state(%rip)
	movb	$0, 64+state(%rip)
	movb	$0, 65+state(%rip)
	movb	$0, 66+state(%rip)
	movb	$0, 67+state(%rip)
	movb	$0, 68+state(%rip)
	movb	$0, 69+state(%rip)
	movb	$0, 70+state(%rip)
	movb	$0, 71+state(%rip)
	movb	$0, 72+state(%rip)
	movb	$0, 73+state(%rip)
	movb	$0, 74+state(%rip)
	movb	$0, 75+state(%rip)
	movb	$0, 76+state(%rip)
	movb	$0, 77+state(%rip)
	movb	$0, 78+state(%rip)
	movb	$0, 79+state(%rip)
	movb	$0, 80+state(%rip)
	movb	$0, 81+state(%rip)
	movb	$0, 82+state(%rip)
	movb	$0, 83+state(%rip)
	movb	$0, 84+state(%rip)
	movb	$0, 85+state(%rip)
	movb	$0, 86+state(%rip)
	movb	$0, 87+state(%rip)
	movb	$0, 88+state(%rip)
	movb	$0, 89+state(%rip)
	movb	$0, 90+state(%rip)
	movb	$0, 91+state(%rip)
	movb	$0, 92+state(%rip)
	movb	$0, 93+state(%rip)
	movb	$0, 94+state(%rip)
	movb	$0, 95+state(%rip)
	movb	$0, 96+state(%rip)
	movb	$0, 97+state(%rip)
	movb	$0, 98+state(%rip)
	movb	$0, 99+state(%rip)
	movb	$0, 100+state(%rip)
	movb	$0, 101+state(%rip)
	movb	$0, 102+state(%rip)
	movb	$0, 103+state(%rip)
	movb	$0, 104+state(%rip)
	movb	$0, 105+state(%rip)
	movb	$0, 106+state(%rip)
	movb	$0, 107+state(%rip)
	movb	$0, 108+state(%rip)
	movb	$0, 109+state(%rip)
	movb	$0, 110+state(%rip)
	movb	$0, 111+state(%rip)
	movb	$0, 112+state(%rip)
	movb	$0, 113+state(%rip)
	movb	$0, 114+state(%rip)
	movb	$0, 115+state(%rip)
	movb	$0, 116+state(%rip)
	movb	$0, 117+state(%rip)
	movb	$0, 118+state(%rip)
	movb	$0, 119+state(%rip)
	movb	$0, 120+state(%rip)
	movb	$0, 121+state(%rip)
	movb	$0, 122+state(%rip)
	movb	$0, 123+state(%rip)
	movb	$0, 124+state(%rip)
	movb	$0, 125+state(%rip)
	movb	$0, 126+state(%rip)
	movb	$0, 127+state(%rip)
	movb	$0, 128+state(%rip)
	movb	$0, 129+state(%rip)
	movb	$0, 130+state(%rip)
	movb	$0, 131+state(%rip)
	movb	$0, 132+state(%rip)
	movb	$0, 133+state(%rip)
	movb	$0, 134+state(%rip)
	movb	$0, 135+state(%rip)
	movb	$0, 136+state(%rip)
	movb	$0, 137+state(%rip)
	movb	$0, 138+state(%rip)
	movb	$0, 139+state(%rip)
	movb	$0, 140+state(%rip)
	movb	$0, 141+state(%rip)
	movb	$0, 142+state(%rip)
	movb	$0, 143+state(%rip)
	movb	$0, 144+state(%rip)
	movb	$0, 145+state(%rip)
	movb	$0, 146+state(%rip)
	movb	$0, 147+state(%rip)
	movb	$0, 148+state(%rip)
	movb	$0, 149+state(%rip)
	movb	$0, 150+state(%rip)
	movb	$0, 151+state(%rip)
	movb	$0, 152+state(%rip)
	movb	$0, 153+state(%rip)
	movb	$0, 154+state(%rip)
	movb	$0, 155+state(%rip)
	movb	$0, 156+state(%rip)
	movb	$0, 157+state(%rip)
	movb	$0, 158+state(%rip)
	movb	$0, 159+state(%rip)
	movb	$0, 160+state(%rip)
	movb	$0, 161+state(%rip)
	movb	$0, 162+state(%rip)
	movb	$0, 163+state(%rip)
	movb	$0, 164+state(%rip)
	movb	$0, 165+state(%rip)
	movb	$0, 166+state(%rip)
	movb	$0, 167+state(%rip)
	movb	$0, 168+state(%rip)
	movb	$0, 169+state(%rip)
	movb	$0, 170+state(%rip)
	movb	$0, 171+state(%rip)
	movb	$0, 172+state(%rip)
	movb	$0, 173+state(%rip)
	movb	$0, 174+state(%rip)
	movb	$0, 175+state(%rip)
	movb	$0, 176+state(%rip)
	movb	$0, 177+state(%rip)
	movb	$0, 178+state(%rip)
	movb	$0, 179+state(%rip)
	movb	$0, 180+state(%rip)
	movb	$0, 181+state(%rip)
	movb	$0, 182+state(%rip)
	movb	$0, 183+state(%rip)
	movb	$0, 184+state(%rip)
	movb	$0, 185+state(%rip)
	movb	$0, 186+state(%rip)
	movb	$0, 187+state(%rip)
	movb	$0, 188+state(%rip)
	movb	$0, 189+state(%rip)
	movb	$0, 190+state(%rip)
	movb	$0, 191+state(%rip)
	movb	$0, 192+state(%rip)
	movb	$0, 193+state(%rip)
	movb	$0, 194+state(%rip)
	movb	$0, 195+state(%rip)
	movb	$0, 196+state(%rip)
	movb	$0, 197+state(%rip)
	movb	$0, 198+state(%rip)
	movb	$0, 199+state(%rip)
	movb	$0, 200+state(%rip)
	movb	$0, 201+state(%rip)
	movb	$0, 202+state(%rip)
	movb	$0, 203+state(%rip)
	movb	$0, 204+state(%rip)
	movb	$0, 205+state(%rip)
	movb	$0, 206+state(%rip)
	movb	$0, 207+state(%rip)
	movb	$0, 208+state(%rip)
	movb	$0, 209+state(%rip)
	movb	$0, 210+state(%rip)
	movb	$0, 211+state(%rip)
	movb	$0, 212+state(%rip)
	movb	$0, 213+state(%rip)
	movb	$0, 214+state(%rip)
	movb	$0, 215+state(%rip)
	movb	$0, 216+state(%rip)
	movb	$0, 217+state(%rip)
	movb	$0, 218+state(%rip)
	movb	$0, 219+state(%rip)
	movb	$0, 220+state(%rip)
	movb	$0, 221+state(%rip)
	movb	$0, 222+state(%rip)
	movb	$0, 223+state(%rip)
	movb	$0, 224+state(%rip)
	movb	$0, 225+state(%rip)
	movb	$0, 226+state(%rip)
	movb	$0, 227+state(%rip)
	movb	$0, 228+state(%rip)
	movb	$0, 229+state(%rip)
	movb	$0, 230+state(%rip)
	movb	$0, 231+state(%rip)
	movb	$0, 232+state(%rip)
	movb	$0, 233+state(%rip)
	movb	$0, 234+state(%rip)
	movb	$0, 235+state(%rip)
	movb	$0, 236+state(%rip)
	movb	$0, 237+state(%rip)
	movb	$0, 238+state(%rip)
	movb	$0, 239+state(%rip)
	movb	$0, 240+state(%rip)
	movb	$0, 241+state(%rip)
	movb	$0, 242+state(%rip)
	movb	$0, 243+state(%rip)
	movb	$0, 244+state(%rip)
	movb	$0, 245+state(%rip)
	movb	$0, 246+state(%rip)
	movb	$0, 247+state(%rip)
	movb	$0, 248+state(%rip)
	movb	$0, 249+state(%rip)
	movb	$0, 250+state(%rip)
	movb	$0, 251+state(%rip)
	movb	$0, 252+state(%rip)
	movb	$0, 253+state(%rip)
	movb	$0, 254+state(%rip)
	movb	$0, 255+state(%rip)
	movb	$0, 256+state(%rip)
	movb	$0, 257+state(%rip)
	movb	$0, 258+state(%rip)
	movb	$0, 259+state(%rip)
	movb	$0, 260+state(%rip)
	movb	$0, 261+state(%rip)
	movb	$0, 262+state(%rip)
	movb	$0, 263+state(%rip)
	movb	$0, 264+state(%rip)
	movb	$0, 265+state(%rip)
	movb	$0, 266+state(%rip)
	movb	$0, 267+state(%rip)
	movb	$0, 268+state(%rip)
	movb	$0, 269+state(%rip)
	movb	$0, 270+state(%rip)
	movb	$0, 271+state(%rip)
	movb	$0, 272+state(%rip)
	movb	$0, 273+state(%rip)
	movb	$0, 274+state(%rip)
	movb	$0, 275+state(%rip)
	movb	$0, 276+state(%rip)
	movb	$0, 277+state(%rip)
	movb	$0, 278+state(%rip)
	movb	$0, 279+state(%rip)
	movb	$0, 280+state(%rip)
	movb	$0, 281+state(%rip)
	movb	$0, 282+state(%rip)
	movb	$0, 283+state(%rip)
	movb	$0, 284+state(%rip)
	movb	$0, 285+state(%rip)
	movb	$0, 286+state(%rip)
	movb	$0, 287+state(%rip)
	movb	$0, 288+state(%rip)
	movb	$0, 289+state(%rip)
	movb	$0, 290+state(%rip)
	movb	$0, 291+state(%rip)
	movb	$0, 292+state(%rip)
	movb	$0, 293+state(%rip)
	movb	$0, 294+state(%rip)
	movb	$0, 295+state(%rip)
	movb	$0, 296+state(%rip)
	movb	$0, 297+state(%rip)
	movb	$0, 298+state(%rip)
	movb	$0, 299+state(%rip)
	movb	$0, 300+state(%rip)
	movb	$0, 301+state(%rip)
	movb	$0, 302+state(%rip)
	movb	$0, 303+state(%rip)
	movb	$0, 304+state(%rip)
	movb	$0, 305+state(%rip)
	movb	$0, 306+state(%rip)
	movb	$0, 307+state(%rip)
	movb	$0, 308+state(%rip)
	movb	$0, 309+state(%rip)
	movb	$0, 310+state(%rip)
	movb	$0, 311+state(%rip)
	movb	$0, 312+state(%rip)
	movb	$0, 313+state(%rip)
	movb	$0, 314+state(%rip)
	movb	$0, 315+state(%rip)
	movb	$0, 316+state(%rip)
	movb	$0, 317+state(%rip)
	movb	$0, 318+state(%rip)
	movb	$0, 319+state(%rip)
	movb	$0, 320+state(%rip)
	movb	$0, 321+state(%rip)
	movb	$0, 322+state(%rip)
	movb	$0, 323+state(%rip)
	movb	$0, 324+state(%rip)
	movb	$0, 325+state(%rip)
	movb	$0, 326+state(%rip)
	movb	$0, 327+state(%rip)
	movb	$0, 328+state(%rip)
	movb	$0, 329+state(%rip)
	movb	$0, 330+state(%rip)
	movb	$0, 331+state(%rip)
	movb	$0, 332+state(%rip)
	movb	$0, 333+state(%rip)
	movb	$0, 334+state(%rip)
	movb	$0, 335+state(%rip)
	movb	$0, 336+state(%rip)
	movb	$0, 337+state(%rip)
	movb	$0, 338+state(%rip)
	movb	$0, 339+state(%rip)
	movb	$0, 340+state(%rip)
	movb	$0, 341+state(%rip)
	movb	$0, 342+state(%rip)
	movb	$0, 343+state(%rip)
	movb	$0, 344+state(%rip)
	movb	$0, 345+state(%rip)
	movb	$0, 346+state(%rip)
	movb	$0, 347+state(%rip)
	movb	$0, 348+state(%rip)
	movb	$0, 349+state(%rip)
	movb	$0, 350+state(%rip)
	movb	$0, 351+state(%rip)
	movb	$0, 352+state(%rip)
	movb	$0, 353+state(%rip)
	movb	$0, 354+state(%rip)
	movb	$0, 355+state(%rip)
	movb	$0, 356+state(%rip)
	movb	$0, 357+state(%rip)
	movb	$0, 358+state(%rip)
	movb	$0, 359+state(%rip)
	movb	$0, 360+state(%rip)
	movb	$0, 361+state(%rip)
	movb	$0, 362+state(%rip)
	movb	$0, 363+state(%rip)
	movb	$0, 364+state(%rip)
	movb	$0, 365+state(%rip)
	movb	$0, 366+state(%rip)
	movb	$0, 367+state(%rip)
	movb	$0, 368+state(%rip)
	movb	$0, 369+state(%rip)
	movb	$0, 370+state(%rip)
	movb	$0, 371+state(%rip)
	movb	$0, 372+state(%rip)
	movb	$0, 373+state(%rip)
	movb	$0, 374+state(%rip)
	movb	$0, 375+state(%rip)
	movb	$0, 376+state(%rip)
	movb	$0, 377+state(%rip)
	movb	$0, 378+state(%rip)
	movb	$0, 379+state(%rip)
	movb	$0, 380+state(%rip)
	movb	$0, 381+state(%rip)
	movb	$0, 382+state(%rip)
	movb	$0, 383+state(%rip)
	movb	$0, 384+state(%rip)
	movb	$0, 385+state(%rip)
	movb	$0, 386+state(%rip)
	movb	$0, 387+state(%rip)
	movb	$0, 388+state(%rip)
	movb	$0, 389+state(%rip)
	movb	$0, 390+state(%rip)
	movb	$0, 391+state(%rip)
	movb	$0, 392+state(%rip)
	movb	$0, 393+state(%rip)
	movb	$0, 394+state(%rip)
	movb	$0, 395+state(%rip)
	movb	$0, 396+state(%rip)
	movb	$0, 397+state(%rip)
	movb	$0, 398+state(%rip)
	movb	$0, 399+state(%rip)
	movb	$0, 400+state(%rip)
	movb	$0, 401+state(%rip)
	movb	$0, 402+state(%rip)
	movb	$0, 403+state(%rip)
	movb	$0, 404+state(%rip)
	movb	$0, 405+state(%rip)
	movb	$0, 406+state(%rip)
	movb	$0, 407+state(%rip)
	movb	$0, 408+state(%rip)
	movb	$0, 409+state(%rip)
	movb	$0, 410+state(%rip)
	movb	$0, 411+state(%rip)
	movb	$0, 412+state(%rip)
	movb	$0, 413+state(%rip)
	movb	$0, 414+state(%rip)
	movb	$0, 415+state(%rip)
	movb	$0, 416+state(%rip)
	movb	$0, 417+state(%rip)
	movb	$0, 418+state(%rip)
	movb	$0, 419+state(%rip)
	movb	$0, 420+state(%rip)
	movb	$0, 421+state(%rip)
	movb	$0, 422+state(%rip)
	movb	$0, 423+state(%rip)
	movb	$0, 424+state(%rip)
	movb	$0, 425+state(%rip)
	movb	$0, 426+state(%rip)
	movb	$0, 427+state(%rip)
	movb	$0, 428+state(%rip)
	movb	$0, 429+state(%rip)
	movb	$0, 430+state(%rip)
	movb	$0, 431+state(%rip)
	movb	$0, 432+state(%rip)
	movb	$0, 433+state(%rip)
	movb	$0, 434+state(%rip)
	movb	$0, 435+state(%rip)
	movb	$0, 436+state(%rip)
	movb	$0, 437+state(%rip)
	movb	$0, 438+state(%rip)
	movb	$0, 439+state(%rip)
	movb	$0, 440+state(%rip)
	movb	$0, 441+state(%rip)
	movb	$0, 442+state(%rip)
	movb	$0, 443+state(%rip)
	movb	$0, 444+state(%rip)
	movb	$0, 445+state(%rip)
	movb	$0, 446+state(%rip)
	movb	$0, 447+state(%rip)
	movb	$0, 448+state(%rip)
	movb	$0, 449+state(%rip)
	movb	$0, 450+state(%rip)
	movb	$0, 451+state(%rip)
	movb	$0, 452+state(%rip)
	movb	$0, 453+state(%rip)
	movb	$0, 454+state(%rip)
	movb	$0, 455+state(%rip)
	movb	$0, 456+state(%rip)
	movb	$0, 457+state(%rip)
	movb	$0, 458+state(%rip)
	movb	$0, 459+state(%rip)
	movb	$0, 460+state(%rip)
	movb	$0, 461+state(%rip)
	movb	$0, 462+state(%rip)
	movb	$0, 463+state(%rip)
	movb	$0, 464+state(%rip)
	movb	$0, 465+state(%rip)
	movb	$0, 466+state(%rip)
	movb	$0, 467+state(%rip)
	movb	$0, 468+state(%rip)
	movb	$0, 469+state(%rip)
	movb	$0, 470+state(%rip)
	movb	$0, 471+state(%rip)
	movb	$0, 472+state(%rip)
	movb	$0, 473+state(%rip)
	movb	$0, 474+state(%rip)
	movb	$0, 475+state(%rip)
	movb	$0, 476+state(%rip)
	movb	$0, 477+state(%rip)
	movb	$0, 478+state(%rip)
	movb	$0, 479+state(%rip)
	movb	$0, 480+state(%rip)
	movb	$0, 481+state(%rip)
	movb	$0, 482+state(%rip)
	movb	$0, 483+state(%rip)
	movb	$0, 484+state(%rip)
	movb	$0, 485+state(%rip)
	movb	$0, 486+state(%rip)
	movb	$0, 487+state(%rip)
	movb	$0, 488+state(%rip)
	movb	$0, 489+state(%rip)
	movb	$0, 490+state(%rip)
	movb	$0, 491+state(%rip)
	movb	$0, 492+state(%rip)
	movb	$0, 493+state(%rip)
	movb	$0, 494+state(%rip)
	movb	$0, 495+state(%rip)
	movb	$0, 496+state(%rip)
	movb	$0, 497+state(%rip)
	movb	$0, 498+state(%rip)
	movb	$0, 499+state(%rip)
	movb	$0, 500+state(%rip)
	movb	$0, 501+state(%rip)
	movb	$0, 502+state(%rip)
	movb	$0, 503+state(%rip)
	movb	$0, 504+state(%rip)
	movb	$0, 505+state(%rip)
	movb	$0, 506+state(%rip)
	movb	$0, 507+state(%rip)
	movb	$0, 508+state(%rip)
	movb	$0, 509+state(%rip)
	movb	$0, 510+state(%rip)
	movb	$0, 511+state(%rip)
	movb	$0, 512+state(%rip)
	movb	$0, 513+state(%rip)
	movb	$0, 514+state(%rip)
	movb	$0, 515+state(%rip)
	movb	$0, 516+state(%rip)
	movb	$0, 517+state(%rip)
	movb	$0, 518+state(%rip)
	movb	$0, 519+state(%rip)
	movb	$0, 520+state(%rip)
	movb	$0, 521+state(%rip)
	movb	$0, 522+state(%rip)
	movb	$0, 523+state(%rip)
	movb	$0, 524+state(%rip)
	movb	$0, 525+state(%rip)
	movb	$0, 526+state(%rip)
	movb	$0, 527+state(%rip)
	movb	$0, 528+state(%rip)
	movb	$0, 529+state(%rip)
	movb	$0, 530+state(%rip)
	movb	$0, 531+state(%rip)
	movb	$0, 532+state(%rip)
	movb	$0, 533+state(%rip)
	movb	$0, 534+state(%rip)
	movb	$0, 535+state(%rip)
	movb	$0, 536+state(%rip)
	movb	$0, 537+state(%rip)
	movb	$0, 538+state(%rip)
	movb	$0, 539+state(%rip)
	movb	$0, 540+state(%rip)
	movb	$0, 541+state(%rip)
	movb	$0, 542+state(%rip)
	movb	$0, 543+state(%rip)
	movb	$0, 544+state(%rip)
	movb	$0, 545+state(%rip)
	movb	$0, 546+state(%rip)
	movb	$0, 547+state(%rip)
	movb	$0, 548+state(%rip)
	movb	$0, 549+state(%rip)
	movb	$0, 550+state(%rip)
	movb	$0, 551+state(%rip)
	movb	$0, 552+state(%rip)
	movb	$0, 553+state(%rip)
	movb	$0, 554+state(%rip)
	movb	$0, 555+state(%rip)
	movb	$0, 556+state(%rip)
	movb	$0, 557+state(%rip)
	movb	$0, 558+state(%rip)
	movb	$0, 559+state(%rip)
	movb	$0, 560+state(%rip)
	movb	$0, 561+state(%rip)
	movb	$0, 562+state(%rip)
	movb	$0, 563+state(%rip)
	movb	$0, 564+state(%rip)
	movb	$0, 565+state(%rip)
	movb	$0, 566+state(%rip)
	movb	$0, 567+state(%rip)
	movb	$0, 568+state(%rip)
	movb	$0, 569+state(%rip)
	movb	$0, 570+state(%rip)
	movb	$0, 571+state(%rip)
	movb	$0, 572+state(%rip)
	movb	$0, 573+state(%rip)
	movb	$0, 574+state(%rip)
	movb	$0, 575+state(%rip)
	movb	$0, 576+state(%rip)
	movb	$0, 577+state(%rip)
	movb	$0, 578+state(%rip)
	movb	$0, 579+state(%rip)
	movb	$0, 580+state(%rip)
	movb	$0, 581+state(%rip)
	movb	$0, 582+state(%rip)
	movb	$0, 583+state(%rip)
	movb	$0, 584+state(%rip)
	movb	$0, 585+state(%rip)
	movb	$0, 586+state(%rip)
	movb	$0, 587+state(%rip)
	movb	$0, 588+state(%rip)
	movb	$0, 589+state(%rip)
	movb	$0, 590+state(%rip)
	movb	$0, 591+state(%rip)
	movb	$0, 592+state(%rip)
	movb	$0, 593+state(%rip)
	movb	$0, 594+state(%rip)
	movb	$0, 595+state(%rip)
	movb	$0, 596+state(%rip)
	movb	$0, 597+state(%rip)
	movb	$0, 598+state(%rip)
	movb	$0, 599+state(%rip)
	movb	$0, 600+state(%rip)
	movb	$0, 601+state(%rip)
	movb	$0, 602+state(%rip)
	movb	$0, 603+state(%rip)
	movb	$0, 604+state(%rip)
	movb	$0, 605+state(%rip)
	movb	$0, 606+state(%rip)
	movb	$0, 607+state(%rip)
	movb	$0, 608+state(%rip)
	movb	$0, 609+state(%rip)
	movb	$0, 610+state(%rip)
	movb	$0, 611+state(%rip)
	movb	$0, 612+state(%rip)
	movb	$0, 613+state(%rip)
	movb	$0, 614+state(%rip)
	movb	$0, 615+state(%rip)
	movb	$0, 616+state(%rip)
	movb	$0, 617+state(%rip)
	movb	$0, 618+state(%rip)
	movb	$0, 619+state(%rip)
	movb	$0, 620+state(%rip)
	movb	$0, 621+state(%rip)
	movb	$0, 622+state(%rip)
	movb	$0, 623+state(%rip)
	movb	$0, 624+state(%rip)
	movb	$0, 625+state(%rip)
	movb	$0, 626+state(%rip)
	movb	$0, 627+state(%rip)
	movb	$0, 628+state(%rip)
	movb	$0, 629+state(%rip)
	movb	$0, 630+state(%rip)
	movb	$0, 631+state(%rip)
	movb	$0, 632+state(%rip)
	movb	$0, 633+state(%rip)
	movb	$0, 634+state(%rip)
	movb	$0, 635+state(%rip)
	movb	$0, 636+state(%rip)
	movb	$0, 637+state(%rip)
	movb	$0, 638+state(%rip)
	movb	$0, 639+state(%rip)
	movb	$0, 640+state(%rip)
	movb	$0, 641+state(%rip)
	movb	$0, 642+state(%rip)
	movb	$0, 643+state(%rip)
	movb	$0, 644+state(%rip)
	movb	$0, 645+state(%rip)
	movb	$0, 646+state(%rip)
	movb	$0, 647+state(%rip)
	movb	$0, 648+state(%rip)
	movb	$0, 649+state(%rip)
	movb	$0, 650+state(%rip)
	movb	$0, 651+state(%rip)
	movb	$0, 652+state(%rip)
	movb	$0, 653+state(%rip)
	movb	$0, 654+state(%rip)
	movb	$0, 655+state(%rip)
	movb	$0, 656+state(%rip)
	movb	$0, 657+state(%rip)
	movb	$0, 658+state(%rip)
	movb	$0, 659+state(%rip)
	movb	$0, 660+state(%rip)
	movb	$0, 661+state(%rip)
	movb	$0, 662+state(%rip)
	movb	$0, 663+state(%rip)
	movb	$0, 664+state(%rip)
	movb	$0, 665+state(%rip)
	movb	$0, 666+state(%rip)
	movb	$0, 667+state(%rip)
	movb	$0, 668+state(%rip)
	movb	$0, 669+state(%rip)
	movb	$0, 670+state(%rip)
	movb	$0, 671+state(%rip)
	movb	$0, 672+state(%rip)
	movb	$0, 673+state(%rip)
	movb	$0, 674+state(%rip)
	movb	$0, 675+state(%rip)
	movb	$0, 676+state(%rip)
	movb	$0, 677+state(%rip)
	movb	$0, 678+state(%rip)
	movb	$0, 679+state(%rip)
	movb	$0, 680+state(%rip)
	movb	$0, 681+state(%rip)
	movb	$0, 682+state(%rip)
	movb	$0, 683+state(%rip)
	movb	$0, 684+state(%rip)
	movb	$0, 685+state(%rip)
	movb	$0, 686+state(%rip)
	movb	$0, 687+state(%rip)
	movb	$0, 688+state(%rip)
	movb	$0, 689+state(%rip)
	movb	$0, 690+state(%rip)
	movb	$0, 691+state(%rip)
	movb	$0, 692+state(%rip)
	movb	$0, 693+state(%rip)
	movb	$0, 694+state(%rip)
	movb	$0, 695+state(%rip)
	movb	$0, 696+state(%rip)
	movb	$0, 697+state(%rip)
	movb	$0, 698+state(%rip)
	movb	$0, 699+state(%rip)
	movb	$0, 700+state(%rip)
	movb	$0, 701+state(%rip)
	movb	$0, 702+state(%rip)
	movb	$0, 703+state(%rip)
	movb	$0, 704+state(%rip)
	movb	$0, 705+state(%rip)
	movb	$0, 706+state(%rip)
	movb	$0, 707+state(%rip)
	movb	$0, 708+state(%rip)
	movb	$0, 709+state(%rip)
	movb	$0, 710+state(%rip)
	movb	$0, 711+state(%rip)
	movb	$0, 712+state(%rip)
	movb	$0, 713+state(%rip)
	movb	$0, 714+state(%rip)
	movb	$0, 715+state(%rip)
	movb	$0, 716+state(%rip)
	movb	$0, 717+state(%rip)
	movb	$0, 718+state(%rip)
	movb	$0, 719+state(%rip)
	movb	$0, 720+state(%rip)
	movb	$0, 721+state(%rip)
	movb	$0, 722+state(%rip)
	movb	$0, 723+state(%rip)
	movb	$0, 724+state(%rip)
	movb	$0, 725+state(%rip)
	movb	$0, 726+state(%rip)
	movb	$0, 727+state(%rip)
	movb	$0, 728+state(%rip)
	movb	$0, 729+state(%rip)
	movb	$0, 730+state(%rip)
	movb	$0, 731+state(%rip)
	movb	$0, 732+state(%rip)
	movb	$0, 733+state(%rip)
	movb	$0, 734+state(%rip)
	movb	$0, 735+state(%rip)
	movb	$0, 736+state(%rip)
	movb	$0, 737+state(%rip)
	movb	$0, 738+state(%rip)
	movb	$0, 739+state(%rip)
	movb	$0, 740+state(%rip)
	movb	$0, 741+state(%rip)
	movb	$0, 742+state(%rip)
	movb	$0, 743+state(%rip)
	movb	$0, 744+state(%rip)
	movb	$0, 745+state(%rip)
	movb	$0, 746+state(%rip)
	movb	$0, 747+state(%rip)
	movb	$0, 748+state(%rip)
	movb	$0, 749+state(%rip)
	movb	$0, 750+state(%rip)
	movb	$0, 751+state(%rip)
	movb	$0, 752+state(%rip)
	movb	$0, 753+state(%rip)
	movb	$0, 754+state(%rip)
	movb	$0, 755+state(%rip)
	movb	$0, 756+state(%rip)
	movb	$0, 757+state(%rip)
	movb	$0, 758+state(%rip)
	movb	$0, 759+state(%rip)
	movb	$0, 760+state(%rip)
	movb	$0, 761+state(%rip)
	movb	$0, 762+state(%rip)
	movb	$0, 763+state(%rip)
	movb	$0, 764+state(%rip)
	movb	$0, 765+state(%rip)
	movb	$0, 766+state(%rip)
	movb	$0, 767+state(%rip)
	movb	$0, 768+state(%rip)
	movb	$0, 769+state(%rip)
	movb	$0, 770+state(%rip)
	movb	$0, 771+state(%rip)
	movb	$0, 772+state(%rip)
	movb	$0, 773+state(%rip)
	movb	$0, 774+state(%rip)
	movb	$0, 775+state(%rip)
	movb	$0, 776+state(%rip)
	movb	$0, 777+state(%rip)
	movb	$0, 778+state(%rip)
	movb	$0, 779+state(%rip)
	movb	$0, 780+state(%rip)
	movb	$0, 781+state(%rip)
	movb	$0, 782+state(%rip)
	movb	$0, 783+state(%rip)
	movb	$0, 784+state(%rip)
	movb	$0, 785+state(%rip)
	movb	$0, 786+state(%rip)
	movb	$0, 787+state(%rip)
	movb	$0, 788+state(%rip)
	movb	$0, 789+state(%rip)
	movb	$0, 790+state(%rip)
	movb	$0, 791+state(%rip)
	movb	$0, 792+state(%rip)
	movb	$0, 793+state(%rip)
	movb	$0, 794+state(%rip)
	movb	$0, 795+state(%rip)
	movb	$0, 796+state(%rip)
	movb	$0, 797+state(%rip)
	movb	$0, 798+state(%rip)
	movb	$0, 799+state(%rip)
	movb	$0, 800+state(%rip)
	movb	$0, 801+state(%rip)
	movb	$0, 802+state(%rip)
	movb	$0, 803+state(%rip)
	movb	$0, 804+state(%rip)
	movb	$0, 805+state(%rip)
	movb	$0, 806+state(%rip)
	movb	$0, 807+state(%rip)
	movb	$0, 808+state(%rip)
	movb	$0, 809+state(%rip)
	movb	$0, 810+state(%rip)
	movb	$0, 811+state(%rip)
	movb	$0, 812+state(%rip)
	movb	$0, 813+state(%rip)
	movb	$0, 814+state(%rip)
	movb	$0, 815+state(%rip)
	movb	$0, 816+state(%rip)
	movb	$0, 817+state(%rip)
	movb	$0, 818+state(%rip)
	movb	$0, 819+state(%rip)
	movb	$0, 820+state(%rip)
	movb	$0, 821+state(%rip)
	movb	$0, 822+state(%rip)
	movb	$0, 823+state(%rip)
	movb	$0, 824+state(%rip)
	movb	$0, 825+state(%rip)
	movb	$0, 826+state(%rip)
	movb	$0, 827+state(%rip)
	movb	$0, 828+state(%rip)
	movb	$0, 829+state(%rip)
	movb	$0, 830+state(%rip)
	movb	$0, 831+state(%rip)
	movb	$0, 832+state(%rip)
	movb	$0, 833+state(%rip)
	movb	$0, 834+state(%rip)
	movb	$0, 835+state(%rip)
	movb	$0, 836+state(%rip)
	movb	$0, 837+state(%rip)
	movb	$0, 838+state(%rip)
	movb	$0, 839+state(%rip)
	movb	$0, 840+state(%rip)
	movb	$0, 841+state(%rip)
	movb	$0, 842+state(%rip)
	movb	$0, 843+state(%rip)
	movb	$0, 844+state(%rip)
	movb	$0, 845+state(%rip)
	movb	$0, 846+state(%rip)
	movb	$0, 847+state(%rip)
	movb	$0, 848+state(%rip)
	movb	$0, 849+state(%rip)
	movb	$0, 850+state(%rip)
	movb	$0, 851+state(%rip)
	movb	$0, 852+state(%rip)
	movb	$0, 853+state(%rip)
	movb	$0, 854+state(%rip)
	movb	$0, 855+state(%rip)
	movb	$0, 856+state(%rip)
	movb	$0, 857+state(%rip)
	movb	$0, 858+state(%rip)
	movb	$0, 859+state(%rip)
	movb	$0, 860+state(%rip)
	movb	$0, 861+state(%rip)
	movb	$0, 862+state(%rip)
	movb	$0, 863+state(%rip)
	movb	$0, 864+state(%rip)
	movb	$0, 865+state(%rip)
	movb	$0, 866+state(%rip)
	movb	$0, 867+state(%rip)
	movb	$0, 868+state(%rip)
	movb	$0, 869+state(%rip)
	movb	$0, 870+state(%rip)
	movb	$0, 871+state(%rip)
	movb	$0, 872+state(%rip)
	movb	$0, 873+state(%rip)
	movb	$0, 874+state(%rip)
	movb	$0, 875+state(%rip)
	movb	$0, 876+state(%rip)
	movb	$0, 877+state(%rip)
	movb	$0, 878+state(%rip)
	movb	$0, 879+state(%rip)
	movb	$0, 880+state(%rip)
	movb	$0, 881+state(%rip)
	movb	$0, 882+state(%rip)
	movb	$0, 883+state(%rip)
	movb	$0, 884+state(%rip)
	movb	$0, 885+state(%rip)
	movb	$0, 886+state(%rip)
	movb	$0, 887+state(%rip)
	movb	$0, 888+state(%rip)
	movb	$0, 889+state(%rip)
	movb	$0, 890+state(%rip)
	movb	$0, 891+state(%rip)
	movb	$0, 892+state(%rip)
	movb	$0, 893+state(%rip)
	movb	$0, 894+state(%rip)
	movb	$0, 895+state(%rip)
	movb	$0, 896+state(%rip)
	movb	$0, 897+state(%rip)
	movb	$0, 898+state(%rip)
	movb	$0, 899+state(%rip)
	movb	$0, 900+state(%rip)
	movb	$0, 901+state(%rip)
	movb	$0, 902+state(%rip)
	movb	$0, 903+state(%rip)
	movb	$0, 904+state(%rip)
	movb	$0, 905+state(%rip)
	movb	$0, 906+state(%rip)
	movb	$0, 907+state(%rip)
	movb	$0, 908+state(%rip)
	movb	$0, 909+state(%rip)
	movb	$0, 910+state(%rip)
	movb	$0, 911+state(%rip)
	movb	$0, 912+state(%rip)
	movb	$0, 913+state(%rip)
	movb	$0, 914+state(%rip)
	movb	$0, 915+state(%rip)
	movb	$0, 916+state(%rip)
	movb	$0, 917+state(%rip)
	movb	$0, 918+state(%rip)
	movb	$0, 919+state(%rip)
	movb	$0, 920+state(%rip)
	movb	$0, 921+state(%rip)
	movb	$0, 922+state(%rip)
	movb	$0, 923+state(%rip)
	movb	$0, 924+state(%rip)
	movb	$0, 925+state(%rip)
	movb	$0, 926+state(%rip)
	movb	$0, 927+state(%rip)
	movb	$0, 928+state(%rip)
	movb	$0, 929+state(%rip)
	movb	$0, 930+state(%rip)
	movb	$0, 931+state(%rip)
	movb	$0, 932+state(%rip)
	movb	$0, 933+state(%rip)
	movb	$0, 934+state(%rip)
	movb	$0, 935+state(%rip)
	movb	$0, 936+state(%rip)
	movb	$0, 937+state(%rip)
	movb	$0, 938+state(%rip)
	movb	$0, 939+state(%rip)
	movb	$0, 940+state(%rip)
	movb	$0, 941+state(%rip)
	movb	$0, 942+state(%rip)
	movb	$0, 943+state(%rip)
	movb	$0, 944+state(%rip)
	movb	$0, 945+state(%rip)
	movb	$0, 946+state(%rip)
	movb	$0, 947+state(%rip)
	movb	$0, 948+state(%rip)
	movb	$0, 949+state(%rip)
	movb	$0, 950+state(%rip)
	movb	$0, 951+state(%rip)
	movb	$0, 952+state(%rip)
	movb	$0, 953+state(%rip)
	movb	$0, 954+state(%rip)
	movb	$0, 955+state(%rip)
	movb	$0, 956+state(%rip)
	movb	$0, 957+state(%rip)
	movb	$0, 958+state(%rip)
	movb	$0, 959+state(%rip)
	movb	$0, 960+state(%rip)
	movb	$0, 961+state(%rip)
	movb	$0, 962+state(%rip)
	movb	$0, 963+state(%rip)
	movb	$0, 964+state(%rip)
	movb	$0, 965+state(%rip)
	movb	$0, 966+state(%rip)
	movb	$0, 967+state(%rip)
	movb	$0, 968+state(%rip)
	movb	$0, 969+state(%rip)
	movb	$0, 970+state(%rip)
	movb	$0, 971+state(%rip)
	movb	$0, 972+state(%rip)
	movb	$0, 973+state(%rip)
	movb	$0, 974+state(%rip)
	movb	$0, 975+state(%rip)
	movb	$0, 976+state(%rip)
	movb	$0, 977+state(%rip)
	movb	$0, 978+state(%rip)
	movb	$0, 979+state(%rip)
	movb	$0, 980+state(%rip)
	movb	$0, 981+state(%rip)
	movb	$0, 982+state(%rip)
	movb	$0, 983+state(%rip)
	movb	$0, 984+state(%rip)
	movb	$0, 985+state(%rip)
	movb	$0, 986+state(%rip)
	movb	$0, 987+state(%rip)
	movb	$0, 988+state(%rip)
	movb	$0, 989+state(%rip)
	movb	$0, 990+state(%rip)
	movb	$0, 991+state(%rip)
	movb	$0, 992+state(%rip)
	movb	$0, 993+state(%rip)
	movb	$0, 994+state(%rip)
	movb	$0, 995+state(%rip)
	movb	$0, 996+state(%rip)
	movb	$0, 997+state(%rip)
	movb	$0, 998+state(%rip)
	movb	$0, 999+state(%rip)
	movb	$0, 1000+state(%rip)
	movb	$0, 1001+state(%rip)
	movb	$0, 1002+state(%rip)
	movb	$0, 1003+state(%rip)
	movb	$0, 1004+state(%rip)
	movb	$0, 1005+state(%rip)
	movb	$0, 1006+state(%rip)
	movb	$0, 1007+state(%rip)
	movb	$0, 1008+state(%rip)
	movb	$0, 1009+state(%rip)
	movb	$0, 1010+state(%rip)
	movb	$0, 1011+state(%rip)
	movb	$0, 1012+state(%rip)
	movb	$0, 1013+state(%rip)
	movb	$0, 1014+state(%rip)
	movb	$0, 1015+state(%rip)
	movb	$0, 1016+state(%rip)
	movb	$0, 1017+state(%rip)
	movb	$0, 1018+state(%rip)
	movb	$0, 1019+state(%rip)
	movb	$0, 1020+state(%rip)
	movb	$0, 1021+state(%rip)
	movb	$0, 1022+state(%rip)
	movb	$0, 1023+state(%rip)
	movb	$0, 1024+state(%rip)
	movb	$0, 1025+state(%rip)
	movb	$0, 1026+state(%rip)
	movb	$0, 1027+state(%rip)
	movb	$0, 1028+state(%rip)
	movb	$0, 1029+state(%rip)
	movb	$0, 1030+state(%rip)
	movb	$0, 1031+state(%rip)
	movb	$0, 1032+state(%rip)
	movb	$0, 1033+state(%rip)
	movb	$0, 1034+state(%rip)
	movb	$0, 1035+state(%rip)
	movb	$0, 1036+state(%rip)
	movb	$0, 1037+state(%rip)
	movb	$0, 1038+state(%rip)
	movb	$0, 1039+state(%rip)
	movb	$0, 1040+state(%rip)
	movb	$0, 1041+state(%rip)
	movb	$0, 1042+state(%rip)
	movb	$0, 1043+state(%rip)
	movb	$0, 1044+state(%rip)
	movb	$0, 1045+state(%rip)
	movb	$0, 1046+state(%rip)
	movb	$0, 1047+state(%rip)
	movb	$0, 1048+state(%rip)
	movb	$0, 1049+state(%rip)
	movb	$0, 1050+state(%rip)
	movb	$0, 1051+state(%rip)
	movb	$0, 1052+state(%rip)
	movb	$0, 1053+state(%rip)
	movb	$0, 1054+state(%rip)
	movb	$0, 1055+state(%rip)
	movb	$0, 1056+state(%rip)
	movb	$0, 1057+state(%rip)
	movb	$0, 1058+state(%rip)
	movb	$0, 1059+state(%rip)
	movb	$0, 1060+state(%rip)
	movb	$0, 1061+state(%rip)
	movb	$0, 1062+state(%rip)
	movb	$0, 1063+state(%rip)
	movb	$0, 1064+state(%rip)
	movb	$0, 1065+state(%rip)
	movb	$0, 1066+state(%rip)
	movb	$0, 1067+state(%rip)
	movb	$0, 1068+state(%rip)
	movb	$0, 1069+state(%rip)
	movb	$0, 1070+state(%rip)
	movb	$0, 1071+state(%rip)
	movb	$0, 1072+state(%rip)
	movb	$0, 1073+state(%rip)
	movb	$0, 1074+state(%rip)
	movb	$0, 1075+state(%rip)
	movb	$0, 1076+state(%rip)
	movb	$0, 1077+state(%rip)
	movb	$0, 1078+state(%rip)
	movb	$0, 1079+state(%rip)
	movb	$0, 1080+state(%rip)
	movb	$0, 1081+state(%rip)
	movb	$0, 1082+state(%rip)
	movb	$0, 1083+state(%rip)
	movb	$0, 1084+state(%rip)
	movb	$0, 1085+state(%rip)
	movb	$0, 1086+state(%rip)
	movb	$0, 1087+state(%rip)
	movb	$0, 1088+state(%rip)
	movb	$0, 1089+state(%rip)
	movb	$0, 1090+state(%rip)
	movb	$0, 1091+state(%rip)
	movb	$0, 1092+state(%rip)
	movb	$0, 1093+state(%rip)
	movb	$0, 1094+state(%rip)
	movb	$0, 1095+state(%rip)
	movb	$0, 1096+state(%rip)
	movb	$0, 1097+state(%rip)
	movb	$0, 1098+state(%rip)
	movb	$0, 1099+state(%rip)
	movb	$0, 1100+state(%rip)
	movb	$0, 1101+state(%rip)
	movb	$0, 1102+state(%rip)
	movb	$0, 1103+state(%rip)
	movb	$0, 1104+state(%rip)
	movb	$0, 1105+state(%rip)
	movb	$0, 1106+state(%rip)
	movb	$0, 1107+state(%rip)
	movb	$0, 1108+state(%rip)
	movb	$0, 1109+state(%rip)
	movb	$0, 1110+state(%rip)
	movb	$0, 1111+state(%rip)
	movb	$0, 1112+state(%rip)
	movb	$0, 1113+state(%rip)
	movb	$0, 1114+state(%rip)
	movb	$0, 1115+state(%rip)
	movb	$0, 1116+state(%rip)
	movb	$0, 1117+state(%rip)
	movb	$0, 1118+state(%rip)
	movb	$0, 1119+state(%rip)
	movb	$0, 1120+state(%rip)
	movb	$0, 1121+state(%rip)
	movb	$0, 1122+state(%rip)
	movb	$0, 1123+state(%rip)
	movb	$0, 1124+state(%rip)
	movb	$0, 1125+state(%rip)
	movb	$0, 1126+state(%rip)
	movb	$0, 1127+state(%rip)
	movb	$0, 1128+state(%rip)
	movb	$0, 1129+state(%rip)
	movb	$0, 1130+state(%rip)
	movb	$0, 1131+state(%rip)
	movb	$0, 1132+state(%rip)
	movb	$0, 1133+state(%rip)
	movb	$0, 1134+state(%rip)
	movb	$0, 1135+state(%rip)
	movb	$0, 1136+state(%rip)
	movb	$0, 1137+state(%rip)
	movb	$0, 1138+state(%rip)
	movb	$0, 1139+state(%rip)
	movb	$0, 1140+state(%rip)
	movb	$0, 1141+state(%rip)
	movb	$0, 1142+state(%rip)
	movb	$0, 1143+state(%rip)
	movb	$0, 1144+state(%rip)
	movb	$0, 1145+state(%rip)
	movb	$0, 1146+state(%rip)
	movb	$0, 1147+state(%rip)
	movb	$0, 1148+state(%rip)
	movb	$0, 1149+state(%rip)
	movb	$0, 1150+state(%rip)
	movb	$0, 1151+state(%rip)
	movb	$0, 1152+state(%rip)
	movb	$0, 1153+state(%rip)
	movb	$0, 1154+state(%rip)
	movb	$0, 1155+state(%rip)
	movb	$0, 1156+state(%rip)
	movb	$0, 1157+state(%rip)
	movb	$0, 1158+state(%rip)
	movb	$0, 1159+state(%rip)
	movb	$0, 1160+state(%rip)
	movb	$0, 1161+state(%rip)
	movb	$0, 1162+state(%rip)
	movb	$0, 1163+state(%rip)
	movb	$0, 1164+state(%rip)
	movb	$0, 1165+state(%rip)
	movb	$0, 1166+state(%rip)
	movb	$0, 1167+state(%rip)
	movb	$0, 1168+state(%rip)
	movb	$0, 1169+state(%rip)
	movb	$0, 1170+state(%rip)
	movb	$0, 1171+state(%rip)
	movb	$0, 1172+state(%rip)
	movb	$0, 1173+state(%rip)
	movb	$0, 1174+state(%rip)
	movb	$0, 1175+state(%rip)
	movb	$0, 1176+state(%rip)
	movb	$0, 1177+state(%rip)
	movb	$0, 1178+state(%rip)
	movb	$0, 1179+state(%rip)
	movb	$0, 1180+state(%rip)
	movb	$0, 1181+state(%rip)
	movb	$0, 1182+state(%rip)
	movb	$0, 1183+state(%rip)
	movb	$0, 1184+state(%rip)
	movb	$0, 1185+state(%rip)
	movb	$0, 1186+state(%rip)
	movb	$0, 1187+state(%rip)
	movb	$0, 1188+state(%rip)
	movb	$0, 1189+state(%rip)
	movb	$0, 1190+state(%rip)
	movb	$0, 1191+state(%rip)
	movb	$0, 1192+state(%rip)
	movb	$0, 1193+state(%rip)
	movb	$0, 1194+state(%rip)
	movb	$0, 1195+state(%rip)
	movb	$0, 1196+state(%rip)
	movb	$0, 1197+state(%rip)
	movb	$0, 1198+state(%rip)
	movb	$0, 1199+state(%rip)
	movb	$0, 1200+state(%rip)
	movb	$0, 1201+state(%rip)
	movb	$0, 1202+state(%rip)
	movb	$0, 1203+state(%rip)
	movb	$0, 1204+state(%rip)
	movb	$0, 1205+state(%rip)
	movb	$0, 1206+state(%rip)
	movb	$0, 1207+state(%rip)
	movb	$0, 1208+state(%rip)
	movb	$0, 1209+state(%rip)
	movb	$0, 1210+state(%rip)
	movb	$0, 1211+state(%rip)
	movb	$0, 1212+state(%rip)
	movb	$0, 1213+state(%rip)
	movb	$0, 1214+state(%rip)
	movb	$0, 1215+state(%rip)
	movb	$0, 1216+state(%rip)
	movb	$0, 1217+state(%rip)
	movb	$0, 1218+state(%rip)
	movb	$0, 1219+state(%rip)
	movb	$0, 1220+state(%rip)
	movb	$0, 1221+state(%rip)
	movb	$0, 1222+state(%rip)
	movb	$0, 1223+state(%rip)
	movb	$0, 1224+state(%rip)
	movb	$0, 1225+state(%rip)
	movb	$0, 1226+state(%rip)
	movb	$0, 1227+state(%rip)
	movb	$0, 1228+state(%rip)
	movb	$0, 1229+state(%rip)
	movb	$0, 1230+state(%rip)
	movb	$0, 1231+state(%rip)
	movb	$0, 1232+state(%rip)
	movb	$0, 1233+state(%rip)
	movb	$0, 1234+state(%rip)
	movb	$0, 1235+state(%rip)
	movb	$0, 1236+state(%rip)
	movb	$0, 1237+state(%rip)
	movb	$0, 1238+state(%rip)
	movb	$0, 1239+state(%rip)
	movb	$0, 1240+state(%rip)
	movb	$0, 1241+state(%rip)
	movb	$0, 1242+state(%rip)
	movb	$0, 1243+state(%rip)
	movb	$0, 1244+state(%rip)
	movb	$0, 1245+state(%rip)
	movb	$0, 1246+state(%rip)
	movb	$0, 1247+state(%rip)
	movb	$0, 1248+state(%rip)
	movb	$0, 1249+state(%rip)
	movb	$0, 1250+state(%rip)
	movb	$0, 1251+state(%rip)
	movb	$0, 1252+state(%rip)
	movb	$0, 1253+state(%rip)
	movb	$0, 1254+state(%rip)
	movb	$0, 1255+state(%rip)
	movb	$0, 1256+state(%rip)
	movb	$0, 1257+state(%rip)
	movb	$0, 1258+state(%rip)
	movb	$0, 1259+state(%rip)
	movb	$0, 1260+state(%rip)
	movb	$0, 1261+state(%rip)
	movb	$0, 1262+state(%rip)
	movb	$0, 1263+state(%rip)
	movb	$0, 1264+state(%rip)
	movb	$0, 1265+state(%rip)
	movb	$0, 1266+state(%rip)
	movb	$0, 1267+state(%rip)
	movb	$0, 1268+state(%rip)
	movb	$0, 1269+state(%rip)
	movb	$0, 1270+state(%rip)
	movb	$0, 1271+state(%rip)
	movb	$0, 1272+state(%rip)
	movb	$0, 1273+state(%rip)
	movb	$0, 1274+state(%rip)
	movb	$0, 1275+state(%rip)
	movb	$0, 1276+state(%rip)
	movb	$0, 1277+state(%rip)
	movb	$0, 1278+state(%rip)
	movb	$0, 1279+state(%rip)
	movb	$0, 1280+state(%rip)
	movb	$0, 1281+state(%rip)
	movb	$0, 1282+state(%rip)
	movb	$0, 1283+state(%rip)
	movb	$0, 1284+state(%rip)
	movb	$0, 1285+state(%rip)
	movb	$0, 1286+state(%rip)
	movb	$0, 1287+state(%rip)
	movb	$0, 1288+state(%rip)
	movb	$0, 1289+state(%rip)
	movb	$0, 1290+state(%rip)
	movb	$0, 1291+state(%rip)
	movb	$0, 1292+state(%rip)
	movb	$0, 1293+state(%rip)
	movb	$0, 1294+state(%rip)
	movb	$0, 1295+state(%rip)
	movb	$0, 1296+state(%rip)
	movb	$0, 1297+state(%rip)
	movb	$0, 1298+state(%rip)
	movb	$0, 1299+state(%rip)
	movb	$0, 1300+state(%rip)
	movb	$0, 1301+state(%rip)
	movb	$0, 1302+state(%rip)
	movb	$0, 1303+state(%rip)
	movb	$0, 1304+state(%rip)
	movb	$0, 1305+state(%rip)
	movb	$0, 1306+state(%rip)
	movb	$0, 1307+state(%rip)
	movb	$0, 1308+state(%rip)
	movb	$0, 1309+state(%rip)
	movb	$0, 1310+state(%rip)
	movb	$0, 1311+state(%rip)
	movb	$0, 1312+state(%rip)
	movb	$0, 1313+state(%rip)
	movb	$0, 1314+state(%rip)
	movb	$0, 1315+state(%rip)
	movb	$0, 1316+state(%rip)
	movb	$0, 1317+state(%rip)
	movb	$0, 1318+state(%rip)
	movb	$0, 1319+state(%rip)
	movb	$0, 1320+state(%rip)
	movb	$0, 1321+state(%rip)
	movb	$0, 1322+state(%rip)
	movb	$0, 1323+state(%rip)
	movb	$0, 1324+state(%rip)
	movb	$0, 1325+state(%rip)
	movb	$0, 1326+state(%rip)
	movb	$0, 1327+state(%rip)
	movb	$0, 1328+state(%rip)
	movb	$0, 1329+state(%rip)
	movb	$0, 1330+state(%rip)
	movb	$0, 1331+state(%rip)
	movb	$0, 1332+state(%rip)
	movb	$0, 1333+state(%rip)
	movb	$0, 1334+state(%rip)
	movb	$0, 1335+state(%rip)
	movb	$0, 1336+state(%rip)
	movb	$0, 1337+state(%rip)
	movb	$0, 1338+state(%rip)
	movb	$0, 1339+state(%rip)
	movb	$0, 1340+state(%rip)
	movb	$0, 1341+state(%rip)
	movb	$0, 1342+state(%rip)
	movb	$0, 1343+state(%rip)
	movb	$0, 1344+state(%rip)
	movb	$0, 1345+state(%rip)
	movb	$0, 1346+state(%rip)
	movb	$0, 1347+state(%rip)
	movb	$0, 1348+state(%rip)
	movb	$0, 1349+state(%rip)
	movb	$0, 1350+state(%rip)
	movb	$0, 1351+state(%rip)
	movb	$0, 1352+state(%rip)
	movb	$0, 1353+state(%rip)
	movb	$0, 1354+state(%rip)
	movb	$0, 1355+state(%rip)
	movb	$0, 1356+state(%rip)
	movb	$0, 1357+state(%rip)
	movb	$0, 1358+state(%rip)
	movb	$0, 1359+state(%rip)
	movb	$0, 1360+state(%rip)
	movb	$0, 1361+state(%rip)
	movb	$0, 1362+state(%rip)
	movb	$0, 1363+state(%rip)
	movb	$0, 1364+state(%rip)
	movb	$0, 1365+state(%rip)
	movb	$0, 1366+state(%rip)
	movb	$0, 1367+state(%rip)
	movb	$0, 1368+state(%rip)
	movb	$0, 1369+state(%rip)
	movb	$0, 1370+state(%rip)
	movb	$0, 1371+state(%rip)
	movb	$0, 1372+state(%rip)
	movb	$0, 1373+state(%rip)
	movb	$0, 1374+state(%rip)
	movb	$0, 1375+state(%rip)
	movb	$0, 1376+state(%rip)
	movb	$0, 1377+state(%rip)
	movb	$0, 1378+state(%rip)
	movb	$0, 1379+state(%rip)
	movb	$0, 1380+state(%rip)
	movb	$0, 1381+state(%rip)
	movb	$0, 1382+state(%rip)
	movb	$0, 1383+state(%rip)
	movb	$0, 1384+state(%rip)
	movb	$0, 1385+state(%rip)
	movb	$0, 1386+state(%rip)
	movb	$0, 1387+state(%rip)
	movb	$0, 1388+state(%rip)
	movb	$0, 1389+state(%rip)
	movb	$0, 1390+state(%rip)
	movb	$0, 1391+state(%rip)
	movb	$0, 1392+state(%rip)
	movb	$0, 1393+state(%rip)
	movb	$0, 1394+state(%rip)
	movb	$0, 1395+state(%rip)
	movb	$0, 1396+state(%rip)
	movb	$0, 1397+state(%rip)
	movb	$0, 1398+state(%rip)
	movb	$0, 1399+state(%rip)
	movb	$0, 1400+state(%rip)
	movb	$0, 1401+state(%rip)
	movb	$0, 1402+state(%rip)
	movb	$0, 1403+state(%rip)
	movb	$0, 1404+state(%rip)
	movb	$0, 1405+state(%rip)
	movb	$0, 1406+state(%rip)
	movb	$0, 1407+state(%rip)
	movb	$0, 1408+state(%rip)
	movb	$0, 1409+state(%rip)
	movb	$0, 1410+state(%rip)
	movb	$0, 1411+state(%rip)
	movb	$0, 1412+state(%rip)
	movb	$0, 1413+state(%rip)
	movb	$0, 1414+state(%rip)
	movb	$0, 1415+state(%rip)
	movb	$0, 1416+state(%rip)
	movb	$0, 1417+state(%rip)
	movb	$0, 1418+state(%rip)
	movb	$0, 1419+state(%rip)
	movb	$0, 1420+state(%rip)
	movb	$0, 1421+state(%rip)
	movb	$0, 1422+state(%rip)
	movb	$0, 1423+state(%rip)
	movb	$0, 1424+state(%rip)
	movb	$0, 1425+state(%rip)
	movb	$0, 1426+state(%rip)
	movb	$0, 1427+state(%rip)
	movb	$0, 1428+state(%rip)
	movb	$0, 1429+state(%rip)
	movb	$0, 1430+state(%rip)
	movb	$0, 1431+state(%rip)
	movb	$0, 1432+state(%rip)
	movb	$0, 1433+state(%rip)
	movb	$0, 1434+state(%rip)
	movb	$0, 1435+state(%rip)
	movb	$0, 1436+state(%rip)
	movb	$0, 1437+state(%rip)
	movb	$0, 1438+state(%rip)
	movb	$0, 1439+state(%rip)
	movb	$0, 1440+state(%rip)
	movb	$0, 1441+state(%rip)
	movb	$0, 1442+state(%rip)
	movb	$0, 1443+state(%rip)
	movb	$0, 1444+state(%rip)
	movb	$0, 1445+state(%rip)
	movb	$0, 1446+state(%rip)
	movb	$0, 1447+state(%rip)
	movb	$0, 1448+state(%rip)
	movb	$0, 1449+state(%rip)
	movb	$0, 1450+state(%rip)
	movb	$0, 1451+state(%rip)
	movb	$0, 1452+state(%rip)
	movb	$0, 1453+state(%rip)
	movb	$0, 1454+state(%rip)
	movb	$0, 1455+state(%rip)
	movb	$0, 1456+state(%rip)
	movb	$0, 1457+state(%rip)
	movb	$0, 1458+state(%rip)
	movb	$0, 1459+state(%rip)
	movb	$0, 1460+state(%rip)
	movb	$0, 1461+state(%rip)
	movb	$0, 1462+state(%rip)
	movb	$0, 1463+state(%rip)
	movb	$0, 1464+state(%rip)
	movb	$0, 1465+state(%rip)
	movb	$0, 1466+state(%rip)
	movb	$0, 1467+state(%rip)
	movb	$0, 1468+state(%rip)
	movb	$0, 1469+state(%rip)
	movb	$0, 1470+state(%rip)
	movb	$0, 1471+state(%rip)
	movb	$0, 1472+state(%rip)
	movb	$0, 1473+state(%rip)
	movb	$0, 1474+state(%rip)
	movb	$0, 1475+state(%rip)
	movb	$0, 1476+state(%rip)
	movb	$0, 1477+state(%rip)
	movb	$0, 1478+state(%rip)
	movb	$0, 1479+state(%rip)
	movb	$0, 1480+state(%rip)
	movb	$0, 1481+state(%rip)
	movb	$0, 1482+state(%rip)
	movb	$0, 1483+state(%rip)
	movb	$0, 1484+state(%rip)
	movb	$0, 1485+state(%rip)
	movb	$0, 1486+state(%rip)
	movb	$0, 1487+state(%rip)
	movb	$0, 1488+state(%rip)
	movb	$0, 1489+state(%rip)
	movb	$0, 1490+state(%rip)
	movb	$0, 1491+state(%rip)
	movb	$0, 1492+state(%rip)
	movb	$0, 1493+state(%rip)
	movb	$0, 1494+state(%rip)
	movb	$0, 1495+state(%rip)
	movb	$0, 1496+state(%rip)
	movb	$0, 1497+state(%rip)
	movb	$0, 1498+state(%rip)
	movb	$0, 1499+state(%rip)
	movb	$0, 1500+state(%rip)
	movb	$0, 1501+state(%rip)
	movb	$0, 1502+state(%rip)
	movb	$0, 1503+state(%rip)
	movb	$0, 1504+state(%rip)
	movb	$0, 1505+state(%rip)
	movb	$0, 1506+state(%rip)
	movb	$0, 1507+state(%rip)
	movb	$0, 1508+state(%rip)
	movb	$0, 1509+state(%rip)
	movb	$0, 1510+state(%rip)
	movb	$0, 1511+state(%rip)
	movb	$0, 1512+state(%rip)
	movb	$0, 1513+state(%rip)
	movb	$0, 1514+state(%rip)
	movb	$0, 1515+state(%rip)
	movb	$0, 1516+state(%rip)
	movb	$0, 1517+state(%rip)
	movb	$0, 1518+state(%rip)
	movb	$0, 1519+state(%rip)
	movb	$0, 1520+state(%rip)
	movb	$0, 1521+state(%rip)
	movb	$0, 1522+state(%rip)
	movb	$0, 1523+state(%rip)
	movb	$0, 1524+state(%rip)
	movb	$0, 1525+state(%rip)
	movb	$0, 1526+state(%rip)
	movb	$0, 1527+state(%rip)
	movb	$0, 1528+state(%rip)
	movb	$0, 1529+state(%rip)
	movb	$0, 1530+state(%rip)
	movb	$0, 1531+state(%rip)
	movb	$0, 1532+state(%rip)
	movb	$0, 1533+state(%rip)
	movb	$0, 1534+state(%rip)
	movb	$0, 1535+state(%rip)
	movb	$0, 1536+state(%rip)
	movb	$0, 1537+state(%rip)
	movb	$0, 1538+state(%rip)
	movb	$0, 1539+state(%rip)
	movb	$0, 1540+state(%rip)
	movb	$0, 1541+state(%rip)
	movb	$0, 1542+state(%rip)
	movb	$0, 1543+state(%rip)
	movb	$0, 1544+state(%rip)
	movb	$0, 1545+state(%rip)
	movb	$0, 1546+state(%rip)
	movb	$0, 1547+state(%rip)
	movb	$0, 1548+state(%rip)
	movb	$0, 1549+state(%rip)
	movb	$0, 1550+state(%rip)
	movb	$0, 1551+state(%rip)
	movb	$0, 1552+state(%rip)
	movb	$0, 1553+state(%rip)
	movb	$0, 1554+state(%rip)
	movb	$0, 1555+state(%rip)
	movb	$0, 1556+state(%rip)
	movb	$0, 1557+state(%rip)
	movb	$0, 1558+state(%rip)
	movb	$0, 1559+state(%rip)
	movb	$0, 1560+state(%rip)
	movb	$0, 1561+state(%rip)
	movb	$0, 1562+state(%rip)
	movb	$0, 1563+state(%rip)
	movb	$0, 1564+state(%rip)
	movb	$0, 1565+state(%rip)
	movb	$0, 1566+state(%rip)
	movb	$0, 1567+state(%rip)
	movb	$0, 1568+state(%rip)
	movb	$0, 1569+state(%rip)
	movb	$0, 1570+state(%rip)
	movb	$0, 1571+state(%rip)
	movb	$0, 1572+state(%rip)
	movb	$0, 1573+state(%rip)
	movb	$0, 1574+state(%rip)
	movb	$0, 1575+state(%rip)
	movb	$0, 1576+state(%rip)
	movb	$0, 1577+state(%rip)
	movb	$0, 1578+state(%rip)
	movb	$0, 1579+state(%rip)
	movb	$0, 1580+state(%rip)
	movb	$0, 1581+state(%rip)
	movb	$0, 1582+state(%rip)
	movb	$0, 1583+state(%rip)
	movb	$0, 1584+state(%rip)
	movb	$0, 1585+state(%rip)
	movb	$0, 1586+state(%rip)
	movb	$0, 1587+state(%rip)
	movb	$0, 1588+state(%rip)
	movb	$0, 1589+state(%rip)
	movb	$0, 1590+state(%rip)
	movb	$0, 1591+state(%rip)
	movb	$0, 1592+state(%rip)
	movb	$0, 1593+state(%rip)
	movb	$0, 1594+state(%rip)
	movb	$0, 1595+state(%rip)
	movb	$0, 1596+state(%rip)
	movb	$0, 1597+state(%rip)
	movb	$0, 1598+state(%rip)
	movb	$0, 1599+state(%rip)
	movb	$0, 1600+state(%rip)
	movb	$0, 1601+state(%rip)
	movb	$0, 1602+state(%rip)
	movb	$0, 1603+state(%rip)
	movb	$0, 1604+state(%rip)
	movb	$0, 1605+state(%rip)
	movb	$0, 1606+state(%rip)
	movb	$0, 1607+state(%rip)
	movb	$0, 1608+state(%rip)
	movb	$0, 1609+state(%rip)
	movb	$0, 1610+state(%rip)
	movb	$0, 1611+state(%rip)
	movb	$0, 1612+state(%rip)
	movb	$0, 1613+state(%rip)
	movb	$0, 1614+state(%rip)
	movb	$0, 1615+state(%rip)
	movb	$0, 1616+state(%rip)
	movb	$0, 1617+state(%rip)
	movb	$0, 1618+state(%rip)
	movb	$0, 1619+state(%rip)
	movb	$0, 1620+state(%rip)
	movb	$0, 1621+state(%rip)
	movb	$0, 1622+state(%rip)
	movb	$0, 1623+state(%rip)
	movb	$0, 1624+state(%rip)
	movb	$0, 1625+state(%rip)
	movb	$0, 1626+state(%rip)
	movb	$0, 1627+state(%rip)
	movb	$0, 1628+state(%rip)
	movb	$0, 1629+state(%rip)
	movb	$0, 1630+state(%rip)
	movb	$0, 1631+state(%rip)
	movb	$0, 1632+state(%rip)
	movb	$0, 1633+state(%rip)
	movb	$0, 1634+state(%rip)
	movb	$0, 1635+state(%rip)
	movb	$0, 1636+state(%rip)
	movb	$0, 1637+state(%rip)
	movb	$0, 1638+state(%rip)
	movb	$0, 1639+state(%rip)
	movb	$0, 1640+state(%rip)
	movb	$0, 1641+state(%rip)
	movb	$0, 1642+state(%rip)
	movb	$0, 1643+state(%rip)
	movb	$0, 1644+state(%rip)
	movb	$0, 1645+state(%rip)
	movb	$0, 1646+state(%rip)
	movb	$0, 1647+state(%rip)
	movb	$0, 1648+state(%rip)
	movb	$0, 1649+state(%rip)
	movb	$0, 1650+state(%rip)
	movb	$0, 1651+state(%rip)
	movb	$0, 1652+state(%rip)
	movb	$0, 1653+state(%rip)
	movb	$0, 1654+state(%rip)
	movb	$0, 1655+state(%rip)
	movb	$0, 1656+state(%rip)
	movb	$0, 1657+state(%rip)
	movb	$0, 1658+state(%rip)
	movb	$0, 1659+state(%rip)
	movb	$0, 1660+state(%rip)
	movb	$0, 1661+state(%rip)
	movb	$0, 1662+state(%rip)
	movb	$0, 1663+state(%rip)
	movb	$0, 1664+state(%rip)
	movb	$0, 1665+state(%rip)
	movb	$0, 1666+state(%rip)
	movb	$0, 1667+state(%rip)
	movb	$0, 1668+state(%rip)
	movb	$0, 1669+state(%rip)
	movb	$0, 1670+state(%rip)
	movb	$0, 1671+state(%rip)
	movb	$0, 1672+state(%rip)
	movb	$0, 1673+state(%rip)
	movb	$0, 1674+state(%rip)
	movb	$0, 1675+state(%rip)
	movb	$0, 1676+state(%rip)
	movb	$0, 1677+state(%rip)
	movb	$0, 1678+state(%rip)
	movb	$0, 1679+state(%rip)
	movb	$0, 1680+state(%rip)
	movb	$0, 1681+state(%rip)
	movb	$0, 1682+state(%rip)
	movb	$0, 1683+state(%rip)
	movb	$0, 1684+state(%rip)
	movb	$0, 1685+state(%rip)
	movb	$0, 1686+state(%rip)
	movb	$0, 1687+state(%rip)
	movb	$0, 1688+state(%rip)
	movb	$0, 1689+state(%rip)
	movb	$0, 1690+state(%rip)
	movb	$0, 1691+state(%rip)
	movb	$0, 1692+state(%rip)
	movb	$0, 1693+state(%rip)
	movb	$0, 1694+state(%rip)
	movb	$0, 1695+state(%rip)
	movb	$0, 1696+state(%rip)
	movb	$0, 1697+state(%rip)
	movb	$0, 1698+state(%rip)
	movb	$0, 1699+state(%rip)
	movb	$0, 1700+state(%rip)
	movb	$0, 1701+state(%rip)
	movb	$0, 1702+state(%rip)
	movb	$0, 1703+state(%rip)
	movb	$0, 1704+state(%rip)
	movb	$0, 1705+state(%rip)
	movb	$0, 1706+state(%rip)
	movb	$0, 1707+state(%rip)
	movb	$0, 1708+state(%rip)
	movb	$0, 1709+state(%rip)
	movb	$0, 1710+state(%rip)
	movb	$0, 1711+state(%rip)
	movb	$0, 1712+state(%rip)
	movb	$0, 1713+state(%rip)
	movb	$0, 1714+state(%rip)
	movb	$0, 1715+state(%rip)
	movb	$0, 1716+state(%rip)
	movb	$0, 1717+state(%rip)
	movb	$0, 1718+state(%rip)
	movb	$0, 1719+state(%rip)
	movb	$0, 1720+state(%rip)
	movb	$0, 1721+state(%rip)
	movb	$0, 1722+state(%rip)
	movb	$0, 1723+state(%rip)
	movb	$0, 1724+state(%rip)
	movb	$0, 1725+state(%rip)
	movb	$0, 1726+state(%rip)
	movb	$0, 1727+state(%rip)
	movb	$0, 1728+state(%rip)
	movb	$0, 1729+state(%rip)
	movb	$0, 1730+state(%rip)
	movb	$0, 1731+state(%rip)
	movb	$0, 1732+state(%rip)
	movb	$0, 1733+state(%rip)
	movb	$0, 1734+state(%rip)
	movb	$0, 1735+state(%rip)
	movb	$0, 1736+state(%rip)
	movb	$0, 1737+state(%rip)
	movb	$0, 1738+state(%rip)
	movb	$0, 1739+state(%rip)
	movb	$0, 1740+state(%rip)
	movb	$0, 1741+state(%rip)
	movb	$0, 1742+state(%rip)
	movb	$0, 1743+state(%rip)
	movb	$0, 1744+state(%rip)
	movb	$0, 1745+state(%rip)
	movb	$0, 1746+state(%rip)
	movb	$0, 1747+state(%rip)
	movb	$0, 1748+state(%rip)
	movb	$0, 1749+state(%rip)
	movb	$0, 1750+state(%rip)
	movb	$0, 1751+state(%rip)
	movb	$0, 1752+state(%rip)
	movb	$0, 1753+state(%rip)
	movb	$0, 1754+state(%rip)
	movb	$0, 1755+state(%rip)
	movb	$0, 1756+state(%rip)
	movb	$0, 1757+state(%rip)
	movb	$0, 1758+state(%rip)
	movb	$0, 1759+state(%rip)
	movb	$0, 1760+state(%rip)
	movb	$0, 1761+state(%rip)
	movb	$0, 1762+state(%rip)
	movb	$0, 1763+state(%rip)
	movb	$0, 1764+state(%rip)
	movb	$0, 1765+state(%rip)
	movb	$0, 1766+state(%rip)
	movb	$0, 1767+state(%rip)
	movb	$0, 1768+state(%rip)
	movb	$0, 1769+state(%rip)
	movb	$0, 1770+state(%rip)
	movb	$0, 1771+state(%rip)
	movb	$0, 1772+state(%rip)
	movb	$0, 1773+state(%rip)
	movb	$0, 1774+state(%rip)
	movb	$0, 1775+state(%rip)
	movb	$0, 1776+state(%rip)
	movb	$0, 1777+state(%rip)
	movb	$0, 1778+state(%rip)
	movb	$0, 1779+state(%rip)
	movb	$0, 1780+state(%rip)
	movb	$0, 1781+state(%rip)
	movb	$0, 1782+state(%rip)
	movb	$0, 1783+state(%rip)
	movb	$0, 1784+state(%rip)
	movb	$0, 1785+state(%rip)
	movb	$0, 1786+state(%rip)
	movb	$0, 1787+state(%rip)
	movb	$0, 1788+state(%rip)
	movb	$0, 1789+state(%rip)
	movb	$0, 1790+state(%rip)
	movb	$0, 1791+state(%rip)
	movb	$0, 1792+state(%rip)
	movb	$0, 1793+state(%rip)
	movb	$0, 1794+state(%rip)
	movb	$0, 1795+state(%rip)
	movb	$0, 1796+state(%rip)
	movb	$0, 1797+state(%rip)
	movb	$0, 1798+state(%rip)
	movb	$0, 1799+state(%rip)
	movb	$0, 1800+state(%rip)
	movb	$0, 1801+state(%rip)
	movb	$0, 1802+state(%rip)
	movb	$0, 1803+state(%rip)
	movb	$0, 1804+state(%rip)
	movb	$0, 1805+state(%rip)
	movb	$0, 1806+state(%rip)
	movb	$0, 1807+state(%rip)
	movb	$0, 1808+state(%rip)
	movb	$0, 1809+state(%rip)
	movb	$0, 1810+state(%rip)
	movb	$0, 1811+state(%rip)
	movb	$0, 1812+state(%rip)
	movb	$0, 1813+state(%rip)
	movb	$0, 1814+state(%rip)
	movb	$0, 1815+state(%rip)
	movb	$0, 1816+state(%rip)
	movb	$0, 1817+state(%rip)
	movb	$0, 1818+state(%rip)
	movb	$0, 1819+state(%rip)
	movb	$0, 1820+state(%rip)
	movb	$0, 1821+state(%rip)
	movb	$0, 1822+state(%rip)
	movb	$0, 1823+state(%rip)
	movb	$0, 1824+state(%rip)
	movb	$0, 1825+state(%rip)
	movb	$0, 1826+state(%rip)
	movb	$0, 1827+state(%rip)
	movb	$0, 1828+state(%rip)
	movb	$0, 1829+state(%rip)
	movb	$0, 1830+state(%rip)
	movb	$0, 1831+state(%rip)
	movb	$0, 1832+state(%rip)
	movb	$0, 1833+state(%rip)
	movb	$0, 1834+state(%rip)
	movb	$0, 1835+state(%rip)
	movb	$0, 1836+state(%rip)
	movb	$0, 1837+state(%rip)
	movb	$0, 1838+state(%rip)
	movb	$0, 1839+state(%rip)
	movb	$0, 1840+state(%rip)
	movb	$0, 1841+state(%rip)
	movb	$0, 1842+state(%rip)
	movb	$0, 1843+state(%rip)
	movb	$0, 1844+state(%rip)
	movb	$0, 1845+state(%rip)
	movb	$0, 1846+state(%rip)
	movb	$0, 1847+state(%rip)
	movb	$0, 1848+state(%rip)
	movb	$0, 1849+state(%rip)
	movb	$0, 1850+state(%rip)
	movb	$0, 1851+state(%rip)
	movb	$0, 1852+state(%rip)
	movb	$0, 1853+state(%rip)
	movb	$0, 1854+state(%rip)
	movb	$0, 1855+state(%rip)
	movb	$0, 1856+state(%rip)
	movb	$0, 1857+state(%rip)
	movb	$0, 1858+state(%rip)
	movb	$0, 1859+state(%rip)
	movb	$0, 1860+state(%rip)
	movb	$0, 1861+state(%rip)
	movb	$0, 1862+state(%rip)
	movb	$0, 1863+state(%rip)
	movb	$0, 1864+state(%rip)
	movb	$0, 1865+state(%rip)
	movb	$0, 1866+state(%rip)
	movb	$0, 1867+state(%rip)
	movb	$0, 1868+state(%rip)
	movb	$0, 1869+state(%rip)
	movb	$0, 1870+state(%rip)
	movb	$0, 1871+state(%rip)
	movb	$0, 1872+state(%rip)
	movb	$0, 1873+state(%rip)
	movb	$0, 1874+state(%rip)
	movb	$0, 1875+state(%rip)
	movb	$0, 1876+state(%rip)
	movb	$0, 1877+state(%rip)
	movb	$0, 1878+state(%rip)
	movb	$0, 1879+state(%rip)
	movb	$0, 1880+state(%rip)
	movb	$0, 1881+state(%rip)
	movb	$0, 1882+state(%rip)
	movb	$0, 1883+state(%rip)
	movb	$0, 1884+state(%rip)
	movb	$0, 1885+state(%rip)
	movb	$0, 1886+state(%rip)
	movb	$0, 1887+state(%rip)
	movb	$0, 1888+state(%rip)
	movb	$0, 1889+state(%rip)
	movb	$0, 1890+state(%rip)
	movb	$0, 1891+state(%rip)
	movb	$0, 1892+state(%rip)
	movb	$0, 1893+state(%rip)
	movb	$0, 1894+state(%rip)
	movb	$0, 1895+state(%rip)
	movb	$0, 1896+state(%rip)
	movb	$0, 1897+state(%rip)
	movb	$0, 1898+state(%rip)
	movb	$0, 1899+state(%rip)
	movb	$0, 1900+state(%rip)
	movb	$0, 1901+state(%rip)
	movb	$0, 1902+state(%rip)
	movb	$0, 1903+state(%rip)
	movb	$0, 1904+state(%rip)
	movb	$0, 1905+state(%rip)
	movb	$0, 1906+state(%rip)
	movb	$0, 1907+state(%rip)
	movb	$0, 1908+state(%rip)
	movb	$0, 1909+state(%rip)
	movb	$0, 1910+state(%rip)
	movb	$0, 1911+state(%rip)
	movb	$0, 1912+state(%rip)
	movb	$0, 1913+state(%rip)
	movb	$0, 1914+state(%rip)
	movb	$0, 1915+state(%rip)
	movb	$0, 1916+state(%rip)
	movb	$0, 1917+state(%rip)
	movb	$0, 1918+state(%rip)
	movb	$0, 1919+state(%rip)
	movb	$0, 1920+state(%rip)
	movb	$0, 1921+state(%rip)
	movb	$0, 1922+state(%rip)
	movb	$0, 1923+state(%rip)
	movb	$0, 1924+state(%rip)
	movb	$0, 1925+state(%rip)
	movb	$0, 1926+state(%rip)
	movb	$0, 1927+state(%rip)
	movb	$0, 1928+state(%rip)
	movb	$0, 1929+state(%rip)
	movb	$0, 1930+state(%rip)
	movb	$0, 1931+state(%rip)
	movb	$0, 1932+state(%rip)
	movb	$0, 1933+state(%rip)
	movb	$0, 1934+state(%rip)
	movb	$0, 1935+state(%rip)
	movb	$0, 1936+state(%rip)
	movb	$0, 1937+state(%rip)
	movb	$0, 1938+state(%rip)
	movb	$0, 1939+state(%rip)
	movb	$0, 1940+state(%rip)
	movb	$0, 1941+state(%rip)
	movb	$0, 1942+state(%rip)
	movb	$0, 1943+state(%rip)
	movb	$0, 1944+state(%rip)
	movb	$0, 1945+state(%rip)
	movb	$0, 1946+state(%rip)
	movb	$0, 1947+state(%rip)
	movb	$0, 1948+state(%rip)
	movb	$0, 1949+state(%rip)
	movb	$0, 1950+state(%rip)
	movb	$0, 1951+state(%rip)
	movb	$0, 1952+state(%rip)
	movb	$0, 1953+state(%rip)
	movb	$0, 1954+state(%rip)
	movb	$0, 1955+state(%rip)
	movb	$0, 1956+state(%rip)
	movb	$0, 1957+state(%rip)
	movb	$0, 1958+state(%rip)
	movb	$0, 1959+state(%rip)
	movb	$0, 1960+state(%rip)
	movb	$0, 1961+state(%rip)
	movb	$0, 1962+state(%rip)
	movb	$0, 1963+state(%rip)
	movb	$0, 1964+state(%rip)
	movb	$0, 1965+state(%rip)
	movb	$0, 1966+state(%rip)
	movb	$0, 1967+state(%rip)
	movb	$0, 1968+state(%rip)
	movb	$0, 1969+state(%rip)
	movb	$0, 1970+state(%rip)
	movb	$0, 1971+state(%rip)
	movb	$0, 1972+state(%rip)
	movb	$0, 1973+state(%rip)
	movb	$0, 1974+state(%rip)
	movb	$0, 1975+state(%rip)
	movb	$0, 1976+state(%rip)
	movb	$0, 1977+state(%rip)
	movb	$0, 1978+state(%rip)
	movb	$0, 1979+state(%rip)
	movb	$0, 1980+state(%rip)
	movb	$0, 1981+state(%rip)
	movb	$0, 1982+state(%rip)
	movb	$0, 1983+state(%rip)
	movb	$0, 1984+state(%rip)
	movb	$0, 1985+state(%rip)
	movb	$0, 1986+state(%rip)
	movb	$0, 1987+state(%rip)
	movb	$0, 1988+state(%rip)
	movb	$0, 1989+state(%rip)
	movb	$0, 1990+state(%rip)
	movb	$0, 1991+state(%rip)
	movb	$0, 1992+state(%rip)
	movb	$0, 1993+state(%rip)
	movb	$0, 1994+state(%rip)
	movb	$0, 1995+state(%rip)
	movb	$0, 1996+state(%rip)
	movb	$0, 1997+state(%rip)
	movb	$0, 1998+state(%rip)
	movb	$0, 1999+state(%rip)
	movb	$0, 2000+state(%rip)
	movb	$0, 2001+state(%rip)
	movb	$0, 2002+state(%rip)
	movb	$0, 2003+state(%rip)
	movb	$0, 2004+state(%rip)
	movb	$0, 2005+state(%rip)
	movb	$0, 2006+state(%rip)
	movb	$0, 2007+state(%rip)
	movb	$0, 2008+state(%rip)
	movb	$0, 2009+state(%rip)
	movb	$0, 2010+state(%rip)
	movb	$0, 2011+state(%rip)
	movb	$0, 2012+state(%rip)
	movb	$0, 2013+state(%rip)
	movb	$0, 2014+state(%rip)
	movb	$0, 2015+state(%rip)
	movb	$0, 2016+state(%rip)
	movb	$0, 2017+state(%rip)
	movb	$0, 2018+state(%rip)
	movb	$0, 2019+state(%rip)
	movb	$0, 2020+state(%rip)
	movb	$0, 2021+state(%rip)
	movb	$0, 2022+state(%rip)
	movb	$0, 2023+state(%rip)
	movb	$0, 2024+state(%rip)
	movb	$0, 2025+state(%rip)
	movb	$0, 2026+state(%rip)
	movb	$0, 2027+state(%rip)
	movb	$0, 2028+state(%rip)
	movb	$0, 2029+state(%rip)
	movb	$0, 2030+state(%rip)
	movb	$0, 2031+state(%rip)
	movb	$0, 2032+state(%rip)
	movb	$0, 2033+state(%rip)
	movb	$0, 2034+state(%rip)
	movb	$0, 2035+state(%rip)
	movb	$0, 2036+state(%rip)
	movb	$0, 2037+state(%rip)
	movb	$0, 2038+state(%rip)
	movb	$0, 2039+state(%rip)
	movb	$0, 2040+state(%rip)
	movb	$0, 2041+state(%rip)
	movb	$0, 2042+state(%rip)
	movb	$0, 2043+state(%rip)
	movb	$0, 2044+state(%rip)
	movb	$0, 2045+state(%rip)
	movb	$0, 2046+state(%rip)
	movb	$0, 2047+state(%rip)
	movb	$0, 2048+state(%rip)
	movb	$0, 2049+state(%rip)
	movb	$0, 2050+state(%rip)
	movb	$0, 2051+state(%rip)
	movb	$0, 2052+state(%rip)
	movb	$0, 2053+state(%rip)
	movb	$0, 2054+state(%rip)
	movb	$0, 2055+state(%rip)
	movb	$0, 2056+state(%rip)
	movb	$0, 2057+state(%rip)
	movb	$0, 2058+state(%rip)
	movb	$0, 2059+state(%rip)
	movb	$0, 2060+state(%rip)
	movb	$0, 2061+state(%rip)
	movb	$0, 2062+state(%rip)
	movb	$0, 2063+state(%rip)
	movb	$0, 2064+state(%rip)
	movb	$0, 2065+state(%rip)
	movb	$0, 2066+state(%rip)
	movb	$0, 2067+state(%rip)
	movb	$0, 2068+state(%rip)
	movb	$0, 2069+state(%rip)
	movb	$0, 2070+state(%rip)
	movb	$0, 2071+state(%rip)
	movb	$0, 2072+state(%rip)
	movb	$0, 2073+state(%rip)
	movb	$0, 2074+state(%rip)
	movb	$0, 2075+state(%rip)
	movb	$0, 2076+state(%rip)
	movb	$0, 2077+state(%rip)
	movb	$0, 2078+state(%rip)
	movb	$0, 2079+state(%rip)
	movb	$0, 2080+state(%rip)
	movb	$0, 2081+state(%rip)
	movb	$0, 2082+state(%rip)
	movb	$0, 2083+state(%rip)
	movb	$0, 2084+state(%rip)
	movb	$0, 2085+state(%rip)
	movb	$0, 2086+state(%rip)
	movb	$0, 2087+state(%rip)
	movb	$0, 2088+state(%rip)
	movb	$0, 2089+state(%rip)
	movb	$0, 2090+state(%rip)
	movb	$0, 2091+state(%rip)
	movb	$0, 2092+state(%rip)
	movb	$0, 2093+state(%rip)
	movb	$0, 2094+state(%rip)
	movb	$0, 2095+state(%rip)
	movb	$0, 2096+state(%rip)
	movb	$0, 2097+state(%rip)
	movb	$0, 2098+state(%rip)
	movb	$0, 2099+state(%rip)
	movb	$0, 2100+state(%rip)
	movb	$0, 2101+state(%rip)
	movb	$0, 2102+state(%rip)
	movb	$0, 2103+state(%rip)
	movb	$0, 2104+state(%rip)
	movb	$0, 2105+state(%rip)
	movb	$0, 2106+state(%rip)
	movb	$0, 2107+state(%rip)
	movb	$0, 2108+state(%rip)
	movb	$0, 2109+state(%rip)
	movb	$0, 2110+state(%rip)
	movb	$0, 2111+state(%rip)
	movb	$0, 2112+state(%rip)
	movb	$0, 2113+state(%rip)
	movb	$0, 2114+state(%rip)
	movb	$0, 2115+state(%rip)
	movb	$0, 2116+state(%rip)
	movb	$0, 2117+state(%rip)
	movb	$0, 2118+state(%rip)
	movb	$0, 2119+state(%rip)
	movb	$0, 2120+state(%rip)
	movb	$0, 2121+state(%rip)
	movb	$0, 2122+state(%rip)
	movb	$0, 2123+state(%rip)
	movb	$0, 2124+state(%rip)
	movb	$0, 2125+state(%rip)
	movb	$0, 2126+state(%rip)
	movb	$0, 2127+state(%rip)
	movb	$0, 2128+state(%rip)
	movb	$0, 2129+state(%rip)
	movb	$0, 2130+state(%rip)
	movb	$0, 2131+state(%rip)
	movb	$0, 2132+state(%rip)
	movb	$0, 2133+state(%rip)
	movb	$0, 2134+state(%rip)
	movb	$0, 2135+state(%rip)
	movb	$0, 2136+state(%rip)
	movb	$0, 2137+state(%rip)
	movb	$0, 2138+state(%rip)
	movb	$0, 2139+state(%rip)
	movb	$0, 2140+state(%rip)
	movb	$0, 2141+state(%rip)
	movb	$0, 2142+state(%rip)
	movb	$0, 2143+state(%rip)
	movb	$0, 2144+state(%rip)
	movb	$0, 2145+state(%rip)
	movb	$0, 2146+state(%rip)
	movb	$0, 2147+state(%rip)
	movb	$0, 2148+state(%rip)
	movb	$0, 2149+state(%rip)
	movb	$0, 2150+state(%rip)
	movb	$0, 2151+state(%rip)
	movb	$0, 2152+state(%rip)
	movb	$0, 2153+state(%rip)
	movb	$0, 2154+state(%rip)
	movb	$0, 2155+state(%rip)
	movb	$0, 2156+state(%rip)
	movb	$0, 2157+state(%rip)
	movb	$0, 2158+state(%rip)
	movb	$0, 2159+state(%rip)
	movb	$0, 2160+state(%rip)
	movb	$0, 2161+state(%rip)
	movb	$0, 2162+state(%rip)
	movb	$0, 2163+state(%rip)
	movb	$0, 2164+state(%rip)
	movb	$0, 2165+state(%rip)
	movb	$0, 2166+state(%rip)
	movb	$0, 2167+state(%rip)
	movb	$0, 2168+state(%rip)
	movb	$0, 2169+state(%rip)
	movb	$0, 2170+state(%rip)
	movb	$0, 2171+state(%rip)
	movb	$0, 2172+state(%rip)
	movb	$0, 2173+state(%rip)
	movb	$0, 2174+state(%rip)
	movb	$0, 2175+state(%rip)
	movb	$0, 2176+state(%rip)
	movb	$0, 2177+state(%rip)
	movb	$0, 2178+state(%rip)
	movb	$0, 2179+state(%rip)
	movb	$0, 2180+state(%rip)
	movb	$0, 2181+state(%rip)
	movb	$0, 2182+state(%rip)
	movb	$0, 2183+state(%rip)
	movb	$0, 2184+state(%rip)
	movb	$0, 2185+state(%rip)
	movb	$0, 2186+state(%rip)
	movb	$0, 2187+state(%rip)
	movb	$0, 2188+state(%rip)
	movb	$0, 2189+state(%rip)
	movb	$0, 2190+state(%rip)
	movb	$0, 2191+state(%rip)
	movb	$0, 2192+state(%rip)
	movb	$0, 2193+state(%rip)
	movb	$0, 2194+state(%rip)
	movb	$0, 2195+state(%rip)
	movb	$0, 2196+state(%rip)
	movb	$0, 2197+state(%rip)
	movb	$0, 2198+state(%rip)
	movb	$0, 2199+state(%rip)
	movb	$0, 2200+state(%rip)
	movb	$0, 2201+state(%rip)
	movb	$0, 2202+state(%rip)
	movb	$0, 2203+state(%rip)
	movb	$0, 2204+state(%rip)
	movb	$0, 2205+state(%rip)
	movb	$0, 2206+state(%rip)
	movb	$0, 2207+state(%rip)
	movb	$0, 2208+state(%rip)
	movb	$0, 2209+state(%rip)
	movb	$0, 2210+state(%rip)
	movb	$0, 2211+state(%rip)
	movb	$0, 2212+state(%rip)
	movb	$0, 2213+state(%rip)
	movb	$0, 2214+state(%rip)
	movb	$0, 2215+state(%rip)
	movb	$0, 2216+state(%rip)
	movb	$0, 2217+state(%rip)
	movb	$0, 2218+state(%rip)
	movb	$0, 2219+state(%rip)
	movb	$0, 2220+state(%rip)
	movb	$0, 2221+state(%rip)
	movb	$0, 2222+state(%rip)
	movb	$0, 2223+state(%rip)
	movb	$0, 2224+state(%rip)
	movb	$0, 2225+state(%rip)
	movb	$0, 2226+state(%rip)
	movb	$0, 2227+state(%rip)
	movb	$0, 2228+state(%rip)
	movb	$0, 2229+state(%rip)
	movb	$0, 2230+state(%rip)
	movb	$0, 2231+state(%rip)
	movb	$0, 2232+state(%rip)
	movb	$0, 2233+state(%rip)
	movb	$0, 2234+state(%rip)
	movb	$0, 2235+state(%rip)
	movb	$0, 2236+state(%rip)
	movb	$0, 2237+state(%rip)
	movb	$0, 2238+state(%rip)
	movb	$0, 2239+state(%rip)
	movb	$0, 2240+state(%rip)
	movb	$0, 2241+state(%rip)
	movb	$0, 2242+state(%rip)
	movb	$0, 2243+state(%rip)
	movb	$0, 2244+state(%rip)
	movb	$0, 2245+state(%rip)
	movb	$0, 2246+state(%rip)
	movb	$0, 2247+state(%rip)
	movb	$0, 2248+state(%rip)
	movb	$0, 2249+state(%rip)
	movb	$0, 2250+state(%rip)
	movb	$0, 2251+state(%rip)
	movb	$0, 2252+state(%rip)
	movb	$0, 2253+state(%rip)
	movb	$0, 2254+state(%rip)
	movb	$0, 2255+state(%rip)
	movb	$0, 2256+state(%rip)
	movb	$0, 2257+state(%rip)
	movb	$0, 2258+state(%rip)
	movb	$0, 2259+state(%rip)
	movb	$0, 2260+state(%rip)
	movb	$0, 2261+state(%rip)
	movb	$0, 2262+state(%rip)
	movb	$0, 2263+state(%rip)
	movb	$0, 2264+state(%rip)
	movb	$0, 2265+state(%rip)
	movb	$0, 2266+state(%rip)
	movb	$0, 2267+state(%rip)
	movb	$0, 2268+state(%rip)
	movb	$0, 2269+state(%rip)
	movb	$0, 2270+state(%rip)
	movb	$0, 2271+state(%rip)
	movb	$0, 2272+state(%rip)
	movb	$0, 2273+state(%rip)
	movb	$0, 2274+state(%rip)
	movb	$0, 2275+state(%rip)
	movb	$0, 2276+state(%rip)
	movb	$0, 2277+state(%rip)
	movb	$0, 2278+state(%rip)
	movb	$0, 2279+state(%rip)
	movb	$0, 2280+state(%rip)
	movb	$0, 2281+state(%rip)
	movb	$0, 2282+state(%rip)
	movb	$0, 2283+state(%rip)
	movb	$0, 2284+state(%rip)
	movb	$0, 2285+state(%rip)
	movb	$0, 2286+state(%rip)
	movb	$0, 2287+state(%rip)
	movb	$0, 2288+state(%rip)
	movb	$0, 2289+state(%rip)
	movb	$0, 2290+state(%rip)
	movb	$0, 2291+state(%rip)
	movb	$0, 2292+state(%rip)
	movb	$0, 2293+state(%rip)
	movb	$0, 2294+state(%rip)
	movb	$0, 2295+state(%rip)
	movb	$0, 2296+state(%rip)
	movb	$0, 2297+state(%rip)
	movb	$0, 2298+state(%rip)
	movb	$0, 2299+state(%rip)
	movb	$0, 2300+state(%rip)
	movb	$0, 2301+state(%rip)
	movb	$0, 2302+state(%rip)
	movb	$0, 2303+state(%rip)
	movb	$0, 2304+state(%rip)
	movb	$0, 2305+state(%rip)
	movb	$0, 2306+state(%rip)
	movb	$0, 2307+state(%rip)
	movb	$0, 2308+state(%rip)
	movb	$0, 2309+state(%rip)
	movb	$0, 2310+state(%rip)
	movb	$0, 2311+state(%rip)
	movb	$0, 2312+state(%rip)
	movb	$0, 2313+state(%rip)
	movb	$0, 2314+state(%rip)
	movb	$0, 2315+state(%rip)
	movb	$0, 2316+state(%rip)
	movb	$0, 2317+state(%rip)
	movb	$0, 2318+state(%rip)
	movb	$0, 2319+state(%rip)
	movb	$0, 2320+state(%rip)
	movb	$0, 2321+state(%rip)
	movb	$0, 2322+state(%rip)
	movb	$0, 2323+state(%rip)
	movb	$0, 2324+state(%rip)
	movb	$0, 2325+state(%rip)
	movb	$0, 2326+state(%rip)
	movb	$0, 2327+state(%rip)
	movb	$0, 2328+state(%rip)
	movb	$0, 2329+state(%rip)
	movb	$0, 2330+state(%rip)
	movb	$0, 2331+state(%rip)
	movb	$0, 2332+state(%rip)
	movb	$0, 2333+state(%rip)
	movb	$0, 2334+state(%rip)
	movb	$0, 2335+state(%rip)
	movb	$0, 2336+state(%rip)
	movb	$0, 2337+state(%rip)
	movb	$0, 2338+state(%rip)
	movb	$0, 2339+state(%rip)
	movb	$0, 2340+state(%rip)
	movb	$0, 2341+state(%rip)
	movb	$0, 2342+state(%rip)
	movb	$0, 2343+state(%rip)
	movb	$0, 2344+state(%rip)
	movb	$0, 2345+state(%rip)
	movb	$0, 2346+state(%rip)
	movb	$0, 2347+state(%rip)
	movb	$0, 2348+state(%rip)
	movb	$0, 2349+state(%rip)
	movb	$0, 2350+state(%rip)
	movb	$0, 2351+state(%rip)
	movb	$0, 2352+state(%rip)
	movb	$0, 2353+state(%rip)
	movb	$0, 2354+state(%rip)
	movb	$0, 2355+state(%rip)
	movb	$0, 2356+state(%rip)
	movb	$0, 2357+state(%rip)
	movb	$0, 2358+state(%rip)
	movb	$0, 2359+state(%rip)
	movb	$0, 2360+state(%rip)
	movb	$0, 2361+state(%rip)
	movb	$0, 2362+state(%rip)
	movb	$0, 2363+state(%rip)
	movb	$0, 2364+state(%rip)
	movb	$0, 2365+state(%rip)
	movb	$0, 2366+state(%rip)
	movb	$0, 2367+state(%rip)
	movb	$0, 2368+state(%rip)
	movb	$0, 2369+state(%rip)
	movb	$0, 2370+state(%rip)
	movb	$0, 2371+state(%rip)
	movb	$0, 2372+state(%rip)
	movb	$0, 2373+state(%rip)
	movb	$0, 2374+state(%rip)
	movb	$0, 2375+state(%rip)
	movb	$0, 2376+state(%rip)
	movb	$0, 2377+state(%rip)
	movb	$0, 2378+state(%rip)
	movb	$0, 2379+state(%rip)
	movb	$0, 2380+state(%rip)
	movb	$0, 2381+state(%rip)
	movb	$0, 2382+state(%rip)
	movb	$0, 2383+state(%rip)
	movb	$0, 2384+state(%rip)
	movb	$0, 2385+state(%rip)
	movb	$0, 2386+state(%rip)
	movb	$0, 2387+state(%rip)
	movb	$0, 2388+state(%rip)
	movb	$0, 2389+state(%rip)
	movb	$0, 2390+state(%rip)
	movb	$0, 2391+state(%rip)
	movb	$0, 2392+state(%rip)
	movb	$0, 2393+state(%rip)
	movb	$0, 2394+state(%rip)
	movb	$0, 2395+state(%rip)
	movb	$0, 2396+state(%rip)
	movb	$0, 2397+state(%rip)
	movb	$0, 2398+state(%rip)
	movb	$0, 2399+state(%rip)
	movb	$0, 2400+state(%rip)
	movb	$0, 2401+state(%rip)
	movb	$0, 2402+state(%rip)
	movb	$0, 2403+state(%rip)
	movb	$0, 2404+state(%rip)
	movb	$0, 2405+state(%rip)
	movb	$0, 2406+state(%rip)
	movb	$0, 2407+state(%rip)
	movb	$0, 2408+state(%rip)
	movb	$0, 2409+state(%rip)
	movb	$0, 2410+state(%rip)
	movb	$0, 2411+state(%rip)
	movb	$0, 2412+state(%rip)
	movb	$0, 2413+state(%rip)
	movb	$0, 2414+state(%rip)
	movb	$0, 2415+state(%rip)
	movb	$0, 2416+state(%rip)
	movb	$0, 2417+state(%rip)
	movb	$0, 2418+state(%rip)
	movb	$0, 2419+state(%rip)
	movb	$0, 2420+state(%rip)
	movb	$0, 2421+state(%rip)
	movb	$0, 2422+state(%rip)
	movb	$0, 2423+state(%rip)
	movb	$0, 2424+state(%rip)
	movb	$0, 2425+state(%rip)
	movb	$0, 2426+state(%rip)
	movb	$0, 2427+state(%rip)
	movb	$0, 2428+state(%rip)
	movb	$0, 2429+state(%rip)
	movb	$0, 2430+state(%rip)
	movb	$0, 2431+state(%rip)
	movb	$0, 2432+state(%rip)
	movb	$0, 2433+state(%rip)
	movb	$0, 2434+state(%rip)
	movb	$0, 2435+state(%rip)
	movb	$0, 2436+state(%rip)
	movb	$0, 2437+state(%rip)
	movb	$0, 2438+state(%rip)
	movb	$0, 2439+state(%rip)
	movb	$0, 2440+state(%rip)
	movb	$0, 2441+state(%rip)
	movb	$0, 2442+state(%rip)
	movb	$0, 2443+state(%rip)
	movb	$0, 2444+state(%rip)
	movb	$0, 2445+state(%rip)
	movb	$0, 2446+state(%rip)
	movb	$0, 2447+state(%rip)
	movb	$0, 2448+state(%rip)
	movb	$0, 2449+state(%rip)
	movb	$0, 2450+state(%rip)
	movb	$0, 2451+state(%rip)
	movb	$0, 2452+state(%rip)
	movb	$0, 2453+state(%rip)
	movb	$0, 2454+state(%rip)
	movb	$0, 2455+state(%rip)
	movb	$0, 2456+state(%rip)
	movb	$0, 2457+state(%rip)
	movb	$0, 2458+state(%rip)
	movb	$0, 2459+state(%rip)
	movb	$0, 2460+state(%rip)
	movb	$0, 2461+state(%rip)
	movb	$0, 2462+state(%rip)
	movb	$0, 2463+state(%rip)
	movb	$0, 2464+state(%rip)
	movb	$0, 2465+state(%rip)
	movb	$0, 2466+state(%rip)
	movb	$0, 2467+state(%rip)
	movb	$0, 2468+state(%rip)
	movb	$0, 2469+state(%rip)
	movb	$0, 2470+state(%rip)
	movb	$0, 2471+state(%rip)
	movb	$0, 2472+state(%rip)
	movb	$0, 2473+state(%rip)
	movb	$0, 2474+state(%rip)
	movb	$0, 2475+state(%rip)
	movb	$0, 2476+state(%rip)
	movb	$0, 2477+state(%rip)
	movb	$0, 2478+state(%rip)
	movb	$0, 2479+state(%rip)
	movb	$0, 2480+state(%rip)
	movb	$0, 2481+state(%rip)
	movb	$0, 2482+state(%rip)
	movb	$0, 2483+state(%rip)
	movb	$0, 2484+state(%rip)
	movb	$0, 2485+state(%rip)
	movb	$0, 2486+state(%rip)
	movb	$0, 2487+state(%rip)
	movb	$0, 2488+state(%rip)
	movb	$0, 2489+state(%rip)
	movb	$0, 2490+state(%rip)
	movb	$0, 2491+state(%rip)
	movb	$0, 2492+state(%rip)
	movb	$0, 2493+state(%rip)
	movb	$0, 2494+state(%rip)
	movb	$0, 2495+state(%rip)
	movb	$0, 2496+state(%rip)
	movb	$0, 2497+state(%rip)
	movb	$0, 2498+state(%rip)
	movb	$0, 2499+state(%rip)
	movb	$0, 2500+state(%rip)
	movb	$0, 2501+state(%rip)
	movb	$0, 2502+state(%rip)
	movb	$0, 2503+state(%rip)
	movb	$0, 2504+state(%rip)
	movb	$0, 2505+state(%rip)
	movb	$0, 2506+state(%rip)
	movb	$0, 2507+state(%rip)
	movb	$0, 2508+state(%rip)
	movb	$0, 2509+state(%rip)
	movb	$0, 2510+state(%rip)
	movb	$0, 2511+state(%rip)
	movb	$0, 2512+state(%rip)
	movb	$0, 2513+state(%rip)
	movb	$0, 2514+state(%rip)
	movb	$0, 2515+state(%rip)
	movb	$0, 2516+state(%rip)
	movb	$0, 2517+state(%rip)
	movb	$0, 2518+state(%rip)
	movb	$0, 2519+state(%rip)
	movb	$0, 2520+state(%rip)
	movb	$0, 2521+state(%rip)
	movb	$0, 2522+state(%rip)
	movb	$0, 2523+state(%rip)
	movb	$0, 2524+state(%rip)
	movb	$0, 2525+state(%rip)
	movb	$0, 2526+state(%rip)
	movb	$0, 2527+state(%rip)
	movb	$0, 2528+state(%rip)
	movb	$0, 2529+state(%rip)
	movb	$0, 2530+state(%rip)
	movb	$0, 2531+state(%rip)
	movb	$0, 2532+state(%rip)
	movb	$0, 2533+state(%rip)
	movb	$0, 2534+state(%rip)
	movb	$0, 2535+state(%rip)
	movb	$0, 2536+state(%rip)
	movb	$0, 2537+state(%rip)
	movb	$0, 2538+state(%rip)
	movb	$0, 2539+state(%rip)
	movb	$0, 2540+state(%rip)
	movb	$0, 2541+state(%rip)
	movb	$0, 2542+state(%rip)
	movb	$0, 2543+state(%rip)
	movb	$0, 2544+state(%rip)
	movb	$0, 2545+state(%rip)
	movb	$0, 2546+state(%rip)
	movb	$0, 2547+state(%rip)
	movb	$0, 2548+state(%rip)
	movb	$0, 2549+state(%rip)
	movb	$0, 2550+state(%rip)
	movb	$0, 2551+state(%rip)
	movb	$0, 2552+state(%rip)
	movb	$0, 2553+state(%rip)
	movb	$0, 2554+state(%rip)
	movb	$0, 2555+state(%rip)
	movb	$0, 2556+state(%rip)
	movb	$0, 2557+state(%rip)
	movb	$0, 2558+state(%rip)
	movb	$0, 2559+state(%rip)
	movb	$0, 2560+state(%rip)
	movb	$0, 2561+state(%rip)
	movb	$0, 2562+state(%rip)
	movb	$0, 2563+state(%rip)
	movb	$0, 2564+state(%rip)
	movb	$0, 2565+state(%rip)
	movb	$0, 2566+state(%rip)
	movb	$0, 2567+state(%rip)
	movb	$0, 2568+state(%rip)
	movb	$0, 2569+state(%rip)
	movb	$0, 2570+state(%rip)
	movb	$0, 2571+state(%rip)
	movb	$0, 2572+state(%rip)
	movb	$0, 2573+state(%rip)
	movb	$0, 2574+state(%rip)
	movb	$0, 2575+state(%rip)
	movb	$0, 2576+state(%rip)
	movb	$0, 2577+state(%rip)
	movb	$0, 2578+state(%rip)
	movb	$0, 2579+state(%rip)
	movb	$0, 2580+state(%rip)
	movb	$0, 2581+state(%rip)
	movb	$0, 2582+state(%rip)
	movb	$0, 2583+state(%rip)
	movb	$0, 2584+state(%rip)
	movb	$0, 2585+state(%rip)
	movb	$0, 2586+state(%rip)
	movb	$0, 2587+state(%rip)
	movb	$0, 2588+state(%rip)
	movb	$0, 2589+state(%rip)
	movb	$0, 2590+state(%rip)
	movb	$0, 2591+state(%rip)
	movb	$0, 2592+state(%rip)
	movb	$0, 2593+state(%rip)
	movb	$0, 2594+state(%rip)
	movb	$0, 2595+state(%rip)
	movb	$0, 2596+state(%rip)
	movb	$0, 2597+state(%rip)
	movb	$0, 2598+state(%rip)
	movb	$0, 2599+state(%rip)
	movb	$0, 2600+state(%rip)
	movb	$0, 2601+state(%rip)
	movb	$0, 2602+state(%rip)
	movb	$0, 2603+state(%rip)
	movb	$0, 2604+state(%rip)
	movb	$0, 2605+state(%rip)
	movb	$0, 2606+state(%rip)
	movb	$0, 2607+state(%rip)
	movb	$0, 2608+state(%rip)
	movb	$0, 2609+state(%rip)
	movb	$0, 2610+state(%rip)
	movb	$0, 2611+state(%rip)
	movb	$0, 2612+state(%rip)
	movb	$0, 2613+state(%rip)
	movb	$0, 2614+state(%rip)
	movb	$0, 2615+state(%rip)
	movb	$0, 2616+state(%rip)
	movb	$0, 2617+state(%rip)
	movb	$0, 2618+state(%rip)
	movb	$0, 2619+state(%rip)
	movb	$0, 2620+state(%rip)
	movb	$0, 2621+state(%rip)
	movb	$0, 2622+state(%rip)
	movb	$0, 2623+state(%rip)
	movb	$0, 2624+state(%rip)
	movb	$0, 2625+state(%rip)
	movb	$0, 2626+state(%rip)
	movb	$0, 2627+state(%rip)
	movb	$0, 2628+state(%rip)
	movb	$0, 2629+state(%rip)
	movb	$0, 2630+state(%rip)
	movb	$0, 2631+state(%rip)
	movb	$0, 2632+state(%rip)
	movb	$0, 2633+state(%rip)
	movb	$0, 2634+state(%rip)
	movb	$0, 2635+state(%rip)
	movb	$0, 2636+state(%rip)
	movb	$0, 2637+state(%rip)
	movb	$0, 2638+state(%rip)
	movb	$0, 2639+state(%rip)
	movb	$0, 2640+state(%rip)
	movb	$0, 2641+state(%rip)
	movb	$0, 2642+state(%rip)
	movb	$0, 2643+state(%rip)
	movb	$0, 2644+state(%rip)
	movb	$0, 2645+state(%rip)
	movb	$0, 2646+state(%rip)
	movb	$0, 2647+state(%rip)
	movb	$0, 2648+state(%rip)
	movb	$0, 2649+state(%rip)
	movb	$0, 2650+state(%rip)
	movb	$0, 2651+state(%rip)
	movb	$0, 2652+state(%rip)
	movb	$0, 2653+state(%rip)
	movb	$0, 2654+state(%rip)
	movb	$0, 2655+state(%rip)
	movb	$0, 2656+state(%rip)
	movb	$0, 2657+state(%rip)
	movb	$0, 2658+state(%rip)
	movb	$0, 2659+state(%rip)
	movb	$0, 2660+state(%rip)
	movb	$0, 2661+state(%rip)
	movb	$0, 2662+state(%rip)
	movb	$0, 2663+state(%rip)
	movb	$0, 2664+state(%rip)
	movb	$0, 2665+state(%rip)
	movb	$0, 2666+state(%rip)
	movb	$0, 2667+state(%rip)
	movb	$0, 2668+state(%rip)
	movb	$0, 2669+state(%rip)
	movb	$0, 2670+state(%rip)
	movb	$0, 2671+state(%rip)
	movb	$0, 2672+state(%rip)
	movb	$0, 2673+state(%rip)
	movb	$0, 2674+state(%rip)
	movb	$0, 2675+state(%rip)
	movb	$0, 2676+state(%rip)
	movb	$0, 2677+state(%rip)
	movb	$0, 2678+state(%rip)
	movb	$0, 2679+state(%rip)
	movb	$0, 2680+state(%rip)
	movb	$0, 2681+state(%rip)
	movb	$0, 2682+state(%rip)
	movb	$0, 2683+state(%rip)
	movb	$0, 2684+state(%rip)
	movb	$0, 2685+state(%rip)
	movb	$0, 2686+state(%rip)
	movb	$0, 2687+state(%rip)
	movb	$0, 2688+state(%rip)
	movb	$0, 2689+state(%rip)
	movb	$0, 2690+state(%rip)
	movb	$0, 2691+state(%rip)
	movb	$0, 2692+state(%rip)
	movb	$0, 2693+state(%rip)
	movb	$0, 2694+state(%rip)
	movb	$0, 2695+state(%rip)
	movb	$0, 2696+state(%rip)
	movb	$0, 2697+state(%rip)
	movb	$0, 2698+state(%rip)
	movb	$0, 2699+state(%rip)
	movb	$0, 2700+state(%rip)
	movb	$0, 2701+state(%rip)
	movb	$0, 2702+state(%rip)
	movb	$0, 2703+state(%rip)
	movb	$0, 2704+state(%rip)
	movb	$0, 2705+state(%rip)
	movb	$0, 2706+state(%rip)
	movb	$0, 2707+state(%rip)
	movb	$0, 2708+state(%rip)
	movb	$0, 2709+state(%rip)
	movb	$0, 2710+state(%rip)
	movb	$0, 2711+state(%rip)
	movb	$0, 2712+state(%rip)
	movb	$0, 2713+state(%rip)
	movb	$0, 2714+state(%rip)
	movb	$0, 2715+state(%rip)
	movb	$0, 2716+state(%rip)
	movb	$0, 2717+state(%rip)
	movb	$0, 2718+state(%rip)
	movb	$0, 2719+state(%rip)
	movb	$0, 2720+state(%rip)
	movb	$0, 2721+state(%rip)
	movb	$0, 2722+state(%rip)
	movb	$0, 2723+state(%rip)
	movb	$0, 2724+state(%rip)
	movb	$0, 2725+state(%rip)
	movb	$0, 2726+state(%rip)
	movb	$0, 2727+state(%rip)
	movb	$0, 2728+state(%rip)
	movb	$0, 2729+state(%rip)
	movb	$0, 2730+state(%rip)
	movb	$0, 2731+state(%rip)
	movb	$0, 2732+state(%rip)
	movb	$0, 2733+state(%rip)
	movb	$0, 2734+state(%rip)
	movb	$0, 2735+state(%rip)
	movb	$0, 2736+state(%rip)
	movb	$0, 2737+state(%rip)
	movb	$0, 2738+state(%rip)
	movb	$0, 2739+state(%rip)
	movb	$0, 2740+state(%rip)
	movb	$0, 2741+state(%rip)
	movb	$0, 2742+state(%rip)
	movb	$0, 2743+state(%rip)
	movb	$0, 2744+state(%rip)
	movb	$0, 2745+state(%rip)
	movb	$0, 2746+state(%rip)
	movb	$0, 2747+state(%rip)
	movb	$0, 2748+state(%rip)
	movb	$0, 2749+state(%rip)
	movb	$0, 2750+state(%rip)
	movb	$0, 2751+state(%rip)
	movb	$0, 2752+state(%rip)
	movb	$0, 2753+state(%rip)
	movb	$0, 2754+state(%rip)
	movb	$0, 2755+state(%rip)
	movb	$0, 2756+state(%rip)
	movb	$0, 2757+state(%rip)
	movb	$0, 2758+state(%rip)
	movb	$0, 2759+state(%rip)
	movb	$0, 2760+state(%rip)
	movb	$0, 2761+state(%rip)
	movb	$0, 2762+state(%rip)
	movb	$0, 2763+state(%rip)
	movb	$0, 2764+state(%rip)
	movb	$0, 2765+state(%rip)
	movb	$0, 2766+state(%rip)
	movb	$0, 2767+state(%rip)
	movb	$0, 2768+state(%rip)
	movb	$0, 2769+state(%rip)
	movb	$0, 2770+state(%rip)
	movb	$0, 2771+state(%rip)
	movb	$0, 2772+state(%rip)
	movb	$0, 2773+state(%rip)
	movb	$0, 2774+state(%rip)
	movb	$0, 2775+state(%rip)
	movb	$0, 2776+state(%rip)
	movb	$0, 2777+state(%rip)
	movb	$0, 2778+state(%rip)
	movb	$0, 2779+state(%rip)
	movb	$0, 2780+state(%rip)
	movb	$0, 2781+state(%rip)
	movb	$0, 2782+state(%rip)
	movb	$0, 2783+state(%rip)
	movb	$0, 2784+state(%rip)
	movb	$0, 2785+state(%rip)
	movb	$0, 2786+state(%rip)
	movb	$0, 2787+state(%rip)
	movb	$0, 2788+state(%rip)
	movb	$0, 2789+state(%rip)
	movb	$0, 2790+state(%rip)
	movb	$0, 2791+state(%rip)
	movb	$0, 2792+state(%rip)
	movb	$0, 2793+state(%rip)
	movb	$0, 2794+state(%rip)
	movb	$0, 2795+state(%rip)
	movb	$0, 2796+state(%rip)
	movb	$0, 2797+state(%rip)
	movb	$0, 2798+state(%rip)
	movb	$0, 2799+state(%rip)
	movb	$0, 2800+state(%rip)
	movb	$0, 2801+state(%rip)
	movb	$0, 2802+state(%rip)
	movb	$0, 2803+state(%rip)
	movb	$0, 2804+state(%rip)
	movb	$0, 2805+state(%rip)
	movb	$0, 2806+state(%rip)
	movb	$0, 2807+state(%rip)
	movb	$0, 2808+state(%rip)
	movb	$0, 2809+state(%rip)
	movb	$0, 2810+state(%rip)
	movb	$0, 2811+state(%rip)
	movb	$0, 2812+state(%rip)
	movb	$0, 2813+state(%rip)
	movb	$0, 2814+state(%rip)
	movb	$0, 2815+state(%rip)
	movb	$0, 2816+state(%rip)
	movb	$0, 2817+state(%rip)
	movb	$0, 2818+state(%rip)
	movb	$0, 2819+state(%rip)
	movb	$0, 2820+state(%rip)
	movb	$0, 2821+state(%rip)
	movb	$0, 2822+state(%rip)
	movb	$0, 2823+state(%rip)
	movb	$0, 2824+state(%rip)
	movb	$0, 2825+state(%rip)
	movb	$0, 2826+state(%rip)
	movb	$0, 2827+state(%rip)
	movb	$0, 2828+state(%rip)
	movb	$0, 2829+state(%rip)
	movb	$0, 2830+state(%rip)
	movb	$0, 2831+state(%rip)
	movb	$0, 2832+state(%rip)
	movb	$0, 2833+state(%rip)
	movb	$0, 2834+state(%rip)
	movb	$0, 2835+state(%rip)
	movb	$0, 2836+state(%rip)
	movb	$0, 2837+state(%rip)
	movb	$0, 2838+state(%rip)
	movb	$0, 2839+state(%rip)
	movb	$0, 2840+state(%rip)
	movb	$0, 2841+state(%rip)
	movb	$0, 2842+state(%rip)
	movb	$0, 2843+state(%rip)
	movb	$0, 2844+state(%rip)
	movb	$0, 2845+state(%rip)
	movb	$0, 2846+state(%rip)
	movb	$0, 2847+state(%rip)
	movb	$0, 2848+state(%rip)
	movb	$0, 2849+state(%rip)
	movb	$0, 2850+state(%rip)
	movb	$0, 2851+state(%rip)
	movb	$0, 2852+state(%rip)
	movb	$0, 2853+state(%rip)
	movb	$0, 2854+state(%rip)
	movb	$0, 2855+state(%rip)
	movb	$0, 2856+state(%rip)
	movb	$0, 2857+state(%rip)
	movb	$0, 2858+state(%rip)
	movb	$0, 2859+state(%rip)
	movb	$0, 2860+state(%rip)
	movb	$0, 2861+state(%rip)
	movb	$0, 2862+state(%rip)
	movb	$0, 2863+state(%rip)
	movb	$0, 2864+state(%rip)
	movb	$0, 2865+state(%rip)
	movb	$0, 2866+state(%rip)
	movb	$0, 2867+state(%rip)
	movb	$0, 2868+state(%rip)
	movb	$0, 2869+state(%rip)
	movb	$0, 2870+state(%rip)
	movb	$0, 2871+state(%rip)
	movb	$0, 2872+state(%rip)
	movb	$0, 2873+state(%rip)
	movb	$0, 2874+state(%rip)
	movb	$0, 2875+state(%rip)
	movb	$0, 2876+state(%rip)
	movb	$0, 2877+state(%rip)
	movb	$0, 2878+state(%rip)
	movb	$0, 2879+state(%rip)
	movb	$0, 2880+state(%rip)
	movb	$0, 2881+state(%rip)
	movb	$0, 2882+state(%rip)
	movb	$0, 2883+state(%rip)
	movb	$0, 2884+state(%rip)
	movb	$0, 2885+state(%rip)
	movb	$0, 2886+state(%rip)
	movb	$0, 2887+state(%rip)
	movb	$0, 2888+state(%rip)
	movb	$0, 2889+state(%rip)
	movb	$0, 2890+state(%rip)
	movb	$0, 2891+state(%rip)
	movb	$0, 2892+state(%rip)
	movb	$0, 2893+state(%rip)
	movb	$0, 2894+state(%rip)
	movb	$0, 2895+state(%rip)
	movb	$0, 2896+state(%rip)
	movb	$0, 2897+state(%rip)
	movb	$0, 2898+state(%rip)
	movb	$0, 2899+state(%rip)
	movb	$0, 2900+state(%rip)
	movb	$0, 2901+state(%rip)
	movb	$0, 2902+state(%rip)
	movb	$0, 2903+state(%rip)
	movb	$0, 2904+state(%rip)
	movb	$0, 2905+state(%rip)
	movb	$0, 2906+state(%rip)
	movb	$0, 2907+state(%rip)
	movb	$0, 2908+state(%rip)
	movb	$0, 2909+state(%rip)
	movb	$0, 2910+state(%rip)
	movb	$0, 2911+state(%rip)
	movb	$0, 2912+state(%rip)
	movb	$0, 2913+state(%rip)
	movb	$0, 2914+state(%rip)
	movb	$0, 2915+state(%rip)
	movb	$0, 2916+state(%rip)
	movb	$0, 2917+state(%rip)
	movb	$0, 2918+state(%rip)
	movb	$0, 2919+state(%rip)
	movb	$0, 2920+state(%rip)
	movb	$0, 2921+state(%rip)
	movb	$0, 2922+state(%rip)
	movb	$0, 2923+state(%rip)
	movb	$0, 2924+state(%rip)
	movb	$0, 2925+state(%rip)
	movb	$0, 2926+state(%rip)
	movb	$0, 2927+state(%rip)
	movb	$0, 2928+state(%rip)
	movb	$0, 2929+state(%rip)
	movb	$0, 2930+state(%rip)
	movb	$0, 2931+state(%rip)
	movb	$0, 2932+state(%rip)
	movb	$0, 2933+state(%rip)
	movb	$0, 2934+state(%rip)
	movb	$0, 2935+state(%rip)
	movb	$0, 2936+state(%rip)
	movb	$0, 2937+state(%rip)
	movb	$0, 2938+state(%rip)
	movb	$0, 2939+state(%rip)
	movb	$0, 2940+state(%rip)
	movb	$0, 2941+state(%rip)
	movb	$0, 2942+state(%rip)
	movb	$0, 2943+state(%rip)
	movb	$0, 2944+state(%rip)
	movb	$0, 2945+state(%rip)
	movb	$0, 2946+state(%rip)
	movb	$0, 2947+state(%rip)
	movb	$0, 2948+state(%rip)
	movb	$0, 2949+state(%rip)
	movb	$0, 2950+state(%rip)
	movb	$0, 2951+state(%rip)
	movb	$0, 2952+state(%rip)
	movb	$0, 2953+state(%rip)
	movb	$0, 2954+state(%rip)
	movb	$0, 2955+state(%rip)
	movb	$0, 2956+state(%rip)
	movb	$0, 2957+state(%rip)
	movb	$0, 2958+state(%rip)
	movb	$0, 2959+state(%rip)
	movb	$0, 2960+state(%rip)
	movb	$0, 2961+state(%rip)
	movb	$0, 2962+state(%rip)
	movb	$0, 2963+state(%rip)
	movb	$0, 2964+state(%rip)
	movb	$0, 2965+state(%rip)
	movb	$0, 2966+state(%rip)
	movb	$0, 2967+state(%rip)
	movb	$0, 2968+state(%rip)
	movb	$0, 2969+state(%rip)
	movb	$0, 2970+state(%rip)
	movb	$0, 2971+state(%rip)
	movb	$0, 2972+state(%rip)
	movb	$0, 2973+state(%rip)
	movb	$0, 2974+state(%rip)
	movb	$0, 2975+state(%rip)
	movb	$0, 2976+state(%rip)
	movb	$0, 2977+state(%rip)
	movb	$0, 2978+state(%rip)
	movb	$0, 2979+state(%rip)
	movb	$0, 2980+state(%rip)
	movb	$0, 2981+state(%rip)
	movb	$0, 2982+state(%rip)
	movb	$0, 2983+state(%rip)
	movb	$0, 2984+state(%rip)
	movb	$0, 2985+state(%rip)
	movb	$0, 2986+state(%rip)
	movb	$0, 2987+state(%rip)
	movb	$0, 2988+state(%rip)
	movb	$0, 2989+state(%rip)
	movb	$0, 2990+state(%rip)
	movb	$0, 2991+state(%rip)
	movb	$0, 2992+state(%rip)
	movb	$0, 2993+state(%rip)
	movb	$0, 2994+state(%rip)
	movb	$0, 2995+state(%rip)
	movb	$0, 2996+state(%rip)
	movb	$0, 2997+state(%rip)
	movb	$0, 2998+state(%rip)
	movb	$0, 2999+state(%rip)
	movb	$0, 3000+state(%rip)
	movb	$0, 3001+state(%rip)
	movb	$0, 3002+state(%rip)
	movb	$0, 3003+state(%rip)
	movb	$0, 3004+state(%rip)
	movb	$0, 3005+state(%rip)
	movb	$0, 3006+state(%rip)
	movb	$0, 3007+state(%rip)
	movb	$0, 3008+state(%rip)
	movb	$0, 3009+state(%rip)
	movb	$0, 3010+state(%rip)
	movb	$0, 3011+state(%rip)
	movb	$0, 3012+state(%rip)
	movb	$0, 3013+state(%rip)
	movb	$0, 3014+state(%rip)
	movb	$0, 3015+state(%rip)
	movb	$0, 3016+state(%rip)
	movb	$0, 3017+state(%rip)
	movb	$0, 3018+state(%rip)
	movb	$0, 3019+state(%rip)
	movb	$0, 3020+state(%rip)
	movb	$0, 3021+state(%rip)
	movb	$0, 3022+state(%rip)
	movb	$0, 3023+state(%rip)
	movb	$0, 3024+state(%rip)
	movb	$0, 3025+state(%rip)
	movb	$0, 3026+state(%rip)
	movb	$0, 3027+state(%rip)
	movb	$0, 3028+state(%rip)
	movb	$0, 3029+state(%rip)
	movb	$0, 3030+state(%rip)
	movb	$0, 3031+state(%rip)
	movb	$0, 3032+state(%rip)
	movb	$0, 3033+state(%rip)
	movb	$0, 3034+state(%rip)
	movb	$0, 3035+state(%rip)
	movb	$0, 3036+state(%rip)
	movb	$0, 3037+state(%rip)
	movb	$0, 3038+state(%rip)
	movb	$0, 3039+state(%rip)
	movb	$0, 3040+state(%rip)
	movb	$0, 3041+state(%rip)
	movb	$0, 3042+state(%rip)
	movb	$0, 3043+state(%rip)
	movb	$0, 3044+state(%rip)
	movb	$0, 3045+state(%rip)
	movb	$0, 3046+state(%rip)
	movb	$0, 3047+state(%rip)
	movb	$0, 3048+state(%rip)
	movb	$0, 3049+state(%rip)
	movb	$0, 3050+state(%rip)
	movb	$0, 3051+state(%rip)
	movb	$0, 3052+state(%rip)
	movb	$0, 3053+state(%rip)
	movb	$0, 3054+state(%rip)
	movb	$0, 3055+state(%rip)
	movb	$0, 3056+state(%rip)
	movb	$0, 3057+state(%rip)
	movb	$0, 3058+state(%rip)
	movb	$0, 3059+state(%rip)
	movb	$0, 3060+state(%rip)
	movb	$0, 3061+state(%rip)
	movb	$0, 3062+state(%rip)
	movb	$0, 3063+state(%rip)
	movb	$0, 3064+state(%rip)
	movb	$0, 3065+state(%rip)
	movb	$0, 3066+state(%rip)
	movb	$0, 3067+state(%rip)
	movb	$0, 3068+state(%rip)
	movb	$0, 3069+state(%rip)
	movb	$0, 3070+state(%rip)
	movb	$0, 3071+state(%rip)
	movb	$0, 3072+state(%rip)
	movb	$0, 3073+state(%rip)
	movb	$0, 3074+state(%rip)
	movb	$0, 3075+state(%rip)
	movb	$0, 3076+state(%rip)
	movb	$0, 3077+state(%rip)
	movb	$0, 3078+state(%rip)
	movb	$0, 3079+state(%rip)
	movb	$0, 3080+state(%rip)
	movb	$0, 3081+state(%rip)
	movb	$0, 3082+state(%rip)
	movb	$0, 3083+state(%rip)
	movb	$0, 3084+state(%rip)
	movb	$0, 3085+state(%rip)
	movb	$0, 3086+state(%rip)
	movb	$0, 3087+state(%rip)
	movb	$0, 3088+state(%rip)
	movb	$0, 3089+state(%rip)
	movb	$0, 3090+state(%rip)
	movb	$0, 3091+state(%rip)
	movb	$0, 3092+state(%rip)
	movb	$0, 3093+state(%rip)
	movb	$0, 3094+state(%rip)
	movb	$0, 3095+state(%rip)
	movb	$0, 3096+state(%rip)
	movb	$0, 3097+state(%rip)
	movb	$0, 3098+state(%rip)
	movb	$0, 3099+state(%rip)
	movb	$0, 3100+state(%rip)
	movb	$0, 3101+state(%rip)
	movb	$0, 3102+state(%rip)
	movb	$0, 3103+state(%rip)
	movb	$0, 3104+state(%rip)
	movb	$0, 3105+state(%rip)
	movb	$0, 3106+state(%rip)
	movb	$0, 3107+state(%rip)
	movb	$0, 3108+state(%rip)
	movb	$0, 3109+state(%rip)
	movb	$0, 3110+state(%rip)
	movb	$0, 3111+state(%rip)
	movb	$0, 3112+state(%rip)
	movb	$0, 3113+state(%rip)
	movb	$0, 3114+state(%rip)
	movb	$0, 3115+state(%rip)
	movb	$0, 3116+state(%rip)
	movb	$0, 3117+state(%rip)
	movb	$0, 3118+state(%rip)
	movb	$0, 3119+state(%rip)
	movb	$0, 3120+state(%rip)
	movb	$0, 3121+state(%rip)
	movb	$0, 3122+state(%rip)
	movb	$0, 3123+state(%rip)
	movb	$0, 3124+state(%rip)
	movb	$0, 3125+state(%rip)
	movb	$0, 3126+state(%rip)
	movb	$0, 3127+state(%rip)
	movb	$0, 3128+state(%rip)
	movb	$0, 3129+state(%rip)
	movb	$0, 3130+state(%rip)
	movb	$0, 3131+state(%rip)
	movb	$0, 3132+state(%rip)
	movb	$0, 3133+state(%rip)
	movb	$0, 3134+state(%rip)
	movb	$0, 3135+state(%rip)
	movb	$0, 3136+state(%rip)
	movb	$0, 3137+state(%rip)
	movb	$0, 3138+state(%rip)
	movb	$0, 3139+state(%rip)
	movb	$0, 3140+state(%rip)
	movb	$0, 3141+state(%rip)
	movb	$0, 3142+state(%rip)
	movb	$0, 3143+state(%rip)
	movb	$0, 3144+state(%rip)
	movb	$0, 3145+state(%rip)
	movb	$0, 3146+state(%rip)
	movb	$0, 3147+state(%rip)
	movb	$0, 3148+state(%rip)
	movb	$0, 3149+state(%rip)
	movb	$0, 3150+state(%rip)
	movb	$0, 3151+state(%rip)
	movb	$0, 3152+state(%rip)
	movb	$0, 3153+state(%rip)
	movb	$0, 3154+state(%rip)
	movb	$0, 3155+state(%rip)
	movb	$0, 3156+state(%rip)
	movb	$0, 3157+state(%rip)
	movb	$0, 3158+state(%rip)
	movb	$0, 3159+state(%rip)
	movb	$0, 3160+state(%rip)
	movb	$0, 3161+state(%rip)
	movb	$0, 3162+state(%rip)
	movb	$0, 3163+state(%rip)
	movb	$0, 3164+state(%rip)
	movb	$0, 3165+state(%rip)
	movb	$0, 3166+state(%rip)
	movb	$0, 3167+state(%rip)
	movb	$0, 3168+state(%rip)
	movb	$0, 3169+state(%rip)
	movb	$0, 3170+state(%rip)
	movb	$0, 3171+state(%rip)
	movb	$0, 3172+state(%rip)
	movb	$0, 3173+state(%rip)
	movb	$0, 3174+state(%rip)
	movb	$0, 3175+state(%rip)
	movb	$0, 3176+state(%rip)
	movb	$0, 3177+state(%rip)
	movb	$0, 3178+state(%rip)
	movb	$0, 3179+state(%rip)
	movb	$0, 3180+state(%rip)
	movb	$0, 3181+state(%rip)
	movb	$0, 3182+state(%rip)
	movb	$0, 3183+state(%rip)
	movb	$0, 3184+state(%rip)
	movb	$0, 3185+state(%rip)
	movb	$0, 3186+state(%rip)
	movb	$0, 3187+state(%rip)
	movb	$0, 3188+state(%rip)
	movb	$0, 3189+state(%rip)
	movb	$0, 3190+state(%rip)
	movb	$0, 3191+state(%rip)
	movb	$0, 3192+state(%rip)
	movb	$0, 3193+state(%rip)
	movb	$0, 3194+state(%rip)
	movb	$0, 3195+state(%rip)
	movb	$0, 3196+state(%rip)
	movb	$0, 3197+state(%rip)
	movb	$0, 3198+state(%rip)
	movb	$0, 3199+state(%rip)
	movb	$0, 3200+state(%rip)
	movb	$0, 3201+state(%rip)
	movb	$0, 3202+state(%rip)
	movb	$0, 3203+state(%rip)
	movb	$0, 3204+state(%rip)
	movb	$0, 3205+state(%rip)
	movb	$0, 3206+state(%rip)
	movb	$0, 3207+state(%rip)
	movb	$0, 3208+state(%rip)
	movb	$0, 3209+state(%rip)
	movb	$0, 3210+state(%rip)
	movb	$0, 3211+state(%rip)
	movb	$0, 3212+state(%rip)
	movb	$0, 3213+state(%rip)
	movb	$0, 3214+state(%rip)
	movb	$0, 3215+state(%rip)
	movb	$0, 3216+state(%rip)
	movb	$0, 3217+state(%rip)
	movb	$0, 3218+state(%rip)
	movb	$0, 3219+state(%rip)
	movb	$0, 3220+state(%rip)
	movb	$0, 3221+state(%rip)
	movb	$0, 3222+state(%rip)
	movb	$0, 3223+state(%rip)
	movb	$0, 3224+state(%rip)
	movb	$0, 3225+state(%rip)
	movb	$0, 3226+state(%rip)
	movb	$0, 3227+state(%rip)
	movb	$0, 3228+state(%rip)
	movb	$0, 3229+state(%rip)
	movb	$0, 3230+state(%rip)
	movb	$0, 3231+state(%rip)
	movb	$0, 3232+state(%rip)
	movb	$0, 3233+state(%rip)
	movb	$0, 3234+state(%rip)
	movb	$0, 3235+state(%rip)
	movb	$0, 3236+state(%rip)
	movb	$0, 3237+state(%rip)
	movb	$0, 3238+state(%rip)
	movb	$0, 3239+state(%rip)
	movb	$0, 3240+state(%rip)
	movb	$0, 3241+state(%rip)
	movb	$0, 3242+state(%rip)
	movb	$0, 3243+state(%rip)
	movb	$0, 3244+state(%rip)
	movb	$0, 3245+state(%rip)
	movb	$0, 3246+state(%rip)
	movb	$0, 3247+state(%rip)
	movb	$0, 3248+state(%rip)
	movb	$0, 3249+state(%rip)
	movb	$0, 3250+state(%rip)
	movb	$0, 3251+state(%rip)
	movb	$0, 3252+state(%rip)
	movb	$0, 3253+state(%rip)
	movb	$0, 3254+state(%rip)
	movb	$0, 3255+state(%rip)
	movb	$0, 3256+state(%rip)
	movb	$0, 3257+state(%rip)
	movb	$0, 3258+state(%rip)
	movb	$0, 3259+state(%rip)
	movb	$0, 3260+state(%rip)
	movb	$0, 3261+state(%rip)
	movb	$0, 3262+state(%rip)
	movb	$0, 3263+state(%rip)
	movb	$0, 3264+state(%rip)
	movb	$0, 3265+state(%rip)
	movb	$0, 3266+state(%rip)
	movb	$0, 3267+state(%rip)
	movb	$0, 3268+state(%rip)
	movb	$0, 3269+state(%rip)
	movb	$0, 3270+state(%rip)
	movb	$0, 3271+state(%rip)
	movb	$0, 3272+state(%rip)
	movb	$0, 3273+state(%rip)
	movb	$0, 3274+state(%rip)
	movb	$0, 3275+state(%rip)
	movb	$0, 3276+state(%rip)
	movb	$0, 3277+state(%rip)
	movb	$0, 3278+state(%rip)
	movb	$0, 3279+state(%rip)
	movb	$0, 3280+state(%rip)
	movb	$0, 3281+state(%rip)
	movb	$0, 3282+state(%rip)
	movb	$0, 3283+state(%rip)
	movb	$0, 3284+state(%rip)
	movb	$0, 3285+state(%rip)
	movb	$0, 3286+state(%rip)
	movb	$0, 3287+state(%rip)
	movb	$0, 3288+state(%rip)
	movb	$0, 3289+state(%rip)
	movb	$0, 3290+state(%rip)
	movb	$0, 3291+state(%rip)
	movb	$0, 3292+state(%rip)
	movb	$0, 3293+state(%rip)
	movb	$0, 3294+state(%rip)
	movb	$0, 3295+state(%rip)
	movb	$0, 3296+state(%rip)
	movb	$0, 3297+state(%rip)
	movb	$0, 3298+state(%rip)
	movb	$0, 3299+state(%rip)
	movb	$0, 3300+state(%rip)
	movb	$0, 3301+state(%rip)
	movb	$0, 3302+state(%rip)
	movb	$0, 3303+state(%rip)
	movb	$0, 3304+state(%rip)
	movb	$0, 3305+state(%rip)
	movb	$0, 3306+state(%rip)
	movb	$0, 3307+state(%rip)
	movb	$0, 3308+state(%rip)
	movb	$0, 3309+state(%rip)
	movb	$0, 3310+state(%rip)
	movb	$0, 3311+state(%rip)
	movb	$0, 3312+state(%rip)
	movb	$0, 3313+state(%rip)
	movb	$0, 3314+state(%rip)
	movb	$0, 3315+state(%rip)
	movb	$0, 3316+state(%rip)
	movb	$0, 3317+state(%rip)
	movb	$0, 3318+state(%rip)
	movb	$0, 3319+state(%rip)
	movb	$0, 3320+state(%rip)
	movb	$0, 3321+state(%rip)
	movb	$0, 3322+state(%rip)
	movb	$0, 3323+state(%rip)
	movb	$0, 3324+state(%rip)
	movb	$0, 3325+state(%rip)
	movb	$0, 3326+state(%rip)
	movb	$0, 3327+state(%rip)
	movb	$0, 3328+state(%rip)
	movb	$0, 3329+state(%rip)
	movb	$0, 3330+state(%rip)
	movb	$0, 3331+state(%rip)
	movb	$0, 3332+state(%rip)
	movb	$0, 3333+state(%rip)
	movb	$0, 3334+state(%rip)
	movb	$0, 3335+state(%rip)
	movb	$0, 3336+state(%rip)
	movb	$0, 3337+state(%rip)
	movb	$0, 3338+state(%rip)
	movb	$0, 3339+state(%rip)
	movb	$0, 3340+state(%rip)
	movb	$0, 3341+state(%rip)
	movb	$0, 3342+state(%rip)
	movb	$0, 3343+state(%rip)
	movb	$0, 3344+state(%rip)
	movb	$0, 3345+state(%rip)
	movb	$0, 3346+state(%rip)
	movb	$0, 3347+state(%rip)
	movb	$0, 3348+state(%rip)
	movb	$0, 3349+state(%rip)
	movb	$0, 3350+state(%rip)
	movb	$0, 3351+state(%rip)
	movb	$0, 3352+state(%rip)
	movb	$0, 3353+state(%rip)
	movb	$0, 3354+state(%rip)
	movb	$0, 3355+state(%rip)
	movb	$0, 3356+state(%rip)
	movb	$0, 3357+state(%rip)
	movb	$0, 3358+state(%rip)
	movb	$0, 3359+state(%rip)
	movb	$0, 3360+state(%rip)
	movb	$0, 3361+state(%rip)
	movb	$0, 3362+state(%rip)
	movb	$0, 3363+state(%rip)
	movb	$0, 3364+state(%rip)
	movb	$0, 3365+state(%rip)
	movb	$0, 3366+state(%rip)
	movb	$0, 3367+state(%rip)
	movb	$0, 3368+state(%rip)
	movb	$0, 3369+state(%rip)
	movb	$0, 3370+state(%rip)
	movb	$0, 3371+state(%rip)
	movb	$0, 3372+state(%rip)
	movb	$0, 3373+state(%rip)
	movb	$0, 3374+state(%rip)
	movb	$0, 3375+state(%rip)
	movb	$0, 3376+state(%rip)
	movb	$0, 3377+state(%rip)
	movb	$0, 3378+state(%rip)
	movb	$0, 3379+state(%rip)
	movb	$0, 3380+state(%rip)
	movb	$0, 3381+state(%rip)
	movb	$0, 3382+state(%rip)
	movb	$0, 3383+state(%rip)
	movb	$0, 3384+state(%rip)
	movb	$0, 3385+state(%rip)
	movb	$0, 3386+state(%rip)
	movb	$0, 3387+state(%rip)
	movb	$0, 3388+state(%rip)
	movb	$0, 3389+state(%rip)
	movb	$0, 3390+state(%rip)
	movb	$0, 3391+state(%rip)
	movb	$0, 3392+state(%rip)
	movb	$0, 3393+state(%rip)
	movb	$0, 3394+state(%rip)
	movb	$0, 3395+state(%rip)
	movb	$0, 3396+state(%rip)
	movb	$0, 3397+state(%rip)
	movb	$0, 3398+state(%rip)
	movb	$0, 3399+state(%rip)
	movb	$0, 3400+state(%rip)
	movb	$0, 3401+state(%rip)
	movb	$0, 3402+state(%rip)
	movb	$0, 3403+state(%rip)
	movb	$0, 3404+state(%rip)
	movb	$0, 3405+state(%rip)
	movb	$0, 3406+state(%rip)
	movb	$0, 3407+state(%rip)
	movb	$0, 3408+state(%rip)
	movb	$0, 3409+state(%rip)
	movb	$0, 3410+state(%rip)
	movb	$0, 3411+state(%rip)
	movb	$0, 3412+state(%rip)
	movb	$0, 3413+state(%rip)
	movb	$0, 3414+state(%rip)
	movb	$0, 3415+state(%rip)
	movb	$0, 3416+state(%rip)
	movb	$0, 3417+state(%rip)
	movb	$0, 3418+state(%rip)
	movb	$0, 3419+state(%rip)
	movb	$0, 3420+state(%rip)
	movb	$0, 3421+state(%rip)
	movb	$0, 3422+state(%rip)
	movb	$0, 3423+state(%rip)
	movb	$0, 3424+state(%rip)
	movb	$0, 3425+state(%rip)
	movb	$0, 3426+state(%rip)
	movb	$0, 3427+state(%rip)
	movb	$0, 3428+state(%rip)
	movb	$0, 3429+state(%rip)
	movb	$0, 3430+state(%rip)
	movb	$0, 3431+state(%rip)
	movb	$0, 3432+state(%rip)
	movb	$0, 3433+state(%rip)
	movb	$0, 3434+state(%rip)
	movb	$0, 3435+state(%rip)
	movb	$0, 3436+state(%rip)
	movb	$0, 3437+state(%rip)
	movb	$0, 3438+state(%rip)
	movb	$0, 3439+state(%rip)
	movb	$0, 3440+state(%rip)
	movb	$0, 3441+state(%rip)
	movb	$0, 3442+state(%rip)
	movb	$0, 3443+state(%rip)
	movb	$0, 3444+state(%rip)
	movb	$0, 3445+state(%rip)
	movb	$0, 3446+state(%rip)
	movb	$0, 3447+state(%rip)
	movb	$0, 3448+state(%rip)
	movb	$0, 3449+state(%rip)
	movb	$0, 3450+state(%rip)
	movb	$0, 3451+state(%rip)
	movb	$0, 3452+state(%rip)
	movb	$0, 3453+state(%rip)
	movb	$0, 3454+state(%rip)
	movb	$0, 3455+state(%rip)
	movb	$0, 3456+state(%rip)
	movb	$0, 3457+state(%rip)
	movb	$0, 3458+state(%rip)
	movb	$0, 3459+state(%rip)
	movb	$0, 3460+state(%rip)
	movb	$0, 3461+state(%rip)
	movb	$0, 3462+state(%rip)
	movb	$0, 3463+state(%rip)
	movb	$0, 3464+state(%rip)
	movb	$0, 3465+state(%rip)
	movb	$0, 3466+state(%rip)
	movb	$0, 3467+state(%rip)
	movb	$0, 3468+state(%rip)
	movb	$0, 3469+state(%rip)
	movb	$0, 3470+state(%rip)
	movb	$0, 3471+state(%rip)
	movb	$0, 3472+state(%rip)
	movb	$0, 3473+state(%rip)
	movb	$0, 3474+state(%rip)
	movb	$0, 3475+state(%rip)
	movb	$0, 3476+state(%rip)
	movb	$0, 3477+state(%rip)
	movb	$0, 3478+state(%rip)
	movb	$0, 3479+state(%rip)
	movb	$0, 3480+state(%rip)
	movb	$0, 3481+state(%rip)
	movb	$0, 3482+state(%rip)
	movb	$0, 3483+state(%rip)
	movb	$0, 3484+state(%rip)
	movb	$0, 3485+state(%rip)
	movb	$0, 3486+state(%rip)
	movb	$0, 3487+state(%rip)
	movb	$0, 3488+state(%rip)
	movb	$0, 3489+state(%rip)
	movb	$0, 3490+state(%rip)
	movb	$0, 3491+state(%rip)
	movb	$0, 3492+state(%rip)
	movb	$0, 3493+state(%rip)
	movb	$0, 3494+state(%rip)
	movb	$0, 3495+state(%rip)
	movb	$0, 3496+state(%rip)
	movb	$0, 3497+state(%rip)
	movb	$0, 3498+state(%rip)
	movb	$0, 3499+state(%rip)
	movb	$0, 3500+state(%rip)
	movb	$0, 3501+state(%rip)
	movb	$0, 3502+state(%rip)
	movb	$0, 3503+state(%rip)
	movb	$0, 3504+state(%rip)
	movb	$0, 3505+state(%rip)
	movb	$0, 3506+state(%rip)
	movb	$0, 3507+state(%rip)
	movb	$0, 3508+state(%rip)
	movb	$0, 3509+state(%rip)
	movb	$0, 3510+state(%rip)
	movb	$0, 3511+state(%rip)
	movb	$0, 3512+state(%rip)
	movb	$0, 3513+state(%rip)
	movb	$0, 3514+state(%rip)
	movb	$0, 3515+state(%rip)
	movb	$0, 3516+state(%rip)
	movb	$0, 3517+state(%rip)
	movb	$0, 3518+state(%rip)
	movb	$0, 3519+state(%rip)
	movb	$0, 3520+state(%rip)
	movb	$0, 3521+state(%rip)
	movb	$0, 3522+state(%rip)
	movb	$0, 3523+state(%rip)
	movb	$0, 3524+state(%rip)
	movb	$0, 3525+state(%rip)
	movb	$0, 3526+state(%rip)
	movb	$0, 3527+state(%rip)
	movb	$0, 3528+state(%rip)
	movb	$0, 3529+state(%rip)
	movb	$0, 3530+state(%rip)
	movb	$0, 3531+state(%rip)
	movb	$0, 3532+state(%rip)
	movb	$0, 3533+state(%rip)
	movb	$0, 3534+state(%rip)
	movb	$0, 3535+state(%rip)
	movb	$0, 3536+state(%rip)
	movb	$0, 3537+state(%rip)
	movb	$0, 3538+state(%rip)
	movb	$0, 3539+state(%rip)
	movb	$0, 3540+state(%rip)
	movb	$0, 3541+state(%rip)
	movb	$0, 3542+state(%rip)
	movb	$0, 3543+state(%rip)
	movb	$0, 3544+state(%rip)
	movb	$0, 3545+state(%rip)
	movb	$0, 3546+state(%rip)
	movb	$0, 3547+state(%rip)
	movb	$0, 3548+state(%rip)
	movb	$0, 3549+state(%rip)
	movb	$0, 3550+state(%rip)
	movb	$0, 3551+state(%rip)
	movb	$0, 3552+state(%rip)
	movb	$0, 3553+state(%rip)
	movb	$0, 3554+state(%rip)
	movb	$0, 3555+state(%rip)
	movb	$0, 3556+state(%rip)
	movb	$0, 3557+state(%rip)
	movb	$0, 3558+state(%rip)
	movb	$0, 3559+state(%rip)
	movb	$0, 3560+state(%rip)
	movb	$0, 3561+state(%rip)
	movb	$0, 3562+state(%rip)
	movb	$0, 3563+state(%rip)
	movb	$0, 3564+state(%rip)
	movb	$0, 3565+state(%rip)
	movb	$0, 3566+state(%rip)
	movb	$0, 3567+state(%rip)
	movb	$0, 3568+state(%rip)
	movb	$0, 3569+state(%rip)
	movb	$0, 3570+state(%rip)
	movb	$0, 3571+state(%rip)
	movb	$0, 3572+state(%rip)
	movb	$0, 3573+state(%rip)
	movb	$0, 3574+state(%rip)
	movb	$0, 3575+state(%rip)
	movb	$0, 3576+state(%rip)
	movb	$0, 3577+state(%rip)
	movb	$0, 3578+state(%rip)
	movb	$0, 3579+state(%rip)
	movb	$0, 3580+state(%rip)
	movb	$0, 3581+state(%rip)
	movb	$0, 3582+state(%rip)
	movb	$0, 3583+state(%rip)
	movb	$0, 3584+state(%rip)
	movb	$0, 3585+state(%rip)
	movb	$0, 3586+state(%rip)
	movb	$0, 3587+state(%rip)
	movb	$0, 3588+state(%rip)
	movb	$0, 3589+state(%rip)
	movb	$0, 3590+state(%rip)
	movb	$0, 3591+state(%rip)
	movb	$0, 3592+state(%rip)
	movb	$0, 3593+state(%rip)
	movb	$0, 3594+state(%rip)
	movb	$0, 3595+state(%rip)
	movb	$0, 3596+state(%rip)
	movb	$0, 3597+state(%rip)
	movb	$0, 3598+state(%rip)
	movb	$0, 3599+state(%rip)
	movb	$0, 3600+state(%rip)
	movb	$0, 3601+state(%rip)
	movb	$0, 3602+state(%rip)
	movb	$0, 3603+state(%rip)
	movb	$0, 3604+state(%rip)
	movb	$0, 3605+state(%rip)
	movb	$0, 3606+state(%rip)
	movb	$0, 3607+state(%rip)
	movb	$0, 3608+state(%rip)
	movb	$0, 3609+state(%rip)
	movb	$0, 3610+state(%rip)
	movb	$0, 3611+state(%rip)
	movb	$0, 3612+state(%rip)
	movb	$0, 3613+state(%rip)
	movb	$0, 3614+state(%rip)
	movb	$0, 3615+state(%rip)
	movb	$0, 3616+state(%rip)
	movb	$0, 3617+state(%rip)
	movb	$0, 3618+state(%rip)
	movb	$0, 3619+state(%rip)
	movb	$0, 3620+state(%rip)
	movb	$0, 3621+state(%rip)
	movb	$0, 3622+state(%rip)
	movb	$0, 3623+state(%rip)
	movb	$0, 3624+state(%rip)
	movb	$0, 3625+state(%rip)
	movb	$0, 3626+state(%rip)
	movb	$0, 3627+state(%rip)
	movb	$0, 3628+state(%rip)
	movb	$0, 3629+state(%rip)
	movb	$0, 3630+state(%rip)
	movb	$0, 3631+state(%rip)
	movb	$0, 3632+state(%rip)
	movb	$0, 3633+state(%rip)
	movb	$0, 3634+state(%rip)
	movb	$0, 3635+state(%rip)
	movb	$0, 3636+state(%rip)
	movb	$0, 3637+state(%rip)
	movb	$0, 3638+state(%rip)
	movb	$0, 3639+state(%rip)
	movb	$0, 3640+state(%rip)
	movb	$0, 3641+state(%rip)
	movb	$0, 3642+state(%rip)
	movb	$0, 3643+state(%rip)
	movb	$0, 3644+state(%rip)
	movb	$0, 3645+state(%rip)
	movb	$0, 3646+state(%rip)
	movb	$0, 3647+state(%rip)
	movb	$0, 3648+state(%rip)
	movb	$0, 3649+state(%rip)
	movb	$0, 3650+state(%rip)
	movb	$0, 3651+state(%rip)
	movb	$0, 3652+state(%rip)
	movb	$0, 3653+state(%rip)
	movb	$0, 3654+state(%rip)
	movb	$0, 3655+state(%rip)
	movb	$0, 3656+state(%rip)
	movb	$0, 3657+state(%rip)
	movb	$0, 3658+state(%rip)
	movb	$0, 3659+state(%rip)
	movb	$0, 3660+state(%rip)
	movb	$0, 3661+state(%rip)
	movb	$0, 3662+state(%rip)
	movb	$0, 3663+state(%rip)
	movb	$0, 3664+state(%rip)
	movb	$0, 3665+state(%rip)
	movb	$0, 3666+state(%rip)
	movb	$0, 3667+state(%rip)
	movb	$0, 3668+state(%rip)
	movb	$0, 3669+state(%rip)
	movb	$0, 3670+state(%rip)
	movb	$0, 3671+state(%rip)
	movb	$0, 3672+state(%rip)
	movb	$0, 3673+state(%rip)
	movb	$0, 3674+state(%rip)
	movb	$0, 3675+state(%rip)
	movb	$0, 3676+state(%rip)
	movb	$0, 3677+state(%rip)
	movb	$0, 3678+state(%rip)
	movb	$0, 3679+state(%rip)
	movb	$0, 3680+state(%rip)
	movb	$0, 3681+state(%rip)
	movb	$0, 3682+state(%rip)
	movb	$0, 3683+state(%rip)
	movb	$0, 3684+state(%rip)
	movb	$0, 3685+state(%rip)
	movb	$0, 3686+state(%rip)
	movb	$0, 3687+state(%rip)
	movb	$0, 3688+state(%rip)
	movb	$0, 3689+state(%rip)
	movb	$0, 3690+state(%rip)
	movb	$0, 3691+state(%rip)
	movb	$0, 3692+state(%rip)
	movb	$0, 3693+state(%rip)
	movb	$0, 3694+state(%rip)
	movb	$0, 3695+state(%rip)
	movb	$0, 3696+state(%rip)
	movb	$0, 3697+state(%rip)
	movb	$0, 3698+state(%rip)
	movb	$0, 3699+state(%rip)
	movb	$0, 3700+state(%rip)
	movb	$0, 3701+state(%rip)
	movb	$0, 3702+state(%rip)
	movb	$0, 3703+state(%rip)
	movb	$0, 3704+state(%rip)
	movb	$0, 3705+state(%rip)
	movb	$0, 3706+state(%rip)
	movb	$0, 3707+state(%rip)
	movb	$0, 3708+state(%rip)
	movb	$0, 3709+state(%rip)
	movb	$0, 3710+state(%rip)
	movb	$0, 3711+state(%rip)
	movb	$0, 3712+state(%rip)
	movb	$0, 3713+state(%rip)
	movb	$0, 3714+state(%rip)
	movb	$0, 3715+state(%rip)
	movb	$0, 3716+state(%rip)
	movb	$0, 3717+state(%rip)
	movb	$0, 3718+state(%rip)
	movb	$0, 3719+state(%rip)
	movb	$0, 3720+state(%rip)
	movb	$0, 3721+state(%rip)
	movb	$0, 3722+state(%rip)
	movb	$0, 3723+state(%rip)
	movb	$0, 3724+state(%rip)
	movb	$0, 3725+state(%rip)
	movb	$0, 3726+state(%rip)
	movb	$0, 3727+state(%rip)
	movb	$0, 3728+state(%rip)
	movb	$0, 3729+state(%rip)
	movb	$0, 3730+state(%rip)
	movb	$0, 3731+state(%rip)
	movb	$0, 3732+state(%rip)
	movb	$0, 3733+state(%rip)
	movb	$0, 3734+state(%rip)
	movb	$0, 3735+state(%rip)
	movb	$0, 3736+state(%rip)
	movb	$0, 3737+state(%rip)
	movb	$0, 3738+state(%rip)
	movb	$0, 3739+state(%rip)
	movb	$0, 3740+state(%rip)
	movb	$0, 3741+state(%rip)
	movb	$0, 3742+state(%rip)
	movb	$0, 3743+state(%rip)
	movb	$0, 3744+state(%rip)
	movb	$0, 3745+state(%rip)
	movb	$0, 3746+state(%rip)
	movb	$0, 3747+state(%rip)
	movb	$0, 3748+state(%rip)
	movb	$0, 3749+state(%rip)
	movb	$0, 3750+state(%rip)
	movb	$0, 3751+state(%rip)
	movb	$0, 3752+state(%rip)
	movb	$0, 3753+state(%rip)
	movb	$0, 3754+state(%rip)
	movb	$0, 3755+state(%rip)
	movb	$0, 3756+state(%rip)
	movb	$0, 3757+state(%rip)
	movb	$0, 3758+state(%rip)
	movb	$0, 3759+state(%rip)
	movb	$0, 3760+state(%rip)
	movb	$0, 3761+state(%rip)
	movb	$0, 3762+state(%rip)
	movb	$0, 3763+state(%rip)
	movb	$0, 3764+state(%rip)
	movb	$0, 3765+state(%rip)
	movb	$0, 3766+state(%rip)
	movb	$0, 3767+state(%rip)
	movb	$0, 3768+state(%rip)
	movb	$0, 3769+state(%rip)
	movb	$0, 3770+state(%rip)
	movb	$0, 3771+state(%rip)
	movb	$0, 3772+state(%rip)
	movb	$0, 3773+state(%rip)
	movb	$0, 3774+state(%rip)
	movb	$0, 3775+state(%rip)
	movb	$0, 3776+state(%rip)
	movb	$0, 3777+state(%rip)
	movb	$0, 3778+state(%rip)
	movb	$0, 3779+state(%rip)
	movb	$0, 3780+state(%rip)
	movb	$0, 3781+state(%rip)
	movb	$0, 3782+state(%rip)
	movb	$0, 3783+state(%rip)
	movb	$0, 3784+state(%rip)
	movb	$0, 3785+state(%rip)
	movb	$0, 3786+state(%rip)
	movb	$0, 3787+state(%rip)
	movb	$0, 3788+state(%rip)
	movb	$0, 3789+state(%rip)
	movb	$0, 3790+state(%rip)
	movb	$0, 3791+state(%rip)
	movb	$0, 3792+state(%rip)
	movb	$0, 3793+state(%rip)
	movb	$0, 3794+state(%rip)
	movb	$0, 3795+state(%rip)
	movb	$0, 3796+state(%rip)
	movb	$0, 3797+state(%rip)
	movb	$0, 3798+state(%rip)
	movb	$0, 3799+state(%rip)
	movb	$0, 3800+state(%rip)
	movb	$0, 3801+state(%rip)
	movb	$0, 3802+state(%rip)
	movb	$0, 3803+state(%rip)
	movb	$0, 3804+state(%rip)
	movb	$0, 3805+state(%rip)
	movb	$0, 3806+state(%rip)
	movb	$0, 3807+state(%rip)
	movb	$0, 3808+state(%rip)
	movb	$0, 3809+state(%rip)
	movb	$0, 3810+state(%rip)
	movb	$0, 3811+state(%rip)
	movb	$0, 3812+state(%rip)
	movb	$0, 3813+state(%rip)
	movb	$0, 3814+state(%rip)
	movb	$0, 3815+state(%rip)
	movb	$0, 3816+state(%rip)
	movb	$0, 3817+state(%rip)
	movb	$0, 3818+state(%rip)
	movb	$0, 3819+state(%rip)
	movb	$0, 3820+state(%rip)
	movb	$0, 3821+state(%rip)
	movb	$0, 3822+state(%rip)
	movb	$0, 3823+state(%rip)
	movb	$0, 3824+state(%rip)
	movb	$0, 3825+state(%rip)
	movb	$0, 3826+state(%rip)
	movb	$0, 3827+state(%rip)
	movb	$0, 3828+state(%rip)
	movb	$0, 3829+state(%rip)
	movb	$0, 3830+state(%rip)
	movb	$0, 3831+state(%rip)
	movb	$0, 3832+state(%rip)
	movb	$0, 3833+state(%rip)
	movb	$0, 3834+state(%rip)
	movb	$0, 3835+state(%rip)
	movb	$0, 3836+state(%rip)
	movb	$0, 3837+state(%rip)
	movb	$0, 3838+state(%rip)
	movb	$0, 3839+state(%rip)
	movb	$0, 3840+state(%rip)
	movb	$0, 3841+state(%rip)
	movb	$0, 3842+state(%rip)
	movb	$0, 3843+state(%rip)
	movb	$0, 3844+state(%rip)
	movb	$0, 3845+state(%rip)
	movb	$0, 3846+state(%rip)
	movb	$0, 3847+state(%rip)
	movb	$0, 3848+state(%rip)
	movb	$0, 3849+state(%rip)
	movb	$0, 3850+state(%rip)
	movb	$0, 3851+state(%rip)
	movb	$0, 3852+state(%rip)
	movb	$0, 3853+state(%rip)
	movb	$0, 3854+state(%rip)
	movb	$0, 3855+state(%rip)
	movb	$0, 3856+state(%rip)
	movb	$0, 3857+state(%rip)
	movb	$0, 3858+state(%rip)
	movb	$0, 3859+state(%rip)
	movb	$0, 3860+state(%rip)
	movb	$0, 3861+state(%rip)
	movb	$0, 3862+state(%rip)
	movb	$0, 3863+state(%rip)
	movb	$0, 3864+state(%rip)
	movb	$0, 3865+state(%rip)
	movb	$0, 3866+state(%rip)
	movb	$0, 3867+state(%rip)
	movb	$0, 3868+state(%rip)
	movb	$0, 3869+state(%rip)
	movb	$0, 3870+state(%rip)
	movb	$0, 3871+state(%rip)
	movb	$0, 3872+state(%rip)
	movb	$0, 3873+state(%rip)
	movb	$0, 3874+state(%rip)
	movb	$0, 3875+state(%rip)
	movb	$0, 3876+state(%rip)
	movb	$0, 3877+state(%rip)
	movb	$0, 3878+state(%rip)
	movb	$0, 3879+state(%rip)
	movb	$0, 3880+state(%rip)
	movb	$0, 3881+state(%rip)
	movb	$0, 3882+state(%rip)
	movb	$0, 3883+state(%rip)
	movb	$0, 3884+state(%rip)
	movb	$0, 3885+state(%rip)
	movb	$0, 3886+state(%rip)
	movb	$0, 3887+state(%rip)
	movb	$0, 3888+state(%rip)
	movb	$0, 3889+state(%rip)
	movb	$0, 3890+state(%rip)
	movb	$0, 3891+state(%rip)
	movb	$0, 3892+state(%rip)
	movb	$0, 3893+state(%rip)
	movb	$0, 3894+state(%rip)
	movb	$0, 3895+state(%rip)
	movb	$0, 3896+state(%rip)
	movb	$0, 3897+state(%rip)
	movb	$0, 3898+state(%rip)
	movb	$0, 3899+state(%rip)
	movb	$0, 3900+state(%rip)
	movb	$0, 3901+state(%rip)
	movb	$0, 3902+state(%rip)
	movb	$0, 3903+state(%rip)
	movb	$0, 3904+state(%rip)
	movb	$0, 3905+state(%rip)
	movb	$0, 3906+state(%rip)
	movb	$0, 3907+state(%rip)
	movb	$0, 3908+state(%rip)
	movb	$0, 3909+state(%rip)
	movb	$0, 3910+state(%rip)
	movb	$0, 3911+state(%rip)
	movb	$0, 3912+state(%rip)
	movb	$0, 3913+state(%rip)
	movb	$0, 3914+state(%rip)
	movb	$0, 3915+state(%rip)
	movb	$0, 3916+state(%rip)
	movb	$0, 3917+state(%rip)
	movb	$0, 3918+state(%rip)
	movb	$0, 3919+state(%rip)
	movb	$0, 3920+state(%rip)
	movb	$0, 3921+state(%rip)
	movb	$0, 3922+state(%rip)
	movb	$0, 3923+state(%rip)
	movb	$0, 3924+state(%rip)
	movb	$0, 3925+state(%rip)
	movb	$0, 3926+state(%rip)
	movb	$0, 3927+state(%rip)
	movb	$0, 3928+state(%rip)
	movb	$0, 3929+state(%rip)
	movb	$0, 3930+state(%rip)
	movb	$0, 3931+state(%rip)
	movb	$0, 3932+state(%rip)
	movb	$0, 3933+state(%rip)
	movb	$0, 3934+state(%rip)
	movb	$0, 3935+state(%rip)
	movb	$0, 3936+state(%rip)
	movb	$0, 3937+state(%rip)
	movb	$0, 3938+state(%rip)
	movb	$0, 3939+state(%rip)
	movb	$0, 3940+state(%rip)
	movb	$0, 3941+state(%rip)
	movb	$0, 3942+state(%rip)
	movb	$0, 3943+state(%rip)
	movb	$0, 3944+state(%rip)
	movb	$0, 3945+state(%rip)
	movb	$0, 3946+state(%rip)
	movb	$0, 3947+state(%rip)
	movb	$0, 3948+state(%rip)
	movb	$0, 3949+state(%rip)
	movb	$0, 3950+state(%rip)
	movb	$0, 3951+state(%rip)
	movb	$0, 3952+state(%rip)
	movb	$0, 3953+state(%rip)
	movb	$0, 3954+state(%rip)
	movb	$0, 3955+state(%rip)
	movb	$0, 3956+state(%rip)
	movb	$0, 3957+state(%rip)
	movb	$0, 3958+state(%rip)
	movb	$0, 3959+state(%rip)
	movb	$0, 3960+state(%rip)
	movb	$0, 3961+state(%rip)
	movb	$0, 3962+state(%rip)
	movb	$0, 3963+state(%rip)
	movb	$0, 3964+state(%rip)
	movb	$0, 3965+state(%rip)
	movb	$0, 3966+state(%rip)
	movb	$0, 3967+state(%rip)
	movb	$0, 3968+state(%rip)
	movb	$0, 3969+state(%rip)
	movb	$0, 3970+state(%rip)
	movb	$0, 3971+state(%rip)
	movb	$0, 3972+state(%rip)
	movb	$0, 3973+state(%rip)
	movb	$0, 3974+state(%rip)
	movb	$0, 3975+state(%rip)
	movb	$0, 3976+state(%rip)
	movb	$0, 3977+state(%rip)
	movb	$0, 3978+state(%rip)
	movb	$0, 3979+state(%rip)
	movb	$0, 3980+state(%rip)
	movb	$0, 3981+state(%rip)
	movb	$0, 3982+state(%rip)
	movb	$0, 3983+state(%rip)
	movb	$0, 3984+state(%rip)
	movb	$0, 3985+state(%rip)
	movb	$0, 3986+state(%rip)
	movb	$0, 3987+state(%rip)
	movb	$0, 3988+state(%rip)
	movb	$0, 3989+state(%rip)
	movb	$0, 3990+state(%rip)
	movb	$0, 3991+state(%rip)
	movb	$0, 3992+state(%rip)
	movb	$0, 3993+state(%rip)
	movb	$0, 3994+state(%rip)
	movb	$0, 3995+state(%rip)
	movb	$0, 3996+state(%rip)
	movb	$0, 3997+state(%rip)
	movb	$0, 3998+state(%rip)
	movb	$0, 3999+state(%rip)
	movb	$0, 4000+state(%rip)
	movb	$0, 4001+state(%rip)
	movb	$0, 4002+state(%rip)
	movb	$0, 4003+state(%rip)
	movb	$0, 4004+state(%rip)
	movb	$0, 4005+state(%rip)
	movb	$0, 4006+state(%rip)
	movb	$0, 4007+state(%rip)
	movb	$0, 4008+state(%rip)
	movb	$0, 4009+state(%rip)
	movb	$0, 4010+state(%rip)
	movb	$0, 4011+state(%rip)
	movb	$0, 4012+state(%rip)
	movb	$0, 4013+state(%rip)
	movb	$0, 4014+state(%rip)
	movb	$0, 4015+state(%rip)
	movb	$0, 4016+state(%rip)
	movb	$0, 4017+state(%rip)
	movb	$0, 4018+state(%rip)
	movb	$0, 4019+state(%rip)
	movb	$0, 4020+state(%rip)
	movb	$0, 4021+state(%rip)
	movb	$0, 4022+state(%rip)
	movb	$0, 4023+state(%rip)
	movb	$0, 4024+state(%rip)
	movb	$0, 4025+state(%rip)
	movb	$0, 4026+state(%rip)
	movb	$0, 4027+state(%rip)
	movb	$0, 4028+state(%rip)
	movb	$0, 4029+state(%rip)
	movb	$0, 4030+state(%rip)
	movb	$0, 4031+state(%rip)
	movb	$0, 4032+state(%rip)
	movb	$0, 4033+state(%rip)
	movb	$0, 4034+state(%rip)
	movb	$0, 4035+state(%rip)
	movb	$0, 4036+state(%rip)
	movb	$0, 4037+state(%rip)
	movb	$0, 4038+state(%rip)
	movb	$0, 4039+state(%rip)
	movb	$0, 4040+state(%rip)
	movb	$0, 4041+state(%rip)
	movb	$0, 4042+state(%rip)
	movb	$0, 4043+state(%rip)
	movb	$0, 4044+state(%rip)
	movb	$0, 4045+state(%rip)
	movb	$0, 4046+state(%rip)
	movb	$0, 4047+state(%rip)
	movb	$0, 4048+state(%rip)
	movb	$0, 4049+state(%rip)
	movb	$0, 4050+state(%rip)
	movb	$0, 4051+state(%rip)
	movb	$0, 4052+state(%rip)
	movb	$0, 4053+state(%rip)
	movb	$0, 4054+state(%rip)
	movb	$0, 4055+state(%rip)
	movb	$0, 4056+state(%rip)
	movb	$0, 4057+state(%rip)
	movb	$0, 4058+state(%rip)
	movb	$0, 4059+state(%rip)
	movb	$0, 4060+state(%rip)
	movb	$0, 4061+state(%rip)
	movb	$0, 4062+state(%rip)
	movb	$0, 4063+state(%rip)
	movb	$0, 4064+state(%rip)
	movb	$0, 4065+state(%rip)
	movb	$0, 4066+state(%rip)
	movb	$0, 4067+state(%rip)
	movb	$0, 4068+state(%rip)
	movb	$0, 4069+state(%rip)
	movb	$0, 4070+state(%rip)
	movb	$0, 4071+state(%rip)
	movb	$0, 4072+state(%rip)
	movb	$0, 4073+state(%rip)
	movb	$0, 4074+state(%rip)
	movb	$0, 4075+state(%rip)
	movb	$0, 4076+state(%rip)
	movb	$0, 4077+state(%rip)
	movb	$0, 4078+state(%rip)
	movb	$0, 4079+state(%rip)
	movb	$0, 4080+state(%rip)
	movb	$0, 4081+state(%rip)
	movb	$0, 4082+state(%rip)
	movb	$0, 4083+state(%rip)
	movb	$0, 4084+state(%rip)
	movb	$0, 4085+state(%rip)
	movb	$0, 4086+state(%rip)
	movb	$0, 4087+state(%rip)
	movb	$0, 4088+state(%rip)
	movb	$0, 4089+state(%rip)
	movb	$0, 4090+state(%rip)
	movb	$0, 4091+state(%rip)
	movb	$0, 4092+state(%rip)
	movb	$0, 4093+state(%rip)
	movb	$0, 4094+state(%rip)
	movb	$0, 4095+state(%rip)
	movb	$0, 4096+state(%rip)
	movb	$0, 4097+state(%rip)
	movb	$0, 4098+state(%rip)
	movb	$0, 4099+state(%rip)
	movb	$0, 4100+state(%rip)
	movb	$0, 4101+state(%rip)
	movb	$0, 4102+state(%rip)
	movb	$0, 4103+state(%rip)
	movb	$0, 4104+state(%rip)
	movb	$0, 4105+state(%rip)
	movb	$0, 4106+state(%rip)
	movb	$0, 4107+state(%rip)
	movb	$0, 4108+state(%rip)
	movb	$0, 4109+state(%rip)
	movb	$0, 4110+state(%rip)
	movb	$0, 4111+state(%rip)
	movb	$0, 4112+state(%rip)
	movb	$0, 4113+state(%rip)
	movb	$0, 4114+state(%rip)
	movb	$0, 4115+state(%rip)
	movb	$0, 4116+state(%rip)
	movb	$0, 4117+state(%rip)
	movb	$0, 4118+state(%rip)
	movb	$0, 4119+state(%rip)
	movb	$0, 4120+state(%rip)
	movb	$0, 4121+state(%rip)
	movb	$0, 4122+state(%rip)
	movb	$0, 4123+state(%rip)
	movb	$0, 4124+state(%rip)
	movb	$0, 4125+state(%rip)
	movb	$0, 4126+state(%rip)
	movb	$0, 4127+state(%rip)
	movb	$0, 4128+state(%rip)
	movb	$0, 4129+state(%rip)
	movb	$0, 4130+state(%rip)
	movb	$0, 4131+state(%rip)
	movb	$0, 4132+state(%rip)
	movb	$0, 4133+state(%rip)
	movb	$0, 4134+state(%rip)
	movb	$0, 4135+state(%rip)
	movb	$0, 4136+state(%rip)
	movb	$0, 4137+state(%rip)
	movb	$0, 4138+state(%rip)
	movb	$0, 4139+state(%rip)
	movb	$0, 4140+state(%rip)
	movb	$0, 4141+state(%rip)
	movb	$0, 4142+state(%rip)
	movb	$0, 4143+state(%rip)
	movb	$0, 4144+state(%rip)
	movb	$0, 4145+state(%rip)
	movb	$0, 4146+state(%rip)
	movb	$0, 4147+state(%rip)
	movb	$0, 4148+state(%rip)
	movb	$0, 4149+state(%rip)
	movb	$0, 4150+state(%rip)
	movb	$0, 4151+state(%rip)
	movb	$0, 4152+state(%rip)
	movb	$0, 4153+state(%rip)
	movb	$0, 4154+state(%rip)
	movb	$0, 4155+state(%rip)
	movb	$0, 4156+state(%rip)
	movb	$0, 4157+state(%rip)
	movb	$0, 4158+state(%rip)
	movb	$0, 4159+state(%rip)
	movb	$0, 4160+state(%rip)
	movb	$0, 4161+state(%rip)
	movb	$0, 4162+state(%rip)
	movb	$0, 4163+state(%rip)
	movb	$0, 4164+state(%rip)
	movb	$0, 4165+state(%rip)
	movb	$0, 4166+state(%rip)
	movb	$0, 4167+state(%rip)
	movb	$0, 4168+state(%rip)
	movb	$0, 4169+state(%rip)
	movb	$0, 4170+state(%rip)
	movb	$0, 4171+state(%rip)
	movb	$0, 4172+state(%rip)
	movb	$0, 4173+state(%rip)
	movb	$0, 4174+state(%rip)
	movb	$0, 4175+state(%rip)
	movb	$0, 4176+state(%rip)
	movb	$0, 4177+state(%rip)
	movb	$0, 4178+state(%rip)
	movb	$0, 4179+state(%rip)
	movb	$0, 4180+state(%rip)
	movb	$0, 4181+state(%rip)
	movb	$0, 4182+state(%rip)
	movb	$0, 4183+state(%rip)
	movb	$0, 4184+state(%rip)
	movb	$0, 4185+state(%rip)
	movb	$0, 4186+state(%rip)
	movb	$0, 4187+state(%rip)
	movb	$0, 4188+state(%rip)
	movb	$0, 4189+state(%rip)
	movb	$0, 4190+state(%rip)
	movb	$0, 4191+state(%rip)
	movb	$0, 4192+state(%rip)
	movb	$0, 4193+state(%rip)
	movb	$0, 4194+state(%rip)
	movb	$0, 4195+state(%rip)
	movb	$0, 4196+state(%rip)
	movb	$0, 4197+state(%rip)
	movb	$0, 4198+state(%rip)
	movb	$0, 4199+state(%rip)
	movb	$0, 4200+state(%rip)
	movb	$0, 4201+state(%rip)
	movb	$0, 4202+state(%rip)
	movb	$0, 4203+state(%rip)
	movb	$0, 4204+state(%rip)
	movb	$0, 4205+state(%rip)
	movb	$0, 4206+state(%rip)
	movb	$0, 4207+state(%rip)
	movb	$0, 4208+state(%rip)
	movb	$0, 4209+state(%rip)
	movb	$0, 4210+state(%rip)
	movb	$0, 4211+state(%rip)
	movb	$0, 4212+state(%rip)
	movb	$0, 4213+state(%rip)
	movb	$0, 4214+state(%rip)
	movb	$0, 4215+state(%rip)
	movb	$0, 4216+state(%rip)
	movb	$0, 4217+state(%rip)
	movb	$0, 4218+state(%rip)
	movb	$0, 4219+state(%rip)
	movb	$0, 4220+state(%rip)
	movb	$0, 4221+state(%rip)
	movb	$0, 4222+state(%rip)
	movb	$0, 4223+state(%rip)
	movb	$0, 4224+state(%rip)
	movb	$0, 4225+state(%rip)
	movb	$0, 4226+state(%rip)
	movb	$0, 4227+state(%rip)
	movb	$0, 4228+state(%rip)
	movb	$0, 4229+state(%rip)
	movb	$0, 4230+state(%rip)
	movb	$0, 4231+state(%rip)
	movb	$0, 4232+state(%rip)
	movb	$0, 4233+state(%rip)
	movb	$0, 4234+state(%rip)
	movb	$0, 4235+state(%rip)
	movb	$0, 4236+state(%rip)
	movb	$0, 4237+state(%rip)
	movb	$0, 4238+state(%rip)
	movb	$0, 4239+state(%rip)
	movb	$0, 4240+state(%rip)
	movb	$0, 4241+state(%rip)
	movb	$0, 4242+state(%rip)
	movb	$0, 4243+state(%rip)
	movb	$0, 4244+state(%rip)
	movb	$0, 4245+state(%rip)
	movb	$0, 4246+state(%rip)
	movb	$0, 4247+state(%rip)
	movb	$0, 4248+state(%rip)
	movb	$0, 4249+state(%rip)
	movb	$0, 4250+state(%rip)
	movb	$0, 4251+state(%rip)
	movb	$0, 4252+state(%rip)
	movb	$0, 4253+state(%rip)
	movb	$0, 4254+state(%rip)
	movb	$0, 4255+state(%rip)
	movb	$0, 4256+state(%rip)
	movb	$0, 4257+state(%rip)
	movb	$0, 4258+state(%rip)
	movb	$0, 4259+state(%rip)
	movb	$0, 4260+state(%rip)
	movb	$0, 4261+state(%rip)
	movb	$0, 4262+state(%rip)
	movb	$0, 4263+state(%rip)
	movb	$0, 4264+state(%rip)
	movb	$0, 4265+state(%rip)
	movb	$0, 4266+state(%rip)
	movb	$0, 4267+state(%rip)
	movb	$0, 4268+state(%rip)
	movb	$0, 4269+state(%rip)
	movb	$0, 4270+state(%rip)
	movb	$0, 4271+state(%rip)
	movb	$0, 4272+state(%rip)
	movb	$0, 4273+state(%rip)
	movb	$0, 4274+state(%rip)
	movb	$0, 4275+state(%rip)
	movb	$0, 4276+state(%rip)
	movb	$0, 4277+state(%rip)
	movb	$0, 4278+state(%rip)
	movb	$0, 4279+state(%rip)
	movb	$0, 4280+state(%rip)
	movb	$0, 4281+state(%rip)
	movb	$0, 4282+state(%rip)
	movb	$0, 4283+state(%rip)
	movb	$0, 4284+state(%rip)
	movb	$0, 4285+state(%rip)
	movb	$0, 4286+state(%rip)
	movb	$0, 4287+state(%rip)
	movb	$0, 4288+state(%rip)
	movb	$0, 4289+state(%rip)
	movb	$0, 4290+state(%rip)
	movb	$0, 4291+state(%rip)
	movb	$0, 4292+state(%rip)
	movb	$0, 4293+state(%rip)
	movb	$0, 4294+state(%rip)
	movb	$0, 4295+state(%rip)
	movb	$0, 4296+state(%rip)
	movb	$0, 4297+state(%rip)
	movb	$0, 4298+state(%rip)
	movb	$0, 4299+state(%rip)
	movb	$0, 4300+state(%rip)
	movb	$0, 4301+state(%rip)
	movb	$0, 4302+state(%rip)
	movb	$0, 4303+state(%rip)
	movb	$0, 4304+state(%rip)
	movb	$0, 4305+state(%rip)
	movb	$0, 4306+state(%rip)
	movb	$0, 4307+state(%rip)
	movb	$0, 4308+state(%rip)
	movb	$0, 4309+state(%rip)
	movb	$0, 4310+state(%rip)
	movb	$0, 4311+state(%rip)
	movb	$0, 4312+state(%rip)
	movb	$0, 4313+state(%rip)
	movb	$0, 4314+state(%rip)
	movb	$0, 4315+state(%rip)
	movb	$0, 4316+state(%rip)
	movb	$0, 4317+state(%rip)
	movb	$0, 4318+state(%rip)
	movb	$0, 4319+state(%rip)
	movb	$0, 4320+state(%rip)
	movb	$0, 4321+state(%rip)
	movb	$0, 4322+state(%rip)
	movb	$0, 4323+state(%rip)
	movb	$0, 4324+state(%rip)
	movb	$0, 4325+state(%rip)
	movb	$0, 4326+state(%rip)
	movb	$0, 4327+state(%rip)
	movb	$0, 4328+state(%rip)
	movb	$0, 4329+state(%rip)
	movb	$0, 4330+state(%rip)
	movb	$0, 4331+state(%rip)
	movb	$0, 4332+state(%rip)
	movb	$0, 4333+state(%rip)
	movb	$0, 4334+state(%rip)
	movb	$0, 4335+state(%rip)
	movb	$0, 4336+state(%rip)
	movb	$0, 4337+state(%rip)
	movb	$0, 4338+state(%rip)
	movb	$0, 4339+state(%rip)
	movb	$0, 4340+state(%rip)
	movb	$0, 4341+state(%rip)
	movb	$0, 4342+state(%rip)
	movb	$0, 4343+state(%rip)
	movb	$0, 4344+state(%rip)
	movb	$0, 4345+state(%rip)
	movb	$0, 4346+state(%rip)
	movb	$0, 4347+state(%rip)
	movb	$0, 4348+state(%rip)
	movb	$0, 4349+state(%rip)
	movb	$0, 4350+state(%rip)
	movb	$0, 4351+state(%rip)
	movb	$0, 4352+state(%rip)
	movb	$0, 4353+state(%rip)
	movb	$0, 4354+state(%rip)
	movb	$0, 4355+state(%rip)
	movb	$0, 4356+state(%rip)
	movb	$0, 4357+state(%rip)
	movb	$0, 4358+state(%rip)
	movb	$0, 4359+state(%rip)
	movb	$0, 4360+state(%rip)
	movb	$0, 4361+state(%rip)
	movb	$0, 4362+state(%rip)
	movb	$0, 4363+state(%rip)
	movb	$0, 4364+state(%rip)
	movb	$0, 4365+state(%rip)
	movb	$0, 4366+state(%rip)
	movb	$0, 4367+state(%rip)
	movb	$0, 4368+state(%rip)
	movb	$0, 4369+state(%rip)
	movb	$0, 4370+state(%rip)
	movb	$0, 4371+state(%rip)
	movb	$0, 4372+state(%rip)
	movb	$0, 4373+state(%rip)
	movb	$0, 4374+state(%rip)
	movb	$0, 4375+state(%rip)
	movb	$0, 4376+state(%rip)
	movb	$0, 4377+state(%rip)
	movb	$0, 4378+state(%rip)
	movb	$0, 4379+state(%rip)
	movb	$0, 4380+state(%rip)
	movb	$0, 4381+state(%rip)
	movb	$0, 4382+state(%rip)
	movb	$0, 4383+state(%rip)
	movb	$0, 4384+state(%rip)
	movb	$0, 4385+state(%rip)
	movb	$0, 4386+state(%rip)
	movb	$0, 4387+state(%rip)
	movb	$0, 4388+state(%rip)
	movb	$0, 4389+state(%rip)
	movb	$0, 4390+state(%rip)
	movb	$0, 4391+state(%rip)
	movb	$0, 4392+state(%rip)
	movb	$0, 4393+state(%rip)
	movb	$0, 4394+state(%rip)
	movb	$0, 4395+state(%rip)
	movb	$0, 4396+state(%rip)
	movb	$0, 4397+state(%rip)
	movb	$0, 4398+state(%rip)
	movb	$0, 4399+state(%rip)
	movb	$0, 4400+state(%rip)
	movb	$0, 4401+state(%rip)
	movb	$0, 4402+state(%rip)
	movb	$0, 4403+state(%rip)
	movb	$0, 4404+state(%rip)
	movb	$0, 4405+state(%rip)
	movb	$0, 4406+state(%rip)
	movb	$0, 4407+state(%rip)
	movb	$0, 4408+state(%rip)
	movb	$0, 4409+state(%rip)
	movb	$0, 4410+state(%rip)
	movb	$0, 4411+state(%rip)
	movb	$0, 4412+state(%rip)
	movb	$0, 4413+state(%rip)
	movb	$0, 4414+state(%rip)
	movb	$0, 4415+state(%rip)
	movb	$0, 4416+state(%rip)
	movb	$0, 4417+state(%rip)
	movb	$0, 4418+state(%rip)
	movb	$0, 4419+state(%rip)
	movb	$0, 4420+state(%rip)
	movb	$0, 4421+state(%rip)
	movb	$0, 4422+state(%rip)
	movb	$0, 4423+state(%rip)
	movb	$0, 4424+state(%rip)
	movb	$0, 4425+state(%rip)
	movb	$0, 4426+state(%rip)
	movb	$0, 4427+state(%rip)
	movb	$0, 4428+state(%rip)
	movb	$0, 4429+state(%rip)
	movb	$0, 4430+state(%rip)
	movb	$0, 4431+state(%rip)
	movb	$0, 4432+state(%rip)
	movb	$0, 4433+state(%rip)
	movb	$0, 4434+state(%rip)
	movb	$0, 4435+state(%rip)
	movb	$0, 4436+state(%rip)
	movb	$0, 4437+state(%rip)
	movb	$0, 4438+state(%rip)
	movb	$0, 4439+state(%rip)
	movb	$0, 4440+state(%rip)
	movb	$0, 4441+state(%rip)
	movb	$0, 4442+state(%rip)
	movb	$0, 4443+state(%rip)
	movb	$0, 4444+state(%rip)
	movb	$0, 4445+state(%rip)
	movb	$0, 4446+state(%rip)
	movb	$0, 4447+state(%rip)
	movb	$0, 4448+state(%rip)
	movb	$0, 4449+state(%rip)
	movb	$0, 4450+state(%rip)
	movb	$0, 4451+state(%rip)
	movb	$0, 4452+state(%rip)
	movb	$0, 4453+state(%rip)
	movb	$0, 4454+state(%rip)
	movb	$0, 4455+state(%rip)
	movb	$0, 4456+state(%rip)
	movb	$0, 4457+state(%rip)
	movb	$0, 4458+state(%rip)
	movb	$0, 4459+state(%rip)
	movb	$0, 4460+state(%rip)
	movb	$0, 4461+state(%rip)
	movb	$0, 4462+state(%rip)
	movb	$0, 4463+state(%rip)
	movb	$0, 4464+state(%rip)
	movb	$0, 4465+state(%rip)
	movb	$0, 4466+state(%rip)
	movb	$0, 4467+state(%rip)
	movb	$0, 4468+state(%rip)
	movb	$0, 4469+state(%rip)
	movb	$0, 4470+state(%rip)
	movb	$0, 4471+state(%rip)
	movb	$0, 4472+state(%rip)
	movb	$0, 4473+state(%rip)
	movb	$0, 4474+state(%rip)
	movb	$0, 4475+state(%rip)
	movb	$0, 4476+state(%rip)
	movb	$0, 4477+state(%rip)
	movb	$0, 4478+state(%rip)
	movb	$0, 4479+state(%rip)
	movb	$0, 4480+state(%rip)
	movb	$0, 4481+state(%rip)
	movb	$0, 4482+state(%rip)
	movb	$0, 4483+state(%rip)
	movb	$0, 4484+state(%rip)
	movb	$0, 4485+state(%rip)
	movb	$0, 4486+state(%rip)
	movb	$0, 4487+state(%rip)
	movb	$0, 4488+state(%rip)
	movb	$0, 4489+state(%rip)
	movb	$0, 4490+state(%rip)
	movb	$0, 4491+state(%rip)
	movb	$0, 4492+state(%rip)
	movb	$0, 4493+state(%rip)
	movb	$0, 4494+state(%rip)
	movb	$0, 4495+state(%rip)
	movb	$0, 4496+state(%rip)
	movb	$0, 4497+state(%rip)
	movb	$0, 4498+state(%rip)
	movb	$0, 4499+state(%rip)
	movb	$0, 4500+state(%rip)
	movb	$0, 4501+state(%rip)
	movb	$0, 4502+state(%rip)
	movb	$0, 4503+state(%rip)
	movb	$0, 4504+state(%rip)
	movb	$0, 4505+state(%rip)
	movb	$0, 4506+state(%rip)
	movb	$0, 4507+state(%rip)
	movb	$0, 4508+state(%rip)
	movb	$0, 4509+state(%rip)
	movb	$0, 4510+state(%rip)
	movb	$0, 4511+state(%rip)
	movb	$0, 4512+state(%rip)
	movb	$0, 4513+state(%rip)
	movb	$0, 4514+state(%rip)
	movb	$0, 4515+state(%rip)
	movb	$0, 4516+state(%rip)
	movb	$0, 4517+state(%rip)
	movb	$0, 4518+state(%rip)
	movb	$0, 4519+state(%rip)
	movb	$0, 4520+state(%rip)
	movb	$0, 4521+state(%rip)
	movb	$0, 4522+state(%rip)
	movb	$0, 4523+state(%rip)
	movb	$0, 4524+state(%rip)
	movb	$0, 4525+state(%rip)
	movb	$0, 4526+state(%rip)
	movb	$0, 4527+state(%rip)
	movb	$0, 4528+state(%rip)
	movb	$0, 4529+state(%rip)
	movb	$0, 4530+state(%rip)
	movb	$0, 4531+state(%rip)
	movb	$0, 4532+state(%rip)
	movb	$0, 4533+state(%rip)
	movb	$0, 4534+state(%rip)
	movb	$0, 4535+state(%rip)
	movb	$0, 4536+state(%rip)
	movb	$0, 4537+state(%rip)
	movb	$0, 4538+state(%rip)
	movb	$0, 4539+state(%rip)
	movb	$0, 4540+state(%rip)
	movb	$0, 4541+state(%rip)
	movb	$0, 4542+state(%rip)
	movb	$0, 4543+state(%rip)
	movb	$0, 4544+state(%rip)
	movb	$0, 4545+state(%rip)
	movb	$0, 4546+state(%rip)
	movb	$0, 4547+state(%rip)
	movb	$0, 4548+state(%rip)
	movb	$0, 4549+state(%rip)
	movb	$0, 4550+state(%rip)
	movb	$0, 4551+state(%rip)
	movb	$0, 4552+state(%rip)
	movb	$0, 4553+state(%rip)
	movb	$0, 4554+state(%rip)
	movb	$0, 4555+state(%rip)
	movb	$0, 4556+state(%rip)
	movb	$0, 4557+state(%rip)
	movb	$0, 4558+state(%rip)
	movb	$0, 4559+state(%rip)
	movb	$0, 4560+state(%rip)
	movb	$0, 4561+state(%rip)
	movb	$0, 4562+state(%rip)
	movb	$0, 4563+state(%rip)
	movb	$0, 4564+state(%rip)
	movb	$0, 4565+state(%rip)
	movb	$0, 4566+state(%rip)
	movb	$0, 4567+state(%rip)
	movb	$0, 4568+state(%rip)
	movb	$0, 4569+state(%rip)
	movb	$0, 4570+state(%rip)
	movb	$0, 4571+state(%rip)
	movb	$0, 4572+state(%rip)
	movb	$0, 4573+state(%rip)
	movb	$0, 4574+state(%rip)
	movb	$0, 4575+state(%rip)
	movb	$0, 4576+state(%rip)
	movb	$0, 4577+state(%rip)
	movb	$0, 4578+state(%rip)
	movb	$0, 4579+state(%rip)
	movb	$0, 4580+state(%rip)
	movb	$0, 4581+state(%rip)
	movb	$0, 4582+state(%rip)
	movb	$0, 4583+state(%rip)
	movb	$0, 4584+state(%rip)
	movb	$0, 4585+state(%rip)
	movb	$0, 4586+state(%rip)
	movb	$0, 4587+state(%rip)
	movb	$0, 4588+state(%rip)
	movb	$0, 4589+state(%rip)
	movb	$0, 4590+state(%rip)
	movb	$0, 4591+state(%rip)
	movb	$0, 4592+state(%rip)
	movb	$0, 4593+state(%rip)
	movb	$0, 4594+state(%rip)
	movb	$0, 4595+state(%rip)
	movb	$0, 4596+state(%rip)
	movb	$0, 4597+state(%rip)
	movb	$0, 4598+state(%rip)
	movb	$0, 4599+state(%rip)
	movb	$0, 4600+state(%rip)
	movb	$0, 4601+state(%rip)
	movb	$0, 4602+state(%rip)
	movb	$0, 4603+state(%rip)
	movb	$0, 4604+state(%rip)
	movb	$0, 4605+state(%rip)
	movb	$0, 4606+state(%rip)
	movb	$0, 4607+state(%rip)
	movb	$0, 4608+state(%rip)
	movb	$0, 4609+state(%rip)
	movb	$0, 4610+state(%rip)
	movb	$0, 4611+state(%rip)
	movb	$0, 4612+state(%rip)
	movb	$0, 4613+state(%rip)
	movb	$0, 4614+state(%rip)
	movb	$0, 4615+state(%rip)
	movb	$0, 4616+state(%rip)
	movb	$0, 4617+state(%rip)
	movb	$0, 4618+state(%rip)
	movb	$0, 4619+state(%rip)
	movb	$0, 4620+state(%rip)
	movb	$0, 4621+state(%rip)
	movb	$0, 4622+state(%rip)
	movb	$0, 4623+state(%rip)
	movb	$0, 4624+state(%rip)
	movb	$0, 4625+state(%rip)
	movb	$0, 4626+state(%rip)
	movb	$0, 4627+state(%rip)
	movb	$0, 4628+state(%rip)
	movb	$0, 4629+state(%rip)
	movb	$0, 4630+state(%rip)
	movb	$0, 4631+state(%rip)
	movb	$0, 4632+state(%rip)
	movb	$0, 4633+state(%rip)
	movb	$0, 4634+state(%rip)
	movb	$0, 4635+state(%rip)
	movb	$0, 4636+state(%rip)
	movb	$0, 4637+state(%rip)
	movb	$0, 4638+state(%rip)
	movb	$0, 4639+state(%rip)
	movb	$0, 4640+state(%rip)
	movb	$0, 4641+state(%rip)
	movb	$0, 4642+state(%rip)
	movb	$0, 4643+state(%rip)
	movb	$0, 4644+state(%rip)
	movb	$0, 4645+state(%rip)
	movb	$0, 4646+state(%rip)
	movb	$0, 4647+state(%rip)
	movb	$0, 4648+state(%rip)
	movb	$0, 4649+state(%rip)
	movb	$0, 4650+state(%rip)
	movb	$0, 4651+state(%rip)
	movb	$0, 4652+state(%rip)
	movb	$0, 4653+state(%rip)
	movb	$0, 4654+state(%rip)
	movb	$0, 4655+state(%rip)
	movb	$0, 4656+state(%rip)
	movb	$0, 4657+state(%rip)
	movb	$0, 4658+state(%rip)
	movb	$0, 4659+state(%rip)
	movb	$0, 4660+state(%rip)
	movb	$0, 4661+state(%rip)
	movb	$0, 4662+state(%rip)
	movb	$0, 4663+state(%rip)
	movb	$0, 4664+state(%rip)
	movb	$0, 4665+state(%rip)
	movb	$0, 4666+state(%rip)
	movb	$0, 4667+state(%rip)
	movb	$0, 4668+state(%rip)
	movb	$0, 4669+state(%rip)
	movb	$0, 4670+state(%rip)
	movb	$0, 4671+state(%rip)
	movb	$0, 4672+state(%rip)
	movb	$0, 4673+state(%rip)
	movb	$0, 4674+state(%rip)
	movb	$0, 4675+state(%rip)
	movb	$0, 4676+state(%rip)
	movb	$0, 4677+state(%rip)
	movb	$0, 4678+state(%rip)
	movb	$0, 4679+state(%rip)
	movb	$0, 4680+state(%rip)
	movb	$0, 4681+state(%rip)
	movb	$0, 4682+state(%rip)
	movb	$0, 4683+state(%rip)
	movb	$0, 4684+state(%rip)
	movb	$0, 4685+state(%rip)
	movb	$0, 4686+state(%rip)
	movb	$0, 4687+state(%rip)
	movb	$0, 4688+state(%rip)
	movb	$0, 4689+state(%rip)
	movb	$0, 4690+state(%rip)
	movb	$0, 4691+state(%rip)
	movb	$0, 4692+state(%rip)
	movb	$0, 4693+state(%rip)
	movb	$0, 4694+state(%rip)
	movb	$0, 4695+state(%rip)
	movb	$0, 4696+state(%rip)
	movb	$0, 4697+state(%rip)
	movb	$0, 4698+state(%rip)
	movb	$0, 4699+state(%rip)
	movb	$0, 4700+state(%rip)
	movb	$0, 4701+state(%rip)
	movb	$0, 4702+state(%rip)
	movb	$0, 4703+state(%rip)
	movb	$0, 4704+state(%rip)
	movb	$0, 4705+state(%rip)
	movb	$0, 4706+state(%rip)
	movb	$0, 4707+state(%rip)
	movb	$0, 4708+state(%rip)
	movb	$0, 4709+state(%rip)
	movb	$0, 4710+state(%rip)
	movb	$0, 4711+state(%rip)
	movb	$0, 4712+state(%rip)
	movb	$0, 4713+state(%rip)
	movb	$0, 4714+state(%rip)
	movb	$0, 4715+state(%rip)
	movb	$0, 4716+state(%rip)
	movb	$0, 4717+state(%rip)
	movb	$0, 4718+state(%rip)
	movb	$0, 4719+state(%rip)
	movb	$0, 4720+state(%rip)
	movb	$0, 4721+state(%rip)
	movb	$0, 4722+state(%rip)
	movb	$0, 4723+state(%rip)
	movb	$0, 4724+state(%rip)
	movb	$0, 4725+state(%rip)
	movb	$0, 4726+state(%rip)
	movb	$0, 4727+state(%rip)
	movb	$0, 4728+state(%rip)
	movb	$0, 4729+state(%rip)
	movb	$0, 4730+state(%rip)
	movb	$0, 4731+state(%rip)
	movb	$0, 4732+state(%rip)
	movb	$0, 4733+state(%rip)
	movb	$0, 4734+state(%rip)
	movb	$0, 4735+state(%rip)
	movb	$0, 4736+state(%rip)
	movb	$0, 4737+state(%rip)
	movb	$0, 4738+state(%rip)
	movb	$0, 4739+state(%rip)
	movb	$0, 4740+state(%rip)
	movb	$0, 4741+state(%rip)
	movb	$0, 4742+state(%rip)
	movb	$0, 4743+state(%rip)
	movb	$0, 4744+state(%rip)
	movb	$0, 4745+state(%rip)
	movb	$0, 4746+state(%rip)
	movb	$0, 4747+state(%rip)
	movb	$0, 4748+state(%rip)
	movb	$0, 4749+state(%rip)
	movb	$0, 4750+state(%rip)
	movb	$0, 4751+state(%rip)
	movb	$0, 4752+state(%rip)
	movb	$0, 4753+state(%rip)
	movb	$0, 4754+state(%rip)
	movb	$0, 4755+state(%rip)
	movb	$0, 4756+state(%rip)
	movb	$0, 4757+state(%rip)
	movb	$0, 4758+state(%rip)
	movb	$0, 4759+state(%rip)
	movb	$0, 4760+state(%rip)
	movb	$0, 4761+state(%rip)
	movb	$0, 4762+state(%rip)
	movb	$0, 4763+state(%rip)
	movb	$0, 4764+state(%rip)
	movb	$0, 4765+state(%rip)
	movb	$0, 4766+state(%rip)
	movb	$0, 4767+state(%rip)
	movb	$0, 4768+state(%rip)
	movb	$0, 4769+state(%rip)
	movb	$0, 4770+state(%rip)
	movb	$0, 4771+state(%rip)
	movb	$0, 4772+state(%rip)
	movb	$0, 4773+state(%rip)
	movb	$0, 4774+state(%rip)
	movb	$0, 4775+state(%rip)
	movb	$0, 4776+state(%rip)
	movb	$0, 4777+state(%rip)
	movb	$0, 4778+state(%rip)
	movb	$0, 4779+state(%rip)
	movb	$0, 4780+state(%rip)
	movb	$0, 4781+state(%rip)
	movb	$0, 4782+state(%rip)
	movb	$0, 4783+state(%rip)
	movb	$0, 4784+state(%rip)
	movb	$0, 4785+state(%rip)
	movb	$0, 4786+state(%rip)
	movb	$0, 4787+state(%rip)
	movb	$0, 4788+state(%rip)
	movb	$0, 4789+state(%rip)
	movb	$0, 4790+state(%rip)
	movb	$0, 4791+state(%rip)
	movb	$0, 4792+state(%rip)
	movb	$0, 4793+state(%rip)
	movb	$0, 4794+state(%rip)
	movb	$0, 4795+state(%rip)
	movb	$0, 4796+state(%rip)
	movb	$0, 4797+state(%rip)
	movb	$0, 4798+state(%rip)
	movb	$0, 4799+state(%rip)
	movb	$0, 4800+state(%rip)
	movb	$0, 4801+state(%rip)
	movb	$0, 4802+state(%rip)
	movb	$0, 4803+state(%rip)
	movb	$0, 4804+state(%rip)
	movb	$0, 4805+state(%rip)
	movb	$0, 4806+state(%rip)
	movb	$0, 4807+state(%rip)
	movb	$0, 4808+state(%rip)
	movb	$0, 4809+state(%rip)
	movb	$0, 4810+state(%rip)
	movb	$0, 4811+state(%rip)
	movb	$0, 4812+state(%rip)
	movb	$0, 4813+state(%rip)
	movb	$0, 4814+state(%rip)
	movb	$0, 4815+state(%rip)
	movb	$0, 4816+state(%rip)
	movb	$0, 4817+state(%rip)
	movb	$0, 4818+state(%rip)
	movb	$0, 4819+state(%rip)
	movb	$0, 4820+state(%rip)
	movb	$0, 4821+state(%rip)
	movb	$0, 4822+state(%rip)
	movb	$0, 4823+state(%rip)
	movb	$0, 4824+state(%rip)
	movb	$0, 4825+state(%rip)
	movb	$0, 4826+state(%rip)
	movb	$0, 4827+state(%rip)
	movb	$0, 4828+state(%rip)
	movb	$0, 4829+state(%rip)
	movb	$0, 4830+state(%rip)
	movb	$0, 4831+state(%rip)
	movb	$0, 4832+state(%rip)
	movb	$0, 4833+state(%rip)
	movb	$0, 4834+state(%rip)
	movb	$0, 4835+state(%rip)
	movb	$0, 4836+state(%rip)
	movb	$0, 4837+state(%rip)
	movb	$0, 4838+state(%rip)
	movb	$0, 4839+state(%rip)
	movb	$0, 4840+state(%rip)
	movb	$0, 4841+state(%rip)
	movb	$0, 4842+state(%rip)
	movb	$0, 4843+state(%rip)
	movb	$0, 4844+state(%rip)
	movb	$0, 4845+state(%rip)
	movb	$0, 4846+state(%rip)
	movb	$0, 4847+state(%rip)
	movb	$0, 4848+state(%rip)
	movb	$0, 4849+state(%rip)
	movb	$0, 4850+state(%rip)
	movb	$0, 4851+state(%rip)
	movb	$0, 4852+state(%rip)
	movb	$0, 4853+state(%rip)
	movb	$0, 4854+state(%rip)
	movb	$0, 4855+state(%rip)
	movb	$0, 4856+state(%rip)
	movb	$0, 4857+state(%rip)
	movb	$0, 4858+state(%rip)
	movb	$0, 4859+state(%rip)
	movb	$0, 4860+state(%rip)
	movb	$0, 4861+state(%rip)
	movb	$0, 4862+state(%rip)
	movb	$0, 4863+state(%rip)
	movb	$0, 4864+state(%rip)
	movb	$0, 4865+state(%rip)
	movb	$0, 4866+state(%rip)
	movb	$0, 4867+state(%rip)
	movb	$0, 4868+state(%rip)
	movb	$0, 4869+state(%rip)
	movb	$0, 4870+state(%rip)
	movb	$0, 4871+state(%rip)
	movb	$0, 4872+state(%rip)
	movb	$0, 4873+state(%rip)
	movb	$0, 4874+state(%rip)
	movb	$0, 4875+state(%rip)
	movb	$0, 4876+state(%rip)
	movb	$0, 4877+state(%rip)
	movb	$0, 4878+state(%rip)
	movb	$0, 4879+state(%rip)
	movb	$0, 4880+state(%rip)
	movb	$0, 4881+state(%rip)
	movb	$0, 4882+state(%rip)
	movb	$0, 4883+state(%rip)
	movb	$0, 4884+state(%rip)
	movb	$0, 4885+state(%rip)
	movb	$0, 4886+state(%rip)
	movb	$0, 4887+state(%rip)
	movb	$0, 4888+state(%rip)
	movb	$0, 4889+state(%rip)
	movb	$0, 4890+state(%rip)
	movb	$0, 4891+state(%rip)
	movb	$0, 4892+state(%rip)
	movb	$0, 4893+state(%rip)
	movb	$0, 4894+state(%rip)
	movb	$0, 4895+state(%rip)
	movb	$0, 4896+state(%rip)
	movb	$0, 4897+state(%rip)
	movb	$0, 4898+state(%rip)
	movb	$0, 4899+state(%rip)
	movb	$0, 4900+state(%rip)
	movb	$0, 4901+state(%rip)
	movb	$0, 4902+state(%rip)
	movb	$0, 4903+state(%rip)
	movb	$0, 4904+state(%rip)
	movb	$0, 4905+state(%rip)
	movb	$0, 4906+state(%rip)
	movb	$0, 4907+state(%rip)
	movb	$0, 4908+state(%rip)
	movb	$0, 4909+state(%rip)
	movb	$0, 4910+state(%rip)
	movb	$0, 4911+state(%rip)
	movb	$0, 4912+state(%rip)
	movb	$0, 4913+state(%rip)
	movb	$0, 4914+state(%rip)
	movb	$0, 4915+state(%rip)
	movb	$0, 4916+state(%rip)
	movb	$0, 4917+state(%rip)
	movb	$0, 4918+state(%rip)
	movb	$0, 4919+state(%rip)
	movb	$0, 4920+state(%rip)
	movb	$0, 4921+state(%rip)
	movb	$0, 4922+state(%rip)
	movb	$0, 4923+state(%rip)
	movb	$0, 4924+state(%rip)
	movb	$0, 4925+state(%rip)
	movb	$0, 4926+state(%rip)
	movb	$0, 4927+state(%rip)
	movb	$0, 4928+state(%rip)
	movb	$0, 4929+state(%rip)
	movb	$0, 4930+state(%rip)
	movb	$0, 4931+state(%rip)
	movb	$0, 4932+state(%rip)
	movb	$0, 4933+state(%rip)
	movb	$0, 4934+state(%rip)
	movb	$0, 4935+state(%rip)
	movb	$0, 4936+state(%rip)
	movb	$0, 4937+state(%rip)
	movb	$0, 4938+state(%rip)
	movb	$0, 4939+state(%rip)
	movb	$0, 4940+state(%rip)
	movb	$0, 4941+state(%rip)
	movb	$0, 4942+state(%rip)
	movb	$0, 4943+state(%rip)
	movb	$0, 4944+state(%rip)
	movb	$0, 4945+state(%rip)
	movb	$0, 4946+state(%rip)
	movb	$0, 4947+state(%rip)
	movb	$0, 4948+state(%rip)
	movb	$0, 4949+state(%rip)
	movb	$0, 4950+state(%rip)
	movb	$0, 4951+state(%rip)
	movb	$0, 4952+state(%rip)
	movb	$0, 4953+state(%rip)
	movb	$0, 4954+state(%rip)
	movb	$0, 4955+state(%rip)
	movb	$0, 4956+state(%rip)
	movb	$0, 4957+state(%rip)
	movb	$0, 4958+state(%rip)
	movb	$0, 4959+state(%rip)
	movb	$0, 4960+state(%rip)
	movb	$0, 4961+state(%rip)
	movb	$0, 4962+state(%rip)
	movb	$0, 4963+state(%rip)
	movb	$0, 4964+state(%rip)
	movb	$0, 4965+state(%rip)
	movb	$0, 4966+state(%rip)
	movb	$0, 4967+state(%rip)
	movb	$0, 4968+state(%rip)
	movb	$0, 4969+state(%rip)
	movb	$0, 4970+state(%rip)
	movb	$0, 4971+state(%rip)
	movb	$0, 4972+state(%rip)
	movb	$0, 4973+state(%rip)
	movb	$0, 4974+state(%rip)
	movb	$0, 4975+state(%rip)
	movb	$0, 4976+state(%rip)
	movb	$0, 4977+state(%rip)
	movb	$0, 4978+state(%rip)
	movb	$0, 4979+state(%rip)
	movb	$0, 4980+state(%rip)
	movb	$0, 4981+state(%rip)
	movb	$0, 4982+state(%rip)
	movb	$0, 4983+state(%rip)
	movb	$0, 4984+state(%rip)
	movb	$0, 4985+state(%rip)
	movb	$0, 4986+state(%rip)
	movb	$0, 4987+state(%rip)
	movb	$0, 4988+state(%rip)
	movb	$0, 4989+state(%rip)
	movb	$0, 4990+state(%rip)
	movb	$0, 4991+state(%rip)
	movb	$0, 4992+state(%rip)
	movb	$0, 4993+state(%rip)
	movb	$0, 4994+state(%rip)
	movb	$0, 4995+state(%rip)
	movb	$0, 4996+state(%rip)
	movb	$0, 4997+state(%rip)
	movb	$0, 4998+state(%rip)
	movb	$0, 4999+state(%rip)
	movb	$0, 5000+state(%rip)
	movb	$0, 5001+state(%rip)
	movb	$0, 5002+state(%rip)
	movb	$0, 5003+state(%rip)
	movb	$0, 5004+state(%rip)
	movb	$0, 5005+state(%rip)
	movb	$0, 5006+state(%rip)
	movb	$0, 5007+state(%rip)
	movb	$0, 5008+state(%rip)
	movb	$0, 5009+state(%rip)
	movb	$0, 5010+state(%rip)
	movb	$0, 5011+state(%rip)
	movb	$0, 5012+state(%rip)
	movb	$0, 5013+state(%rip)
	movb	$0, 5014+state(%rip)
	movb	$0, 5015+state(%rip)
	movb	$0, 5016+state(%rip)
	movb	$0, 5017+state(%rip)
	movb	$0, 5018+state(%rip)
	movb	$0, 5019+state(%rip)
	movb	$0, 5020+state(%rip)
	movb	$0, 5021+state(%rip)
	movb	$0, 5022+state(%rip)
	movb	$0, 5023+state(%rip)
	movb	$0, 5024+state(%rip)
	movb	$0, 5025+state(%rip)
	movb	$0, 5026+state(%rip)
	movb	$0, 5027+state(%rip)
	movb	$0, 5028+state(%rip)
	movb	$0, 5029+state(%rip)
	movb	$0, 5030+state(%rip)
	movb	$0, 5031+state(%rip)
	movb	$0, 5032+state(%rip)
	movb	$0, 5033+state(%rip)
	movb	$0, 5034+state(%rip)
	movb	$0, 5035+state(%rip)
	movb	$0, 5036+state(%rip)
	movb	$0, 5037+state(%rip)
	movb	$0, 5038+state(%rip)
	movb	$0, 5039+state(%rip)
	movb	$0, 5040+state(%rip)
	movb	$0, 5041+state(%rip)
	movb	$0, 5042+state(%rip)
	movb	$0, 5043+state(%rip)
	movb	$0, 5044+state(%rip)
	movb	$0, 5045+state(%rip)
	movb	$0, 5046+state(%rip)
	movb	$0, 5047+state(%rip)
	movb	$0, 5048+state(%rip)
	movb	$0, 5049+state(%rip)
	movb	$0, 5050+state(%rip)
	movb	$0, 5051+state(%rip)
	movb	$0, 5052+state(%rip)
	movb	$0, 5053+state(%rip)
	movb	$0, 5054+state(%rip)
	movb	$0, 5055+state(%rip)
	movb	$0, 5056+state(%rip)
	movb	$0, 5057+state(%rip)
	movb	$0, 5058+state(%rip)
	movb	$0, 5059+state(%rip)
	movb	$0, 5060+state(%rip)
	movb	$0, 5061+state(%rip)
	movb	$0, 5062+state(%rip)
	movb	$0, 5063+state(%rip)
	movb	$0, 5064+state(%rip)
	movb	$0, 5065+state(%rip)
	movb	$0, 5066+state(%rip)
	movb	$0, 5067+state(%rip)
	movb	$0, 5068+state(%rip)
	movb	$0, 5069+state(%rip)
	movb	$0, 5070+state(%rip)
	movb	$0, 5071+state(%rip)
	movb	$0, 5072+state(%rip)
	movb	$0, 5073+state(%rip)
	movb	$0, 5074+state(%rip)
	movb	$0, 5075+state(%rip)
	movb	$0, 5076+state(%rip)
	movb	$0, 5077+state(%rip)
	movb	$0, 5078+state(%rip)
	movb	$0, 5079+state(%rip)
	movb	$0, 5080+state(%rip)
	movb	$0, 5081+state(%rip)
	movb	$0, 5082+state(%rip)
	movb	$0, 5083+state(%rip)
	movb	$0, 5084+state(%rip)
	movb	$0, 5085+state(%rip)
	movb	$0, 5086+state(%rip)
	movb	$0, 5087+state(%rip)
	movb	$0, 5088+state(%rip)
	movb	$0, 5089+state(%rip)
	movb	$0, 5090+state(%rip)
	movb	$0, 5091+state(%rip)
	movb	$0, 5092+state(%rip)
	movb	$0, 5093+state(%rip)
	movb	$0, 5094+state(%rip)
	movb	$0, 5095+state(%rip)
	movb	$0, 5096+state(%rip)
	movb	$0, 5097+state(%rip)
	movb	$0, 5098+state(%rip)
	movb	$0, 5099+state(%rip)
	movb	$0, 5100+state(%rip)
	movb	$0, 5101+state(%rip)
	movb	$0, 5102+state(%rip)
	movb	$0, 5103+state(%rip)
	movb	$0, 5104+state(%rip)
	movb	$0, 5105+state(%rip)
	movb	$0, 5106+state(%rip)
	movb	$0, 5107+state(%rip)
	movb	$0, 5108+state(%rip)
	movb	$0, 5109+state(%rip)
	movb	$0, 5110+state(%rip)
	movb	$0, 5111+state(%rip)
	movb	$0, 5112+state(%rip)
	movb	$0, 5113+state(%rip)
	movb	$0, 5114+state(%rip)
	movb	$0, 5115+state(%rip)
	movb	$0, 5116+state(%rip)
	movb	$0, 5117+state(%rip)
	movb	$0, 5118+state(%rip)
	movb	$0, 5119+state(%rip)
	movb	$0, 5120+state(%rip)
	movb	$0, 5121+state(%rip)
	movb	$0, 5122+state(%rip)
	movb	$0, 5123+state(%rip)
	movb	$0, 5124+state(%rip)
	movb	$0, 5125+state(%rip)
	movb	$0, 5126+state(%rip)
	movb	$0, 5127+state(%rip)
	movb	$0, 5128+state(%rip)
	movb	$0, 5129+state(%rip)
	movb	$0, 5130+state(%rip)
	movb	$0, 5131+state(%rip)
	movb	$0, 5132+state(%rip)
	movb	$0, 5133+state(%rip)
	movb	$0, 5134+state(%rip)
	movb	$0, 5135+state(%rip)
	movb	$0, 5136+state(%rip)
	movb	$0, 5137+state(%rip)
	movb	$0, 5138+state(%rip)
	movb	$0, 5139+state(%rip)
	movb	$0, 5140+state(%rip)
	movb	$0, 5141+state(%rip)
	movb	$0, 5142+state(%rip)
	movb	$0, 5143+state(%rip)
	movb	$0, 5144+state(%rip)
	movb	$0, 5145+state(%rip)
	movb	$0, 5146+state(%rip)
	movb	$0, 5147+state(%rip)
	movb	$0, 5148+state(%rip)
	movb	$0, 5149+state(%rip)
	movb	$0, 5150+state(%rip)
	movb	$0, 5151+state(%rip)
	movb	$0, 5152+state(%rip)
	movb	$0, 5153+state(%rip)
	movb	$0, 5154+state(%rip)
	movb	$0, 5155+state(%rip)
	movb	$0, 5156+state(%rip)
	movb	$0, 5157+state(%rip)
	movb	$0, 5158+state(%rip)
	movb	$0, 5159+state(%rip)
	movb	$0, 5160+state(%rip)
	movb	$0, 5161+state(%rip)
	movb	$0, 5162+state(%rip)
	movb	$0, 5163+state(%rip)
	movb	$0, 5164+state(%rip)
	movb	$0, 5165+state(%rip)
	movb	$0, 5166+state(%rip)
	movb	$0, 5167+state(%rip)
	movb	$0, 5168+state(%rip)
	movb	$0, 5169+state(%rip)
	movb	$0, 5170+state(%rip)
	movb	$0, 5171+state(%rip)
	movb	$0, 5172+state(%rip)
	movb	$0, 5173+state(%rip)
	movb	$0, 5174+state(%rip)
	movb	$0, 5175+state(%rip)
	movb	$0, 5176+state(%rip)
	movb	$0, 5177+state(%rip)
	movb	$0, 5178+state(%rip)
	movb	$0, 5179+state(%rip)
	movb	$0, 5180+state(%rip)
	movb	$0, 5181+state(%rip)
	movb	$0, 5182+state(%rip)
	movb	$0, 5183+state(%rip)
	movb	$0, 5184+state(%rip)
	movb	$0, 5185+state(%rip)
	movb	$0, 5186+state(%rip)
	movb	$0, 5187+state(%rip)
	movb	$0, 5188+state(%rip)
	movb	$0, 5189+state(%rip)
	movb	$0, 5190+state(%rip)
	movb	$0, 5191+state(%rip)
	movb	$0, 5192+state(%rip)
	movb	$0, 5193+state(%rip)
	movb	$0, 5194+state(%rip)
	movb	$0, 5195+state(%rip)
	movb	$0, 5196+state(%rip)
	movb	$0, 5197+state(%rip)
	movb	$0, 5198+state(%rip)
	movb	$0, 5199+state(%rip)
	movb	$0, 5200+state(%rip)
	movb	$0, 5201+state(%rip)
	movb	$0, 5202+state(%rip)
	movb	$0, 5203+state(%rip)
	movb	$0, 5204+state(%rip)
	movb	$0, 5205+state(%rip)
	movb	$0, 5206+state(%rip)
	movb	$0, 5207+state(%rip)
	movb	$0, 5208+state(%rip)
	movb	$0, 5209+state(%rip)
	movb	$0, 5210+state(%rip)
	movb	$0, 5211+state(%rip)
	movb	$0, 5212+state(%rip)
	movb	$0, 5213+state(%rip)
	movb	$0, 5214+state(%rip)
	movb	$0, 5215+state(%rip)
	movb	$0, 5216+state(%rip)
	movb	$0, 5217+state(%rip)
	movb	$0, 5218+state(%rip)
	movb	$0, 5219+state(%rip)
	movb	$0, 5220+state(%rip)
	movb	$0, 5221+state(%rip)
	movb	$0, 5222+state(%rip)
	movb	$0, 5223+state(%rip)
	movb	$0, 5224+state(%rip)
	movb	$0, 5225+state(%rip)
	movb	$0, 5226+state(%rip)
	movb	$0, 5227+state(%rip)
	movb	$0, 5228+state(%rip)
	movb	$0, 5229+state(%rip)
	movb	$0, 5230+state(%rip)
	movb	$0, 5231+state(%rip)
	movb	$0, 5232+state(%rip)
	movb	$0, 5233+state(%rip)
	movb	$0, 5234+state(%rip)
	movb	$0, 5235+state(%rip)
	movb	$0, 5236+state(%rip)
	movb	$0, 5237+state(%rip)
	movb	$0, 5238+state(%rip)
	movb	$0, 5239+state(%rip)
	movb	$0, 5240+state(%rip)
	movb	$0, 5241+state(%rip)
	movb	$0, 5242+state(%rip)
	movb	$0, 5243+state(%rip)
	movb	$0, 5244+state(%rip)
	movb	$0, 5245+state(%rip)
	movb	$0, 5246+state(%rip)
	movb	$0, 5247+state(%rip)
	movb	$0, 5248+state(%rip)
	movb	$0, 5249+state(%rip)
	movb	$0, 5250+state(%rip)
	movb	$0, 5251+state(%rip)
	movb	$0, 5252+state(%rip)
	movb	$0, 5253+state(%rip)
	movb	$0, 5254+state(%rip)
	movb	$0, 5255+state(%rip)
	movb	$0, 5256+state(%rip)
	movb	$0, 5257+state(%rip)
	movb	$0, 5258+state(%rip)
	movb	$0, 5259+state(%rip)
	movb	$0, 5260+state(%rip)
	movb	$0, 5261+state(%rip)
	movb	$0, 5262+state(%rip)
	movb	$0, 5263+state(%rip)
	movb	$0, 5264+state(%rip)
	movb	$0, 5265+state(%rip)
	movb	$0, 5266+state(%rip)
	movb	$0, 5267+state(%rip)
	movb	$0, 5268+state(%rip)
	movb	$0, 5269+state(%rip)
	movb	$0, 5270+state(%rip)
	movb	$0, 5271+state(%rip)
	movb	$0, 5272+state(%rip)
	movb	$0, 5273+state(%rip)
	movb	$0, 5274+state(%rip)
	movb	$0, 5275+state(%rip)
	movb	$0, 5276+state(%rip)
	movb	$0, 5277+state(%rip)
	movb	$0, 5278+state(%rip)
	movb	$0, 5279+state(%rip)
	movb	$0, 5280+state(%rip)
	movb	$0, 5281+state(%rip)
	movb	$0, 5282+state(%rip)
	movb	$0, 5283+state(%rip)
	movb	$0, 5284+state(%rip)
	movb	$0, 5285+state(%rip)
	movb	$0, 5286+state(%rip)
	movb	$0, 5287+state(%rip)
	movb	$0, 5288+state(%rip)
	movb	$0, 5289+state(%rip)
	movb	$0, 5290+state(%rip)
	movb	$0, 5291+state(%rip)
	movb	$0, 5292+state(%rip)
	movb	$0, 5293+state(%rip)
	movb	$0, 5294+state(%rip)
	movb	$0, 5295+state(%rip)
	movb	$0, 5296+state(%rip)
	movb	$0, 5297+state(%rip)
	movb	$0, 5298+state(%rip)
	movb	$0, 5299+state(%rip)
	movb	$0, 5300+state(%rip)
	movb	$0, 5301+state(%rip)
	movb	$0, 5302+state(%rip)
	movb	$0, 5303+state(%rip)
	movb	$0, 5304+state(%rip)
	movb	$0, 5305+state(%rip)
	movb	$0, 5306+state(%rip)
	movb	$0, 5307+state(%rip)
	movb	$0, 5308+state(%rip)
	movb	$0, 5309+state(%rip)
	movb	$0, 5310+state(%rip)
	movb	$0, 5311+state(%rip)
	movb	$0, 5312+state(%rip)
	movb	$0, 5313+state(%rip)
	movb	$0, 5314+state(%rip)
	movb	$0, 5315+state(%rip)
	movb	$0, 5316+state(%rip)
	movb	$0, 5317+state(%rip)
	movb	$0, 5318+state(%rip)
	movb	$0, 5319+state(%rip)
	movb	$0, 5320+state(%rip)
	movb	$0, 5321+state(%rip)
	movb	$0, 5322+state(%rip)
	movb	$0, 5323+state(%rip)
	movb	$0, 5324+state(%rip)
	movb	$0, 5325+state(%rip)
	movb	$0, 5326+state(%rip)
	movb	$0, 5327+state(%rip)
	movb	$0, 5328+state(%rip)
	movb	$0, 5329+state(%rip)
	movb	$0, 5330+state(%rip)
	movb	$0, 5331+state(%rip)
	movb	$0, 5332+state(%rip)
	movb	$0, 5333+state(%rip)
	movb	$0, 5334+state(%rip)
	movb	$0, 5335+state(%rip)
	movb	$0, 5336+state(%rip)
	movb	$0, 5337+state(%rip)
	movb	$0, 5338+state(%rip)
	movb	$0, 5339+state(%rip)
	movb	$0, 5340+state(%rip)
	movb	$0, 5341+state(%rip)
	movb	$0, 5342+state(%rip)
	movb	$0, 5343+state(%rip)
	movb	$0, 5344+state(%rip)
	movb	$0, 5345+state(%rip)
	movb	$0, 5346+state(%rip)
	movb	$0, 5347+state(%rip)
	movb	$0, 5348+state(%rip)
	movb	$0, 5349+state(%rip)
	movb	$0, 5350+state(%rip)
	movb	$0, 5351+state(%rip)
	movb	$0, 5352+state(%rip)
	movb	$0, 5353+state(%rip)
	movb	$0, 5354+state(%rip)
	movb	$0, 5355+state(%rip)
	movb	$0, 5356+state(%rip)
	movb	$0, 5357+state(%rip)
	movb	$0, 5358+state(%rip)
	movb	$0, 5359+state(%rip)
	movb	$0, 5360+state(%rip)
	movb	$0, 5361+state(%rip)
	movb	$0, 5362+state(%rip)
	movb	$0, 5363+state(%rip)
	movb	$0, 5364+state(%rip)
	movb	$0, 5365+state(%rip)
	movb	$0, 5366+state(%rip)
	movb	$0, 5367+state(%rip)
	movb	$0, 5368+state(%rip)
	movb	$0, 5369+state(%rip)
	movb	$0, 5370+state(%rip)
	movb	$0, 5371+state(%rip)
	movb	$0, 5372+state(%rip)
	movb	$0, 5373+state(%rip)
	movb	$0, 5374+state(%rip)
	movb	$0, 5375+state(%rip)
	movb	$0, 5376+state(%rip)
	movb	$0, 5377+state(%rip)
	movb	$0, 5378+state(%rip)
	movb	$0, 5379+state(%rip)
	movb	$0, 5380+state(%rip)
	movb	$0, 5381+state(%rip)
	movb	$0, 5382+state(%rip)
	movb	$0, 5383+state(%rip)
	movb	$0, 5384+state(%rip)
	movb	$0, 5385+state(%rip)
	movb	$0, 5386+state(%rip)
	movb	$0, 5387+state(%rip)
	movb	$0, 5388+state(%rip)
	movb	$0, 5389+state(%rip)
	movb	$0, 5390+state(%rip)
	movb	$0, 5391+state(%rip)
	movb	$0, 5392+state(%rip)
	movb	$0, 5393+state(%rip)
	movb	$0, 5394+state(%rip)
	movb	$0, 5395+state(%rip)
	movb	$0, 5396+state(%rip)
	movb	$0, 5397+state(%rip)
	movb	$0, 5398+state(%rip)
	movb	$0, 5399+state(%rip)
	movb	$0, 5400+state(%rip)
	movb	$0, 5401+state(%rip)
	movb	$0, 5402+state(%rip)
	movb	$0, 5403+state(%rip)
	movb	$0, 5404+state(%rip)
	movb	$0, 5405+state(%rip)
	movb	$0, 5406+state(%rip)
	movb	$0, 5407+state(%rip)
	movb	$0, 5408+state(%rip)
	movb	$0, 5409+state(%rip)
	movb	$0, 5410+state(%rip)
	movb	$0, 5411+state(%rip)
	movb	$0, 5412+state(%rip)
	movb	$0, 5413+state(%rip)
	movb	$0, 5414+state(%rip)
	movb	$0, 5415+state(%rip)
	movb	$0, 5416+state(%rip)
	movb	$0, 5417+state(%rip)
	movb	$0, 5418+state(%rip)
	movb	$0, 5419+state(%rip)
	movb	$0, 5420+state(%rip)
	movb	$0, 5421+state(%rip)
	movb	$0, 5422+state(%rip)
	movb	$0, 5423+state(%rip)
	movb	$0, 5424+state(%rip)
	movb	$0, 5425+state(%rip)
	movb	$0, 5426+state(%rip)
	movb	$0, 5427+state(%rip)
	movb	$0, 5428+state(%rip)
	movb	$0, 5429+state(%rip)
	movb	$0, 5430+state(%rip)
	movb	$0, 5431+state(%rip)
	movb	$0, 5432+state(%rip)
	movb	$0, 5433+state(%rip)
	movb	$0, 5434+state(%rip)
	movb	$0, 5435+state(%rip)
	movb	$0, 5436+state(%rip)
	movb	$0, 5437+state(%rip)
	movb	$0, 5438+state(%rip)
	movb	$0, 5439+state(%rip)
	movb	$0, 5440+state(%rip)
	movb	$0, 5441+state(%rip)
	movb	$0, 5442+state(%rip)
	movb	$0, 5443+state(%rip)
	movb	$0, 5444+state(%rip)
	movb	$0, 5445+state(%rip)
	movb	$0, 5446+state(%rip)
	movb	$0, 5447+state(%rip)
	movb	$0, 5448+state(%rip)
	movb	$0, 5449+state(%rip)
	movb	$0, 5450+state(%rip)
	movb	$0, 5451+state(%rip)
	movb	$0, 5452+state(%rip)
	movb	$0, 5453+state(%rip)
	movb	$0, 5454+state(%rip)
	movb	$0, 5455+state(%rip)
	movb	$0, 5456+state(%rip)
	movb	$0, 5457+state(%rip)
	movb	$0, 5458+state(%rip)
	movb	$0, 5459+state(%rip)
	movb	$0, 5460+state(%rip)
	movb	$0, 5461+state(%rip)
	movb	$0, 5462+state(%rip)
	movb	$0, 5463+state(%rip)
	movb	$0, 5464+state(%rip)
	movb	$0, 5465+state(%rip)
	movb	$0, 5466+state(%rip)
	movb	$0, 5467+state(%rip)
	movb	$0, 5468+state(%rip)
	movb	$0, 5469+state(%rip)
	movb	$0, 5470+state(%rip)
	movb	$0, 5471+state(%rip)
	movb	$0, 5472+state(%rip)
	movb	$0, 5473+state(%rip)
	movb	$0, 5474+state(%rip)
	movb	$0, 5475+state(%rip)
	movb	$0, 5476+state(%rip)
	movb	$0, 5477+state(%rip)
	movb	$0, 5478+state(%rip)
	movb	$0, 5479+state(%rip)
	movb	$0, 5480+state(%rip)
	movb	$0, 5481+state(%rip)
	movb	$0, 5482+state(%rip)
	movb	$0, 5483+state(%rip)
	movb	$0, 5484+state(%rip)
	movb	$0, 5485+state(%rip)
	movb	$0, 5486+state(%rip)
	movb	$0, 5487+state(%rip)
	movb	$0, 5488+state(%rip)
	movb	$0, 5489+state(%rip)
	movb	$0, 5490+state(%rip)
	movb	$0, 5491+state(%rip)
	movb	$0, 5492+state(%rip)
	movb	$0, 5493+state(%rip)
	movb	$0, 5494+state(%rip)
	movb	$0, 5495+state(%rip)
	movb	$0, 5496+state(%rip)
	movb	$0, 5497+state(%rip)
	movb	$0, 5498+state(%rip)
	movb	$0, 5499+state(%rip)
	movb	$0, 5500+state(%rip)
	movb	$0, 5501+state(%rip)
	movb	$0, 5502+state(%rip)
	movb	$0, 5503+state(%rip)
	movb	$0, 5504+state(%rip)
	movb	$0, 5505+state(%rip)
	movb	$0, 5506+state(%rip)
	movb	$0, 5507+state(%rip)
	movb	$0, 5508+state(%rip)
	movb	$0, 5509+state(%rip)
	movb	$0, 5510+state(%rip)
	movb	$0, 5511+state(%rip)
	movb	$0, 5512+state(%rip)
	movb	$0, 5513+state(%rip)
	movb	$0, 5514+state(%rip)
	movb	$0, 5515+state(%rip)
	movb	$0, 5516+state(%rip)
	movb	$0, 5517+state(%rip)
	movb	$0, 5518+state(%rip)
	movb	$0, 5519+state(%rip)
	movb	$0, 5520+state(%rip)
	movb	$0, 5521+state(%rip)
	movb	$0, 5522+state(%rip)
	movb	$0, 5523+state(%rip)
	movb	$0, 5524+state(%rip)
	movb	$0, 5525+state(%rip)
	movb	$0, 5526+state(%rip)
	movb	$0, 5527+state(%rip)
	movb	$0, 5528+state(%rip)
	movb	$0, 5529+state(%rip)
	movb	$0, 5530+state(%rip)
	movb	$0, 5531+state(%rip)
	movb	$0, 5532+state(%rip)
	movb	$0, 5533+state(%rip)
	movb	$0, 5534+state(%rip)
	movb	$0, 5535+state(%rip)
	movb	$0, 5536+state(%rip)
	movb	$0, 5537+state(%rip)
	movb	$0, 5538+state(%rip)
	movb	$0, 5539+state(%rip)
	movb	$0, 5540+state(%rip)
	movb	$0, 5541+state(%rip)
	movb	$0, 5542+state(%rip)
	movb	$0, 5543+state(%rip)
	movb	$0, 5544+state(%rip)
	movb	$0, 5545+state(%rip)
	movb	$0, 5546+state(%rip)
	movb	$0, 5547+state(%rip)
	movb	$0, 5548+state(%rip)
	movb	$0, 5549+state(%rip)
	movb	$0, 5550+state(%rip)
	movb	$0, 5551+state(%rip)
	movb	$0, 5552+state(%rip)
	movb	$0, 5553+state(%rip)
	movb	$0, 5554+state(%rip)
	movb	$0, 5555+state(%rip)
	movb	$0, 5556+state(%rip)
	movb	$0, 5557+state(%rip)
	movb	$0, 5558+state(%rip)
	movb	$0, 5559+state(%rip)
	movb	$0, 5560+state(%rip)
	movb	$0, 5561+state(%rip)
	movb	$0, 5562+state(%rip)
	movb	$0, 5563+state(%rip)
	movb	$0, 5564+state(%rip)
	movb	$0, 5565+state(%rip)
	movb	$0, 5566+state(%rip)
	movb	$0, 5567+state(%rip)
	movb	$0, 5568+state(%rip)
	movb	$0, 5569+state(%rip)
	movb	$0, 5570+state(%rip)
	movb	$0, 5571+state(%rip)
	movb	$0, 5572+state(%rip)
	movb	$0, 5573+state(%rip)
	movb	$0, 5574+state(%rip)
	movb	$0, 5575+state(%rip)
	movb	$0, 5576+state(%rip)
	movb	$0, 5577+state(%rip)
	movb	$0, 5578+state(%rip)
	movb	$0, 5579+state(%rip)
	movb	$0, 5580+state(%rip)
	movb	$0, 5581+state(%rip)
	movb	$0, 5582+state(%rip)
	movb	$0, 5583+state(%rip)
	movb	$0, 5584+state(%rip)
	movb	$0, 5585+state(%rip)
	movb	$0, 5586+state(%rip)
	movb	$0, 5587+state(%rip)
	movb	$0, 5588+state(%rip)
	movb	$0, 5589+state(%rip)
	movb	$0, 5590+state(%rip)
	movb	$0, 5591+state(%rip)
	movb	$0, 5592+state(%rip)
	movb	$0, 5593+state(%rip)
	movb	$0, 5594+state(%rip)
	movb	$0, 5595+state(%rip)
	movb	$0, 5596+state(%rip)
	movb	$0, 5597+state(%rip)
	movb	$0, 5598+state(%rip)
	movb	$0, 5599+state(%rip)
	movb	$0, 5600+state(%rip)
	movb	$0, 5601+state(%rip)
	movb	$0, 5602+state(%rip)
	movb	$0, 5603+state(%rip)
	movb	$0, 5604+state(%rip)
	movb	$0, 5605+state(%rip)
	movb	$0, 5606+state(%rip)
	movb	$0, 5607+state(%rip)
	movb	$0, 5608+state(%rip)
	movb	$0, 5609+state(%rip)
	movb	$0, 5610+state(%rip)
	movb	$0, 5611+state(%rip)
	movb	$0, 5612+state(%rip)
	movb	$0, 5613+state(%rip)
	movb	$0, 5614+state(%rip)
	movb	$0, 5615+state(%rip)
	movb	$0, 5616+state(%rip)
	movb	$0, 5617+state(%rip)
	movb	$0, 5618+state(%rip)
	movb	$0, 5619+state(%rip)
	movb	$0, 5620+state(%rip)
	movb	$0, 5621+state(%rip)
	movb	$0, 5622+state(%rip)
	movb	$0, 5623+state(%rip)
	movb	$0, 5624+state(%rip)
	movb	$0, 5625+state(%rip)
	movb	$0, 5626+state(%rip)
	movb	$0, 5627+state(%rip)
	movb	$0, 5628+state(%rip)
	movb	$0, 5629+state(%rip)
	movb	$0, 5630+state(%rip)
	movb	$0, 5631+state(%rip)
	movb	$0, 5632+state(%rip)
	movb	$0, 5633+state(%rip)
	movb	$0, 5634+state(%rip)
	movb	$0, 5635+state(%rip)
	movb	$0, 5636+state(%rip)
	movb	$0, 5637+state(%rip)
	movb	$0, 5638+state(%rip)
	movb	$0, 5639+state(%rip)
	movb	$0, 5640+state(%rip)
	movb	$0, 5641+state(%rip)
	movb	$0, 5642+state(%rip)
	movb	$0, 5643+state(%rip)
	movb	$0, 5644+state(%rip)
	movb	$0, 5645+state(%rip)
	movb	$0, 5646+state(%rip)
	movb	$0, 5647+state(%rip)
	movb	$0, 5648+state(%rip)
	movb	$0, 5649+state(%rip)
	movb	$0, 5650+state(%rip)
	movb	$0, 5651+state(%rip)
	movb	$0, 5652+state(%rip)
	movb	$0, 5653+state(%rip)
	movb	$0, 5654+state(%rip)
	movb	$0, 5655+state(%rip)
	movb	$0, 5656+state(%rip)
	movb	$0, 5657+state(%rip)
	movb	$0, 5658+state(%rip)
	movb	$0, 5659+state(%rip)
	movb	$0, 5660+state(%rip)
	movb	$0, 5661+state(%rip)
	movb	$0, 5662+state(%rip)
	movb	$0, 5663+state(%rip)
	movb	$0, 5664+state(%rip)
	movb	$0, 5665+state(%rip)
	movb	$0, 5666+state(%rip)
	movb	$0, 5667+state(%rip)
	movb	$0, 5668+state(%rip)
	movb	$0, 5669+state(%rip)
	movb	$0, 5670+state(%rip)
	movb	$0, 5671+state(%rip)
	movb	$0, 5672+state(%rip)
	movb	$0, 5673+state(%rip)
	movb	$0, 5674+state(%rip)
	movb	$0, 5675+state(%rip)
	movb	$0, 5676+state(%rip)
	movb	$0, 5677+state(%rip)
	movb	$0, 5678+state(%rip)
	movb	$0, 5679+state(%rip)
	movb	$0, 5680+state(%rip)
	movb	$0, 5681+state(%rip)
	movb	$0, 5682+state(%rip)
	movb	$0, 5683+state(%rip)
	movb	$0, 5684+state(%rip)
	movb	$0, 5685+state(%rip)
	movb	$0, 5686+state(%rip)
	movb	$0, 5687+state(%rip)
	movb	$0, 5688+state(%rip)
	movb	$0, 5689+state(%rip)
	movb	$0, 5690+state(%rip)
	movb	$0, 5691+state(%rip)
	movb	$0, 5692+state(%rip)
	movb	$0, 5693+state(%rip)
	movb	$0, 5694+state(%rip)
	movb	$0, 5695+state(%rip)
	movb	$0, 5696+state(%rip)
	movb	$0, 5697+state(%rip)
	movb	$0, 5698+state(%rip)
	movb	$0, 5699+state(%rip)
	movb	$0, 5700+state(%rip)
	movb	$0, 5701+state(%rip)
	movb	$0, 5702+state(%rip)
	movb	$0, 5703+state(%rip)
	movb	$0, 5704+state(%rip)
	movb	$0, 5705+state(%rip)
	movb	$0, 5706+state(%rip)
	movb	$0, 5707+state(%rip)
	movb	$0, 5708+state(%rip)
	movb	$0, 5709+state(%rip)
	movb	$0, 5710+state(%rip)
	movb	$0, 5711+state(%rip)
	movb	$0, 5712+state(%rip)
	movb	$0, 5713+state(%rip)
	movb	$0, 5714+state(%rip)
	movb	$0, 5715+state(%rip)
	movb	$0, 5716+state(%rip)
	movb	$0, 5717+state(%rip)
	movb	$0, 5718+state(%rip)
	movb	$0, 5719+state(%rip)
	movb	$0, 5720+state(%rip)
	movb	$0, 5721+state(%rip)
	movb	$0, 5722+state(%rip)
	movb	$0, 5723+state(%rip)
	movb	$0, 5724+state(%rip)
	movb	$0, 5725+state(%rip)
	movb	$0, 5726+state(%rip)
	movb	$0, 5727+state(%rip)
	movb	$0, 5728+state(%rip)
	movb	$0, 5729+state(%rip)
	movb	$0, 5730+state(%rip)
	movb	$0, 5731+state(%rip)
	movb	$0, 5732+state(%rip)
	movb	$0, 5733+state(%rip)
	movb	$0, 5734+state(%rip)
	movb	$0, 5735+state(%rip)
	movb	$0, 5736+state(%rip)
	movb	$0, 5737+state(%rip)
	movb	$0, 5738+state(%rip)
	movb	$0, 5739+state(%rip)
	movb	$0, 5740+state(%rip)
	movb	$0, 5741+state(%rip)
	movb	$0, 5742+state(%rip)
	movb	$0, 5743+state(%rip)
	movb	$0, 5744+state(%rip)
	movb	$0, 5745+state(%rip)
	movb	$0, 5746+state(%rip)
	movb	$0, 5747+state(%rip)
	movb	$0, 5748+state(%rip)
	movb	$0, 5749+state(%rip)
	movb	$0, 5750+state(%rip)
	movb	$0, 5751+state(%rip)
	movb	$0, 5752+state(%rip)
	movb	$0, 5753+state(%rip)
	movb	$0, 5754+state(%rip)
	movb	$0, 5755+state(%rip)
	movb	$0, 5756+state(%rip)
	movb	$0, 5757+state(%rip)
	movb	$0, 5758+state(%rip)
	movb	$0, 5759+state(%rip)
	movb	$0, 5760+state(%rip)
	movb	$0, 5761+state(%rip)
	movb	$0, 5762+state(%rip)
	movb	$0, 5763+state(%rip)
	movb	$0, 5764+state(%rip)
	movb	$0, 5765+state(%rip)
	movb	$0, 5766+state(%rip)
	movb	$0, 5767+state(%rip)
	movb	$0, 5768+state(%rip)
	movb	$0, 5769+state(%rip)
	movb	$0, 5770+state(%rip)
	movb	$0, 5771+state(%rip)
	movb	$0, 5772+state(%rip)
	movb	$0, 5773+state(%rip)
	movb	$0, 5774+state(%rip)
	movb	$0, 5775+state(%rip)
	movb	$0, 5776+state(%rip)
	movb	$0, 5777+state(%rip)
	movb	$0, 5778+state(%rip)
	movb	$0, 5779+state(%rip)
	movb	$0, 5780+state(%rip)
	movb	$0, 5781+state(%rip)
	movb	$0, 5782+state(%rip)
	movb	$0, 5783+state(%rip)
	movb	$0, 5784+state(%rip)
	movb	$0, 5785+state(%rip)
	movb	$0, 5786+state(%rip)
	movb	$0, 5787+state(%rip)
	movb	$0, 5788+state(%rip)
	movb	$0, 5789+state(%rip)
	movb	$0, 5790+state(%rip)
	movb	$0, 5791+state(%rip)
	movb	$0, 5792+state(%rip)
	movb	$0, 5793+state(%rip)
	movb	$0, 5794+state(%rip)
	movb	$0, 5795+state(%rip)
	movb	$0, 5796+state(%rip)
	movb	$0, 5797+state(%rip)
	movb	$0, 5798+state(%rip)
	movb	$0, 5799+state(%rip)
	movb	$0, 5800+state(%rip)
	movb	$0, 5801+state(%rip)
	movb	$0, 5802+state(%rip)
	movb	$0, 5803+state(%rip)
	movb	$0, 5804+state(%rip)
	movb	$0, 5805+state(%rip)
	movb	$0, 5806+state(%rip)
	movb	$0, 5807+state(%rip)
	movb	$0, 5808+state(%rip)
	movb	$0, 5809+state(%rip)
	movb	$0, 5810+state(%rip)
	movb	$0, 5811+state(%rip)
	movb	$0, 5812+state(%rip)
	movb	$0, 5813+state(%rip)
	movb	$0, 5814+state(%rip)
	movb	$0, 5815+state(%rip)
	movb	$0, 5816+state(%rip)
	movb	$0, 5817+state(%rip)
	movb	$0, 5818+state(%rip)
	movb	$0, 5819+state(%rip)
	movb	$0, 5820+state(%rip)
	movb	$0, 5821+state(%rip)
	movb	$0, 5822+state(%rip)
	movb	$0, 5823+state(%rip)
	movb	$0, 5824+state(%rip)
	movb	$0, 5825+state(%rip)
	movb	$0, 5826+state(%rip)
	movb	$0, 5827+state(%rip)
	movb	$0, 5828+state(%rip)
	movb	$0, 5829+state(%rip)
	movb	$0, 5830+state(%rip)
	movb	$0, 5831+state(%rip)
	movb	$0, 5832+state(%rip)
	movb	$0, 5833+state(%rip)
	movb	$0, 5834+state(%rip)
	movb	$0, 5835+state(%rip)
	movb	$0, 5836+state(%rip)
	movb	$0, 5837+state(%rip)
	movb	$0, 5838+state(%rip)
	movb	$0, 5839+state(%rip)
	movb	$0, 5840+state(%rip)
	movb	$0, 5841+state(%rip)
	movb	$0, 5842+state(%rip)
	movb	$0, 5843+state(%rip)
	movb	$0, 5844+state(%rip)
	movb	$0, 5845+state(%rip)
	movb	$0, 5846+state(%rip)
	movb	$0, 5847+state(%rip)
	movb	$0, 5848+state(%rip)
	movb	$0, 5849+state(%rip)
	movb	$0, 5850+state(%rip)
	movb	$0, 5851+state(%rip)
	movb	$0, 5852+state(%rip)
	movb	$0, 5853+state(%rip)
	movb	$0, 5854+state(%rip)
	movb	$0, 5855+state(%rip)
	movb	$0, 5856+state(%rip)
	movb	$0, 5857+state(%rip)
	movb	$0, 5858+state(%rip)
	movb	$0, 5859+state(%rip)
	movb	$0, 5860+state(%rip)
	movb	$0, 5861+state(%rip)
	movb	$0, 5862+state(%rip)
	movb	$0, 5863+state(%rip)
	movb	$0, 5864+state(%rip)
	movb	$0, 5865+state(%rip)
	movb	$0, 5866+state(%rip)
	movb	$0, 5867+state(%rip)
	movb	$0, 5868+state(%rip)
	movb	$0, 5869+state(%rip)
	movb	$0, 5870+state(%rip)
	movb	$0, 5871+state(%rip)
	movb	$0, 5872+state(%rip)
	movb	$0, 5873+state(%rip)
	movb	$0, 5874+state(%rip)
	movb	$0, 5875+state(%rip)
	movb	$0, 5876+state(%rip)
	movb	$0, 5877+state(%rip)
	movb	$0, 5878+state(%rip)
	movb	$0, 5879+state(%rip)
	movb	$0, 5880+state(%rip)
	movb	$0, 5881+state(%rip)
	movb	$0, 5882+state(%rip)
	movb	$0, 5883+state(%rip)
	movb	$0, 5884+state(%rip)
	movb	$0, 5885+state(%rip)
	movb	$0, 5886+state(%rip)
	movb	$0, 5887+state(%rip)
	movb	$0, 5888+state(%rip)
	movb	$0, 5889+state(%rip)
	movb	$0, 5890+state(%rip)
	movb	$0, 5891+state(%rip)
	movb	$0, 5892+state(%rip)
	movb	$0, 5893+state(%rip)
	movb	$0, 5894+state(%rip)
	movb	$0, 5895+state(%rip)
	movb	$0, 5896+state(%rip)
	movb	$0, 5897+state(%rip)
	movb	$0, 5898+state(%rip)
	movb	$0, 5899+state(%rip)
	movb	$0, 5900+state(%rip)
	movb	$0, 5901+state(%rip)
	movb	$0, 5902+state(%rip)
	movb	$0, 5903+state(%rip)
	movb	$0, 5904+state(%rip)
	movb	$0, 5905+state(%rip)
	movb	$0, 5906+state(%rip)
	movb	$0, 5907+state(%rip)
	movb	$0, 5908+state(%rip)
	movb	$0, 5909+state(%rip)
	movb	$0, 5910+state(%rip)
	movb	$0, 5911+state(%rip)
	movb	$0, 5912+state(%rip)
	movb	$0, 5913+state(%rip)
	movb	$0, 5914+state(%rip)
	movb	$0, 5915+state(%rip)
	movb	$0, 5916+state(%rip)
	movb	$0, 5917+state(%rip)
	movb	$0, 5918+state(%rip)
	movb	$0, 5919+state(%rip)
	movb	$0, 5920+state(%rip)
	movb	$0, 5921+state(%rip)
	movb	$0, 5922+state(%rip)
	movb	$0, 5923+state(%rip)
	movb	$0, 5924+state(%rip)
	movb	$0, 5925+state(%rip)
	movb	$0, 5926+state(%rip)
	movb	$0, 5927+state(%rip)
	movb	$0, 5928+state(%rip)
	movb	$0, 5929+state(%rip)
	movb	$0, 5930+state(%rip)
	movb	$0, 5931+state(%rip)
	movb	$0, 5932+state(%rip)
	movb	$0, 5933+state(%rip)
	movb	$0, 5934+state(%rip)
	movb	$0, 5935+state(%rip)
	movb	$0, 5936+state(%rip)
	movb	$0, 5937+state(%rip)
	movb	$0, 5938+state(%rip)
	movb	$0, 5939+state(%rip)
	movb	$0, 5940+state(%rip)
	movb	$0, 5941+state(%rip)
	movb	$0, 5942+state(%rip)
	movb	$0, 5943+state(%rip)
	movb	$0, 5944+state(%rip)
	movb	$0, 5945+state(%rip)
	movb	$0, 5946+state(%rip)
	movb	$0, 5947+state(%rip)
	movb	$0, 5948+state(%rip)
	movb	$0, 5949+state(%rip)
	movb	$0, 5950+state(%rip)
	movb	$0, 5951+state(%rip)
	movb	$0, 5952+state(%rip)
	movb	$0, 5953+state(%rip)
	movb	$0, 5954+state(%rip)
	movb	$0, 5955+state(%rip)
	movb	$0, 5956+state(%rip)
	movb	$0, 5957+state(%rip)
	movb	$0, 5958+state(%rip)
	movb	$0, 5959+state(%rip)
	movb	$0, 5960+state(%rip)
	movb	$0, 5961+state(%rip)
	movb	$0, 5962+state(%rip)
	movb	$0, 5963+state(%rip)
	movb	$0, 5964+state(%rip)
	movb	$0, 5965+state(%rip)
	movb	$0, 5966+state(%rip)
	movb	$0, 5967+state(%rip)
	movb	$0, 5968+state(%rip)
	movb	$0, 5969+state(%rip)
	movb	$0, 5970+state(%rip)
	movb	$0, 5971+state(%rip)
	movb	$0, 5972+state(%rip)
	movb	$0, 5973+state(%rip)
	movb	$0, 5974+state(%rip)
	movb	$0, 5975+state(%rip)
	movb	$0, 5976+state(%rip)
	movb	$0, 5977+state(%rip)
	movb	$0, 5978+state(%rip)
	movb	$0, 5979+state(%rip)
	movb	$0, 5980+state(%rip)
	movb	$0, 5981+state(%rip)
	movb	$0, 5982+state(%rip)
	movb	$0, 5983+state(%rip)
	movb	$0, 5984+state(%rip)
	movb	$0, 5985+state(%rip)
	movb	$0, 5986+state(%rip)
	movb	$0, 5987+state(%rip)
	movb	$0, 5988+state(%rip)
	movb	$0, 5989+state(%rip)
	movb	$0, 5990+state(%rip)
	movb	$0, 5991+state(%rip)
	movb	$0, 5992+state(%rip)
	movb	$0, 5993+state(%rip)
	movb	$0, 5994+state(%rip)
	movb	$0, 5995+state(%rip)
	movb	$0, 5996+state(%rip)
	movb	$0, 5997+state(%rip)
	movb	$0, 5998+state(%rip)
	movb	$0, 5999+state(%rip)
	movb	$0, 6000+state(%rip)
	movb	$0, 6001+state(%rip)
	movb	$0, 6002+state(%rip)
	movb	$0, 6003+state(%rip)
	movb	$0, 6004+state(%rip)
	movb	$0, 6005+state(%rip)
	movb	$0, 6006+state(%rip)
	movb	$0, 6007+state(%rip)
	movb	$0, 6008+state(%rip)
	movb	$0, 6009+state(%rip)
	movb	$0, 6010+state(%rip)
	movb	$0, 6011+state(%rip)
	movb	$0, 6012+state(%rip)
	movb	$0, 6013+state(%rip)
	movb	$0, 6014+state(%rip)
	movb	$0, 6015+state(%rip)
	movb	$0, 6016+state(%rip)
	movb	$0, 6017+state(%rip)
	movb	$0, 6018+state(%rip)
	movb	$0, 6019+state(%rip)
	movb	$0, 6020+state(%rip)
	movb	$0, 6021+state(%rip)
	movb	$0, 6022+state(%rip)
	movb	$0, 6023+state(%rip)
	movb	$0, 6024+state(%rip)
	movb	$0, 6025+state(%rip)
	movb	$0, 6026+state(%rip)
	movb	$0, 6027+state(%rip)
	movb	$0, 6028+state(%rip)
	movb	$0, 6029+state(%rip)
	movb	$0, 6030+state(%rip)
	movb	$0, 6031+state(%rip)
	movb	$0, 6032+state(%rip)
	movb	$0, 6033+state(%rip)
	movb	$0, 6034+state(%rip)
	movb	$0, 6035+state(%rip)
	movb	$0, 6036+state(%rip)
	movb	$0, 6037+state(%rip)
	movb	$0, 6038+state(%rip)
	movb	$0, 6039+state(%rip)
	movb	$0, 6040+state(%rip)
	movb	$0, 6041+state(%rip)
	movb	$0, 6042+state(%rip)
	movb	$0, 6043+state(%rip)
	movb	$0, 6044+state(%rip)
	movb	$0, 6045+state(%rip)
	movb	$0, 6046+state(%rip)
	movb	$0, 6047+state(%rip)
	movb	$0, 6048+state(%rip)
	movb	$0, 6049+state(%rip)
	movb	$0, 6050+state(%rip)
	movb	$0, 6051+state(%rip)
	movb	$0, 6052+state(%rip)
	movb	$0, 6053+state(%rip)
	movb	$0, 6054+state(%rip)
	movb	$0, 6055+state(%rip)
	movb	$0, 6056+state(%rip)
	movb	$0, 6057+state(%rip)
	movb	$0, 6058+state(%rip)
	movb	$0, 6059+state(%rip)
	movb	$0, 6060+state(%rip)
	movb	$0, 6061+state(%rip)
	movb	$0, 6062+state(%rip)
	movb	$0, 6063+state(%rip)
	movb	$0, 6064+state(%rip)
	movb	$0, 6065+state(%rip)
	movb	$0, 6066+state(%rip)
	movb	$0, 6067+state(%rip)
	movb	$0, 6068+state(%rip)
	movb	$0, 6069+state(%rip)
	movb	$0, 6070+state(%rip)
	movb	$0, 6071+state(%rip)
	movb	$0, 6072+state(%rip)
	movb	$0, 6073+state(%rip)
	movb	$0, 6074+state(%rip)
	movb	$0, 6075+state(%rip)
	movb	$0, 6076+state(%rip)
	movb	$0, 6077+state(%rip)
	movb	$0, 6078+state(%rip)
	movb	$0, 6079+state(%rip)
	movb	$0, 6080+state(%rip)
	movb	$0, 6081+state(%rip)
	movb	$0, 6082+state(%rip)
	movb	$0, 6083+state(%rip)
	movb	$0, 6084+state(%rip)
	movb	$0, 6085+state(%rip)
	movb	$0, 6086+state(%rip)
	movb	$0, 6087+state(%rip)
	movb	$0, 6088+state(%rip)
	movb	$0, 6089+state(%rip)
	movb	$0, 6090+state(%rip)
	movb	$0, 6091+state(%rip)
	movb	$0, 6092+state(%rip)
	movb	$0, 6093+state(%rip)
	movb	$0, 6094+state(%rip)
	movb	$0, 6095+state(%rip)
	movb	$0, 6096+state(%rip)
	movb	$0, 6097+state(%rip)
	movb	$0, 6098+state(%rip)
	movb	$0, 6099+state(%rip)
	movb	$0, 6100+state(%rip)
	movb	$0, 6101+state(%rip)
	movb	$0, 6102+state(%rip)
	movb	$0, 6103+state(%rip)
	movb	$0, 6104+state(%rip)
	movb	$0, 6105+state(%rip)
	movb	$0, 6106+state(%rip)
	movb	$0, 6107+state(%rip)
	movb	$0, 6108+state(%rip)
	movb	$0, 6109+state(%rip)
	movb	$0, 6110+state(%rip)
	movb	$0, 6111+state(%rip)
	movb	$0, 6112+state(%rip)
	movb	$0, 6113+state(%rip)
	movb	$0, 6114+state(%rip)
	movb	$0, 6115+state(%rip)
	movb	$0, 6116+state(%rip)
	movb	$0, 6117+state(%rip)
	movb	$0, 6118+state(%rip)
	movb	$0, 6119+state(%rip)
	movb	$0, 6120+state(%rip)
	movb	$0, 6121+state(%rip)
	movb	$0, 6122+state(%rip)
	movb	$0, 6123+state(%rip)
	movb	$0, 6124+state(%rip)
	movb	$0, 6125+state(%rip)
	movb	$0, 6126+state(%rip)
	movb	$0, 6127+state(%rip)
	movb	$0, 6128+state(%rip)
	movb	$0, 6129+state(%rip)
	movb	$0, 6130+state(%rip)
	movb	$0, 6131+state(%rip)
	movb	$0, 6132+state(%rip)
	movb	$0, 6133+state(%rip)
	movb	$0, 6134+state(%rip)
	movb	$0, 6135+state(%rip)
	movb	$0, 6136+state(%rip)
	movb	$0, 6137+state(%rip)
	movb	$0, 6138+state(%rip)
	movb	$0, 6139+state(%rip)
	movb	$0, 6140+state(%rip)
	movb	$0, 6141+state(%rip)
	movb	$0, 6142+state(%rip)
	movb	$0, 6143+state(%rip)
	movb	$0, 6144+state(%rip)
	movb	$0, 6145+state(%rip)
	movb	$0, 6146+state(%rip)
	movb	$0, 6147+state(%rip)
	movb	$0, 6148+state(%rip)
	movb	$0, 6149+state(%rip)
	movb	$0, 6150+state(%rip)
	movb	$0, 6151+state(%rip)
	movb	$0, 6152+state(%rip)
	movb	$0, 6153+state(%rip)
	movb	$0, 6154+state(%rip)
	movb	$0, 6155+state(%rip)
	movb	$0, 6156+state(%rip)
	movb	$0, 6157+state(%rip)
	movb	$0, 6158+state(%rip)
	movb	$0, 6159+state(%rip)
	movb	$0, 6160+state(%rip)
	movb	$0, 6161+state(%rip)
	movb	$0, 6162+state(%rip)
	movb	$0, 6163+state(%rip)
	movb	$0, 6164+state(%rip)
	movb	$0, 6165+state(%rip)
	movb	$0, 6166+state(%rip)
	movb	$0, 6167+state(%rip)
	movb	$0, 6168+state(%rip)
	movb	$0, 6169+state(%rip)
	movb	$0, 6170+state(%rip)
	movb	$0, 6171+state(%rip)
	movb	$0, 6172+state(%rip)
	movb	$0, 6173+state(%rip)
	movb	$0, 6174+state(%rip)
	movb	$0, 6175+state(%rip)
	movb	$0, 6176+state(%rip)
	movb	$0, 6177+state(%rip)
	movb	$0, 6178+state(%rip)
	movb	$0, 6179+state(%rip)
	movb	$0, 6180+state(%rip)
	movb	$0, 6181+state(%rip)
	movb	$0, 6182+state(%rip)
	movb	$0, 6183+state(%rip)
	movb	$0, 6184+state(%rip)
	movb	$0, 6185+state(%rip)
	movb	$0, 6186+state(%rip)
	movb	$0, 6187+state(%rip)
	movb	$0, 6188+state(%rip)
	movb	$0, 6189+state(%rip)
	movb	$0, 6190+state(%rip)
	movb	$0, 6191+state(%rip)
	movb	$0, 6192+state(%rip)
	movb	$0, 6193+state(%rip)
	movb	$0, 6194+state(%rip)
	movb	$0, 6195+state(%rip)
	movb	$0, 6196+state(%rip)
	movb	$0, 6197+state(%rip)
	movb	$0, 6198+state(%rip)
	movb	$0, 6199+state(%rip)
	movb	$0, 6200+state(%rip)
	movb	$0, 6201+state(%rip)
	movb	$0, 6202+state(%rip)
	movb	$0, 6203+state(%rip)
	movb	$0, 6204+state(%rip)
	movb	$0, 6205+state(%rip)
	movb	$0, 6206+state(%rip)
	movb	$0, 6207+state(%rip)
	movb	$0, 6208+state(%rip)
	movb	$0, 6209+state(%rip)
	movb	$0, 6210+state(%rip)
	movb	$0, 6211+state(%rip)
	movb	$0, 6212+state(%rip)
	movb	$0, 6213+state(%rip)
	movb	$0, 6214+state(%rip)
	movb	$0, 6215+state(%rip)
	movb	$0, 6216+state(%rip)
	movb	$0, 6217+state(%rip)
	movb	$0, 6218+state(%rip)
	movb	$0, 6219+state(%rip)
	movb	$0, 6220+state(%rip)
	movb	$0, 6221+state(%rip)
	movb	$0, 6222+state(%rip)
	movb	$0, 6223+state(%rip)
	movb	$0, 6224+state(%rip)
	movb	$0, 6225+state(%rip)
	movb	$0, 6226+state(%rip)
	movb	$0, 6227+state(%rip)
	movb	$0, 6228+state(%rip)
	movb	$0, 6229+state(%rip)
	movb	$0, 6230+state(%rip)
	movb	$0, 6231+state(%rip)
	movb	$0, 6232+state(%rip)
	movb	$0, 6233+state(%rip)
	movb	$0, 6234+state(%rip)
	movb	$0, 6235+state(%rip)
	movb	$0, 6236+state(%rip)
	movb	$0, 6237+state(%rip)
	movb	$0, 6238+state(%rip)
	movb	$0, 6239+state(%rip)
	movb	$0, 6240+state(%rip)
	movb	$0, 6241+state(%rip)
	movb	$0, 6242+state(%rip)
	movb	$0, 6243+state(%rip)
	movb	$0, 6244+state(%rip)
	movb	$0, 6245+state(%rip)
	movb	$0, 6246+state(%rip)
	movb	$0, 6247+state(%rip)
	movb	$0, 6248+state(%rip)
	movb	$0, 6249+state(%rip)
	movb	$0, 6250+state(%rip)
	movb	$0, 6251+state(%rip)
	movb	$0, 6252+state(%rip)
	movb	$0, 6253+state(%rip)
	movb	$0, 6254+state(%rip)
	movb	$0, 6255+state(%rip)
	movb	$0, 6256+state(%rip)
	movb	$0, 6257+state(%rip)
	movb	$0, 6258+state(%rip)
	movb	$0, 6259+state(%rip)
	movb	$0, 6260+state(%rip)
	movb	$0, 6261+state(%rip)
	movb	$0, 6262+state(%rip)
	movb	$0, 6263+state(%rip)
	movb	$0, 6264+state(%rip)
	movb	$0, 6265+state(%rip)
	movb	$0, 6266+state(%rip)
	movb	$0, 6267+state(%rip)
	movb	$0, 6268+state(%rip)
	movb	$0, 6269+state(%rip)
	movb	$0, 6270+state(%rip)
	movb	$0, 6271+state(%rip)
	movb	$0, 6272+state(%rip)
	movb	$0, 6273+state(%rip)
	movb	$0, 6274+state(%rip)
	movb	$0, 6275+state(%rip)
	movb	$0, 6276+state(%rip)
	movb	$0, 6277+state(%rip)
	movb	$0, 6278+state(%rip)
	movb	$0, 6279+state(%rip)
	movb	$0, 6280+state(%rip)
	movb	$0, 6281+state(%rip)
	movb	$0, 6282+state(%rip)
	movb	$0, 6283+state(%rip)
	movb	$0, 6284+state(%rip)
	movb	$0, 6285+state(%rip)
	movb	$0, 6286+state(%rip)
	movb	$0, 6287+state(%rip)
	movb	$0, 6288+state(%rip)
	movb	$0, 6289+state(%rip)
	movb	$0, 6290+state(%rip)
	movb	$0, 6291+state(%rip)
	movb	$0, 6292+state(%rip)
	movb	$0, 6293+state(%rip)
	movb	$0, 6294+state(%rip)
	movb	$0, 6295+state(%rip)
	movb	$0, 6296+state(%rip)
	movb	$0, 6297+state(%rip)
	movb	$0, 6298+state(%rip)
	movb	$0, 6299+state(%rip)
	movb	$0, 6300+state(%rip)
	movb	$0, 6301+state(%rip)
	movb	$0, 6302+state(%rip)
	movb	$0, 6303+state(%rip)
	movb	$0, 6304+state(%rip)
	movb	$0, 6305+state(%rip)
	movb	$0, 6306+state(%rip)
	movb	$0, 6307+state(%rip)
	movb	$0, 6308+state(%rip)
	movb	$0, 6309+state(%rip)
	movb	$0, 6310+state(%rip)
	movb	$0, 6311+state(%rip)
	movb	$0, 6312+state(%rip)
	movb	$0, 6313+state(%rip)
	movb	$0, 6314+state(%rip)
	movb	$0, 6315+state(%rip)
	movb	$0, 6316+state(%rip)
	movb	$0, 6317+state(%rip)
	movb	$0, 6318+state(%rip)
	movb	$0, 6319+state(%rip)
	movb	$0, 6320+state(%rip)
	movb	$0, 6321+state(%rip)
	movb	$0, 6322+state(%rip)
	movb	$0, 6323+state(%rip)
	movb	$0, 6324+state(%rip)
	movb	$0, 6325+state(%rip)
	movb	$0, 6326+state(%rip)
	movb	$0, 6327+state(%rip)
	movb	$0, 6328+state(%rip)
	movb	$0, 6329+state(%rip)
	movb	$0, 6330+state(%rip)
	movb	$0, 6331+state(%rip)
	movb	$0, 6332+state(%rip)
	movb	$0, 6333+state(%rip)
	movb	$0, 6334+state(%rip)
	movb	$0, 6335+state(%rip)
	movb	$0, 6336+state(%rip)
	movb	$0, 6337+state(%rip)
	movb	$0, 6338+state(%rip)
	movb	$0, 6339+state(%rip)
	movb	$0, 6340+state(%rip)
	movb	$0, 6341+state(%rip)
	movb	$0, 6342+state(%rip)
