	.file	"ZhichuCen_LearnC_zhemo_sizeyunsuan_opaque.c"
	.text
	.globl	_TIG_iO_fQt7_1_g_1_opaque_ptr_1
	.bss
	.align 8
	.type	_TIG_iO_fQt7_1_g_1_opaque_ptr_1, @object
	.size	_TIG_iO_fQt7_1_g_1_opaque_ptr_1, 8
_TIG_iO_fQt7_1_g_1_opaque_ptr_1:
	.zero	8
	.globl	_TIG_iO_fQt7_1_l_1_opaque_ptr_2
	.align 8
	.type	_TIG_iO_fQt7_1_l_1_opaque_ptr_2, @object
	.size	_TIG_iO_fQt7_1_l_1_opaque_ptr_2, 8
_TIG_iO_fQt7_1_l_1_opaque_ptr_2:
	.zero	8
	.globl	_TIG_iO_fQt7_1___uint16_identity_1_opaque_ptr_2
	.align 8
	.type	_TIG_iO_fQt7_1___uint16_identity_1_opaque_ptr_2, @object
	.size	_TIG_iO_fQt7_1___uint16_identity_1_opaque_ptr_2, 8
_TIG_iO_fQt7_1___uint16_identity_1_opaque_ptr_2:
	.zero	8
	.globl	_TIG_iO_fQt7_1___bswap_16_1_opaque_list_1
	.align 8
	.type	_TIG_iO_fQt7_1___bswap_16_1_opaque_list_1, @object
	.size	_TIG_iO_fQt7_1___bswap_16_1_opaque_list_1, 8
_TIG_iO_fQt7_1___bswap_16_1_opaque_list_1:
	.zero	8
	.globl	_TIG_iO_fQt7_1___uint16_identity_1_opaque_list_1
	.align 8
	.type	_TIG_iO_fQt7_1___uint16_identity_1_opaque_list_1, @object
	.size	_TIG_iO_fQt7_1___uint16_identity_1_opaque_list_1, 8
_TIG_iO_fQt7_1___uint16_identity_1_opaque_list_1:
	.zero	8
	.globl	_TIG_iO_fQt7_1___bswap_64_1_opaque_list_2
	.align 8
	.type	_TIG_iO_fQt7_1___bswap_64_1_opaque_list_2, @object
	.size	_TIG_iO_fQt7_1___bswap_64_1_opaque_list_2, 8
_TIG_iO_fQt7_1___bswap_64_1_opaque_list_2:
	.zero	8
	.globl	_TIG_iO_fQt7_1___uint32_identity_1_opaque_list_2
	.align 8
	.type	_TIG_iO_fQt7_1___uint32_identity_1_opaque_list_2, @object
	.size	_TIG_iO_fQt7_1___uint32_identity_1_opaque_list_2, 8
_TIG_iO_fQt7_1___uint32_identity_1_opaque_list_2:
	.zero	8
	.globl	_TIG_IZ_fQt7_argc
	.align 4
	.type	_TIG_IZ_fQt7_argc, @object
	.size	_TIG_IZ_fQt7_argc, 4
_TIG_IZ_fQt7_argc:
	.zero	4
	.globl	_TIG_iO_fQt7_1_l_1_opaque_ptr_1
	.align 8
	.type	_TIG_iO_fQt7_1_l_1_opaque_ptr_1, @object
	.size	_TIG_iO_fQt7_1_l_1_opaque_ptr_1, 8
_TIG_iO_fQt7_1_l_1_opaque_ptr_1:
	.zero	8
	.globl	_TIG_iO_fQt7_1_g_1_opaque_list_1
	.align 8
	.type	_TIG_iO_fQt7_1_g_1_opaque_list_1, @object
	.size	_TIG_iO_fQt7_1_g_1_opaque_list_1, 8
_TIG_iO_fQt7_1_g_1_opaque_list_1:
	.zero	8
	.globl	_TIG_iO_fQt7_1___uint64_identity_1_opaque_ptr_2
	.align 8
	.type	_TIG_iO_fQt7_1___uint64_identity_1_opaque_ptr_2, @object
	.size	_TIG_iO_fQt7_1___uint64_identity_1_opaque_ptr_2, 8
_TIG_iO_fQt7_1___uint64_identity_1_opaque_ptr_2:
	.zero	8
	.globl	_TIG_iO_fQt7_1_main_1_opaque_ptr_1
	.align 8
	.type	_TIG_iO_fQt7_1_main_1_opaque_ptr_1, @object
	.size	_TIG_iO_fQt7_1_main_1_opaque_ptr_1, 8
_TIG_iO_fQt7_1_main_1_opaque_ptr_1:
	.zero	8
	.globl	_TIG_IZ_fQt7_envp
	.align 8
	.type	_TIG_IZ_fQt7_envp, @object
	.size	_TIG_IZ_fQt7_envp, 8
_TIG_IZ_fQt7_envp:
	.zero	8
	.globl	_TIG_iO_fQt7_1_r_1_opaque_list_2
	.align 8
	.type	_TIG_iO_fQt7_1_r_1_opaque_list_2, @object
	.size	_TIG_iO_fQt7_1_r_1_opaque_list_2, 8
_TIG_iO_fQt7_1_r_1_opaque_list_2:
	.zero	8
	.globl	_TIG_iO_fQt7_1___bswap_32_1_opaque_list_2
	.align 8
	.type	_TIG_iO_fQt7_1___bswap_32_1_opaque_list_2, @object
	.size	_TIG_iO_fQt7_1___bswap_32_1_opaque_list_2, 8
_TIG_iO_fQt7_1___bswap_32_1_opaque_list_2:
	.zero	8
	.globl	_TIG_iO_fQt7_1___uint64_identity_1_opaque_ptr_1
	.align 8
	.type	_TIG_iO_fQt7_1___uint64_identity_1_opaque_ptr_1, @object
	.size	_TIG_iO_fQt7_1___uint64_identity_1_opaque_ptr_1, 8
_TIG_iO_fQt7_1___uint64_identity_1_opaque_ptr_1:
	.zero	8
	.globl	_TIG_iO_fQt7_1___bswap_16_1_opaque_ptr_1
	.align 8
	.type	_TIG_iO_fQt7_1___bswap_16_1_opaque_ptr_1, @object
	.size	_TIG_iO_fQt7_1___bswap_16_1_opaque_ptr_1, 8
_TIG_iO_fQt7_1___bswap_16_1_opaque_ptr_1:
	.zero	8
	.globl	_TIG_iO_fQt7_1_l_1_opaque_list_1
	.align 8
	.type	_TIG_iO_fQt7_1_l_1_opaque_list_1, @object
	.size	_TIG_iO_fQt7_1_l_1_opaque_list_1, 8
_TIG_iO_fQt7_1_l_1_opaque_list_1:
	.zero	8
	.globl	_TIG_iO_fQt7_1_r_1_opaque_ptr_1
	.align 8
	.type	_TIG_iO_fQt7_1_r_1_opaque_ptr_1, @object
	.size	_TIG_iO_fQt7_1_r_1_opaque_ptr_1, 8
_TIG_iO_fQt7_1_r_1_opaque_ptr_1:
	.zero	8
	.globl	_TIG_IZ_fQt7_argv
	.align 8
	.type	_TIG_IZ_fQt7_argv, @object
	.size	_TIG_IZ_fQt7_argv, 8
_TIG_IZ_fQt7_argv:
	.zero	8
	.globl	_TIG_iO_fQt7_1___bswap_16_1_opaque_ptr_2
	.align 8
	.type	_TIG_iO_fQt7_1___bswap_16_1_opaque_ptr_2, @object
	.size	_TIG_iO_fQt7_1___bswap_16_1_opaque_ptr_2, 8
_TIG_iO_fQt7_1___bswap_16_1_opaque_ptr_2:
	.zero	8
	.globl	_TIG_iO_fQt7_1___uint32_identity_1_opaque_ptr_2
	.align 8
	.type	_TIG_iO_fQt7_1___uint32_identity_1_opaque_ptr_2, @object
	.size	_TIG_iO_fQt7_1___uint32_identity_1_opaque_ptr_2, 8
_TIG_iO_fQt7_1___uint32_identity_1_opaque_ptr_2:
	.zero	8
	.globl	_TIG_iO_fQt7_1_ab_1_opaque_ptr_1
	.align 8
	.type	_TIG_iO_fQt7_1_ab_1_opaque_ptr_1, @object
	.size	_TIG_iO_fQt7_1_ab_1_opaque_ptr_1, 8
_TIG_iO_fQt7_1_ab_1_opaque_ptr_1:
	.zero	8
	.globl	_TIG_iO_fQt7_1___bswap_16_1_opaque_list_2
	.align 8
	.type	_TIG_iO_fQt7_1___bswap_16_1_opaque_list_2, @object
	.size	_TIG_iO_fQt7_1___bswap_16_1_opaque_list_2, 8
_TIG_iO_fQt7_1___bswap_16_1_opaque_list_2:
	.zero	8
	.globl	_TIG_iO_fQt7_1_ab_1_opaque_list_2
	.align 8
	.type	_TIG_iO_fQt7_1_ab_1_opaque_list_2, @object
	.size	_TIG_iO_fQt7_1_ab_1_opaque_list_2, 8
_TIG_iO_fQt7_1_ab_1_opaque_list_2:
	.zero	8
	.globl	_TIG_iO_fQt7_1_r_1_opaque_ptr_2
	.align 8
	.type	_TIG_iO_fQt7_1_r_1_opaque_ptr_2, @object
	.size	_TIG_iO_fQt7_1_r_1_opaque_ptr_2, 8
_TIG_iO_fQt7_1_r_1_opaque_ptr_2:
	.zero	8
	.globl	_TIG_iO_fQt7_1_g_1_opaque_ptr_2
	.align 8
	.type	_TIG_iO_fQt7_1_g_1_opaque_ptr_2, @object
	.size	_TIG_iO_fQt7_1_g_1_opaque_ptr_2, 8
_TIG_iO_fQt7_1_g_1_opaque_ptr_2:
	.zero	8
	.globl	_TIG_iO_fQt7_1___uint64_identity_1_opaque_list_1
	.align 8
	.type	_TIG_iO_fQt7_1___uint64_identity_1_opaque_list_1, @object
	.size	_TIG_iO_fQt7_1___uint64_identity_1_opaque_list_1, 8
_TIG_iO_fQt7_1___uint64_identity_1_opaque_list_1:
	.zero	8
	.globl	_TIG_iO_fQt7_1___bswap_32_1_opaque_ptr_1
	.align 8
	.type	_TIG_iO_fQt7_1___bswap_32_1_opaque_ptr_1, @object
	.size	_TIG_iO_fQt7_1___bswap_32_1_opaque_ptr_1, 8
_TIG_iO_fQt7_1___bswap_32_1_opaque_ptr_1:
	.zero	8
	.globl	_TIG_iO_fQt7_1___uint16_identity_1_opaque_ptr_1
	.align 8
	.type	_TIG_iO_fQt7_1___uint16_identity_1_opaque_ptr_1, @object
	.size	_TIG_iO_fQt7_1___uint16_identity_1_opaque_ptr_1, 8
_TIG_iO_fQt7_1___uint16_identity_1_opaque_ptr_1:
	.zero	8
	.globl	_TIG_iO_fQt7_1___uint32_identity_1_opaque_list_1
	.align 8
	.type	_TIG_iO_fQt7_1___uint32_identity_1_opaque_list_1, @object
	.size	_TIG_iO_fQt7_1___uint32_identity_1_opaque_list_1, 8
_TIG_iO_fQt7_1___uint32_identity_1_opaque_list_1:
	.zero	8
	.globl	_TIG_iO_fQt7_1_g_1_opaque_list_2
	.align 8
	.type	_TIG_iO_fQt7_1_g_1_opaque_list_2, @object
	.size	_TIG_iO_fQt7_1_g_1_opaque_list_2, 8
_TIG_iO_fQt7_1_g_1_opaque_list_2:
	.zero	8
	.globl	_TIG_iO_fQt7_1_ab_1_opaque_ptr_2
	.align 8
	.type	_TIG_iO_fQt7_1_ab_1_opaque_ptr_2, @object
	.size	_TIG_iO_fQt7_1_ab_1_opaque_ptr_2, 8
_TIG_iO_fQt7_1_ab_1_opaque_ptr_2:
	.zero	8
	.globl	_TIG_iO_fQt7_1_l_1_opaque_list_2
	.align 8
	.type	_TIG_iO_fQt7_1_l_1_opaque_list_2, @object
	.size	_TIG_iO_fQt7_1_l_1_opaque_list_2, 8
_TIG_iO_fQt7_1_l_1_opaque_list_2:
	.zero	8
	.globl	_TIG_iO_fQt7_1_r_1_opaque_list_1
	.align 8
	.type	_TIG_iO_fQt7_1_r_1_opaque_list_1, @object
	.size	_TIG_iO_fQt7_1_r_1_opaque_list_1, 8
_TIG_iO_fQt7_1_r_1_opaque_list_1:
	.zero	8
	.globl	_TIG_iO_fQt7_1___uint32_identity_1_opaque_ptr_1
	.align 8
	.type	_TIG_iO_fQt7_1___uint32_identity_1_opaque_ptr_1, @object
	.size	_TIG_iO_fQt7_1___uint32_identity_1_opaque_ptr_1, 8
_TIG_iO_fQt7_1___uint32_identity_1_opaque_ptr_1:
	.zero	8
	.globl	_TIG_iO_fQt7_1_main_1_opaque_ptr_2
	.align 8
	.type	_TIG_iO_fQt7_1_main_1_opaque_ptr_2, @object
	.size	_TIG_iO_fQt7_1_main_1_opaque_ptr_2, 8
_TIG_iO_fQt7_1_main_1_opaque_ptr_2:
	.zero	8
	.globl	_TIG_iO_fQt7_1_main_1_opaque_list_2
	.align 8
	.type	_TIG_iO_fQt7_1_main_1_opaque_list_2, @object
	.size	_TIG_iO_fQt7_1_main_1_opaque_list_2, 8
_TIG_iO_fQt7_1_main_1_opaque_list_2:
	.zero	8
	.globl	_TIG_iO_fQt7_1___bswap_64_1_opaque_list_1
	.align 8
	.type	_TIG_iO_fQt7_1___bswap_64_1_opaque_list_1, @object
	.size	_TIG_iO_fQt7_1___bswap_64_1_opaque_list_1, 8
_TIG_iO_fQt7_1___bswap_64_1_opaque_list_1:
	.zero	8
	.globl	_TIG_iO_fQt7_1___bswap_32_1_opaque_list_1
	.align 8
	.type	_TIG_iO_fQt7_1___bswap_32_1_opaque_list_1, @object
	.size	_TIG_iO_fQt7_1___bswap_32_1_opaque_list_1, 8
_TIG_iO_fQt7_1___bswap_32_1_opaque_list_1:
	.zero	8
	.globl	_TIG_iO_fQt7_1___uint16_identity_1_opaque_list_2
	.align 8
	.type	_TIG_iO_fQt7_1___uint16_identity_1_opaque_list_2, @object
	.size	_TIG_iO_fQt7_1___uint16_identity_1_opaque_list_2, 8
_TIG_iO_fQt7_1___uint16_identity_1_opaque_list_2:
	.zero	8
	.globl	_TIG_iO_fQt7_1___uint64_identity_1_opaque_list_2
	.align 8
	.type	_TIG_iO_fQt7_1___uint64_identity_1_opaque_list_2, @object
	.size	_TIG_iO_fQt7_1___uint64_identity_1_opaque_list_2, 8
_TIG_iO_fQt7_1___uint64_identity_1_opaque_list_2:
	.zero	8
	.globl	_TIG_iO_fQt7_1___bswap_64_1_opaque_ptr_2
	.align 8
	.type	_TIG_iO_fQt7_1___bswap_64_1_opaque_ptr_2, @object
	.size	_TIG_iO_fQt7_1___bswap_64_1_opaque_ptr_2, 8
_TIG_iO_fQt7_1___bswap_64_1_opaque_ptr_2:
	.zero	8
	.globl	_TIG_iO_fQt7_1_main_1_opaque_list_1
	.align 8
	.type	_TIG_iO_fQt7_1_main_1_opaque_list_1, @object
	.size	_TIG_iO_fQt7_1_main_1_opaque_list_1, 8
_TIG_iO_fQt7_1_main_1_opaque_list_1:
	.zero	8
	.globl	_TIG_iO_fQt7_1_ab_1_opaque_list_1
	.align 8
	.type	_TIG_iO_fQt7_1_ab_1_opaque_list_1, @object
	.size	_TIG_iO_fQt7_1_ab_1_opaque_list_1, 8
_TIG_iO_fQt7_1_ab_1_opaque_list_1:
	.zero	8
	.globl	_TIG_iO_fQt7_1___bswap_32_1_opaque_ptr_2
	.align 8
	.type	_TIG_iO_fQt7_1___bswap_32_1_opaque_ptr_2, @object
	.size	_TIG_iO_fQt7_1___bswap_32_1_opaque_ptr_2, 8
_TIG_iO_fQt7_1___bswap_32_1_opaque_ptr_2:
	.zero	8
	.globl	_TIG_iO_fQt7_1___bswap_64_1_opaque_ptr_1
	.align 8
	.type	_TIG_iO_fQt7_1___bswap_64_1_opaque_ptr_1, @object
	.size	_TIG_iO_fQt7_1___bswap_64_1_opaque_ptr_1, 8
_TIG_iO_fQt7_1___bswap_64_1_opaque_ptr_1:
	.zero	8
	.text
	.globl	g
	.type	g, @function
g:
.LFB0:
	.cfi_startproc
	endbr64
	pushq	%rbp
	.cfi_def_cfa_offset 16
	.cfi_offset 6, -16
	movq	%rsp, %rbp
	.cfi_def_cfa_register 6
	subq	$64, %rsp
	movl	%edi, -52(%rbp)
	movl	%esi, -56(%rbp)
#APP
# 84 "/usr/include/stdlib.h" 1
	##_ANNOTATION_INITIALREGION_-TIG-iO-fQt7-1-g--16
# 0 "" 2
# 88 "/usr/include/stdlib.h" 1
	##_ANNOTATION_ATOMICREGION_-TIG-iO-fQt7-1-g--15
# 0 "" 2
#NO_APP
	movl	$24, %edi
	call	malloc@PLT
	movq	%rax, -24(%rbp)
	movq	-24(%rbp), %rax
	movq	-24(%rbp), %rdx
	movq	%rdx, 16(%rax)
	movq	-24(%rbp), %rax
	movq	-24(%rbp), %rdx
	movq	%rdx, 8(%rax)
	movq	-24(%rbp), %rax
	movq	%rax, _TIG_iO_fQt7_1_g_1_opaque_list_1(%rip)
	call	rand@PLT
	movl	%eax, -36(%rbp)
	movl	$24, %edi
	call	malloc@PLT
	movq	%rax, -16(%rbp)
	movq	-16(%rbp), %rax
	movl	$0, (%rax)
	movq	_TIG_iO_fQt7_1_g_1_opaque_list_1(%rip), %rax
	movq	16(%rax), %rdx
	movq	-16(%rbp), %rax
	movq	%rdx, 16(%rax)
	movq	_TIG_iO_fQt7_1_g_1_opaque_list_1(%rip), %rdx
	movq	-16(%rbp), %rax
	movq	%rdx, 8(%rax)
	movq	_TIG_iO_fQt7_1_g_1_opaque_list_1(%rip), %rax
	movq	16(%rax), %rax
	movq	-16(%rbp), %rdx
	movq	%rdx, 8(%rax)
	movq	_TIG_iO_fQt7_1_g_1_opaque_list_1(%rip), %rax
	movq	-16(%rbp), %rdx
	movq	%rdx, 16(%rax)
	call	rand@PLT
	movl	%eax, -32(%rbp)
	movl	$24, %edi
	call	malloc@PLT
	movq	%rax, -8(%rbp)
	movq	-8(%rbp), %rax
	movl	-32(%rbp), %edx
	movl	%edx, (%rax)
	movq	_TIG_iO_fQt7_1_g_1_opaque_list_1(%rip), %rax
	movq	16(%rax), %rdx
	movq	-8(%rbp), %rax
	movq	%rdx, 16(%rax)
	movq	_TIG_iO_fQt7_1_g_1_opaque_list_1(%rip), %rdx
	movq	-8(%rbp), %rax
	movq	%rdx, 8(%rax)
	movq	_TIG_iO_fQt7_1_g_1_opaque_list_1(%rip), %rax
	movq	16(%rax), %rax
	movq	-8(%rbp), %rdx
	movq	%rdx, 8(%rax)
	movq	_TIG_iO_fQt7_1_g_1_opaque_list_1(%rip), %rax
	movq	-8(%rbp), %rdx
	movq	%rdx, 16(%rax)
	movq	_TIG_iO_fQt7_1_g_1_opaque_list_1(%rip), %rax
	movq	16(%rax), %rax
	movq	%rax, _TIG_iO_fQt7_1_g_1_opaque_ptr_1(%rip)
	movq	_TIG_iO_fQt7_1_g_1_opaque_ptr_1(%rip), %rax
	movq	%rax, _TIG_iO_fQt7_1_g_1_opaque_ptr_2(%rip)
	nop
	nop
	cmpl	$0, -56(%rbp)
	je	.L2
	movl	-52(%rbp), %eax
	cltd
	idivl	-56(%rbp)
	movl	-56(%rbp), %eax
	movl	%edx, %esi
	movl	%eax, %edi
	call	g
	movl	%eax, -28(%rbp)
	movl	-28(%rbp), %eax
	movl	%eax, -40(%rbp)
	jmp	.L3
.L2:
	cmpl	$0, -52(%rbp)
	je	.L4
	movl	-52(%rbp), %eax
	movl	%eax, -44(%rbp)
	jmp	.L5
.L4:
	movl	$1, -44(%rbp)
.L5:
	movq	_TIG_iO_fQt7_1_r_1_opaque_ptr_1(%rip), %rdx
	movq	_TIG_iO_fQt7_1_r_1_opaque_ptr_2(%rip), %rax
	cmpq	%rax, %rdx
	jne	.L6
#APP
# 6 "ZhichuCen_LearnC_zhemo_sizeyunsuan.c" 1
	.byte 0xc0,0xf,0x84,0x21,0x3,0x0,0x0
# 0 "" 2
#NO_APP
	jmp	.L3
.L6:
	movl	-44(%rbp), %eax
	movl	%eax, -40(%rbp)
.L3:
	movl	-40(%rbp), %eax
	leave
	.cfi_def_cfa 7, 8
	ret
	.cfi_endproc
.LFE0:
	.size	g, .-g
	.globl	r
	.type	r, @function
r:
.LFB2:
	.cfi_startproc
	endbr64
	pushq	%rbp
	.cfi_def_cfa_offset 16
	.cfi_offset 6, -16
	movq	%rsp, %rbp
	.cfi_def_cfa_register 6
	subq	$64, %rsp
	movss	%xmm0, -52(%rbp)
#APP
# 68 "/usr/include/x86_64-linux-gnu/bits/uintn-identity.h" 1
	##_ANNOTATION_INITIALREGION_-TIG-iO-fQt7-1-r--22
# 0 "" 2
# 72 "/usr/include/x86_64-linux-gnu/bits/uintn-identity.h" 1
	##_ANNOTATION_ATOMICREGION_-TIG-iO-fQt7-1-r--21
# 0 "" 2
#NO_APP
	movl	$24, %edi
	call	malloc@PLT
	movq	%rax, -32(%rbp)
	movq	-32(%rbp), %rax
	movq	-32(%rbp), %rdx
	movq	%rdx, (%rax)
	movq	-32(%rbp), %rax
	movq	-32(%rbp), %rdx
	movq	%rdx, 16(%rax)
	movq	-32(%rbp), %rax
	movq	%rax, _TIG_iO_fQt7_1_r_1_opaque_list_1(%rip)
	call	rand@PLT
	movl	%eax, -44(%rbp)
	movl	$24, %edi
	call	malloc@PLT
	movq	%rax, -24(%rbp)
	movq	-24(%rbp), %rax
	movl	$0, 8(%rax)
	movq	_TIG_iO_fQt7_1_r_1_opaque_list_1(%rip), %rax
	movq	(%rax), %rdx
	movq	-24(%rbp), %rax
	movq	%rdx, (%rax)
	movq	_TIG_iO_fQt7_1_r_1_opaque_list_1(%rip), %rdx
	movq	-24(%rbp), %rax
	movq	%rdx, 16(%rax)
	movq	_TIG_iO_fQt7_1_r_1_opaque_list_1(%rip), %rax
	movq	(%rax), %rax
	movq	-24(%rbp), %rdx
	movq	%rdx, 16(%rax)
	movq	_TIG_iO_fQt7_1_r_1_opaque_list_1(%rip), %rax
	movq	-24(%rbp), %rdx
	movq	%rdx, (%rax)
	call	rand@PLT
	movl	%eax, -40(%rbp)
	movl	$24, %edi
	call	malloc@PLT
	movq	%rax, -16(%rbp)
	movq	-16(%rbp), %rax
	movl	-40(%rbp), %edx
	movl	%edx, 8(%rax)
	movq	_TIG_iO_fQt7_1_r_1_opaque_list_1(%rip), %rax
	movq	(%rax), %rdx
	movq	-16(%rbp), %rax
	movq	%rdx, (%rax)
	movq	_TIG_iO_fQt7_1_r_1_opaque_list_1(%rip), %rdx
	movq	-16(%rbp), %rax
	movq	%rdx, 16(%rax)
	movq	_TIG_iO_fQt7_1_r_1_opaque_list_1(%rip), %rax
	movq	(%rax), %rax
	movq	-16(%rbp), %rdx
	movq	%rdx, 16(%rax)
	movq	_TIG_iO_fQt7_1_r_1_opaque_list_1(%rip), %rax
	movq	-16(%rbp), %rdx
	movq	%rdx, (%rax)
	call	rand@PLT
	movl	%eax, -36(%rbp)
	movl	$24, %edi
	call	malloc@PLT
	movq	%rax, -8(%rbp)
	movl	-36(%rbp), %eax
	leal	(%rax,%rax), %edx
	movq	-8(%rbp), %rax
	movl	%edx, 8(%rax)
	movq	_TIG_iO_fQt7_1_r_1_opaque_list_1(%rip), %rax
	movq	(%rax), %rdx
	movq	-8(%rbp), %rax
	movq	%rdx, (%rax)
	movq	_TIG_iO_fQt7_1_r_1_opaque_list_1(%rip), %rdx
	movq	-8(%rbp), %rax
	movq	%rdx, 16(%rax)
	movq	_TIG_iO_fQt7_1_r_1_opaque_list_1(%rip), %rax
	movq	(%rax), %rax
	movq	-8(%rbp), %rdx
	movq	%rdx, 16(%rax)
	movq	_TIG_iO_fQt7_1_r_1_opaque_list_1(%rip), %rax
	movq	-8(%rbp), %rdx
	movq	%rdx, (%rax)
	movq	_TIG_iO_fQt7_1_r_1_opaque_list_1(%rip), %rax
	movq	(%rax), %rax
	movq	%rax, _TIG_iO_fQt7_1_r_1_opaque_ptr_1(%rip)
	movq	_TIG_iO_fQt7_1_r_1_opaque_ptr_1(%rip), %rax
	movq	%rax, _TIG_iO_fQt7_1_r_1_opaque_ptr_2(%rip)
	movq	_TIG_iO_fQt7_1_r_1_opaque_ptr_2(%rip), %rax
	movq	(%rax), %rax
	movq	%rax, _TIG_iO_fQt7_1_r_1_opaque_ptr_2(%rip)
	nop
	nop
	movss	-52(%rbp), %xmm0
	pxor	%xmm1, %xmm1
	comiss	%xmm1, %xmm0
	jbe	.L15
	pxor	%xmm1, %xmm1
	cvtss2sd	-52(%rbp), %xmm1
	movsd	.LC1(%rip), %xmm0
	addsd	%xmm1, %xmm0
	cvttsd2sil	%xmm0, %eax
	movl	%eax, -48(%rbp)
	jmp	.L11
.L15:
	pxor	%xmm0, %xmm0
	cvtss2sd	-52(%rbp), %xmm0
	movsd	.LC1(%rip), %xmm1
	subsd	%xmm1, %xmm0
	cvttsd2sil	%xmm0, %eax
	movl	%eax, -48(%rbp)
.L11:
	movq	_TIG_iO_fQt7_1_r_1_opaque_ptr_1(%rip), %rdx
	movq	_TIG_iO_fQt7_1_r_1_opaque_ptr_2(%rip), %rax
	cmpq	%rax, %rdx
	jne	.L12
	movl	-48(%rbp), %eax
	orl	-40(%rbp), %eax
	jmp	.L13
.L12:
	movl	-48(%rbp), %eax
.L13:
	leave
	.cfi_def_cfa 7, 8
	ret
	.cfi_endproc
.LFE2:
	.size	r, .-r
	.section	.rodata
.LC2:
	.string	"%d/%d %c %d/%d"
.LC3:
	.string	"%d/%d %c %d/%d = 0\n"
.LC4:
	.string	"%d/%d %c %d/%d = %d\n"
.LC5:
	.string	"%d/%d %c %d/%d = %d/%d\n"
	.text
	.globl	main
	.type	main, @function
main:
.LFB4:
	.cfi_startproc
	endbr64
	pushq	%rbp
	.cfi_def_cfa_offset 16
	.cfi_offset 6, -16
	movq	%rsp, %rbp
	.cfi_def_cfa_register 6
	addq	$-128, %rsp
	movl	%edi, -100(%rbp)
	movq	%rsi, -112(%rbp)
	movq	%rdx, -120(%rbp)
	movq	%fs:40, %rax
	movq	%rax, -8(%rbp)
	xorl	%eax, %eax
	movq	$0, _TIG_IZ_fQt7_envp(%rip)
	nop
.L17:
	movq	$0, _TIG_IZ_fQt7_argv(%rip)
	nop
.L18:
	movl	$0, _TIG_IZ_fQt7_argc(%rip)
	nop
	nop
.L19:
.L20:
#APP
# 95 "/usr/include/x86_64-linux-gnu/bits/uintn-identity.h" 1
	##_ANNOTATION_INITIALREGION_-TIG-IZ-fQt7--0
# 0 "" 2
#NO_APP
	movl	-100(%rbp), %eax
	movl	%eax, _TIG_IZ_fQt7_argc(%rip)
	movq	-112(%rbp), %rax
	movq	%rax, _TIG_IZ_fQt7_argv(%rip)
	movq	-120(%rbp), %rax
	movq	%rax, _TIG_IZ_fQt7_envp(%rip)
#APP
# 102 "/usr/include/x86_64-linux-gnu/bits/uintn-identity.h" 1
	##_ANNOTATION_ATOMICREGION_-TIG-iO-fQt7-1-main--19
# 0 "" 2
#NO_APP
	movl	$24, %edi
	call	malloc@PLT
	movq	%rax, -32(%rbp)
	movq	-32(%rbp), %rax
	movq	-32(%rbp), %rdx
	movq	%rdx, 8(%rax)
	movq	-32(%rbp), %rax
	movq	-32(%rbp), %rdx
	movq	%rdx, 16(%rax)
	movq	-32(%rbp), %rax
	movq	%rax, _TIG_iO_fQt7_1_main_1_opaque_list_1(%rip)
	call	rand@PLT
	movl	%eax, -68(%rbp)
	movl	$24, %edi
	call	malloc@PLT
	movq	%rax, -24(%rbp)
	movq	-24(%rbp), %rax
	movl	$0, (%rax)
	movq	_TIG_iO_fQt7_1_main_1_opaque_list_1(%rip), %rax
	movq	8(%rax), %rdx
	movq	-24(%rbp), %rax
	movq	%rdx, 8(%rax)
	movq	_TIG_iO_fQt7_1_main_1_opaque_list_1(%rip), %rdx
	movq	-24(%rbp), %rax
	movq	%rdx, 16(%rax)
	movq	_TIG_iO_fQt7_1_main_1_opaque_list_1(%rip), %rax
	movq	8(%rax), %rax
	movq	-24(%rbp), %rdx
	movq	%rdx, 16(%rax)
	movq	_TIG_iO_fQt7_1_main_1_opaque_list_1(%rip), %rax
	movq	-24(%rbp), %rdx
	movq	%rdx, 8(%rax)
	call	rand@PLT
	movl	%eax, -64(%rbp)
	movl	$24, %edi
	call	malloc@PLT
	movq	%rax, -16(%rbp)
	movq	-16(%rbp), %rax
	movl	-64(%rbp), %edx
	movl	%edx, (%rax)
	movq	_TIG_iO_fQt7_1_main_1_opaque_list_1(%rip), %rax
	movq	8(%rax), %rdx
	movq	-16(%rbp), %rax
	movq	%rdx, 8(%rax)
	movq	_TIG_iO_fQt7_1_main_1_opaque_list_1(%rip), %rdx
	movq	-16(%rbp), %rax
	movq	%rdx, 16(%rax)
	movq	_TIG_iO_fQt7_1_main_1_opaque_list_1(%rip), %rax
	movq	8(%rax), %rax
	movq	-16(%rbp), %rdx
	movq	%rdx, 16(%rax)
	movq	_TIG_iO_fQt7_1_main_1_opaque_list_1(%rip), %rax
	movq	-16(%rbp), %rdx
	movq	%rdx, 8(%rax)
	movq	_TIG_iO_fQt7_1_main_1_opaque_list_1(%rip), %rax
	movq	8(%rax), %rax
	movq	%rax, _TIG_iO_fQt7_1_main_1_opaque_ptr_1(%rip)
	movq	_TIG_iO_fQt7_1_main_1_opaque_ptr_1(%rip), %rax
	movq	%rax, _TIG_iO_fQt7_1_main_1_opaque_ptr_2(%rip)
	nop
	nop
	pxor	%xmm0, %xmm0
	movss	%xmm0, -72(%rbp)
	leaq	-76(%rbp), %rdi
	leaq	-80(%rbp), %rsi
	leaq	-89(%rbp), %rcx
	leaq	-84(%rbp), %rdx
	leaq	-88(%rbp), %rax
	movq	%rdi, %r9
	movq	%rsi, %r8
	movq	%rax, %rsi
	leaq	.LC2(%rip), %rax
	movq	%rax, %rdi
	movl	$0, %eax
	call	scanf@PLT
	movl	-88(%rbp), %eax
	pxor	%xmm0, %xmm0
	cvtsi2ssl	%eax, %xmm0
	movl	-84(%rbp), %eax
	pxor	%xmm1, %xmm1
	cvtsi2ssl	%eax, %xmm1
	divss	%xmm1, %xmm0
	movss	%xmm0, -60(%rbp)
	movl	-80(%rbp), %eax
	pxor	%xmm0, %xmm0
	cvtsi2ssl	%eax, %xmm0
	movl	-76(%rbp), %eax
	pxor	%xmm1, %xmm1
	cvtsi2ssl	%eax, %xmm1
	divss	%xmm1, %xmm0
	movss	%xmm0, -56(%rbp)
	movzbl	-89(%rbp), %eax
	movsbl	%al, %eax
	cmpl	$47, %eax
	je	.L21
	cmpl	$47, %eax
	jg	.L22
	cmpl	$45, %eax
	je	.L23
	cmpl	$45, %eax
	jg	.L22
	cmpl	$42, %eax
	je	.L24
	cmpl	$43, %eax
	jne	.L22
	movss	-60(%rbp), %xmm0
	addss	-56(%rbp), %xmm0
	movss	%xmm0, -72(%rbp)
	jmp	.L22
.L23:
	movss	-60(%rbp), %xmm0
	subss	-56(%rbp), %xmm0
	movss	%xmm0, -72(%rbp)
	jmp	.L22
.L24:
	movss	-60(%rbp), %xmm0
	mulss	-56(%rbp), %xmm0
	movss	%xmm0, -72(%rbp)
	jmp	.L22
.L21:
	movss	-60(%rbp), %xmm0
	divss	-56(%rbp), %xmm0
	movss	%xmm0, -72(%rbp)
.L22:
	movl	-84(%rbp), %eax
	pxor	%xmm0, %xmm0
	cvtsi2ssl	%eax, %xmm0
	movaps	%xmm0, %xmm1
	mulss	-72(%rbp), %xmm1
	movl	-76(%rbp), %eax
	pxor	%xmm0, %xmm0
	cvtsi2ssl	%eax, %xmm0
	mulss	%xmm0, %xmm1
	movd	%xmm1, %eax
	movd	%eax, %xmm0
	call	r
	movl	%eax, -52(%rbp)
	movl	-84(%rbp), %edx
	movl	-76(%rbp), %eax
	imull	%eax, %edx
	movl	-52(%rbp), %eax
	movl	%edx, %esi
	movl	%eax, %edi
	call	g
	movl	%eax, -48(%rbp)
	movl	-48(%rbp), %eax
	movl	%eax, %edi
	call	ab
	movl	%eax, -44(%rbp)
	movl	-84(%rbp), %eax
	pxor	%xmm0, %xmm0
	cvtsi2ssl	%eax, %xmm0
	movaps	%xmm0, %xmm1
	mulss	-72(%rbp), %xmm1
	movl	-76(%rbp), %eax
	pxor	%xmm0, %xmm0
	cvtsi2ssl	%eax, %xmm0
	mulss	%xmm1, %xmm0
	pxor	%xmm1, %xmm1
	cvtsi2ssl	-44(%rbp), %xmm1
	divss	%xmm1, %xmm0
	movd	%xmm0, %eax
	movd	%eax, %xmm0
	call	r
	movl	%eax, -40(%rbp)
	movl	-84(%rbp), %edx
	movl	-76(%rbp), %eax
	imull	%edx, %eax
	cltd
	idivl	-44(%rbp)
	movl	%eax, -36(%rbp)
	cmpl	$0, -40(%rbp)
	jne	.L25
	movl	-76(%rbp), %edi
	movl	-80(%rbp), %esi
	movzbl	-89(%rbp), %eax
	movsbl	%al, %ecx
	movl	-84(%rbp), %edx
	movl	-88(%rbp), %eax
	movl	%edi, %r9d
	movl	%esi, %r8d
	movl	%eax, %esi
	leaq	.LC3(%rip), %rax
	movq	%rax, %rdi
	movl	$0, %eax
	call	printf@PLT
	jmp	.L26
.L25:
	movq	_TIG_iO_fQt7_1_r_1_opaque_ptr_1(%rip), %rdx
	movq	_TIG_iO_fQt7_1_r_1_opaque_ptr_2(%rip), %rax
	cmpq	%rax, %rdx
	je	.L26
	cmpl	$1, -36(%rbp)
	jne	.L27
	movl	-76(%rbp), %r8d
	movl	-80(%rbp), %edi
	movzbl	-89(%rbp), %eax
	movsbl	%al, %ecx
	movl	-84(%rbp), %edx
	movl	-88(%rbp), %eax
	subq	$8, %rsp
	movl	-40(%rbp), %esi
	pushq	%rsi
	movl	%r8d, %r9d
	movl	%edi, %r8d
	movl	%eax, %esi
	leaq	.LC4(%rip), %rax
	movq	%rax, %rdi
	movl	$0, %eax
	call	printf@PLT
	addq	$16, %rsp
	jmp	.L26
.L27:
	movl	-76(%rbp), %r8d
	movl	-80(%rbp), %edi
	movzbl	-89(%rbp), %eax
	movsbl	%al, %ecx
	movl	-84(%rbp), %edx
	movl	-88(%rbp), %eax
	movl	-36(%rbp), %esi
	pushq	%rsi
	movl	-40(%rbp), %esi
	pushq	%rsi
	movl	%r8d, %r9d
	movl	%edi, %r8d
	movl	%eax, %esi
	leaq	.LC5(%rip), %rax
	movq	%rax, %rdi
	movl	$0, %eax
	call	printf@PLT
	addq	$16, %rsp
.L26:
	movl	$0, %eax
	movq	-8(%rbp), %rdx
	subq	%fs:40, %rdx
	je	.L29
	call	__stack_chk_fail@PLT
.L29:
	leave
	.cfi_def_cfa 7, 8
	ret
	.cfi_endproc
.LFE4:
	.size	main, .-main
	.globl	ab
	.type	ab, @function
ab:
.LFB6:
	.cfi_startproc
	endbr64
	pushq	%rbp
	.cfi_def_cfa_offset 16
	.cfi_offset 6, -16
	movq	%rsp, %rbp
	.cfi_def_cfa_register 6
	subq	$80, %rsp
	movl	%edi, -68(%rbp)
#APP
# 66 "/usr/include/x86_64-linux-gnu/bits/uintn-identity.h" 1
	##_ANNOTATION_INITIALREGION_-TIG-iO-fQt7-1-ab--14
# 0 "" 2
# 70 "/usr/include/x86_64-linux-gnu/bits/uintn-identity.h" 1
	##_ANNOTATION_ATOMICREGION_-TIG-iO-fQt7-1-ab--13
# 0 "" 2
#NO_APP
	movl	$24, %edi
	call	malloc@PLT
	movq	%rax, -40(%rbp)
	movq	-40(%rbp), %rax
	movq	-40(%rbp), %rdx
	movq	%rdx, (%rax)
	movq	-40(%rbp), %rax
	movq	-40(%rbp), %rdx
	movq	%rdx, 8(%rax)
	movq	-40(%rbp), %rax
	movq	%rax, _TIG_iO_fQt7_1_ab_1_opaque_list_1(%rip)
	call	rand@PLT
	movl	%eax, -56(%rbp)
	movl	$24, %edi
	call	malloc@PLT
	movq	%rax, -32(%rbp)
	movq	-32(%rbp), %rax
	movl	$0, 16(%rax)
	movq	_TIG_iO_fQt7_1_ab_1_opaque_list_1(%rip), %rax
	movq	(%rax), %rdx
	movq	-32(%rbp), %rax
	movq	%rdx, (%rax)
	movq	_TIG_iO_fQt7_1_ab_1_opaque_list_1(%rip), %rdx
	movq	-32(%rbp), %rax
	movq	%rdx, 8(%rax)
	movq	_TIG_iO_fQt7_1_ab_1_opaque_list_1(%rip), %rax
	movq	(%rax), %rax
	movq	-32(%rbp), %rdx
	movq	%rdx, 8(%rax)
	movq	_TIG_iO_fQt7_1_ab_1_opaque_list_1(%rip), %rax
	movq	-32(%rbp), %rdx
	movq	%rdx, (%rax)
	call	rand@PLT
	movl	%eax, -52(%rbp)
	movl	$24, %edi
	call	malloc@PLT
	movq	%rax, -24(%rbp)
	movq	-24(%rbp), %rax
	movl	-52(%rbp), %edx
	movl	%edx, 16(%rax)
	movq	_TIG_iO_fQt7_1_ab_1_opaque_list_1(%rip), %rax
	movq	(%rax), %rdx
	movq	-24(%rbp), %rax
	movq	%rdx, (%rax)
	movq	_TIG_iO_fQt7_1_ab_1_opaque_list_1(%rip), %rdx
	movq	-24(%rbp), %rax
	movq	%rdx, 8(%rax)
	movq	_TIG_iO_fQt7_1_ab_1_opaque_list_1(%rip), %rax
	movq	(%rax), %rax
	movq	-24(%rbp), %rdx
	movq	%rdx, 8(%rax)
	movq	_TIG_iO_fQt7_1_ab_1_opaque_list_1(%rip), %rax
	movq	-24(%rbp), %rdx
	movq	%rdx, (%rax)
	call	rand@PLT
	movl	%eax, -48(%rbp)
	movl	$24, %edi
	call	malloc@PLT
	movq	%rax, -16(%rbp)
	movl	-48(%rbp), %eax
	leal	(%rax,%rax), %edx
	movq	-16(%rbp), %rax
	movl	%edx, 16(%rax)
	movq	_TIG_iO_fQt7_1_ab_1_opaque_list_1(%rip), %rax
	movq	(%rax), %rdx
	movq	-16(%rbp), %rax
	movq	%rdx, (%rax)
	movq	_TIG_iO_fQt7_1_ab_1_opaque_list_1(%rip), %rdx
	movq	-16(%rbp), %rax
	movq	%rdx, 8(%rax)
	movq	_TIG_iO_fQt7_1_ab_1_opaque_list_1(%rip), %rax
	movq	(%rax), %rax
	movq	-16(%rbp), %rdx
	movq	%rdx, 8(%rax)
	movq	_TIG_iO_fQt7_1_ab_1_opaque_list_1(%rip), %rax
	movq	-16(%rbp), %rdx
	movq	%rdx, (%rax)
	call	rand@PLT
	movl	%eax, -44(%rbp)
	movl	$24, %edi
	call	malloc@PLT
	movq	%rax, -8(%rbp)
	movl	-44(%rbp), %edx
	movl	%edx, %eax
	addl	%eax, %eax
	addl	%eax, %edx
	movq	-8(%rbp), %rax
	movl	%edx, 16(%rax)
	movq	_TIG_iO_fQt7_1_ab_1_opaque_list_1(%rip), %rax
	movq	(%rax), %rdx
	movq	-8(%rbp), %rax
	movq	%rdx, (%rax)
	movq	_TIG_iO_fQt7_1_ab_1_opaque_list_1(%rip), %rdx
	movq	-8(%rbp), %rax
	movq	%rdx, 8(%rax)
	movq	_TIG_iO_fQt7_1_ab_1_opaque_list_1(%rip), %rax
	movq	(%rax), %rax
	movq	-8(%rbp), %rdx
	movq	%rdx, 8(%rax)
	movq	_TIG_iO_fQt7_1_ab_1_opaque_list_1(%rip), %rax
	movq	-8(%rbp), %rdx
	movq	%rdx, (%rax)
	movq	_TIG_iO_fQt7_1_ab_1_opaque_list_1(%rip), %rax
	movq	(%rax), %rax
	movq	%rax, _TIG_iO_fQt7_1_ab_1_opaque_ptr_1(%rip)
	movq	_TIG_iO_fQt7_1_ab_1_opaque_ptr_1(%rip), %rax
	movq	%rax, _TIG_iO_fQt7_1_ab_1_opaque_ptr_2(%rip)
	movq	_TIG_iO_fQt7_1_ab_1_opaque_ptr_2(%rip), %rax
	movq	(%rax), %rax
	movq	%rax, _TIG_iO_fQt7_1_ab_1_opaque_ptr_2(%rip)
	nop
	nop
	cmpl	$0, -68(%rbp)
	jns	.L31
	movq	_TIG_iO_fQt7_1_r_1_opaque_ptr_1(%rip), %rdx
	movq	_TIG_iO_fQt7_1_r_1_opaque_ptr_2(%rip), %rax
	cmpq	%rax, %rdx
	je	.L32
	movl	-68(%rbp), %eax
	negl	%eax
	movl	%eax, -60(%rbp)
	jmp	.L32
.L31:
	movl	-68(%rbp), %eax
	movl	%eax, -60(%rbp)
.L32:
	movl	-60(%rbp), %eax
	leave
	.cfi_def_cfa 7, 8
	ret
	.cfi_endproc
.LFE6:
	.size	ab, .-ab
	.globl	l
	.type	l, @function
l:
.LFB8:
	.cfi_startproc
	endbr64
	pushq	%rbp
	.cfi_def_cfa_offset 16
	.cfi_offset 6, -16
	movq	%rsp, %rbp
	.cfi_def_cfa_register 6
	subq	$64, %rsp
	movl	%edi, -52(%rbp)
	movl	%esi, -56(%rbp)
#APP
# 90 "/usr/include/x86_64-linux-gnu/bits/byteswap.h" 1
	##_ANNOTATION_INITIALREGION_-TIG-iO-fQt7-1-l--18
# 0 "" 2
# 94 "/usr/include/x86_64-linux-gnu/bits/byteswap.h" 1
	##_ANNOTATION_ATOMICREGION_-TIG-iO-fQt7-1-l--17
# 0 "" 2
#NO_APP
	movl	$24, %edi
	call	malloc@PLT
	movq	%rax, -24(%rbp)
	movq	-24(%rbp), %rax
	movq	-24(%rbp), %rdx
	movq	%rdx, 8(%rax)
	movq	-24(%rbp), %rax
	movq	-24(%rbp), %rdx
	movq	%rdx, (%rax)
	movq	-24(%rbp), %rax
	movq	%rax, _TIG_iO_fQt7_1_l_1_opaque_list_1(%rip)
	call	rand@PLT
	movl	%eax, -32(%rbp)
	movl	$24, %edi
	call	malloc@PLT
	movq	%rax, -16(%rbp)
	movq	-16(%rbp), %rax
	movl	$0, 16(%rax)
	movq	_TIG_iO_fQt7_1_l_1_opaque_list_1(%rip), %rax
	movq	8(%rax), %rdx
	movq	-16(%rbp), %rax
	movq	%rdx, 8(%rax)
	movq	_TIG_iO_fQt7_1_l_1_opaque_list_1(%rip), %rdx
	movq	-16(%rbp), %rax
	movq	%rdx, (%rax)
	movq	_TIG_iO_fQt7_1_l_1_opaque_list_1(%rip), %rax
	movq	8(%rax), %rax
	movq	-16(%rbp), %rdx
	movq	%rdx, (%rax)
	movq	_TIG_iO_fQt7_1_l_1_opaque_list_1(%rip), %rax
	movq	-16(%rbp), %rdx
	movq	%rdx, 8(%rax)
	call	rand@PLT
	movl	%eax, -28(%rbp)
	movl	$24, %edi
	call	malloc@PLT
	movq	%rax, -8(%rbp)
	movq	-8(%rbp), %rax
	movl	-28(%rbp), %edx
	movl	%edx, 16(%rax)
	movq	_TIG_iO_fQt7_1_l_1_opaque_list_1(%rip), %rax
	movq	8(%rax), %rdx
	movq	-8(%rbp), %rax
	movq	%rdx, 8(%rax)
	movq	_TIG_iO_fQt7_1_l_1_opaque_list_1(%rip), %rdx
	movq	-8(%rbp), %rax
	movq	%rdx, (%rax)
	movq	_TIG_iO_fQt7_1_l_1_opaque_list_1(%rip), %rax
	movq	8(%rax), %rax
	movq	-8(%rbp), %rdx
	movq	%rdx, (%rax)
	movq	_TIG_iO_fQt7_1_l_1_opaque_list_1(%rip), %rax
	movq	-8(%rbp), %rdx
	movq	%rdx, 8(%rax)
	movq	_TIG_iO_fQt7_1_l_1_opaque_list_1(%rip), %rax
	movq	8(%rax), %rax
	movq	%rax, _TIG_iO_fQt7_1_l_1_opaque_ptr_1(%rip)
	movq	_TIG_iO_fQt7_1_l_1_opaque_ptr_1(%rip), %rax
	movq	%rax, _TIG_iO_fQt7_1_l_1_opaque_ptr_2(%rip)
	movq	_TIG_iO_fQt7_1_l_1_opaque_ptr_2(%rip), %rax
	movq	8(%rax), %rax
	movq	%rax, _TIG_iO_fQt7_1_l_1_opaque_ptr_2(%rip)
	nop
	nop
	movq	_TIG_iO_fQt7_1_r_1_opaque_ptr_1(%rip), %rdx
	movq	_TIG_iO_fQt7_1_r_1_opaque_ptr_2(%rip), %rax
	cmpq	%rax, %rdx
	je	.L35
	movl	-56(%rbp), %edx
	movl	-52(%rbp), %eax
	movl	%edx, %esi
	movl	%eax, %edi
	call	g
	movl	%eax, -36(%rbp)
.L35:
	movl	-52(%rbp), %eax
	imull	-56(%rbp), %eax
	cltd
	idivl	-36(%rbp)
	leave
	.cfi_def_cfa 7, 8
	ret
	.cfi_endproc
.LFE8:
	.size	l, .-l
	.section	.rodata
	.align 8
.LC1:
	.long	0
	.long	1071644672
	.ident	"GCC: (Ubuntu 11.4.0-1ubuntu1~22.04) 11.4.0"
	.section	.note.GNU-stack,"",@progbits
	.section	.note.gnu.property,"a"
	.align 8
	.long	1f - 0f
	.long	4f - 1f
	.long	5
0:
	.string	"GNU"
1:
	.align 8
	.long	0xc0000002
	.long	3f - 2f
2:
	.long	0x3
3:
	.align 8
4:
