	.file	"AmanKhys_week0_4_opaque.c"
	.text
	.globl	_TIG_iO_9zgE_1___bswap_32_1_opaque_list_2
	.bss
	.align 8
	.type	_TIG_iO_9zgE_1___bswap_32_1_opaque_list_2, @object
	.size	_TIG_iO_9zgE_1___bswap_32_1_opaque_list_2, 8
_TIG_iO_9zgE_1___bswap_32_1_opaque_list_2:
	.zero	8
	.globl	_TIG_iO_9zgE_1_main_1_opaque_list_2
	.align 8
	.type	_TIG_iO_9zgE_1_main_1_opaque_list_2, @object
	.size	_TIG_iO_9zgE_1_main_1_opaque_list_2, 8
_TIG_iO_9zgE_1_main_1_opaque_list_2:
	.zero	8
	.globl	_TIG_iO_9zgE_1_reverseStr_1_opaque_list_1
	.align 8
	.type	_TIG_iO_9zgE_1_reverseStr_1_opaque_list_1, @object
	.size	_TIG_iO_9zgE_1_reverseStr_1_opaque_list_1, 8
_TIG_iO_9zgE_1_reverseStr_1_opaque_list_1:
	.zero	8
	.globl	_TIG_iO_9zgE_1___bswap_16_1_opaque_ptr_2
	.align 8
	.type	_TIG_iO_9zgE_1___bswap_16_1_opaque_ptr_2, @object
	.size	_TIG_iO_9zgE_1___bswap_16_1_opaque_ptr_2, 8
_TIG_iO_9zgE_1___bswap_16_1_opaque_ptr_2:
	.zero	8
	.globl	_TIG_iO_9zgE_1___uint32_identity_1_opaque_ptr_1
	.align 8
	.type	_TIG_iO_9zgE_1___uint32_identity_1_opaque_ptr_1, @object
	.size	_TIG_iO_9zgE_1___uint32_identity_1_opaque_ptr_1, 8
_TIG_iO_9zgE_1___uint32_identity_1_opaque_ptr_1:
	.zero	8
	.globl	_TIG_iO_9zgE_1___bswap_64_1_opaque_list_1
	.align 8
	.type	_TIG_iO_9zgE_1___bswap_64_1_opaque_list_1, @object
	.size	_TIG_iO_9zgE_1___bswap_64_1_opaque_list_1, 8
_TIG_iO_9zgE_1___bswap_64_1_opaque_list_1:
	.zero	8
	.globl	_TIG_IZ_9zgE_argv
	.align 8
	.type	_TIG_IZ_9zgE_argv, @object
	.size	_TIG_IZ_9zgE_argv, 8
_TIG_IZ_9zgE_argv:
	.zero	8
	.globl	_TIG_iO_9zgE_1___bswap_16_1_opaque_list_1
	.align 8
	.type	_TIG_iO_9zgE_1___bswap_16_1_opaque_list_1, @object
	.size	_TIG_iO_9zgE_1___bswap_16_1_opaque_list_1, 8
_TIG_iO_9zgE_1___bswap_16_1_opaque_list_1:
	.zero	8
	.globl	_TIG_iO_9zgE_1___uint64_identity_1_opaque_list_1
	.align 8
	.type	_TIG_iO_9zgE_1___uint64_identity_1_opaque_list_1, @object
	.size	_TIG_iO_9zgE_1___uint64_identity_1_opaque_list_1, 8
_TIG_iO_9zgE_1___uint64_identity_1_opaque_list_1:
	.zero	8
	.globl	_TIG_IZ_9zgE_argc
	.align 4
	.type	_TIG_IZ_9zgE_argc, @object
	.size	_TIG_IZ_9zgE_argc, 4
_TIG_IZ_9zgE_argc:
	.zero	4
	.globl	_TIG_iO_9zgE_1___bswap_64_1_opaque_list_2
	.align 8
	.type	_TIG_iO_9zgE_1___bswap_64_1_opaque_list_2, @object
	.size	_TIG_iO_9zgE_1___bswap_64_1_opaque_list_2, 8
_TIG_iO_9zgE_1___bswap_64_1_opaque_list_2:
	.zero	8
	.globl	_TIG_iO_9zgE_1_reverseStr_1_opaque_ptr_2
	.align 8
	.type	_TIG_iO_9zgE_1_reverseStr_1_opaque_ptr_2, @object
	.size	_TIG_iO_9zgE_1_reverseStr_1_opaque_ptr_2, 8
_TIG_iO_9zgE_1_reverseStr_1_opaque_ptr_2:
	.zero	8
	.globl	_TIG_iO_9zgE_1___bswap_64_1_opaque_ptr_1
	.align 8
	.type	_TIG_iO_9zgE_1___bswap_64_1_opaque_ptr_1, @object
	.size	_TIG_iO_9zgE_1___bswap_64_1_opaque_ptr_1, 8
_TIG_iO_9zgE_1___bswap_64_1_opaque_ptr_1:
	.zero	8
	.globl	_TIG_iO_9zgE_1_reverseStr_1_opaque_ptr_1
	.align 8
	.type	_TIG_iO_9zgE_1_reverseStr_1_opaque_ptr_1, @object
	.size	_TIG_iO_9zgE_1_reverseStr_1_opaque_ptr_1, 8
_TIG_iO_9zgE_1_reverseStr_1_opaque_ptr_1:
	.zero	8
	.globl	_TIG_iO_9zgE_1___bswap_32_1_opaque_list_1
	.align 8
	.type	_TIG_iO_9zgE_1___bswap_32_1_opaque_list_1, @object
	.size	_TIG_iO_9zgE_1___bswap_32_1_opaque_list_1, 8
_TIG_iO_9zgE_1___bswap_32_1_opaque_list_1:
	.zero	8
	.globl	_TIG_iO_9zgE_1___uint32_identity_1_opaque_ptr_2
	.align 8
	.type	_TIG_iO_9zgE_1___uint32_identity_1_opaque_ptr_2, @object
	.size	_TIG_iO_9zgE_1___uint32_identity_1_opaque_ptr_2, 8
_TIG_iO_9zgE_1___uint32_identity_1_opaque_ptr_2:
	.zero	8
	.globl	_TIG_iO_9zgE_1_main_1_opaque_ptr_2
	.align 8
	.type	_TIG_iO_9zgE_1_main_1_opaque_ptr_2, @object
	.size	_TIG_iO_9zgE_1_main_1_opaque_ptr_2, 8
_TIG_iO_9zgE_1_main_1_opaque_ptr_2:
	.zero	8
	.globl	_TIG_iO_9zgE_1_reverseStr_1_opaque_list_2
	.align 8
	.type	_TIG_iO_9zgE_1_reverseStr_1_opaque_list_2, @object
	.size	_TIG_iO_9zgE_1_reverseStr_1_opaque_list_2, 8
_TIG_iO_9zgE_1_reverseStr_1_opaque_list_2:
	.zero	8
	.globl	_TIG_iO_9zgE_1___uint16_identity_1_opaque_ptr_1
	.align 8
	.type	_TIG_iO_9zgE_1___uint16_identity_1_opaque_ptr_1, @object
	.size	_TIG_iO_9zgE_1___uint16_identity_1_opaque_ptr_1, 8
_TIG_iO_9zgE_1___uint16_identity_1_opaque_ptr_1:
	.zero	8
	.globl	_TIG_iO_9zgE_1___uint32_identity_1_opaque_list_2
	.align 8
	.type	_TIG_iO_9zgE_1___uint32_identity_1_opaque_list_2, @object
	.size	_TIG_iO_9zgE_1___uint32_identity_1_opaque_list_2, 8
_TIG_iO_9zgE_1___uint32_identity_1_opaque_list_2:
	.zero	8
	.globl	_TIG_iO_9zgE_1_findStrLen_1_opaque_list_2
	.align 8
	.type	_TIG_iO_9zgE_1_findStrLen_1_opaque_list_2, @object
	.size	_TIG_iO_9zgE_1_findStrLen_1_opaque_list_2, 8
_TIG_iO_9zgE_1_findStrLen_1_opaque_list_2:
	.zero	8
	.globl	_TIG_IZ_9zgE_envp
	.align 8
	.type	_TIG_IZ_9zgE_envp, @object
	.size	_TIG_IZ_9zgE_envp, 8
_TIG_IZ_9zgE_envp:
	.zero	8
	.globl	_TIG_iO_9zgE_1_main_1_opaque_list_1
	.align 8
	.type	_TIG_iO_9zgE_1_main_1_opaque_list_1, @object
	.size	_TIG_iO_9zgE_1_main_1_opaque_list_1, 8
_TIG_iO_9zgE_1_main_1_opaque_list_1:
	.zero	8
	.globl	_TIG_iO_9zgE_1___uint64_identity_1_opaque_ptr_1
	.align 8
	.type	_TIG_iO_9zgE_1___uint64_identity_1_opaque_ptr_1, @object
	.size	_TIG_iO_9zgE_1___uint64_identity_1_opaque_ptr_1, 8
_TIG_iO_9zgE_1___uint64_identity_1_opaque_ptr_1:
	.zero	8
	.globl	_TIG_iO_9zgE_1_findStrLen_1_opaque_ptr_2
	.align 8
	.type	_TIG_iO_9zgE_1_findStrLen_1_opaque_ptr_2, @object
	.size	_TIG_iO_9zgE_1_findStrLen_1_opaque_ptr_2, 8
_TIG_iO_9zgE_1_findStrLen_1_opaque_ptr_2:
	.zero	8
	.globl	_TIG_iO_9zgE_1_main_1_opaque_ptr_1
	.align 8
	.type	_TIG_iO_9zgE_1_main_1_opaque_ptr_1, @object
	.size	_TIG_iO_9zgE_1_main_1_opaque_ptr_1, 8
_TIG_iO_9zgE_1_main_1_opaque_ptr_1:
	.zero	8
	.globl	_TIG_iO_9zgE_1___bswap_64_1_opaque_ptr_2
	.align 8
	.type	_TIG_iO_9zgE_1___bswap_64_1_opaque_ptr_2, @object
	.size	_TIG_iO_9zgE_1___bswap_64_1_opaque_ptr_2, 8
_TIG_iO_9zgE_1___bswap_64_1_opaque_ptr_2:
	.zero	8
	.globl	_TIG_iO_9zgE_1_findStrLen_1_opaque_ptr_1
	.align 8
	.type	_TIG_iO_9zgE_1_findStrLen_1_opaque_ptr_1, @object
	.size	_TIG_iO_9zgE_1_findStrLen_1_opaque_ptr_1, 8
_TIG_iO_9zgE_1_findStrLen_1_opaque_ptr_1:
	.zero	8
	.globl	_TIG_iO_9zgE_1___uint64_identity_1_opaque_ptr_2
	.align 8
	.type	_TIG_iO_9zgE_1___uint64_identity_1_opaque_ptr_2, @object
	.size	_TIG_iO_9zgE_1___uint64_identity_1_opaque_ptr_2, 8
_TIG_iO_9zgE_1___uint64_identity_1_opaque_ptr_2:
	.zero	8
	.globl	_TIG_iO_9zgE_1___uint32_identity_1_opaque_list_1
	.align 8
	.type	_TIG_iO_9zgE_1___uint32_identity_1_opaque_list_1, @object
	.size	_TIG_iO_9zgE_1___uint32_identity_1_opaque_list_1, 8
_TIG_iO_9zgE_1___uint32_identity_1_opaque_list_1:
	.zero	8
	.globl	_TIG_iO_9zgE_1_concatStr_1_opaque_list_1
	.align 8
	.type	_TIG_iO_9zgE_1_concatStr_1_opaque_list_1, @object
	.size	_TIG_iO_9zgE_1_concatStr_1_opaque_list_1, 8
_TIG_iO_9zgE_1_concatStr_1_opaque_list_1:
	.zero	8
	.globl	_TIG_iO_9zgE_1___uint16_identity_1_opaque_list_2
	.align 8
	.type	_TIG_iO_9zgE_1___uint16_identity_1_opaque_list_2, @object
	.size	_TIG_iO_9zgE_1___uint16_identity_1_opaque_list_2, 8
_TIG_iO_9zgE_1___uint16_identity_1_opaque_list_2:
	.zero	8
	.globl	_TIG_iO_9zgE_1___bswap_16_1_opaque_ptr_1
	.align 8
	.type	_TIG_iO_9zgE_1___bswap_16_1_opaque_ptr_1, @object
	.size	_TIG_iO_9zgE_1___bswap_16_1_opaque_ptr_1, 8
_TIG_iO_9zgE_1___bswap_16_1_opaque_ptr_1:
	.zero	8
	.globl	_TIG_iO_9zgE_1___uint16_identity_1_opaque_list_1
	.align 8
	.type	_TIG_iO_9zgE_1___uint16_identity_1_opaque_list_1, @object
	.size	_TIG_iO_9zgE_1___uint16_identity_1_opaque_list_1, 8
_TIG_iO_9zgE_1___uint16_identity_1_opaque_list_1:
	.zero	8
	.globl	_TIG_iO_9zgE_1___uint64_identity_1_opaque_list_2
	.align 8
	.type	_TIG_iO_9zgE_1___uint64_identity_1_opaque_list_2, @object
	.size	_TIG_iO_9zgE_1___uint64_identity_1_opaque_list_2, 8
_TIG_iO_9zgE_1___uint64_identity_1_opaque_list_2:
	.zero	8
	.globl	_TIG_iO_9zgE_1_concatStr_1_opaque_ptr_2
	.align 8
	.type	_TIG_iO_9zgE_1_concatStr_1_opaque_ptr_2, @object
	.size	_TIG_iO_9zgE_1_concatStr_1_opaque_ptr_2, 8
_TIG_iO_9zgE_1_concatStr_1_opaque_ptr_2:
	.zero	8
	.globl	_TIG_iO_9zgE_1___bswap_32_1_opaque_ptr_1
	.align 8
	.type	_TIG_iO_9zgE_1___bswap_32_1_opaque_ptr_1, @object
	.size	_TIG_iO_9zgE_1___bswap_32_1_opaque_ptr_1, 8
_TIG_iO_9zgE_1___bswap_32_1_opaque_ptr_1:
	.zero	8
	.globl	_TIG_iO_9zgE_1___bswap_32_1_opaque_ptr_2
	.align 8
	.type	_TIG_iO_9zgE_1___bswap_32_1_opaque_ptr_2, @object
	.size	_TIG_iO_9zgE_1___bswap_32_1_opaque_ptr_2, 8
_TIG_iO_9zgE_1___bswap_32_1_opaque_ptr_2:
	.zero	8
	.globl	_TIG_iO_9zgE_1___uint16_identity_1_opaque_ptr_2
	.align 8
	.type	_TIG_iO_9zgE_1___uint16_identity_1_opaque_ptr_2, @object
	.size	_TIG_iO_9zgE_1___uint16_identity_1_opaque_ptr_2, 8
_TIG_iO_9zgE_1___uint16_identity_1_opaque_ptr_2:
	.zero	8
	.globl	_TIG_iO_9zgE_1___bswap_16_1_opaque_list_2
	.align 8
	.type	_TIG_iO_9zgE_1___bswap_16_1_opaque_list_2, @object
	.size	_TIG_iO_9zgE_1___bswap_16_1_opaque_list_2, 8
_TIG_iO_9zgE_1___bswap_16_1_opaque_list_2:
	.zero	8
	.globl	_TIG_iO_9zgE_1_concatStr_1_opaque_ptr_1
	.align 8
	.type	_TIG_iO_9zgE_1_concatStr_1_opaque_ptr_1, @object
	.size	_TIG_iO_9zgE_1_concatStr_1_opaque_ptr_1, 8
_TIG_iO_9zgE_1_concatStr_1_opaque_ptr_1:
	.zero	8
	.globl	_TIG_iO_9zgE_1_concatStr_1_opaque_list_2
	.align 8
	.type	_TIG_iO_9zgE_1_concatStr_1_opaque_list_2, @object
	.size	_TIG_iO_9zgE_1_concatStr_1_opaque_list_2, 8
_TIG_iO_9zgE_1_concatStr_1_opaque_list_2:
	.zero	8
	.globl	_TIG_iO_9zgE_1_findStrLen_1_opaque_list_1
	.align 8
	.type	_TIG_iO_9zgE_1_findStrLen_1_opaque_list_1, @object
	.size	_TIG_iO_9zgE_1_findStrLen_1_opaque_list_1, 8
_TIG_iO_9zgE_1_findStrLen_1_opaque_list_1:
	.zero	8
	.section	.rodata
.LC0:
	.string	"enter the string:"
.LC1:
	.string	"%s"
.LC2:
	.string	"length of the string: %i \n\n"
	.text
	.globl	findStrLen
	.type	findStrLen, @function
findStrLen:
.LFB0:
	.cfi_startproc
	endbr64
	pushq	%rbp
	.cfi_def_cfa_offset 16
	.cfi_offset 6, -16
	movq	%rsp, %rbp
	.cfi_def_cfa_register 6
	subq	$160, %rsp
	movq	%fs:40, %rax
	movq	%rax, -8(%rbp)
	xorl	%eax, %eax
#APP
# 78 "/usr/include/stdlib.h" 1
	##_ANNOTATION_INITIALREGION_-TIG-iO-9zgE-1-findStrLen--16
# 0 "" 2
# 82 "/usr/include/stdlib.h" 1
	##_ANNOTATION_ATOMICREGION_-TIG-iO-9zgE-1-findStrLen--15
# 0 "" 2
#NO_APP
	movl	$24, %edi
	call	malloc@PLT
	movq	%rax, -136(%rbp)
	movq	-136(%rbp), %rax
	movq	-136(%rbp), %rdx
	movq	%rdx, 16(%rax)
	movq	-136(%rbp), %rax
	movq	-136(%rbp), %rdx
	movq	%rdx, 8(%rax)
	movq	-136(%rbp), %rax
	movq	%rax, _TIG_iO_9zgE_1_findStrLen_1_opaque_list_1(%rip)
	call	rand@PLT
	movl	%eax, -144(%rbp)
	movl	$24, %edi
	call	malloc@PLT
	movq	%rax, -128(%rbp)
	movq	-128(%rbp), %rax
	movl	$0, (%rax)
	movq	_TIG_iO_9zgE_1_findStrLen_1_opaque_list_1(%rip), %rax
	movq	16(%rax), %rdx
	movq	-128(%rbp), %rax
	movq	%rdx, 16(%rax)
	movq	_TIG_iO_9zgE_1_findStrLen_1_opaque_list_1(%rip), %rdx
	movq	-128(%rbp), %rax
	movq	%rdx, 8(%rax)
	movq	_TIG_iO_9zgE_1_findStrLen_1_opaque_list_1(%rip), %rax
	movq	16(%rax), %rax
	movq	-128(%rbp), %rdx
	movq	%rdx, 8(%rax)
	movq	_TIG_iO_9zgE_1_findStrLen_1_opaque_list_1(%rip), %rax
	movq	-128(%rbp), %rdx
	movq	%rdx, 16(%rax)
	call	rand@PLT
	movl	%eax, -140(%rbp)
	movl	$24, %edi
	call	malloc@PLT
	movq	%rax, -120(%rbp)
	movq	-120(%rbp), %rax
	movl	-140(%rbp), %edx
	movl	%edx, (%rax)
	movq	_TIG_iO_9zgE_1_findStrLen_1_opaque_list_1(%rip), %rax
	movq	16(%rax), %rdx
	movq	-120(%rbp), %rax
	movq	%rdx, 16(%rax)
	movq	_TIG_iO_9zgE_1_findStrLen_1_opaque_list_1(%rip), %rdx
	movq	-120(%rbp), %rax
	movq	%rdx, 8(%rax)
	movq	_TIG_iO_9zgE_1_findStrLen_1_opaque_list_1(%rip), %rax
	movq	16(%rax), %rax
	movq	-120(%rbp), %rdx
	movq	%rdx, 8(%rax)
	movq	_TIG_iO_9zgE_1_findStrLen_1_opaque_list_1(%rip), %rax
	movq	-120(%rbp), %rdx
	movq	%rdx, 16(%rax)
	movq	_TIG_iO_9zgE_1_findStrLen_1_opaque_list_1(%rip), %rax
	movq	16(%rax), %rax
	movq	%rax, _TIG_iO_9zgE_1_findStrLen_1_opaque_ptr_1(%rip)
	movq	_TIG_iO_9zgE_1_findStrLen_1_opaque_ptr_1(%rip), %rax
	movq	%rax, _TIG_iO_9zgE_1_findStrLen_1_opaque_ptr_2(%rip)
	nop
	nop
	movq	_TIG_iO_9zgE_1_reverseStr_1_opaque_ptr_1(%rip), %rdx
	movq	_TIG_iO_9zgE_1_reverseStr_1_opaque_ptr_2(%rip), %rax
	cmpq	%rax, %rdx
	jne	.L2
	leaq	.LC0(%rip), %rax
	movq	%rax, %rdi
	movl	$0, %eax
	call	printf@PLT
	leaq	-112(%rbp), %rax
	movq	%rax, %rsi
	leaq	.LC1(%rip), %rax
	movq	%rax, %rdi
	movl	$0, %eax
	call	__isoc99_scanf@PLT
	movl	$0, -148(%rbp)
	jmp	.L4
.L2:
	leaq	-1+.LC0(%rip), %rax
	movq	%rax, %rdi
	movl	$0, %eax
	call	printf@PLT
	leaq	-112(%rbp), %rax
	addq	$1, %rax
	leaq	-1+.LC1(%rip), %rdx
	movq	%rax, %rsi
	movq	%rdx, %rdi
	movl	$0, %eax
	call	__isoc99_scanf@PLT
	negl	-148(%rbp)
	jmp	.L4
.L5:
	addl	$1, -148(%rbp)
.L4:
	movl	-148(%rbp), %eax
	cltq
	movzbl	-112(%rbp,%rax), %eax
	testb	%al, %al
	jne	.L5
	movl	-148(%rbp), %eax
	movl	%eax, %esi
	leaq	.LC2(%rip), %rax
	movq	%rax, %rdi
	movl	$0, %eax
	call	printf@PLT
	nop
	movq	-8(%rbp), %rax
	subq	%fs:40, %rax
	je	.L7
	call	__stack_chk_fail@PLT
.L7:
	leave
	.cfi_def_cfa 7, 8
	ret
	.cfi_endproc
.LFE0:
	.size	findStrLen, .-findStrLen
	.section	.rodata
.LC3:
	.string	"enter the string: "
.LC4:
	.string	"reverse string: %s \n\n"
	.text
	.globl	reverseStr
	.type	reverseStr, @function
reverseStr:
.LFB6:
	.cfi_startproc
	endbr64
	pushq	%rbp
	.cfi_def_cfa_offset 16
	.cfi_offset 6, -16
	movq	%rsp, %rbp
	.cfi_def_cfa_register 6
	subq	$272, %rsp
	movq	%fs:40, %rax
	movq	%rax, -8(%rbp)
	xorl	%eax, %eax
#APP
# 63 "/usr/include/x86_64-linux-gnu/bits/uintn-identity.h" 1
	##_ANNOTATION_INITIALREGION_-TIG-iO-9zgE-1-reverseStr--20
# 0 "" 2
# 67 "/usr/include/x86_64-linux-gnu/bits/uintn-identity.h" 1
	##_ANNOTATION_ATOMICREGION_-TIG-iO-9zgE-1-reverseStr--19
# 0 "" 2
#NO_APP
	movl	$24, %edi
	call	malloc@PLT
	movq	%rax, -248(%rbp)
	movq	-248(%rbp), %rax
	movq	-248(%rbp), %rdx
	movq	%rdx, 8(%rax)
	movq	-248(%rbp), %rax
	movq	-248(%rbp), %rdx
	movq	%rdx, 16(%rax)
	movq	-248(%rbp), %rax
	movq	%rax, _TIG_iO_9zgE_1_reverseStr_1_opaque_list_1(%rip)
	call	rand@PLT
	movl	%eax, -256(%rbp)
	movl	$24, %edi
	call	malloc@PLT
	movq	%rax, -240(%rbp)
	movq	-240(%rbp), %rax
	movl	$0, (%rax)
	movq	_TIG_iO_9zgE_1_reverseStr_1_opaque_list_1(%rip), %rax
	movq	8(%rax), %rdx
	movq	-240(%rbp), %rax
	movq	%rdx, 8(%rax)
	movq	_TIG_iO_9zgE_1_reverseStr_1_opaque_list_1(%rip), %rdx
	movq	-240(%rbp), %rax
	movq	%rdx, 16(%rax)
	movq	_TIG_iO_9zgE_1_reverseStr_1_opaque_list_1(%rip), %rax
	movq	8(%rax), %rax
	movq	-240(%rbp), %rdx
	movq	%rdx, 16(%rax)
	movq	_TIG_iO_9zgE_1_reverseStr_1_opaque_list_1(%rip), %rax
	movq	-240(%rbp), %rdx
	movq	%rdx, 8(%rax)
	call	rand@PLT
	movl	%eax, -252(%rbp)
	movl	$24, %edi
	call	malloc@PLT
	movq	%rax, -232(%rbp)
	movq	-232(%rbp), %rax
	movl	-252(%rbp), %edx
	movl	%edx, (%rax)
	movq	_TIG_iO_9zgE_1_reverseStr_1_opaque_list_1(%rip), %rax
	movq	8(%rax), %rdx
	movq	-232(%rbp), %rax
	movq	%rdx, 8(%rax)
	movq	_TIG_iO_9zgE_1_reverseStr_1_opaque_list_1(%rip), %rdx
	movq	-232(%rbp), %rax
	movq	%rdx, 16(%rax)
	movq	_TIG_iO_9zgE_1_reverseStr_1_opaque_list_1(%rip), %rax
	movq	8(%rax), %rax
	movq	-232(%rbp), %rdx
	movq	%rdx, 16(%rax)
	movq	_TIG_iO_9zgE_1_reverseStr_1_opaque_list_1(%rip), %rax
	movq	-232(%rbp), %rdx
	movq	%rdx, 8(%rax)
	movq	_TIG_iO_9zgE_1_reverseStr_1_opaque_list_1(%rip), %rax
	movq	8(%rax), %rax
	movq	%rax, _TIG_iO_9zgE_1_reverseStr_1_opaque_ptr_1(%rip)
	movq	_TIG_iO_9zgE_1_reverseStr_1_opaque_ptr_1(%rip), %rax
	movq	%rax, _TIG_iO_9zgE_1_reverseStr_1_opaque_ptr_2(%rip)
	nop
	nop
	leaq	.LC3(%rip), %rax
	movq	%rax, %rdi
	movl	$0, %eax
	call	printf@PLT
	leaq	-224(%rbp), %rax
	movq	%rax, %rsi
	leaq	.LC1(%rip), %rax
	movq	%rax, %rdi
	movl	$0, %eax
	call	__isoc99_scanf@PLT
	movl	$0, -264(%rbp)
	jmp	.L9
.L10:
	addl	$1, -264(%rbp)
.L9:
	movl	-264(%rbp), %eax
	cltq
	movzbl	-224(%rbp,%rax), %eax
	testb	%al, %al
	jne	.L10
	movl	-264(%rbp), %eax
	movl	%eax, %esi
	leaq	.LC2(%rip), %rax
	movq	%rax, %rdi
	movl	$0, %eax
	call	printf@PLT
	movl	-264(%rbp), %eax
	subl	$1, %eax
	movl	%eax, -260(%rbp)
	movq	_TIG_iO_9zgE_1_reverseStr_1_opaque_ptr_1(%rip), %rdx
	movq	_TIG_iO_9zgE_1_reverseStr_1_opaque_ptr_2(%rip), %rax
	cmpq	%rax, %rdx
	jne	.L19
	jmp	.L12
.L13:
	movl	-264(%rbp), %eax
	subl	-260(%rbp), %eax
	leal	-1(%rax), %ecx
	movl	-260(%rbp), %eax
	cltq
	movzbl	-224(%rbp,%rax), %edx
	movslq	%ecx, %rax
	movb	%dl, -112(%rbp,%rax)
	subl	$1, -260(%rbp)
.L12:
	cmpl	$0, -260(%rbp)
	jns	.L13
	jmp	.L18
.L19:
	nop
.L15:
	movl	-260(%rbp), %eax
	notl	%eax
	shrl	$31, %eax
	movzbl	%al, %eax
	cmpl	%eax, -264(%rbp)
	jl	.L15
	movl	-264(%rbp), %eax
	subl	-260(%rbp), %eax
	subl	$1, %eax
	cltq
	movb	$4, -112(%rbp,%rax)
	movl	-260(%rbp), %eax
	subl	$1, %eax
	andl	$1, %eax
	movl	%eax, -260(%rbp)
	jmp	.L19
.L18:
	movl	-264(%rbp), %eax
	cltq
	movb	$0, -112(%rbp,%rax)
	leaq	-112(%rbp), %rax
	movq	%rax, %rsi
	leaq	.LC4(%rip), %rax
	movq	%rax, %rdi
	movl	$0, %eax
	call	printf@PLT
	nop
	movq	-8(%rbp), %rax
	subq	%fs:40, %rax
	je	.L17
	call	__stack_chk_fail@PLT
.L17:
	leave
	.cfi_def_cfa 7, 8
	ret
	.cfi_endproc
.LFE6:
	.size	reverseStr, .-reverseStr
	.section	.rodata
.LC5:
	.string	"enter the two strings "
.LC6:
	.string	"- first string:"
.LC7:
	.string	"- second string:"
.LC8:
	.string	"the concated string: %s \n\n"
	.text
	.globl	concatStr
	.type	concatStr, @function
concatStr:
.LFB8:
	.cfi_startproc
	endbr64
	pushq	%rbp
	.cfi_def_cfa_offset 16
	.cfi_offset 6, -16
	movq	%rsp, %rbp
	.cfi_def_cfa_register 6
	subq	$384, %rsp
	movq	%fs:40, %rax
	movq	%rax, -8(%rbp)
	xorl	%eax, %eax
#APP
# 61 "/usr/include/x86_64-linux-gnu/bits/byteswap.h" 1
	##_ANNOTATION_INITIALREGION_-TIG-iO-9zgE-1-concatStr--14
# 0 "" 2
# 65 "/usr/include/x86_64-linux-gnu/bits/byteswap.h" 1
	##_ANNOTATION_ATOMICREGION_-TIG-iO-9zgE-1-concatStr--13
# 0 "" 2
#NO_APP
	movl	$24, %edi
	call	malloc@PLT
	movq	%rax, -360(%rbp)
	movq	-360(%rbp), %rax
	movq	-360(%rbp), %rdx
	movq	%rdx, (%rax)
	movq	-360(%rbp), %rax
	movq	-360(%rbp), %rdx
	movq	%rdx, 8(%rax)
	movq	-360(%rbp), %rax
	movq	%rax, _TIG_iO_9zgE_1_concatStr_1_opaque_list_1(%rip)
	call	rand@PLT
	movl	%eax, -376(%rbp)
	movl	$24, %edi
	call	malloc@PLT
	movq	%rax, -352(%rbp)
	movq	-352(%rbp), %rax
	movl	$0, 16(%rax)
	movq	_TIG_iO_9zgE_1_concatStr_1_opaque_list_1(%rip), %rax
	movq	(%rax), %rdx
	movq	-352(%rbp), %rax
	movq	%rdx, (%rax)
	movq	_TIG_iO_9zgE_1_concatStr_1_opaque_list_1(%rip), %rdx
	movq	-352(%rbp), %rax
	movq	%rdx, 8(%rax)
	movq	_TIG_iO_9zgE_1_concatStr_1_opaque_list_1(%rip), %rax
	movq	(%rax), %rax
	movq	-352(%rbp), %rdx
	movq	%rdx, 8(%rax)
	movq	_TIG_iO_9zgE_1_concatStr_1_opaque_list_1(%rip), %rax
	movq	-352(%rbp), %rdx
	movq	%rdx, (%rax)
	call	rand@PLT
	movl	%eax, -372(%rbp)
	movl	$24, %edi
	call	malloc@PLT
	movq	%rax, -344(%rbp)
	movq	-344(%rbp), %rax
	movl	-372(%rbp), %edx
	movl	%edx, 16(%rax)
	movq	_TIG_iO_9zgE_1_concatStr_1_opaque_list_1(%rip), %rax
	movq	(%rax), %rdx
	movq	-344(%rbp), %rax
	movq	%rdx, (%rax)
	movq	_TIG_iO_9zgE_1_concatStr_1_opaque_list_1(%rip), %rdx
	movq	-344(%rbp), %rax
	movq	%rdx, 8(%rax)
	movq	_TIG_iO_9zgE_1_concatStr_1_opaque_list_1(%rip), %rax
	movq	(%rax), %rax
	movq	-344(%rbp), %rdx
	movq	%rdx, 8(%rax)
	movq	_TIG_iO_9zgE_1_concatStr_1_opaque_list_1(%rip), %rax
	movq	-344(%rbp), %rdx
	movq	%rdx, (%rax)
	call	rand@PLT
	movl	%eax, -368(%rbp)
	movl	$24, %edi
	call	malloc@PLT
	movq	%rax, -336(%rbp)
	movl	-368(%rbp), %eax
	leal	(%rax,%rax), %edx
	movq	-336(%rbp), %rax
	movl	%edx, 16(%rax)
	movq	_TIG_iO_9zgE_1_concatStr_1_opaque_list_1(%rip), %rax
	movq	(%rax), %rdx
	movq	-336(%rbp), %rax
	movq	%rdx, (%rax)
	movq	_TIG_iO_9zgE_1_concatStr_1_opaque_list_1(%rip), %rdx
	movq	-336(%rbp), %rax
	movq	%rdx, 8(%rax)
	movq	_TIG_iO_9zgE_1_concatStr_1_opaque_list_1(%rip), %rax
	movq	(%rax), %rax
	movq	-336(%rbp), %rdx
	movq	%rdx, 8(%rax)
	movq	_TIG_iO_9zgE_1_concatStr_1_opaque_list_1(%rip), %rax
	movq	-336(%rbp), %rdx
	movq	%rdx, (%rax)
	call	rand@PLT
	movl	%eax, -364(%rbp)
	movl	$24, %edi
	call	malloc@PLT
	movq	%rax, -328(%rbp)
	movl	-364(%rbp), %edx
	movl	%edx, %eax
	addl	%eax, %eax
	addl	%eax, %edx
	movq	-328(%rbp), %rax
	movl	%edx, 16(%rax)
	movq	_TIG_iO_9zgE_1_concatStr_1_opaque_list_1(%rip), %rax
	movq	(%rax), %rdx
	movq	-328(%rbp), %rax
	movq	%rdx, (%rax)
	movq	_TIG_iO_9zgE_1_concatStr_1_opaque_list_1(%rip), %rdx
	movq	-328(%rbp), %rax
	movq	%rdx, 8(%rax)
	movq	_TIG_iO_9zgE_1_concatStr_1_opaque_list_1(%rip), %rax
	movq	(%rax), %rax
	movq	-328(%rbp), %rdx
	movq	%rdx, 8(%rax)
	movq	_TIG_iO_9zgE_1_concatStr_1_opaque_list_1(%rip), %rax
	movq	-328(%rbp), %rdx
	movq	%rdx, (%rax)
	movq	_TIG_iO_9zgE_1_concatStr_1_opaque_list_1(%rip), %rax
	movq	(%rax), %rax
	movq	%rax, _TIG_iO_9zgE_1_concatStr_1_opaque_ptr_1(%rip)
	movq	_TIG_iO_9zgE_1_concatStr_1_opaque_ptr_1(%rip), %rax
	movq	%rax, _TIG_iO_9zgE_1_concatStr_1_opaque_ptr_2(%rip)
	movq	_TIG_iO_9zgE_1_concatStr_1_opaque_ptr_2(%rip), %rax
	movq	(%rax), %rax
	movq	%rax, _TIG_iO_9zgE_1_concatStr_1_opaque_ptr_2(%rip)
	nop
	nop
	leaq	.LC5(%rip), %rax
	movq	%rax, %rdi
	call	puts@PLT
	leaq	.LC6(%rip), %rax
	movq	%rax, %rdi
	movl	$0, %eax
	call	printf@PLT
	leaq	-208(%rbp), %rax
	movq	%rax, %rsi
	leaq	.LC1(%rip), %rax
	movq	%rax, %rdi
	movl	$0, %eax
	call	__isoc99_scanf@PLT
	leaq	.LC7(%rip), %rax
	movq	%rax, %rdi
	movl	$0, %eax
	call	printf@PLT
	leaq	-320(%rbp), %rax
	movq	%rax, %rsi
	leaq	.LC1(%rip), %rax
	movq	%rax, %rdi
	movl	$0, %eax
	call	__isoc99_scanf@PLT
	movl	$0, -384(%rbp)
	movl	$0, -380(%rbp)
	movq	_TIG_iO_9zgE_1_reverseStr_1_opaque_ptr_1(%rip), %rdx
	movq	_TIG_iO_9zgE_1_reverseStr_1_opaque_ptr_2(%rip), %rax
	cmpq	%rax, %rdx
	je	.L23
#APP
# 39 "AmanKhys_week0_4.c" 1
	.byte 0x1,0xc7,0x85,0xb4,0xff,0xff,0x0,0x0
# 0 "" 2
#NO_APP
	jmp	.L25
.L24:
	addl	$1, -384(%rbp)
.L23:
	movl	-384(%rbp), %eax
	cltq
	movzbl	-208(%rbp,%rax), %eax
	testb	%al, %al
	jne	.L24
	jmp	.L25
.L26:
	movl	-380(%rbp), %eax
	cltq
	movzbl	-320(%rbp,%rax), %edx
	movl	-384(%rbp), %eax
	cltq
	movb	%dl, -208(%rbp,%rax)
	addl	$1, -384(%rbp)
	addl	$1, -380(%rbp)
.L25:
	movl	-380(%rbp), %eax
	cltq
	movzbl	-320(%rbp,%rax), %eax
	testb	%al, %al
	jne	.L26
	movl	-384(%rbp), %eax
	cltq
	movb	$0, -208(%rbp,%rax)
	leaq	-208(%rbp), %rax
	movq	%rax, %rsi
	leaq	.LC8(%rip), %rax
	movq	%rax, %rdi
	movl	$0, %eax
	call	printf@PLT
	nop
	movq	-8(%rbp), %rax
	subq	%fs:40, %rax
	je	.L28
	call	__stack_chk_fail@PLT
.L28:
	leave
	.cfi_def_cfa 7, 8
	ret
	.cfi_endproc
.LFE8:
	.size	concatStr, .-concatStr
	.section	.rodata
	.align 8
.LC9:
	.string	"enter the subsequent numbers for respective commands: \n"
.LC10:
	.string	"1 - string length"
.LC11:
	.string	"2 - string concat"
.LC12:
	.string	"3 - string reverse"
.LC13:
	.string	"enter the command: "
.LC14:
	.string	"exit"
.LC15:
	.string	"exiting the program."
.LC16:
	.string	"enter a valid command!! "
	.text
	.globl	main
	.type	main, @function
main:
.LFB9:
	.cfi_startproc
	endbr64
	pushq	%rbp
	.cfi_def_cfa_offset 16
	.cfi_offset 6, -16
	movq	%rsp, %rbp
	.cfi_def_cfa_register 6
	subq	$192, %rsp
	movl	%edi, -164(%rbp)
	movq	%rsi, -176(%rbp)
	movq	%rdx, -184(%rbp)
	movq	%fs:40, %rax
	movq	%rax, -8(%rbp)
	xorl	%eax, %eax
	movq	$0, _TIG_IZ_9zgE_envp(%rip)
	nop
.L30:
	movq	$0, _TIG_IZ_9zgE_argv(%rip)
	nop
.L31:
	movl	$0, _TIG_IZ_9zgE_argc(%rip)
	nop
	nop
.L32:
.L33:
#APP
# 93 "AmanKhys_week0_4.c" 1
	##_ANNOTATION_INITIALREGION_-TIG-IZ-9zgE--0
# 0 "" 2
#NO_APP
	movl	-164(%rbp), %eax
	movl	%eax, _TIG_IZ_9zgE_argc(%rip)
	movq	-176(%rbp), %rax
	movq	%rax, _TIG_IZ_9zgE_argv(%rip)
	movq	-184(%rbp), %rax
	movq	%rax, _TIG_IZ_9zgE_envp(%rip)
#APP
# 100 "AmanKhys_week0_4.c" 1
	##_ANNOTATION_ATOMICREGION_-TIG-iO-9zgE-1-main--17
# 0 "" 2
#NO_APP
	movl	$24, %edi
	call	malloc@PLT
	movq	%rax, -136(%rbp)
	movq	-136(%rbp), %rax
	movq	-136(%rbp), %rdx
	movq	%rdx, 8(%rax)
	movq	-136(%rbp), %rax
	movq	-136(%rbp), %rdx
	movq	%rdx, (%rax)
	movq	-136(%rbp), %rax
	movq	%rax, _TIG_iO_9zgE_1_main_1_opaque_list_1(%rip)
	call	rand@PLT
	movl	%eax, -148(%rbp)
	movl	$24, %edi
	call	malloc@PLT
	movq	%rax, -128(%rbp)
	movq	-128(%rbp), %rax
	movl	$0, 16(%rax)
	movq	_TIG_iO_9zgE_1_main_1_opaque_list_1(%rip), %rax
	movq	8(%rax), %rdx
	movq	-128(%rbp), %rax
	movq	%rdx, 8(%rax)
	movq	_TIG_iO_9zgE_1_main_1_opaque_list_1(%rip), %rdx
	movq	-128(%rbp), %rax
	movq	%rdx, (%rax)
	movq	_TIG_iO_9zgE_1_main_1_opaque_list_1(%rip), %rax
	movq	8(%rax), %rax
	movq	-128(%rbp), %rdx
	movq	%rdx, (%rax)
	movq	_TIG_iO_9zgE_1_main_1_opaque_list_1(%rip), %rax
	movq	-128(%rbp), %rdx
	movq	%rdx, 8(%rax)
	call	rand@PLT
	movl	%eax, -144(%rbp)
	movl	$24, %edi
	call	malloc@PLT
	movq	%rax, -120(%rbp)
	movq	-120(%rbp), %rax
	movl	-144(%rbp), %edx
	movl	%edx, 16(%rax)
	movq	_TIG_iO_9zgE_1_main_1_opaque_list_1(%rip), %rax
	movq	8(%rax), %rdx
	movq	-120(%rbp), %rax
	movq	%rdx, 8(%rax)
	movq	_TIG_iO_9zgE_1_main_1_opaque_list_1(%rip), %rdx
	movq	-120(%rbp), %rax
	movq	%rdx, (%rax)
	movq	_TIG_iO_9zgE_1_main_1_opaque_list_1(%rip), %rax
	movq	8(%rax), %rax
	movq	-120(%rbp), %rdx
	movq	%rdx, (%rax)
	movq	_TIG_iO_9zgE_1_main_1_opaque_list_1(%rip), %rax
	movq	-120(%rbp), %rdx
	movq	%rdx, 8(%rax)
	movq	_TIG_iO_9zgE_1_main_1_opaque_list_1(%rip), %rax
	movq	8(%rax), %rax
	movq	%rax, _TIG_iO_9zgE_1_main_1_opaque_ptr_1(%rip)
	movq	_TIG_iO_9zgE_1_main_1_opaque_ptr_1(%rip), %rax
	movq	%rax, _TIG_iO_9zgE_1_main_1_opaque_ptr_2(%rip)
	movq	_TIG_iO_9zgE_1_main_1_opaque_ptr_2(%rip), %rax
	movq	8(%rax), %rax
	movq	%rax, _TIG_iO_9zgE_1_main_1_opaque_ptr_2(%rip)
	nop
	nop
.L42:
	leaq	.LC9(%rip), %rax
	movq	%rax, %rdi
	call	puts@PLT
	leaq	.LC10(%rip), %rax
	movq	%rax, %rdi
	call	puts@PLT
	leaq	.LC11(%rip), %rax
	movq	%rax, %rdi
	call	puts@PLT
	leaq	.LC12(%rip), %rax
	movq	%rax, %rdi
	call	puts@PLT
	leaq	.LC13(%rip), %rax
	movq	%rax, %rdi
	movl	$0, %eax
	call	printf@PLT
	leaq	-112(%rbp), %rax
	movq	%rax, %rsi
	leaq	.LC1(%rip), %rax
	movq	%rax, %rdi
	movl	$0, %eax
	call	__isoc99_scanf@PLT
	leaq	-112(%rbp), %rax
	leaq	.LC14(%rip), %rdx
	movq	%rdx, %rsi
	movq	%rax, %rdi
	call	strcmp@PLT
	movl	%eax, -140(%rbp)
	cmpl	$0, -140(%rbp)
	jne	.L34
	leaq	.LC15(%rip), %rax
	movq	%rax, %rdi
	movl	$0, %eax
	call	printf@PLT
	movl	$1, %eax
	jmp	.L43
.L34:
	movzbl	-112(%rbp), %eax
	movsbl	%al, %eax
	cmpl	$51, %eax
	je	.L36
	cmpl	$51, %eax
	jg	.L37
	cmpl	$49, %eax
	je	.L38
	cmpl	$50, %eax
	je	.L39
	jmp	.L37
.L38:
	call	findStrLen
	jmp	.L40
.L39:
	call	concatStr
	movq	_TIG_iO_9zgE_1_reverseStr_1_opaque_ptr_1(%rip), %rdx
	movq	_TIG_iO_9zgE_1_reverseStr_1_opaque_ptr_2(%rip), %rax
	cmpq	%rax, %rdx
	je	.L45
	movl	-140(%rbp), %eax
	jmp	.L43
.L36:
	call	reverseStr
	jmp	.L40
.L37:
	leaq	.LC16(%rip), %rax
	movq	%rax, %rdi
	call	puts@PLT
	jmp	.L42
.L45:
	nop
.L40:
	jmp	.L42
.L43:
	movq	-8(%rbp), %rdx
	subq	%fs:40, %rdx
	je	.L44
	call	__stack_chk_fail@PLT
.L44:
	leave
	.cfi_def_cfa 7, 8
	ret
	.cfi_endproc
.LFE9:
	.size	main, .-main
	.ident	"GCC: (Ubuntu 11.4.0-1ubuntu1~22.04) 11.4.0"
	.section	.note.GNU-stack,"",@progbits
	.section	.note.gnu.property,"a"
	.align 8
	.long	1f - 0f
	.long	4f - 1f
	.long	5
0:
	.string	"GNU"
1:
	.align 8
	.long	0xc0000002
	.long	3f - 2f
2:
	.long	0x3
3:
	.align 8
4:
