	.file	"beobeb_UG_zad1_lab5_opaque.c"
	.text
	.globl	_TIG_iO_YKWZ_1_dodawanie_1_opaque_list_2
	.bss
	.align 8
	.type	_TIG_iO_YKWZ_1_dodawanie_1_opaque_list_2, @object
	.size	_TIG_iO_YKWZ_1_dodawanie_1_opaque_list_2, 8
_TIG_iO_YKWZ_1_dodawanie_1_opaque_list_2:
	.zero	8
	.globl	_TIG_iO_YKWZ_1_odejmowanie_1_opaque_ptr_1
	.align 8
	.type	_TIG_iO_YKWZ_1_odejmowanie_1_opaque_ptr_1, @object
	.size	_TIG_iO_YKWZ_1_odejmowanie_1_opaque_ptr_1, 8
_TIG_iO_YKWZ_1_odejmowanie_1_opaque_ptr_1:
	.zero	8
	.globl	_TIG_iO_YKWZ_1___uint32_identity_1_opaque_ptr_2
	.align 8
	.type	_TIG_iO_YKWZ_1___uint32_identity_1_opaque_ptr_2, @object
	.size	_TIG_iO_YKWZ_1___uint32_identity_1_opaque_ptr_2, 8
_TIG_iO_YKWZ_1___uint32_identity_1_opaque_ptr_2:
	.zero	8
	.globl	_TIG_iO_YKWZ_1_odejmowanie_1_opaque_list_1
	.align 8
	.type	_TIG_iO_YKWZ_1_odejmowanie_1_opaque_list_1, @object
	.size	_TIG_iO_YKWZ_1_odejmowanie_1_opaque_list_1, 8
_TIG_iO_YKWZ_1_odejmowanie_1_opaque_list_1:
	.zero	8
	.globl	_TIG_iO_YKWZ_1_mnozenie_1_opaque_list_2
	.align 8
	.type	_TIG_iO_YKWZ_1_mnozenie_1_opaque_list_2, @object
	.size	_TIG_iO_YKWZ_1_mnozenie_1_opaque_list_2, 8
_TIG_iO_YKWZ_1_mnozenie_1_opaque_list_2:
	.zero	8
	.globl	_TIG_iO_YKWZ_1___uint16_identity_1_opaque_ptr_2
	.align 8
	.type	_TIG_iO_YKWZ_1___uint16_identity_1_opaque_ptr_2, @object
	.size	_TIG_iO_YKWZ_1___uint16_identity_1_opaque_ptr_2, 8
_TIG_iO_YKWZ_1___uint16_identity_1_opaque_ptr_2:
	.zero	8
	.globl	_TIG_iO_YKWZ_1___uint32_identity_1_opaque_list_2
	.align 8
	.type	_TIG_iO_YKWZ_1___uint32_identity_1_opaque_list_2, @object
	.size	_TIG_iO_YKWZ_1___uint32_identity_1_opaque_list_2, 8
_TIG_iO_YKWZ_1___uint32_identity_1_opaque_list_2:
	.zero	8
	.globl	_TIG_iO_YKWZ_1___uint32_identity_1_opaque_list_1
	.align 8
	.type	_TIG_iO_YKWZ_1___uint32_identity_1_opaque_list_1, @object
	.size	_TIG_iO_YKWZ_1___uint32_identity_1_opaque_list_1, 8
_TIG_iO_YKWZ_1___uint32_identity_1_opaque_list_1:
	.zero	8
	.globl	_TIG_iO_YKWZ_1___bswap_64_1_opaque_ptr_1
	.align 8
	.type	_TIG_iO_YKWZ_1___bswap_64_1_opaque_ptr_1, @object
	.size	_TIG_iO_YKWZ_1___bswap_64_1_opaque_ptr_1, 8
_TIG_iO_YKWZ_1___bswap_64_1_opaque_ptr_1:
	.zero	8
	.globl	_TIG_iO_YKWZ_1___bswap_64_1_opaque_list_1
	.align 8
	.type	_TIG_iO_YKWZ_1___bswap_64_1_opaque_list_1, @object
	.size	_TIG_iO_YKWZ_1___bswap_64_1_opaque_list_1, 8
_TIG_iO_YKWZ_1___bswap_64_1_opaque_list_1:
	.zero	8
	.globl	_TIG_iO_YKWZ_1___bswap_16_1_opaque_list_1
	.align 8
	.type	_TIG_iO_YKWZ_1___bswap_16_1_opaque_list_1, @object
	.size	_TIG_iO_YKWZ_1___bswap_16_1_opaque_list_1, 8
_TIG_iO_YKWZ_1___bswap_16_1_opaque_list_1:
	.zero	8
	.globl	_TIG_iO_YKWZ_1___bswap_64_1_opaque_ptr_2
	.align 8
	.type	_TIG_iO_YKWZ_1___bswap_64_1_opaque_ptr_2, @object
	.size	_TIG_iO_YKWZ_1___bswap_64_1_opaque_ptr_2, 8
_TIG_iO_YKWZ_1___bswap_64_1_opaque_ptr_2:
	.zero	8
	.globl	_TIG_iO_YKWZ_1___bswap_32_1_opaque_list_1
	.align 8
	.type	_TIG_iO_YKWZ_1___bswap_32_1_opaque_list_1, @object
	.size	_TIG_iO_YKWZ_1___bswap_32_1_opaque_list_1, 8
_TIG_iO_YKWZ_1___bswap_32_1_opaque_list_1:
	.zero	8
	.globl	_TIG_iO_YKWZ_1_main_1_opaque_ptr_2
	.align 8
	.type	_TIG_iO_YKWZ_1_main_1_opaque_ptr_2, @object
	.size	_TIG_iO_YKWZ_1_main_1_opaque_ptr_2, 8
_TIG_iO_YKWZ_1_main_1_opaque_ptr_2:
	.zero	8
	.globl	_TIG_iO_YKWZ_1_dzielenie_1_opaque_ptr_1
	.align 8
	.type	_TIG_iO_YKWZ_1_dzielenie_1_opaque_ptr_1, @object
	.size	_TIG_iO_YKWZ_1_dzielenie_1_opaque_ptr_1, 8
_TIG_iO_YKWZ_1_dzielenie_1_opaque_ptr_1:
	.zero	8
	.globl	_TIG_iO_YKWZ_1___bswap_32_1_opaque_list_2
	.align 8
	.type	_TIG_iO_YKWZ_1___bswap_32_1_opaque_list_2, @object
	.size	_TIG_iO_YKWZ_1___bswap_32_1_opaque_list_2, 8
_TIG_iO_YKWZ_1___bswap_32_1_opaque_list_2:
	.zero	8
	.globl	_TIG_iO_YKWZ_1_dodawanie_1_opaque_ptr_2
	.align 8
	.type	_TIG_iO_YKWZ_1_dodawanie_1_opaque_ptr_2, @object
	.size	_TIG_iO_YKWZ_1_dodawanie_1_opaque_ptr_2, 8
_TIG_iO_YKWZ_1_dodawanie_1_opaque_ptr_2:
	.zero	8
	.globl	_TIG_iO_YKWZ_1___uint64_identity_1_opaque_list_2
	.align 8
	.type	_TIG_iO_YKWZ_1___uint64_identity_1_opaque_list_2, @object
	.size	_TIG_iO_YKWZ_1___uint64_identity_1_opaque_list_2, 8
_TIG_iO_YKWZ_1___uint64_identity_1_opaque_list_2:
	.zero	8
	.globl	_TIG_iO_YKWZ_1_mnozenie_1_opaque_ptr_2
	.align 8
	.type	_TIG_iO_YKWZ_1_mnozenie_1_opaque_ptr_2, @object
	.size	_TIG_iO_YKWZ_1_mnozenie_1_opaque_ptr_2, 8
_TIG_iO_YKWZ_1_mnozenie_1_opaque_ptr_2:
	.zero	8
	.globl	_TIG_iO_YKWZ_1___bswap_16_1_opaque_ptr_1
	.align 8
	.type	_TIG_iO_YKWZ_1___bswap_16_1_opaque_ptr_1, @object
	.size	_TIG_iO_YKWZ_1___bswap_16_1_opaque_ptr_1, 8
_TIG_iO_YKWZ_1___bswap_16_1_opaque_ptr_1:
	.zero	8
	.globl	_TIG_iO_YKWZ_1___bswap_32_1_opaque_ptr_2
	.align 8
	.type	_TIG_iO_YKWZ_1___bswap_32_1_opaque_ptr_2, @object
	.size	_TIG_iO_YKWZ_1___bswap_32_1_opaque_ptr_2, 8
_TIG_iO_YKWZ_1___bswap_32_1_opaque_ptr_2:
	.zero	8
	.globl	_TIG_iO_YKWZ_1___uint64_identity_1_opaque_ptr_2
	.align 8
	.type	_TIG_iO_YKWZ_1___uint64_identity_1_opaque_ptr_2, @object
	.size	_TIG_iO_YKWZ_1___uint64_identity_1_opaque_ptr_2, 8
_TIG_iO_YKWZ_1___uint64_identity_1_opaque_ptr_2:
	.zero	8
	.globl	_TIG_IZ_YKWZ_argc
	.align 4
	.type	_TIG_IZ_YKWZ_argc, @object
	.size	_TIG_IZ_YKWZ_argc, 4
_TIG_IZ_YKWZ_argc:
	.zero	4
	.globl	_TIG_iO_YKWZ_1_main_1_opaque_list_2
	.align 8
	.type	_TIG_iO_YKWZ_1_main_1_opaque_list_2, @object
	.size	_TIG_iO_YKWZ_1_main_1_opaque_list_2, 8
_TIG_iO_YKWZ_1_main_1_opaque_list_2:
	.zero	8
	.globl	_TIG_iO_YKWZ_1___bswap_16_1_opaque_list_2
	.align 8
	.type	_TIG_iO_YKWZ_1___bswap_16_1_opaque_list_2, @object
	.size	_TIG_iO_YKWZ_1___bswap_16_1_opaque_list_2, 8
_TIG_iO_YKWZ_1___bswap_16_1_opaque_list_2:
	.zero	8
	.globl	_TIG_iO_YKWZ_1___uint32_identity_1_opaque_ptr_1
	.align 8
	.type	_TIG_iO_YKWZ_1___uint32_identity_1_opaque_ptr_1, @object
	.size	_TIG_iO_YKWZ_1___uint32_identity_1_opaque_ptr_1, 8
_TIG_iO_YKWZ_1___uint32_identity_1_opaque_ptr_1:
	.zero	8
	.globl	_TIG_iO_YKWZ_1_dzielenie_1_opaque_list_2
	.align 8
	.type	_TIG_iO_YKWZ_1_dzielenie_1_opaque_list_2, @object
	.size	_TIG_iO_YKWZ_1_dzielenie_1_opaque_list_2, 8
_TIG_iO_YKWZ_1_dzielenie_1_opaque_list_2:
	.zero	8
	.globl	_TIG_iO_YKWZ_1___bswap_16_1_opaque_ptr_2
	.align 8
	.type	_TIG_iO_YKWZ_1___bswap_16_1_opaque_ptr_2, @object
	.size	_TIG_iO_YKWZ_1___bswap_16_1_opaque_ptr_2, 8
_TIG_iO_YKWZ_1___bswap_16_1_opaque_ptr_2:
	.zero	8
	.globl	_TIG_iO_YKWZ_1_main_1_opaque_list_1
	.align 8
	.type	_TIG_iO_YKWZ_1_main_1_opaque_list_1, @object
	.size	_TIG_iO_YKWZ_1_main_1_opaque_list_1, 8
_TIG_iO_YKWZ_1_main_1_opaque_list_1:
	.zero	8
	.globl	_TIG_iO_YKWZ_1___uint16_identity_1_opaque_list_2
	.align 8
	.type	_TIG_iO_YKWZ_1___uint16_identity_1_opaque_list_2, @object
	.size	_TIG_iO_YKWZ_1___uint16_identity_1_opaque_list_2, 8
_TIG_iO_YKWZ_1___uint16_identity_1_opaque_list_2:
	.zero	8
	.globl	_TIG_IZ_YKWZ_envp
	.align 8
	.type	_TIG_IZ_YKWZ_envp, @object
	.size	_TIG_IZ_YKWZ_envp, 8
_TIG_IZ_YKWZ_envp:
	.zero	8
	.globl	_TIG_iO_YKWZ_1___uint16_identity_1_opaque_ptr_1
	.align 8
	.type	_TIG_iO_YKWZ_1___uint16_identity_1_opaque_ptr_1, @object
	.size	_TIG_iO_YKWZ_1___uint16_identity_1_opaque_ptr_1, 8
_TIG_iO_YKWZ_1___uint16_identity_1_opaque_ptr_1:
	.zero	8
	.globl	_TIG_iO_YKWZ_1_mnozenie_1_opaque_ptr_1
	.align 8
	.type	_TIG_iO_YKWZ_1_mnozenie_1_opaque_ptr_1, @object
	.size	_TIG_iO_YKWZ_1_mnozenie_1_opaque_ptr_1, 8
_TIG_iO_YKWZ_1_mnozenie_1_opaque_ptr_1:
	.zero	8
	.globl	_TIG_iO_YKWZ_1_dodawanie_1_opaque_ptr_1
	.align 8
	.type	_TIG_iO_YKWZ_1_dodawanie_1_opaque_ptr_1, @object
	.size	_TIG_iO_YKWZ_1_dodawanie_1_opaque_ptr_1, 8
_TIG_iO_YKWZ_1_dodawanie_1_opaque_ptr_1:
	.zero	8
	.globl	_TIG_iO_YKWZ_1___uint64_identity_1_opaque_ptr_1
	.align 8
	.type	_TIG_iO_YKWZ_1___uint64_identity_1_opaque_ptr_1, @object
	.size	_TIG_iO_YKWZ_1___uint64_identity_1_opaque_ptr_1, 8
_TIG_iO_YKWZ_1___uint64_identity_1_opaque_ptr_1:
	.zero	8
	.globl	_TIG_iO_YKWZ_1_odejmowanie_1_opaque_ptr_2
	.align 8
	.type	_TIG_iO_YKWZ_1_odejmowanie_1_opaque_ptr_2, @object
	.size	_TIG_iO_YKWZ_1_odejmowanie_1_opaque_ptr_2, 8
_TIG_iO_YKWZ_1_odejmowanie_1_opaque_ptr_2:
	.zero	8
	.globl	_TIG_iO_YKWZ_1___uint64_identity_1_opaque_list_1
	.align 8
	.type	_TIG_iO_YKWZ_1___uint64_identity_1_opaque_list_1, @object
	.size	_TIG_iO_YKWZ_1___uint64_identity_1_opaque_list_1, 8
_TIG_iO_YKWZ_1___uint64_identity_1_opaque_list_1:
	.zero	8
	.globl	_TIG_iO_YKWZ_1_dodawanie_1_opaque_list_1
	.align 8
	.type	_TIG_iO_YKWZ_1_dodawanie_1_opaque_list_1, @object
	.size	_TIG_iO_YKWZ_1_dodawanie_1_opaque_list_1, 8
_TIG_iO_YKWZ_1_dodawanie_1_opaque_list_1:
	.zero	8
	.globl	_TIG_iO_YKWZ_1_main_1_opaque_ptr_1
	.align 8
	.type	_TIG_iO_YKWZ_1_main_1_opaque_ptr_1, @object
	.size	_TIG_iO_YKWZ_1_main_1_opaque_ptr_1, 8
_TIG_iO_YKWZ_1_main_1_opaque_ptr_1:
	.zero	8
	.globl	_TIG_iO_YKWZ_1___bswap_64_1_opaque_list_2
	.align 8
	.type	_TIG_iO_YKWZ_1___bswap_64_1_opaque_list_2, @object
	.size	_TIG_iO_YKWZ_1___bswap_64_1_opaque_list_2, 8
_TIG_iO_YKWZ_1___bswap_64_1_opaque_list_2:
	.zero	8
	.globl	_TIG_iO_YKWZ_1___bswap_32_1_opaque_ptr_1
	.align 8
	.type	_TIG_iO_YKWZ_1___bswap_32_1_opaque_ptr_1, @object
	.size	_TIG_iO_YKWZ_1___bswap_32_1_opaque_ptr_1, 8
_TIG_iO_YKWZ_1___bswap_32_1_opaque_ptr_1:
	.zero	8
	.globl	_TIG_iO_YKWZ_1_mnozenie_1_opaque_list_1
	.align 8
	.type	_TIG_iO_YKWZ_1_mnozenie_1_opaque_list_1, @object
	.size	_TIG_iO_YKWZ_1_mnozenie_1_opaque_list_1, 8
_TIG_iO_YKWZ_1_mnozenie_1_opaque_list_1:
	.zero	8
	.globl	_TIG_IZ_YKWZ_argv
	.align 8
	.type	_TIG_IZ_YKWZ_argv, @object
	.size	_TIG_IZ_YKWZ_argv, 8
_TIG_IZ_YKWZ_argv:
	.zero	8
	.globl	_TIG_iO_YKWZ_1_dzielenie_1_opaque_ptr_2
	.align 8
	.type	_TIG_iO_YKWZ_1_dzielenie_1_opaque_ptr_2, @object
	.size	_TIG_iO_YKWZ_1_dzielenie_1_opaque_ptr_2, 8
_TIG_iO_YKWZ_1_dzielenie_1_opaque_ptr_2:
	.zero	8
	.globl	_TIG_iO_YKWZ_1___uint16_identity_1_opaque_list_1
	.align 8
	.type	_TIG_iO_YKWZ_1___uint16_identity_1_opaque_list_1, @object
	.size	_TIG_iO_YKWZ_1___uint16_identity_1_opaque_list_1, 8
_TIG_iO_YKWZ_1___uint16_identity_1_opaque_list_1:
	.zero	8
	.globl	_TIG_iO_YKWZ_1_odejmowanie_1_opaque_list_2
	.align 8
	.type	_TIG_iO_YKWZ_1_odejmowanie_1_opaque_list_2, @object
	.size	_TIG_iO_YKWZ_1_odejmowanie_1_opaque_list_2, 8
_TIG_iO_YKWZ_1_odejmowanie_1_opaque_list_2:
	.zero	8
	.globl	_TIG_iO_YKWZ_1_dzielenie_1_opaque_list_1
	.align 8
	.type	_TIG_iO_YKWZ_1_dzielenie_1_opaque_list_1, @object
	.size	_TIG_iO_YKWZ_1_dzielenie_1_opaque_list_1, 8
_TIG_iO_YKWZ_1_dzielenie_1_opaque_list_1:
	.zero	8
	.section	.rodata
.LC0:
	.string	"%d"
	.text
	.globl	mnozenie
	.type	mnozenie, @function
mnozenie:
.LFB0:
	.cfi_startproc
	endbr64
	pushq	%rbp
	.cfi_def_cfa_offset 16
	.cfi_offset 6, -16
	movq	%rsp, %rbp
	.cfi_def_cfa_register 6
	subq	$48, %rsp
	movl	%edi, -36(%rbp)
	movl	%esi, -40(%rbp)
#APP
# 76 "/usr/include/stdlib.h" 1
	##_ANNOTATION_INITIALREGION_-TIG-iO-YKWZ-1-mnozenie--20
# 0 "" 2
# 80 "/usr/include/stdlib.h" 1
	##_ANNOTATION_ATOMICREGION_-TIG-iO-YKWZ-1-mnozenie--19
# 0 "" 2
#NO_APP
	movl	$24, %edi
	call	malloc@PLT
	movq	%rax, -24(%rbp)
	movq	-24(%rbp), %rax
	movq	-24(%rbp), %rdx
	movq	%rdx, 8(%rax)
	movq	-24(%rbp), %rax
	movq	-24(%rbp), %rdx
	movq	%rdx, 16(%rax)
	movq	-24(%rbp), %rax
	movq	%rax, _TIG_iO_YKWZ_1_mnozenie_1_opaque_list_1(%rip)
	call	rand@PLT
	movl	%eax, -32(%rbp)
	movl	$24, %edi
	call	malloc@PLT
	movq	%rax, -16(%rbp)
	movq	-16(%rbp), %rax
	movl	$0, (%rax)
	movq	_TIG_iO_YKWZ_1_mnozenie_1_opaque_list_1(%rip), %rax
	movq	8(%rax), %rdx
	movq	-16(%rbp), %rax
	movq	%rdx, 8(%rax)
	movq	_TIG_iO_YKWZ_1_mnozenie_1_opaque_list_1(%rip), %rdx
	movq	-16(%rbp), %rax
	movq	%rdx, 16(%rax)
	movq	_TIG_iO_YKWZ_1_mnozenie_1_opaque_list_1(%rip), %rax
	movq	8(%rax), %rax
	movq	-16(%rbp), %rdx
	movq	%rdx, 16(%rax)
	movq	_TIG_iO_YKWZ_1_mnozenie_1_opaque_list_1(%rip), %rax
	movq	-16(%rbp), %rdx
	movq	%rdx, 8(%rax)
	call	rand@PLT
	movl	%eax, -28(%rbp)
	movl	$24, %edi
	call	malloc@PLT
	movq	%rax, -8(%rbp)
	movq	-8(%rbp), %rax
	movl	-28(%rbp), %edx
	movl	%edx, (%rax)
	movq	_TIG_iO_YKWZ_1_mnozenie_1_opaque_list_1(%rip), %rax
	movq	8(%rax), %rdx
	movq	-8(%rbp), %rax
	movq	%rdx, 8(%rax)
	movq	_TIG_iO_YKWZ_1_mnozenie_1_opaque_list_1(%rip), %rdx
	movq	-8(%rbp), %rax
	movq	%rdx, 16(%rax)
	movq	_TIG_iO_YKWZ_1_mnozenie_1_opaque_list_1(%rip), %rax
	movq	8(%rax), %rax
	movq	-8(%rbp), %rdx
	movq	%rdx, 16(%rax)
	movq	_TIG_iO_YKWZ_1_mnozenie_1_opaque_list_1(%rip), %rax
	movq	-8(%rbp), %rdx
	movq	%rdx, 8(%rax)
	movq	_TIG_iO_YKWZ_1_mnozenie_1_opaque_list_1(%rip), %rax
	movq	8(%rax), %rax
	movq	%rax, _TIG_iO_YKWZ_1_mnozenie_1_opaque_ptr_1(%rip)
	movq	_TIG_iO_YKWZ_1_mnozenie_1_opaque_ptr_1(%rip), %rax
	movq	%rax, _TIG_iO_YKWZ_1_mnozenie_1_opaque_ptr_2(%rip)
	nop
	nop
	movl	-36(%rbp), %eax
	imull	-40(%rbp), %eax
	movl	%eax, %esi
	leaq	.LC0(%rip), %rax
	movq	%rax, %rdi
	movl	$0, %eax
	call	printf@PLT
	movq	_TIG_iO_YKWZ_1_odejmowanie_1_opaque_ptr_1(%rip), %rdx
	movq	_TIG_iO_YKWZ_1_odejmowanie_1_opaque_ptr_2(%rip), %rax
	cmpq	%rax, %rdx
	jne	.L4
#APP
# 14 "beobeb_UG_zad1_lab5.c" 1
	.byte 0x2a,0xe4,0xde,0xa6
# 0 "" 2
#NO_APP
	jmp	.L1
.L4:
	nop
.L1:
	leave
	.cfi_def_cfa 7, 8
	ret
	.cfi_endproc
.LFE0:
	.size	mnozenie, .-mnozenie
	.globl	dzielenie
	.type	dzielenie, @function
dzielenie:
.LFB4:
	.cfi_startproc
	endbr64
	pushq	%rbp
	.cfi_def_cfa_offset 16
	.cfi_offset 6, -16
	movq	%rsp, %rbp
	.cfi_def_cfa_register 6
	subq	$48, %rsp
	movl	%edi, -36(%rbp)
	movl	%esi, -40(%rbp)
#APP
# 53 "/usr/include/x86_64-linux-gnu/bits/byteswap.h" 1
	##_ANNOTATION_INITIALREGION_-TIG-iO-YKWZ-1-dzielenie--16
# 0 "" 2
# 57 "/usr/include/x86_64-linux-gnu/bits/byteswap.h" 1
	##_ANNOTATION_ATOMICREGION_-TIG-iO-YKWZ-1-dzielenie--15
# 0 "" 2
#NO_APP
	movl	$24, %edi
	call	malloc@PLT
	movq	%rax, -24(%rbp)
	movq	-24(%rbp), %rax
	movq	-24(%rbp), %rdx
	movq	%rdx, 16(%rax)
	movq	-24(%rbp), %rax
	movq	-24(%rbp), %rdx
	movq	%rdx, 8(%rax)
	movq	-24(%rbp), %rax
	movq	%rax, _TIG_iO_YKWZ_1_dzielenie_1_opaque_list_1(%rip)
	call	rand@PLT
	movl	%eax, -32(%rbp)
	movl	$24, %edi
	call	malloc@PLT
	movq	%rax, -16(%rbp)
	movq	-16(%rbp), %rax
	movl	$0, (%rax)
	movq	_TIG_iO_YKWZ_1_dzielenie_1_opaque_list_1(%rip), %rax
	movq	16(%rax), %rdx
	movq	-16(%rbp), %rax
	movq	%rdx, 16(%rax)
	movq	_TIG_iO_YKWZ_1_dzielenie_1_opaque_list_1(%rip), %rdx
	movq	-16(%rbp), %rax
	movq	%rdx, 8(%rax)
	movq	_TIG_iO_YKWZ_1_dzielenie_1_opaque_list_1(%rip), %rax
	movq	16(%rax), %rax
	movq	-16(%rbp), %rdx
	movq	%rdx, 8(%rax)
	movq	_TIG_iO_YKWZ_1_dzielenie_1_opaque_list_1(%rip), %rax
	movq	-16(%rbp), %rdx
	movq	%rdx, 16(%rax)
	call	rand@PLT
	movl	%eax, -28(%rbp)
	movl	$24, %edi
	call	malloc@PLT
	movq	%rax, -8(%rbp)
	movq	-8(%rbp), %rax
	movl	-28(%rbp), %edx
	movl	%edx, (%rax)
	movq	_TIG_iO_YKWZ_1_dzielenie_1_opaque_list_1(%rip), %rax
	movq	16(%rax), %rdx
	movq	-8(%rbp), %rax
	movq	%rdx, 16(%rax)
	movq	_TIG_iO_YKWZ_1_dzielenie_1_opaque_list_1(%rip), %rdx
	movq	-8(%rbp), %rax
	movq	%rdx, 8(%rax)
	movq	_TIG_iO_YKWZ_1_dzielenie_1_opaque_list_1(%rip), %rax
	movq	16(%rax), %rax
	movq	-8(%rbp), %rdx
	movq	%rdx, 8(%rax)
	movq	_TIG_iO_YKWZ_1_dzielenie_1_opaque_list_1(%rip), %rax
	movq	-8(%rbp), %rdx
	movq	%rdx, 16(%rax)
	movq	_TIG_iO_YKWZ_1_dzielenie_1_opaque_list_1(%rip), %rax
	movq	16(%rax), %rax
	movq	%rax, _TIG_iO_YKWZ_1_dzielenie_1_opaque_ptr_1(%rip)
	movq	_TIG_iO_YKWZ_1_dzielenie_1_opaque_ptr_1(%rip), %rax
	movq	%rax, _TIG_iO_YKWZ_1_dzielenie_1_opaque_ptr_2(%rip)
	nop
	nop
	movl	-36(%rbp), %eax
	cltd
	idivl	-40(%rbp)
	movl	%eax, %esi
	leaq	.LC0(%rip), %rax
	movq	%rax, %rdi
	movl	$0, %eax
	call	printf@PLT
	movq	_TIG_iO_YKWZ_1_odejmowanie_1_opaque_ptr_1(%rip), %rdx
	movq	_TIG_iO_YKWZ_1_odejmowanie_1_opaque_ptr_2(%rip), %rax
	cmpq	%rax, %rdx
	jne	.L8
#APP
# 17 "beobeb_UG_zad1_lab5.c" 1
	.byte 0xb8,0x1,0x0,0x0,0x0,0x11,0x48
# 0 "" 2
#NO_APP
	jmp	.L5
.L8:
	nop
.L5:
	leave
	.cfi_def_cfa 7, 8
	ret
	.cfi_endproc
.LFE4:
	.size	dzielenie, .-dzielenie
	.section	.rodata
.LC1:
	.string	"Podaj dwie liczby: "
.LC2:
	.string	"%d %d"
	.align 8
.LC3:
	.string	"Podaj rodzaj dzia\305\202ania: \n1-odejmowanie \n2-dodawanie \n3-mnozenie \n4-dzielenie"
.LC4:
	.string	"wynik odejmowania: "
.LC5:
	.string	"wynik dodawania: "
.LC6:
	.string	"wynik mnozenia: "
.LC7:
	.string	"wynik dzielenia: "
	.text
	.globl	main
	.type	main, @function
main:
.LFB5:
	.cfi_startproc
	endbr64
	pushq	%rbp
	.cfi_def_cfa_offset 16
	.cfi_offset 6, -16
	movq	%rsp, %rbp
	.cfi_def_cfa_register 6
	subq	$96, %rsp
	movl	%edi, -68(%rbp)
	movq	%rsi, -80(%rbp)
	movq	%rdx, -88(%rbp)
	movq	%fs:40, %rax
	movq	%rax, -8(%rbp)
	xorl	%eax, %eax
	movq	$0, _TIG_IZ_YKWZ_envp(%rip)
	nop
.L10:
	movq	$0, _TIG_IZ_YKWZ_argv(%rip)
	nop
.L11:
	movl	$0, _TIG_IZ_YKWZ_argc(%rip)
	nop
	nop
.L12:
.L13:
#APP
# 63 "beobeb_UG_zad1_lab5.c" 1
	##_ANNOTATION_INITIALREGION_-TIG-IZ-YKWZ--0
# 0 "" 2
#NO_APP
	movl	-68(%rbp), %eax
	movl	%eax, _TIG_IZ_YKWZ_argc(%rip)
	movq	-80(%rbp), %rax
	movq	%rax, _TIG_IZ_YKWZ_argv(%rip)
	movq	-88(%rbp), %rax
	movq	%rax, _TIG_IZ_YKWZ_envp(%rip)
#APP
# 70 "beobeb_UG_zad1_lab5.c" 1
	##_ANNOTATION_ATOMICREGION_-TIG-iO-YKWZ-1-main--17
# 0 "" 2
#NO_APP
	movl	$24, %edi
	call	malloc@PLT
	movq	%rax, -32(%rbp)
	movq	-32(%rbp), %rax
	movq	-32(%rbp), %rdx
	movq	%rdx, 8(%rax)
	movq	-32(%rbp), %rax
	movq	-32(%rbp), %rdx
	movq	%rdx, (%rax)
	movq	-32(%rbp), %rax
	movq	%rax, _TIG_iO_YKWZ_1_main_1_opaque_list_1(%rip)
	call	rand@PLT
	movl	%eax, -40(%rbp)
	movl	$24, %edi
	call	malloc@PLT
	movq	%rax, -24(%rbp)
	movq	-24(%rbp), %rax
	movl	$0, 16(%rax)
	movq	_TIG_iO_YKWZ_1_main_1_opaque_list_1(%rip), %rax
	movq	8(%rax), %rdx
	movq	-24(%rbp), %rax
	movq	%rdx, 8(%rax)
	movq	_TIG_iO_YKWZ_1_main_1_opaque_list_1(%rip), %rdx
	movq	-24(%rbp), %rax
	movq	%rdx, (%rax)
	movq	_TIG_iO_YKWZ_1_main_1_opaque_list_1(%rip), %rax
	movq	8(%rax), %rax
	movq	-24(%rbp), %rdx
	movq	%rdx, (%rax)
	movq	_TIG_iO_YKWZ_1_main_1_opaque_list_1(%rip), %rax
	movq	-24(%rbp), %rdx
	movq	%rdx, 8(%rax)
	call	rand@PLT
	movl	%eax, -36(%rbp)
	movl	$24, %edi
	call	malloc@PLT
	movq	%rax, -16(%rbp)
	movq	-16(%rbp), %rax
	movl	-36(%rbp), %edx
	movl	%edx, 16(%rax)
	movq	_TIG_iO_YKWZ_1_main_1_opaque_list_1(%rip), %rax
	movq	8(%rax), %rdx
	movq	-16(%rbp), %rax
	movq	%rdx, 8(%rax)
	movq	_TIG_iO_YKWZ_1_main_1_opaque_list_1(%rip), %rdx
	movq	-16(%rbp), %rax
	movq	%rdx, (%rax)
	movq	_TIG_iO_YKWZ_1_main_1_opaque_list_1(%rip), %rax
	movq	8(%rax), %rax
	movq	-16(%rbp), %rdx
	movq	%rdx, (%rax)
	movq	_TIG_iO_YKWZ_1_main_1_opaque_list_1(%rip), %rax
	movq	-16(%rbp), %rdx
	movq	%rdx, 8(%rax)
	movq	_TIG_iO_YKWZ_1_main_1_opaque_list_1(%rip), %rax
	movq	8(%rax), %rax
	movq	%rax, _TIG_iO_YKWZ_1_main_1_opaque_ptr_1(%rip)
	movq	_TIG_iO_YKWZ_1_main_1_opaque_ptr_1(%rip), %rax
	movq	%rax, _TIG_iO_YKWZ_1_main_1_opaque_ptr_2(%rip)
	movq	_TIG_iO_YKWZ_1_main_1_opaque_ptr_2(%rip), %rax
	movq	8(%rax), %rax
	movq	%rax, _TIG_iO_YKWZ_1_main_1_opaque_ptr_2(%rip)
	nop
	nop
	leaq	.LC1(%rip), %rax
	movq	%rax, %rdi
	call	puts@PLT
	leaq	-48(%rbp), %rdx
	leaq	-52(%rbp), %rax
	movq	%rax, %rsi
	leaq	.LC2(%rip), %rax
	movq	%rax, %rdi
	movl	$0, %eax
	call	__isoc99_scanf@PLT
	leaq	.LC3(%rip), %rax
	movq	%rax, %rdi
	call	puts@PLT
	leaq	-44(%rbp), %rax
	movq	%rax, %rsi
	leaq	.LC0(%rip), %rax
	movq	%rax, %rdi
	movl	$0, %eax
	call	__isoc99_scanf@PLT
	movl	-44(%rbp), %eax
	cmpl	$4, %eax
	je	.L14
	cmpl	$4, %eax
	jg	.L15
	cmpl	$3, %eax
	je	.L16
	cmpl	$3, %eax
	jg	.L15
	cmpl	$1, %eax
	je	.L17
	cmpl	$2, %eax
	je	.L18
	jmp	.L15
.L17:
	leaq	.LC4(%rip), %rax
	movq	%rax, %rdi
	movl	$0, %eax
	call	printf@PLT
	movl	-48(%rbp), %edx
	movl	-52(%rbp), %eax
	movl	%edx, %esi
	movl	%eax, %edi
	call	odejmowanie
	movq	_TIG_iO_YKWZ_1_odejmowanie_1_opaque_ptr_1(%rip), %rdx
	movq	_TIG_iO_YKWZ_1_odejmowanie_1_opaque_ptr_2(%rip), %rax
	cmpq	%rax, %rdx
	jne	.L22
	movl	-52(%rbp), %eax
	movq	-88(%rbp), %rdx
	movq	-88(%rbp), %rcx
	movq	%rcx, %rsi
	movl	%eax, %edi
	call	main
	movl	%eax, -68(%rbp)
	jmp	.L22
.L18:
	leaq	.LC5(%rip), %rax
	movq	%rax, %rdi
	movl	$0, %eax
	call	printf@PLT
	movl	-48(%rbp), %edx
	movl	-52(%rbp), %eax
	movl	%edx, %esi
	movl	%eax, %edi
	call	dodawanie
	jmp	.L15
.L16:
	leaq	.LC6(%rip), %rax
	movq	%rax, %rdi
	movl	$0, %eax
	call	printf@PLT
	movl	-48(%rbp), %edx
	movl	-52(%rbp), %eax
	movl	%edx, %esi
	movl	%eax, %edi
	call	mnozenie
	jmp	.L15
.L14:
	leaq	.LC7(%rip), %rax
	movq	%rax, %rdi
	movl	$0, %eax
	call	printf@PLT
	movl	-48(%rbp), %edx
	movl	-52(%rbp), %eax
	movl	%edx, %esi
	movl	%eax, %edi
	call	dzielenie
	jmp	.L15
.L22:
	nop
.L15:
	movl	$0, %eax
	movq	-8(%rbp), %rdx
	subq	%fs:40, %rdx
	je	.L21
	call	__stack_chk_fail@PLT
.L21:
	leave
	.cfi_def_cfa 7, 8
	ret
	.cfi_endproc
.LFE5:
	.size	main, .-main
	.globl	odejmowanie
	.type	odejmowanie, @function
odejmowanie:
.LFB8:
	.cfi_startproc
	endbr64
	pushq	%rbp
	.cfi_def_cfa_offset 16
	.cfi_offset 6, -16
	movq	%rsp, %rbp
	.cfi_def_cfa_register 6
	subq	$64, %rsp
	movl	%edi, -52(%rbp)
	movl	%esi, -56(%rbp)
#APP
# 67 "/usr/include/x86_64-linux-gnu/bits/uintn-identity.h" 1
	##_ANNOTATION_INITIALREGION_-TIG-iO-YKWZ-1-odejmowanie--22
# 0 "" 2
# 71 "/usr/include/x86_64-linux-gnu/bits/uintn-identity.h" 1
	##_ANNOTATION_ATOMICREGION_-TIG-iO-YKWZ-1-odejmowanie--21
# 0 "" 2
#NO_APP
	movl	$24, %edi
	call	malloc@PLT
	movq	%rax, -32(%rbp)
	movq	-32(%rbp), %rax
	movq	-32(%rbp), %rdx
	movq	%rdx, (%rax)
	movq	-32(%rbp), %rax
	movq	-32(%rbp), %rdx
	movq	%rdx, 16(%rax)
	movq	-32(%rbp), %rax
	movq	%rax, _TIG_iO_YKWZ_1_odejmowanie_1_opaque_list_1(%rip)
	call	rand@PLT
	movl	%eax, -44(%rbp)
	movl	$24, %edi
	call	malloc@PLT
	movq	%rax, -24(%rbp)
	movq	-24(%rbp), %rax
	movl	$0, 8(%rax)
	movq	_TIG_iO_YKWZ_1_odejmowanie_1_opaque_list_1(%rip), %rax
	movq	(%rax), %rdx
	movq	-24(%rbp), %rax
	movq	%rdx, (%rax)
	movq	_TIG_iO_YKWZ_1_odejmowanie_1_opaque_list_1(%rip), %rdx
	movq	-24(%rbp), %rax
	movq	%rdx, 16(%rax)
	movq	_TIG_iO_YKWZ_1_odejmowanie_1_opaque_list_1(%rip), %rax
	movq	(%rax), %rax
	movq	-24(%rbp), %rdx
	movq	%rdx, 16(%rax)
	movq	_TIG_iO_YKWZ_1_odejmowanie_1_opaque_list_1(%rip), %rax
	movq	-24(%rbp), %rdx
	movq	%rdx, (%rax)
	call	rand@PLT
	movl	%eax, -40(%rbp)
	movl	$24, %edi
	call	malloc@PLT
	movq	%rax, -16(%rbp)
	movq	-16(%rbp), %rax
	movl	-40(%rbp), %edx
	movl	%edx, 8(%rax)
	movq	_TIG_iO_YKWZ_1_odejmowanie_1_opaque_list_1(%rip), %rax
	movq	(%rax), %rdx
	movq	-16(%rbp), %rax
	movq	%rdx, (%rax)
	movq	_TIG_iO_YKWZ_1_odejmowanie_1_opaque_list_1(%rip), %rdx
	movq	-16(%rbp), %rax
	movq	%rdx, 16(%rax)
	movq	_TIG_iO_YKWZ_1_odejmowanie_1_opaque_list_1(%rip), %rax
	movq	(%rax), %rax
	movq	-16(%rbp), %rdx
	movq	%rdx, 16(%rax)
	movq	_TIG_iO_YKWZ_1_odejmowanie_1_opaque_list_1(%rip), %rax
	movq	-16(%rbp), %rdx
	movq	%rdx, (%rax)
	call	rand@PLT
	movl	%eax, -36(%rbp)
	movl	$24, %edi
	call	malloc@PLT
	movq	%rax, -8(%rbp)
	movl	-36(%rbp), %eax
	leal	(%rax,%rax), %edx
	movq	-8(%rbp), %rax
	movl	%edx, 8(%rax)
	movq	_TIG_iO_YKWZ_1_odejmowanie_1_opaque_list_1(%rip), %rax
	movq	(%rax), %rdx
	movq	-8(%rbp), %rax
	movq	%rdx, (%rax)
	movq	_TIG_iO_YKWZ_1_odejmowanie_1_opaque_list_1(%rip), %rdx
	movq	-8(%rbp), %rax
	movq	%rdx, 16(%rax)
	movq	_TIG_iO_YKWZ_1_odejmowanie_1_opaque_list_1(%rip), %rax
	movq	(%rax), %rax
	movq	-8(%rbp), %rdx
	movq	%rdx, 16(%rax)
	movq	_TIG_iO_YKWZ_1_odejmowanie_1_opaque_list_1(%rip), %rax
	movq	-8(%rbp), %rdx
	movq	%rdx, (%rax)
	movq	_TIG_iO_YKWZ_1_odejmowanie_1_opaque_list_1(%rip), %rax
	movq	(%rax), %rax
	movq	%rax, _TIG_iO_YKWZ_1_odejmowanie_1_opaque_ptr_1(%rip)
	movq	_TIG_iO_YKWZ_1_odejmowanie_1_opaque_ptr_1(%rip), %rax
	movq	%rax, _TIG_iO_YKWZ_1_odejmowanie_1_opaque_ptr_2(%rip)
	movq	_TIG_iO_YKWZ_1_odejmowanie_1_opaque_ptr_2(%rip), %rax
	movq	(%rax), %rax
	movq	%rax, _TIG_iO_YKWZ_1_odejmowanie_1_opaque_ptr_2(%rip)
	nop
	nop
	movl	-52(%rbp), %eax
	subl	-56(%rbp), %eax
	movl	%eax, %esi
	leaq	.LC0(%rip), %rax
	movq	%rax, %rdi
	movl	$0, %eax
	call	printf@PLT
	movq	_TIG_iO_YKWZ_1_odejmowanie_1_opaque_ptr_1(%rip), %rdx
	movq	_TIG_iO_YKWZ_1_odejmowanie_1_opaque_ptr_2(%rip), %rax
	cmpq	%rax, %rdx
	leave
	.cfi_def_cfa 7, 8
	ret
	.cfi_endproc
.LFE8:
	.size	odejmowanie, .-odejmowanie
	.globl	dodawanie
	.type	dodawanie, @function
dodawanie:
.LFB9:
	.cfi_startproc
	endbr64
	pushq	%rbp
	.cfi_def_cfa_offset 16
	.cfi_offset 6, -16
	movq	%rsp, %rbp
	.cfi_def_cfa_register 6
	subq	$80, %rsp
	movl	%edi, -68(%rbp)
	movl	%esi, -72(%rbp)
#APP
# 28 "beobeb_UG_zad1_lab5.c" 1
	##_ANNOTATION_INITIALREGION_-TIG-iO-YKWZ-1-dodawanie--14
# 0 "" 2
# 32 "beobeb_UG_zad1_lab5.c" 1
	##_ANNOTATION_ATOMICREGION_-TIG-iO-YKWZ-1-dodawanie--13
# 0 "" 2
#NO_APP
	movl	$24, %edi
	call	malloc@PLT
	movq	%rax, -40(%rbp)
	movq	-40(%rbp), %rax
	movq	-40(%rbp), %rdx
	movq	%rdx, (%rax)
	movq	-40(%rbp), %rax
	movq	-40(%rbp), %rdx
	movq	%rdx, 8(%rax)
	movq	-40(%rbp), %rax
	movq	%rax, _TIG_iO_YKWZ_1_dodawanie_1_opaque_list_1(%rip)
	call	rand@PLT
	movl	%eax, -56(%rbp)
	movl	$24, %edi
	call	malloc@PLT
	movq	%rax, -32(%rbp)
	movq	-32(%rbp), %rax
	movl	$0, 16(%rax)
	movq	_TIG_iO_YKWZ_1_dodawanie_1_opaque_list_1(%rip), %rax
	movq	(%rax), %rdx
	movq	-32(%rbp), %rax
	movq	%rdx, (%rax)
	movq	_TIG_iO_YKWZ_1_dodawanie_1_opaque_list_1(%rip), %rdx
	movq	-32(%rbp), %rax
	movq	%rdx, 8(%rax)
	movq	_TIG_iO_YKWZ_1_dodawanie_1_opaque_list_1(%rip), %rax
	movq	(%rax), %rax
	movq	-32(%rbp), %rdx
	movq	%rdx, 8(%rax)
	movq	_TIG_iO_YKWZ_1_dodawanie_1_opaque_list_1(%rip), %rax
	movq	-32(%rbp), %rdx
	movq	%rdx, (%rax)
	call	rand@PLT
	movl	%eax, -52(%rbp)
	movl	$24, %edi
	call	malloc@PLT
	movq	%rax, -24(%rbp)
	movq	-24(%rbp), %rax
	movl	-52(%rbp), %edx
	movl	%edx, 16(%rax)
	movq	_TIG_iO_YKWZ_1_dodawanie_1_opaque_list_1(%rip), %rax
	movq	(%rax), %rdx
	movq	-24(%rbp), %rax
	movq	%rdx, (%rax)
	movq	_TIG_iO_YKWZ_1_dodawanie_1_opaque_list_1(%rip), %rdx
	movq	-24(%rbp), %rax
	movq	%rdx, 8(%rax)
	movq	_TIG_iO_YKWZ_1_dodawanie_1_opaque_list_1(%rip), %rax
	movq	(%rax), %rax
	movq	-24(%rbp), %rdx
	movq	%rdx, 8(%rax)
	movq	_TIG_iO_YKWZ_1_dodawanie_1_opaque_list_1(%rip), %rax
	movq	-24(%rbp), %rdx
	movq	%rdx, (%rax)
	call	rand@PLT
	movl	%eax, -48(%rbp)
	movl	$24, %edi
	call	malloc@PLT
	movq	%rax, -16(%rbp)
	movl	-48(%rbp), %eax
	leal	(%rax,%rax), %edx
	movq	-16(%rbp), %rax
	movl	%edx, 16(%rax)
	movq	_TIG_iO_YKWZ_1_dodawanie_1_opaque_list_1(%rip), %rax
	movq	(%rax), %rdx
	movq	-16(%rbp), %rax
	movq	%rdx, (%rax)
	movq	_TIG_iO_YKWZ_1_dodawanie_1_opaque_list_1(%rip), %rdx
	movq	-16(%rbp), %rax
	movq	%rdx, 8(%rax)
	movq	_TIG_iO_YKWZ_1_dodawanie_1_opaque_list_1(%rip), %rax
	movq	(%rax), %rax
	movq	-16(%rbp), %rdx
	movq	%rdx, 8(%rax)
	movq	_TIG_iO_YKWZ_1_dodawanie_1_opaque_list_1(%rip), %rax
	movq	-16(%rbp), %rdx
	movq	%rdx, (%rax)
	call	rand@PLT
	movl	%eax, -44(%rbp)
	movl	$24, %edi
	call	malloc@PLT
	movq	%rax, -8(%rbp)
	movl	-44(%rbp), %edx
	movl	%edx, %eax
	addl	%eax, %eax
	addl	%eax, %edx
	movq	-8(%rbp), %rax
	movl	%edx, 16(%rax)
	movq	_TIG_iO_YKWZ_1_dodawanie_1_opaque_list_1(%rip), %rax
	movq	(%rax), %rdx
	movq	-8(%rbp), %rax
	movq	%rdx, (%rax)
	movq	_TIG_iO_YKWZ_1_dodawanie_1_opaque_list_1(%rip), %rdx
	movq	-8(%rbp), %rax
	movq	%rdx, 8(%rax)
	movq	_TIG_iO_YKWZ_1_dodawanie_1_opaque_list_1(%rip), %rax
	movq	(%rax), %rax
	movq	-8(%rbp), %rdx
	movq	%rdx, 8(%rax)
	movq	_TIG_iO_YKWZ_1_dodawanie_1_opaque_list_1(%rip), %rax
	movq	-8(%rbp), %rdx
	movq	%rdx, (%rax)
	movq	_TIG_iO_YKWZ_1_dodawanie_1_opaque_list_1(%rip), %rax
	movq	(%rax), %rax
	movq	%rax, _TIG_iO_YKWZ_1_dodawanie_1_opaque_ptr_1(%rip)
	movq	_TIG_iO_YKWZ_1_dodawanie_1_opaque_ptr_1(%rip), %rax
	movq	%rax, _TIG_iO_YKWZ_1_dodawanie_1_opaque_ptr_2(%rip)
	movq	_TIG_iO_YKWZ_1_dodawanie_1_opaque_ptr_2(%rip), %rax
	movq	(%rax), %rax
	movq	%rax, _TIG_iO_YKWZ_1_dodawanie_1_opaque_ptr_2(%rip)
	nop
	nop
	movq	_TIG_iO_YKWZ_1_odejmowanie_1_opaque_ptr_1(%rip), %rdx
	movq	_TIG_iO_YKWZ_1_odejmowanie_1_opaque_ptr_2(%rip), %rax
	cmpq	%rax, %rdx
	je	.L28
	movl	-68(%rbp), %edx
	movl	-72(%rbp), %eax
	addl	%edx, %eax
	movl	%eax, %esi
	leaq	.LC0(%rip), %rax
	movq	%rax, %rdi
	movl	$0, %eax
	call	printf@PLT
	nop
.L28:
	nop
	leave
	.cfi_def_cfa 7, 8
	ret
	.cfi_endproc
.LFE9:
	.size	dodawanie, .-dodawanie
	.ident	"GCC: (Ubuntu 11.4.0-1ubuntu1~22.04) 11.4.0"
	.section	.note.GNU-stack,"",@progbits
	.section	.note.gnu.property,"a"
	.align 8
	.long	1f - 0f
	.long	4f - 1f
	.long	5
0:
	.string	"GNU"
1:
	.align 8
	.long	0xc0000002
	.long	3f - 2f
2:
	.long	0x3
3:
	.align 8
4:
