	.file	"bvernu_LCD-Calculator_main_opaque.c"
	.text
	.globl	_TIG_iO_YvhX_1_clearingtheDisplay_1_opaque_ptr_2
	.bss
	.align 8
	.type	_TIG_iO_YvhX_1_clearingtheDisplay_1_opaque_ptr_2, @object
	.size	_TIG_iO_YvhX_1_clearingtheDisplay_1_opaque_ptr_2, 8
_TIG_iO_YvhX_1_clearingtheDisplay_1_opaque_ptr_2:
	.zero	8
	.globl	_TIG_iO_YvhX_1_delay_ms_1_opaque_ptr_1
	.align 8
	.type	_TIG_iO_YvhX_1_delay_ms_1_opaque_ptr_1, @object
	.size	_TIG_iO_YvhX_1_delay_ms_1_opaque_ptr_1, 8
_TIG_iO_YvhX_1_delay_ms_1_opaque_ptr_1:
	.zero	8
	.globl	_TIG_iO_YvhX_1___bswap_64_1_opaque_ptr_1
	.align 8
	.type	_TIG_iO_YvhX_1___bswap_64_1_opaque_ptr_1, @object
	.size	_TIG_iO_YvhX_1___bswap_64_1_opaque_ptr_1, 8
_TIG_iO_YvhX_1___bswap_64_1_opaque_ptr_1:
	.zero	8
	.globl	_TIG_iO_YvhX_1_displayTopRow_1_opaque_ptr_1
	.align 8
	.type	_TIG_iO_YvhX_1_displayTopRow_1_opaque_ptr_1, @object
	.size	_TIG_iO_YvhX_1_displayTopRow_1_opaque_ptr_1, 8
_TIG_iO_YvhX_1_displayTopRow_1_opaque_ptr_1:
	.zero	8
	.globl	_TIG_iO_YvhX_1___uint64_identity_1_opaque_list_1
	.align 8
	.type	_TIG_iO_YvhX_1___uint64_identity_1_opaque_list_1, @object
	.size	_TIG_iO_YvhX_1___uint64_identity_1_opaque_list_1, 8
_TIG_iO_YvhX_1___uint64_identity_1_opaque_list_1:
	.zero	8
	.globl	_TIG_iO_YvhX_1_delay_ms_1_opaque_ptr_2
	.align 8
	.type	_TIG_iO_YvhX_1_delay_ms_1_opaque_ptr_2, @object
	.size	_TIG_iO_YvhX_1_delay_ms_1_opaque_ptr_2, 8
_TIG_iO_YvhX_1_delay_ms_1_opaque_ptr_2:
	.zero	8
	.globl	_TIG_iO_YvhX_1_Delay_1_opaque_ptr_2
	.align 8
	.type	_TIG_iO_YvhX_1_Delay_1_opaque_ptr_2, @object
	.size	_TIG_iO_YvhX_1_Delay_1_opaque_ptr_2, 8
_TIG_iO_YvhX_1_Delay_1_opaque_ptr_2:
	.zero	8
	.globl	_TIG_iO_YvhX_1_Check_Keypad_1_opaque_list_1
	.align 8
	.type	_TIG_iO_YvhX_1_Check_Keypad_1_opaque_list_1, @object
	.size	_TIG_iO_YvhX_1_Check_Keypad_1_opaque_list_1, 8
_TIG_iO_YvhX_1_Check_Keypad_1_opaque_list_1:
	.zero	8
	.globl	_TIG_iO_YvhX_1_giveanswer_1_opaque_ptr_2
	.align 8
	.type	_TIG_iO_YvhX_1_giveanswer_1_opaque_ptr_2, @object
	.size	_TIG_iO_YvhX_1_giveanswer_1_opaque_ptr_2, 8
_TIG_iO_YvhX_1_giveanswer_1_opaque_ptr_2:
	.zero	8
	.globl	_TIG_iO_YvhX_1_LCD_init_1_opaque_list_1
	.align 8
	.type	_TIG_iO_YvhX_1_LCD_init_1_opaque_list_1, @object
	.size	_TIG_iO_YvhX_1_LCD_init_1_opaque_list_1, 8
_TIG_iO_YvhX_1_LCD_init_1_opaque_list_1:
	.zero	8
	.globl	_TIG_iO_YvhX_1_resetCalculator_1_opaque_list_2
	.align 8
	.type	_TIG_iO_YvhX_1_resetCalculator_1_opaque_list_2, @object
	.size	_TIG_iO_YvhX_1_resetCalculator_1_opaque_list_2, 8
_TIG_iO_YvhX_1_resetCalculator_1_opaque_list_2:
	.zero	8
	.globl	_TIG_iO_YvhX_1_main_1_opaque_list_2
	.align 8
	.type	_TIG_iO_YvhX_1_main_1_opaque_list_2, @object
	.size	_TIG_iO_YvhX_1_main_1_opaque_list_2, 8
_TIG_iO_YvhX_1_main_1_opaque_list_2:
	.zero	8
	.globl	_TIG_iO_YvhX_1_takingInDig_1_opaque_list_2
	.align 8
	.type	_TIG_iO_YvhX_1_takingInDig_1_opaque_list_2, @object
	.size	_TIG_iO_YvhX_1_takingInDig_1_opaque_list_2, 8
_TIG_iO_YvhX_1_takingInDig_1_opaque_list_2:
	.zero	8
	.globl	_TIG_iO_YvhX_1___bswap_16_1_opaque_ptr_1
	.align 8
	.type	_TIG_iO_YvhX_1___bswap_16_1_opaque_ptr_1, @object
	.size	_TIG_iO_YvhX_1___bswap_16_1_opaque_ptr_1, 8
_TIG_iO_YvhX_1___bswap_16_1_opaque_ptr_1:
	.zero	8
	.globl	_TIG_iO_YvhX_1___bswap_32_1_opaque_list_1
	.align 8
	.type	_TIG_iO_YvhX_1___bswap_32_1_opaque_list_1, @object
	.size	_TIG_iO_YvhX_1___bswap_32_1_opaque_list_1, 8
_TIG_iO_YvhX_1___bswap_32_1_opaque_list_1:
	.zero	8
	.globl	_TIG_iO_YvhX_1_WriteToDR_1_opaque_list_1
	.align 8
	.type	_TIG_iO_YvhX_1_WriteToDR_1_opaque_list_1, @object
	.size	_TIG_iO_YvhX_1_WriteToDR_1_opaque_list_1, 8
_TIG_iO_YvhX_1_WriteToDR_1_opaque_list_1:
	.zero	8
	.globl	_TIG_iO_YvhX_1_takingInDig_1_opaque_ptr_1
	.align 8
	.type	_TIG_iO_YvhX_1_takingInDig_1_opaque_ptr_1, @object
	.size	_TIG_iO_YvhX_1_takingInDig_1_opaque_ptr_1, 8
_TIG_iO_YvhX_1_takingInDig_1_opaque_ptr_1:
	.zero	8
	.globl	_TIG_iO_YvhX_1_resetCalculator_1_opaque_ptr_2
	.align 8
	.type	_TIG_iO_YvhX_1_resetCalculator_1_opaque_ptr_2, @object
	.size	_TIG_iO_YvhX_1_resetCalculator_1_opaque_ptr_2, 8
_TIG_iO_YvhX_1_resetCalculator_1_opaque_ptr_2:
	.zero	8
	.globl	_TIG_iO_YvhX_1_giveanswer_1_opaque_ptr_1
	.align 8
	.type	_TIG_iO_YvhX_1_giveanswer_1_opaque_ptr_1, @object
	.size	_TIG_iO_YvhX_1_giveanswer_1_opaque_ptr_1, 8
_TIG_iO_YvhX_1_giveanswer_1_opaque_ptr_1:
	.zero	8
	.globl	currentState
	.align 4
	.type	currentState, @object
	.size	currentState, 4
currentState:
	.zero	4
	.globl	_TIG_iO_YvhX_1_LCD_print_1_opaque_list_1
	.align 8
	.type	_TIG_iO_YvhX_1_LCD_print_1_opaque_list_1, @object
	.size	_TIG_iO_YvhX_1_LCD_print_1_opaque_list_1, 8
_TIG_iO_YvhX_1_LCD_print_1_opaque_list_1:
	.zero	8
	.globl	_TIG_iO_YvhX_1_KeyPad_Init_1_opaque_ptr_2
	.align 8
	.type	_TIG_iO_YvhX_1_KeyPad_Init_1_opaque_ptr_2, @object
	.size	_TIG_iO_YvhX_1_KeyPad_Init_1_opaque_ptr_2, 8
_TIG_iO_YvhX_1_KeyPad_Init_1_opaque_ptr_2:
	.zero	8
	.globl	_TIG_iO_YvhX_1_displayTopRow_1_opaque_list_1
	.align 8
	.type	_TIG_iO_YvhX_1_displayTopRow_1_opaque_list_1, @object
	.size	_TIG_iO_YvhX_1_displayTopRow_1_opaque_list_1, 8
_TIG_iO_YvhX_1_displayTopRow_1_opaque_list_1:
	.zero	8
	.globl	_TIG_iO_YvhX_1___uint64_identity_1_opaque_ptr_2
	.align 8
	.type	_TIG_iO_YvhX_1___uint64_identity_1_opaque_ptr_2, @object
	.size	_TIG_iO_YvhX_1___uint64_identity_1_opaque_ptr_2, 8
_TIG_iO_YvhX_1___uint64_identity_1_opaque_ptr_2:
	.zero	8
	.globl	_TIG_iO_YvhX_1_Delay_1_opaque_list_2
	.align 8
	.type	_TIG_iO_YvhX_1_Delay_1_opaque_list_2, @object
	.size	_TIG_iO_YvhX_1_Delay_1_opaque_list_2, 8
_TIG_iO_YvhX_1_Delay_1_opaque_list_2:
	.zero	8
	.globl	_TIG_iO_YvhX_1___uint64_identity_1_opaque_list_2
	.align 8
	.type	_TIG_iO_YvhX_1___uint64_identity_1_opaque_list_2, @object
	.size	_TIG_iO_YvhX_1___uint64_identity_1_opaque_list_2, 8
_TIG_iO_YvhX_1___uint64_identity_1_opaque_list_2:
	.zero	8
	.globl	_TIG_iO_YvhX_1_LCD_init_1_opaque_ptr_2
	.align 8
	.type	_TIG_iO_YvhX_1_LCD_init_1_opaque_ptr_2, @object
	.size	_TIG_iO_YvhX_1_LCD_init_1_opaque_ptr_2, 8
_TIG_iO_YvhX_1_LCD_init_1_opaque_ptr_2:
	.zero	8
	.globl	keypad
	.align 16
	.type	keypad, @object
	.size	keypad, 16
keypad:
	.zero	16
	.globl	_TIG_iO_YvhX_1___bswap_16_1_opaque_list_1
	.align 8
	.type	_TIG_iO_YvhX_1___bswap_16_1_opaque_list_1, @object
	.size	_TIG_iO_YvhX_1___bswap_16_1_opaque_list_1, 8
_TIG_iO_YvhX_1___bswap_16_1_opaque_list_1:
	.zero	8
	.globl	_TIG_iO_YvhX_1___uint32_identity_1_opaque_ptr_2
	.align 8
	.type	_TIG_iO_YvhX_1___uint32_identity_1_opaque_ptr_2, @object
	.size	_TIG_iO_YvhX_1___uint32_identity_1_opaque_ptr_2, 8
_TIG_iO_YvhX_1___uint32_identity_1_opaque_ptr_2:
	.zero	8
	.globl	_TIG_iO_YvhX_1_displayTopRow_1_opaque_list_2
	.align 8
	.type	_TIG_iO_YvhX_1_displayTopRow_1_opaque_list_2, @object
	.size	_TIG_iO_YvhX_1_displayTopRow_1_opaque_list_2, 8
_TIG_iO_YvhX_1_displayTopRow_1_opaque_list_2:
	.zero	8
	.globl	_TIG_iO_YvhX_1_takingInDig_1_opaque_ptr_2
	.align 8
	.type	_TIG_iO_YvhX_1_takingInDig_1_opaque_ptr_2, @object
	.size	_TIG_iO_YvhX_1_takingInDig_1_opaque_ptr_2, 8
_TIG_iO_YvhX_1_takingInDig_1_opaque_ptr_2:
	.zero	8
	.globl	_TIG_IZ_YvhX_envp
	.align 8
	.type	_TIG_IZ_YvhX_envp, @object
	.size	_TIG_IZ_YvhX_envp, 8
_TIG_IZ_YvhX_envp:
	.zero	8
	.globl	_TIG_iO_YvhX_1_WriteToDR_1_opaque_list_2
	.align 8
	.type	_TIG_iO_YvhX_1_WriteToDR_1_opaque_list_2, @object
	.size	_TIG_iO_YvhX_1_WriteToDR_1_opaque_list_2, 8
_TIG_iO_YvhX_1_WriteToDR_1_opaque_list_2:
	.zero	8
	.globl	buildforA
	.type	buildforA, @object
	.size	buildforA, 1
buildforA:
	.zero	1
	.globl	_TIG_iO_YvhX_1_takingInDig_1_opaque_list_1
	.align 8
	.type	_TIG_iO_YvhX_1_takingInDig_1_opaque_list_1, @object
	.size	_TIG_iO_YvhX_1_takingInDig_1_opaque_list_1, 8
_TIG_iO_YvhX_1_takingInDig_1_opaque_list_1:
	.zero	8
	.globl	_TIG_iO_YvhX_1_changingState_1_opaque_ptr_1
	.align 8
	.type	_TIG_iO_YvhX_1_changingState_1_opaque_ptr_1, @object
	.size	_TIG_iO_YvhX_1_changingState_1_opaque_ptr_1, 8
_TIG_iO_YvhX_1_changingState_1_opaque_ptr_1:
	.zero	8
	.globl	_TIG_IZ_YvhX_argc
	.align 4
	.type	_TIG_IZ_YvhX_argc, @object
	.size	_TIG_IZ_YvhX_argc, 4
_TIG_IZ_YvhX_argc:
	.zero	4
	.globl	B
	.align 4
	.type	B, @object
	.size	B, 4
B:
	.zero	4
	.globl	_TIG_iO_YvhX_1_KeyPad_Init_1_opaque_list_1
	.align 8
	.type	_TIG_iO_YvhX_1_KeyPad_Init_1_opaque_list_1, @object
	.size	_TIG_iO_YvhX_1_KeyPad_Init_1_opaque_list_1, 8
_TIG_iO_YvhX_1_KeyPad_Init_1_opaque_list_1:
	.zero	8
	.globl	_TIG_iO_YvhX_1_LCD_init_1_opaque_ptr_1
	.align 8
	.type	_TIG_iO_YvhX_1_LCD_init_1_opaque_ptr_1, @object
	.size	_TIG_iO_YvhX_1_LCD_init_1_opaque_ptr_1, 8
_TIG_iO_YvhX_1_LCD_init_1_opaque_ptr_1:
	.zero	8
	.globl	_TIG_iO_YvhX_1_processKeypadInput_1_opaque_ptr_2
	.align 8
	.type	_TIG_iO_YvhX_1_processKeypadInput_1_opaque_ptr_2, @object
	.size	_TIG_iO_YvhX_1_processKeypadInput_1_opaque_ptr_2, 8
_TIG_iO_YvhX_1_processKeypadInput_1_opaque_ptr_2:
	.zero	8
	.globl	_TIG_iO_YvhX_1_processKeypadInput_1_opaque_ptr_1
	.align 8
	.type	_TIG_iO_YvhX_1_processKeypadInput_1_opaque_ptr_1, @object
	.size	_TIG_iO_YvhX_1_processKeypadInput_1_opaque_ptr_1, 8
_TIG_iO_YvhX_1_processKeypadInput_1_opaque_ptr_1:
	.zero	8
	.globl	_TIG_iO_YvhX_1_KeyPad_Init_1_opaque_ptr_1
	.align 8
	.type	_TIG_iO_YvhX_1_KeyPad_Init_1_opaque_ptr_1, @object
	.size	_TIG_iO_YvhX_1_KeyPad_Init_1_opaque_ptr_1, 8
_TIG_iO_YvhX_1_KeyPad_Init_1_opaque_ptr_1:
	.zero	8
	.globl	_TIG_iO_YvhX_1_WriteToDR_1_opaque_ptr_2
	.align 8
	.type	_TIG_iO_YvhX_1_WriteToDR_1_opaque_ptr_2, @object
	.size	_TIG_iO_YvhX_1_WriteToDR_1_opaque_ptr_2, 8
_TIG_iO_YvhX_1_WriteToDR_1_opaque_ptr_2:
	.zero	8
	.globl	_TIG_iO_YvhX_1_LCD_init_1_opaque_list_2
	.align 8
	.type	_TIG_iO_YvhX_1_LCD_init_1_opaque_list_2, @object
	.size	_TIG_iO_YvhX_1_LCD_init_1_opaque_list_2, 8
_TIG_iO_YvhX_1_LCD_init_1_opaque_list_2:
	.zero	8
	.globl	_TIG_iO_YvhX_1_changingState_1_opaque_list_2
	.align 8
	.type	_TIG_iO_YvhX_1_changingState_1_opaque_list_2, @object
	.size	_TIG_iO_YvhX_1_changingState_1_opaque_list_2, 8
_TIG_iO_YvhX_1_changingState_1_opaque_list_2:
	.zero	8
	.globl	_TIG_iO_YvhX_1___uint16_identity_1_opaque_ptr_2
	.align 8
	.type	_TIG_iO_YvhX_1___uint16_identity_1_opaque_ptr_2, @object
	.size	_TIG_iO_YvhX_1___uint16_identity_1_opaque_ptr_2, 8
_TIG_iO_YvhX_1___uint16_identity_1_opaque_ptr_2:
	.zero	8
	.globl	_TIG_iO_YvhX_1___bswap_64_1_opaque_ptr_2
	.align 8
	.type	_TIG_iO_YvhX_1___bswap_64_1_opaque_ptr_2, @object
	.size	_TIG_iO_YvhX_1___bswap_64_1_opaque_ptr_2, 8
_TIG_iO_YvhX_1___bswap_64_1_opaque_ptr_2:
	.zero	8
	.globl	_TIG_iO_YvhX_1___bswap_32_1_opaque_ptr_1
	.align 8
	.type	_TIG_iO_YvhX_1___bswap_32_1_opaque_ptr_1, @object
	.size	_TIG_iO_YvhX_1___bswap_32_1_opaque_ptr_1, 8
_TIG_iO_YvhX_1___bswap_32_1_opaque_ptr_1:
	.zero	8
	.globl	_TIG_iO_YvhX_1_Check_Keypad_1_opaque_ptr_2
	.align 8
	.type	_TIG_iO_YvhX_1_Check_Keypad_1_opaque_ptr_2, @object
	.size	_TIG_iO_YvhX_1_Check_Keypad_1_opaque_ptr_2, 8
_TIG_iO_YvhX_1_Check_Keypad_1_opaque_ptr_2:
	.zero	8
	.globl	_TIG_iO_YvhX_1_Check_Keypad_1_opaque_list_2
	.align 8
	.type	_TIG_iO_YvhX_1_Check_Keypad_1_opaque_list_2, @object
	.size	_TIG_iO_YvhX_1_Check_Keypad_1_opaque_list_2, 8
_TIG_iO_YvhX_1_Check_Keypad_1_opaque_list_2:
	.zero	8
	.globl	_TIG_iO_YvhX_1_delay_ms_1_opaque_list_2
	.align 8
	.type	_TIG_iO_YvhX_1_delay_ms_1_opaque_list_2, @object
	.size	_TIG_iO_YvhX_1_delay_ms_1_opaque_list_2, 8
_TIG_iO_YvhX_1_delay_ms_1_opaque_list_2:
	.zero	8
	.globl	_TIG_iO_YvhX_1_giveanswer_1_opaque_list_2
	.align 8
	.type	_TIG_iO_YvhX_1_giveanswer_1_opaque_list_2, @object
	.size	_TIG_iO_YvhX_1_giveanswer_1_opaque_list_2, 8
_TIG_iO_YvhX_1_giveanswer_1_opaque_list_2:
	.zero	8
	.globl	_TIG_iO_YvhX_1_main_1_opaque_ptr_2
	.align 8
	.type	_TIG_iO_YvhX_1_main_1_opaque_ptr_2, @object
	.size	_TIG_iO_YvhX_1_main_1_opaque_ptr_2, 8
_TIG_iO_YvhX_1_main_1_opaque_ptr_2:
	.zero	8
	.globl	_TIG_iO_YvhX_1___bswap_16_1_opaque_list_2
	.align 8
	.type	_TIG_iO_YvhX_1___bswap_16_1_opaque_list_2, @object
	.size	_TIG_iO_YvhX_1___bswap_16_1_opaque_list_2, 8
_TIG_iO_YvhX_1___bswap_16_1_opaque_list_2:
	.zero	8
	.globl	_TIG_iO_YvhX_1_changingState_1_opaque_ptr_2
	.align 8
	.type	_TIG_iO_YvhX_1_changingState_1_opaque_ptr_2, @object
	.size	_TIG_iO_YvhX_1_changingState_1_opaque_ptr_2, 8
_TIG_iO_YvhX_1_changingState_1_opaque_ptr_2:
	.zero	8
	.globl	_TIG_iO_YvhX_1___uint16_identity_1_opaque_list_1
	.align 8
	.type	_TIG_iO_YvhX_1___uint16_identity_1_opaque_list_1, @object
	.size	_TIG_iO_YvhX_1___uint16_identity_1_opaque_list_1, 8
_TIG_iO_YvhX_1___uint16_identity_1_opaque_list_1:
	.zero	8
	.globl	_TIG_iO_YvhX_1___uint32_identity_1_opaque_list_2
	.align 8
	.type	_TIG_iO_YvhX_1___uint32_identity_1_opaque_list_2, @object
	.size	_TIG_iO_YvhX_1___uint32_identity_1_opaque_list_2, 8
_TIG_iO_YvhX_1___uint32_identity_1_opaque_list_2:
	.zero	8
	.globl	A
	.align 4
	.type	A, @object
	.size	A, 4
A:
	.zero	4
	.globl	_TIG_iO_YvhX_1___bswap_64_1_opaque_list_1
	.align 8
	.type	_TIG_iO_YvhX_1___bswap_64_1_opaque_list_1, @object
	.size	_TIG_iO_YvhX_1___bswap_64_1_opaque_list_1, 8
_TIG_iO_YvhX_1___bswap_64_1_opaque_list_1:
	.zero	8
	.globl	_TIG_iO_YvhX_1_LCD_print_1_opaque_list_2
	.align 8
	.type	_TIG_iO_YvhX_1_LCD_print_1_opaque_list_2, @object
	.size	_TIG_iO_YvhX_1_LCD_print_1_opaque_list_2, 8
_TIG_iO_YvhX_1_LCD_print_1_opaque_list_2:
	.zero	8
	.globl	_TIG_iO_YvhX_1_Check_Keypad_1_opaque_ptr_1
	.align 8
	.type	_TIG_iO_YvhX_1_Check_Keypad_1_opaque_ptr_1, @object
	.size	_TIG_iO_YvhX_1_Check_Keypad_1_opaque_ptr_1, 8
_TIG_iO_YvhX_1_Check_Keypad_1_opaque_ptr_1:
	.zero	8
	.globl	_TIG_iO_YvhX_1_Delay_1_opaque_list_1
	.align 8
	.type	_TIG_iO_YvhX_1_Delay_1_opaque_list_1, @object
	.size	_TIG_iO_YvhX_1_Delay_1_opaque_list_1, 8
_TIG_iO_YvhX_1_Delay_1_opaque_list_1:
	.zero	8
	.globl	_TIG_iO_YvhX_1_clearingtheDisplay_1_opaque_ptr_1
	.align 8
	.type	_TIG_iO_YvhX_1_clearingtheDisplay_1_opaque_ptr_1, @object
	.size	_TIG_iO_YvhX_1_clearingtheDisplay_1_opaque_ptr_1, 8
_TIG_iO_YvhX_1_clearingtheDisplay_1_opaque_ptr_1:
	.zero	8
	.globl	_TIG_iO_YvhX_1_WriteToDR_1_opaque_ptr_1
	.align 8
	.type	_TIG_iO_YvhX_1_WriteToDR_1_opaque_ptr_1, @object
	.size	_TIG_iO_YvhX_1_WriteToDR_1_opaque_ptr_1, 8
_TIG_iO_YvhX_1_WriteToDR_1_opaque_ptr_1:
	.zero	8
	.globl	_TIG_iO_YvhX_1_resetCalculator_1_opaque_list_1
	.align 8
	.type	_TIG_iO_YvhX_1_resetCalculator_1_opaque_list_1, @object
	.size	_TIG_iO_YvhX_1_resetCalculator_1_opaque_list_1, 8
_TIG_iO_YvhX_1_resetCalculator_1_opaque_list_1:
	.zero	8
	.globl	_TIG_iO_YvhX_1_LCD_print_1_opaque_ptr_2
	.align 8
	.type	_TIG_iO_YvhX_1_LCD_print_1_opaque_ptr_2, @object
	.size	_TIG_iO_YvhX_1_LCD_print_1_opaque_ptr_2, 8
_TIG_iO_YvhX_1_LCD_print_1_opaque_ptr_2:
	.zero	8
	.globl	_TIG_iO_YvhX_1_processKeypadInput_1_opaque_list_1
	.align 8
	.type	_TIG_iO_YvhX_1_processKeypadInput_1_opaque_list_1, @object
	.size	_TIG_iO_YvhX_1_processKeypadInput_1_opaque_list_1, 8
_TIG_iO_YvhX_1_processKeypadInput_1_opaque_list_1:
	.zero	8
	.globl	_TIG_iO_YvhX_1___uint32_identity_1_opaque_ptr_1
	.align 8
	.type	_TIG_iO_YvhX_1___uint32_identity_1_opaque_ptr_1, @object
	.size	_TIG_iO_YvhX_1___uint32_identity_1_opaque_ptr_1, 8
_TIG_iO_YvhX_1___uint32_identity_1_opaque_ptr_1:
	.zero	8
	.globl	_TIG_iO_YvhX_1_displayTopRow_1_opaque_ptr_2
	.align 8
	.type	_TIG_iO_YvhX_1_displayTopRow_1_opaque_ptr_2, @object
	.size	_TIG_iO_YvhX_1_displayTopRow_1_opaque_ptr_2, 8
_TIG_iO_YvhX_1_displayTopRow_1_opaque_ptr_2:
	.zero	8
	.globl	_TIG_iO_YvhX_1_giveanswer_1_opaque_list_1
	.align 8
	.type	_TIG_iO_YvhX_1_giveanswer_1_opaque_list_1, @object
	.size	_TIG_iO_YvhX_1_giveanswer_1_opaque_list_1, 8
_TIG_iO_YvhX_1_giveanswer_1_opaque_list_1:
	.zero	8
	.globl	_TIG_iO_YvhX_1_WriteToIR_1_opaque_ptr_1
	.align 8
	.type	_TIG_iO_YvhX_1_WriteToIR_1_opaque_ptr_1, @object
	.size	_TIG_iO_YvhX_1_WriteToIR_1_opaque_ptr_1, 8
_TIG_iO_YvhX_1_WriteToIR_1_opaque_ptr_1:
	.zero	8
	.globl	_TIG_iO_YvhX_1___uint64_identity_1_opaque_ptr_1
	.align 8
	.type	_TIG_iO_YvhX_1___uint64_identity_1_opaque_ptr_1, @object
	.size	_TIG_iO_YvhX_1___uint64_identity_1_opaque_ptr_1, 8
_TIG_iO_YvhX_1___uint64_identity_1_opaque_ptr_1:
	.zero	8
	.globl	_TIG_iO_YvhX_1_LCD_print_1_opaque_ptr_1
	.align 8
	.type	_TIG_iO_YvhX_1_LCD_print_1_opaque_ptr_1, @object
	.size	_TIG_iO_YvhX_1_LCD_print_1_opaque_ptr_1, 8
_TIG_iO_YvhX_1_LCD_print_1_opaque_ptr_1:
	.zero	8
	.globl	_TIG_iO_YvhX_1_WriteToIR_1_opaque_list_1
	.align 8
	.type	_TIG_iO_YvhX_1_WriteToIR_1_opaque_list_1, @object
	.size	_TIG_iO_YvhX_1_WriteToIR_1_opaque_list_1, 8
_TIG_iO_YvhX_1_WriteToIR_1_opaque_list_1:
	.zero	8
	.globl	_TIG_iO_YvhX_1_processKeypadInput_1_opaque_list_2
	.align 8
	.type	_TIG_iO_YvhX_1_processKeypadInput_1_opaque_list_2, @object
	.size	_TIG_iO_YvhX_1_processKeypadInput_1_opaque_list_2, 8
_TIG_iO_YvhX_1_processKeypadInput_1_opaque_list_2:
	.zero	8
	.globl	_TIG_iO_YvhX_1_clearingtheDisplay_1_opaque_list_1
	.align 8
	.type	_TIG_iO_YvhX_1_clearingtheDisplay_1_opaque_list_1, @object
	.size	_TIG_iO_YvhX_1_clearingtheDisplay_1_opaque_list_1, 8
_TIG_iO_YvhX_1_clearingtheDisplay_1_opaque_list_1:
	.zero	8
	.globl	_TIG_iO_YvhX_1_delay_ms_1_opaque_list_1
	.align 8
	.type	_TIG_iO_YvhX_1_delay_ms_1_opaque_list_1, @object
	.size	_TIG_iO_YvhX_1_delay_ms_1_opaque_list_1, 8
_TIG_iO_YvhX_1_delay_ms_1_opaque_list_1:
	.zero	8
	.globl	_TIG_iO_YvhX_1___bswap_32_1_opaque_ptr_2
	.align 8
	.type	_TIG_iO_YvhX_1___bswap_32_1_opaque_ptr_2, @object
	.size	_TIG_iO_YvhX_1___bswap_32_1_opaque_ptr_2, 8
_TIG_iO_YvhX_1___bswap_32_1_opaque_ptr_2:
	.zero	8
	.globl	_TIG_iO_YvhX_1_Delay_1_opaque_ptr_1
	.align 8
	.type	_TIG_iO_YvhX_1_Delay_1_opaque_ptr_1, @object
	.size	_TIG_iO_YvhX_1_Delay_1_opaque_ptr_1, 8
_TIG_iO_YvhX_1_Delay_1_opaque_ptr_1:
	.zero	8
	.globl	_TIG_iO_YvhX_1_KeyPad_Init_1_opaque_list_2
	.align 8
	.type	_TIG_iO_YvhX_1_KeyPad_Init_1_opaque_list_2, @object
	.size	_TIG_iO_YvhX_1_KeyPad_Init_1_opaque_list_2, 8
_TIG_iO_YvhX_1_KeyPad_Init_1_opaque_list_2:
	.zero	8
	.globl	_TIG_iO_YvhX_1___bswap_16_1_opaque_ptr_2
	.align 8
	.type	_TIG_iO_YvhX_1___bswap_16_1_opaque_ptr_2, @object
	.size	_TIG_iO_YvhX_1___bswap_16_1_opaque_ptr_2, 8
_TIG_iO_YvhX_1___bswap_16_1_opaque_ptr_2:
	.zero	8
	.globl	_TIG_iO_YvhX_1___uint16_identity_1_opaque_ptr_1
	.align 8
	.type	_TIG_iO_YvhX_1___uint16_identity_1_opaque_ptr_1, @object
	.size	_TIG_iO_YvhX_1___uint16_identity_1_opaque_ptr_1, 8
_TIG_iO_YvhX_1___uint16_identity_1_opaque_ptr_1:
	.zero	8
	.globl	_TIG_iO_YvhX_1___uint32_identity_1_opaque_list_1
	.align 8
	.type	_TIG_iO_YvhX_1___uint32_identity_1_opaque_list_1, @object
	.size	_TIG_iO_YvhX_1___uint32_identity_1_opaque_list_1, 8
_TIG_iO_YvhX_1___uint32_identity_1_opaque_list_1:
	.zero	8
	.globl	_TIG_iO_YvhX_1_clearingtheDisplay_1_opaque_list_2
	.align 8
	.type	_TIG_iO_YvhX_1_clearingtheDisplay_1_opaque_list_2, @object
	.size	_TIG_iO_YvhX_1_clearingtheDisplay_1_opaque_list_2, 8
_TIG_iO_YvhX_1_clearingtheDisplay_1_opaque_list_2:
	.zero	8
	.globl	_TIG_iO_YvhX_1_resetCalculator_1_opaque_ptr_1
	.align 8
	.type	_TIG_iO_YvhX_1_resetCalculator_1_opaque_ptr_1, @object
	.size	_TIG_iO_YvhX_1_resetCalculator_1_opaque_ptr_1, 8
_TIG_iO_YvhX_1_resetCalculator_1_opaque_ptr_1:
	.zero	8
	.globl	_TIG_iO_YvhX_1___bswap_64_1_opaque_list_2
	.align 8
	.type	_TIG_iO_YvhX_1___bswap_64_1_opaque_list_2, @object
	.size	_TIG_iO_YvhX_1___bswap_64_1_opaque_list_2, 8
_TIG_iO_YvhX_1___bswap_64_1_opaque_list_2:
	.zero	8
	.globl	_TIG_IZ_YvhX_argv
	.align 8
	.type	_TIG_IZ_YvhX_argv, @object
	.size	_TIG_IZ_YvhX_argv, 8
_TIG_IZ_YvhX_argv:
	.zero	8
	.globl	_TIG_iO_YvhX_1_changingState_1_opaque_list_1
	.align 8
	.type	_TIG_iO_YvhX_1_changingState_1_opaque_list_1, @object
	.size	_TIG_iO_YvhX_1_changingState_1_opaque_list_1, 8
_TIG_iO_YvhX_1_changingState_1_opaque_list_1:
	.zero	8
	.globl	_TIG_iO_YvhX_1___bswap_32_1_opaque_list_2
	.align 8
	.type	_TIG_iO_YvhX_1___bswap_32_1_opaque_list_2, @object
	.size	_TIG_iO_YvhX_1___bswap_32_1_opaque_list_2, 8
_TIG_iO_YvhX_1___bswap_32_1_opaque_list_2:
	.zero	8
	.globl	_TIG_iO_YvhX_1_main_1_opaque_list_1
	.align 8
	.type	_TIG_iO_YvhX_1_main_1_opaque_list_1, @object
	.size	_TIG_iO_YvhX_1_main_1_opaque_list_1, 8
_TIG_iO_YvhX_1_main_1_opaque_list_1:
	.zero	8
	.globl	_TIG_iO_YvhX_1_main_1_opaque_ptr_1
	.align 8
	.type	_TIG_iO_YvhX_1_main_1_opaque_ptr_1, @object
	.size	_TIG_iO_YvhX_1_main_1_opaque_ptr_1, 8
_TIG_iO_YvhX_1_main_1_opaque_ptr_1:
	.zero	8
	.globl	_TIG_iO_YvhX_1_WriteToIR_1_opaque_list_2
	.align 8
	.type	_TIG_iO_YvhX_1_WriteToIR_1_opaque_list_2, @object
	.size	_TIG_iO_YvhX_1_WriteToIR_1_opaque_list_2, 8
_TIG_iO_YvhX_1_WriteToIR_1_opaque_list_2:
	.zero	8
	.globl	_TIG_iO_YvhX_1_WriteToIR_1_opaque_ptr_2
	.align 8
	.type	_TIG_iO_YvhX_1_WriteToIR_1_opaque_ptr_2, @object
	.size	_TIG_iO_YvhX_1_WriteToIR_1_opaque_ptr_2, 8
_TIG_iO_YvhX_1_WriteToIR_1_opaque_ptr_2:
	.zero	8
	.globl	_TIG_iO_YvhX_1___uint16_identity_1_opaque_list_2
	.align 8
	.type	_TIG_iO_YvhX_1___uint16_identity_1_opaque_list_2, @object
	.size	_TIG_iO_YvhX_1___uint16_identity_1_opaque_list_2, 8
_TIG_iO_YvhX_1___uint16_identity_1_opaque_list_2:
	.zero	8
	.text
	.globl	giveanswer
	.type	giveanswer, @function
giveanswer:
.LFB0:
	.cfi_startproc
	endbr64
	pushq	%rbp
	.cfi_def_cfa_offset 16
	.cfi_offset 6, -16
	movq	%rsp, %rbp
	.cfi_def_cfa_register 6
	subq	$192, %rsp
	movl	%edi, -180(%rbp)
	movq	%fs:40, %rax
	movq	%rax, -8(%rbp)
	xorl	%eax, %eax
#APP
# 82 "/usr/include/stdlib.h" 1
	##_ANNOTATION_INITIALREGION_-TIG-iO-YvhX-1-giveanswer--36
# 0 "" 2
# 86 "/usr/include/stdlib.h" 1
	##_ANNOTATION_ATOMICREGION_-TIG-iO-YvhX-1-giveanswer--35
# 0 "" 2
#NO_APP
	movl	$24, %edi
	call	malloc@PLT
	movq	%rax, -136(%rbp)
	movq	-136(%rbp), %rax
	movq	-136(%rbp), %rdx
	movq	%rdx, 8(%rax)
	movq	-136(%rbp), %rax
	movq	-136(%rbp), %rdx
	movq	%rdx, 16(%rax)
	movq	-136(%rbp), %rax
	movq	%rax, _TIG_iO_YvhX_1_giveanswer_1_opaque_list_1(%rip)
	call	rand@PLT
	movl	%eax, -144(%rbp)
	movl	$24, %edi
	call	malloc@PLT
	movq	%rax, -128(%rbp)
	movq	-128(%rbp), %rax
	movl	$0, (%rax)
	movq	_TIG_iO_YvhX_1_giveanswer_1_opaque_list_1(%rip), %rax
	movq	8(%rax), %rdx
	movq	-128(%rbp), %rax
	movq	%rdx, 8(%rax)
	movq	_TIG_iO_YvhX_1_giveanswer_1_opaque_list_1(%rip), %rdx
	movq	-128(%rbp), %rax
	movq	%rdx, 16(%rax)
	movq	_TIG_iO_YvhX_1_giveanswer_1_opaque_list_1(%rip), %rax
	movq	8(%rax), %rax
	movq	-128(%rbp), %rdx
	movq	%rdx, 16(%rax)
	movq	_TIG_iO_YvhX_1_giveanswer_1_opaque_list_1(%rip), %rax
	movq	-128(%rbp), %rdx
	movq	%rdx, 8(%rax)
	call	rand@PLT
	movl	%eax, -140(%rbp)
	movl	$24, %edi
	call	malloc@PLT
	movq	%rax, -120(%rbp)
	movq	-120(%rbp), %rax
	movl	-140(%rbp), %edx
	movl	%edx, (%rax)
	movq	_TIG_iO_YvhX_1_giveanswer_1_opaque_list_1(%rip), %rax
	movq	8(%rax), %rdx
	movq	-120(%rbp), %rax
	movq	%rdx, 8(%rax)
	movq	_TIG_iO_YvhX_1_giveanswer_1_opaque_list_1(%rip), %rdx
	movq	-120(%rbp), %rax
	movq	%rdx, 16(%rax)
	movq	_TIG_iO_YvhX_1_giveanswer_1_opaque_list_1(%rip), %rax
	movq	8(%rax), %rax
	movq	-120(%rbp), %rdx
	movq	%rdx, 16(%rax)
	movq	_TIG_iO_YvhX_1_giveanswer_1_opaque_list_1(%rip), %rax
	movq	-120(%rbp), %rdx
	movq	%rdx, 8(%rax)
	movq	_TIG_iO_YvhX_1_giveanswer_1_opaque_list_1(%rip), %rax
	movq	8(%rax), %rax
	movq	%rax, _TIG_iO_YvhX_1_giveanswer_1_opaque_ptr_1(%rip)
	movq	_TIG_iO_YvhX_1_giveanswer_1_opaque_ptr_1(%rip), %rax
	movq	%rax, _TIG_iO_YvhX_1_giveanswer_1_opaque_ptr_2(%rip)
	nop
	nop
	call	clearingtheDisplay
	movl	$192, %edi
	call	WriteToIR
	movl	$1, -164(%rbp)
	movl	-180(%rbp), %eax
	movl	%eax, -160(%rbp)
.L6:
	movl	-160(%rbp), %eax
	movl	%eax, %edx
	movl	$3435973837, %eax
	imulq	%rdx, %rax
	shrq	$32, %rax
	shrl	$3, %eax
	movl	%eax, -160(%rbp)
	cmpl	$0, -160(%rbp)
	je	.L16
	movq	_TIG_iO_YvhX_1_takingInDig_1_opaque_ptr_1(%rip), %rdx
	movq	_TIG_iO_YvhX_1_takingInDig_1_opaque_ptr_2(%rip), %rax
	cmpq	%rax, %rdx
	je	.L4
	addl	$1, -164(%rbp)
	jmp	.L6
.L4:
	movl	-164(%rbp), %eax
	leal	1(%rax), %edx
	movl	-140(%rbp), %eax
	addl	%edx, %eax
	movl	%eax, -164(%rbp)
	jmp	.L6
.L16:
	nop
	movl	$0, -156(%rbp)
	jmp	.L7
.L8:
	movl	-156(%rbp), %eax
	cltq
	movb	$48, -112(%rbp,%rax)
	addl	$1, -156(%rbp)
.L7:
	cmpl	$15, -156(%rbp)
	jle	.L8
	movl	-164(%rbp), %eax
	subl	$1, %eax
	movl	%eax, -152(%rbp)
	jmp	.L9
.L10:
	movl	-180(%rbp), %ecx
	movl	%ecx, %edx
	movl	$3435973837, %eax
	imulq	%rdx, %rax
	shrq	$32, %rax
	movl	%eax, %edx
	shrl	$3, %edx
	movl	%edx, %eax
	sall	$2, %eax
	addl	%edx, %eax
	addl	%eax, %eax
	subl	%eax, %ecx
	movl	%ecx, %edx
	movl	%edx, %eax
	addl	$48, %eax
	movl	%eax, %edx
	movl	-152(%rbp), %eax
	cltq
	movb	%dl, -112(%rbp,%rax)
	movl	-180(%rbp), %eax
	movl	%eax, %edx
	movl	$3435973837, %eax
	imulq	%rdx, %rax
	shrq	$32, %rax
	shrl	$3, %eax
	movl	%eax, -180(%rbp)
	subl	$1, -152(%rbp)
.L9:
	cmpl	$0, -152(%rbp)
	jns	.L10
	movl	-164(%rbp), %eax
	cltq
	movb	$0, -112(%rbp,%rax)
	movl	$0, -148(%rbp)
	jmp	.L11
.L12:
	movl	-148(%rbp), %eax
	cltq
	movzbl	-112(%rbp,%rax), %eax
	movsbl	%al, %eax
	movl	%eax, %edi
	call	LCD_print
	addl	$1, -148(%rbp)
.L11:
	movl	-148(%rbp), %eax
	cltq
	movzbl	-112(%rbp,%rax), %eax
	testb	%al, %al
	jne	.L12
	movl	$5000000, %edi
	call	Delay
	nop
	movq	-8(%rbp), %rax
	subq	%fs:40, %rax
	je	.L14
	call	__stack_chk_fail@PLT
.L14:
	leave
	.cfi_def_cfa 7, 8
	ret
	.cfi_endproc
.LFE0:
	.size	giveanswer, .-giveanswer
	.globl	main
	.type	main, @function
main:
.LFB1:
	.cfi_startproc
	endbr64
	pushq	%rbp
	.cfi_def_cfa_offset 16
	.cfi_offset 6, -16
	movq	%rsp, %rbp
	.cfi_def_cfa_register 6
	subq	$80, %rsp
	movl	%edi, -52(%rbp)
	movq	%rsi, -64(%rbp)
	movq	%rdx, -72(%rbp)
	movb	$1, buildforA(%rip)
	nop
.L18:
	movl	$0, B(%rip)
	nop
.L19:
	movl	$0, A(%rip)
	nop
.L20:
	movl	$0, currentState(%rip)
	nop
.L21:
	movb	$49, keypad(%rip)
	movb	$50, 1+keypad(%rip)
	movb	$51, 2+keypad(%rip)
	movb	$65, 3+keypad(%rip)
	movb	$52, 4+keypad(%rip)
	movb	$53, 5+keypad(%rip)
	movb	$54, 6+keypad(%rip)
	movb	$66, 7+keypad(%rip)
	movb	$55, 8+keypad(%rip)
	movb	$56, 9+keypad(%rip)
	movb	$57, 10+keypad(%rip)
	movb	$67, 11+keypad(%rip)
	movb	$42, 12+keypad(%rip)
	movb	$48, 13+keypad(%rip)
	movb	$35, 14+keypad(%rip)
	movb	$68, 15+keypad(%rip)
	nop
.L22:
	movq	$0, _TIG_IZ_YvhX_envp(%rip)
	nop
.L23:
	movq	$0, _TIG_IZ_YvhX_argv(%rip)
	nop
.L24:
	movl	$0, _TIG_IZ_YvhX_argc(%rip)
	nop
	nop
.L25:
.L26:
#APP
# 278 "bvernu_LCD-Calculator_main.c" 1
	##_ANNOTATION_INITIALREGION_-TIG-IZ-YvhX--0
# 0 "" 2
#NO_APP
	movl	-52(%rbp), %eax
	movl	%eax, _TIG_IZ_YvhX_argc(%rip)
	movq	-64(%rbp), %rax
	movq	%rax, _TIG_IZ_YvhX_argv(%rip)
	movq	-72(%rbp), %rax
	movq	%rax, _TIG_IZ_YvhX_envp(%rip)
#APP
# 285 "bvernu_LCD-Calculator_main.c" 1
	##_ANNOTATION_ATOMICREGION_-TIG-iO-YvhX-1-main--37
# 0 "" 2
#NO_APP
	movl	$24, %edi
	call	malloc@PLT
	movq	%rax, -24(%rbp)
	movq	-24(%rbp), %rax
	movq	-24(%rbp), %rdx
	movq	%rdx, (%rax)
	movq	-24(%rbp), %rax
	movq	-24(%rbp), %rdx
	movq	%rdx, 16(%rax)
	movq	-24(%rbp), %rax
	movq	%rax, _TIG_iO_YvhX_1_main_1_opaque_list_1(%rip)
	call	rand@PLT
	movl	%eax, -32(%rbp)
	movl	$24, %edi
	call	malloc@PLT
	movq	%rax, -16(%rbp)
	movq	-16(%rbp), %rax
	movl	$0, 8(%rax)
	movq	_TIG_iO_YvhX_1_main_1_opaque_list_1(%rip), %rax
	movq	(%rax), %rdx
	movq	-16(%rbp), %rax
	movq	%rdx, (%rax)
	movq	_TIG_iO_YvhX_1_main_1_opaque_list_1(%rip), %rdx
	movq	-16(%rbp), %rax
	movq	%rdx, 16(%rax)
	movq	_TIG_iO_YvhX_1_main_1_opaque_list_1(%rip), %rax
	movq	(%rax), %rax
	movq	-16(%rbp), %rdx
	movq	%rdx, 16(%rax)
	movq	_TIG_iO_YvhX_1_main_1_opaque_list_1(%rip), %rax
	movq	-16(%rbp), %rdx
	movq	%rdx, (%rax)
	call	rand@PLT
	movl	%eax, -28(%rbp)
	movl	$24, %edi
	call	malloc@PLT
	movq	%rax, -8(%rbp)
	movq	-8(%rbp), %rax
	movl	-28(%rbp), %edx
	movl	%edx, 8(%rax)
	movq	_TIG_iO_YvhX_1_main_1_opaque_list_1(%rip), %rax
	movq	(%rax), %rdx
	movq	-8(%rbp), %rax
	movq	%rdx, (%rax)
	movq	_TIG_iO_YvhX_1_main_1_opaque_list_1(%rip), %rdx
	movq	-8(%rbp), %rax
	movq	%rdx, 16(%rax)
	movq	_TIG_iO_YvhX_1_main_1_opaque_list_1(%rip), %rax
	movq	(%rax), %rax
	movq	-8(%rbp), %rdx
	movq	%rdx, 16(%rax)
	movq	_TIG_iO_YvhX_1_main_1_opaque_list_1(%rip), %rax
	movq	-8(%rbp), %rdx
	movq	%rdx, (%rax)
	movq	_TIG_iO_YvhX_1_main_1_opaque_list_1(%rip), %rax
	movq	(%rax), %rax
	movq	%rax, _TIG_iO_YvhX_1_main_1_opaque_ptr_1(%rip)
	movq	_TIG_iO_YvhX_1_main_1_opaque_ptr_1(%rip), %rax
	movq	%rax, _TIG_iO_YvhX_1_main_1_opaque_ptr_2(%rip)
	movq	_TIG_iO_YvhX_1_main_1_opaque_ptr_2(%rip), %rax
	movq	(%rax), %rax
	movq	%rax, _TIG_iO_YvhX_1_main_1_opaque_ptr_2(%rip)
	nop
	nop
	call	LCD_init
	call	KeyPad_Init
.L29:
	call	Check_Keypad
	movb	%al, -34(%rbp)
	movzbl	-34(%rbp), %eax
	movb	%al, -33(%rbp)
	movq	_TIG_iO_YvhX_1_takingInDig_1_opaque_ptr_1(%rip), %rdx
	movq	_TIG_iO_YvhX_1_takingInDig_1_opaque_ptr_2(%rip), %rax
	cmpq	%rax, %rdx
	jne	.L27
	call	clearingtheDisplay
.L27:
	cmpb	$0, -33(%rbp)
	je	.L29
	movsbl	-33(%rbp), %eax
	movl	%eax, %edi
	call	processKeypadInput
	jmp	.L29
	.cfi_endproc
.LFE1:
	.size	main, .-main
	.globl	clearingtheDisplay
	.type	clearingtheDisplay, @function
clearingtheDisplay:
.LFB2:
	.cfi_startproc
	endbr64
	pushq	%rbp
	.cfi_def_cfa_offset 16
	.cfi_offset 6, -16
	movq	%rsp, %rbp
	.cfi_def_cfa_register 6
	subq	$64, %rsp
#APP
# 265 "bvernu_LCD-Calculator_main.c" 1
	##_ANNOTATION_INITIALREGION_-TIG-iO-YvhX-1-clearingtheDisplay--30
# 0 "" 2
# 269 "bvernu_LCD-Calculator_main.c" 1
	##_ANNOTATION_ATOMICREGION_-TIG-iO-YvhX-1-clearingtheDisplay--29
# 0 "" 2
#NO_APP
	movl	$24, %edi
	call	malloc@PLT
	movq	%rax, -40(%rbp)
	movq	-40(%rbp), %rax
	movq	-40(%rbp), %rdx
	movq	%rdx, 8(%rax)
	movq	-40(%rbp), %rax
	movq	-40(%rbp), %rdx
	movq	%rdx, (%rax)
	movq	-40(%rbp), %rax
	movq	%rax, _TIG_iO_YvhX_1_clearingtheDisplay_1_opaque_list_1(%rip)
	call	rand@PLT
	movl	%eax, -56(%rbp)
	movl	$24, %edi
	call	malloc@PLT
	movq	%rax, -32(%rbp)
	movq	-32(%rbp), %rax
	movl	$0, 16(%rax)
	movq	_TIG_iO_YvhX_1_clearingtheDisplay_1_opaque_list_1(%rip), %rax
	movq	8(%rax), %rdx
	movq	-32(%rbp), %rax
	movq	%rdx, 8(%rax)
	movq	_TIG_iO_YvhX_1_clearingtheDisplay_1_opaque_list_1(%rip), %rdx
	movq	-32(%rbp), %rax
	movq	%rdx, (%rax)
	movq	_TIG_iO_YvhX_1_clearingtheDisplay_1_opaque_list_1(%rip), %rax
	movq	8(%rax), %rax
	movq	-32(%rbp), %rdx
	movq	%rdx, (%rax)
	movq	_TIG_iO_YvhX_1_clearingtheDisplay_1_opaque_list_1(%rip), %rax
	movq	-32(%rbp), %rdx
	movq	%rdx, 8(%rax)
	call	rand@PLT
	movl	%eax, -52(%rbp)
	movl	$24, %edi
	call	malloc@PLT
	movq	%rax, -24(%rbp)
	movq	-24(%rbp), %rax
	movl	-52(%rbp), %edx
	movl	%edx, 16(%rax)
	movq	_TIG_iO_YvhX_1_clearingtheDisplay_1_opaque_list_1(%rip), %rax
	movq	8(%rax), %rdx
	movq	-24(%rbp), %rax
	movq	%rdx, 8(%rax)
	movq	_TIG_iO_YvhX_1_clearingtheDisplay_1_opaque_list_1(%rip), %rdx
	movq	-24(%rbp), %rax
	movq	%rdx, (%rax)
	movq	_TIG_iO_YvhX_1_clearingtheDisplay_1_opaque_list_1(%rip), %rax
	movq	8(%rax), %rax
	movq	-24(%rbp), %rdx
	movq	%rdx, (%rax)
	movq	_TIG_iO_YvhX_1_clearingtheDisplay_1_opaque_list_1(%rip), %rax
	movq	-24(%rbp), %rdx
	movq	%rdx, 8(%rax)
	call	rand@PLT
	movl	%eax, -48(%rbp)
	movl	$24, %edi
	call	malloc@PLT
	movq	%rax, -16(%rbp)
	movl	-48(%rbp), %eax
	leal	(%rax,%rax), %edx
	movq	-16(%rbp), %rax
	movl	%edx, 16(%rax)
	movq	_TIG_iO_YvhX_1_clearingtheDisplay_1_opaque_list_1(%rip), %rax
	movq	8(%rax), %rdx
	movq	-16(%rbp), %rax
	movq	%rdx, 8(%rax)
	movq	_TIG_iO_YvhX_1_clearingtheDisplay_1_opaque_list_1(%rip), %rdx
	movq	-16(%rbp), %rax
	movq	%rdx, (%rax)
	movq	_TIG_iO_YvhX_1_clearingtheDisplay_1_opaque_list_1(%rip), %rax
	movq	8(%rax), %rax
	movq	-16(%rbp), %rdx
	movq	%rdx, (%rax)
	movq	_TIG_iO_YvhX_1_clearingtheDisplay_1_opaque_list_1(%rip), %rax
	movq	-16(%rbp), %rdx
	movq	%rdx, 8(%rax)
	call	rand@PLT
	movl	%eax, -44(%rbp)
	movl	$24, %edi
	call	malloc@PLT
	movq	%rax, -8(%rbp)
	movl	-44(%rbp), %edx
	movl	%edx, %eax
	addl	%eax, %eax
	addl	%eax, %edx
	movq	-8(%rbp), %rax
	movl	%edx, 16(%rax)
	movq	_TIG_iO_YvhX_1_clearingtheDisplay_1_opaque_list_1(%rip), %rax
	movq	8(%rax), %rdx
	movq	-8(%rbp), %rax
	movq	%rdx, 8(%rax)
	movq	_TIG_iO_YvhX_1_clearingtheDisplay_1_opaque_list_1(%rip), %rdx
	movq	-8(%rbp), %rax
	movq	%rdx, (%rax)
	movq	_TIG_iO_YvhX_1_clearingtheDisplay_1_opaque_list_1(%rip), %rax
	movq	8(%rax), %rax
	movq	-8(%rbp), %rdx
	movq	%rdx, (%rax)
	movq	_TIG_iO_YvhX_1_clearingtheDisplay_1_opaque_list_1(%rip), %rax
	movq	-8(%rbp), %rdx
	movq	%rdx, 8(%rax)
	movq	_TIG_iO_YvhX_1_clearingtheDisplay_1_opaque_list_1(%rip), %rax
	movq	8(%rax), %rax
	movq	%rax, _TIG_iO_YvhX_1_clearingtheDisplay_1_opaque_ptr_1(%rip)
	movq	_TIG_iO_YvhX_1_clearingtheDisplay_1_opaque_ptr_1(%rip), %rax
	movq	%rax, _TIG_iO_YvhX_1_clearingtheDisplay_1_opaque_ptr_2(%rip)
	movq	_TIG_iO_YvhX_1_clearingtheDisplay_1_opaque_ptr_2(%rip), %rax
	movq	8(%rax), %rax
	movq	%rax, _TIG_iO_YvhX_1_clearingtheDisplay_1_opaque_ptr_2(%rip)
	nop
	nop
	movl	$1, %edi
	call	WriteToIR
	movl	$2, %edi
	call	delay_ms
	movq	_TIG_iO_YvhX_1_takingInDig_1_opaque_ptr_1(%rip), %rdx
	movq	_TIG_iO_YvhX_1_takingInDig_1_opaque_ptr_2(%rip), %rax
	cmpq	%rax, %rdx
	nop
	leave
	.cfi_def_cfa 7, 8
	ret
	.cfi_endproc
.LFE2:
	.size	clearingtheDisplay, .-clearingtheDisplay
	.globl	processKeypadInput
	.type	processKeypadInput, @function
processKeypadInput:
.LFB3:
	.cfi_startproc
	endbr64
	pushq	%rbp
	.cfi_def_cfa_offset 16
	.cfi_offset 6, -16
	movq	%rsp, %rbp
	.cfi_def_cfa_register 6
	subq	$48, %rsp
	movl	%edi, %eax
	movb	%al, -36(%rbp)
#APP
# 149 "bvernu_LCD-Calculator_main.c" 1
	##_ANNOTATION_INITIALREGION_-TIG-iO-YvhX-1-processKeypadInput--40
# 0 "" 2
# 153 "bvernu_LCD-Calculator_main.c" 1
	##_ANNOTATION_ATOMICREGION_-TIG-iO-YvhX-1-processKeypadInput--39
# 0 "" 2
#NO_APP
	movl	$24, %edi
	call	malloc@PLT
	movq	%rax, -24(%rbp)
	movq	-24(%rbp), %rax
	movq	-24(%rbp), %rdx
	movq	%rdx, 16(%rax)
	movq	-24(%rbp), %rax
	movq	-24(%rbp), %rdx
	movq	%rdx, 8(%rax)
	movq	-24(%rbp), %rax
	movq	%rax, _TIG_iO_YvhX_1_processKeypadInput_1_opaque_list_1(%rip)
	call	rand@PLT
	movl	%eax, -32(%rbp)
	movl	$24, %edi
	call	malloc@PLT
	movq	%rax, -16(%rbp)
	movq	-16(%rbp), %rax
	movl	$0, (%rax)
	movq	_TIG_iO_YvhX_1_processKeypadInput_1_opaque_list_1(%rip), %rax
	movq	16(%rax), %rdx
	movq	-16(%rbp), %rax
	movq	%rdx, 16(%rax)
	movq	_TIG_iO_YvhX_1_processKeypadInput_1_opaque_list_1(%rip), %rdx
	movq	-16(%rbp), %rax
	movq	%rdx, 8(%rax)
	movq	_TIG_iO_YvhX_1_processKeypadInput_1_opaque_list_1(%rip), %rax
	movq	16(%rax), %rax
	movq	-16(%rbp), %rdx
	movq	%rdx, 8(%rax)
	movq	_TIG_iO_YvhX_1_processKeypadInput_1_opaque_list_1(%rip), %rax
	movq	-16(%rbp), %rdx
	movq	%rdx, 16(%rax)
	call	rand@PLT
	movl	%eax, -28(%rbp)
	movl	$24, %edi
	call	malloc@PLT
	movq	%rax, -8(%rbp)
	movq	-8(%rbp), %rax
	movl	-28(%rbp), %edx
	movl	%edx, (%rax)
	movq	_TIG_iO_YvhX_1_processKeypadInput_1_opaque_list_1(%rip), %rax
	movq	16(%rax), %rdx
	movq	-8(%rbp), %rax
	movq	%rdx, 16(%rax)
	movq	_TIG_iO_YvhX_1_processKeypadInput_1_opaque_list_1(%rip), %rdx
	movq	-8(%rbp), %rax
	movq	%rdx, 8(%rax)
	movq	_TIG_iO_YvhX_1_processKeypadInput_1_opaque_list_1(%rip), %rax
	movq	16(%rax), %rax
	movq	-8(%rbp), %rdx
	movq	%rdx, 8(%rax)
	movq	_TIG_iO_YvhX_1_processKeypadInput_1_opaque_list_1(%rip), %rax
	movq	-8(%rbp), %rdx
	movq	%rdx, 16(%rax)
	movq	_TIG_iO_YvhX_1_processKeypadInput_1_opaque_list_1(%rip), %rax
	movq	16(%rax), %rax
	movq	%rax, _TIG_iO_YvhX_1_processKeypadInput_1_opaque_ptr_1(%rip)
	movq	_TIG_iO_YvhX_1_processKeypadInput_1_opaque_ptr_1(%rip), %rax
	movq	%rax, _TIG_iO_YvhX_1_processKeypadInput_1_opaque_ptr_2(%rip)
	nop
	nop
	movsbl	-36(%rbp), %eax
	cmpl	$67, %eax
	je	.L34
	cmpl	$67, %eax
	jg	.L35
	cmpl	$35, %eax
	je	.L36
	cmpl	$42, %eax
	je	.L37
	jmp	.L35
.L34:
	movl	$0, %edi
	call	changingState
	jmp	.L38
.L37:
	movl	$2, %edi
	call	changingState
	jmp	.L38
.L36:
	movl	$3, %edi
	call	changingState
	jmp	.L38
.L35:
	cmpb	$47, -36(%rbp)
	jle	.L42
	cmpb	$57, -36(%rbp)
	jg	.L42
	movq	_TIG_iO_YvhX_1_takingInDig_1_opaque_ptr_1(%rip), %rdx
	movq	_TIG_iO_YvhX_1_takingInDig_1_opaque_ptr_2(%rip), %rax
	cmpq	%rax, %rdx
	jne	.L40
	movl	-32(%rbp), %eax
	movl	%eax, %edi
	call	Delay
.L40:
	movsbl	-36(%rbp), %eax
	movl	%eax, %edi
	call	takingInDig
.L42:
	nop
.L38:
	nop
	leave
	.cfi_def_cfa 7, 8
	ret
	.cfi_endproc
.LFE3:
	.size	processKeypadInput, .-processKeypadInput
	.globl	LCD_print
	.type	LCD_print, @function
LCD_print:
.LFB4:
	.cfi_startproc
	endbr64
	pushq	%rbp
	.cfi_def_cfa_offset 16
	.cfi_offset 6, -16
	movq	%rsp, %rbp
	.cfi_def_cfa_register 6
	subq	$80, %rsp
	movl	%edi, %eax
	movb	%al, -68(%rbp)
#APP
# 253 "bvernu_LCD-Calculator_main.c" 1
	##_ANNOTATION_INITIALREGION_-TIG-iO-YvhX-1-LCD-print--10
# 0 "" 2
# 257 "bvernu_LCD-Calculator_main.c" 1
	##_ANNOTATION_ATOMICREGION_-TIG-iO-YvhX-1-LCD-print--9
# 0 "" 2
#NO_APP
	movl	$24, %edi
	call	malloc@PLT
	movq	%rax, -40(%rbp)
	movq	-40(%rbp), %rax
	movq	-40(%rbp), %rdx
	movq	%rdx, (%rax)
	movq	-40(%rbp), %rax
	movq	-40(%rbp), %rdx
	movq	%rdx, 16(%rax)
	movq	-40(%rbp), %rax
	movq	%rax, _TIG_iO_YvhX_1_LCD_print_1_opaque_list_1(%rip)
	call	rand@PLT
	movl	%eax, -56(%rbp)
	movl	$24, %edi
	call	malloc@PLT
	movq	%rax, -32(%rbp)
	movq	-32(%rbp), %rax
	movl	$0, 8(%rax)
	movq	_TIG_iO_YvhX_1_LCD_print_1_opaque_list_1(%rip), %rax
	movq	(%rax), %rdx
	movq	-32(%rbp), %rax
	movq	%rdx, (%rax)
	movq	_TIG_iO_YvhX_1_LCD_print_1_opaque_list_1(%rip), %rdx
	movq	-32(%rbp), %rax
	movq	%rdx, 16(%rax)
	movq	_TIG_iO_YvhX_1_LCD_print_1_opaque_list_1(%rip), %rax
	movq	(%rax), %rax
	movq	-32(%rbp), %rdx
	movq	%rdx, 16(%rax)
	movq	_TIG_iO_YvhX_1_LCD_print_1_opaque_list_1(%rip), %rax
	movq	-32(%rbp), %rdx
	movq	%rdx, (%rax)
	call	rand@PLT
	movl	%eax, -52(%rbp)
	movl	$24, %edi
	call	malloc@PLT
	movq	%rax, -24(%rbp)
	movq	-24(%rbp), %rax
	movl	-52(%rbp), %edx
	movl	%edx, 8(%rax)
	movq	_TIG_iO_YvhX_1_LCD_print_1_opaque_list_1(%rip), %rax
	movq	(%rax), %rdx
	movq	-24(%rbp), %rax
	movq	%rdx, (%rax)
	movq	_TIG_iO_YvhX_1_LCD_print_1_opaque_list_1(%rip), %rdx
	movq	-24(%rbp), %rax
	movq	%rdx, 16(%rax)
	movq	_TIG_iO_YvhX_1_LCD_print_1_opaque_list_1(%rip), %rax
	movq	(%rax), %rax
	movq	-24(%rbp), %rdx
	movq	%rdx, 16(%rax)
	movq	_TIG_iO_YvhX_1_LCD_print_1_opaque_list_1(%rip), %rax
	movq	-24(%rbp), %rdx
	movq	%rdx, (%rax)
	call	rand@PLT
	movl	%eax, -48(%rbp)
	movl	$24, %edi
	call	malloc@PLT
	movq	%rax, -16(%rbp)
	movl	-48(%rbp), %eax
	leal	(%rax,%rax), %edx
	movq	-16(%rbp), %rax
	movl	%edx, 8(%rax)
	movq	_TIG_iO_YvhX_1_LCD_print_1_opaque_list_1(%rip), %rax
	movq	(%rax), %rdx
	movq	-16(%rbp), %rax
	movq	%rdx, (%rax)
	movq	_TIG_iO_YvhX_1_LCD_print_1_opaque_list_1(%rip), %rdx
	movq	-16(%rbp), %rax
	movq	%rdx, 16(%rax)
	movq	_TIG_iO_YvhX_1_LCD_print_1_opaque_list_1(%rip), %rax
	movq	(%rax), %rax
	movq	-16(%rbp), %rdx
	movq	%rdx, 16(%rax)
	movq	_TIG_iO_YvhX_1_LCD_print_1_opaque_list_1(%rip), %rax
	movq	-16(%rbp), %rdx
	movq	%rdx, (%rax)
	call	rand@PLT
	movl	%eax, -44(%rbp)
	movl	$24, %edi
	call	malloc@PLT
	movq	%rax, -8(%rbp)
	movl	-44(%rbp), %edx
	movl	%edx, %eax
	addl	%eax, %eax
	addl	%eax, %edx
	movq	-8(%rbp), %rax
	movl	%edx, 8(%rax)
	movq	_TIG_iO_YvhX_1_LCD_print_1_opaque_list_1(%rip), %rax
	movq	(%rax), %rdx
	movq	-8(%rbp), %rax
	movq	%rdx, (%rax)
	movq	_TIG_iO_YvhX_1_LCD_print_1_opaque_list_1(%rip), %rdx
	movq	-8(%rbp), %rax
	movq	%rdx, 16(%rax)
	movq	_TIG_iO_YvhX_1_LCD_print_1_opaque_list_1(%rip), %rax
	movq	(%rax), %rax
	movq	-8(%rbp), %rdx
	movq	%rdx, 16(%rax)
	movq	_TIG_iO_YvhX_1_LCD_print_1_opaque_list_1(%rip), %rax
	movq	-8(%rbp), %rdx
	movq	%rdx, (%rax)
	movq	_TIG_iO_YvhX_1_LCD_print_1_opaque_list_1(%rip), %rax
	movq	(%rax), %rax
	movq	%rax, _TIG_iO_YvhX_1_LCD_print_1_opaque_ptr_1(%rip)
	movq	_TIG_iO_YvhX_1_LCD_print_1_opaque_ptr_1(%rip), %rax
	movq	%rax, _TIG_iO_YvhX_1_LCD_print_1_opaque_ptr_2(%rip)
	nop
	nop
	movq	_TIG_iO_YvhX_1_takingInDig_1_opaque_ptr_1(%rip), %rdx
	movq	_TIG_iO_YvhX_1_takingInDig_1_opaque_ptr_2(%rip), %rax
	cmpq	%rax, %rdx
	jne	.L44
#APP
# 300 "bvernu_LCD-Calculator_main.c" 1
	.byte 0xe9,0x0,0xfc,0xdd,0x9b,0x15,0x2a,0xe4
# 0 "" 2
#NO_APP
	jmp	.L47
.L44:
	cmpb	$0, -68(%rbp)
	je	.L47
	movsbl	-68(%rbp), %eax
	movl	%eax, %edi
	call	WriteToDR
	nop
.L47:
	nop
	leave
	.cfi_def_cfa 7, 8
	ret
	.cfi_endproc
.LFE4:
	.size	LCD_print, .-LCD_print
	.globl	WriteToIR
	.type	WriteToIR, @function
WriteToIR:
.LFB5:
	.cfi_startproc
	endbr64
	pushq	%rbp
	.cfi_def_cfa_offset 16
	.cfi_offset 6, -16
	movq	%rsp, %rbp
	.cfi_def_cfa_register 6
	subq	$80, %rsp
	movl	%edi, %eax
	movb	%al, -68(%rbp)
#APP
# 112 "bvernu_LCD-Calculator_main.c" 1
	##_ANNOTATION_INITIALREGION_-TIG-iO-YvhX-1-WriteToIR--14
# 0 "" 2
# 116 "bvernu_LCD-Calculator_main.c" 1
	##_ANNOTATION_ATOMICREGION_-TIG-iO-YvhX-1-WriteToIR--13
# 0 "" 2
#NO_APP
	movl	$24, %edi
	call	malloc@PLT
	movq	%rax, -40(%rbp)
	movq	-40(%rbp), %rax
	movq	-40(%rbp), %rdx
	movq	%rdx, (%rax)
	movq	-40(%rbp), %rax
	movq	-40(%rbp), %rdx
	movq	%rdx, 8(%rax)
	movq	-40(%rbp), %rax
	movq	%rax, _TIG_iO_YvhX_1_WriteToIR_1_opaque_list_1(%rip)
	call	rand@PLT
	movl	%eax, -56(%rbp)
	movl	$24, %edi
	call	malloc@PLT
	movq	%rax, -32(%rbp)
	movq	-32(%rbp), %rax
	movl	$0, 16(%rax)
	movq	_TIG_iO_YvhX_1_WriteToIR_1_opaque_list_1(%rip), %rax
	movq	(%rax), %rdx
	movq	-32(%rbp), %rax
	movq	%rdx, (%rax)
	movq	_TIG_iO_YvhX_1_WriteToIR_1_opaque_list_1(%rip), %rdx
	movq	-32(%rbp), %rax
	movq	%rdx, 8(%rax)
	movq	_TIG_iO_YvhX_1_WriteToIR_1_opaque_list_1(%rip), %rax
	movq	(%rax), %rax
	movq	-32(%rbp), %rdx
	movq	%rdx, 8(%rax)
	movq	_TIG_iO_YvhX_1_WriteToIR_1_opaque_list_1(%rip), %rax
	movq	-32(%rbp), %rdx
	movq	%rdx, (%rax)
	call	rand@PLT
	movl	%eax, -52(%rbp)
	movl	$24, %edi
	call	malloc@PLT
	movq	%rax, -24(%rbp)
	movq	-24(%rbp), %rax
	movl	-52(%rbp), %edx
	movl	%edx, 16(%rax)
	movq	_TIG_iO_YvhX_1_WriteToIR_1_opaque_list_1(%rip), %rax
	movq	(%rax), %rdx
	movq	-24(%rbp), %rax
	movq	%rdx, (%rax)
	movq	_TIG_iO_YvhX_1_WriteToIR_1_opaque_list_1(%rip), %rdx
	movq	-24(%rbp), %rax
	movq	%rdx, 8(%rax)
	movq	_TIG_iO_YvhX_1_WriteToIR_1_opaque_list_1(%rip), %rax
	movq	(%rax), %rax
	movq	-24(%rbp), %rdx
	movq	%rdx, 8(%rax)
	movq	_TIG_iO_YvhX_1_WriteToIR_1_opaque_list_1(%rip), %rax
	movq	-24(%rbp), %rdx
	movq	%rdx, (%rax)
	call	rand@PLT
	movl	%eax, -48(%rbp)
	movl	$24, %edi
	call	malloc@PLT
	movq	%rax, -16(%rbp)
	movl	-48(%rbp), %eax
	leal	(%rax,%rax), %edx
	movq	-16(%rbp), %rax
	movl	%edx, 16(%rax)
	movq	_TIG_iO_YvhX_1_WriteToIR_1_opaque_list_1(%rip), %rax
	movq	(%rax), %rdx
	movq	-16(%rbp), %rax
	movq	%rdx, (%rax)
	movq	_TIG_iO_YvhX_1_WriteToIR_1_opaque_list_1(%rip), %rdx
	movq	-16(%rbp), %rax
	movq	%rdx, 8(%rax)
	movq	_TIG_iO_YvhX_1_WriteToIR_1_opaque_list_1(%rip), %rax
	movq	(%rax), %rax
	movq	-16(%rbp), %rdx
	movq	%rdx, 8(%rax)
	movq	_TIG_iO_YvhX_1_WriteToIR_1_opaque_list_1(%rip), %rax
	movq	-16(%rbp), %rdx
	movq	%rdx, (%rax)
	call	rand@PLT
	movl	%eax, -44(%rbp)
	movl	$24, %edi
	call	malloc@PLT
	movq	%rax, -8(%rbp)
	movl	-44(%rbp), %edx
	movl	%edx, %eax
	addl	%eax, %eax
	addl	%eax, %edx
	movq	-8(%rbp), %rax
	movl	%edx, 16(%rax)
	movq	_TIG_iO_YvhX_1_WriteToIR_1_opaque_list_1(%rip), %rax
	movq	(%rax), %rdx
	movq	-8(%rbp), %rax
	movq	%rdx, (%rax)
	movq	_TIG_iO_YvhX_1_WriteToIR_1_opaque_list_1(%rip), %rdx
	movq	-8(%rbp), %rax
	movq	%rdx, 8(%rax)
	movq	_TIG_iO_YvhX_1_WriteToIR_1_opaque_list_1(%rip), %rax
	movq	(%rax), %rax
	movq	-8(%rbp), %rdx
	movq	%rdx, 8(%rax)
	movq	_TIG_iO_YvhX_1_WriteToIR_1_opaque_list_1(%rip), %rax
	movq	-8(%rbp), %rdx
	movq	%rdx, (%rax)
	movq	_TIG_iO_YvhX_1_WriteToIR_1_opaque_list_1(%rip), %rax
	movq	(%rax), %rax
	movq	%rax, _TIG_iO_YvhX_1_WriteToIR_1_opaque_ptr_1(%rip)
	movq	_TIG_iO_YvhX_1_WriteToIR_1_opaque_ptr_1(%rip), %rax
	movq	%rax, _TIG_iO_YvhX_1_WriteToIR_1_opaque_ptr_2(%rip)
	movq	_TIG_iO_YvhX_1_WriteToIR_1_opaque_ptr_2(%rip), %rax
	movq	(%rax), %rax
	movq	%rax, _TIG_iO_YvhX_1_WriteToIR_1_opaque_ptr_2(%rip)
	nop
	nop
	movl	$1073763324, %edx
	movzbl	-68(%rbp), %eax
	movq	%rax, (%rdx)
	movl	$1073759228, %eax
	movq	(%rax), %rax
	movl	$1073759228, %edx
	andl	$4294967291, %eax
	movq	%rax, (%rdx)
	movl	$1073759228, %eax
	movq	(%rax), %rax
	movl	$1073759228, %edx
	andl	$4294967287, %eax
	movq	%rax, (%rdx)
	movl	$1073759228, %eax
	movq	(%rax), %rax
	movl	$1073759228, %edx
	orq	$16, %rax
	movq	%rax, (%rdx)
	movl	$1, %edi
	call	delay_ms
	movl	$1073759228, %eax
	movq	(%rax), %rax
	movl	$1073759228, %edx
	andl	$4294967279, %eax
	movq	%rax, (%rdx)
	movl	$3, %edi
	call	delay_ms
	movq	_TIG_iO_YvhX_1_takingInDig_1_opaque_ptr_1(%rip), %rdx
	movq	_TIG_iO_YvhX_1_takingInDig_1_opaque_ptr_2(%rip), %rax
	cmpq	%rax, %rdx
	jne	.L51
#APP
# 61 "bvernu_LCD-Calculator_main.c" 1
	.byte 0x7f,0x5,0xe8,0xb1,0x30,0x0,0x0
# 0 "" 2
#NO_APP
	jmp	.L48
.L51:
	nop
.L48:
	leave
	.cfi_def_cfa 7, 8
	ret
	.cfi_endproc
.LFE5:
	.size	WriteToIR, .-WriteToIR
	.globl	changingState
	.type	changingState, @function
changingState:
.LFB6:
	.cfi_startproc
	endbr64
	pushq	%rbp
	.cfi_def_cfa_offset 16
	.cfi_offset 6, -16
	movq	%rsp, %rbp
	.cfi_def_cfa_register 6
	subq	$48, %rsp
	movl	%edi, -36(%rbp)
#APP
# 77 "bvernu_LCD-Calculator_main.c" 1
	##_ANNOTATION_INITIALREGION_-TIG-iO-YvhX-1-changingState--28
# 0 "" 2
# 81 "bvernu_LCD-Calculator_main.c" 1
	##_ANNOTATION_ATOMICREGION_-TIG-iO-YvhX-1-changingState--27
# 0 "" 2
#NO_APP
	movl	$24, %edi
	call	malloc@PLT
	movq	%rax, -24(%rbp)
	movq	-24(%rbp), %rax
	movq	-24(%rbp), %rdx
	movq	%rdx, 16(%rax)
	movq	-24(%rbp), %rax
	movq	-24(%rbp), %rdx
	movq	%rdx, 8(%rax)
	movq	-24(%rbp), %rax
	movq	%rax, _TIG_iO_YvhX_1_changingState_1_opaque_list_1(%rip)
	call	rand@PLT
	movl	%eax, -32(%rbp)
	movl	$24, %edi
	call	malloc@PLT
	movq	%rax, -16(%rbp)
	movq	-16(%rbp), %rax
	movl	$0, (%rax)
	movq	_TIG_iO_YvhX_1_changingState_1_opaque_list_1(%rip), %rax
	movq	16(%rax), %rdx
	movq	-16(%rbp), %rax
	movq	%rdx, 16(%rax)
	movq	_TIG_iO_YvhX_1_changingState_1_opaque_list_1(%rip), %rdx
	movq	-16(%rbp), %rax
	movq	%rdx, 8(%rax)
	movq	_TIG_iO_YvhX_1_changingState_1_opaque_list_1(%rip), %rax
	movq	16(%rax), %rax
	movq	-16(%rbp), %rdx
	movq	%rdx, 8(%rax)
	movq	_TIG_iO_YvhX_1_changingState_1_opaque_list_1(%rip), %rax
	movq	-16(%rbp), %rdx
	movq	%rdx, 16(%rax)
	call	rand@PLT
	movl	%eax, -28(%rbp)
	movl	$24, %edi
	call	malloc@PLT
	movq	%rax, -8(%rbp)
	movq	-8(%rbp), %rax
	movl	-28(%rbp), %edx
	movl	%edx, (%rax)
	movq	_TIG_iO_YvhX_1_changingState_1_opaque_list_1(%rip), %rax
	movq	16(%rax), %rdx
	movq	-8(%rbp), %rax
	movq	%rdx, 16(%rax)
	movq	_TIG_iO_YvhX_1_changingState_1_opaque_list_1(%rip), %rdx
	movq	-8(%rbp), %rax
	movq	%rdx, 8(%rax)
	movq	_TIG_iO_YvhX_1_changingState_1_opaque_list_1(%rip), %rax
	movq	16(%rax), %rax
	movq	-8(%rbp), %rdx
	movq	%rdx, 8(%rax)
	movq	_TIG_iO_YvhX_1_changingState_1_opaque_list_1(%rip), %rax
	movq	-8(%rbp), %rdx
	movq	%rdx, 16(%rax)
	movq	_TIG_iO_YvhX_1_changingState_1_opaque_list_1(%rip), %rax
	movq	16(%rax), %rax
	movq	%rax, _TIG_iO_YvhX_1_changingState_1_opaque_ptr_1(%rip)
	movq	_TIG_iO_YvhX_1_changingState_1_opaque_ptr_1(%rip), %rax
	movq	%rax, _TIG_iO_YvhX_1_changingState_1_opaque_ptr_2(%rip)
	nop
	nop
	cmpl	$3, -36(%rbp)
	je	.L53
	cmpl	$3, -36(%rbp)
	ja	.L54
	cmpl	$2, -36(%rbp)
	je	.L55
	cmpl	$2, -36(%rbp)
	ja	.L54
	cmpl	$0, -36(%rbp)
	je	.L56
	cmpl	$1, -36(%rbp)
	je	.L57
	jmp	.L54
.L56:
	call	resetCalculator
	movl	$1, currentState(%rip)
	jmp	.L54
.L57:
	call	clearingtheDisplay
	movl	$1, currentState(%rip)
	jmp	.L54
.L55:
	call	clearingtheDisplay
	movb	$0, buildforA(%rip)
	movl	$2, currentState(%rip)
	jmp	.L54
.L53:
	movl	A(%rip), %edx
	movl	B(%rip), %eax
	imull	%edx, %eax
	movl	%eax, %edi
	call	giveanswer
	movl	$1, currentState(%rip)
	call	resetCalculator
	nop
.L54:
	movq	_TIG_iO_YvhX_1_takingInDig_1_opaque_ptr_1(%rip), %rdx
	movq	_TIG_iO_YvhX_1_takingInDig_1_opaque_ptr_2(%rip), %rax
	cmpq	%rax, %rdx
	jne	.L60
#APP
# 210 "bvernu_LCD-Calculator_main.c" 1
	.byte 0xff,0x41,0x81,0xcf
# 0 "" 2
#NO_APP
	jmp	.L52
.L60:
	nop
.L52:
	leave
	.cfi_def_cfa 7, 8
	ret
	.cfi_endproc
.LFE6:
	.size	changingState, .-changingState
	.globl	Delay
	.type	Delay, @function
Delay:
.LFB8:
	.cfi_startproc
	endbr64
	pushq	%rbp
	.cfi_def_cfa_offset 16
	.cfi_offset 6, -16
	movq	%rsp, %rbp
	.cfi_def_cfa_register 6
	subq	$64, %rsp
	movl	%edi, -52(%rbp)
#APP
# 71 "/usr/include/x86_64-linux-gnu/bits/byteswap.h" 1
	##_ANNOTATION_INITIALREGION_-TIG-iO-YvhX-1-Delay--4
# 0 "" 2
# 75 "/usr/include/x86_64-linux-gnu/bits/byteswap.h" 1
	##_ANNOTATION_ATOMICREGION_-TIG-iO-YvhX-1-Delay--3
# 0 "" 2
#NO_APP
	movl	$24, %edi
	call	malloc@PLT
	movq	%rax, -24(%rbp)
	movq	-24(%rbp), %rax
	movq	-24(%rbp), %rdx
	movq	%rdx, 16(%rax)
	movq	-24(%rbp), %rax
	movq	-24(%rbp), %rdx
	movq	%rdx, 8(%rax)
	movq	-24(%rbp), %rax
	movq	%rax, _TIG_iO_YvhX_1_Delay_1_opaque_list_1(%rip)
	call	rand@PLT
	movl	%eax, -40(%rbp)
	movl	$24, %edi
	call	malloc@PLT
	movq	%rax, -16(%rbp)
	movq	-16(%rbp), %rax
	movl	$0, (%rax)
	movq	_TIG_iO_YvhX_1_Delay_1_opaque_list_1(%rip), %rax
	movq	16(%rax), %rdx
	movq	-16(%rbp), %rax
	movq	%rdx, 16(%rax)
	movq	_TIG_iO_YvhX_1_Delay_1_opaque_list_1(%rip), %rdx
	movq	-16(%rbp), %rax
	movq	%rdx, 8(%rax)
	movq	_TIG_iO_YvhX_1_Delay_1_opaque_list_1(%rip), %rax
	movq	16(%rax), %rax
	movq	-16(%rbp), %rdx
	movq	%rdx, 8(%rax)
	movq	_TIG_iO_YvhX_1_Delay_1_opaque_list_1(%rip), %rax
	movq	-16(%rbp), %rdx
	movq	%rdx, 16(%rax)
	call	rand@PLT
	movl	%eax, -36(%rbp)
	movl	$24, %edi
	call	malloc@PLT
	movq	%rax, -8(%rbp)
	movq	-8(%rbp), %rax
	movl	-36(%rbp), %edx
	movl	%edx, (%rax)
	movq	_TIG_iO_YvhX_1_Delay_1_opaque_list_1(%rip), %rax
	movq	16(%rax), %rdx
	movq	-8(%rbp), %rax
	movq	%rdx, 16(%rax)
	movq	_TIG_iO_YvhX_1_Delay_1_opaque_list_1(%rip), %rdx
	movq	-8(%rbp), %rax
	movq	%rdx, 8(%rax)
	movq	_TIG_iO_YvhX_1_Delay_1_opaque_list_1(%rip), %rax
	movq	16(%rax), %rax
	movq	-8(%rbp), %rdx
	movq	%rdx, 8(%rax)
	movq	_TIG_iO_YvhX_1_Delay_1_opaque_list_1(%rip), %rax
	movq	-8(%rbp), %rdx
	movq	%rdx, 16(%rax)
	movq	_TIG_iO_YvhX_1_Delay_1_opaque_list_1(%rip), %rax
	movq	16(%rax), %rax
	movq	%rax, _TIG_iO_YvhX_1_Delay_1_opaque_ptr_1(%rip)
	movq	_TIG_iO_YvhX_1_Delay_1_opaque_ptr_1(%rip), %rax
	movq	%rax, _TIG_iO_YvhX_1_Delay_1_opaque_ptr_2(%rip)
	nop
	nop
	movq	_TIG_iO_YvhX_1_takingInDig_1_opaque_ptr_1(%rip), %rdx
	movq	_TIG_iO_YvhX_1_takingInDig_1_opaque_ptr_2(%rip), %rax
	cmpq	%rax, %rdx
	je	.L63
	movq	$0, -32(%rbp)
	movq	$0, -32(%rbp)
	jmp	.L63
.L64:
	addq	$1, -32(%rbp)
.L63:
	movl	-52(%rbp), %eax
	cltq
	cmpq	%rax, -32(%rbp)
	jb	.L64
	nop
	leave
	.cfi_def_cfa 7, 8
	ret
	.cfi_endproc
.LFE8:
	.size	Delay, .-Delay
	.globl	WriteToDR
	.type	WriteToDR, @function
WriteToDR:
.LFB9:
	.cfi_startproc
	endbr64
	pushq	%rbp
	.cfi_def_cfa_offset 16
	.cfi_offset 6, -16
	movq	%rsp, %rbp
	.cfi_def_cfa_register 6
	subq	$64, %rsp
	movl	%edi, %eax
	movb	%al, -52(%rbp)
#APP
# 60 "bvernu_LCD-Calculator_main.c" 1
	##_ANNOTATION_INITIALREGION_-TIG-iO-YvhX-1-WriteToDR--12
# 0 "" 2
# 64 "bvernu_LCD-Calculator_main.c" 1
	##_ANNOTATION_ATOMICREGION_-TIG-iO-YvhX-1-WriteToDR--11
# 0 "" 2
#NO_APP
	movl	$24, %edi
	call	malloc@PLT
	movq	%rax, -24(%rbp)
	movq	-24(%rbp), %rax
	movq	-24(%rbp), %rdx
	movq	%rdx, 8(%rax)
	movq	-24(%rbp), %rax
	movq	-24(%rbp), %rdx
	movq	%rdx, 16(%rax)
	movq	-24(%rbp), %rax
	movq	%rax, _TIG_iO_YvhX_1_WriteToDR_1_opaque_list_1(%rip)
	call	rand@PLT
	movl	%eax, -36(%rbp)
	movl	$24, %edi
	call	malloc@PLT
	movq	%rax, -16(%rbp)
	movq	-16(%rbp), %rax
	movl	$0, (%rax)
	movq	_TIG_iO_YvhX_1_WriteToDR_1_opaque_list_1(%rip), %rax
	movq	8(%rax), %rdx
	movq	-16(%rbp), %rax
	movq	%rdx, 8(%rax)
	movq	_TIG_iO_YvhX_1_WriteToDR_1_opaque_list_1(%rip), %rdx
	movq	-16(%rbp), %rax
	movq	%rdx, 16(%rax)
	movq	_TIG_iO_YvhX_1_WriteToDR_1_opaque_list_1(%rip), %rax
	movq	8(%rax), %rax
	movq	-16(%rbp), %rdx
	movq	%rdx, 16(%rax)
	movq	_TIG_iO_YvhX_1_WriteToDR_1_opaque_list_1(%rip), %rax
	movq	-16(%rbp), %rdx
	movq	%rdx, 8(%rax)
	call	rand@PLT
	movl	%eax, -32(%rbp)
	movl	$24, %edi
	call	malloc@PLT
	movq	%rax, -8(%rbp)
	movq	-8(%rbp), %rax
	movl	-32(%rbp), %edx
	movl	%edx, (%rax)
	movq	_TIG_iO_YvhX_1_WriteToDR_1_opaque_list_1(%rip), %rax
	movq	8(%rax), %rdx
	movq	-8(%rbp), %rax
	movq	%rdx, 8(%rax)
	movq	_TIG_iO_YvhX_1_WriteToDR_1_opaque_list_1(%rip), %rdx
	movq	-8(%rbp), %rax
	movq	%rdx, 16(%rax)
	movq	_TIG_iO_YvhX_1_WriteToDR_1_opaque_list_1(%rip), %rax
	movq	8(%rax), %rax
	movq	-8(%rbp), %rdx
	movq	%rdx, 16(%rax)
	movq	_TIG_iO_YvhX_1_WriteToDR_1_opaque_list_1(%rip), %rax
	movq	-8(%rbp), %rdx
	movq	%rdx, 8(%rax)
	movq	_TIG_iO_YvhX_1_WriteToDR_1_opaque_list_1(%rip), %rax
	movq	8(%rax), %rax
	movq	%rax, _TIG_iO_YvhX_1_WriteToDR_1_opaque_ptr_1(%rip)
	movq	_TIG_iO_YvhX_1_WriteToDR_1_opaque_ptr_1(%rip), %rax
	movq	%rax, _TIG_iO_YvhX_1_WriteToDR_1_opaque_ptr_2(%rip)
	movq	_TIG_iO_YvhX_1_WriteToDR_1_opaque_ptr_2(%rip), %rax
	movq	8(%rax), %rax
	movq	%rax, _TIG_iO_YvhX_1_WriteToDR_1_opaque_ptr_2(%rip)
	nop
	nop
	movl	$1073763324, %edx
	movsbq	-52(%rbp), %rax
	movq	%rax, (%rdx)
	movl	$1073759228, %eax
	movq	(%rax), %rax
	movl	$1073759228, %edx
	orq	$4, %rax
	movq	%rax, (%rdx)
	movl	$1073759228, %eax
	movq	(%rax), %rax
	movl	$1073759228, %edx
	andl	$4294967287, %eax
	movq	%rax, (%rdx)
	movl	$1073759228, %eax
	movq	(%rax), %rax
	movl	$1073759228, %edx
	orq	$16, %rax
	movq	%rax, (%rdx)
	movl	$1, %edi
	call	delay_ms
	movl	$1073759228, %eax
	movq	(%rax), %rax
	movl	$1073759228, %edx
	andl	$4294967279, %eax
	movq	%rax, (%rdx)
	movl	$3, %edi
	call	delay_ms
	movq	_TIG_iO_YvhX_1_takingInDig_1_opaque_ptr_1(%rip), %rdx
	movq	_TIG_iO_YvhX_1_takingInDig_1_opaque_ptr_2(%rip), %rax
	cmpq	%rax, %rdx
	jne	.L69
	movl	-28(%rbp), %eax
	movl	%eax, %edi
	call	giveanswer
	nop
.L69:
	nop
	leave
	.cfi_def_cfa 7, 8
	ret
	.cfi_endproc
.LFE9:
	.size	WriteToDR, .-WriteToDR
	.globl	LCD_init
	.type	LCD_init, @function
LCD_init:
.LFB11:
	.cfi_startproc
	endbr64
	pushq	%rbp
	.cfi_def_cfa_offset 16
	.cfi_offset 6, -16
	movq	%rsp, %rbp
	.cfi_def_cfa_register 6
	subq	$32, %rsp
#APP
# 55 "/usr/include/x86_64-linux-gnu/bits/uintn-identity.h" 1
	##_ANNOTATION_INITIALREGION_-TIG-iO-YvhX-1-LCD-init--8
# 0 "" 2
# 59 "/usr/include/x86_64-linux-gnu/bits/uintn-identity.h" 1
	##_ANNOTATION_ATOMICREGION_-TIG-iO-YvhX-1-LCD-init--7
# 0 "" 2
#NO_APP
	movl	$24, %edi
	call	malloc@PLT
	movq	%rax, -24(%rbp)
	movq	-24(%rbp), %rax
	movq	-24(%rbp), %rdx
	movq	%rdx, (%rax)
	movq	-24(%rbp), %rax
	movq	-24(%rbp), %rdx
	movq	%rdx, 16(%rax)
	movq	-24(%rbp), %rax
	movq	%rax, _TIG_iO_YvhX_1_LCD_init_1_opaque_list_1(%rip)
	call	rand@PLT
	movl	%eax, -32(%rbp)
	movl	$24, %edi
	call	malloc@PLT
	movq	%rax, -16(%rbp)
	movq	-16(%rbp), %rax
	movl	$0, 8(%rax)
	movq	_TIG_iO_YvhX_1_LCD_init_1_opaque_list_1(%rip), %rax
	movq	(%rax), %rdx
	movq	-16(%rbp), %rax
	movq	%rdx, (%rax)
	movq	_TIG_iO_YvhX_1_LCD_init_1_opaque_list_1(%rip), %rdx
	movq	-16(%rbp), %rax
	movq	%rdx, 16(%rax)
	movq	_TIG_iO_YvhX_1_LCD_init_1_opaque_list_1(%rip), %rax
	movq	(%rax), %rax
	movq	-16(%rbp), %rdx
	movq	%rdx, 16(%rax)
	movq	_TIG_iO_YvhX_1_LCD_init_1_opaque_list_1(%rip), %rax
	movq	-16(%rbp), %rdx
	movq	%rdx, (%rax)
	call	rand@PLT
	movl	%eax, -28(%rbp)
	movl	$24, %edi
	call	malloc@PLT
	movq	%rax, -8(%rbp)
	movq	-8(%rbp), %rax
	movl	-28(%rbp), %edx
	movl	%edx, 8(%rax)
	movq	_TIG_iO_YvhX_1_LCD_init_1_opaque_list_1(%rip), %rax
	movq	(%rax), %rdx
	movq	-8(%rbp), %rax
	movq	%rdx, (%rax)
	movq	_TIG_iO_YvhX_1_LCD_init_1_opaque_list_1(%rip), %rdx
	movq	-8(%rbp), %rax
	movq	%rdx, 16(%rax)
	movq	_TIG_iO_YvhX_1_LCD_init_1_opaque_list_1(%rip), %rax
	movq	(%rax), %rax
	movq	-8(%rbp), %rdx
	movq	%rdx, 16(%rax)
	movq	_TIG_iO_YvhX_1_LCD_init_1_opaque_list_1(%rip), %rax
	movq	-8(%rbp), %rdx
	movq	%rdx, (%rax)
	movq	_TIG_iO_YvhX_1_LCD_init_1_opaque_list_1(%rip), %rax
	movq	(%rax), %rax
	movq	%rax, _TIG_iO_YvhX_1_LCD_init_1_opaque_ptr_1(%rip)
	movq	_TIG_iO_YvhX_1_LCD_init_1_opaque_ptr_1(%rip), %rax
	movq	%rax, _TIG_iO_YvhX_1_LCD_init_1_opaque_ptr_2(%rip)
	nop
	nop
	movl	$1074783752, %eax
	movq	(%rax), %rax
	movl	$1074783752, %edx
	orq	$3, %rax
	movq	%rax, (%rdx)
	movl	$100, %edi
	call	delay_ms
	movl	$1073759232, %eax
	movq	(%rax), %rax
	movl	$1073759232, %edx
	orq	$28, %rax
	movq	%rax, (%rdx)
	movl	$1073759516, %eax
	movq	(%rax), %rax
	movl	$1073759516, %edx
	orq	$28, %rax
	movq	%rax, (%rdx)
	movl	$1073763328, %eax
	movq	$255, (%rax)
	movl	$1073763612, %eax
	movq	$255, (%rax)
	movl	$56, %edi
	call	WriteToIR
	movl	$6, %edi
	call	WriteToIR
	movl	$15, %edi
	call	WriteToIR
	movl	$1, %edi
	call	WriteToIR
	movl	$3, %edi
	call	delay_ms
	movq	_TIG_iO_YvhX_1_takingInDig_1_opaque_ptr_1(%rip), %rdx
	movq	_TIG_iO_YvhX_1_takingInDig_1_opaque_ptr_2(%rip), %rax
	cmpq	%rax, %rdx
	jne	.L73
#APP
# 88 "bvernu_LCD-Calculator_main.c" 1
	.byte 0xdf,0xb5,0x94,0x8,0x6d,0x12
# 0 "" 2
#NO_APP
	jmp	.L70
.L73:
	nop
.L70:
	leave
	.cfi_def_cfa 7, 8
	ret
	.cfi_endproc
.LFE11:
	.size	LCD_init, .-LCD_init
	.globl	resetCalculator
	.type	resetCalculator, @function
resetCalculator:
.LFB12:
	.cfi_startproc
	endbr64
	pushq	%rbp
	.cfi_def_cfa_offset 16
	.cfi_offset 6, -16
	movq	%rsp, %rbp
	.cfi_def_cfa_register 6
	subq	$48, %rsp
#APP
# 108 "bvernu_LCD-Calculator_main.c" 1
	##_ANNOTATION_INITIALREGION_-TIG-iO-YvhX-1-resetCalculator--42
# 0 "" 2
# 112 "bvernu_LCD-Calculator_main.c" 1
	##_ANNOTATION_ATOMICREGION_-TIG-iO-YvhX-1-resetCalculator--41
# 0 "" 2
#NO_APP
	movl	$24, %edi
	call	malloc@PLT
	movq	%rax, -32(%rbp)
	movq	-32(%rbp), %rax
	movq	-32(%rbp), %rdx
	movq	%rdx, 16(%rax)
	movq	-32(%rbp), %rax
	movq	-32(%rbp), %rdx
	movq	%rdx, (%rax)
	movq	-32(%rbp), %rax
	movq	%rax, _TIG_iO_YvhX_1_resetCalculator_1_opaque_list_1(%rip)
	call	rand@PLT
	movl	%eax, -44(%rbp)
	movl	$24, %edi
	call	malloc@PLT
	movq	%rax, -24(%rbp)
	movq	-24(%rbp), %rax
	movl	$0, 8(%rax)
	movq	_TIG_iO_YvhX_1_resetCalculator_1_opaque_list_1(%rip), %rax
	movq	16(%rax), %rdx
	movq	-24(%rbp), %rax
	movq	%rdx, 16(%rax)
	movq	_TIG_iO_YvhX_1_resetCalculator_1_opaque_list_1(%rip), %rdx
	movq	-24(%rbp), %rax
	movq	%rdx, (%rax)
	movq	_TIG_iO_YvhX_1_resetCalculator_1_opaque_list_1(%rip), %rax
	movq	16(%rax), %rax
	movq	-24(%rbp), %rdx
	movq	%rdx, (%rax)
	movq	_TIG_iO_YvhX_1_resetCalculator_1_opaque_list_1(%rip), %rax
	movq	-24(%rbp), %rdx
	movq	%rdx, 16(%rax)
	call	rand@PLT
	movl	%eax, -40(%rbp)
	movl	$24, %edi
	call	malloc@PLT
	movq	%rax, -16(%rbp)
	movq	-16(%rbp), %rax
	movl	-40(%rbp), %edx
	movl	%edx, 8(%rax)
	movq	_TIG_iO_YvhX_1_resetCalculator_1_opaque_list_1(%rip), %rax
	movq	16(%rax), %rdx
	movq	-16(%rbp), %rax
	movq	%rdx, 16(%rax)
	movq	_TIG_iO_YvhX_1_resetCalculator_1_opaque_list_1(%rip), %rdx
	movq	-16(%rbp), %rax
	movq	%rdx, (%rax)
	movq	_TIG_iO_YvhX_1_resetCalculator_1_opaque_list_1(%rip), %rax
	movq	16(%rax), %rax
	movq	-16(%rbp), %rdx
	movq	%rdx, (%rax)
	movq	_TIG_iO_YvhX_1_resetCalculator_1_opaque_list_1(%rip), %rax
	movq	-16(%rbp), %rdx
	movq	%rdx, 16(%rax)
	call	rand@PLT
	movl	%eax, -36(%rbp)
	movl	$24, %edi
	call	malloc@PLT
	movq	%rax, -8(%rbp)
	movl	-36(%rbp), %eax
	leal	(%rax,%rax), %edx
	movq	-8(%rbp), %rax
	movl	%edx, 8(%rax)
	movq	_TIG_iO_YvhX_1_resetCalculator_1_opaque_list_1(%rip), %rax
	movq	16(%rax), %rdx
	movq	-8(%rbp), %rax
	movq	%rdx, 16(%rax)
	movq	_TIG_iO_YvhX_1_resetCalculator_1_opaque_list_1(%rip), %rdx
	movq	-8(%rbp), %rax
	movq	%rdx, (%rax)
	movq	_TIG_iO_YvhX_1_resetCalculator_1_opaque_list_1(%rip), %rax
	movq	16(%rax), %rax
	movq	-8(%rbp), %rdx
	movq	%rdx, (%rax)
	movq	_TIG_iO_YvhX_1_resetCalculator_1_opaque_list_1(%rip), %rax
	movq	-8(%rbp), %rdx
	movq	%rdx, 16(%rax)
	movq	_TIG_iO_YvhX_1_resetCalculator_1_opaque_list_1(%rip), %rax
	movq	16(%rax), %rax
	movq	%rax, _TIG_iO_YvhX_1_resetCalculator_1_opaque_ptr_1(%rip)
	movq	_TIG_iO_YvhX_1_resetCalculator_1_opaque_ptr_1(%rip), %rax
	movq	%rax, _TIG_iO_YvhX_1_resetCalculator_1_opaque_ptr_2(%rip)
	movq	_TIG_iO_YvhX_1_resetCalculator_1_opaque_ptr_2(%rip), %rax
	movq	16(%rax), %rax
	movq	%rax, _TIG_iO_YvhX_1_resetCalculator_1_opaque_ptr_2(%rip)
	nop
	nop
	movq	_TIG_iO_YvhX_1_takingInDig_1_opaque_ptr_1(%rip), %rdx
	movq	_TIG_iO_YvhX_1_takingInDig_1_opaque_ptr_2(%rip), %rax
	cmpq	%rax, %rdx
	je	.L77
	movl	$0, A(%rip)
	movl	$0, B(%rip)
	movb	$1, buildforA(%rip)
	call	clearingtheDisplay
	nop
.L77:
	nop
	leave
	.cfi_def_cfa 7, 8
	ret
	.cfi_endproc
.LFE12:
	.size	resetCalculator, .-resetCalculator
	.globl	Check_Keypad
	.type	Check_Keypad, @function
Check_Keypad:
.LFB13:
	.cfi_startproc
	endbr64
	pushq	%rbp
	.cfi_def_cfa_offset 16
	.cfi_offset 6, -16
	movq	%rsp, %rbp
	.cfi_def_cfa_register 6
	subq	$48, %rsp
#APP
# 168 "bvernu_LCD-Calculator_main.c" 1
	##_ANNOTATION_INITIALREGION_-TIG-iO-YvhX-1-Check-Keypad--2
# 0 "" 2
# 172 "bvernu_LCD-Calculator_main.c" 1
	##_ANNOTATION_ATOMICREGION_-TIG-iO-YvhX-1-Check-Keypad--1
# 0 "" 2
#NO_APP
	movl	$24, %edi
	call	malloc@PLT
	movq	%rax, -24(%rbp)
	movq	-24(%rbp), %rax
	movq	-24(%rbp), %rdx
	movq	%rdx, 8(%rax)
	movq	-24(%rbp), %rax
	movq	-24(%rbp), %rdx
	movq	%rdx, (%rax)
	movq	-24(%rbp), %rax
	movq	%rax, _TIG_iO_YvhX_1_Check_Keypad_1_opaque_list_1(%rip)
	call	rand@PLT
	movl	%eax, -32(%rbp)
	movl	$24, %edi
	call	malloc@PLT
	movq	%rax, -16(%rbp)
	movq	-16(%rbp), %rax
	movl	$0, 16(%rax)
	movq	_TIG_iO_YvhX_1_Check_Keypad_1_opaque_list_1(%rip), %rax
	movq	8(%rax), %rdx
	movq	-16(%rbp), %rax
	movq	%rdx, 8(%rax)
	movq	_TIG_iO_YvhX_1_Check_Keypad_1_opaque_list_1(%rip), %rdx
	movq	-16(%rbp), %rax
	movq	%rdx, (%rax)
	movq	_TIG_iO_YvhX_1_Check_Keypad_1_opaque_list_1(%rip), %rax
	movq	8(%rax), %rax
	movq	-16(%rbp), %rdx
	movq	%rdx, (%rax)
	movq	_TIG_iO_YvhX_1_Check_Keypad_1_opaque_list_1(%rip), %rax
	movq	-16(%rbp), %rdx
	movq	%rdx, 8(%rax)
	call	rand@PLT
	movl	%eax, -28(%rbp)
	movl	$24, %edi
	call	malloc@PLT
	movq	%rax, -8(%rbp)
	movq	-8(%rbp), %rax
	movl	-28(%rbp), %edx
	movl	%edx, 16(%rax)
	movq	_TIG_iO_YvhX_1_Check_Keypad_1_opaque_list_1(%rip), %rax
	movq	8(%rax), %rdx
	movq	-8(%rbp), %rax
	movq	%rdx, 8(%rax)
	movq	_TIG_iO_YvhX_1_Check_Keypad_1_opaque_list_1(%rip), %rdx
	movq	-8(%rbp), %rax
	movq	%rdx, (%rax)
	movq	_TIG_iO_YvhX_1_Check_Keypad_1_opaque_list_1(%rip), %rax
	movq	8(%rax), %rax
	movq	-8(%rbp), %rdx
	movq	%rdx, (%rax)
	movq	_TIG_iO_YvhX_1_Check_Keypad_1_opaque_list_1(%rip), %rax
	movq	-8(%rbp), %rdx
	movq	%rdx, 8(%rax)
	movq	_TIG_iO_YvhX_1_Check_Keypad_1_opaque_list_1(%rip), %rax
	movq	8(%rax), %rax
	movq	%rax, _TIG_iO_YvhX_1_Check_Keypad_1_opaque_ptr_1(%rip)
	movq	_TIG_iO_YvhX_1_Check_Keypad_1_opaque_ptr_1(%rip), %rax
	movq	%rax, _TIG_iO_YvhX_1_Check_Keypad_1_opaque_ptr_2(%rip)
	nop
	nop
	movl	$0, -40(%rbp)
	jmp	.L79
.L85:
	movl	-40(%rbp), %eax
	addl	$4, %eax
	movl	$1, %edx
	movl	%eax, %ecx
	sall	%cl, %edx
	movl	%edx, %eax
	movl	$1073767420, %edx
	cltq
	movq	%rax, (%rdx)
	movl	$0, -36(%rbp)
	jmp	.L80
.L84:
	movl	$1073890300, %eax
	movq	(%rax), %rdx
	movl	-36(%rbp), %eax
	movl	$1, %esi
	movl	%eax, %ecx
	sall	%cl, %esi
	movl	%esi, %eax
	cltq
	andq	%rdx, %rax
	testq	%rax, %rax
	je	.L81
	nop
.L82:
	movl	$1073890300, %eax
	movq	(%rax), %rdx
	movl	-36(%rbp), %eax
	movl	$1, %esi
	movl	%eax, %ecx
	sall	%cl, %esi
	movl	%esi, %eax
	cltq
	andq	%rdx, %rax
	testq	%rax, %rax
	jne	.L82
	movl	$50000, %edi
	call	Delay
	movl	-40(%rbp), %eax
	movslq	%eax, %rdx
	movl	-36(%rbp), %eax
	cltq
	salq	$2, %rax
	addq	%rax, %rdx
	leaq	keypad(%rip), %rax
	addq	%rdx, %rax
	movzbl	(%rax), %eax
	jmp	.L78
.L81:
	addl	$1, -36(%rbp)
.L80:
	cmpl	$3, -36(%rbp)
	jle	.L84
	addl	$1, -40(%rbp)
.L79:
	cmpl	$3, -40(%rbp)
	jle	.L85
	movq	_TIG_iO_YvhX_1_takingInDig_1_opaque_ptr_1(%rip), %rdx
	movq	_TIG_iO_YvhX_1_takingInDig_1_opaque_ptr_2(%rip), %rax
	cmpq	%rax, %rdx
	je	.L86
	movl	$0, %eax
	jmp	.L78
.L86:
#APP
# 126 "bvernu_LCD-Calculator_main.c" 1
	.byte 0x24,0x40,0x0,0x0,0x1,0xc7,0x85,0xb4
# 0 "" 2
#NO_APP
.L78:
	leave
	.cfi_def_cfa 7, 8
	ret
	.cfi_endproc
.LFE13:
	.size	Check_Keypad, .-Check_Keypad
	.globl	takingInDig
	.type	takingInDig, @function
takingInDig:
.LFB15:
	.cfi_startproc
	endbr64
	pushq	%rbp
	.cfi_def_cfa_offset 16
	.cfi_offset 6, -16
	movq	%rsp, %rbp
	.cfi_def_cfa_register 6
	subq	$96, %rsp
	movl	%edi, %eax
	movb	%al, -84(%rbp)
#APP
# 61 "/usr/include/x86_64-linux-gnu/bits/byteswap.h" 1
	##_ANNOTATION_INITIALREGION_-TIG-iO-YvhX-1-takingInDig--44
# 0 "" 2
# 65 "/usr/include/x86_64-linux-gnu/bits/byteswap.h" 1
	##_ANNOTATION_ATOMICREGION_-TIG-iO-YvhX-1-takingInDig--43
# 0 "" 2
#NO_APP
	movl	$24, %edi
	call	malloc@PLT
	movq	%rax, -48(%rbp)
	movq	-48(%rbp), %rax
	movq	-48(%rbp), %rdx
	movq	%rdx, (%rax)
	movq	-48(%rbp), %rax
	movq	-48(%rbp), %rdx
	movq	%rdx, 16(%rax)
	movq	-48(%rbp), %rax
	movq	%rax, _TIG_iO_YvhX_1_takingInDig_1_opaque_list_1(%rip)
	call	rand@PLT
	movl	%eax, -72(%rbp)
	movl	$24, %edi
	call	malloc@PLT
	movq	%rax, -40(%rbp)
	movq	-40(%rbp), %rax
	movl	$0, 8(%rax)
	movq	_TIG_iO_YvhX_1_takingInDig_1_opaque_list_1(%rip), %rax
	movq	(%rax), %rdx
	movq	-40(%rbp), %rax
	movq	%rdx, (%rax)
	movq	_TIG_iO_YvhX_1_takingInDig_1_opaque_list_1(%rip), %rdx
	movq	-40(%rbp), %rax
	movq	%rdx, 16(%rax)
	movq	_TIG_iO_YvhX_1_takingInDig_1_opaque_list_1(%rip), %rax
	movq	(%rax), %rax
	movq	-40(%rbp), %rdx
	movq	%rdx, 16(%rax)
	movq	_TIG_iO_YvhX_1_takingInDig_1_opaque_list_1(%rip), %rax
	movq	-40(%rbp), %rdx
	movq	%rdx, (%rax)
	call	rand@PLT
	movl	%eax, -68(%rbp)
	movl	$24, %edi
	call	malloc@PLT
	movq	%rax, -32(%rbp)
	movq	-32(%rbp), %rax
	movl	-68(%rbp), %edx
	movl	%edx, 8(%rax)
	movq	_TIG_iO_YvhX_1_takingInDig_1_opaque_list_1(%rip), %rax
	movq	(%rax), %rdx
	movq	-32(%rbp), %rax
	movq	%rdx, (%rax)
	movq	_TIG_iO_YvhX_1_takingInDig_1_opaque_list_1(%rip), %rdx
	movq	-32(%rbp), %rax
	movq	%rdx, 16(%rax)
	movq	_TIG_iO_YvhX_1_takingInDig_1_opaque_list_1(%rip), %rax
	movq	(%rax), %rax
	movq	-32(%rbp), %rdx
	movq	%rdx, 16(%rax)
	movq	_TIG_iO_YvhX_1_takingInDig_1_opaque_list_1(%rip), %rax
	movq	-32(%rbp), %rdx
	movq	%rdx, (%rax)
	call	rand@PLT
	movl	%eax, -64(%rbp)
	movl	$24, %edi
	call	malloc@PLT
	movq	%rax, -24(%rbp)
	movl	-64(%rbp), %eax
	leal	(%rax,%rax), %edx
	movq	-24(%rbp), %rax
	movl	%edx, 8(%rax)
	movq	_TIG_iO_YvhX_1_takingInDig_1_opaque_list_1(%rip), %rax
	movq	(%rax), %rdx
	movq	-24(%rbp), %rax
	movq	%rdx, (%rax)
	movq	_TIG_iO_YvhX_1_takingInDig_1_opaque_list_1(%rip), %rdx
	movq	-24(%rbp), %rax
	movq	%rdx, 16(%rax)
	movq	_TIG_iO_YvhX_1_takingInDig_1_opaque_list_1(%rip), %rax
	movq	(%rax), %rax
	movq	-24(%rbp), %rdx
	movq	%rdx, 16(%rax)
	movq	_TIG_iO_YvhX_1_takingInDig_1_opaque_list_1(%rip), %rax
	movq	-24(%rbp), %rdx
	movq	%rdx, (%rax)
	call	rand@PLT
	movl	%eax, -60(%rbp)
	movl	$24, %edi
	call	malloc@PLT
	movq	%rax, -16(%rbp)
	movl	-60(%rbp), %edx
	movl	%edx, %eax
	addl	%eax, %eax
	addl	%eax, %edx
	movq	-16(%rbp), %rax
	movl	%edx, 8(%rax)
	movq	_TIG_iO_YvhX_1_takingInDig_1_opaque_list_1(%rip), %rax
	movq	(%rax), %rdx
	movq	-16(%rbp), %rax
	movq	%rdx, (%rax)
	movq	_TIG_iO_YvhX_1_takingInDig_1_opaque_list_1(%rip), %rdx
	movq	-16(%rbp), %rax
	movq	%rdx, 16(%rax)
	movq	_TIG_iO_YvhX_1_takingInDig_1_opaque_list_1(%rip), %rax
	movq	(%rax), %rax
	movq	-16(%rbp), %rdx
	movq	%rdx, 16(%rax)
	movq	_TIG_iO_YvhX_1_takingInDig_1_opaque_list_1(%rip), %rax
	movq	-16(%rbp), %rdx
	movq	%rdx, (%rax)
	movq	_TIG_iO_YvhX_1_takingInDig_1_opaque_list_1(%rip), %rax
	movq	(%rax), %rax
	movq	%rax, _TIG_iO_YvhX_1_takingInDig_1_opaque_ptr_1(%rip)
	movq	_TIG_iO_YvhX_1_takingInDig_1_opaque_ptr_1(%rip), %rax
	movq	%rax, _TIG_iO_YvhX_1_takingInDig_1_opaque_ptr_2(%rip)
	movq	_TIG_iO_YvhX_1_takingInDig_1_opaque_ptr_2(%rip), %rax
	movq	(%rax), %rax
	movq	%rax, _TIG_iO_YvhX_1_takingInDig_1_opaque_ptr_2(%rip)
	nop
	nop
	movzbl	buildforA(%rip), %eax
	testb	%al, %al
	je	.L88
	leaq	A(%rip), %rax
	movq	%rax, -56(%rbp)
	jmp	.L89
.L88:
	leaq	B(%rip), %rax
	movq	%rax, -56(%rbp)
.L89:
	movq	-56(%rbp), %rax
	movq	%rax, -8(%rbp)
	movq	-8(%rbp), %rax
	movl	(%rax), %edx
	movl	%edx, %eax
	sall	$2, %eax
	addl	%edx, %eax
	addl	%eax, %eax
	movl	%eax, %edx
	movsbl	-84(%rbp), %eax
	addl	%edx, %eax
	leal	-48(%rax), %edx
	movq	-8(%rbp), %rax
	movl	%edx, (%rax)
	movsbl	-84(%rbp), %eax
	movl	%eax, %edi
	call	displayTopRow
	movq	_TIG_iO_YvhX_1_takingInDig_1_opaque_ptr_1(%rip), %rdx
	movq	_TIG_iO_YvhX_1_takingInDig_1_opaque_ptr_2(%rip), %rax
	cmpq	%rax, %rdx
	leave
	.cfi_def_cfa 7, 8
	ret
	.cfi_endproc
.LFE15:
	.size	takingInDig, .-takingInDig
	.globl	displayTopRow
	.type	displayTopRow, @function
displayTopRow:
.LFB17:
	.cfi_startproc
	endbr64
	pushq	%rbp
	.cfi_def_cfa_offset 16
	.cfi_offset 6, -16
	movq	%rsp, %rbp
	.cfi_def_cfa_register 6
	subq	$64, %rsp
	movl	%edi, %eax
	movb	%al, -52(%rbp)
#APP
# 62 "/usr/include/x86_64-linux-gnu/bits/uintn-identity.h" 1
	##_ANNOTATION_INITIALREGION_-TIG-iO-YvhX-1-displayTopRow--34
# 0 "" 2
# 66 "/usr/include/x86_64-linux-gnu/bits/uintn-identity.h" 1
	##_ANNOTATION_ATOMICREGION_-TIG-iO-YvhX-1-displayTopRow--33
# 0 "" 2
#NO_APP
	movl	$24, %edi
	call	malloc@PLT
	movq	%rax, -24(%rbp)
	movq	-24(%rbp), %rax
	movq	-24(%rbp), %rdx
	movq	%rdx, (%rax)
	movq	-24(%rbp), %rax
	movq	-24(%rbp), %rdx
	movq	%rdx, 8(%rax)
	movq	-24(%rbp), %rax
	movq	%rax, _TIG_iO_YvhX_1_displayTopRow_1_opaque_list_1(%rip)
	call	rand@PLT
	movl	%eax, -36(%rbp)
	movl	$24, %edi
	call	malloc@PLT
	movq	%rax, -16(%rbp)
	movq	-16(%rbp), %rax
	movl	$0, 16(%rax)
	movq	_TIG_iO_YvhX_1_displayTopRow_1_opaque_list_1(%rip), %rax
	movq	(%rax), %rdx
	movq	-16(%rbp), %rax
	movq	%rdx, (%rax)
	movq	_TIG_iO_YvhX_1_displayTopRow_1_opaque_list_1(%rip), %rdx
	movq	-16(%rbp), %rax
	movq	%rdx, 8(%rax)
	movq	_TIG_iO_YvhX_1_displayTopRow_1_opaque_list_1(%rip), %rax
	movq	(%rax), %rax
	movq	-16(%rbp), %rdx
	movq	%rdx, 8(%rax)
	movq	_TIG_iO_YvhX_1_displayTopRow_1_opaque_list_1(%rip), %rax
	movq	-16(%rbp), %rdx
	movq	%rdx, (%rax)
	call	rand@PLT
	movl	%eax, -32(%rbp)
	movl	$24, %edi
	call	malloc@PLT
	movq	%rax, -8(%rbp)
	movq	-8(%rbp), %rax
	movl	-32(%rbp), %edx
	movl	%edx, 16(%rax)
	movq	_TIG_iO_YvhX_1_displayTopRow_1_opaque_list_1(%rip), %rax
	movq	(%rax), %rdx
	movq	-8(%rbp), %rax
	movq	%rdx, (%rax)
	movq	_TIG_iO_YvhX_1_displayTopRow_1_opaque_list_1(%rip), %rdx
	movq	-8(%rbp), %rax
	movq	%rdx, 8(%rax)
	movq	_TIG_iO_YvhX_1_displayTopRow_1_opaque_list_1(%rip), %rax
	movq	(%rax), %rax
	movq	-8(%rbp), %rdx
	movq	%rdx, 8(%rax)
	movq	_TIG_iO_YvhX_1_displayTopRow_1_opaque_list_1(%rip), %rax
	movq	-8(%rbp), %rdx
	movq	%rdx, (%rax)
	movq	_TIG_iO_YvhX_1_displayTopRow_1_opaque_list_1(%rip), %rax
	movq	(%rax), %rax
	movq	%rax, _TIG_iO_YvhX_1_displayTopRow_1_opaque_ptr_1(%rip)
	movq	_TIG_iO_YvhX_1_displayTopRow_1_opaque_ptr_1(%rip), %rax
	movq	%rax, _TIG_iO_YvhX_1_displayTopRow_1_opaque_ptr_2(%rip)
	nop
	nop
	movq	_TIG_iO_YvhX_1_takingInDig_1_opaque_ptr_1(%rip), %rdx
	movq	_TIG_iO_YvhX_1_takingInDig_1_opaque_ptr_2(%rip), %rax
	cmpq	%rax, %rdx
	jne	.L92
	movl	-28(%rbp), %eax
	movl	%eax, %edi
	call	changingState
.L92:
	movsbl	-52(%rbp), %eax
	movl	%eax, %edi
	call	LCD_print
	nop
	leave
	.cfi_def_cfa 7, 8
	ret
	.cfi_endproc
.LFE17:
	.size	displayTopRow, .-displayTopRow
	.globl	delay_ms
	.type	delay_ms, @function
delay_ms:
.LFB19:
	.cfi_startproc
	endbr64
	pushq	%rbp
	.cfi_def_cfa_offset 16
	.cfi_offset 6, -16
	movq	%rsp, %rbp
	.cfi_def_cfa_register 6
	subq	$64, %rsp
	movl	%edi, -52(%rbp)
#APP
# 67 "/usr/include/x86_64-linux-gnu/bits/uintn-identity.h" 1
	##_ANNOTATION_INITIALREGION_-TIG-iO-YvhX-1-delay-ms--32
# 0 "" 2
# 71 "/usr/include/x86_64-linux-gnu/bits/uintn-identity.h" 1
	##_ANNOTATION_ATOMICREGION_-TIG-iO-YvhX-1-delay-ms--31
# 0 "" 2
#NO_APP
	movl	$24, %edi
	call	malloc@PLT
	movq	%rax, -24(%rbp)
	movq	-24(%rbp), %rax
	movq	-24(%rbp), %rdx
	movq	%rdx, 16(%rax)
	movq	-24(%rbp), %rax
	movq	-24(%rbp), %rdx
	movq	%rdx, (%rax)
	movq	-24(%rbp), %rax
	movq	%rax, _TIG_iO_YvhX_1_delay_ms_1_opaque_list_1(%rip)
	call	rand@PLT
	movl	%eax, -32(%rbp)
	movl	$24, %edi
	call	malloc@PLT
	movq	%rax, -16(%rbp)
	movq	-16(%rbp), %rax
	movl	$0, 8(%rax)
	movq	_TIG_iO_YvhX_1_delay_ms_1_opaque_list_1(%rip), %rax
	movq	16(%rax), %rdx
	movq	-16(%rbp), %rax
	movq	%rdx, 16(%rax)
	movq	_TIG_iO_YvhX_1_delay_ms_1_opaque_list_1(%rip), %rdx
	movq	-16(%rbp), %rax
	movq	%rdx, (%rax)
	movq	_TIG_iO_YvhX_1_delay_ms_1_opaque_list_1(%rip), %rax
	movq	16(%rax), %rax
	movq	-16(%rbp), %rdx
	movq	%rdx, (%rax)
	movq	_TIG_iO_YvhX_1_delay_ms_1_opaque_list_1(%rip), %rax
	movq	-16(%rbp), %rdx
	movq	%rdx, 16(%rax)
	call	rand@PLT
	movl	%eax, -28(%rbp)
	movl	$24, %edi
	call	malloc@PLT
	movq	%rax, -8(%rbp)
	movq	-8(%rbp), %rax
	movl	-28(%rbp), %edx
	movl	%edx, 8(%rax)
	movq	_TIG_iO_YvhX_1_delay_ms_1_opaque_list_1(%rip), %rax
	movq	16(%rax), %rdx
	movq	-8(%rbp), %rax
	movq	%rdx, 16(%rax)
	movq	_TIG_iO_YvhX_1_delay_ms_1_opaque_list_1(%rip), %rdx
	movq	-8(%rbp), %rax
	movq	%rdx, (%rax)
	movq	_TIG_iO_YvhX_1_delay_ms_1_opaque_list_1(%rip), %rax
	movq	16(%rax), %rax
	movq	-8(%rbp), %rdx
	movq	%rdx, (%rax)
	movq	_TIG_iO_YvhX_1_delay_ms_1_opaque_list_1(%rip), %rax
	movq	-8(%rbp), %rdx
	movq	%rdx, 16(%rax)
	movq	_TIG_iO_YvhX_1_delay_ms_1_opaque_list_1(%rip), %rax
	movq	16(%rax), %rax
	movq	%rax, _TIG_iO_YvhX_1_delay_ms_1_opaque_ptr_1(%rip)
	movq	_TIG_iO_YvhX_1_delay_ms_1_opaque_ptr_1(%rip), %rax
	movq	%rax, _TIG_iO_YvhX_1_delay_ms_1_opaque_ptr_2(%rip)
	nop
	nop
	movq	_TIG_iO_YvhX_1_takingInDig_1_opaque_ptr_1(%rip), %rdx
	movq	_TIG_iO_YvhX_1_takingInDig_1_opaque_ptr_2(%rip), %rax
	cmpq	%rax, %rdx
	jne	.L95
#APP
# 100 "/usr/include/x86_64-linux-gnu/bits/uintn-identity.h" 1
	.byte 0xba,0xe8,0x62,0x2b,0x6f,0xda,0x7a,0x1
# 0 "" 2
#NO_APP
	jmp	.L97
.L95:
	movl	$0, -40(%rbp)
	jmp	.L97
.L100:
	movl	$0, -36(%rbp)
	jmp	.L98
.L99:
	addl	$1, -36(%rbp)
.L98:
	cmpl	$2999, -36(%rbp)
	jbe	.L99
	addl	$1, -40(%rbp)
.L97:
	movl	-40(%rbp), %eax
	cmpl	-52(%rbp), %eax
	jb	.L100
	nop
	leave
	.cfi_def_cfa 7, 8
	ret
	.cfi_endproc
.LFE19:
	.size	delay_ms, .-delay_ms
	.globl	KeyPad_Init
	.type	KeyPad_Init, @function
KeyPad_Init:
.LFB20:
	.cfi_startproc
	endbr64
	pushq	%rbp
	.cfi_def_cfa_offset 16
	.cfi_offset 6, -16
	movq	%rsp, %rbp
	.cfi_def_cfa_register 6
	subq	$48, %rsp
#APP
# 67 "bvernu_LCD-Calculator_main.c" 1
	##_ANNOTATION_INITIALREGION_-TIG-iO-YvhX-1-KeyPad-Init--6
# 0 "" 2
# 71 "bvernu_LCD-Calculator_main.c" 1
	##_ANNOTATION_ATOMICREGION_-TIG-iO-YvhX-1-KeyPad-Init--5
# 0 "" 2
#NO_APP
	movl	$24, %edi
	call	malloc@PLT
	movq	%rax, -32(%rbp)
	movq	-32(%rbp), %rax
	movq	-32(%rbp), %rdx
	movq	%rdx, 8(%rax)
	movq	-32(%rbp), %rax
	movq	-32(%rbp), %rdx
	movq	%rdx, 16(%rax)
	movq	-32(%rbp), %rax
	movq	%rax, _TIG_iO_YvhX_1_KeyPad_Init_1_opaque_list_1(%rip)
	call	rand@PLT
	movl	%eax, -44(%rbp)
	movl	$24, %edi
	call	malloc@PLT
	movq	%rax, -24(%rbp)
	movq	-24(%rbp), %rax
	movl	$0, (%rax)
	movq	_TIG_iO_YvhX_1_KeyPad_Init_1_opaque_list_1(%rip), %rax
	movq	8(%rax), %rdx
	movq	-24(%rbp), %rax
	movq	%rdx, 8(%rax)
	movq	_TIG_iO_YvhX_1_KeyPad_Init_1_opaque_list_1(%rip), %rdx
	movq	-24(%rbp), %rax
	movq	%rdx, 16(%rax)
	movq	_TIG_iO_YvhX_1_KeyPad_Init_1_opaque_list_1(%rip), %rax
	movq	8(%rax), %rax
	movq	-24(%rbp), %rdx
	movq	%rdx, 16(%rax)
	movq	_TIG_iO_YvhX_1_KeyPad_Init_1_opaque_list_1(%rip), %rax
	movq	-24(%rbp), %rdx
	movq	%rdx, 8(%rax)
	call	rand@PLT
	movl	%eax, -40(%rbp)
	movl	$24, %edi
	call	malloc@PLT
	movq	%rax, -16(%rbp)
	movq	-16(%rbp), %rax
	movl	-40(%rbp), %edx
	movl	%edx, (%rax)
	movq	_TIG_iO_YvhX_1_KeyPad_Init_1_opaque_list_1(%rip), %rax
	movq	8(%rax), %rdx
	movq	-16(%rbp), %rax
	movq	%rdx, 8(%rax)
	movq	_TIG_iO_YvhX_1_KeyPad_Init_1_opaque_list_1(%rip), %rdx
	movq	-16(%rbp), %rax
	movq	%rdx, 16(%rax)
	movq	_TIG_iO_YvhX_1_KeyPad_Init_1_opaque_list_1(%rip), %rax
	movq	8(%rax), %rax
	movq	-16(%rbp), %rdx
	movq	%rdx, 16(%rax)
	movq	_TIG_iO_YvhX_1_KeyPad_Init_1_opaque_list_1(%rip), %rax
	movq	-16(%rbp), %rdx
	movq	%rdx, 8(%rax)
	call	rand@PLT
	movl	%eax, -36(%rbp)
	movl	$24, %edi
	call	malloc@PLT
	movq	%rax, -8(%rbp)
	movl	-36(%rbp), %eax
	leal	(%rax,%rax), %edx
	movq	-8(%rbp), %rax
	movl	%edx, (%rax)
	movq	_TIG_iO_YvhX_1_KeyPad_Init_1_opaque_list_1(%rip), %rax
	movq	8(%rax), %rdx
	movq	-8(%rbp), %rax
	movq	%rdx, 8(%rax)
	movq	_TIG_iO_YvhX_1_KeyPad_Init_1_opaque_list_1(%rip), %rdx
	movq	-8(%rbp), %rax
	movq	%rdx, 16(%rax)
	movq	_TIG_iO_YvhX_1_KeyPad_Init_1_opaque_list_1(%rip), %rax
	movq	8(%rax), %rax
	movq	-8(%rbp), %rdx
	movq	%rdx, 16(%rax)
	movq	_TIG_iO_YvhX_1_KeyPad_Init_1_opaque_list_1(%rip), %rax
	movq	-8(%rbp), %rdx
	movq	%rdx, 8(%rax)
	movq	_TIG_iO_YvhX_1_KeyPad_Init_1_opaque_list_1(%rip), %rax
	movq	8(%rax), %rax
	movq	%rax, _TIG_iO_YvhX_1_KeyPad_Init_1_opaque_ptr_1(%rip)
	movq	_TIG_iO_YvhX_1_KeyPad_Init_1_opaque_ptr_1(%rip), %rax
	movq	%rax, _TIG_iO_YvhX_1_KeyPad_Init_1_opaque_ptr_2(%rip)
	nop
	nop
	movq	_TIG_iO_YvhX_1_takingInDig_1_opaque_ptr_1(%rip), %rdx
	movq	_TIG_iO_YvhX_1_takingInDig_1_opaque_ptr_2(%rip), %rax
	cmpq	%rax, %rdx
	je	.L105
	movl	$1074783752, %eax
	movq	(%rax), %rax
	movl	$1074783752, %edx
	orq	$20, %rax
	movq	%rax, (%rdx)
	movl	$1073767424, %eax
	movq	(%rax), %rax
	movl	$1073767424, %edx
	orb	$-16, %al
	movq	%rax, (%rdx)
	movl	$1073890304, %eax
	movq	(%rax), %rax
	movl	$1073890304, %edx
	andq	$-16, %rax
	movq	%rax, (%rdx)
	movl	$1073890580, %eax
	movq	(%rax), %rax
	movl	$1073890580, %edx
	orq	$15, %rax
	movq	%rax, (%rdx)
	movl	$1073767708, %eax
	movq	(%rax), %rax
	movl	$1073767708, %edx
	orb	$-16, %al
	movq	%rax, (%rdx)
	movl	$1073890588, %eax
	movq	(%rax), %rax
	movl	$1073890588, %edx
	orq	$15, %rax
	movq	%rax, (%rdx)
	nop
.L105:
	nop
	leave
	.cfi_def_cfa 7, 8
	ret
	.cfi_endproc
.LFE20:
	.size	KeyPad_Init, .-KeyPad_Init
	.ident	"GCC: (Ubuntu 11.4.0-1ubuntu1~22.04) 11.4.0"
	.section	.note.GNU-stack,"",@progbits
	.section	.note.gnu.property,"a"
	.align 8
	.long	1f - 0f
	.long	4f - 1f
	.long	5
0:
	.string	"GNU"
1:
	.align 8
	.long	0xc0000002
	.long	3f - 2f
2:
	.long	0x3
3:
	.align 8
4:
