	.file	"DAAS69_k24-0997_Question6_opaque.c"
	.text
	.globl	_TIG_iO_N3Pk_1_display_1_opaque_ptr_1
	.bss
	.align 8
	.type	_TIG_iO_N3Pk_1_display_1_opaque_ptr_1, @object
	.size	_TIG_iO_N3Pk_1_display_1_opaque_ptr_1, 8
_TIG_iO_N3Pk_1_display_1_opaque_ptr_1:
	.zero	8
	.globl	_TIG_iO_N3Pk_1___bswap_16_1_opaque_list_2
	.align 8
	.type	_TIG_iO_N3Pk_1___bswap_16_1_opaque_list_2, @object
	.size	_TIG_iO_N3Pk_1___bswap_16_1_opaque_list_2, 8
_TIG_iO_N3Pk_1___bswap_16_1_opaque_list_2:
	.zero	8
	.globl	_TIG_iO_N3Pk_1___bswap_64_1_opaque_ptr_2
	.align 8
	.type	_TIG_iO_N3Pk_1___bswap_64_1_opaque_ptr_2, @object
	.size	_TIG_iO_N3Pk_1___bswap_64_1_opaque_ptr_2, 8
_TIG_iO_N3Pk_1___bswap_64_1_opaque_ptr_2:
	.zero	8
	.globl	_TIG_iO_N3Pk_1_display_1_opaque_ptr_2
	.align 8
	.type	_TIG_iO_N3Pk_1_display_1_opaque_ptr_2, @object
	.size	_TIG_iO_N3Pk_1_display_1_opaque_ptr_2, 8
_TIG_iO_N3Pk_1_display_1_opaque_ptr_2:
	.zero	8
	.globl	_TIG_iO_N3Pk_1___uint16_identity_1_opaque_ptr_2
	.align 8
	.type	_TIG_iO_N3Pk_1___uint16_identity_1_opaque_ptr_2, @object
	.size	_TIG_iO_N3Pk_1___uint16_identity_1_opaque_ptr_2, 8
_TIG_iO_N3Pk_1___uint16_identity_1_opaque_ptr_2:
	.zero	8
	.globl	_TIG_iO_N3Pk_1___uint64_identity_1_opaque_list_2
	.align 8
	.type	_TIG_iO_N3Pk_1___uint64_identity_1_opaque_list_2, @object
	.size	_TIG_iO_N3Pk_1___uint64_identity_1_opaque_list_2, 8
_TIG_iO_N3Pk_1___uint64_identity_1_opaque_list_2:
	.zero	8
	.globl	_TIG_iO_N3Pk_1___bswap_32_1_opaque_list_2
	.align 8
	.type	_TIG_iO_N3Pk_1___bswap_32_1_opaque_list_2, @object
	.size	_TIG_iO_N3Pk_1___bswap_32_1_opaque_list_2, 8
_TIG_iO_N3Pk_1___bswap_32_1_opaque_list_2:
	.zero	8
	.globl	_TIG_iO_N3Pk_1_main_1_opaque_list_2
	.align 8
	.type	_TIG_iO_N3Pk_1_main_1_opaque_list_2, @object
	.size	_TIG_iO_N3Pk_1_main_1_opaque_list_2, 8
_TIG_iO_N3Pk_1_main_1_opaque_list_2:
	.zero	8
	.globl	_TIG_iO_N3Pk_1_main_1_opaque_ptr_2
	.align 8
	.type	_TIG_iO_N3Pk_1_main_1_opaque_ptr_2, @object
	.size	_TIG_iO_N3Pk_1_main_1_opaque_ptr_2, 8
_TIG_iO_N3Pk_1_main_1_opaque_ptr_2:
	.zero	8
	.globl	_TIG_iO_N3Pk_1___uint32_identity_1_opaque_list_1
	.align 8
	.type	_TIG_iO_N3Pk_1___uint32_identity_1_opaque_list_1, @object
	.size	_TIG_iO_N3Pk_1___uint32_identity_1_opaque_list_1, 8
_TIG_iO_N3Pk_1___uint32_identity_1_opaque_list_1:
	.zero	8
	.globl	_TIG_iO_N3Pk_1___bswap_64_1_opaque_list_2
	.align 8
	.type	_TIG_iO_N3Pk_1___bswap_64_1_opaque_list_2, @object
	.size	_TIG_iO_N3Pk_1___bswap_64_1_opaque_list_2, 8
_TIG_iO_N3Pk_1___bswap_64_1_opaque_list_2:
	.zero	8
	.globl	_TIG_IZ_N3Pk_argc
	.align 4
	.type	_TIG_IZ_N3Pk_argc, @object
	.size	_TIG_IZ_N3Pk_argc, 4
_TIG_IZ_N3Pk_argc:
	.zero	4
	.globl	_TIG_iO_N3Pk_1___uint64_identity_1_opaque_list_1
	.align 8
	.type	_TIG_iO_N3Pk_1___uint64_identity_1_opaque_list_1, @object
	.size	_TIG_iO_N3Pk_1___uint64_identity_1_opaque_list_1, 8
_TIG_iO_N3Pk_1___uint64_identity_1_opaque_list_1:
	.zero	8
	.globl	_TIG_iO_N3Pk_1___uint64_identity_1_opaque_ptr_2
	.align 8
	.type	_TIG_iO_N3Pk_1___uint64_identity_1_opaque_ptr_2, @object
	.size	_TIG_iO_N3Pk_1___uint64_identity_1_opaque_ptr_2, 8
_TIG_iO_N3Pk_1___uint64_identity_1_opaque_ptr_2:
	.zero	8
	.globl	_TIG_iO_N3Pk_1___bswap_16_1_opaque_list_1
	.align 8
	.type	_TIG_iO_N3Pk_1___bswap_16_1_opaque_list_1, @object
	.size	_TIG_iO_N3Pk_1___bswap_16_1_opaque_list_1, 8
_TIG_iO_N3Pk_1___bswap_16_1_opaque_list_1:
	.zero	8
	.globl	_TIG_iO_N3Pk_1_display_1_opaque_list_2
	.align 8
	.type	_TIG_iO_N3Pk_1_display_1_opaque_list_2, @object
	.size	_TIG_iO_N3Pk_1_display_1_opaque_list_2, 8
_TIG_iO_N3Pk_1_display_1_opaque_list_2:
	.zero	8
	.globl	_TIG_iO_N3Pk_1_book_package_1_opaque_list_2
	.align 8
	.type	_TIG_iO_N3Pk_1_book_package_1_opaque_list_2, @object
	.size	_TIG_iO_N3Pk_1_book_package_1_opaque_list_2, 8
_TIG_iO_N3Pk_1_book_package_1_opaque_list_2:
	.zero	8
	.globl	_TIG_iO_N3Pk_1_main_1_opaque_list_1
	.align 8
	.type	_TIG_iO_N3Pk_1_main_1_opaque_list_1, @object
	.size	_TIG_iO_N3Pk_1_main_1_opaque_list_1, 8
_TIG_iO_N3Pk_1_main_1_opaque_list_1:
	.zero	8
	.globl	_TIG_iO_N3Pk_1___bswap_16_1_opaque_ptr_1
	.align 8
	.type	_TIG_iO_N3Pk_1___bswap_16_1_opaque_ptr_1, @object
	.size	_TIG_iO_N3Pk_1___bswap_16_1_opaque_ptr_1, 8
_TIG_iO_N3Pk_1___bswap_16_1_opaque_ptr_1:
	.zero	8
	.globl	_TIG_iO_N3Pk_1_book_package_1_opaque_list_1
	.align 8
	.type	_TIG_iO_N3Pk_1_book_package_1_opaque_list_1, @object
	.size	_TIG_iO_N3Pk_1_book_package_1_opaque_list_1, 8
_TIG_iO_N3Pk_1_book_package_1_opaque_list_1:
	.zero	8
	.globl	_TIG_iO_N3Pk_1___bswap_16_1_opaque_ptr_2
	.align 8
	.type	_TIG_iO_N3Pk_1___bswap_16_1_opaque_ptr_2, @object
	.size	_TIG_iO_N3Pk_1___bswap_16_1_opaque_ptr_2, 8
_TIG_iO_N3Pk_1___bswap_16_1_opaque_ptr_2:
	.zero	8
	.globl	_TIG_iO_N3Pk_1___bswap_64_1_opaque_ptr_1
	.align 8
	.type	_TIG_iO_N3Pk_1___bswap_64_1_opaque_ptr_1, @object
	.size	_TIG_iO_N3Pk_1___bswap_64_1_opaque_ptr_1, 8
_TIG_iO_N3Pk_1___bswap_64_1_opaque_ptr_1:
	.zero	8
	.globl	_TIG_iO_N3Pk_1___bswap_32_1_opaque_ptr_1
	.align 8
	.type	_TIG_iO_N3Pk_1___bswap_32_1_opaque_ptr_1, @object
	.size	_TIG_iO_N3Pk_1___bswap_32_1_opaque_ptr_1, 8
_TIG_iO_N3Pk_1___bswap_32_1_opaque_ptr_1:
	.zero	8
	.globl	_TIG_iO_N3Pk_1_book_package_1_opaque_ptr_2
	.align 8
	.type	_TIG_iO_N3Pk_1_book_package_1_opaque_ptr_2, @object
	.size	_TIG_iO_N3Pk_1_book_package_1_opaque_ptr_2, 8
_TIG_iO_N3Pk_1_book_package_1_opaque_ptr_2:
	.zero	8
	.globl	_TIG_iO_N3Pk_1___uint32_identity_1_opaque_ptr_2
	.align 8
	.type	_TIG_iO_N3Pk_1___uint32_identity_1_opaque_ptr_2, @object
	.size	_TIG_iO_N3Pk_1___uint32_identity_1_opaque_ptr_2, 8
_TIG_iO_N3Pk_1___uint32_identity_1_opaque_ptr_2:
	.zero	8
	.globl	_TIG_iO_N3Pk_1_display_1_opaque_list_1
	.align 8
	.type	_TIG_iO_N3Pk_1_display_1_opaque_list_1, @object
	.size	_TIG_iO_N3Pk_1_display_1_opaque_list_1, 8
_TIG_iO_N3Pk_1_display_1_opaque_list_1:
	.zero	8
	.globl	_TIG_iO_N3Pk_1___uint16_identity_1_opaque_list_1
	.align 8
	.type	_TIG_iO_N3Pk_1___uint16_identity_1_opaque_list_1, @object
	.size	_TIG_iO_N3Pk_1___uint16_identity_1_opaque_list_1, 8
_TIG_iO_N3Pk_1___uint16_identity_1_opaque_list_1:
	.zero	8
	.globl	_TIG_iO_N3Pk_1___uint16_identity_1_opaque_ptr_1
	.align 8
	.type	_TIG_iO_N3Pk_1___uint16_identity_1_opaque_ptr_1, @object
	.size	_TIG_iO_N3Pk_1___uint16_identity_1_opaque_ptr_1, 8
_TIG_iO_N3Pk_1___uint16_identity_1_opaque_ptr_1:
	.zero	8
	.globl	_TIG_iO_N3Pk_1___bswap_32_1_opaque_list_1
	.align 8
	.type	_TIG_iO_N3Pk_1___bswap_32_1_opaque_list_1, @object
	.size	_TIG_iO_N3Pk_1___bswap_32_1_opaque_list_1, 8
_TIG_iO_N3Pk_1___bswap_32_1_opaque_list_1:
	.zero	8
	.globl	_TIG_iO_N3Pk_1___bswap_32_1_opaque_ptr_2
	.align 8
	.type	_TIG_iO_N3Pk_1___bswap_32_1_opaque_ptr_2, @object
	.size	_TIG_iO_N3Pk_1___bswap_32_1_opaque_ptr_2, 8
_TIG_iO_N3Pk_1___bswap_32_1_opaque_ptr_2:
	.zero	8
	.globl	_TIG_IZ_N3Pk_envp
	.align 8
	.type	_TIG_IZ_N3Pk_envp, @object
	.size	_TIG_IZ_N3Pk_envp, 8
_TIG_IZ_N3Pk_envp:
	.zero	8
	.globl	_TIG_IZ_N3Pk_argv
	.align 8
	.type	_TIG_IZ_N3Pk_argv, @object
	.size	_TIG_IZ_N3Pk_argv, 8
_TIG_IZ_N3Pk_argv:
	.zero	8
	.globl	_TIG_iO_N3Pk_1___uint16_identity_1_opaque_list_2
	.align 8
	.type	_TIG_iO_N3Pk_1___uint16_identity_1_opaque_list_2, @object
	.size	_TIG_iO_N3Pk_1___uint16_identity_1_opaque_list_2, 8
_TIG_iO_N3Pk_1___uint16_identity_1_opaque_list_2:
	.zero	8
	.globl	_TIG_iO_N3Pk_1___uint64_identity_1_opaque_ptr_1
	.align 8
	.type	_TIG_iO_N3Pk_1___uint64_identity_1_opaque_ptr_1, @object
	.size	_TIG_iO_N3Pk_1___uint64_identity_1_opaque_ptr_1, 8
_TIG_iO_N3Pk_1___uint64_identity_1_opaque_ptr_1:
	.zero	8
	.globl	_TIG_iO_N3Pk_1_main_1_opaque_ptr_1
	.align 8
	.type	_TIG_iO_N3Pk_1_main_1_opaque_ptr_1, @object
	.size	_TIG_iO_N3Pk_1_main_1_opaque_ptr_1, 8
_TIG_iO_N3Pk_1_main_1_opaque_ptr_1:
	.zero	8
	.globl	_TIG_iO_N3Pk_1___uint32_identity_1_opaque_list_2
	.align 8
	.type	_TIG_iO_N3Pk_1___uint32_identity_1_opaque_list_2, @object
	.size	_TIG_iO_N3Pk_1___uint32_identity_1_opaque_list_2, 8
_TIG_iO_N3Pk_1___uint32_identity_1_opaque_list_2:
	.zero	8
	.globl	_TIG_iO_N3Pk_1___bswap_64_1_opaque_list_1
	.align 8
	.type	_TIG_iO_N3Pk_1___bswap_64_1_opaque_list_1, @object
	.size	_TIG_iO_N3Pk_1___bswap_64_1_opaque_list_1, 8
_TIG_iO_N3Pk_1___bswap_64_1_opaque_list_1:
	.zero	8
	.globl	_TIG_iO_N3Pk_1___uint32_identity_1_opaque_ptr_1
	.align 8
	.type	_TIG_iO_N3Pk_1___uint32_identity_1_opaque_ptr_1, @object
	.size	_TIG_iO_N3Pk_1___uint32_identity_1_opaque_ptr_1, 8
_TIG_iO_N3Pk_1___uint32_identity_1_opaque_ptr_1:
	.zero	8
	.globl	_TIG_iO_N3Pk_1_book_package_1_opaque_ptr_1
	.align 8
	.type	_TIG_iO_N3Pk_1_book_package_1_opaque_ptr_1, @object
	.size	_TIG_iO_N3Pk_1_book_package_1_opaque_ptr_1, 8
_TIG_iO_N3Pk_1_book_package_1_opaque_ptr_1:
	.zero	8
	.section	.rodata
.LC0:
	.string	"Welcome to Fast Travels!"
.LC1:
	.string	"1. Display available packages"
.LC2:
	.string	"2. Book a package"
.LC3:
	.string	"3. Exit"
.LC4:
	.string	"Enter your choice: "
.LC5:
	.string	"%d"
.LC6:
	.string	"exiting :)"
	.align 8
.LC7:
	.string	"Invalid choice! Please try again."
	.text
	.globl	main
	.type	main, @function
main:
.LFB0:
	.cfi_startproc
	endbr64
	pushq	%rbp
	.cfi_def_cfa_offset 16
	.cfi_offset 6, -16
	movq	%rsp, %rbp
	.cfi_def_cfa_register 6
	subq	$208, %rsp
	movl	%edi, -180(%rbp)
	movq	%rsi, -192(%rbp)
	movq	%rdx, -200(%rbp)
	movq	%fs:40, %rax
	movq	%rax, -8(%rbp)
	xorl	%eax, %eax
	movq	$0, _TIG_IZ_N3Pk_envp(%rip)
	nop
.L2:
	movq	$0, _TIG_IZ_N3Pk_argv(%rip)
	nop
.L3:
	movl	$0, _TIG_IZ_N3Pk_argc(%rip)
	nop
	nop
.L4:
.L5:
#APP
# 108 "/usr/include/stdlib.h" 1
	##_ANNOTATION_INITIALREGION_-TIG-IZ-N3Pk--0
# 0 "" 2
#NO_APP
	movl	-180(%rbp), %eax
	movl	%eax, _TIG_IZ_N3Pk_argc(%rip)
	movq	-192(%rbp), %rax
	movq	%rax, _TIG_IZ_N3Pk_argv(%rip)
	movq	-200(%rbp), %rax
	movq	%rax, _TIG_IZ_N3Pk_envp(%rip)
#APP
# 115 "/usr/include/stdlib.h" 1
	##_ANNOTATION_ATOMICREGION_-TIG-iO-N3Pk-1-main--17
# 0 "" 2
#NO_APP
	movl	$24, %edi
	call	malloc@PLT
	movq	%rax, -152(%rbp)
	movq	-152(%rbp), %rax
	movq	-152(%rbp), %rdx
	movq	%rdx, 8(%rax)
	movq	-152(%rbp), %rax
	movq	-152(%rbp), %rdx
	movq	%rdx, (%rax)
	movq	-152(%rbp), %rax
	movq	%rax, _TIG_iO_N3Pk_1_main_1_opaque_list_1(%rip)
	call	rand@PLT
	movl	%eax, -160(%rbp)
	movl	$24, %edi
	call	malloc@PLT
	movq	%rax, -144(%rbp)
	movq	-144(%rbp), %rax
	movl	$0, 16(%rax)
	movq	_TIG_iO_N3Pk_1_main_1_opaque_list_1(%rip), %rax
	movq	8(%rax), %rdx
	movq	-144(%rbp), %rax
	movq	%rdx, 8(%rax)
	movq	_TIG_iO_N3Pk_1_main_1_opaque_list_1(%rip), %rdx
	movq	-144(%rbp), %rax
	movq	%rdx, (%rax)
	movq	_TIG_iO_N3Pk_1_main_1_opaque_list_1(%rip), %rax
	movq	8(%rax), %rax
	movq	-144(%rbp), %rdx
	movq	%rdx, (%rax)
	movq	_TIG_iO_N3Pk_1_main_1_opaque_list_1(%rip), %rax
	movq	-144(%rbp), %rdx
	movq	%rdx, 8(%rax)
	call	rand@PLT
	movl	%eax, -156(%rbp)
	movl	$24, %edi
	call	malloc@PLT
	movq	%rax, -136(%rbp)
	movq	-136(%rbp), %rax
	movl	-156(%rbp), %edx
	movl	%edx, 16(%rax)
	movq	_TIG_iO_N3Pk_1_main_1_opaque_list_1(%rip), %rax
	movq	8(%rax), %rdx
	movq	-136(%rbp), %rax
	movq	%rdx, 8(%rax)
	movq	_TIG_iO_N3Pk_1_main_1_opaque_list_1(%rip), %rdx
	movq	-136(%rbp), %rax
	movq	%rdx, (%rax)
	movq	_TIG_iO_N3Pk_1_main_1_opaque_list_1(%rip), %rax
	movq	8(%rax), %rax
	movq	-136(%rbp), %rdx
	movq	%rdx, (%rax)
	movq	_TIG_iO_N3Pk_1_main_1_opaque_list_1(%rip), %rax
	movq	-136(%rbp), %rdx
	movq	%rdx, 8(%rax)
	movq	_TIG_iO_N3Pk_1_main_1_opaque_list_1(%rip), %rax
	movq	8(%rax), %rax
	movq	%rax, _TIG_iO_N3Pk_1_main_1_opaque_ptr_1(%rip)
	movq	_TIG_iO_N3Pk_1_main_1_opaque_ptr_1(%rip), %rax
	movq	%rax, _TIG_iO_N3Pk_1_main_1_opaque_ptr_2(%rip)
	movq	_TIG_iO_N3Pk_1_main_1_opaque_ptr_2(%rip), %rax
	movq	8(%rax), %rax
	movq	%rax, _TIG_iO_N3Pk_1_main_1_opaque_ptr_2(%rip)
	nop
	nop
	movb	$112, -128(%rbp)
	movb	$97, -127(%rbp)
	movb	$99, -126(%rbp)
	movb	$107, -125(%rbp)
	movb	$97, -124(%rbp)
	movb	$103, -123(%rbp)
	movb	$101, -122(%rbp)
	movb	$49, -121(%rbp)
	movb	$0, -120(%rbp)
	movb	$85, -119(%rbp)
	movb	$83, -118(%rbp)
	movb	$65, -117(%rbp)
	movb	$0, -116(%rbp)
	movl	$4, -172(%rbp)
.L10:
	movq	_TIG_iO_N3Pk_1_main_1_opaque_ptr_1(%rip), %rdx
	movq	_TIG_iO_N3Pk_1_main_1_opaque_ptr_2(%rip), %rax
	cmpq	%rax, %rdx
	jne	.L6
	cmpl	$8, -172(%rbp)
	seta	%al
	movzbl	%al, %eax
	cmpl	%eax, -160(%rbp)
	jne	.L7
	movl	-156(%rbp), %eax
	jmp	.L21
.L6:
	cmpl	$8, -172(%rbp)
	ja	.L24
.L7:
	movl	-172(%rbp), %eax
	movb	$0, -119(%rbp,%rax)
	addl	$1, -172(%rbp)
	jmp	.L10
.L24:
	nop
	movl	$10, -108(%rbp)
	movq	$600000, -104(%rbp)
	movl	$21, -96(%rbp)
	movb	$112, -88(%rbp)
	movb	$97, -87(%rbp)
	movb	$99, -86(%rbp)
	movb	$107, -85(%rbp)
	movb	$97, -84(%rbp)
	movb	$103, -83(%rbp)
	movb	$101, -82(%rbp)
	movb	$50, -81(%rbp)
	movb	$0, -80(%rbp)
	movb	$82, -79(%rbp)
	movb	$117, -78(%rbp)
	movb	$115, -77(%rbp)
	movb	$115, -76(%rbp)
	movb	$105, -75(%rbp)
	movb	$97, -74(%rbp)
	movb	$0, -73(%rbp)
	movl	$7, -168(%rbp)
	jmp	.L11
.L12:
	movl	-168(%rbp), %eax
	movb	$0, -79(%rbp,%rax)
	addl	$1, -168(%rbp)
.L11:
	cmpl	$8, -168(%rbp)
	jbe	.L12
	movl	$12, -68(%rbp)
	movq	$400000, -64(%rbp)
	movl	$32, -56(%rbp)
	movb	$112, -48(%rbp)
	movb	$97, -47(%rbp)
	movb	$99, -46(%rbp)
	movb	$107, -45(%rbp)
	movb	$97, -44(%rbp)
	movb	$103, -43(%rbp)
	movb	$101, -42(%rbp)
	movb	$51, -41(%rbp)
	movb	$0, -40(%rbp)
	movb	$67, -39(%rbp)
	movb	$104, -38(%rbp)
	movb	$105, -37(%rbp)
	movb	$110, -36(%rbp)
	movb	$97, -35(%rbp)
	movb	$0, -34(%rbp)
	movl	$6, -164(%rbp)
	jmp	.L13
.L14:
	movl	-164(%rbp), %eax
	movb	$0, -39(%rbp,%rax)
	addl	$1, -164(%rbp)
.L13:
	cmpl	$8, -164(%rbp)
	jbe	.L14
	movl	$14, -28(%rbp)
	movq	$200000, -24(%rbp)
	movl	$5, -16(%rbp)
.L20:
	leaq	.LC0(%rip), %rax
	movq	%rax, %rdi
	call	puts@PLT
	leaq	.LC1(%rip), %rax
	movq	%rax, %rdi
	call	puts@PLT
	leaq	.LC2(%rip), %rax
	movq	%rax, %rdi
	call	puts@PLT
	leaq	.LC3(%rip), %rax
	movq	%rax, %rdi
	call	puts@PLT
	leaq	.LC4(%rip), %rax
	movq	%rax, %rdi
	movl	$0, %eax
	call	printf@PLT
	leaq	-176(%rbp), %rax
	movq	%rax, %rsi
	leaq	.LC5(%rip), %rax
	movq	%rax, %rdi
	movl	$0, %eax
	call	__isoc99_scanf@PLT
	movl	-176(%rbp), %eax
	cmpl	$3, %eax
	je	.L15
	cmpl	$3, %eax
	jg	.L16
	cmpl	$1, %eax
	je	.L17
	cmpl	$2, %eax
	je	.L18
	jmp	.L16
.L17:
	leaq	-128(%rbp), %rax
	movq	%rax, %rdi
	call	display
	jmp	.L19
.L18:
	leaq	-128(%rbp), %rax
	movl	$3, %esi
	movq	%rax, %rdi
	call	book_package
	jmp	.L19
.L15:
	leaq	.LC6(%rip), %rax
	movq	%rax, %rdi
	movl	$0, %eax
	call	printf@PLT
	movl	$0, %eax
	jmp	.L21
.L16:
	leaq	.LC7(%rip), %rax
	movq	%rax, %rdi
	movl	$0, %eax
	call	printf@PLT
.L19:
	jmp	.L20
.L21:
	movq	-8(%rbp), %rdx
	subq	%fs:40, %rdx
	je	.L22
	call	__stack_chk_fail@PLT
.L22:
	leave
	.cfi_def_cfa 7, 8
	ret
	.cfi_endproc
.LFE0:
	.size	main, .-main
	.section	.rodata
.LC8:
	.string	"Package number %d:\n"
.LC9:
	.string	"Name: %s\n"
.LC10:
	.string	"Destination: %s\n"
.LC11:
	.string	"Duration: %d days\n"
.LC12:
	.string	"Cost: %ld\n"
.LC13:
	.string	"Available seats: %d\n\n"
	.text
	.globl	display
	.type	display, @function
display:
.LFB3:
	.cfi_startproc
	endbr64
	pushq	%rbp
	.cfi_def_cfa_offset 16
	.cfi_offset 6, -16
	movq	%rsp, %rbp
	.cfi_def_cfa_register 6
	subq	$64, %rsp
	movq	%rdi, -56(%rbp)
#APP
# 68 "/usr/include/x86_64-linux-gnu/bits/uintn-identity.h" 1
	##_ANNOTATION_INITIALREGION_-TIG-iO-N3Pk-1-display--16
# 0 "" 2
# 72 "/usr/include/x86_64-linux-gnu/bits/uintn-identity.h" 1
	##_ANNOTATION_ATOMICREGION_-TIG-iO-N3Pk-1-display--15
# 0 "" 2
#NO_APP
	movl	$24, %edi
	call	malloc@PLT
	movq	%rax, -24(%rbp)
	movq	-24(%rbp), %rax
	movq	-24(%rbp), %rdx
	movq	%rdx, 16(%rax)
	movq	-24(%rbp), %rax
	movq	-24(%rbp), %rdx
	movq	%rdx, 8(%rax)
	movq	-24(%rbp), %rax
	movq	%rax, _TIG_iO_N3Pk_1_display_1_opaque_list_1(%rip)
	call	rand@PLT
	movl	%eax, -32(%rbp)
	movl	$24, %edi
	call	malloc@PLT
	movq	%rax, -16(%rbp)
	movq	-16(%rbp), %rax
	movl	$0, (%rax)
	movq	_TIG_iO_N3Pk_1_display_1_opaque_list_1(%rip), %rax
	movq	16(%rax), %rdx
	movq	-16(%rbp), %rax
	movq	%rdx, 16(%rax)
	movq	_TIG_iO_N3Pk_1_display_1_opaque_list_1(%rip), %rdx
	movq	-16(%rbp), %rax
	movq	%rdx, 8(%rax)
	movq	_TIG_iO_N3Pk_1_display_1_opaque_list_1(%rip), %rax
	movq	16(%rax), %rax
	movq	-16(%rbp), %rdx
	movq	%rdx, 8(%rax)
	movq	_TIG_iO_N3Pk_1_display_1_opaque_list_1(%rip), %rax
	movq	-16(%rbp), %rdx
	movq	%rdx, 16(%rax)
	call	rand@PLT
	movl	%eax, -28(%rbp)
	movl	$24, %edi
	call	malloc@PLT
	movq	%rax, -8(%rbp)
	movq	-8(%rbp), %rax
	movl	-28(%rbp), %edx
	movl	%edx, (%rax)
	movq	_TIG_iO_N3Pk_1_display_1_opaque_list_1(%rip), %rax
	movq	16(%rax), %rdx
	movq	-8(%rbp), %rax
	movq	%rdx, 16(%rax)
	movq	_TIG_iO_N3Pk_1_display_1_opaque_list_1(%rip), %rdx
	movq	-8(%rbp), %rax
	movq	%rdx, 8(%rax)
	movq	_TIG_iO_N3Pk_1_display_1_opaque_list_1(%rip), %rax
	movq	16(%rax), %rax
	movq	-8(%rbp), %rdx
	movq	%rdx, 8(%rax)
	movq	_TIG_iO_N3Pk_1_display_1_opaque_list_1(%rip), %rax
	movq	-8(%rbp), %rdx
	movq	%rdx, 16(%rax)
	movq	_TIG_iO_N3Pk_1_display_1_opaque_list_1(%rip), %rax
	movq	16(%rax), %rax
	movq	%rax, _TIG_iO_N3Pk_1_display_1_opaque_ptr_1(%rip)
	movq	_TIG_iO_N3Pk_1_display_1_opaque_ptr_1(%rip), %rax
	movq	%rax, _TIG_iO_N3Pk_1_display_1_opaque_ptr_2(%rip)
	nop
	nop
	movl	$0, -36(%rbp)
	jmp	.L26
.L28:
	movq	_TIG_iO_N3Pk_1_main_1_opaque_ptr_1(%rip), %rdx
	movq	_TIG_iO_N3Pk_1_main_1_opaque_ptr_2(%rip), %rax
	cmpq	%rax, %rdx
	jne	.L27
	movq	-56(%rbp), %rax
	movq	%rax, %rdi
	call	display
.L27:
	movl	-36(%rbp), %eax
	addl	$1, %eax
	movl	%eax, %esi
	leaq	.LC8(%rip), %rax
	movq	%rax, %rdi
	movl	$0, %eax
	call	printf@PLT
	movl	-36(%rbp), %eax
	movslq	%eax, %rdx
	movq	%rdx, %rax
	salq	$2, %rax
	addq	%rdx, %rax
	salq	$3, %rax
	movq	%rax, %rdx
	movq	-56(%rbp), %rax
	addq	%rdx, %rax
	movq	%rax, %rsi
	leaq	.LC9(%rip), %rax
	movq	%rax, %rdi
	movl	$0, %eax
	call	printf@PLT
	movl	-36(%rbp), %eax
	movslq	%eax, %rdx
	movq	%rdx, %rax
	salq	$2, %rax
	addq	%rdx, %rax
	salq	$3, %rax
	movq	%rax, %rdx
	movq	-56(%rbp), %rax
	addq	%rdx, %rax
	addq	$9, %rax
	movq	%rax, %rsi
	leaq	.LC10(%rip), %rax
	movq	%rax, %rdi
	movl	$0, %eax
	call	printf@PLT
	movl	-36(%rbp), %eax
	movslq	%eax, %rdx
	movq	%rdx, %rax
	salq	$2, %rax
	addq	%rdx, %rax
	salq	$3, %rax
	movq	%rax, %rdx
	movq	-56(%rbp), %rax
	addq	%rdx, %rax
	movl	20(%rax), %eax
	movl	%eax, %esi
	leaq	.LC11(%rip), %rax
	movq	%rax, %rdi
	movl	$0, %eax
	call	printf@PLT
	movl	-36(%rbp), %eax
	movslq	%eax, %rdx
	movq	%rdx, %rax
	salq	$2, %rax
	addq	%rdx, %rax
	salq	$3, %rax
	movq	%rax, %rdx
	movq	-56(%rbp), %rax
	addq	%rdx, %rax
	movq	24(%rax), %rax
	movq	%rax, %rsi
	leaq	.LC12(%rip), %rax
	movq	%rax, %rdi
	movl	$0, %eax
	call	printf@PLT
	movl	-36(%rbp), %eax
	movslq	%eax, %rdx
	movq	%rdx, %rax
	salq	$2, %rax
	addq	%rdx, %rax
	salq	$3, %rax
	movq	%rax, %rdx
	movq	-56(%rbp), %rax
	addq	%rdx, %rax
	movl	32(%rax), %eax
	movl	%eax, %esi
	leaq	.LC13(%rip), %rax
	movq	%rax, %rdi
	movl	$0, %eax
	call	printf@PLT
	addl	$1, -36(%rbp)
.L26:
	cmpl	$2, -36(%rbp)
	jle	.L28
	nop
	leave
	.cfi_def_cfa 7, 8
	ret
	.cfi_endproc
.LFE3:
	.size	display, .-display
	.section	.rodata
.LC14:
	.string	"Available packages:"
	.align 8
.LC15:
	.string	"Enter the package number you want to book: "
	.align 8
.LC16:
	.string	"Invalid package choice! Please try again."
	.align 8
.LC17:
	.string	"Enter the number of seats you want to book: "
	.align 8
.LC18:
	.string	"Successfully booked %d seat(s) for package '%s'!\n\n"
	.align 8
.LC19:
	.string	"Sorry, only %d seat(s) are available for this package.\n\n"
	.text
	.globl	book_package
	.type	book_package, @function
book_package:
.LFB6:
	.cfi_startproc
	endbr64
	pushq	%rbp
	.cfi_def_cfa_offset 16
	.cfi_offset 6, -16
	movq	%rsp, %rbp
	.cfi_def_cfa_register 6
	subq	$96, %rsp
	movq	%rdi, -88(%rbp)
	movl	%esi, -92(%rbp)
	movq	%fs:40, %rax
	movq	%rax, -8(%rbp)
	xorl	%eax, %eax
#APP
# 64 "/usr/include/x86_64-linux-gnu/bits/uintn-identity.h" 1
	##_ANNOTATION_INITIALREGION_-TIG-iO-N3Pk-1-book-package--14
# 0 "" 2
# 68 "/usr/include/x86_64-linux-gnu/bits/uintn-identity.h" 1
	##_ANNOTATION_ATOMICREGION_-TIG-iO-N3Pk-1-book-package--13
# 0 "" 2
#NO_APP
	movl	$24, %edi
	call	malloc@PLT
	movq	%rax, -48(%rbp)
	movq	-48(%rbp), %rax
	movq	-48(%rbp), %rdx
	movq	%rdx, (%rax)
	movq	-48(%rbp), %rax
	movq	-48(%rbp), %rdx
	movq	%rdx, 8(%rax)
	movq	-48(%rbp), %rax
	movq	%rax, _TIG_iO_N3Pk_1_book_package_1_opaque_list_1(%rip)
	call	rand@PLT
	movl	%eax, -64(%rbp)
	movl	$24, %edi
	call	malloc@PLT
	movq	%rax, -40(%rbp)
	movq	-40(%rbp), %rax
	movl	$0, 16(%rax)
	movq	_TIG_iO_N3Pk_1_book_package_1_opaque_list_1(%rip), %rax
	movq	(%rax), %rdx
	movq	-40(%rbp), %rax
	movq	%rdx, (%rax)
	movq	_TIG_iO_N3Pk_1_book_package_1_opaque_list_1(%rip), %rdx
	movq	-40(%rbp), %rax
	movq	%rdx, 8(%rax)
	movq	_TIG_iO_N3Pk_1_book_package_1_opaque_list_1(%rip), %rax
	movq	(%rax), %rax
	movq	-40(%rbp), %rdx
	movq	%rdx, 8(%rax)
	movq	_TIG_iO_N3Pk_1_book_package_1_opaque_list_1(%rip), %rax
	movq	-40(%rbp), %rdx
	movq	%rdx, (%rax)
	call	rand@PLT
	movl	%eax, -60(%rbp)
	movl	$24, %edi
	call	malloc@PLT
	movq	%rax, -32(%rbp)
	movq	-32(%rbp), %rax
	movl	-60(%rbp), %edx
	movl	%edx, 16(%rax)
	movq	_TIG_iO_N3Pk_1_book_package_1_opaque_list_1(%rip), %rax
	movq	(%rax), %rdx
	movq	-32(%rbp), %rax
	movq	%rdx, (%rax)
	movq	_TIG_iO_N3Pk_1_book_package_1_opaque_list_1(%rip), %rdx
	movq	-32(%rbp), %rax
	movq	%rdx, 8(%rax)
	movq	_TIG_iO_N3Pk_1_book_package_1_opaque_list_1(%rip), %rax
	movq	(%rax), %rax
	movq	-32(%rbp), %rdx
	movq	%rdx, 8(%rax)
	movq	_TIG_iO_N3Pk_1_book_package_1_opaque_list_1(%rip), %rax
	movq	-32(%rbp), %rdx
	movq	%rdx, (%rax)
	call	rand@PLT
	movl	%eax, -56(%rbp)
	movl	$24, %edi
	call	malloc@PLT
	movq	%rax, -24(%rbp)
	movl	-56(%rbp), %eax
	leal	(%rax,%rax), %edx
	movq	-24(%rbp), %rax
	movl	%edx, 16(%rax)
	movq	_TIG_iO_N3Pk_1_book_package_1_opaque_list_1(%rip), %rax
	movq	(%rax), %rdx
	movq	-24(%rbp), %rax
	movq	%rdx, (%rax)
	movq	_TIG_iO_N3Pk_1_book_package_1_opaque_list_1(%rip), %rdx
	movq	-24(%rbp), %rax
	movq	%rdx, 8(%rax)
	movq	_TIG_iO_N3Pk_1_book_package_1_opaque_list_1(%rip), %rax
	movq	(%rax), %rax
	movq	-24(%rbp), %rdx
	movq	%rdx, 8(%rax)
	movq	_TIG_iO_N3Pk_1_book_package_1_opaque_list_1(%rip), %rax
	movq	-24(%rbp), %rdx
	movq	%rdx, (%rax)
	call	rand@PLT
	movl	%eax, -52(%rbp)
	movl	$24, %edi
	call	malloc@PLT
	movq	%rax, -16(%rbp)
	movl	-52(%rbp), %edx
	movl	%edx, %eax
	addl	%eax, %eax
	addl	%eax, %edx
	movq	-16(%rbp), %rax
	movl	%edx, 16(%rax)
	movq	_TIG_iO_N3Pk_1_book_package_1_opaque_list_1(%rip), %rax
	movq	(%rax), %rdx
	movq	-16(%rbp), %rax
	movq	%rdx, (%rax)
	movq	_TIG_iO_N3Pk_1_book_package_1_opaque_list_1(%rip), %rdx
	movq	-16(%rbp), %rax
	movq	%rdx, 8(%rax)
	movq	_TIG_iO_N3Pk_1_book_package_1_opaque_list_1(%rip), %rax
	movq	(%rax), %rax
	movq	-16(%rbp), %rdx
	movq	%rdx, 8(%rax)
	movq	_TIG_iO_N3Pk_1_book_package_1_opaque_list_1(%rip), %rax
	movq	-16(%rbp), %rdx
	movq	%rdx, (%rax)
	movq	_TIG_iO_N3Pk_1_book_package_1_opaque_list_1(%rip), %rax
	movq	(%rax), %rax
	movq	%rax, _TIG_iO_N3Pk_1_book_package_1_opaque_ptr_1(%rip)
	movq	_TIG_iO_N3Pk_1_book_package_1_opaque_ptr_1(%rip), %rax
	movq	%rax, _TIG_iO_N3Pk_1_book_package_1_opaque_ptr_2(%rip)
	movq	_TIG_iO_N3Pk_1_book_package_1_opaque_ptr_2(%rip), %rax
	movq	(%rax), %rax
	movq	%rax, _TIG_iO_N3Pk_1_book_package_1_opaque_ptr_2(%rip)
	nop
	nop
	leaq	.LC14(%rip), %rax
	movq	%rax, %rdi
	call	puts@PLT
	movq	-88(%rbp), %rax
	movq	%rax, %rdi
	call	display
	leaq	.LC15(%rip), %rax
	movq	%rax, %rdi
	movl	$0, %eax
	call	printf@PLT
	leaq	-72(%rbp), %rax
	movq	%rax, %rsi
	leaq	.LC5(%rip), %rax
	movq	%rax, %rdi
	movl	$0, %eax
	call	__isoc99_scanf@PLT
	movl	-72(%rbp), %eax
	testl	%eax, %eax
	jg	.L31
	leaq	.LC16(%rip), %rax
	movq	%rax, %rdi
	call	puts@PLT
	movq	-88(%rbp), %rax
	movl	$3, %esi
	movq	%rax, %rdi
	call	book_package
	jmp	.L32
.L31:
	movl	-72(%rbp), %eax
	cmpl	%eax, -92(%rbp)
	jge	.L32
	movq	_TIG_iO_N3Pk_1_main_1_opaque_ptr_1(%rip), %rdx
	movq	_TIG_iO_N3Pk_1_main_1_opaque_ptr_2(%rip), %rax
	cmpq	%rax, %rdx
	jne	.L33
	movq	-88(%rbp), %rax
	movq	%rax, %rdi
	call	display
.L33:
	leaq	.LC16(%rip), %rax
	movq	%rax, %rdi
	call	puts@PLT
	movq	-88(%rbp), %rax
	movl	$3, %esi
	movq	%rax, %rdi
	call	book_package
.L32:
	leaq	.LC17(%rip), %rax
	movq	%rax, %rdi
	movl	$0, %eax
	call	printf@PLT
	leaq	-68(%rbp), %rax
	movq	%rax, %rsi
	leaq	.LC5(%rip), %rax
	movq	%rax, %rdi
	movl	$0, %eax
	call	__isoc99_scanf@PLT
	movl	-72(%rbp), %eax
	movslq	%eax, %rdx
	movq	%rdx, %rax
	salq	$2, %rax
	addq	%rdx, %rax
	salq	$3, %rax
	leaq	-40(%rax), %rdx
	movq	-88(%rbp), %rax
	addq	%rdx, %rax
	movl	32(%rax), %edx
	movl	-68(%rbp), %eax
	cmpl	%eax, %edx
	jl	.L34
	movl	-72(%rbp), %eax
	movslq	%eax, %rdx
	movq	%rdx, %rax
	salq	$2, %rax
	addq	%rdx, %rax
	salq	$3, %rax
	leaq	-40(%rax), %rdx
	movq	-88(%rbp), %rax
	addq	%rdx, %rax
	movl	32(%rax), %ecx
	movl	-68(%rbp), %esi
	movl	-72(%rbp), %eax
	movslq	%eax, %rdx
	movq	%rdx, %rax
	salq	$2, %rax
	addq	%rdx, %rax
	salq	$3, %rax
	leaq	-40(%rax), %rdx
	movq	-88(%rbp), %rax
	addq	%rdx, %rax
	subl	%esi, %ecx
	movl	%ecx, %edx
	movl	%edx, 32(%rax)
	movl	-72(%rbp), %eax
	movslq	%eax, %rdx
	movq	%rdx, %rax
	salq	$2, %rax
	addq	%rdx, %rax
	salq	$3, %rax
	leaq	-40(%rax), %rdx
	movq	-88(%rbp), %rax
	addq	%rdx, %rax
	movq	%rax, %rdx
	movl	-68(%rbp), %eax
	movl	%eax, %esi
	leaq	.LC18(%rip), %rax
	movq	%rax, %rdi
	movl	$0, %eax
	call	printf@PLT
	jmp	.L30
.L34:
	movl	-72(%rbp), %eax
	movslq	%eax, %rdx
	movq	%rdx, %rax
	salq	$2, %rax
	addq	%rdx, %rax
	salq	$3, %rax
	leaq	-40(%rax), %rdx
	movq	-88(%rbp), %rax
	addq	%rdx, %rax
	movl	32(%rax), %eax
	movl	%eax, %esi
	leaq	.LC19(%rip), %rax
	movq	%rax, %rdi
	movl	$0, %eax
	call	printf@PLT
	nop
.L30:
	movq	-8(%rbp), %rax
	subq	%fs:40, %rax
	je	.L37
	call	__stack_chk_fail@PLT
.L37:
	leave
	.cfi_def_cfa 7, 8
	ret
	.cfi_endproc
.LFE6:
	.size	book_package, .-book_package
	.ident	"GCC: (Ubuntu 11.4.0-1ubuntu1~22.04) 11.4.0"
	.section	.note.GNU-stack,"",@progbits
	.section	.note.gnu.property,"a"
	.align 8
	.long	1f - 0f
	.long	4f - 1f
	.long	5
0:
	.string	"GNU"
1:
	.align 8
	.long	0xc0000002
	.long	3f - 2f
2:
	.long	0x3
3:
	.align 8
4:
