	.file	"Edssaac_projetos-c_1184_opaque.c"
	.text
	.globl	_TIG_iO_ZL55_1___bswap_32_1_opaque_ptr_1
	.bss
	.align 8
	.type	_TIG_iO_ZL55_1___bswap_32_1_opaque_ptr_1, @object
	.size	_TIG_iO_ZL55_1___bswap_32_1_opaque_ptr_1, 8
_TIG_iO_ZL55_1___bswap_32_1_opaque_ptr_1:
	.zero	8
	.globl	_TIG_iO_ZL55_1_main_1_opaque_ptr_2
	.align 8
	.type	_TIG_iO_ZL55_1_main_1_opaque_ptr_2, @object
	.size	_TIG_iO_ZL55_1_main_1_opaque_ptr_2, 8
_TIG_iO_ZL55_1_main_1_opaque_ptr_2:
	.zero	8
	.globl	_TIG_iO_ZL55_1___bswap_64_1_opaque_list_1
	.align 8
	.type	_TIG_iO_ZL55_1___bswap_64_1_opaque_list_1, @object
	.size	_TIG_iO_ZL55_1___bswap_64_1_opaque_list_1, 8
_TIG_iO_ZL55_1___bswap_64_1_opaque_list_1:
	.zero	8
	.globl	_TIG_iO_ZL55_1_main_1_opaque_list_1
	.align 8
	.type	_TIG_iO_ZL55_1_main_1_opaque_list_1, @object
	.size	_TIG_iO_ZL55_1_main_1_opaque_list_1, 8
_TIG_iO_ZL55_1_main_1_opaque_list_1:
	.zero	8
	.globl	_TIG_iO_ZL55_1___bswap_16_1_opaque_list_2
	.align 8
	.type	_TIG_iO_ZL55_1___bswap_16_1_opaque_list_2, @object
	.size	_TIG_iO_ZL55_1___bswap_16_1_opaque_list_2, 8
_TIG_iO_ZL55_1___bswap_16_1_opaque_list_2:
	.zero	8
	.globl	_TIG_iO_ZL55_1___uint32_identity_1_opaque_list_1
	.align 8
	.type	_TIG_iO_ZL55_1___uint32_identity_1_opaque_list_1, @object
	.size	_TIG_iO_ZL55_1___uint32_identity_1_opaque_list_1, 8
_TIG_iO_ZL55_1___uint32_identity_1_opaque_list_1:
	.zero	8
	.globl	_TIG_iO_ZL55_1___uint64_identity_1_opaque_list_2
	.align 8
	.type	_TIG_iO_ZL55_1___uint64_identity_1_opaque_list_2, @object
	.size	_TIG_iO_ZL55_1___uint64_identity_1_opaque_list_2, 8
_TIG_iO_ZL55_1___uint64_identity_1_opaque_list_2:
	.zero	8
	.globl	_TIG_iO_ZL55_1___uint16_identity_1_opaque_ptr_1
	.align 8
	.type	_TIG_iO_ZL55_1___uint16_identity_1_opaque_ptr_1, @object
	.size	_TIG_iO_ZL55_1___uint16_identity_1_opaque_ptr_1, 8
_TIG_iO_ZL55_1___uint16_identity_1_opaque_ptr_1:
	.zero	8
	.globl	_TIG_iO_ZL55_1___bswap_32_1_opaque_list_1
	.align 8
	.type	_TIG_iO_ZL55_1___bswap_32_1_opaque_list_1, @object
	.size	_TIG_iO_ZL55_1___bswap_32_1_opaque_list_1, 8
_TIG_iO_ZL55_1___bswap_32_1_opaque_list_1:
	.zero	8
	.globl	_TIG_iO_ZL55_1___uint64_identity_1_opaque_ptr_2
	.align 8
	.type	_TIG_iO_ZL55_1___uint64_identity_1_opaque_ptr_2, @object
	.size	_TIG_iO_ZL55_1___uint64_identity_1_opaque_ptr_2, 8
_TIG_iO_ZL55_1___uint64_identity_1_opaque_ptr_2:
	.zero	8
	.globl	_TIG_iO_ZL55_1___bswap_32_1_opaque_ptr_2
	.align 8
	.type	_TIG_iO_ZL55_1___bswap_32_1_opaque_ptr_2, @object
	.size	_TIG_iO_ZL55_1___bswap_32_1_opaque_ptr_2, 8
_TIG_iO_ZL55_1___bswap_32_1_opaque_ptr_2:
	.zero	8
	.globl	_TIG_IZ_ZL55_argv
	.align 8
	.type	_TIG_IZ_ZL55_argv, @object
	.size	_TIG_IZ_ZL55_argv, 8
_TIG_IZ_ZL55_argv:
	.zero	8
	.globl	_TIG_iO_ZL55_1___uint16_identity_1_opaque_ptr_2
	.align 8
	.type	_TIG_iO_ZL55_1___uint16_identity_1_opaque_ptr_2, @object
	.size	_TIG_iO_ZL55_1___uint16_identity_1_opaque_ptr_2, 8
_TIG_iO_ZL55_1___uint16_identity_1_opaque_ptr_2:
	.zero	8
	.globl	_TIG_iO_ZL55_1___uint64_identity_1_opaque_ptr_1
	.align 8
	.type	_TIG_iO_ZL55_1___uint64_identity_1_opaque_ptr_1, @object
	.size	_TIG_iO_ZL55_1___uint64_identity_1_opaque_ptr_1, 8
_TIG_iO_ZL55_1___uint64_identity_1_opaque_ptr_1:
	.zero	8
	.globl	_TIG_iO_ZL55_1___bswap_16_1_opaque_ptr_1
	.align 8
	.type	_TIG_iO_ZL55_1___bswap_16_1_opaque_ptr_1, @object
	.size	_TIG_iO_ZL55_1___bswap_16_1_opaque_ptr_1, 8
_TIG_iO_ZL55_1___bswap_16_1_opaque_ptr_1:
	.zero	8
	.globl	_TIG_iO_ZL55_1___bswap_64_1_opaque_ptr_1
	.align 8
	.type	_TIG_iO_ZL55_1___bswap_64_1_opaque_ptr_1, @object
	.size	_TIG_iO_ZL55_1___bswap_64_1_opaque_ptr_1, 8
_TIG_iO_ZL55_1___bswap_64_1_opaque_ptr_1:
	.zero	8
	.globl	_TIG_iO_ZL55_1_main_1_opaque_ptr_1
	.align 8
	.type	_TIG_iO_ZL55_1_main_1_opaque_ptr_1, @object
	.size	_TIG_iO_ZL55_1_main_1_opaque_ptr_1, 8
_TIG_iO_ZL55_1_main_1_opaque_ptr_1:
	.zero	8
	.globl	_TIG_iO_ZL55_1___bswap_16_1_opaque_ptr_2
	.align 8
	.type	_TIG_iO_ZL55_1___bswap_16_1_opaque_ptr_2, @object
	.size	_TIG_iO_ZL55_1___bswap_16_1_opaque_ptr_2, 8
_TIG_iO_ZL55_1___bswap_16_1_opaque_ptr_2:
	.zero	8
	.globl	_TIG_iO_ZL55_1___uint16_identity_1_opaque_list_1
	.align 8
	.type	_TIG_iO_ZL55_1___uint16_identity_1_opaque_list_1, @object
	.size	_TIG_iO_ZL55_1___uint16_identity_1_opaque_list_1, 8
_TIG_iO_ZL55_1___uint16_identity_1_opaque_list_1:
	.zero	8
	.globl	_TIG_IZ_ZL55_argc
	.align 4
	.type	_TIG_IZ_ZL55_argc, @object
	.size	_TIG_IZ_ZL55_argc, 4
_TIG_IZ_ZL55_argc:
	.zero	4
	.globl	_TIG_iO_ZL55_1_main_1_opaque_list_2
	.align 8
	.type	_TIG_iO_ZL55_1_main_1_opaque_list_2, @object
	.size	_TIG_iO_ZL55_1_main_1_opaque_list_2, 8
_TIG_iO_ZL55_1_main_1_opaque_list_2:
	.zero	8
	.globl	_TIG_iO_ZL55_1___uint64_identity_1_opaque_list_1
	.align 8
	.type	_TIG_iO_ZL55_1___uint64_identity_1_opaque_list_1, @object
	.size	_TIG_iO_ZL55_1___uint64_identity_1_opaque_list_1, 8
_TIG_iO_ZL55_1___uint64_identity_1_opaque_list_1:
	.zero	8
	.globl	_TIG_iO_ZL55_1___uint32_identity_1_opaque_ptr_2
	.align 8
	.type	_TIG_iO_ZL55_1___uint32_identity_1_opaque_ptr_2, @object
	.size	_TIG_iO_ZL55_1___uint32_identity_1_opaque_ptr_2, 8
_TIG_iO_ZL55_1___uint32_identity_1_opaque_ptr_2:
	.zero	8
	.globl	_TIG_iO_ZL55_1___uint32_identity_1_opaque_ptr_1
	.align 8
	.type	_TIG_iO_ZL55_1___uint32_identity_1_opaque_ptr_1, @object
	.size	_TIG_iO_ZL55_1___uint32_identity_1_opaque_ptr_1, 8
_TIG_iO_ZL55_1___uint32_identity_1_opaque_ptr_1:
	.zero	8
	.globl	_TIG_iO_ZL55_1___bswap_32_1_opaque_list_2
	.align 8
	.type	_TIG_iO_ZL55_1___bswap_32_1_opaque_list_2, @object
	.size	_TIG_iO_ZL55_1___bswap_32_1_opaque_list_2, 8
_TIG_iO_ZL55_1___bswap_32_1_opaque_list_2:
	.zero	8
	.globl	_TIG_iO_ZL55_1___uint16_identity_1_opaque_list_2
	.align 8
	.type	_TIG_iO_ZL55_1___uint16_identity_1_opaque_list_2, @object
	.size	_TIG_iO_ZL55_1___uint16_identity_1_opaque_list_2, 8
_TIG_iO_ZL55_1___uint16_identity_1_opaque_list_2:
	.zero	8
	.globl	_TIG_iO_ZL55_1___bswap_64_1_opaque_list_2
	.align 8
	.type	_TIG_iO_ZL55_1___bswap_64_1_opaque_list_2, @object
	.size	_TIG_iO_ZL55_1___bswap_64_1_opaque_list_2, 8
_TIG_iO_ZL55_1___bswap_64_1_opaque_list_2:
	.zero	8
	.globl	_TIG_iO_ZL55_1___bswap_16_1_opaque_list_1
	.align 8
	.type	_TIG_iO_ZL55_1___bswap_16_1_opaque_list_1, @object
	.size	_TIG_iO_ZL55_1___bswap_16_1_opaque_list_1, 8
_TIG_iO_ZL55_1___bswap_16_1_opaque_list_1:
	.zero	8
	.globl	_TIG_iO_ZL55_1___uint32_identity_1_opaque_list_2
	.align 8
	.type	_TIG_iO_ZL55_1___uint32_identity_1_opaque_list_2, @object
	.size	_TIG_iO_ZL55_1___uint32_identity_1_opaque_list_2, 8
_TIG_iO_ZL55_1___uint32_identity_1_opaque_list_2:
	.zero	8
	.globl	_TIG_iO_ZL55_1___bswap_64_1_opaque_ptr_2
	.align 8
	.type	_TIG_iO_ZL55_1___bswap_64_1_opaque_ptr_2, @object
	.size	_TIG_iO_ZL55_1___bswap_64_1_opaque_ptr_2, 8
_TIG_iO_ZL55_1___bswap_64_1_opaque_ptr_2:
	.zero	8
	.globl	_TIG_IZ_ZL55_envp
	.align 8
	.type	_TIG_IZ_ZL55_envp, @object
	.size	_TIG_IZ_ZL55_envp, 8
_TIG_IZ_ZL55_envp:
	.zero	8
	.section	.rodata
.LC1:
	.string	" %c"
.LC2:
	.string	"%f"
.LC3:
	.string	"%.1f\n"
	.text
	.globl	main
	.type	main, @function
main:
.LFB4:
	.cfi_startproc
	endbr64
	pushq	%rbp
	.cfi_def_cfa_offset 16
	.cfi_offset 6, -16
	movq	%rsp, %rbp
	.cfi_def_cfa_register 6
	subq	$704, %rsp
	movl	%edi, -676(%rbp)
	movq	%rsi, -688(%rbp)
	movq	%rdx, -696(%rbp)
	movq	%fs:40, %rax
	movq	%rax, -8(%rbp)
	xorl	%eax, %eax
	movq	$0, _TIG_IZ_ZL55_envp(%rip)
	nop
.L2:
	movq	$0, _TIG_IZ_ZL55_argv(%rip)
	nop
.L3:
	movl	$0, _TIG_IZ_ZL55_argc(%rip)
	nop
	nop
.L4:
.L5:
#APP
# 91 "/usr/include/x86_64-linux-gnu/bits/uintn-identity.h" 1
	##_ANNOTATION_INITIALREGION_-TIG-IZ-ZL55--0
# 0 "" 2
#NO_APP
	movl	-676(%rbp), %eax
	movl	%eax, _TIG_IZ_ZL55_argc(%rip)
	movq	-688(%rbp), %rax
	movq	%rax, _TIG_IZ_ZL55_argv(%rip)
	movq	-696(%rbp), %rax
	movq	%rax, _TIG_IZ_ZL55_envp(%rip)
#APP
# 98 "/usr/include/x86_64-linux-gnu/bits/uintn-identity.h" 1
	##_ANNOTATION_ATOMICREGION_-TIG-iO-ZL55-1-main--13
# 0 "" 2
#NO_APP
	movl	$24, %edi
	call	malloc@PLT
	movq	%rax, -632(%rbp)
	movq	-632(%rbp), %rax
	movq	-632(%rbp), %rdx
	movq	%rdx, (%rax)
	movq	-632(%rbp), %rax
	movq	-632(%rbp), %rdx
	movq	%rdx, 8(%rax)
	movq	-632(%rbp), %rax
	movq	%rax, _TIG_iO_ZL55_1_main_1_opaque_list_1(%rip)
	call	rand@PLT
	movl	%eax, -652(%rbp)
	movl	$24, %edi
	call	malloc@PLT
	movq	%rax, -624(%rbp)
	movq	-624(%rbp), %rax
	movl	$0, 16(%rax)
	movq	_TIG_iO_ZL55_1_main_1_opaque_list_1(%rip), %rax
	movq	(%rax), %rdx
	movq	-624(%rbp), %rax
	movq	%rdx, (%rax)
	movq	_TIG_iO_ZL55_1_main_1_opaque_list_1(%rip), %rdx
	movq	-624(%rbp), %rax
	movq	%rdx, 8(%rax)
	movq	_TIG_iO_ZL55_1_main_1_opaque_list_1(%rip), %rax
	movq	(%rax), %rax
	movq	-624(%rbp), %rdx
	movq	%rdx, 8(%rax)
	movq	_TIG_iO_ZL55_1_main_1_opaque_list_1(%rip), %rax
	movq	-624(%rbp), %rdx
	movq	%rdx, (%rax)
	call	rand@PLT
	movl	%eax, -648(%rbp)
	movl	$24, %edi
	call	malloc@PLT
	movq	%rax, -616(%rbp)
	movq	-616(%rbp), %rax
	movl	-648(%rbp), %edx
	movl	%edx, 16(%rax)
	movq	_TIG_iO_ZL55_1_main_1_opaque_list_1(%rip), %rax
	movq	(%rax), %rdx
	movq	-616(%rbp), %rax
	movq	%rdx, (%rax)
	movq	_TIG_iO_ZL55_1_main_1_opaque_list_1(%rip), %rdx
	movq	-616(%rbp), %rax
	movq	%rdx, 8(%rax)
	movq	_TIG_iO_ZL55_1_main_1_opaque_list_1(%rip), %rax
	movq	(%rax), %rax
	movq	-616(%rbp), %rdx
	movq	%rdx, 8(%rax)
	movq	_TIG_iO_ZL55_1_main_1_opaque_list_1(%rip), %rax
	movq	-616(%rbp), %rdx
	movq	%rdx, (%rax)
	call	rand@PLT
	movl	%eax, -644(%rbp)
	movl	$24, %edi
	call	malloc@PLT
	movq	%rax, -608(%rbp)
	movl	-644(%rbp), %eax
	leal	(%rax,%rax), %edx
	movq	-608(%rbp), %rax
	movl	%edx, 16(%rax)
	movq	_TIG_iO_ZL55_1_main_1_opaque_list_1(%rip), %rax
	movq	(%rax), %rdx
	movq	-608(%rbp), %rax
	movq	%rdx, (%rax)
	movq	_TIG_iO_ZL55_1_main_1_opaque_list_1(%rip), %rdx
	movq	-608(%rbp), %rax
	movq	%rdx, 8(%rax)
	movq	_TIG_iO_ZL55_1_main_1_opaque_list_1(%rip), %rax
	movq	(%rax), %rax
	movq	-608(%rbp), %rdx
	movq	%rdx, 8(%rax)
	movq	_TIG_iO_ZL55_1_main_1_opaque_list_1(%rip), %rax
	movq	-608(%rbp), %rdx
	movq	%rdx, (%rax)
	call	rand@PLT
	movl	%eax, -640(%rbp)
	movl	$24, %edi
	call	malloc@PLT
	movq	%rax, -600(%rbp)
	movl	-640(%rbp), %edx
	movl	%edx, %eax
	addl	%eax, %eax
	addl	%eax, %edx
	movq	-600(%rbp), %rax
	movl	%edx, 16(%rax)
	movq	_TIG_iO_ZL55_1_main_1_opaque_list_1(%rip), %rax
	movq	(%rax), %rdx
	movq	-600(%rbp), %rax
	movq	%rdx, (%rax)
	movq	_TIG_iO_ZL55_1_main_1_opaque_list_1(%rip), %rdx
	movq	-600(%rbp), %rax
	movq	%rdx, 8(%rax)
	movq	_TIG_iO_ZL55_1_main_1_opaque_list_1(%rip), %rax
	movq	(%rax), %rax
	movq	-600(%rbp), %rdx
	movq	%rdx, 8(%rax)
	movq	_TIG_iO_ZL55_1_main_1_opaque_list_1(%rip), %rax
	movq	-600(%rbp), %rdx
	movq	%rdx, (%rax)
	movq	_TIG_iO_ZL55_1_main_1_opaque_list_1(%rip), %rax
	movq	(%rax), %rax
	movq	%rax, _TIG_iO_ZL55_1_main_1_opaque_ptr_1(%rip)
	movq	_TIG_iO_ZL55_1_main_1_opaque_ptr_1(%rip), %rax
	movq	%rax, _TIG_iO_ZL55_1_main_1_opaque_ptr_2(%rip)
	movq	_TIG_iO_ZL55_1_main_1_opaque_ptr_2(%rip), %rax
	movq	(%rax), %rax
	movq	%rax, _TIG_iO_ZL55_1_main_1_opaque_ptr_2(%rip)
	nop
	nop
	pxor	%xmm0, %xmm0
	movss	%xmm0, -636(%rbp)
	movss	-636(%rbp), %xmm0
	movss	%xmm0, -668(%rbp)
	leaq	-669(%rbp), %rax
	movq	%rax, %rsi
	leaq	.LC1(%rip), %rax
	movq	%rax, %rdi
	movl	$0, %eax
	call	__isoc99_scanf@PLT
	movl	$0, -664(%rbp)
	jmp	.L6
.L9:
	movl	$0, -660(%rbp)
	jmp	.L7
.L8:
	leaq	-592(%rbp), %rcx
	movl	-660(%rbp), %eax
	movslq	%eax, %rsi
	movl	-664(%rbp), %eax
	movslq	%eax, %rdx
	movq	%rdx, %rax
	addq	%rax, %rax
	addq	%rdx, %rax
	salq	$2, %rax
	addq	%rsi, %rax
	salq	$2, %rax
	addq	%rcx, %rax
	movq	%rax, %rsi
	leaq	.LC2(%rip), %rax
	movq	%rax, %rdi
	movl	$0, %eax
	call	__isoc99_scanf@PLT
	addl	$1, -660(%rbp)
.L7:
	cmpl	$11, -660(%rbp)
	jle	.L8
	addl	$1, -664(%rbp)
.L6:
	cmpl	$11, -664(%rbp)
	jle	.L9
	movl	$1, -656(%rbp)
	movl	$1, -664(%rbp)
	jmp	.L10
.L13:
	movl	$0, -660(%rbp)
	jmp	.L11
.L12:
	movl	-660(%rbp), %eax
	movslq	%eax, %rcx
	movl	-664(%rbp), %eax
	movslq	%eax, %rdx
	movq	%rdx, %rax
	addq	%rax, %rax
	addq	%rdx, %rax
	salq	$2, %rax
	addq	%rcx, %rax
	movss	-592(%rbp,%rax,4), %xmm0
	movss	-668(%rbp), %xmm1
	addss	%xmm1, %xmm0
	movss	%xmm0, -668(%rbp)
	addl	$1, -660(%rbp)
.L11:
	movl	-660(%rbp), %eax
	cmpl	-656(%rbp), %eax
	jl	.L12
	addl	$1, -656(%rbp)
	addl	$1, -664(%rbp)
.L10:
	cmpl	$11, -664(%rbp)
	jle	.L13
	movq	_TIG_iO_ZL55_1_main_1_opaque_ptr_1(%rip), %rdx
	movq	_TIG_iO_ZL55_1_main_1_opaque_ptr_2(%rip), %rax
	cmpq	%rax, %rdx
	jne	.L14
	movq	-688(%rbp), %rdx
	movq	-696(%rbp), %rcx
	movl	-652(%rbp), %eax
	movq	%rcx, %rsi
	movl	%eax, %edi
	call	main
	movl	%eax, -676(%rbp)
.L14:
	movzbl	-669(%rbp), %eax
	movsbl	%al, %eax
	cmpl	$77, %eax
	je	.L15
	cmpl	$83, %eax
	jne	.L16
	pxor	%xmm2, %xmm2
	cvtss2sd	-668(%rbp), %xmm2
	movq	%xmm2, %rax
	movq	%rax, %xmm0
	leaq	.LC3(%rip), %rax
	movq	%rax, %rdi
	movl	$1, %eax
	call	printf@PLT
	jmp	.L16
.L15:
	movss	-668(%rbp), %xmm0
	movss	.LC4(%rip), %xmm1
	divss	%xmm1, %xmm0
	movss	%xmm0, -636(%rbp)
	pxor	%xmm3, %xmm3
	cvtss2sd	-636(%rbp), %xmm3
	movq	%xmm3, %rax
	movq	%rax, %xmm0
	leaq	.LC3(%rip), %rax
	movq	%rax, %rdi
	movl	$1, %eax
	call	printf@PLT
	nop
.L16:
	movl	$0, %eax
	movq	-8(%rbp), %rdx
	subq	%fs:40, %rdx
	je	.L18
	call	__stack_chk_fail@PLT
.L18:
	leave
	.cfi_def_cfa 7, 8
	ret
	.cfi_endproc
.LFE4:
	.size	main, .-main
	.section	.rodata
	.align 4
.LC4:
	.long	1115947008
	.ident	"GCC: (Ubuntu 11.4.0-1ubuntu1~22.04) 11.4.0"
	.section	.note.GNU-stack,"",@progbits
	.section	.note.gnu.property,"a"
	.align 8
	.long	1f - 0f
	.long	4f - 1f
	.long	5
0:
	.string	"GNU"
1:
	.align 8
	.long	0xc0000002
	.long	3f - 2f
2:
	.long	0x3
3:
	.align 8
4:
