	.file	"Harshpathakjnp_CCodings_main_opaque.c"
	.text
	.globl	_TIG_iO_cixh_1___bswap_64_1_opaque_list_2
	.bss
	.align 8
	.type	_TIG_iO_cixh_1___bswap_64_1_opaque_list_2, @object
	.size	_TIG_iO_cixh_1___bswap_64_1_opaque_list_2, 8
_TIG_iO_cixh_1___bswap_64_1_opaque_list_2:
	.zero	8
	.globl	_TIG_iO_cixh_1_getWeekDayForDate_1_opaque_list_2
	.align 8
	.type	_TIG_iO_cixh_1_getWeekDayForDate_1_opaque_list_2, @object
	.size	_TIG_iO_cixh_1_getWeekDayForDate_1_opaque_list_2, 8
_TIG_iO_cixh_1_getWeekDayForDate_1_opaque_list_2:
	.zero	8
	.globl	_TIG_iO_cixh_1_dayOfWeekByWeekDayNo_1_opaque_ptr_1
	.align 8
	.type	_TIG_iO_cixh_1_dayOfWeekByWeekDayNo_1_opaque_ptr_1, @object
	.size	_TIG_iO_cixh_1_dayOfWeekByWeekDayNo_1_opaque_ptr_1, 8
_TIG_iO_cixh_1_dayOfWeekByWeekDayNo_1_opaque_ptr_1:
	.zero	8
	.globl	_TIG_iO_cixh_1_isLeapYear_1_opaque_ptr_2
	.align 8
	.type	_TIG_iO_cixh_1_isLeapYear_1_opaque_ptr_2, @object
	.size	_TIG_iO_cixh_1_isLeapYear_1_opaque_ptr_2, 8
_TIG_iO_cixh_1_isLeapYear_1_opaque_ptr_2:
	.zero	8
	.globl	_TIG_iO_cixh_1___uint16_identity_1_opaque_list_1
	.align 8
	.type	_TIG_iO_cixh_1___uint16_identity_1_opaque_list_1, @object
	.size	_TIG_iO_cixh_1___uint16_identity_1_opaque_list_1, 8
_TIG_iO_cixh_1___uint16_identity_1_opaque_list_1:
	.zero	8
	.globl	_TIG_iO_cixh_1_printingCalender_1_opaque_list_1
	.align 8
	.type	_TIG_iO_cixh_1_printingCalender_1_opaque_list_1, @object
	.size	_TIG_iO_cixh_1_printingCalender_1_opaque_list_1, 8
_TIG_iO_cixh_1_printingCalender_1_opaque_list_1:
	.zero	8
	.globl	_TIG_iO_cixh_1_printingCalender_1_opaque_ptr_2
	.align 8
	.type	_TIG_iO_cixh_1_printingCalender_1_opaque_ptr_2, @object
	.size	_TIG_iO_cixh_1_printingCalender_1_opaque_ptr_2, 8
_TIG_iO_cixh_1_printingCalender_1_opaque_ptr_2:
	.zero	8
	.globl	_TIG_iO_cixh_1_dayDifferenceFromToday_1_opaque_list_1
	.align 8
	.type	_TIG_iO_cixh_1_dayDifferenceFromToday_1_opaque_list_1, @object
	.size	_TIG_iO_cixh_1_dayDifferenceFromToday_1_opaque_list_1, 8
_TIG_iO_cixh_1_dayDifferenceFromToday_1_opaque_list_1:
	.zero	8
	.globl	_TIG_iO_cixh_1___bswap_32_1_opaque_list_2
	.align 8
	.type	_TIG_iO_cixh_1___bswap_32_1_opaque_list_2, @object
	.size	_TIG_iO_cixh_1___bswap_32_1_opaque_list_2, 8
_TIG_iO_cixh_1___bswap_32_1_opaque_list_2:
	.zero	8
	.globl	_TIG_iO_cixh_1_monthNames_1_opaque_list_1
	.align 8
	.type	_TIG_iO_cixh_1_monthNames_1_opaque_list_1, @object
	.size	_TIG_iO_cixh_1_monthNames_1_opaque_list_1, 8
_TIG_iO_cixh_1_monthNames_1_opaque_list_1:
	.zero	8
	.globl	_TIG_iO_cixh_1_gapBetweenDates_1_opaque_ptr_1
	.align 8
	.type	_TIG_iO_cixh_1_gapBetweenDates_1_opaque_ptr_1, @object
	.size	_TIG_iO_cixh_1_gapBetweenDates_1_opaque_ptr_1, 8
_TIG_iO_cixh_1_gapBetweenDates_1_opaque_ptr_1:
	.zero	8
	.globl	_TIG_iO_cixh_1_dayDifferenceFromToday_1_opaque_list_2
	.align 8
	.type	_TIG_iO_cixh_1_dayDifferenceFromToday_1_opaque_list_2, @object
	.size	_TIG_iO_cixh_1_dayDifferenceFromToday_1_opaque_list_2, 8
_TIG_iO_cixh_1_dayDifferenceFromToday_1_opaque_list_2:
	.zero	8
	.globl	_TIG_iO_cixh_1___bswap_64_1_opaque_list_1
	.align 8
	.type	_TIG_iO_cixh_1___bswap_64_1_opaque_list_1, @object
	.size	_TIG_iO_cixh_1___bswap_64_1_opaque_list_1, 8
_TIG_iO_cixh_1___bswap_64_1_opaque_list_1:
	.zero	8
	.globl	_TIG_IZ_cixh_argv
	.align 8
	.type	_TIG_IZ_cixh_argv, @object
	.size	_TIG_IZ_cixh_argv, 8
_TIG_IZ_cixh_argv:
	.zero	8
	.globl	_TIG_iO_cixh_1_dayOfWeek_1_opaque_ptr_2
	.align 8
	.type	_TIG_iO_cixh_1_dayOfWeek_1_opaque_ptr_2, @object
	.size	_TIG_iO_cixh_1_dayOfWeek_1_opaque_ptr_2, 8
_TIG_iO_cixh_1_dayOfWeek_1_opaque_ptr_2:
	.zero	8
	.globl	_TIG_iO_cixh_1_monthNames_1_opaque_ptr_2
	.align 8
	.type	_TIG_iO_cixh_1_monthNames_1_opaque_ptr_2, @object
	.size	_TIG_iO_cixh_1_monthNames_1_opaque_ptr_2, 8
_TIG_iO_cixh_1_monthNames_1_opaque_ptr_2:
	.zero	8
	.globl	_TIG_iO_cixh_1_printingCalender_1_opaque_list_2
	.align 8
	.type	_TIG_iO_cixh_1_printingCalender_1_opaque_list_2, @object
	.size	_TIG_iO_cixh_1_printingCalender_1_opaque_list_2, 8
_TIG_iO_cixh_1_printingCalender_1_opaque_list_2:
	.zero	8
	.globl	_TIG_iO_cixh_1_dayOfWeek_1_opaque_ptr_1
	.align 8
	.type	_TIG_iO_cixh_1_dayOfWeek_1_opaque_ptr_1, @object
	.size	_TIG_iO_cixh_1_dayOfWeek_1_opaque_ptr_1, 8
_TIG_iO_cixh_1_dayOfWeek_1_opaque_ptr_1:
	.zero	8
	.globl	_TIG_iO_cixh_1___uint16_identity_1_opaque_ptr_2
	.align 8
	.type	_TIG_iO_cixh_1___uint16_identity_1_opaque_ptr_2, @object
	.size	_TIG_iO_cixh_1___uint16_identity_1_opaque_ptr_2, 8
_TIG_iO_cixh_1___uint16_identity_1_opaque_ptr_2:
	.zero	8
	.globl	_TIG_iO_cixh_1_getWeekDayForDate_1_opaque_ptr_2
	.align 8
	.type	_TIG_iO_cixh_1_getWeekDayForDate_1_opaque_ptr_2, @object
	.size	_TIG_iO_cixh_1_getWeekDayForDate_1_opaque_ptr_2, 8
_TIG_iO_cixh_1_getWeekDayForDate_1_opaque_ptr_2:
	.zero	8
	.globl	_TIG_iO_cixh_1_isDateValid_1_opaque_ptr_2
	.align 8
	.type	_TIG_iO_cixh_1_isDateValid_1_opaque_ptr_2, @object
	.size	_TIG_iO_cixh_1_isDateValid_1_opaque_ptr_2, 8
_TIG_iO_cixh_1_isDateValid_1_opaque_ptr_2:
	.zero	8
	.globl	_TIG_iO_cixh_1___uint32_identity_1_opaque_list_1
	.align 8
	.type	_TIG_iO_cixh_1___uint32_identity_1_opaque_list_1, @object
	.size	_TIG_iO_cixh_1___uint32_identity_1_opaque_list_1, 8
_TIG_iO_cixh_1___uint32_identity_1_opaque_list_1:
	.zero	8
	.globl	_TIG_iO_cixh_1___bswap_64_1_opaque_ptr_1
	.align 8
	.type	_TIG_iO_cixh_1___bswap_64_1_opaque_ptr_1, @object
	.size	_TIG_iO_cixh_1___bswap_64_1_opaque_ptr_1, 8
_TIG_iO_cixh_1___bswap_64_1_opaque_ptr_1:
	.zero	8
	.globl	_TIG_iO_cixh_1___uint64_identity_1_opaque_ptr_1
	.align 8
	.type	_TIG_iO_cixh_1___uint64_identity_1_opaque_ptr_1, @object
	.size	_TIG_iO_cixh_1___uint64_identity_1_opaque_ptr_1, 8
_TIG_iO_cixh_1___uint64_identity_1_opaque_ptr_1:
	.zero	8
	.globl	_TIG_iO_cixh_1___uint32_identity_1_opaque_ptr_2
	.align 8
	.type	_TIG_iO_cixh_1___uint32_identity_1_opaque_ptr_2, @object
	.size	_TIG_iO_cixh_1___uint32_identity_1_opaque_ptr_2, 8
_TIG_iO_cixh_1___uint32_identity_1_opaque_ptr_2:
	.zero	8
	.globl	_TIG_iO_cixh_1_daysInMonths_1_opaque_ptr_1
	.align 8
	.type	_TIG_iO_cixh_1_daysInMonths_1_opaque_ptr_1, @object
	.size	_TIG_iO_cixh_1_daysInMonths_1_opaque_ptr_1, 8
_TIG_iO_cixh_1_daysInMonths_1_opaque_ptr_1:
	.zero	8
	.globl	_TIG_iO_cixh_1_isLeapYear_1_opaque_ptr_1
	.align 8
	.type	_TIG_iO_cixh_1_isLeapYear_1_opaque_ptr_1, @object
	.size	_TIG_iO_cixh_1_isLeapYear_1_opaque_ptr_1, 8
_TIG_iO_cixh_1_isLeapYear_1_opaque_ptr_1:
	.zero	8
	.globl	_TIG_iO_cixh_1_compareDate_1_opaque_ptr_2
	.align 8
	.type	_TIG_iO_cixh_1_compareDate_1_opaque_ptr_2, @object
	.size	_TIG_iO_cixh_1_compareDate_1_opaque_ptr_2, 8
_TIG_iO_cixh_1_compareDate_1_opaque_ptr_2:
	.zero	8
	.globl	_TIG_iO_cixh_1___bswap_16_1_opaque_ptr_2
	.align 8
	.type	_TIG_iO_cixh_1___bswap_16_1_opaque_ptr_2, @object
	.size	_TIG_iO_cixh_1___bswap_16_1_opaque_ptr_2, 8
_TIG_iO_cixh_1___bswap_16_1_opaque_ptr_2:
	.zero	8
	.globl	_TIG_IZ_cixh_envp
	.align 8
	.type	_TIG_IZ_cixh_envp, @object
	.size	_TIG_IZ_cixh_envp, 8
_TIG_IZ_cixh_envp:
	.zero	8
	.globl	_TIG_iO_cixh_1___bswap_16_1_opaque_list_2
	.align 8
	.type	_TIG_iO_cixh_1___bswap_16_1_opaque_list_2, @object
	.size	_TIG_iO_cixh_1___bswap_16_1_opaque_list_2, 8
_TIG_iO_cixh_1___bswap_16_1_opaque_list_2:
	.zero	8
	.globl	_TIG_iO_cixh_1___uint16_identity_1_opaque_list_2
	.align 8
	.type	_TIG_iO_cixh_1___uint16_identity_1_opaque_list_2, @object
	.size	_TIG_iO_cixh_1___uint16_identity_1_opaque_list_2, 8
_TIG_iO_cixh_1___uint16_identity_1_opaque_list_2:
	.zero	8
	.globl	_TIG_iO_cixh_1___bswap_16_1_opaque_list_1
	.align 8
	.type	_TIG_iO_cixh_1___bswap_16_1_opaque_list_1, @object
	.size	_TIG_iO_cixh_1___bswap_16_1_opaque_list_1, 8
_TIG_iO_cixh_1___bswap_16_1_opaque_list_1:
	.zero	8
	.globl	_TIG_iO_cixh_1_gapBetweenDates_1_opaque_ptr_2
	.align 8
	.type	_TIG_iO_cixh_1_gapBetweenDates_1_opaque_ptr_2, @object
	.size	_TIG_iO_cixh_1_gapBetweenDates_1_opaque_ptr_2, 8
_TIG_iO_cixh_1_gapBetweenDates_1_opaque_ptr_2:
	.zero	8
	.globl	_TIG_iO_cixh_1_dayDifferenceFromToday_1_opaque_ptr_1
	.align 8
	.type	_TIG_iO_cixh_1_dayDifferenceFromToday_1_opaque_ptr_1, @object
	.size	_TIG_iO_cixh_1_dayDifferenceFromToday_1_opaque_ptr_1, 8
_TIG_iO_cixh_1_dayDifferenceFromToday_1_opaque_ptr_1:
	.zero	8
	.globl	_TIG_iO_cixh_1_main_1_opaque_ptr_1
	.align 8
	.type	_TIG_iO_cixh_1_main_1_opaque_ptr_1, @object
	.size	_TIG_iO_cixh_1_main_1_opaque_ptr_1, 8
_TIG_iO_cixh_1_main_1_opaque_ptr_1:
	.zero	8
	.globl	_TIG_iO_cixh_1___uint64_identity_1_opaque_list_1
	.align 8
	.type	_TIG_iO_cixh_1___uint64_identity_1_opaque_list_1, @object
	.size	_TIG_iO_cixh_1___uint64_identity_1_opaque_list_1, 8
_TIG_iO_cixh_1___uint64_identity_1_opaque_list_1:
	.zero	8
	.globl	_TIG_iO_cixh_1___bswap_32_1_opaque_ptr_2
	.align 8
	.type	_TIG_iO_cixh_1___bswap_32_1_opaque_ptr_2, @object
	.size	_TIG_iO_cixh_1___bswap_32_1_opaque_ptr_2, 8
_TIG_iO_cixh_1___bswap_32_1_opaque_ptr_2:
	.zero	8
	.globl	_TIG_iO_cixh_1___bswap_64_1_opaque_ptr_2
	.align 8
	.type	_TIG_iO_cixh_1___bswap_64_1_opaque_ptr_2, @object
	.size	_TIG_iO_cixh_1___bswap_64_1_opaque_ptr_2, 8
_TIG_iO_cixh_1___bswap_64_1_opaque_ptr_2:
	.zero	8
	.globl	_TIG_iO_cixh_1_isLeapYear_1_opaque_list_1
	.align 8
	.type	_TIG_iO_cixh_1_isLeapYear_1_opaque_list_1, @object
	.size	_TIG_iO_cixh_1_isLeapYear_1_opaque_list_1, 8
_TIG_iO_cixh_1_isLeapYear_1_opaque_list_1:
	.zero	8
	.globl	_TIG_iO_cixh_1___bswap_32_1_opaque_ptr_1
	.align 8
	.type	_TIG_iO_cixh_1___bswap_32_1_opaque_ptr_1, @object
	.size	_TIG_iO_cixh_1___bswap_32_1_opaque_ptr_1, 8
_TIG_iO_cixh_1___bswap_32_1_opaque_ptr_1:
	.zero	8
	.globl	_TIG_iO_cixh_1_dayDifferenceFromToday_1_opaque_ptr_2
	.align 8
	.type	_TIG_iO_cixh_1_dayDifferenceFromToday_1_opaque_ptr_2, @object
	.size	_TIG_iO_cixh_1_dayDifferenceFromToday_1_opaque_ptr_2, 8
_TIG_iO_cixh_1_dayDifferenceFromToday_1_opaque_ptr_2:
	.zero	8
	.globl	_TIG_iO_cixh_1___bswap_16_1_opaque_ptr_1
	.align 8
	.type	_TIG_iO_cixh_1___bswap_16_1_opaque_ptr_1, @object
	.size	_TIG_iO_cixh_1___bswap_16_1_opaque_ptr_1, 8
_TIG_iO_cixh_1___bswap_16_1_opaque_ptr_1:
	.zero	8
	.globl	_TIG_iO_cixh_1___uint32_identity_1_opaque_ptr_1
	.align 8
	.type	_TIG_iO_cixh_1___uint32_identity_1_opaque_ptr_1, @object
	.size	_TIG_iO_cixh_1___uint32_identity_1_opaque_ptr_1, 8
_TIG_iO_cixh_1___uint32_identity_1_opaque_ptr_1:
	.zero	8
	.globl	_TIG_iO_cixh_1_monthNames_1_opaque_list_2
	.align 8
	.type	_TIG_iO_cixh_1_monthNames_1_opaque_list_2, @object
	.size	_TIG_iO_cixh_1_monthNames_1_opaque_list_2, 8
_TIG_iO_cixh_1_monthNames_1_opaque_list_2:
	.zero	8
	.globl	_TIG_iO_cixh_1_isDateValid_1_opaque_list_2
	.align 8
	.type	_TIG_iO_cixh_1_isDateValid_1_opaque_list_2, @object
	.size	_TIG_iO_cixh_1_isDateValid_1_opaque_list_2, 8
_TIG_iO_cixh_1_isDateValid_1_opaque_list_2:
	.zero	8
	.globl	_TIG_iO_cixh_1___uint64_identity_1_opaque_list_2
	.align 8
	.type	_TIG_iO_cixh_1___uint64_identity_1_opaque_list_2, @object
	.size	_TIG_iO_cixh_1___uint64_identity_1_opaque_list_2, 8
_TIG_iO_cixh_1___uint64_identity_1_opaque_list_2:
	.zero	8
	.globl	_TIG_iO_cixh_1_getWeekDayForDate_1_opaque_list_1
	.align 8
	.type	_TIG_iO_cixh_1_getWeekDayForDate_1_opaque_list_1, @object
	.size	_TIG_iO_cixh_1_getWeekDayForDate_1_opaque_list_1, 8
_TIG_iO_cixh_1_getWeekDayForDate_1_opaque_list_1:
	.zero	8
	.globl	_TIG_iO_cixh_1___uint16_identity_1_opaque_ptr_1
	.align 8
	.type	_TIG_iO_cixh_1___uint16_identity_1_opaque_ptr_1, @object
	.size	_TIG_iO_cixh_1___uint16_identity_1_opaque_ptr_1, 8
_TIG_iO_cixh_1___uint16_identity_1_opaque_ptr_1:
	.zero	8
	.globl	_TIG_iO_cixh_1___bswap_32_1_opaque_list_1
	.align 8
	.type	_TIG_iO_cixh_1___bswap_32_1_opaque_list_1, @object
	.size	_TIG_iO_cixh_1___bswap_32_1_opaque_list_1, 8
_TIG_iO_cixh_1___bswap_32_1_opaque_list_1:
	.zero	8
	.globl	_TIG_iO_cixh_1_dayOfWeekByWeekDayNo_1_opaque_list_2
	.align 8
	.type	_TIG_iO_cixh_1_dayOfWeekByWeekDayNo_1_opaque_list_2, @object
	.size	_TIG_iO_cixh_1_dayOfWeekByWeekDayNo_1_opaque_list_2, 8
_TIG_iO_cixh_1_dayOfWeekByWeekDayNo_1_opaque_list_2:
	.zero	8
	.globl	_TIG_iO_cixh_1_isDateValid_1_opaque_list_1
	.align 8
	.type	_TIG_iO_cixh_1_isDateValid_1_opaque_list_1, @object
	.size	_TIG_iO_cixh_1_isDateValid_1_opaque_list_1, 8
_TIG_iO_cixh_1_isDateValid_1_opaque_list_1:
	.zero	8
	.globl	_TIG_iO_cixh_1_compareDate_1_opaque_ptr_1
	.align 8
	.type	_TIG_iO_cixh_1_compareDate_1_opaque_ptr_1, @object
	.size	_TIG_iO_cixh_1_compareDate_1_opaque_ptr_1, 8
_TIG_iO_cixh_1_compareDate_1_opaque_ptr_1:
	.zero	8
	.globl	_TIG_iO_cixh_1_dayOfWeek_1_opaque_list_2
	.align 8
	.type	_TIG_iO_cixh_1_dayOfWeek_1_opaque_list_2, @object
	.size	_TIG_iO_cixh_1_dayOfWeek_1_opaque_list_2, 8
_TIG_iO_cixh_1_dayOfWeek_1_opaque_list_2:
	.zero	8
	.globl	_TIG_iO_cixh_1_printingCalender_1_opaque_ptr_1
	.align 8
	.type	_TIG_iO_cixh_1_printingCalender_1_opaque_ptr_1, @object
	.size	_TIG_iO_cixh_1_printingCalender_1_opaque_ptr_1, 8
_TIG_iO_cixh_1_printingCalender_1_opaque_ptr_1:
	.zero	8
	.globl	_TIG_iO_cixh_1_isDateValid_1_opaque_ptr_1
	.align 8
	.type	_TIG_iO_cixh_1_isDateValid_1_opaque_ptr_1, @object
	.size	_TIG_iO_cixh_1_isDateValid_1_opaque_ptr_1, 8
_TIG_iO_cixh_1_isDateValid_1_opaque_ptr_1:
	.zero	8
	.globl	_TIG_iO_cixh_1_daysInMonths_1_opaque_list_2
	.align 8
	.type	_TIG_iO_cixh_1_daysInMonths_1_opaque_list_2, @object
	.size	_TIG_iO_cixh_1_daysInMonths_1_opaque_list_2, 8
_TIG_iO_cixh_1_daysInMonths_1_opaque_list_2:
	.zero	8
	.globl	_TIG_iO_cixh_1_gapBetweenDates_1_opaque_list_1
	.align 8
	.type	_TIG_iO_cixh_1_gapBetweenDates_1_opaque_list_1, @object
	.size	_TIG_iO_cixh_1_gapBetweenDates_1_opaque_list_1, 8
_TIG_iO_cixh_1_gapBetweenDates_1_opaque_list_1:
	.zero	8
	.globl	_TIG_iO_cixh_1_daysInMonths_1_opaque_ptr_2
	.align 8
	.type	_TIG_iO_cixh_1_daysInMonths_1_opaque_ptr_2, @object
	.size	_TIG_iO_cixh_1_daysInMonths_1_opaque_ptr_2, 8
_TIG_iO_cixh_1_daysInMonths_1_opaque_ptr_2:
	.zero	8
	.globl	_TIG_iO_cixh_1___uint32_identity_1_opaque_list_2
	.align 8
	.type	_TIG_iO_cixh_1___uint32_identity_1_opaque_list_2, @object
	.size	_TIG_iO_cixh_1___uint32_identity_1_opaque_list_2, 8
_TIG_iO_cixh_1___uint32_identity_1_opaque_list_2:
	.zero	8
	.globl	_TIG_iO_cixh_1_daysInMonths_1_opaque_list_1
	.align 8
	.type	_TIG_iO_cixh_1_daysInMonths_1_opaque_list_1, @object
	.size	_TIG_iO_cixh_1_daysInMonths_1_opaque_list_1, 8
_TIG_iO_cixh_1_daysInMonths_1_opaque_list_1:
	.zero	8
	.globl	_TIG_iO_cixh_1_isLeapYear_1_opaque_list_2
	.align 8
	.type	_TIG_iO_cixh_1_isLeapYear_1_opaque_list_2, @object
	.size	_TIG_iO_cixh_1_isLeapYear_1_opaque_list_2, 8
_TIG_iO_cixh_1_isLeapYear_1_opaque_list_2:
	.zero	8
	.globl	_TIG_iO_cixh_1_main_1_opaque_list_1
	.align 8
	.type	_TIG_iO_cixh_1_main_1_opaque_list_1, @object
	.size	_TIG_iO_cixh_1_main_1_opaque_list_1, 8
_TIG_iO_cixh_1_main_1_opaque_list_1:
	.zero	8
	.globl	_TIG_iO_cixh_1_gapBetweenDates_1_opaque_list_2
	.align 8
	.type	_TIG_iO_cixh_1_gapBetweenDates_1_opaque_list_2, @object
	.size	_TIG_iO_cixh_1_gapBetweenDates_1_opaque_list_2, 8
_TIG_iO_cixh_1_gapBetweenDates_1_opaque_list_2:
	.zero	8
	.globl	_TIG_iO_cixh_1_dayOfWeek_1_opaque_list_1
	.align 8
	.type	_TIG_iO_cixh_1_dayOfWeek_1_opaque_list_1, @object
	.size	_TIG_iO_cixh_1_dayOfWeek_1_opaque_list_1, 8
_TIG_iO_cixh_1_dayOfWeek_1_opaque_list_1:
	.zero	8
	.globl	_TIG_IZ_cixh_argc
	.align 4
	.type	_TIG_IZ_cixh_argc, @object
	.size	_TIG_IZ_cixh_argc, 4
_TIG_IZ_cixh_argc:
	.zero	4
	.globl	_TIG_iO_cixh_1_compareDate_1_opaque_list_1
	.align 8
	.type	_TIG_iO_cixh_1_compareDate_1_opaque_list_1, @object
	.size	_TIG_iO_cixh_1_compareDate_1_opaque_list_1, 8
_TIG_iO_cixh_1_compareDate_1_opaque_list_1:
	.zero	8
	.globl	_TIG_iO_cixh_1_getWeekDayForDate_1_opaque_ptr_1
	.align 8
	.type	_TIG_iO_cixh_1_getWeekDayForDate_1_opaque_ptr_1, @object
	.size	_TIG_iO_cixh_1_getWeekDayForDate_1_opaque_ptr_1, 8
_TIG_iO_cixh_1_getWeekDayForDate_1_opaque_ptr_1:
	.zero	8
	.globl	_TIG_iO_cixh_1_main_1_opaque_ptr_2
	.align 8
	.type	_TIG_iO_cixh_1_main_1_opaque_ptr_2, @object
	.size	_TIG_iO_cixh_1_main_1_opaque_ptr_2, 8
_TIG_iO_cixh_1_main_1_opaque_ptr_2:
	.zero	8
	.globl	_TIG_iO_cixh_1___uint64_identity_1_opaque_ptr_2
	.align 8
	.type	_TIG_iO_cixh_1___uint64_identity_1_opaque_ptr_2, @object
	.size	_TIG_iO_cixh_1___uint64_identity_1_opaque_ptr_2, 8
_TIG_iO_cixh_1___uint64_identity_1_opaque_ptr_2:
	.zero	8
	.globl	_TIG_iO_cixh_1_monthNames_1_opaque_ptr_1
	.align 8
	.type	_TIG_iO_cixh_1_monthNames_1_opaque_ptr_1, @object
	.size	_TIG_iO_cixh_1_monthNames_1_opaque_ptr_1, 8
_TIG_iO_cixh_1_monthNames_1_opaque_ptr_1:
	.zero	8
	.globl	_TIG_iO_cixh_1_compareDate_1_opaque_list_2
	.align 8
	.type	_TIG_iO_cixh_1_compareDate_1_opaque_list_2, @object
	.size	_TIG_iO_cixh_1_compareDate_1_opaque_list_2, 8
_TIG_iO_cixh_1_compareDate_1_opaque_list_2:
	.zero	8
	.globl	_TIG_iO_cixh_1_dayOfWeekByWeekDayNo_1_opaque_ptr_2
	.align 8
	.type	_TIG_iO_cixh_1_dayOfWeekByWeekDayNo_1_opaque_ptr_2, @object
	.size	_TIG_iO_cixh_1_dayOfWeekByWeekDayNo_1_opaque_ptr_2, 8
_TIG_iO_cixh_1_dayOfWeekByWeekDayNo_1_opaque_ptr_2:
	.zero	8
	.globl	_TIG_iO_cixh_1_dayOfWeekByWeekDayNo_1_opaque_list_1
	.align 8
	.type	_TIG_iO_cixh_1_dayOfWeekByWeekDayNo_1_opaque_list_1, @object
	.size	_TIG_iO_cixh_1_dayOfWeekByWeekDayNo_1_opaque_list_1, 8
_TIG_iO_cixh_1_dayOfWeekByWeekDayNo_1_opaque_list_1:
	.zero	8
	.globl	_TIG_iO_cixh_1_main_1_opaque_list_2
	.align 8
	.type	_TIG_iO_cixh_1_main_1_opaque_list_2, @object
	.size	_TIG_iO_cixh_1_main_1_opaque_list_2, 8
_TIG_iO_cixh_1_main_1_opaque_list_2:
	.zero	8
	.section	.rodata
.LC0:
	.string	"Sun"
.LC1:
	.string	"%6s"
.LC2:
	.string	"Mon"
.LC3:
	.string	"Tue"
.LC4:
	.string	"Wed"
.LC5:
	.string	"Thu"
.LC6:
	.string	"Fri"
.LC7:
	.string	"Sat"
.LC8:
	.string	"wrong day"
	.text
	.globl	dayOfWeek
	.type	dayOfWeek, @function
dayOfWeek:
.LFB0:
	.cfi_startproc
	endbr64
	pushq	%rbp
	.cfi_def_cfa_offset 16
	.cfi_offset 6, -16
	movq	%rsp, %rbp
	.cfi_def_cfa_register 6
	subq	$48, %rsp
	movl	%edi, -36(%rbp)
#APP
# 76 "/usr/include/stdlib.h" 1
	##_ANNOTATION_INITIALREGION_-TIG-iO-cixh-1-dayOfWeek--18
# 0 "" 2
# 80 "/usr/include/stdlib.h" 1
	##_ANNOTATION_ATOMICREGION_-TIG-iO-cixh-1-dayOfWeek--17
# 0 "" 2
#NO_APP
	movl	$24, %edi
	call	malloc@PLT
	movq	%rax, -24(%rbp)
	movq	-24(%rbp), %rax
	movq	-24(%rbp), %rdx
	movq	%rdx, 8(%rax)
	movq	-24(%rbp), %rax
	movq	-24(%rbp), %rdx
	movq	%rdx, (%rax)
	movq	-24(%rbp), %rax
	movq	%rax, _TIG_iO_cixh_1_dayOfWeek_1_opaque_list_1(%rip)
	call	rand@PLT
	movl	%eax, -32(%rbp)
	movl	$24, %edi
	call	malloc@PLT
	movq	%rax, -16(%rbp)
	movq	-16(%rbp), %rax
	movl	$0, 16(%rax)
	movq	_TIG_iO_cixh_1_dayOfWeek_1_opaque_list_1(%rip), %rax
	movq	8(%rax), %rdx
	movq	-16(%rbp), %rax
	movq	%rdx, 8(%rax)
	movq	_TIG_iO_cixh_1_dayOfWeek_1_opaque_list_1(%rip), %rdx
	movq	-16(%rbp), %rax
	movq	%rdx, (%rax)
	movq	_TIG_iO_cixh_1_dayOfWeek_1_opaque_list_1(%rip), %rax
	movq	8(%rax), %rax
	movq	-16(%rbp), %rdx
	movq	%rdx, (%rax)
	movq	_TIG_iO_cixh_1_dayOfWeek_1_opaque_list_1(%rip), %rax
	movq	-16(%rbp), %rdx
	movq	%rdx, 8(%rax)
	call	rand@PLT
	movl	%eax, -28(%rbp)
	movl	$24, %edi
	call	malloc@PLT
	movq	%rax, -8(%rbp)
	movq	-8(%rbp), %rax
	movl	-28(%rbp), %edx
	movl	%edx, 16(%rax)
	movq	_TIG_iO_cixh_1_dayOfWeek_1_opaque_list_1(%rip), %rax
	movq	8(%rax), %rdx
	movq	-8(%rbp), %rax
	movq	%rdx, 8(%rax)
	movq	_TIG_iO_cixh_1_dayOfWeek_1_opaque_list_1(%rip), %rdx
	movq	-8(%rbp), %rax
	movq	%rdx, (%rax)
	movq	_TIG_iO_cixh_1_dayOfWeek_1_opaque_list_1(%rip), %rax
	movq	8(%rax), %rax
	movq	-8(%rbp), %rdx
	movq	%rdx, (%rax)
	movq	_TIG_iO_cixh_1_dayOfWeek_1_opaque_list_1(%rip), %rax
	movq	-8(%rbp), %rdx
	movq	%rdx, 8(%rax)
	movq	_TIG_iO_cixh_1_dayOfWeek_1_opaque_list_1(%rip), %rax
	movq	8(%rax), %rax
	movq	%rax, _TIG_iO_cixh_1_dayOfWeek_1_opaque_ptr_1(%rip)
	movq	_TIG_iO_cixh_1_dayOfWeek_1_opaque_ptr_1(%rip), %rax
	movq	%rax, _TIG_iO_cixh_1_dayOfWeek_1_opaque_ptr_2(%rip)
	movq	_TIG_iO_cixh_1_dayOfWeek_1_opaque_ptr_2(%rip), %rax
	movq	8(%rax), %rax
	movq	%rax, _TIG_iO_cixh_1_dayOfWeek_1_opaque_ptr_2(%rip)
	nop
	nop
	cmpl	$6, -36(%rbp)
	ja	.L2
	movl	-36(%rbp), %eax
	leaq	0(,%rax,4), %rdx
	leaq	.L4(%rip), %rax
	movl	(%rdx,%rax), %eax
	cltq
	leaq	.L4(%rip), %rdx
	addq	%rdx, %rax
	notrack jmp	*%rax
	.section	.rodata
	.align 4
	.align 4
.L4:
	.long	.L10-.L4
	.long	.L9-.L4
	.long	.L8-.L4
	.long	.L7-.L4
	.long	.L6-.L4
	.long	.L5-.L4
	.long	.L3-.L4
	.text
.L10:
	leaq	.LC0(%rip), %rax
	movq	%rax, %rsi
	leaq	.LC1(%rip), %rax
	movq	%rax, %rdi
	movl	$0, %eax
	call	printf@PLT
	jmp	.L11
.L9:
	leaq	.LC2(%rip), %rax
	movq	%rax, %rsi
	leaq	.LC1(%rip), %rax
	movq	%rax, %rdi
	movl	$0, %eax
	call	printf@PLT
	jmp	.L11
.L8:
	leaq	.LC3(%rip), %rax
	movq	%rax, %rsi
	leaq	.LC1(%rip), %rax
	movq	%rax, %rdi
	movl	$0, %eax
	call	printf@PLT
	jmp	.L11
.L7:
	leaq	.LC4(%rip), %rax
	movq	%rax, %rsi
	leaq	.LC1(%rip), %rax
	movq	%rax, %rdi
	movl	$0, %eax
	call	printf@PLT
	jmp	.L11
.L6:
	leaq	.LC5(%rip), %rax
	movq	%rax, %rsi
	leaq	.LC1(%rip), %rax
	movq	%rax, %rdi
	movl	$0, %eax
	call	printf@PLT
	jmp	.L11
.L5:
	leaq	.LC6(%rip), %rax
	movq	%rax, %rsi
	leaq	.LC1(%rip), %rax
	movq	%rax, %rdi
	movl	$0, %eax
	call	printf@PLT
	movq	_TIG_iO_cixh_1_printingCalender_1_opaque_ptr_1(%rip), %rdx
	movq	_TIG_iO_cixh_1_printingCalender_1_opaque_ptr_2(%rip), %rax
	cmpq	%rax, %rdx
	je	.L14
#APP
# 294 "Harshpathakjnp_CCodings_main.c" 1
	.byte 0x42,0x84,0x5d,0x85,0xca
# 0 "" 2
#NO_APP
.L3:
	leaq	.LC7(%rip), %rax
	movq	%rax, %rsi
	leaq	.LC1(%rip), %rax
	movq	%rax, %rdi
	movl	$0, %eax
	call	printf@PLT
	jmp	.L11
.L2:
	leaq	.LC8(%rip), %rax
	movq	%rax, %rdi
	movl	$0, %eax
	call	printf@PLT
	jmp	.L11
.L14:
	nop
.L11:
	movl	$0, %eax
	leave
	.cfi_def_cfa 7, 8
	ret
	.cfi_endproc
.LFE0:
	.size	dayOfWeek, .-dayOfWeek
	.globl	compareDate
	.type	compareDate, @function
compareDate:
.LFB1:
	.cfi_startproc
	endbr64
	pushq	%rbp
	.cfi_def_cfa_offset 16
	.cfi_offset 6, -16
	movq	%rsp, %rbp
	.cfi_def_cfa_register 6
	subq	$96, %rsp
	movl	%edi, -68(%rbp)
	movl	%esi, -72(%rbp)
	movl	%edx, -76(%rbp)
	movl	%ecx, -80(%rbp)
	movl	%r8d, -84(%rbp)
	movl	%r9d, -88(%rbp)
#APP
# 321 "Harshpathakjnp_CCodings_main.c" 1
	##_ANNOTATION_INITIALREGION_-TIG-iO-cixh-1-compareDate--14
# 0 "" 2
# 325 "Harshpathakjnp_CCodings_main.c" 1
	##_ANNOTATION_ATOMICREGION_-TIG-iO-cixh-1-compareDate--13
# 0 "" 2
#NO_APP
	movl	$24, %edi
	call	malloc@PLT
	movq	%rax, -40(%rbp)
	movq	-40(%rbp), %rax
	movq	-40(%rbp), %rdx
	movq	%rdx, (%rax)
	movq	-40(%rbp), %rax
	movq	-40(%rbp), %rdx
	movq	%rdx, 8(%rax)
	movq	-40(%rbp), %rax
	movq	%rax, _TIG_iO_cixh_1_compareDate_1_opaque_list_1(%rip)
	call	rand@PLT
	movl	%eax, -56(%rbp)
	movl	$24, %edi
	call	malloc@PLT
	movq	%rax, -32(%rbp)
	movq	-32(%rbp), %rax
	movl	$0, 16(%rax)
	movq	_TIG_iO_cixh_1_compareDate_1_opaque_list_1(%rip), %rax
	movq	(%rax), %rdx
	movq	-32(%rbp), %rax
	movq	%rdx, (%rax)
	movq	_TIG_iO_cixh_1_compareDate_1_opaque_list_1(%rip), %rdx
	movq	-32(%rbp), %rax
	movq	%rdx, 8(%rax)
	movq	_TIG_iO_cixh_1_compareDate_1_opaque_list_1(%rip), %rax
	movq	(%rax), %rax
	movq	-32(%rbp), %rdx
	movq	%rdx, 8(%rax)
	movq	_TIG_iO_cixh_1_compareDate_1_opaque_list_1(%rip), %rax
	movq	-32(%rbp), %rdx
	movq	%rdx, (%rax)
	call	rand@PLT
	movl	%eax, -52(%rbp)
	movl	$24, %edi
	call	malloc@PLT
	movq	%rax, -24(%rbp)
	movq	-24(%rbp), %rax
	movl	-52(%rbp), %edx
	movl	%edx, 16(%rax)
	movq	_TIG_iO_cixh_1_compareDate_1_opaque_list_1(%rip), %rax
	movq	(%rax), %rdx
	movq	-24(%rbp), %rax
	movq	%rdx, (%rax)
	movq	_TIG_iO_cixh_1_compareDate_1_opaque_list_1(%rip), %rdx
	movq	-24(%rbp), %rax
	movq	%rdx, 8(%rax)
	movq	_TIG_iO_cixh_1_compareDate_1_opaque_list_1(%rip), %rax
	movq	(%rax), %rax
	movq	-24(%rbp), %rdx
	movq	%rdx, 8(%rax)
	movq	_TIG_iO_cixh_1_compareDate_1_opaque_list_1(%rip), %rax
	movq	-24(%rbp), %rdx
	movq	%rdx, (%rax)
	call	rand@PLT
	movl	%eax, -48(%rbp)
	movl	$24, %edi
	call	malloc@PLT
	movq	%rax, -16(%rbp)
	movl	-48(%rbp), %eax
	leal	(%rax,%rax), %edx
	movq	-16(%rbp), %rax
	movl	%edx, 16(%rax)
	movq	_TIG_iO_cixh_1_compareDate_1_opaque_list_1(%rip), %rax
	movq	(%rax), %rdx
	movq	-16(%rbp), %rax
	movq	%rdx, (%rax)
	movq	_TIG_iO_cixh_1_compareDate_1_opaque_list_1(%rip), %rdx
	movq	-16(%rbp), %rax
	movq	%rdx, 8(%rax)
	movq	_TIG_iO_cixh_1_compareDate_1_opaque_list_1(%rip), %rax
	movq	(%rax), %rax
	movq	-16(%rbp), %rdx
	movq	%rdx, 8(%rax)
	movq	_TIG_iO_cixh_1_compareDate_1_opaque_list_1(%rip), %rax
	movq	-16(%rbp), %rdx
	movq	%rdx, (%rax)
	call	rand@PLT
	movl	%eax, -44(%rbp)
	movl	$24, %edi
	call	malloc@PLT
	movq	%rax, -8(%rbp)
	movl	-44(%rbp), %edx
	movl	%edx, %eax
	addl	%eax, %eax
	addl	%eax, %edx
	movq	-8(%rbp), %rax
	movl	%edx, 16(%rax)
	movq	_TIG_iO_cixh_1_compareDate_1_opaque_list_1(%rip), %rax
	movq	(%rax), %rdx
	movq	-8(%rbp), %rax
	movq	%rdx, (%rax)
	movq	_TIG_iO_cixh_1_compareDate_1_opaque_list_1(%rip), %rdx
	movq	-8(%rbp), %rax
	movq	%rdx, 8(%rax)
	movq	_TIG_iO_cixh_1_compareDate_1_opaque_list_1(%rip), %rax
	movq	(%rax), %rax
	movq	-8(%rbp), %rdx
	movq	%rdx, 8(%rax)
	movq	_TIG_iO_cixh_1_compareDate_1_opaque_list_1(%rip), %rax
	movq	-8(%rbp), %rdx
	movq	%rdx, (%rax)
	movq	_TIG_iO_cixh_1_compareDate_1_opaque_list_1(%rip), %rax
	movq	(%rax), %rax
	movq	%rax, _TIG_iO_cixh_1_compareDate_1_opaque_ptr_1(%rip)
	movq	_TIG_iO_cixh_1_compareDate_1_opaque_ptr_1(%rip), %rax
	movq	%rax, _TIG_iO_cixh_1_compareDate_1_opaque_ptr_2(%rip)
	movq	_TIG_iO_cixh_1_compareDate_1_opaque_ptr_2(%rip), %rax
	movq	(%rax), %rax
	movq	%rax, _TIG_iO_cixh_1_compareDate_1_opaque_ptr_2(%rip)
	nop
	nop
	movl	-88(%rbp), %eax
	cmpl	-76(%rbp), %eax
	jle	.L16
	movl	$1, %eax
	jmp	.L17
.L16:
	movl	-88(%rbp), %eax
	cmpl	-76(%rbp), %eax
	jge	.L18
	movl	$-1, %eax
	jmp	.L17
.L18:
	movl	-84(%rbp), %eax
	cmpl	-72(%rbp), %eax
	jle	.L19
	movl	$1, %eax
	jmp	.L17
.L19:
	movl	-84(%rbp), %eax
	cmpl	-72(%rbp), %eax
	jge	.L20
	movl	$-1, %eax
	jmp	.L17
.L20:
	movl	-80(%rbp), %eax
	cmpl	-68(%rbp), %eax
	jle	.L21
	movl	$1, %eax
	jmp	.L17
.L21:
	movq	_TIG_iO_cixh_1_printingCalender_1_opaque_ptr_1(%rip), %rdx
	movq	_TIG_iO_cixh_1_printingCalender_1_opaque_ptr_2(%rip), %rax
	cmpq	%rax, %rdx
	jne	.L22
	movl	-80(%rbp), %eax
	cmpl	-68(%rbp), %eax
	jge	.L22
	movl	$-1, %eax
	jmp	.L17
.L22:
	movl	$0, %eax
.L17:
	leave
	.cfi_def_cfa 7, 8
	ret
	.cfi_endproc
.LFE1:
	.size	compareDate, .-compareDate
	.globl	getWeekDayForDate
	.type	getWeekDayForDate, @function
getWeekDayForDate:
.LFB3:
	.cfi_startproc
	endbr64
	pushq	%rbp
	.cfi_def_cfa_offset 16
	.cfi_offset 6, -16
	movq	%rsp, %rbp
	.cfi_def_cfa_register 6
	subq	$96, %rsp
	movl	%edi, -84(%rbp)
	movl	%esi, -88(%rbp)
	movl	%edx, -92(%rbp)
#APP
# 64 "/usr/include/x86_64-linux-gnu/bits/byteswap.h" 1
	##_ANNOTATION_INITIALREGION_-TIG-iO-cixh-1-getWeekDayForDate--26
# 0 "" 2
# 68 "/usr/include/x86_64-linux-gnu/bits/byteswap.h" 1
	##_ANNOTATION_ATOMICREGION_-TIG-iO-cixh-1-getWeekDayForDate--25
# 0 "" 2
#NO_APP
	movl	$24, %edi
	call	malloc@PLT
	movq	%rax, -40(%rbp)
	movq	-40(%rbp), %rax
	movq	-40(%rbp), %rdx
	movq	%rdx, (%rax)
	movq	-40(%rbp), %rax
	movq	-40(%rbp), %rdx
	movq	%rdx, 16(%rax)
	movq	-40(%rbp), %rax
	movq	%rax, _TIG_iO_cixh_1_getWeekDayForDate_1_opaque_list_1(%rip)
	call	rand@PLT
	movl	%eax, -72(%rbp)
	movl	$24, %edi
	call	malloc@PLT
	movq	%rax, -32(%rbp)
	movq	-32(%rbp), %rax
	movl	$0, 8(%rax)
	movq	_TIG_iO_cixh_1_getWeekDayForDate_1_opaque_list_1(%rip), %rax
	movq	(%rax), %rdx
	movq	-32(%rbp), %rax
	movq	%rdx, (%rax)
	movq	_TIG_iO_cixh_1_getWeekDayForDate_1_opaque_list_1(%rip), %rdx
	movq	-32(%rbp), %rax
	movq	%rdx, 16(%rax)
	movq	_TIG_iO_cixh_1_getWeekDayForDate_1_opaque_list_1(%rip), %rax
	movq	(%rax), %rax
	movq	-32(%rbp), %rdx
	movq	%rdx, 16(%rax)
	movq	_TIG_iO_cixh_1_getWeekDayForDate_1_opaque_list_1(%rip), %rax
	movq	-32(%rbp), %rdx
	movq	%rdx, (%rax)
	call	rand@PLT
	movl	%eax, -68(%rbp)
	movl	$24, %edi
	call	malloc@PLT
	movq	%rax, -24(%rbp)
	movq	-24(%rbp), %rax
	movl	-68(%rbp), %edx
	movl	%edx, 8(%rax)
	movq	_TIG_iO_cixh_1_getWeekDayForDate_1_opaque_list_1(%rip), %rax
	movq	(%rax), %rdx
	movq	-24(%rbp), %rax
	movq	%rdx, (%rax)
	movq	_TIG_iO_cixh_1_getWeekDayForDate_1_opaque_list_1(%rip), %rdx
	movq	-24(%rbp), %rax
	movq	%rdx, 16(%rax)
	movq	_TIG_iO_cixh_1_getWeekDayForDate_1_opaque_list_1(%rip), %rax
	movq	(%rax), %rax
	movq	-24(%rbp), %rdx
	movq	%rdx, 16(%rax)
	movq	_TIG_iO_cixh_1_getWeekDayForDate_1_opaque_list_1(%rip), %rax
	movq	-24(%rbp), %rdx
	movq	%rdx, (%rax)
	call	rand@PLT
	movl	%eax, -64(%rbp)
	movl	$24, %edi
	call	malloc@PLT
	movq	%rax, -16(%rbp)
	movl	-64(%rbp), %eax
	leal	(%rax,%rax), %edx
	movq	-16(%rbp), %rax
	movl	%edx, 8(%rax)
	movq	_TIG_iO_cixh_1_getWeekDayForDate_1_opaque_list_1(%rip), %rax
	movq	(%rax), %rdx
	movq	-16(%rbp), %rax
	movq	%rdx, (%rax)
	movq	_TIG_iO_cixh_1_getWeekDayForDate_1_opaque_list_1(%rip), %rdx
	movq	-16(%rbp), %rax
	movq	%rdx, 16(%rax)
	movq	_TIG_iO_cixh_1_getWeekDayForDate_1_opaque_list_1(%rip), %rax
	movq	(%rax), %rax
	movq	-16(%rbp), %rdx
	movq	%rdx, 16(%rax)
	movq	_TIG_iO_cixh_1_getWeekDayForDate_1_opaque_list_1(%rip), %rax
	movq	-16(%rbp), %rdx
	movq	%rdx, (%rax)
	call	rand@PLT
	movl	%eax, -60(%rbp)
	movl	$24, %edi
	call	malloc@PLT
	movq	%rax, -8(%rbp)
	movl	-60(%rbp), %edx
	movl	%edx, %eax
	addl	%eax, %eax
	addl	%eax, %edx
	movq	-8(%rbp), %rax
	movl	%edx, 8(%rax)
	movq	_TIG_iO_cixh_1_getWeekDayForDate_1_opaque_list_1(%rip), %rax
	movq	(%rax), %rdx
	movq	-8(%rbp), %rax
	movq	%rdx, (%rax)
	movq	_TIG_iO_cixh_1_getWeekDayForDate_1_opaque_list_1(%rip), %rdx
	movq	-8(%rbp), %rax
	movq	%rdx, 16(%rax)
	movq	_TIG_iO_cixh_1_getWeekDayForDate_1_opaque_list_1(%rip), %rax
	movq	(%rax), %rax
	movq	-8(%rbp), %rdx
	movq	%rdx, 16(%rax)
	movq	_TIG_iO_cixh_1_getWeekDayForDate_1_opaque_list_1(%rip), %rax
	movq	-8(%rbp), %rdx
	movq	%rdx, (%rax)
	movq	_TIG_iO_cixh_1_getWeekDayForDate_1_opaque_list_1(%rip), %rax
	movq	(%rax), %rax
	movq	%rax, _TIG_iO_cixh_1_getWeekDayForDate_1_opaque_ptr_1(%rip)
	movq	_TIG_iO_cixh_1_getWeekDayForDate_1_opaque_ptr_1(%rip), %rax
	movq	%rax, _TIG_iO_cixh_1_getWeekDayForDate_1_opaque_ptr_2(%rip)
	nop
	nop
	movq	_TIG_iO_cixh_1_printingCalender_1_opaque_ptr_1(%rip), %rdx
	movq	_TIG_iO_cixh_1_printingCalender_1_opaque_ptr_2(%rip), %rax
	cmpq	%rax, %rdx
	jne	.L24
	movl	$31, -56(%rbp)
	movl	$10, -52(%rbp)
	movl	$2021, -48(%rbp)
	movl	-92(%rbp), %r8d
	movl	-88(%rbp), %edi
	movl	-84(%rbp), %ecx
	movl	-48(%rbp), %edx
	movl	-52(%rbp), %esi
	movl	-56(%rbp), %eax
	movl	%r8d, %r9d
	movl	%edi, %r8d
	movl	%eax, %edi
	call	gapBetweenDates
	movl	%eax, -44(%rbp)
	movl	-44(%rbp), %eax
	movl	%eax, -76(%rbp)
	movl	-76(%rbp), %eax
	movslq	%eax, %rdx
	imulq	$-1840700269, %rdx, %rdx
	shrq	$32, %rdx
	addl	%eax, %edx
	sarl	$2, %edx
	movl	%eax, %esi
	sarl	$31, %esi
	movl	%edx, %ecx
	subl	%esi, %ecx
	movl	%ecx, %edx
	sall	$3, %edx
	subl	%ecx, %edx
	subl	%edx, %eax
	movl	%eax, -76(%rbp)
	addl	$7, -76(%rbp)
	movl	-76(%rbp), %eax
	movslq	%eax, %rdx
	imulq	$-1840700269, %rdx, %rdx
	shrq	$32, %rdx
	addl	%eax, %edx
	sarl	$2, %edx
	movl	%eax, %esi
	sarl	$31, %esi
	movl	%edx, %ecx
	subl	%esi, %ecx
	movl	%ecx, %edx
	sall	$3, %edx
	subl	%ecx, %edx
	subl	%edx, %eax
	movl	%eax, -76(%rbp)
.L24:
	movl	-76(%rbp), %eax
	leave
	.cfi_def_cfa 7, 8
	ret
	.cfi_endproc
.LFE3:
	.size	getWeekDayForDate, .-getWeekDayForDate
	.globl	gapBetweenDates
	.type	gapBetweenDates, @function
gapBetweenDates:
.LFB4:
	.cfi_startproc
	endbr64
	pushq	%rbp
	.cfi_def_cfa_offset 16
	.cfi_offset 6, -16
	movq	%rsp, %rbp
	.cfi_def_cfa_register 6
	subq	$144, %rsp
	movl	%edi, -116(%rbp)
	movl	%esi, -120(%rbp)
	movl	%edx, -124(%rbp)
	movl	%ecx, -128(%rbp)
	movl	%r8d, -132(%rbp)
	movl	%r9d, -136(%rbp)
#APP
# 249 "Harshpathakjnp_CCodings_main.c" 1
	##_ANNOTATION_INITIALREGION_-TIG-iO-cixh-1-gapBetweenDates--24
# 0 "" 2
# 253 "Harshpathakjnp_CCodings_main.c" 1
	##_ANNOTATION_ATOMICREGION_-TIG-iO-cixh-1-gapBetweenDates--23
# 0 "" 2
#NO_APP
	movl	$24, %edi
	call	malloc@PLT
	movq	%rax, -32(%rbp)
	movq	-32(%rbp), %rax
	movq	-32(%rbp), %rdx
	movq	%rdx, (%rax)
	movq	-32(%rbp), %rax
	movq	-32(%rbp), %rdx
	movq	%rdx, 8(%rax)
	movq	-32(%rbp), %rax
	movq	%rax, _TIG_iO_cixh_1_gapBetweenDates_1_opaque_list_1(%rip)
	call	rand@PLT
	movl	%eax, -80(%rbp)
	movl	$24, %edi
	call	malloc@PLT
	movq	%rax, -24(%rbp)
	movq	-24(%rbp), %rax
	movl	$0, 16(%rax)
	movq	_TIG_iO_cixh_1_gapBetweenDates_1_opaque_list_1(%rip), %rax
	movq	(%rax), %rdx
	movq	-24(%rbp), %rax
	movq	%rdx, (%rax)
	movq	_TIG_iO_cixh_1_gapBetweenDates_1_opaque_list_1(%rip), %rdx
	movq	-24(%rbp), %rax
	movq	%rdx, 8(%rax)
	movq	_TIG_iO_cixh_1_gapBetweenDates_1_opaque_list_1(%rip), %rax
	movq	(%rax), %rax
	movq	-24(%rbp), %rdx
	movq	%rdx, 8(%rax)
	movq	_TIG_iO_cixh_1_gapBetweenDates_1_opaque_list_1(%rip), %rax
	movq	-24(%rbp), %rdx
	movq	%rdx, (%rax)
	call	rand@PLT
	movl	%eax, -76(%rbp)
	movl	$24, %edi
	call	malloc@PLT
	movq	%rax, -16(%rbp)
	movq	-16(%rbp), %rax
	movl	-76(%rbp), %edx
	movl	%edx, 16(%rax)
	movq	_TIG_iO_cixh_1_gapBetweenDates_1_opaque_list_1(%rip), %rax
	movq	(%rax), %rdx
	movq	-16(%rbp), %rax
	movq	%rdx, (%rax)
	movq	_TIG_iO_cixh_1_gapBetweenDates_1_opaque_list_1(%rip), %rdx
	movq	-16(%rbp), %rax
	movq	%rdx, 8(%rax)
	movq	_TIG_iO_cixh_1_gapBetweenDates_1_opaque_list_1(%rip), %rax
	movq	(%rax), %rax
	movq	-16(%rbp), %rdx
	movq	%rdx, 8(%rax)
	movq	_TIG_iO_cixh_1_gapBetweenDates_1_opaque_list_1(%rip), %rax
	movq	-16(%rbp), %rdx
	movq	%rdx, (%rax)
	call	rand@PLT
	movl	%eax, -72(%rbp)
	movl	$24, %edi
	call	malloc@PLT
	movq	%rax, -8(%rbp)
	movl	-72(%rbp), %eax
	leal	(%rax,%rax), %edx
	movq	-8(%rbp), %rax
	movl	%edx, 16(%rax)
	movq	_TIG_iO_cixh_1_gapBetweenDates_1_opaque_list_1(%rip), %rax
	movq	(%rax), %rdx
	movq	-8(%rbp), %rax
	movq	%rdx, (%rax)
	movq	_TIG_iO_cixh_1_gapBetweenDates_1_opaque_list_1(%rip), %rdx
	movq	-8(%rbp), %rax
	movq	%rdx, 8(%rax)
	movq	_TIG_iO_cixh_1_gapBetweenDates_1_opaque_list_1(%rip), %rax
	movq	(%rax), %rax
	movq	-8(%rbp), %rdx
	movq	%rdx, 8(%rax)
	movq	_TIG_iO_cixh_1_gapBetweenDates_1_opaque_list_1(%rip), %rax
	movq	-8(%rbp), %rdx
	movq	%rdx, (%rax)
	movq	_TIG_iO_cixh_1_gapBetweenDates_1_opaque_list_1(%rip), %rax
	movq	(%rax), %rax
	movq	%rax, _TIG_iO_cixh_1_gapBetweenDates_1_opaque_ptr_1(%rip)
	movq	_TIG_iO_cixh_1_gapBetweenDates_1_opaque_ptr_1(%rip), %rax
	movq	%rax, _TIG_iO_cixh_1_gapBetweenDates_1_opaque_ptr_2(%rip)
	movq	_TIG_iO_cixh_1_gapBetweenDates_1_opaque_ptr_2(%rip), %rax
	movq	(%rax), %rax
	movq	%rax, _TIG_iO_cixh_1_gapBetweenDates_1_opaque_ptr_2(%rip)
	nop
	nop
	movl	-136(%rbp), %r8d
	movl	-132(%rbp), %edi
	movl	-128(%rbp), %ecx
	movl	-124(%rbp), %edx
	movl	-120(%rbp), %esi
	movl	-116(%rbp), %eax
	movl	%r8d, %r9d
	movl	%edi, %r8d
	movl	%eax, %edi
	call	compareDate
	movl	%eax, -68(%rbp)
	movl	-68(%rbp), %eax
	movl	%eax, -64(%rbp)
	cmpl	$0, -64(%rbp)
	jne	.L27
	movq	_TIG_iO_cixh_1_printingCalender_1_opaque_ptr_1(%rip), %rdx
	movq	_TIG_iO_cixh_1_printingCalender_1_opaque_ptr_2(%rip), %rax
	cmpq	%rax, %rdx
	je	.L28
#APP
# 104 "Harshpathakjnp_CCodings_main.c" 1
	.byte 0xcf,0x2,0x44
# 0 "" 2
#NO_APP
	jmp	.L27
.L28:
	movl	$0, %eax
	jmp	.L29
.L27:
	cmpl	$-1, -64(%rbp)
	jne	.L30
	movl	-116(%rbp), %eax
	movl	%eax, -60(%rbp)
	movl	-128(%rbp), %eax
	movl	%eax, -116(%rbp)
	movl	-60(%rbp), %eax
	movl	%eax, -128(%rbp)
	movl	-120(%rbp), %eax
	movl	%eax, -60(%rbp)
	movl	-132(%rbp), %eax
	movl	%eax, -120(%rbp)
	movl	-60(%rbp), %eax
	movl	%eax, -132(%rbp)
	movl	-124(%rbp), %eax
	movl	%eax, -60(%rbp)
	movl	-136(%rbp), %eax
	movl	%eax, -124(%rbp)
	movl	-60(%rbp), %eax
	movl	%eax, -136(%rbp)
.L30:
	movl	-128(%rbp), %eax
	subl	$1, %eax
	movl	%eax, -56(%rbp)
	movl	-116(%rbp), %eax
	subl	$1, %eax
	movl	%eax, -52(%rbp)
	movl	$0, -104(%rbp)
	movl	$1, -100(%rbp)
	jmp	.L31
.L32:
	movl	-136(%rbp), %edx
	movl	-100(%rbp), %eax
	movl	%edx, %esi
	movl	%eax, %edi
	call	daysInMonths
	movl	%eax, -36(%rbp)
	movl	-36(%rbp), %eax
	addl	%eax, -104(%rbp)
	addl	$1, -100(%rbp)
.L31:
	movl	-132(%rbp), %eax
	cmpl	-100(%rbp), %eax
	jg	.L32
	movl	$0, -96(%rbp)
	movl	$1, -92(%rbp)
	jmp	.L33
.L34:
	movl	-124(%rbp), %edx
	movl	-92(%rbp), %eax
	movl	%edx, %esi
	movl	%eax, %edi
	call	daysInMonths
	movl	%eax, -40(%rbp)
	movl	-40(%rbp), %eax
	addl	%eax, -96(%rbp)
	addl	$1, -92(%rbp)
.L33:
	movl	-120(%rbp), %eax
	cmpl	-92(%rbp), %eax
	jg	.L34
	movl	$0, -88(%rbp)
	movl	-124(%rbp), %eax
	movl	%eax, -84(%rbp)
	jmp	.L35
.L38:
	movl	-84(%rbp), %eax
	movl	%eax, %edi
	call	isLeapYear
	movl	%eax, -44(%rbp)
	cmpl	$0, -44(%rbp)
	je	.L36
	addl	$366, -88(%rbp)
	jmp	.L37
.L36:
	addl	$365, -88(%rbp)
.L37:
	addl	$1, -84(%rbp)
.L35:
	movl	-136(%rbp), %eax
	cmpl	-84(%rbp), %eax
	jg	.L38
	movl	-56(%rbp), %edx
	movl	-104(%rbp), %eax
	addl	%eax, %edx
	movl	-88(%rbp), %eax
	addl	%edx, %eax
	subl	-96(%rbp), %eax
	subl	-52(%rbp), %eax
	movl	%eax, -48(%rbp)
	movl	-64(%rbp), %eax
	imull	-48(%rbp), %eax
.L29:
	leave
	.cfi_def_cfa 7, 8
	ret
	.cfi_endproc
.LFE4:
	.size	gapBetweenDates, .-gapBetweenDates
	.section	.rodata
.LC9:
	.string	"\n"
	.text
	.globl	main
	.type	main, @function
main:
.LFB6:
	.cfi_startproc
	endbr64
	pushq	%rbp
	.cfi_def_cfa_offset 16
	.cfi_offset 6, -16
	movq	%rsp, %rbp
	.cfi_def_cfa_register 6
	subq	$80, %rsp
	movl	%edi, -52(%rbp)
	movq	%rsi, -64(%rbp)
	movq	%rdx, -72(%rbp)
	movq	$0, _TIG_IZ_cixh_envp(%rip)
	nop
.L40:
	movq	$0, _TIG_IZ_cixh_argv(%rip)
	nop
.L41:
	movl	$0, _TIG_IZ_cixh_argc(%rip)
	nop
	nop
.L42:
.L43:
#APP
# 82 "/usr/include/x86_64-linux-gnu/bits/uintn-identity.h" 1
	##_ANNOTATION_INITIALREGION_-TIG-IZ-cixh--0
# 0 "" 2
#NO_APP
	movl	-52(%rbp), %eax
	movl	%eax, _TIG_IZ_cixh_argc(%rip)
	movq	-64(%rbp), %rax
	movq	%rax, _TIG_IZ_cixh_argv(%rip)
	movq	-72(%rbp), %rax
	movq	%rax, _TIG_IZ_cixh_envp(%rip)
#APP
# 89 "/usr/include/x86_64-linux-gnu/bits/uintn-identity.h" 1
	##_ANNOTATION_ATOMICREGION_-TIG-iO-cixh-1-main--31
# 0 "" 2
#NO_APP
	movl	$24, %edi
	call	malloc@PLT
	movq	%rax, -24(%rbp)
	movq	-24(%rbp), %rax
	movq	-24(%rbp), %rdx
	movq	%rdx, 16(%rax)
	movq	-24(%rbp), %rax
	movq	-24(%rbp), %rdx
	movq	%rdx, (%rax)
	movq	-24(%rbp), %rax
	movq	%rax, _TIG_iO_cixh_1_main_1_opaque_list_1(%rip)
	call	rand@PLT
	movl	%eax, -36(%rbp)
	movl	$24, %edi
	call	malloc@PLT
	movq	%rax, -16(%rbp)
	movq	-16(%rbp), %rax
	movl	$0, 8(%rax)
	movq	_TIG_iO_cixh_1_main_1_opaque_list_1(%rip), %rax
	movq	16(%rax), %rdx
	movq	-16(%rbp), %rax
	movq	%rdx, 16(%rax)
	movq	_TIG_iO_cixh_1_main_1_opaque_list_1(%rip), %rdx
	movq	-16(%rbp), %rax
	movq	%rdx, (%rax)
	movq	_TIG_iO_cixh_1_main_1_opaque_list_1(%rip), %rax
	movq	16(%rax), %rax
	movq	-16(%rbp), %rdx
	movq	%rdx, (%rax)
	movq	_TIG_iO_cixh_1_main_1_opaque_list_1(%rip), %rax
	movq	-16(%rbp), %rdx
	movq	%rdx, 16(%rax)
	call	rand@PLT
	movl	%eax, -32(%rbp)
	movl	$24, %edi
	call	malloc@PLT
	movq	%rax, -8(%rbp)
	movq	-8(%rbp), %rax
	movl	-32(%rbp), %edx
	movl	%edx, 8(%rax)
	movq	_TIG_iO_cixh_1_main_1_opaque_list_1(%rip), %rax
	movq	16(%rax), %rdx
	movq	-8(%rbp), %rax
	movq	%rdx, 16(%rax)
	movq	_TIG_iO_cixh_1_main_1_opaque_list_1(%rip), %rdx
	movq	-8(%rbp), %rax
	movq	%rdx, (%rax)
	movq	_TIG_iO_cixh_1_main_1_opaque_list_1(%rip), %rax
	movq	16(%rax), %rax
	movq	-8(%rbp), %rdx
	movq	%rdx, (%rax)
	movq	_TIG_iO_cixh_1_main_1_opaque_list_1(%rip), %rax
	movq	-8(%rbp), %rdx
	movq	%rdx, 16(%rax)
	movq	_TIG_iO_cixh_1_main_1_opaque_list_1(%rip), %rax
	movq	16(%rax), %rax
	movq	%rax, _TIG_iO_cixh_1_main_1_opaque_ptr_1(%rip)
	movq	_TIG_iO_cixh_1_main_1_opaque_ptr_1(%rip), %rax
	movq	%rax, _TIG_iO_cixh_1_main_1_opaque_ptr_2(%rip)
	nop
	nop
	movl	$2021, -28(%rbp)
	movl	$1, -40(%rbp)
	movq	_TIG_iO_cixh_1_printingCalender_1_opaque_ptr_1(%rip), %rdx
	movq	_TIG_iO_cixh_1_printingCalender_1_opaque_ptr_2(%rip), %rax
	cmpq	%rax, %rdx
	jne	.L44
	jmp	.L45
.L46:
	movl	-28(%rbp), %edx
	movl	-40(%rbp), %eax
	movl	%edx, %esi
	movl	%eax, %edi
	call	printingCalender
	leaq	.LC9(%rip), %rax
	movq	%rax, %rdi
	call	puts@PLT
	addl	$1, -40(%rbp)
.L45:
	cmpl	$12, -40(%rbp)
	jle	.L46
	jmp	.L47
.L44:
#APP
# 20 "Harshpathakjnp_CCodings_main.c" 1
	.byte 0x48
# 0 "" 2
#NO_APP
.L47:
	movl	$0, %eax
	leave
	.cfi_def_cfa 7, 8
	ret
	.cfi_endproc
.LFE6:
	.size	main, .-main
	.section	.rodata
.LC10:
	.string	" "
.LC11:
	.string	"%13s"
.LC12:
	.string	" - %d"
.LC13:
	.string	"%6d"
	.text
	.globl	printingCalender
	.type	printingCalender, @function
printingCalender:
.LFB7:
	.cfi_startproc
	endbr64
	pushq	%rbp
	.cfi_def_cfa_offset 16
	.cfi_offset 6, -16
	movq	%rsp, %rbp
	.cfi_def_cfa_register 6
	subq	$80, %rsp
	movl	%edi, -68(%rbp)
	movl	%esi, -72(%rbp)
#APP
# 45 "Harshpathakjnp_CCodings_main.c" 1
	##_ANNOTATION_INITIALREGION_-TIG-iO-cixh-1-printingCalender--36
# 0 "" 2
# 49 "Harshpathakjnp_CCodings_main.c" 1
	##_ANNOTATION_ATOMICREGION_-TIG-iO-cixh-1-printingCalender--35
# 0 "" 2
#NO_APP
	movl	$24, %edi
	call	malloc@PLT
	movq	%rax, -24(%rbp)
	movq	-24(%rbp), %rax
	movq	-24(%rbp), %rdx
	movq	%rdx, 8(%rax)
	movq	-24(%rbp), %rax
	movq	-24(%rbp), %rdx
	movq	%rdx, 16(%rax)
	movq	-24(%rbp), %rax
	movq	%rax, _TIG_iO_cixh_1_printingCalender_1_opaque_list_1(%rip)
	call	rand@PLT
	movl	%eax, -48(%rbp)
	movl	$24, %edi
	call	malloc@PLT
	movq	%rax, -16(%rbp)
	movq	-16(%rbp), %rax
	movl	$0, (%rax)
	movq	_TIG_iO_cixh_1_printingCalender_1_opaque_list_1(%rip), %rax
	movq	8(%rax), %rdx
	movq	-16(%rbp), %rax
	movq	%rdx, 8(%rax)
	movq	_TIG_iO_cixh_1_printingCalender_1_opaque_list_1(%rip), %rdx
	movq	-16(%rbp), %rax
	movq	%rdx, 16(%rax)
	movq	_TIG_iO_cixh_1_printingCalender_1_opaque_list_1(%rip), %rax
	movq	8(%rax), %rax
	movq	-16(%rbp), %rdx
	movq	%rdx, 16(%rax)
	movq	_TIG_iO_cixh_1_printingCalender_1_opaque_list_1(%rip), %rax
	movq	-16(%rbp), %rdx
	movq	%rdx, 8(%rax)
	call	rand@PLT
	movl	%eax, -44(%rbp)
	movl	$24, %edi
	call	malloc@PLT
	movq	%rax, -8(%rbp)
	movq	-8(%rbp), %rax
	movl	-44(%rbp), %edx
	movl	%edx, (%rax)
	movq	_TIG_iO_cixh_1_printingCalender_1_opaque_list_1(%rip), %rax
	movq	8(%rax), %rdx
	movq	-8(%rbp), %rax
	movq	%rdx, 8(%rax)
	movq	_TIG_iO_cixh_1_printingCalender_1_opaque_list_1(%rip), %rdx
	movq	-8(%rbp), %rax
	movq	%rdx, 16(%rax)
	movq	_TIG_iO_cixh_1_printingCalender_1_opaque_list_1(%rip), %rax
	movq	8(%rax), %rax
	movq	-8(%rbp), %rdx
	movq	%rdx, 16(%rax)
	movq	_TIG_iO_cixh_1_printingCalender_1_opaque_list_1(%rip), %rax
	movq	-8(%rbp), %rdx
	movq	%rdx, 8(%rax)
	movq	_TIG_iO_cixh_1_printingCalender_1_opaque_list_1(%rip), %rax
	movq	8(%rax), %rax
	movq	%rax, _TIG_iO_cixh_1_printingCalender_1_opaque_ptr_1(%rip)
	movq	_TIG_iO_cixh_1_printingCalender_1_opaque_ptr_1(%rip), %rax
	movq	%rax, _TIG_iO_cixh_1_printingCalender_1_opaque_ptr_2(%rip)
	nop
	nop
	movl	-72(%rbp), %edx
	movl	-68(%rbp), %eax
	movl	%eax, %esi
	movl	$1, %edi
	call	getWeekDayForDate
	movl	%eax, -40(%rbp)
	movl	-40(%rbp), %eax
	movl	%eax, -36(%rbp)
	movl	-72(%rbp), %edx
	movl	-68(%rbp), %eax
	movl	%edx, %esi
	movl	%eax, %edi
	call	daysInMonths
	movl	%eax, -32(%rbp)
	movl	-32(%rbp), %eax
	movl	%eax, -28(%rbp)
	leaq	.LC10(%rip), %rax
	movq	%rax, %rsi
	leaq	.LC11(%rip), %rax
	movq	%rax, %rdi
	movl	$0, %eax
	call	printf@PLT
	movl	-68(%rbp), %eax
	movl	%eax, %edi
	call	monthNames
	movl	-72(%rbp), %eax
	movl	%eax, %esi
	leaq	.LC12(%rip), %rax
	movq	%rax, %rdi
	movl	$0, %eax
	call	printf@PLT
	movl	$10, %edi
	call	putchar@PLT
	movl	$0, -60(%rbp)
	jmp	.L50
.L51:
	movl	-60(%rbp), %eax
	movl	%eax, %edi
	call	dayOfWeek
	addl	$1, -60(%rbp)
.L50:
	cmpl	$6, -60(%rbp)
	jle	.L51
	movl	$10, %edi
	call	putchar@PLT
	movl	$1, -56(%rbp)
.L55:
	movl	-56(%rbp), %eax
	cmpl	-36(%rbp), %eax
	jle	.L52
	movq	_TIG_iO_cixh_1_printingCalender_1_opaque_ptr_1(%rip), %rdx
	movq	_TIG_iO_cixh_1_printingCalender_1_opaque_ptr_2(%rip), %rax
	cmpq	%rax, %rdx
	je	.L60
	movl	-68(%rbp), %eax
	movl	%eax, %edi
	call	monthNames
	movl	%eax, -52(%rbp)
	jmp	.L60
.L52:
	leaq	.LC10(%rip), %rax
	movq	%rax, %rsi
	leaq	.LC1(%rip), %rax
	movq	%rax, %rdi
	movl	$0, %eax
	call	printf@PLT
	addl	$1, -56(%rbp)
	jmp	.L55
.L60:
	nop
	movl	$1, -52(%rbp)
	jmp	.L56
.L58:
	movl	-52(%rbp), %eax
	movl	%eax, %esi
	leaq	.LC13(%rip), %rax
	movq	%rax, %rdi
	movl	$0, %eax
	call	printf@PLT
	movl	-52(%rbp), %edx
	movl	-36(%rbp), %eax
	addl	%eax, %edx
	movslq	%edx, %rax
	imulq	$-1840700269, %rax, %rax
	shrq	$32, %rax
	addl	%edx, %eax
	sarl	$2, %eax
	movl	%edx, %ecx
	sarl	$31, %ecx
	subl	%ecx, %eax
	movl	%eax, %ecx
	sall	$3, %ecx
	subl	%eax, %ecx
	movl	%edx, %eax
	subl	%ecx, %eax
	testl	%eax, %eax
	jne	.L57
	movl	$10, %edi
	call	putchar@PLT
.L57:
	addl	$1, -52(%rbp)
.L56:
	movl	-52(%rbp), %eax
	cmpl	-28(%rbp), %eax
	jle	.L58
	movl	$0, %eax
	leave
	.cfi_def_cfa 7, 8
	ret
	.cfi_endproc
.LFE7:
	.size	printingCalender, .-printingCalender
	.section	.rodata
.LC14:
	.string	"Friday "
.LC15:
	.string	"Saturday "
.LC16:
	.string	"Sunday "
.LC17:
	.string	"Monday "
.LC18:
	.string	"Tuesday "
.LC19:
	.string	"Wednesday "
.LC20:
	.string	"Thursday "
	.text
	.globl	dayOfWeekByWeekDayNo
	.type	dayOfWeekByWeekDayNo, @function
dayOfWeekByWeekDayNo:
.LFB8:
	.cfi_startproc
	endbr64
	pushq	%rbp
	.cfi_def_cfa_offset 16
	.cfi_offset 6, -16
	movq	%rsp, %rbp
	.cfi_def_cfa_register 6
	subq	$48, %rsp
	movl	%edi, -36(%rbp)
#APP
# 70 "Harshpathakjnp_CCodings_main.c" 1
	##_ANNOTATION_INITIALREGION_-TIG-iO-cixh-1-dayOfWeekByWeekDayNo--20
# 0 "" 2
# 74 "Harshpathakjnp_CCodings_main.c" 1
	##_ANNOTATION_ATOMICREGION_-TIG-iO-cixh-1-dayOfWeekByWeekDayNo--19
# 0 "" 2
#NO_APP
	movl	$24, %edi
	call	malloc@PLT
	movq	%rax, -24(%rbp)
	movq	-24(%rbp), %rax
	movq	-24(%rbp), %rdx
	movq	%rdx, 8(%rax)
	movq	-24(%rbp), %rax
	movq	-24(%rbp), %rdx
	movq	%rdx, 16(%rax)
	movq	-24(%rbp), %rax
	movq	%rax, _TIG_iO_cixh_1_dayOfWeekByWeekDayNo_1_opaque_list_1(%rip)
	call	rand@PLT
	movl	%eax, -32(%rbp)
	movl	$24, %edi
	call	malloc@PLT
	movq	%rax, -16(%rbp)
	movq	-16(%rbp), %rax
	movl	$0, (%rax)
	movq	_TIG_iO_cixh_1_dayOfWeekByWeekDayNo_1_opaque_list_1(%rip), %rax
	movq	8(%rax), %rdx
	movq	-16(%rbp), %rax
	movq	%rdx, 8(%rax)
	movq	_TIG_iO_cixh_1_dayOfWeekByWeekDayNo_1_opaque_list_1(%rip), %rdx
	movq	-16(%rbp), %rax
	movq	%rdx, 16(%rax)
	movq	_TIG_iO_cixh_1_dayOfWeekByWeekDayNo_1_opaque_list_1(%rip), %rax
	movq	8(%rax), %rax
	movq	-16(%rbp), %rdx
	movq	%rdx, 16(%rax)
	movq	_TIG_iO_cixh_1_dayOfWeekByWeekDayNo_1_opaque_list_1(%rip), %rax
	movq	-16(%rbp), %rdx
	movq	%rdx, 8(%rax)
	call	rand@PLT
	movl	%eax, -28(%rbp)
	movl	$24, %edi
	call	malloc@PLT
	movq	%rax, -8(%rbp)
	movq	-8(%rbp), %rax
	movl	-28(%rbp), %edx
	movl	%edx, (%rax)
	movq	_TIG_iO_cixh_1_dayOfWeekByWeekDayNo_1_opaque_list_1(%rip), %rax
	movq	8(%rax), %rdx
	movq	-8(%rbp), %rax
	movq	%rdx, 8(%rax)
	movq	_TIG_iO_cixh_1_dayOfWeekByWeekDayNo_1_opaque_list_1(%rip), %rdx
	movq	-8(%rbp), %rax
	movq	%rdx, 16(%rax)
	movq	_TIG_iO_cixh_1_dayOfWeekByWeekDayNo_1_opaque_list_1(%rip), %rax
	movq	8(%rax), %rax
	movq	-8(%rbp), %rdx
	movq	%rdx, 16(%rax)
	movq	_TIG_iO_cixh_1_dayOfWeekByWeekDayNo_1_opaque_list_1(%rip), %rax
	movq	-8(%rbp), %rdx
	movq	%rdx, 8(%rax)
	movq	_TIG_iO_cixh_1_dayOfWeekByWeekDayNo_1_opaque_list_1(%rip), %rax
	movq	8(%rax), %rax
	movq	%rax, _TIG_iO_cixh_1_dayOfWeekByWeekDayNo_1_opaque_ptr_1(%rip)
	movq	_TIG_iO_cixh_1_dayOfWeekByWeekDayNo_1_opaque_ptr_1(%rip), %rax
	movq	%rax, _TIG_iO_cixh_1_dayOfWeekByWeekDayNo_1_opaque_ptr_2(%rip)
	nop
	nop
	cmpl	$6, -36(%rbp)
	ja	.L62
	movl	-36(%rbp), %eax
	leaq	0(,%rax,4), %rdx
	leaq	.L64(%rip), %rax
	movl	(%rdx,%rax), %eax
	cltq
	leaq	.L64(%rip), %rdx
	addq	%rdx, %rax
	notrack jmp	*%rax
	.section	.rodata
	.align 4
	.align 4
.L64:
	.long	.L70-.L64
	.long	.L69-.L64
	.long	.L68-.L64
	.long	.L67-.L64
	.long	.L66-.L64
	.long	.L65-.L64
	.long	.L63-.L64
	.text
.L65:
	leaq	.LC14(%rip), %rax
	movq	%rax, %rdi
	movl	$0, %eax
	call	printf@PLT
	jmp	.L71
.L63:
	leaq	.LC15(%rip), %rax
	movq	%rax, %rdi
	movl	$0, %eax
	call	printf@PLT
	jmp	.L71
.L70:
	leaq	.LC16(%rip), %rax
	movq	%rax, %rdi
	movl	$0, %eax
	call	printf@PLT
	jmp	.L71
.L69:
	leaq	.LC17(%rip), %rax
	movq	%rax, %rdi
	movl	$0, %eax
	call	printf@PLT
	movq	_TIG_iO_cixh_1_printingCalender_1_opaque_ptr_1(%rip), %rdx
	movq	_TIG_iO_cixh_1_printingCalender_1_opaque_ptr_2(%rip), %rax
	cmpq	%rax, %rdx
	je	.L74
	movl	-36(%rbp), %eax
	jmp	.L73
.L68:
	leaq	.LC18(%rip), %rax
	movq	%rax, %rdi
	movl	$0, %eax
	call	printf@PLT
	jmp	.L71
.L67:
	leaq	.LC19(%rip), %rax
	movq	%rax, %rdi
	movl	$0, %eax
	call	printf@PLT
	jmp	.L71
.L66:
	leaq	.LC20(%rip), %rax
	movq	%rax, %rdi
	movl	$0, %eax
	call	printf@PLT
	jmp	.L71
.L62:
	leaq	.LC8(%rip), %rax
	movq	%rax, %rdi
	movl	$0, %eax
	call	printf@PLT
	jmp	.L71
.L74:
	nop
.L71:
	movl	$0, %eax
.L73:
	leave
	.cfi_def_cfa 7, 8
	ret
	.cfi_endproc
.LFE8:
	.size	dayOfWeekByWeekDayNo, .-dayOfWeekByWeekDayNo
	.globl	isDateValid
	.type	isDateValid, @function
isDateValid:
.LFB9:
	.cfi_startproc
	endbr64
	pushq	%rbp
	.cfi_def_cfa_offset 16
	.cfi_offset 6, -16
	movq	%rsp, %rbp
	.cfi_def_cfa_register 6
	subq	$64, %rsp
	movl	%edi, -52(%rbp)
	movl	%esi, -56(%rbp)
	movl	%edx, -60(%rbp)
#APP
# 212 "Harshpathakjnp_CCodings_main.c" 1
	##_ANNOTATION_INITIALREGION_-TIG-iO-cixh-1-isDateValid--28
# 0 "" 2
# 216 "Harshpathakjnp_CCodings_main.c" 1
	##_ANNOTATION_ATOMICREGION_-TIG-iO-cixh-1-isDateValid--27
# 0 "" 2
#NO_APP
	movl	$24, %edi
	call	malloc@PLT
	movq	%rax, -24(%rbp)
	movq	-24(%rbp), %rax
	movq	-24(%rbp), %rdx
	movq	%rdx, 16(%rax)
	movq	-24(%rbp), %rax
	movq	-24(%rbp), %rdx
	movq	%rdx, 8(%rax)
	movq	-24(%rbp), %rax
	movq	%rax, _TIG_iO_cixh_1_isDateValid_1_opaque_list_1(%rip)
	call	rand@PLT
	movl	%eax, -36(%rbp)
	movl	$24, %edi
	call	malloc@PLT
	movq	%rax, -16(%rbp)
	movq	-16(%rbp), %rax
	movl	$0, (%rax)
	movq	_TIG_iO_cixh_1_isDateValid_1_opaque_list_1(%rip), %rax
	movq	16(%rax), %rdx
	movq	-16(%rbp), %rax
	movq	%rdx, 16(%rax)
	movq	_TIG_iO_cixh_1_isDateValid_1_opaque_list_1(%rip), %rdx
	movq	-16(%rbp), %rax
	movq	%rdx, 8(%rax)
	movq	_TIG_iO_cixh_1_isDateValid_1_opaque_list_1(%rip), %rax
	movq	16(%rax), %rax
	movq	-16(%rbp), %rdx
	movq	%rdx, 8(%rax)
	movq	_TIG_iO_cixh_1_isDateValid_1_opaque_list_1(%rip), %rax
	movq	-16(%rbp), %rdx
	movq	%rdx, 16(%rax)
	call	rand@PLT
	movl	%eax, -32(%rbp)
	movl	$24, %edi
	call	malloc@PLT
	movq	%rax, -8(%rbp)
	movq	-8(%rbp), %rax
	movl	-32(%rbp), %edx
	movl	%edx, (%rax)
	movq	_TIG_iO_cixh_1_isDateValid_1_opaque_list_1(%rip), %rax
	movq	16(%rax), %rdx
	movq	-8(%rbp), %rax
	movq	%rdx, 16(%rax)
	movq	_TIG_iO_cixh_1_isDateValid_1_opaque_list_1(%rip), %rdx
	movq	-8(%rbp), %rax
	movq	%rdx, 8(%rax)
	movq	_TIG_iO_cixh_1_isDateValid_1_opaque_list_1(%rip), %rax
	movq	16(%rax), %rax
	movq	-8(%rbp), %rdx
	movq	%rdx, 8(%rax)
	movq	_TIG_iO_cixh_1_isDateValid_1_opaque_list_1(%rip), %rax
	movq	-8(%rbp), %rdx
	movq	%rdx, 16(%rax)
	movq	_TIG_iO_cixh_1_isDateValid_1_opaque_list_1(%rip), %rax
	movq	16(%rax), %rax
	movq	%rax, _TIG_iO_cixh_1_isDateValid_1_opaque_ptr_1(%rip)
	movq	_TIG_iO_cixh_1_isDateValid_1_opaque_ptr_1(%rip), %rax
	movq	%rax, _TIG_iO_cixh_1_isDateValid_1_opaque_ptr_2(%rip)
	nop
	nop
	cmpl	$0, -60(%rbp)
	jg	.L76
	movl	$0, %eax
	jmp	.L77
.L76:
	cmpl	$0, -56(%rbp)
	jg	.L78
	movl	$0, %eax
	jmp	.L77
.L78:
	cmpl	$12, -56(%rbp)
	jle	.L79
	movl	$0, %eax
	jmp	.L77
.L79:
	cmpl	$0, -52(%rbp)
	jg	.L80
	movl	$0, %eax
	jmp	.L77
.L80:
	movq	_TIG_iO_cixh_1_printingCalender_1_opaque_ptr_1(%rip), %rdx
	movq	_TIG_iO_cixh_1_printingCalender_1_opaque_ptr_2(%rip), %rax
	cmpq	%rax, %rdx
	jne	.L81
	movl	-60(%rbp), %edx
	movl	-56(%rbp), %eax
	movl	%edx, %esi
	movl	%eax, %edi
	call	daysInMonths
	movl	%eax, -28(%rbp)
	movl	-28(%rbp), %eax
	movl	%eax, -40(%rbp)
.L81:
	movl	-52(%rbp), %eax
	cmpl	-40(%rbp), %eax
	jle	.L82
	movl	$0, %eax
	jmp	.L77
.L82:
	movl	$1, %eax
.L77:
	leave
	.cfi_def_cfa 7, 8
	ret
	.cfi_endproc
.LFE9:
	.size	isDateValid, .-isDateValid
	.globl	isLeapYear
	.type	isLeapYear, @function
isLeapYear:
.LFB10:
	.cfi_startproc
	endbr64
	pushq	%rbp
	.cfi_def_cfa_offset 16
	.cfi_offset 6, -16
	movq	%rsp, %rbp
	.cfi_def_cfa_register 6
	subq	$80, %rsp
	movl	%edi, -68(%rbp)
#APP
# 87 "Harshpathakjnp_CCodings_main.c" 1
	##_ANNOTATION_INITIALREGION_-TIG-iO-cixh-1-isLeapYear--30
# 0 "" 2
# 91 "Harshpathakjnp_CCodings_main.c" 1
	##_ANNOTATION_ATOMICREGION_-TIG-iO-cixh-1-isLeapYear--29
# 0 "" 2
#NO_APP
	movl	$24, %edi
	call	malloc@PLT
	movq	%rax, -40(%rbp)
	movq	-40(%rbp), %rax
	movq	-40(%rbp), %rdx
	movq	%rdx, 8(%rax)
	movq	-40(%rbp), %rax
	movq	-40(%rbp), %rdx
	movq	%rdx, (%rax)
	movq	-40(%rbp), %rax
	movq	%rax, _TIG_iO_cixh_1_isLeapYear_1_opaque_list_1(%rip)
	call	rand@PLT
	movl	%eax, -56(%rbp)
	movl	$24, %edi
	call	malloc@PLT
	movq	%rax, -32(%rbp)
	movq	-32(%rbp), %rax
	movl	$0, 16(%rax)
	movq	_TIG_iO_cixh_1_isLeapYear_1_opaque_list_1(%rip), %rax
	movq	8(%rax), %rdx
	movq	-32(%rbp), %rax
	movq	%rdx, 8(%rax)
	movq	_TIG_iO_cixh_1_isLeapYear_1_opaque_list_1(%rip), %rdx
	movq	-32(%rbp), %rax
	movq	%rdx, (%rax)
	movq	_TIG_iO_cixh_1_isLeapYear_1_opaque_list_1(%rip), %rax
	movq	8(%rax), %rax
	movq	-32(%rbp), %rdx
	movq	%rdx, (%rax)
	movq	_TIG_iO_cixh_1_isLeapYear_1_opaque_list_1(%rip), %rax
	movq	-32(%rbp), %rdx
	movq	%rdx, 8(%rax)
	call	rand@PLT
	movl	%eax, -52(%rbp)
	movl	$24, %edi
	call	malloc@PLT
	movq	%rax, -24(%rbp)
	movq	-24(%rbp), %rax
	movl	-52(%rbp), %edx
	movl	%edx, 16(%rax)
	movq	_TIG_iO_cixh_1_isLeapYear_1_opaque_list_1(%rip), %rax
	movq	8(%rax), %rdx
	movq	-24(%rbp), %rax
	movq	%rdx, 8(%rax)
	movq	_TIG_iO_cixh_1_isLeapYear_1_opaque_list_1(%rip), %rdx
	movq	-24(%rbp), %rax
	movq	%rdx, (%rax)
	movq	_TIG_iO_cixh_1_isLeapYear_1_opaque_list_1(%rip), %rax
	movq	8(%rax), %rax
	movq	-24(%rbp), %rdx
	movq	%rdx, (%rax)
	movq	_TIG_iO_cixh_1_isLeapYear_1_opaque_list_1(%rip), %rax
	movq	-24(%rbp), %rdx
	movq	%rdx, 8(%rax)
	call	rand@PLT
	movl	%eax, -48(%rbp)
	movl	$24, %edi
	call	malloc@PLT
	movq	%rax, -16(%rbp)
	movl	-48(%rbp), %eax
	leal	(%rax,%rax), %edx
	movq	-16(%rbp), %rax
	movl	%edx, 16(%rax)
	movq	_TIG_iO_cixh_1_isLeapYear_1_opaque_list_1(%rip), %rax
	movq	8(%rax), %rdx
	movq	-16(%rbp), %rax
	movq	%rdx, 8(%rax)
	movq	_TIG_iO_cixh_1_isLeapYear_1_opaque_list_1(%rip), %rdx
	movq	-16(%rbp), %rax
	movq	%rdx, (%rax)
	movq	_TIG_iO_cixh_1_isLeapYear_1_opaque_list_1(%rip), %rax
	movq	8(%rax), %rax
	movq	-16(%rbp), %rdx
	movq	%rdx, (%rax)
	movq	_TIG_iO_cixh_1_isLeapYear_1_opaque_list_1(%rip), %rax
	movq	-16(%rbp), %rdx
	movq	%rdx, 8(%rax)
	call	rand@PLT
	movl	%eax, -44(%rbp)
	movl	$24, %edi
	call	malloc@PLT
	movq	%rax, -8(%rbp)
	movl	-44(%rbp), %edx
	movl	%edx, %eax
	addl	%eax, %eax
	addl	%eax, %edx
	movq	-8(%rbp), %rax
	movl	%edx, 16(%rax)
	movq	_TIG_iO_cixh_1_isLeapYear_1_opaque_list_1(%rip), %rax
	movq	8(%rax), %rdx
	movq	-8(%rbp), %rax
	movq	%rdx, 8(%rax)
	movq	_TIG_iO_cixh_1_isLeapYear_1_opaque_list_1(%rip), %rdx
	movq	-8(%rbp), %rax
	movq	%rdx, (%rax)
	movq	_TIG_iO_cixh_1_isLeapYear_1_opaque_list_1(%rip), %rax
	movq	8(%rax), %rax
	movq	-8(%rbp), %rdx
	movq	%rdx, (%rax)
	movq	_TIG_iO_cixh_1_isLeapYear_1_opaque_list_1(%rip), %rax
	movq	-8(%rbp), %rdx
	movq	%rdx, 8(%rax)
	movq	_TIG_iO_cixh_1_isLeapYear_1_opaque_list_1(%rip), %rax
	movq	8(%rax), %rax
	movq	%rax, _TIG_iO_cixh_1_isLeapYear_1_opaque_ptr_1(%rip)
	movq	_TIG_iO_cixh_1_isLeapYear_1_opaque_ptr_1(%rip), %rax
	movq	%rax, _TIG_iO_cixh_1_isLeapYear_1_opaque_ptr_2(%rip)
	movq	_TIG_iO_cixh_1_isLeapYear_1_opaque_ptr_2(%rip), %rax
	movq	8(%rax), %rax
	movq	%rax, _TIG_iO_cixh_1_isLeapYear_1_opaque_ptr_2(%rip)
	nop
	nop
	movq	_TIG_iO_cixh_1_printingCalender_1_opaque_ptr_1(%rip), %rdx
	movq	_TIG_iO_cixh_1_printingCalender_1_opaque_ptr_2(%rip), %rax
	cmpq	%rax, %rdx
	je	.L84
#APP
# 135 "Harshpathakjnp_CCodings_main.c" 1
	.byte 0x0,0x0,0x0,0xe9,0x61,0x3,0x0,0x0
# 0 "" 2
#NO_APP
	movl	$0, %eax
	jmp	.L87
.L84:
	movl	-68(%rbp), %edx
	movslq	%edx, %rax
	imulq	$1374389535, %rax, %rax
	shrq	$32, %rax
	sarl	$7, %eax
	movl	%edx, %ecx
	sarl	$31, %ecx
	subl	%ecx, %eax
	imull	$400, %eax, %ecx
	movl	%edx, %eax
	subl	%ecx, %eax
	testl	%eax, %eax
	jne	.L86
	movl	$1, %eax
	jmp	.L87
.L86:
	movl	-68(%rbp), %eax
	andl	$3, %eax
	testl	%eax, %eax
	jne	.L88
	movl	-68(%rbp), %edx
	movslq	%edx, %rax
	imulq	$1374389535, %rax, %rax
	shrq	$32, %rax
	sarl	$5, %eax
	movl	%edx, %ecx
	sarl	$31, %ecx
	subl	%ecx, %eax
	imull	$100, %eax, %ecx
	movl	%edx, %eax
	subl	%ecx, %eax
	testl	%eax, %eax
	je	.L89
	movl	$1, %eax
	jmp	.L87
.L89:
	movl	$0, %eax
	jmp	.L87
.L88:
	movl	$0, %eax
.L87:
	leave
	.cfi_def_cfa 7, 8
	ret
	.cfi_endproc
.LFE10:
	.size	isLeapYear, .-isLeapYear
	.globl	daysInMonths
	.type	daysInMonths, @function
daysInMonths:
.LFB13:
	.cfi_startproc
	endbr64
	pushq	%rbp
	.cfi_def_cfa_offset 16
	.cfi_offset 6, -16
	movq	%rsp, %rbp
	.cfi_def_cfa_register 6
	subq	$64, %rsp
	movl	%edi, -52(%rbp)
	movl	%esi, -56(%rbp)
#APP
# 70 "/usr/include/x86_64-linux-gnu/bits/uintn-identity.h" 1
	##_ANNOTATION_INITIALREGION_-TIG-iO-cixh-1-daysInMonths--22
# 0 "" 2
# 74 "/usr/include/x86_64-linux-gnu/bits/uintn-identity.h" 1
	##_ANNOTATION_ATOMICREGION_-TIG-iO-cixh-1-daysInMonths--21
# 0 "" 2
#NO_APP
	movl	$24, %edi
	call	malloc@PLT
	movq	%rax, -32(%rbp)
	movq	-32(%rbp), %rax
	movq	-32(%rbp), %rdx
	movq	%rdx, (%rax)
	movq	-32(%rbp), %rax
	movq	-32(%rbp), %rdx
	movq	%rdx, 16(%rax)
	movq	-32(%rbp), %rax
	movq	%rax, _TIG_iO_cixh_1_daysInMonths_1_opaque_list_1(%rip)
	call	rand@PLT
	movl	%eax, -48(%rbp)
	movl	$24, %edi
	call	malloc@PLT
	movq	%rax, -24(%rbp)
	movq	-24(%rbp), %rax
	movl	$0, 8(%rax)
	movq	_TIG_iO_cixh_1_daysInMonths_1_opaque_list_1(%rip), %rax
	movq	(%rax), %rdx
	movq	-24(%rbp), %rax
	movq	%rdx, (%rax)
	movq	_TIG_iO_cixh_1_daysInMonths_1_opaque_list_1(%rip), %rdx
	movq	-24(%rbp), %rax
	movq	%rdx, 16(%rax)
	movq	_TIG_iO_cixh_1_daysInMonths_1_opaque_list_1(%rip), %rax
	movq	(%rax), %rax
	movq	-24(%rbp), %rdx
	movq	%rdx, 16(%rax)
	movq	_TIG_iO_cixh_1_daysInMonths_1_opaque_list_1(%rip), %rax
	movq	-24(%rbp), %rdx
	movq	%rdx, (%rax)
	call	rand@PLT
	movl	%eax, -44(%rbp)
	movl	$24, %edi
	call	malloc@PLT
	movq	%rax, -16(%rbp)
	movq	-16(%rbp), %rax
	movl	-44(%rbp), %edx
	movl	%edx, 8(%rax)
	movq	_TIG_iO_cixh_1_daysInMonths_1_opaque_list_1(%rip), %rax
	movq	(%rax), %rdx
	movq	-16(%rbp), %rax
	movq	%rdx, (%rax)
	movq	_TIG_iO_cixh_1_daysInMonths_1_opaque_list_1(%rip), %rdx
	movq	-16(%rbp), %rax
	movq	%rdx, 16(%rax)
	movq	_TIG_iO_cixh_1_daysInMonths_1_opaque_list_1(%rip), %rax
	movq	(%rax), %rax
	movq	-16(%rbp), %rdx
	movq	%rdx, 16(%rax)
	movq	_TIG_iO_cixh_1_daysInMonths_1_opaque_list_1(%rip), %rax
	movq	-16(%rbp), %rdx
	movq	%rdx, (%rax)
	call	rand@PLT
	movl	%eax, -40(%rbp)
	movl	$24, %edi
	call	malloc@PLT
	movq	%rax, -8(%rbp)
	movl	-40(%rbp), %eax
	leal	(%rax,%rax), %edx
	movq	-8(%rbp), %rax
	movl	%edx, 8(%rax)
	movq	_TIG_iO_cixh_1_daysInMonths_1_opaque_list_1(%rip), %rax
	movq	(%rax), %rdx
	movq	-8(%rbp), %rax
	movq	%rdx, (%rax)
	movq	_TIG_iO_cixh_1_daysInMonths_1_opaque_list_1(%rip), %rdx
	movq	-8(%rbp), %rax
	movq	%rdx, 16(%rax)
	movq	_TIG_iO_cixh_1_daysInMonths_1_opaque_list_1(%rip), %rax
	movq	(%rax), %rax
	movq	-8(%rbp), %rdx
	movq	%rdx, 16(%rax)
	movq	_TIG_iO_cixh_1_daysInMonths_1_opaque_list_1(%rip), %rax
	movq	-8(%rbp), %rdx
	movq	%rdx, (%rax)
	movq	_TIG_iO_cixh_1_daysInMonths_1_opaque_list_1(%rip), %rax
	movq	(%rax), %rax
	movq	%rax, _TIG_iO_cixh_1_daysInMonths_1_opaque_ptr_1(%rip)
	movq	_TIG_iO_cixh_1_daysInMonths_1_opaque_ptr_1(%rip), %rax
	movq	%rax, _TIG_iO_cixh_1_daysInMonths_1_opaque_ptr_2(%rip)
	movq	_TIG_iO_cixh_1_daysInMonths_1_opaque_ptr_2(%rip), %rax
	movq	(%rax), %rax
	movq	%rax, _TIG_iO_cixh_1_daysInMonths_1_opaque_ptr_2(%rip)
	nop
	nop
	cmpl	$4, -52(%rbp)
	jne	.L91
	movl	$30, %eax
	jmp	.L92
.L91:
	cmpl	$6, -52(%rbp)
	jne	.L93
	movl	$30, %eax
	jmp	.L92
.L93:
	cmpl	$9, -52(%rbp)
	jne	.L94
	movl	$30, %eax
	jmp	.L92
.L94:
	movq	_TIG_iO_cixh_1_printingCalender_1_opaque_ptr_1(%rip), %rdx
	movq	_TIG_iO_cixh_1_printingCalender_1_opaque_ptr_2(%rip), %rax
	cmpq	%rax, %rdx
	je	.L95
#APP
# 87 "/usr/include/x86_64-linux-gnu/bits/uintn-identity.h" 1
	.byte 0xd1,0x2f,0x0,0x0,0x44
# 0 "" 2
#NO_APP
	jmp	.L96
.L95:
	cmpl	$11, -52(%rbp)
	jne	.L96
	movl	$30, %eax
	jmp	.L92
.L96:
	cmpl	$2, -52(%rbp)
	jne	.L97
	movl	-56(%rbp), %eax
	movl	%eax, %edi
	call	isLeapYear
	movl	%eax, -36(%rbp)
	cmpl	$0, -36(%rbp)
	je	.L98
	movl	$29, %eax
	jmp	.L92
.L98:
	movl	$28, %eax
	jmp	.L92
.L97:
	movl	$31, %eax
.L92:
	leave
	.cfi_def_cfa 7, 8
	ret
	.cfi_endproc
.LFE13:
	.size	daysInMonths, .-daysInMonths
	.section	.rodata
.LC21:
	.string	"January  "
.LC22:
	.string	"February  "
.LC23:
	.string	"March  "
.LC24:
	.string	"April  "
.LC25:
	.string	"May  "
.LC26:
	.string	"June  "
.LC27:
	.string	"July  "
.LC28:
	.string	"August  "
.LC29:
	.string	"September  "
.LC30:
	.string	"October  "
.LC31:
	.string	"November  "
.LC32:
	.string	"December  "
.LC33:
	.string	"wrong Month"
	.text
	.globl	monthNames
	.type	monthNames, @function
monthNames:
.LFB16:
	.cfi_startproc
	endbr64
	pushq	%rbp
	.cfi_def_cfa_offset 16
	.cfi_offset 6, -16
	movq	%rsp, %rbp
	.cfi_def_cfa_register 6
	subq	$48, %rsp
	movl	%edi, -36(%rbp)
#APP
# 58 "/usr/include/x86_64-linux-gnu/bits/uintn-identity.h" 1
	##_ANNOTATION_INITIALREGION_-TIG-iO-cixh-1-monthNames--34
# 0 "" 2
# 62 "/usr/include/x86_64-linux-gnu/bits/uintn-identity.h" 1
	##_ANNOTATION_ATOMICREGION_-TIG-iO-cixh-1-monthNames--33
# 0 "" 2
#NO_APP
	movl	$24, %edi
	call	malloc@PLT
	movq	%rax, -24(%rbp)
	movq	-24(%rbp), %rax
	movq	-24(%rbp), %rdx
	movq	%rdx, (%rax)
	movq	-24(%rbp), %rax
	movq	-24(%rbp), %rdx
	movq	%rdx, 8(%rax)
	movq	-24(%rbp), %rax
	movq	%rax, _TIG_iO_cixh_1_monthNames_1_opaque_list_1(%rip)
	call	rand@PLT
	movl	%eax, -32(%rbp)
	movl	$24, %edi
	call	malloc@PLT
	movq	%rax, -16(%rbp)
	movq	-16(%rbp), %rax
	movl	$0, 16(%rax)
	movq	_TIG_iO_cixh_1_monthNames_1_opaque_list_1(%rip), %rax
	movq	(%rax), %rdx
	movq	-16(%rbp), %rax
	movq	%rdx, (%rax)
	movq	_TIG_iO_cixh_1_monthNames_1_opaque_list_1(%rip), %rdx
	movq	-16(%rbp), %rax
	movq	%rdx, 8(%rax)
	movq	_TIG_iO_cixh_1_monthNames_1_opaque_list_1(%rip), %rax
	movq	(%rax), %rax
	movq	-16(%rbp), %rdx
	movq	%rdx, 8(%rax)
	movq	_TIG_iO_cixh_1_monthNames_1_opaque_list_1(%rip), %rax
	movq	-16(%rbp), %rdx
	movq	%rdx, (%rax)
	call	rand@PLT
	movl	%eax, -28(%rbp)
	movl	$24, %edi
	call	malloc@PLT
	movq	%rax, -8(%rbp)
	movq	-8(%rbp), %rax
	movl	-28(%rbp), %edx
	movl	%edx, 16(%rax)
	movq	_TIG_iO_cixh_1_monthNames_1_opaque_list_1(%rip), %rax
	movq	(%rax), %rdx
	movq	-8(%rbp), %rax
	movq	%rdx, (%rax)
	movq	_TIG_iO_cixh_1_monthNames_1_opaque_list_1(%rip), %rdx
	movq	-8(%rbp), %rax
	movq	%rdx, 8(%rax)
	movq	_TIG_iO_cixh_1_monthNames_1_opaque_list_1(%rip), %rax
	movq	(%rax), %rax
	movq	-8(%rbp), %rdx
	movq	%rdx, 8(%rax)
	movq	_TIG_iO_cixh_1_monthNames_1_opaque_list_1(%rip), %rax
	movq	-8(%rbp), %rdx
	movq	%rdx, (%rax)
	movq	_TIG_iO_cixh_1_monthNames_1_opaque_list_1(%rip), %rax
	movq	(%rax), %rax
	movq	%rax, _TIG_iO_cixh_1_monthNames_1_opaque_ptr_1(%rip)
	movq	_TIG_iO_cixh_1_monthNames_1_opaque_ptr_1(%rip), %rax
	movq	%rax, _TIG_iO_cixh_1_monthNames_1_opaque_ptr_2(%rip)
	nop
	nop
	cmpl	$12, -36(%rbp)
	ja	.L100
	movl	-36(%rbp), %eax
	leaq	0(,%rax,4), %rdx
	leaq	.L102(%rip), %rax
	movl	(%rdx,%rax), %eax
	cltq
	leaq	.L102(%rip), %rdx
	addq	%rdx, %rax
	notrack jmp	*%rax
	.section	.rodata
	.align 4
	.align 4
.L102:
	.long	.L100-.L102
	.long	.L113-.L102
	.long	.L112-.L102
	.long	.L111-.L102
	.long	.L110-.L102
	.long	.L109-.L102
	.long	.L108-.L102
	.long	.L107-.L102
	.long	.L106-.L102
	.long	.L105-.L102
	.long	.L104-.L102
	.long	.L103-.L102
	.long	.L101-.L102
	.text
.L113:
	leaq	.LC21(%rip), %rax
	movq	%rax, %rdi
	movl	$0, %eax
	call	printf@PLT
	jmp	.L114
.L112:
	leaq	.LC22(%rip), %rax
	movq	%rax, %rdi
	movl	$0, %eax
	call	printf@PLT
	jmp	.L114
.L111:
	leaq	.LC23(%rip), %rax
	movq	%rax, %rdi
	movl	$0, %eax
	call	printf@PLT
	jmp	.L114
.L110:
	leaq	.LC24(%rip), %rax
	movq	%rax, %rdi
	movl	$0, %eax
	call	printf@PLT
	jmp	.L114
.L109:
	leaq	.LC25(%rip), %rax
	movq	%rax, %rdi
	movl	$0, %eax
	call	printf@PLT
	jmp	.L114
.L108:
	leaq	.LC26(%rip), %rax
	movq	%rax, %rdi
	movl	$0, %eax
	call	printf@PLT
	jmp	.L114
.L107:
	leaq	.LC27(%rip), %rax
	movq	%rax, %rdi
	movl	$0, %eax
	call	printf@PLT
	jmp	.L114
.L106:
	leaq	.LC28(%rip), %rax
	movq	%rax, %rdi
	movl	$0, %eax
	call	printf@PLT
	jmp	.L114
.L105:
	leaq	.LC29(%rip), %rax
	movq	%rax, %rdi
	movl	$0, %eax
	call	printf@PLT
	movq	_TIG_iO_cixh_1_printingCalender_1_opaque_ptr_1(%rip), %rdx
	movq	_TIG_iO_cixh_1_printingCalender_1_opaque_ptr_2(%rip), %rax
	cmpq	%rax, %rdx
	je	.L117
	movl	-32(%rbp), %eax
	jmp	.L116
.L104:
	leaq	.LC30(%rip), %rax
	movq	%rax, %rdi
	movl	$0, %eax
	call	printf@PLT
	jmp	.L114
.L103:
	leaq	.LC31(%rip), %rax
	movq	%rax, %rdi
	movl	$0, %eax
	call	printf@PLT
	jmp	.L114
.L101:
	leaq	.LC32(%rip), %rax
	movq	%rax, %rdi
	movl	$0, %eax
	call	printf@PLT
	jmp	.L114
.L100:
	leaq	.LC33(%rip), %rax
	movq	%rax, %rdi
	movl	$0, %eax
	call	printf@PLT
	jmp	.L114
.L117:
	nop
.L114:
	movl	$0, %eax
.L116:
	leave
	.cfi_def_cfa 7, 8
	ret
	.cfi_endproc
.LFE16:
	.size	monthNames, .-monthNames
	.globl	dayDifferenceFromToday
	.type	dayDifferenceFromToday, @function
dayDifferenceFromToday:
.LFB17:
	.cfi_startproc
	endbr64
	pushq	%rbp
	.cfi_def_cfa_offset 16
	.cfi_offset 6, -16
	movq	%rsp, %rbp
	.cfi_def_cfa_register 6
	subq	$80, %rsp
	movl	%edi, -68(%rbp)
	movl	%esi, -72(%rbp)
	movl	%edx, -76(%rbp)
#APP
# 290 "Harshpathakjnp_CCodings_main.c" 1
	##_ANNOTATION_INITIALREGION_-TIG-iO-cixh-1-dayDifferenceFromToday--16
# 0 "" 2
# 294 "Harshpathakjnp_CCodings_main.c" 1
	##_ANNOTATION_ATOMICREGION_-TIG-iO-cixh-1-dayDifferenceFromToday--15
# 0 "" 2
#NO_APP
	movl	$24, %edi
	call	malloc@PLT
	movq	%rax, -24(%rbp)
	movq	-24(%rbp), %rax
	movq	-24(%rbp), %rdx
	movq	%rdx, 16(%rax)
	movq	-24(%rbp), %rax
	movq	-24(%rbp), %rdx
	movq	%rdx, 8(%rax)
	movq	-24(%rbp), %rax
	movq	%rax, _TIG_iO_cixh_1_dayDifferenceFromToday_1_opaque_list_1(%rip)
	call	rand@PLT
	movl	%eax, -52(%rbp)
	movl	$24, %edi
	call	malloc@PLT
	movq	%rax, -16(%rbp)
	movq	-16(%rbp), %rax
	movl	$0, (%rax)
	movq	_TIG_iO_cixh_1_dayDifferenceFromToday_1_opaque_list_1(%rip), %rax
	movq	16(%rax), %rdx
	movq	-16(%rbp), %rax
	movq	%rdx, 16(%rax)
	movq	_TIG_iO_cixh_1_dayDifferenceFromToday_1_opaque_list_1(%rip), %rdx
	movq	-16(%rbp), %rax
	movq	%rdx, 8(%rax)
	movq	_TIG_iO_cixh_1_dayDifferenceFromToday_1_opaque_list_1(%rip), %rax
	movq	16(%rax), %rax
	movq	-16(%rbp), %rdx
	movq	%rdx, 8(%rax)
	movq	_TIG_iO_cixh_1_dayDifferenceFromToday_1_opaque_list_1(%rip), %rax
	movq	-16(%rbp), %rdx
	movq	%rdx, 16(%rax)
	call	rand@PLT
	movl	%eax, -48(%rbp)
	movl	$24, %edi
	call	malloc@PLT
	movq	%rax, -8(%rbp)
	movq	-8(%rbp), %rax
	movl	-48(%rbp), %edx
	movl	%edx, (%rax)
	movq	_TIG_iO_cixh_1_dayDifferenceFromToday_1_opaque_list_1(%rip), %rax
	movq	16(%rax), %rdx
	movq	-8(%rbp), %rax
	movq	%rdx, 16(%rax)
	movq	_TIG_iO_cixh_1_dayDifferenceFromToday_1_opaque_list_1(%rip), %rdx
	movq	-8(%rbp), %rax
	movq	%rdx, 8(%rax)
	movq	_TIG_iO_cixh_1_dayDifferenceFromToday_1_opaque_list_1(%rip), %rax
	movq	16(%rax), %rax
	movq	-8(%rbp), %rdx
	movq	%rdx, 8(%rax)
	movq	_TIG_iO_cixh_1_dayDifferenceFromToday_1_opaque_list_1(%rip), %rax
	movq	-8(%rbp), %rdx
	movq	%rdx, 16(%rax)
	movq	_TIG_iO_cixh_1_dayDifferenceFromToday_1_opaque_list_1(%rip), %rax
	movq	16(%rax), %rax
	movq	%rax, _TIG_iO_cixh_1_dayDifferenceFromToday_1_opaque_ptr_1(%rip)
	movq	_TIG_iO_cixh_1_dayDifferenceFromToday_1_opaque_ptr_1(%rip), %rax
	movq	%rax, _TIG_iO_cixh_1_dayDifferenceFromToday_1_opaque_ptr_2(%rip)
	nop
	nop
	movq	_TIG_iO_cixh_1_printingCalender_1_opaque_ptr_1(%rip), %rdx
	movq	_TIG_iO_cixh_1_printingCalender_1_opaque_ptr_2(%rip), %rax
	cmpq	%rax, %rdx
	je	.L119
#APP
# 323 "Harshpathakjnp_CCodings_main.c" 1
	.byte 0x57,0xfa,0x36,0x51,0x76,0xaa
# 0 "" 2
#NO_APP
	jmp	.L118
.L119:
	movl	$31, -44(%rbp)
	movl	$10, -40(%rbp)
	movl	$2021, -36(%rbp)
	movl	-76(%rbp), %r8d
	movl	-72(%rbp), %edi
	movl	-68(%rbp), %ecx
	movl	-36(%rbp), %edx
	movl	-40(%rbp), %esi
	movl	-44(%rbp), %eax
	movl	%r8d, %r9d
	movl	%edi, %r8d
	movl	%eax, %edi
	call	gapBetweenDates
	movl	%eax, -32(%rbp)
	movl	-32(%rbp), %eax
	movl	%eax, -28(%rbp)
	movl	-28(%rbp), %eax
	movslq	%eax, %rdx
	imulq	$-1840700269, %rdx, %rdx
	shrq	$32, %rdx
	addl	%eax, %edx
	sarl	$2, %edx
	movl	%eax, %esi
	sarl	$31, %esi
	movl	%edx, %ecx
	subl	%esi, %ecx
	movl	%ecx, %edx
	sall	$3, %edx
	subl	%ecx, %edx
	subl	%edx, %eax
	movl	%eax, -28(%rbp)
	addl	$7, -28(%rbp)
	movl	-28(%rbp), %eax
	movslq	%eax, %rdx
	imulq	$-1840700269, %rdx, %rdx
	shrq	$32, %rdx
	addl	%eax, %edx
	sarl	$2, %edx
	movl	%eax, %esi
	sarl	$31, %esi
	movl	%edx, %ecx
	subl	%esi, %ecx
	movl	%ecx, %edx
	sall	$3, %edx
	subl	%ecx, %edx
	subl	%edx, %eax
	movl	%eax, -28(%rbp)
	movl	-28(%rbp), %eax
	movl	%eax, %edi
	call	dayOfWeekByWeekDayNo
	nop
.L118:
	leave
	.cfi_def_cfa 7, 8
	ret
	.cfi_endproc
.LFE17:
	.size	dayDifferenceFromToday, .-dayDifferenceFromToday
	.ident	"GCC: (Ubuntu 11.4.0-1ubuntu1~22.04) 11.4.0"
	.section	.note.GNU-stack,"",@progbits
	.section	.note.gnu.property,"a"
	.align 8
	.long	1f - 0f
	.long	4f - 1f
	.long	5
0:
	.string	"GNU"
1:
	.align 8
	.long	0xc0000002
	.long	3f - 2f
2:
	.long	0x3
3:
	.align 8
4:
