	.file	"ibrahim-isikli_embedded_c_exercise_main_opaque.c"
	.text
	.globl	_TIG_iO_XxWH_1___uint32_identity_1_opaque_ptr_2
	.bss
	.align 8
	.type	_TIG_iO_XxWH_1___uint32_identity_1_opaque_ptr_2, @object
	.size	_TIG_iO_XxWH_1___uint32_identity_1_opaque_ptr_2, 8
_TIG_iO_XxWH_1___uint32_identity_1_opaque_ptr_2:
	.zero	8
	.globl	_TIG_iO_XxWH_1___bswap_64_1_opaque_list_2
	.align 8
	.type	_TIG_iO_XxWH_1___bswap_64_1_opaque_list_2, @object
	.size	_TIG_iO_XxWH_1___bswap_64_1_opaque_list_2, 8
_TIG_iO_XxWH_1___bswap_64_1_opaque_list_2:
	.zero	8
	.globl	_TIG_iO_XxWH_1___bswap_64_1_opaque_ptr_2
	.align 8
	.type	_TIG_iO_XxWH_1___bswap_64_1_opaque_ptr_2, @object
	.size	_TIG_iO_XxWH_1___bswap_64_1_opaque_ptr_2, 8
_TIG_iO_XxWH_1___bswap_64_1_opaque_ptr_2:
	.zero	8
	.globl	_TIG_iO_XxWH_1___uint32_identity_1_opaque_list_2
	.align 8
	.type	_TIG_iO_XxWH_1___uint32_identity_1_opaque_list_2, @object
	.size	_TIG_iO_XxWH_1___uint32_identity_1_opaque_list_2, 8
_TIG_iO_XxWH_1___uint32_identity_1_opaque_list_2:
	.zero	8
	.globl	_TIG_iO_XxWH_1_main_1_opaque_ptr_1
	.align 8
	.type	_TIG_iO_XxWH_1_main_1_opaque_ptr_1, @object
	.size	_TIG_iO_XxWH_1_main_1_opaque_ptr_1, 8
_TIG_iO_XxWH_1_main_1_opaque_ptr_1:
	.zero	8
	.globl	_TIG_iO_XxWH_1_subtract_1_opaque_list_1
	.align 8
	.type	_TIG_iO_XxWH_1_subtract_1_opaque_list_1, @object
	.size	_TIG_iO_XxWH_1_subtract_1_opaque_list_1, 8
_TIG_iO_XxWH_1_subtract_1_opaque_list_1:
	.zero	8
	.globl	_TIG_iO_XxWH_1___bswap_16_1_opaque_ptr_2
	.align 8
	.type	_TIG_iO_XxWH_1___bswap_16_1_opaque_ptr_2, @object
	.size	_TIG_iO_XxWH_1___bswap_16_1_opaque_ptr_2, 8
_TIG_iO_XxWH_1___bswap_16_1_opaque_ptr_2:
	.zero	8
	.globl	_TIG_IZ_XxWH_argc
	.align 4
	.type	_TIG_IZ_XxWH_argc, @object
	.size	_TIG_IZ_XxWH_argc, 4
_TIG_IZ_XxWH_argc:
	.zero	4
	.globl	_TIG_iO_XxWH_1_subtract_1_opaque_ptr_2
	.align 8
	.type	_TIG_iO_XxWH_1_subtract_1_opaque_ptr_2, @object
	.size	_TIG_iO_XxWH_1_subtract_1_opaque_ptr_2, 8
_TIG_iO_XxWH_1_subtract_1_opaque_ptr_2:
	.zero	8
	.globl	_TIG_iO_XxWH_1_multiply_1_opaque_list_1
	.align 8
	.type	_TIG_iO_XxWH_1_multiply_1_opaque_list_1, @object
	.size	_TIG_iO_XxWH_1_multiply_1_opaque_list_1, 8
_TIG_iO_XxWH_1_multiply_1_opaque_list_1:
	.zero	8
	.globl	_TIG_IZ_XxWH_envp
	.align 8
	.type	_TIG_IZ_XxWH_envp, @object
	.size	_TIG_IZ_XxWH_envp, 8
_TIG_IZ_XxWH_envp:
	.zero	8
	.globl	_TIG_iO_XxWH_1___uint16_identity_1_opaque_ptr_2
	.align 8
	.type	_TIG_iO_XxWH_1___uint16_identity_1_opaque_ptr_2, @object
	.size	_TIG_iO_XxWH_1___uint16_identity_1_opaque_ptr_2, 8
_TIG_iO_XxWH_1___uint16_identity_1_opaque_ptr_2:
	.zero	8
	.globl	_TIG_iO_XxWH_1___uint32_identity_1_opaque_list_1
	.align 8
	.type	_TIG_iO_XxWH_1___uint32_identity_1_opaque_list_1, @object
	.size	_TIG_iO_XxWH_1___uint32_identity_1_opaque_list_1, 8
_TIG_iO_XxWH_1___uint32_identity_1_opaque_list_1:
	.zero	8
	.globl	_TIG_iO_XxWH_1___uint64_identity_1_opaque_ptr_2
	.align 8
	.type	_TIG_iO_XxWH_1___uint64_identity_1_opaque_ptr_2, @object
	.size	_TIG_iO_XxWH_1___uint64_identity_1_opaque_ptr_2, 8
_TIG_iO_XxWH_1___uint64_identity_1_opaque_ptr_2:
	.zero	8
	.globl	_TIG_iO_XxWH_1___bswap_16_1_opaque_list_1
	.align 8
	.type	_TIG_iO_XxWH_1___bswap_16_1_opaque_list_1, @object
	.size	_TIG_iO_XxWH_1___bswap_16_1_opaque_list_1, 8
_TIG_iO_XxWH_1___bswap_16_1_opaque_list_1:
	.zero	8
	.globl	_TIG_iO_XxWH_1_subtract_1_opaque_ptr_1
	.align 8
	.type	_TIG_iO_XxWH_1_subtract_1_opaque_ptr_1, @object
	.size	_TIG_iO_XxWH_1_subtract_1_opaque_ptr_1, 8
_TIG_iO_XxWH_1_subtract_1_opaque_ptr_1:
	.zero	8
	.globl	_TIG_iO_XxWH_1___uint64_identity_1_opaque_list_2
	.align 8
	.type	_TIG_iO_XxWH_1___uint64_identity_1_opaque_list_2, @object
	.size	_TIG_iO_XxWH_1___uint64_identity_1_opaque_list_2, 8
_TIG_iO_XxWH_1___uint64_identity_1_opaque_list_2:
	.zero	8
	.globl	_TIG_iO_XxWH_1_multiply_1_opaque_list_2
	.align 8
	.type	_TIG_iO_XxWH_1_multiply_1_opaque_list_2, @object
	.size	_TIG_iO_XxWH_1_multiply_1_opaque_list_2, 8
_TIG_iO_XxWH_1_multiply_1_opaque_list_2:
	.zero	8
	.globl	_TIG_iO_XxWH_1___bswap_32_1_opaque_ptr_1
	.align 8
	.type	_TIG_iO_XxWH_1___bswap_32_1_opaque_ptr_1, @object
	.size	_TIG_iO_XxWH_1___bswap_32_1_opaque_ptr_1, 8
_TIG_iO_XxWH_1___bswap_32_1_opaque_ptr_1:
	.zero	8
	.globl	_TIG_iO_XxWH_1___bswap_32_1_opaque_list_1
	.align 8
	.type	_TIG_iO_XxWH_1___bswap_32_1_opaque_list_1, @object
	.size	_TIG_iO_XxWH_1___bswap_32_1_opaque_list_1, 8
_TIG_iO_XxWH_1___bswap_32_1_opaque_list_1:
	.zero	8
	.globl	_TIG_iO_XxWH_1_add_1_opaque_list_1
	.align 8
	.type	_TIG_iO_XxWH_1_add_1_opaque_list_1, @object
	.size	_TIG_iO_XxWH_1_add_1_opaque_list_1, 8
_TIG_iO_XxWH_1_add_1_opaque_list_1:
	.zero	8
	.globl	_TIG_iO_XxWH_1_multiply_1_opaque_ptr_1
	.align 8
	.type	_TIG_iO_XxWH_1_multiply_1_opaque_ptr_1, @object
	.size	_TIG_iO_XxWH_1_multiply_1_opaque_ptr_1, 8
_TIG_iO_XxWH_1_multiply_1_opaque_ptr_1:
	.zero	8
	.globl	_TIG_iO_XxWH_1___uint16_identity_1_opaque_list_1
	.align 8
	.type	_TIG_iO_XxWH_1___uint16_identity_1_opaque_list_1, @object
	.size	_TIG_iO_XxWH_1___uint16_identity_1_opaque_list_1, 8
_TIG_iO_XxWH_1___uint16_identity_1_opaque_list_1:
	.zero	8
	.globl	_TIG_iO_XxWH_1___uint32_identity_1_opaque_ptr_1
	.align 8
	.type	_TIG_iO_XxWH_1___uint32_identity_1_opaque_ptr_1, @object
	.size	_TIG_iO_XxWH_1___uint32_identity_1_opaque_ptr_1, 8
_TIG_iO_XxWH_1___uint32_identity_1_opaque_ptr_1:
	.zero	8
	.globl	_TIG_iO_XxWH_1_multiply_1_opaque_ptr_2
	.align 8
	.type	_TIG_iO_XxWH_1_multiply_1_opaque_ptr_2, @object
	.size	_TIG_iO_XxWH_1_multiply_1_opaque_ptr_2, 8
_TIG_iO_XxWH_1_multiply_1_opaque_ptr_2:
	.zero	8
	.globl	_TIG_iO_XxWH_1_main_1_opaque_ptr_2
	.align 8
	.type	_TIG_iO_XxWH_1_main_1_opaque_ptr_2, @object
	.size	_TIG_iO_XxWH_1_main_1_opaque_ptr_2, 8
_TIG_iO_XxWH_1_main_1_opaque_ptr_2:
	.zero	8
	.globl	_TIG_iO_XxWH_1_subtract_1_opaque_list_2
	.align 8
	.type	_TIG_iO_XxWH_1_subtract_1_opaque_list_2, @object
	.size	_TIG_iO_XxWH_1_subtract_1_opaque_list_2, 8
_TIG_iO_XxWH_1_subtract_1_opaque_list_2:
	.zero	8
	.globl	_TIG_iO_XxWH_1___uint16_identity_1_opaque_list_2
	.align 8
	.type	_TIG_iO_XxWH_1___uint16_identity_1_opaque_list_2, @object
	.size	_TIG_iO_XxWH_1___uint16_identity_1_opaque_list_2, 8
_TIG_iO_XxWH_1___uint16_identity_1_opaque_list_2:
	.zero	8
	.globl	_TIG_iO_XxWH_1_main_1_opaque_list_2
	.align 8
	.type	_TIG_iO_XxWH_1_main_1_opaque_list_2, @object
	.size	_TIG_iO_XxWH_1_main_1_opaque_list_2, 8
_TIG_iO_XxWH_1_main_1_opaque_list_2:
	.zero	8
	.globl	_TIG_iO_XxWH_1___bswap_32_1_opaque_list_2
	.align 8
	.type	_TIG_iO_XxWH_1___bswap_32_1_opaque_list_2, @object
	.size	_TIG_iO_XxWH_1___bswap_32_1_opaque_list_2, 8
_TIG_iO_XxWH_1___bswap_32_1_opaque_list_2:
	.zero	8
	.globl	_TIG_iO_XxWH_1_add_1_opaque_list_2
	.align 8
	.type	_TIG_iO_XxWH_1_add_1_opaque_list_2, @object
	.size	_TIG_iO_XxWH_1_add_1_opaque_list_2, 8
_TIG_iO_XxWH_1_add_1_opaque_list_2:
	.zero	8
	.globl	_TIG_iO_XxWH_1___uint64_identity_1_opaque_list_1
	.align 8
	.type	_TIG_iO_XxWH_1___uint64_identity_1_opaque_list_1, @object
	.size	_TIG_iO_XxWH_1___uint64_identity_1_opaque_list_1, 8
_TIG_iO_XxWH_1___uint64_identity_1_opaque_list_1:
	.zero	8
	.globl	_TIG_iO_XxWH_1_add_1_opaque_ptr_1
	.align 8
	.type	_TIG_iO_XxWH_1_add_1_opaque_ptr_1, @object
	.size	_TIG_iO_XxWH_1_add_1_opaque_ptr_1, 8
_TIG_iO_XxWH_1_add_1_opaque_ptr_1:
	.zero	8
	.globl	_TIG_iO_XxWH_1___bswap_64_1_opaque_ptr_1
	.align 8
	.type	_TIG_iO_XxWH_1___bswap_64_1_opaque_ptr_1, @object
	.size	_TIG_iO_XxWH_1___bswap_64_1_opaque_ptr_1, 8
_TIG_iO_XxWH_1___bswap_64_1_opaque_ptr_1:
	.zero	8
	.globl	_TIG_iO_XxWH_1_add_1_opaque_ptr_2
	.align 8
	.type	_TIG_iO_XxWH_1_add_1_opaque_ptr_2, @object
	.size	_TIG_iO_XxWH_1_add_1_opaque_ptr_2, 8
_TIG_iO_XxWH_1_add_1_opaque_ptr_2:
	.zero	8
	.globl	_TIG_iO_XxWH_1___uint64_identity_1_opaque_ptr_1
	.align 8
	.type	_TIG_iO_XxWH_1___uint64_identity_1_opaque_ptr_1, @object
	.size	_TIG_iO_XxWH_1___uint64_identity_1_opaque_ptr_1, 8
_TIG_iO_XxWH_1___uint64_identity_1_opaque_ptr_1:
	.zero	8
	.globl	_TIG_iO_XxWH_1___bswap_32_1_opaque_ptr_2
	.align 8
	.type	_TIG_iO_XxWH_1___bswap_32_1_opaque_ptr_2, @object
	.size	_TIG_iO_XxWH_1___bswap_32_1_opaque_ptr_2, 8
_TIG_iO_XxWH_1___bswap_32_1_opaque_ptr_2:
	.zero	8
	.globl	_TIG_iO_XxWH_1___bswap_16_1_opaque_ptr_1
	.align 8
	.type	_TIG_iO_XxWH_1___bswap_16_1_opaque_ptr_1, @object
	.size	_TIG_iO_XxWH_1___bswap_16_1_opaque_ptr_1, 8
_TIG_iO_XxWH_1___bswap_16_1_opaque_ptr_1:
	.zero	8
	.globl	_TIG_iO_XxWH_1___bswap_16_1_opaque_list_2
	.align 8
	.type	_TIG_iO_XxWH_1___bswap_16_1_opaque_list_2, @object
	.size	_TIG_iO_XxWH_1___bswap_16_1_opaque_list_2, 8
_TIG_iO_XxWH_1___bswap_16_1_opaque_list_2:
	.zero	8
	.globl	_TIG_iO_XxWH_1___bswap_64_1_opaque_list_1
	.align 8
	.type	_TIG_iO_XxWH_1___bswap_64_1_opaque_list_1, @object
	.size	_TIG_iO_XxWH_1___bswap_64_1_opaque_list_1, 8
_TIG_iO_XxWH_1___bswap_64_1_opaque_list_1:
	.zero	8
	.globl	_TIG_iO_XxWH_1___uint16_identity_1_opaque_ptr_1
	.align 8
	.type	_TIG_iO_XxWH_1___uint16_identity_1_opaque_ptr_1, @object
	.size	_TIG_iO_XxWH_1___uint16_identity_1_opaque_ptr_1, 8
_TIG_iO_XxWH_1___uint16_identity_1_opaque_ptr_1:
	.zero	8
	.globl	_TIG_iO_XxWH_1_main_1_opaque_list_1
	.align 8
	.type	_TIG_iO_XxWH_1_main_1_opaque_list_1, @object
	.size	_TIG_iO_XxWH_1_main_1_opaque_list_1, 8
_TIG_iO_XxWH_1_main_1_opaque_list_1:
	.zero	8
	.globl	_TIG_IZ_XxWH_argv
	.align 8
	.type	_TIG_IZ_XxWH_argv, @object
	.size	_TIG_IZ_XxWH_argv, 8
_TIG_IZ_XxWH_argv:
	.zero	8
	.text
	.globl	subtract
	.type	subtract, @function
subtract:
.LFB0:
	.cfi_startproc
	endbr64
	pushq	%rbp
	.cfi_def_cfa_offset 16
	.cfi_offset 6, -16
	movq	%rsp, %rbp
	.cfi_def_cfa_register 6
	subq	$48, %rsp
	movl	%edi, -36(%rbp)
	movl	%esi, -40(%rbp)
#APP
# 76 "/usr/include/stdlib.h" 1
	##_ANNOTATION_INITIALREGION_-TIG-iO-XxWH-1-subtract--20
# 0 "" 2
# 80 "/usr/include/stdlib.h" 1
	##_ANNOTATION_ATOMICREGION_-TIG-iO-XxWH-1-subtract--19
# 0 "" 2
#NO_APP
	movl	$24, %edi
	call	malloc@PLT
	movq	%rax, -24(%rbp)
	movq	-24(%rbp), %rax
	movq	-24(%rbp), %rdx
	movq	%rdx, 8(%rax)
	movq	-24(%rbp), %rax
	movq	-24(%rbp), %rdx
	movq	%rdx, 16(%rax)
	movq	-24(%rbp), %rax
	movq	%rax, _TIG_iO_XxWH_1_subtract_1_opaque_list_1(%rip)
	call	rand@PLT
	movl	%eax, -32(%rbp)
	movl	$24, %edi
	call	malloc@PLT
	movq	%rax, -16(%rbp)
	movq	-16(%rbp), %rax
	movl	$0, (%rax)
	movq	_TIG_iO_XxWH_1_subtract_1_opaque_list_1(%rip), %rax
	movq	8(%rax), %rdx
	movq	-16(%rbp), %rax
	movq	%rdx, 8(%rax)
	movq	_TIG_iO_XxWH_1_subtract_1_opaque_list_1(%rip), %rdx
	movq	-16(%rbp), %rax
	movq	%rdx, 16(%rax)
	movq	_TIG_iO_XxWH_1_subtract_1_opaque_list_1(%rip), %rax
	movq	8(%rax), %rax
	movq	-16(%rbp), %rdx
	movq	%rdx, 16(%rax)
	movq	_TIG_iO_XxWH_1_subtract_1_opaque_list_1(%rip), %rax
	movq	-16(%rbp), %rdx
	movq	%rdx, 8(%rax)
	call	rand@PLT
	movl	%eax, -28(%rbp)
	movl	$24, %edi
	call	malloc@PLT
	movq	%rax, -8(%rbp)
	movq	-8(%rbp), %rax
	movl	-28(%rbp), %edx
	movl	%edx, (%rax)
	movq	_TIG_iO_XxWH_1_subtract_1_opaque_list_1(%rip), %rax
	movq	8(%rax), %rdx
	movq	-8(%rbp), %rax
	movq	%rdx, 8(%rax)
	movq	_TIG_iO_XxWH_1_subtract_1_opaque_list_1(%rip), %rdx
	movq	-8(%rbp), %rax
	movq	%rdx, 16(%rax)
	movq	_TIG_iO_XxWH_1_subtract_1_opaque_list_1(%rip), %rax
	movq	8(%rax), %rax
	movq	-8(%rbp), %rdx
	movq	%rdx, 16(%rax)
	movq	_TIG_iO_XxWH_1_subtract_1_opaque_list_1(%rip), %rax
	movq	-8(%rbp), %rdx
	movq	%rdx, 8(%rax)
	movq	_TIG_iO_XxWH_1_subtract_1_opaque_list_1(%rip), %rax
	movq	8(%rax), %rax
	movq	%rax, _TIG_iO_XxWH_1_subtract_1_opaque_ptr_1(%rip)
	movq	_TIG_iO_XxWH_1_subtract_1_opaque_ptr_1(%rip), %rax
	movq	%rax, _TIG_iO_XxWH_1_subtract_1_opaque_ptr_2(%rip)
	nop
	nop
	movq	_TIG_iO_XxWH_1_subtract_1_opaque_ptr_1(%rip), %rdx
	movq	_TIG_iO_XxWH_1_subtract_1_opaque_ptr_2(%rip), %rax
	cmpq	%rax, %rdx
	jne	.L2
	movl	-36(%rbp), %eax
	subl	-40(%rbp), %eax
	jmp	.L1
.L2:
.L1:
	leave
	.cfi_def_cfa 7, 8
	ret
	.cfi_endproc
.LFE0:
	.size	subtract, .-subtract
	.globl	add
	.type	add, @function
add:
.LFB1:
	.cfi_startproc
	endbr64
	pushq	%rbp
	.cfi_def_cfa_offset 16
	.cfi_offset 6, -16
	movq	%rsp, %rbp
	.cfi_def_cfa_register 6
	subq	$80, %rsp
	movl	%edi, -68(%rbp)
	movl	%esi, -72(%rbp)
#APP
# 47 "ibrahim-isikli_embedded_c_exercise_main.c" 1
	##_ANNOTATION_INITIALREGION_-TIG-iO-XxWH-1-add--14
# 0 "" 2
# 51 "ibrahim-isikli_embedded_c_exercise_main.c" 1
	##_ANNOTATION_ATOMICREGION_-TIG-iO-XxWH-1-add--13
# 0 "" 2
#NO_APP
	movl	$24, %edi
	call	malloc@PLT
	movq	%rax, -40(%rbp)
	movq	-40(%rbp), %rax
	movq	-40(%rbp), %rdx
	movq	%rdx, (%rax)
	movq	-40(%rbp), %rax
	movq	-40(%rbp), %rdx
	movq	%rdx, 8(%rax)
	movq	-40(%rbp), %rax
	movq	%rax, _TIG_iO_XxWH_1_add_1_opaque_list_1(%rip)
	call	rand@PLT
	movl	%eax, -56(%rbp)
	movl	$24, %edi
	call	malloc@PLT
	movq	%rax, -32(%rbp)
	movq	-32(%rbp), %rax
	movl	$0, 16(%rax)
	movq	_TIG_iO_XxWH_1_add_1_opaque_list_1(%rip), %rax
	movq	(%rax), %rdx
	movq	-32(%rbp), %rax
	movq	%rdx, (%rax)
	movq	_TIG_iO_XxWH_1_add_1_opaque_list_1(%rip), %rdx
	movq	-32(%rbp), %rax
	movq	%rdx, 8(%rax)
	movq	_TIG_iO_XxWH_1_add_1_opaque_list_1(%rip), %rax
	movq	(%rax), %rax
	movq	-32(%rbp), %rdx
	movq	%rdx, 8(%rax)
	movq	_TIG_iO_XxWH_1_add_1_opaque_list_1(%rip), %rax
	movq	-32(%rbp), %rdx
	movq	%rdx, (%rax)
	call	rand@PLT
	movl	%eax, -52(%rbp)
	movl	$24, %edi
	call	malloc@PLT
	movq	%rax, -24(%rbp)
	movq	-24(%rbp), %rax
	movl	-52(%rbp), %edx
	movl	%edx, 16(%rax)
	movq	_TIG_iO_XxWH_1_add_1_opaque_list_1(%rip), %rax
	movq	(%rax), %rdx
	movq	-24(%rbp), %rax
	movq	%rdx, (%rax)
	movq	_TIG_iO_XxWH_1_add_1_opaque_list_1(%rip), %rdx
	movq	-24(%rbp), %rax
	movq	%rdx, 8(%rax)
	movq	_TIG_iO_XxWH_1_add_1_opaque_list_1(%rip), %rax
	movq	(%rax), %rax
	movq	-24(%rbp), %rdx
	movq	%rdx, 8(%rax)
	movq	_TIG_iO_XxWH_1_add_1_opaque_list_1(%rip), %rax
	movq	-24(%rbp), %rdx
	movq	%rdx, (%rax)
	call	rand@PLT
	movl	%eax, -48(%rbp)
	movl	$24, %edi
	call	malloc@PLT
	movq	%rax, -16(%rbp)
	movl	-48(%rbp), %eax
	leal	(%rax,%rax), %edx
	movq	-16(%rbp), %rax
	movl	%edx, 16(%rax)
	movq	_TIG_iO_XxWH_1_add_1_opaque_list_1(%rip), %rax
	movq	(%rax), %rdx
	movq	-16(%rbp), %rax
	movq	%rdx, (%rax)
	movq	_TIG_iO_XxWH_1_add_1_opaque_list_1(%rip), %rdx
	movq	-16(%rbp), %rax
	movq	%rdx, 8(%rax)
	movq	_TIG_iO_XxWH_1_add_1_opaque_list_1(%rip), %rax
	movq	(%rax), %rax
	movq	-16(%rbp), %rdx
	movq	%rdx, 8(%rax)
	movq	_TIG_iO_XxWH_1_add_1_opaque_list_1(%rip), %rax
	movq	-16(%rbp), %rdx
	movq	%rdx, (%rax)
	call	rand@PLT
	movl	%eax, -44(%rbp)
	movl	$24, %edi
	call	malloc@PLT
	movq	%rax, -8(%rbp)
	movl	-44(%rbp), %edx
	movl	%edx, %eax
	addl	%eax, %eax
	addl	%eax, %edx
	movq	-8(%rbp), %rax
	movl	%edx, 16(%rax)
	movq	_TIG_iO_XxWH_1_add_1_opaque_list_1(%rip), %rax
	movq	(%rax), %rdx
	movq	-8(%rbp), %rax
	movq	%rdx, (%rax)
	movq	_TIG_iO_XxWH_1_add_1_opaque_list_1(%rip), %rdx
	movq	-8(%rbp), %rax
	movq	%rdx, 8(%rax)
	movq	_TIG_iO_XxWH_1_add_1_opaque_list_1(%rip), %rax
	movq	(%rax), %rax
	movq	-8(%rbp), %rdx
	movq	%rdx, 8(%rax)
	movq	_TIG_iO_XxWH_1_add_1_opaque_list_1(%rip), %rax
	movq	-8(%rbp), %rdx
	movq	%rdx, (%rax)
	movq	_TIG_iO_XxWH_1_add_1_opaque_list_1(%rip), %rax
	movq	(%rax), %rax
	movq	%rax, _TIG_iO_XxWH_1_add_1_opaque_ptr_1(%rip)
	movq	_TIG_iO_XxWH_1_add_1_opaque_ptr_1(%rip), %rax
	movq	%rax, _TIG_iO_XxWH_1_add_1_opaque_ptr_2(%rip)
	movq	_TIG_iO_XxWH_1_add_1_opaque_ptr_2(%rip), %rax
	movq	(%rax), %rax
	movq	%rax, _TIG_iO_XxWH_1_add_1_opaque_ptr_2(%rip)
	nop
	nop
	movq	_TIG_iO_XxWH_1_subtract_1_opaque_ptr_1(%rip), %rdx
	movq	_TIG_iO_XxWH_1_subtract_1_opaque_ptr_2(%rip), %rax
	cmpq	%rax, %rdx
	jne	.L5
	movl	-68(%rbp), %edx
	movl	-72(%rbp), %eax
	addl	%edx, %eax
	jmp	.L4
.L5:
.L4:
	leave
	.cfi_def_cfa 7, 8
	ret
	.cfi_endproc
.LFE1:
	.size	add, .-add
	.globl	multiply
	.type	multiply, @function
multiply:
.LFB3:
	.cfi_startproc
	endbr64
	pushq	%rbp
	.cfi_def_cfa_offset 16
	.cfi_offset 6, -16
	movq	%rsp, %rbp
	.cfi_def_cfa_register 6
	subq	$48, %rsp
	movl	%edi, -36(%rbp)
	movl	%esi, -40(%rbp)
#APP
# 89 "/usr/include/x86_64-linux-gnu/bits/byteswap.h" 1
	##_ANNOTATION_INITIALREGION_-TIG-iO-XxWH-1-multiply--18
# 0 "" 2
# 93 "/usr/include/x86_64-linux-gnu/bits/byteswap.h" 1
	##_ANNOTATION_ATOMICREGION_-TIG-iO-XxWH-1-multiply--17
# 0 "" 2
#NO_APP
	movl	$24, %edi
	call	malloc@PLT
	movq	%rax, -24(%rbp)
	movq	-24(%rbp), %rax
	movq	-24(%rbp), %rdx
	movq	%rdx, 8(%rax)
	movq	-24(%rbp), %rax
	movq	-24(%rbp), %rdx
	movq	%rdx, (%rax)
	movq	-24(%rbp), %rax
	movq	%rax, _TIG_iO_XxWH_1_multiply_1_opaque_list_1(%rip)
	call	rand@PLT
	movl	%eax, -32(%rbp)
	movl	$24, %edi
	call	malloc@PLT
	movq	%rax, -16(%rbp)
	movq	-16(%rbp), %rax
	movl	$0, 16(%rax)
	movq	_TIG_iO_XxWH_1_multiply_1_opaque_list_1(%rip), %rax
	movq	8(%rax), %rdx
	movq	-16(%rbp), %rax
	movq	%rdx, 8(%rax)
	movq	_TIG_iO_XxWH_1_multiply_1_opaque_list_1(%rip), %rdx
	movq	-16(%rbp), %rax
	movq	%rdx, (%rax)
	movq	_TIG_iO_XxWH_1_multiply_1_opaque_list_1(%rip), %rax
	movq	8(%rax), %rax
	movq	-16(%rbp), %rdx
	movq	%rdx, (%rax)
	movq	_TIG_iO_XxWH_1_multiply_1_opaque_list_1(%rip), %rax
	movq	-16(%rbp), %rdx
	movq	%rdx, 8(%rax)
	call	rand@PLT
	movl	%eax, -28(%rbp)
	movl	$24, %edi
	call	malloc@PLT
	movq	%rax, -8(%rbp)
	movq	-8(%rbp), %rax
	movl	-28(%rbp), %edx
	movl	%edx, 16(%rax)
	movq	_TIG_iO_XxWH_1_multiply_1_opaque_list_1(%rip), %rax
	movq	8(%rax), %rdx
	movq	-8(%rbp), %rax
	movq	%rdx, 8(%rax)
	movq	_TIG_iO_XxWH_1_multiply_1_opaque_list_1(%rip), %rdx
	movq	-8(%rbp), %rax
	movq	%rdx, (%rax)
	movq	_TIG_iO_XxWH_1_multiply_1_opaque_list_1(%rip), %rax
	movq	8(%rax), %rax
	movq	-8(%rbp), %rdx
	movq	%rdx, (%rax)
	movq	_TIG_iO_XxWH_1_multiply_1_opaque_list_1(%rip), %rax
	movq	-8(%rbp), %rdx
	movq	%rdx, 8(%rax)
	movq	_TIG_iO_XxWH_1_multiply_1_opaque_list_1(%rip), %rax
	movq	8(%rax), %rax
	movq	%rax, _TIG_iO_XxWH_1_multiply_1_opaque_ptr_1(%rip)
	movq	_TIG_iO_XxWH_1_multiply_1_opaque_ptr_1(%rip), %rax
	movq	%rax, _TIG_iO_XxWH_1_multiply_1_opaque_ptr_2(%rip)
	movq	_TIG_iO_XxWH_1_multiply_1_opaque_ptr_2(%rip), %rax
	movq	8(%rax), %rax
	movq	%rax, _TIG_iO_XxWH_1_multiply_1_opaque_ptr_2(%rip)
	nop
	nop
	movq	_TIG_iO_XxWH_1_subtract_1_opaque_ptr_1(%rip), %rdx
	movq	_TIG_iO_XxWH_1_subtract_1_opaque_ptr_2(%rip), %rax
	cmpq	%rax, %rdx
	je	.L8
	movl	-28(%rbp), %edx
	movl	-28(%rbp), %eax
	movl	%edx, %esi
	movl	%eax, %edi
	call	multiply
	movl	%eax, -32(%rbp)
.L8:
	movl	-36(%rbp), %eax
	imull	-40(%rbp), %eax
	leave
	.cfi_def_cfa 7, 8
	ret
	.cfi_endproc
.LFE3:
	.size	multiply, .-multiply
	.section	.rodata
	.align 8
.LC0:
	.string	"[1]sum\n[2]subtract\n[3]multiply"
.LC1:
	.string	"choose your option\t"
.LC2:
	.string	"%d"
.LC3:
	.string	"invalid otion!"
.LC4:
	.string	"result:\t%d"
	.text
	.globl	main
	.type	main, @function
main:
.LFB9:
	.cfi_startproc
	endbr64
	pushq	%rbp
	.cfi_def_cfa_offset 16
	.cfi_offset 6, -16
	movq	%rsp, %rbp
	.cfi_def_cfa_register 6
	subq	$96, %rsp
	movl	%edi, -68(%rbp)
	movq	%rsi, -80(%rbp)
	movq	%rdx, -88(%rbp)
	movq	%fs:40, %rax
	movq	%rax, -8(%rbp)
	xorl	%eax, %eax
	movq	$0, _TIG_IZ_XxWH_envp(%rip)
	nop
.L11:
	movq	$0, _TIG_IZ_XxWH_argv(%rip)
	nop
.L12:
	movl	$0, _TIG_IZ_XxWH_argc(%rip)
	nop
	nop
.L13:
.L14:
#APP
# 100 "/usr/include/x86_64-linux-gnu/bits/byteswap.h" 1
	##_ANNOTATION_INITIALREGION_-TIG-IZ-XxWH--0
# 0 "" 2
#NO_APP
	movl	-68(%rbp), %eax
	movl	%eax, _TIG_IZ_XxWH_argc(%rip)
	movq	-80(%rbp), %rax
	movq	%rax, _TIG_IZ_XxWH_argv(%rip)
	movq	-88(%rbp), %rax
	movq	%rax, _TIG_IZ_XxWH_envp(%rip)
#APP
# 107 "/usr/include/x86_64-linux-gnu/bits/byteswap.h" 1
	##_ANNOTATION_ATOMICREGION_-TIG-iO-XxWH-1-main--15
# 0 "" 2
#NO_APP
	movl	$24, %edi
	call	malloc@PLT
	movq	%rax, -32(%rbp)
	movq	-32(%rbp), %rax
	movq	-32(%rbp), %rdx
	movq	%rdx, 16(%rax)
	movq	-32(%rbp), %rax
	movq	-32(%rbp), %rdx
	movq	%rdx, 8(%rax)
	movq	-32(%rbp), %rax
	movq	%rax, _TIG_iO_XxWH_1_main_1_opaque_list_1(%rip)
	call	rand@PLT
	movl	%eax, -56(%rbp)
	movl	$24, %edi
	call	malloc@PLT
	movq	%rax, -24(%rbp)
	movq	-24(%rbp), %rax
	movl	$0, (%rax)
	movq	_TIG_iO_XxWH_1_main_1_opaque_list_1(%rip), %rax
	movq	16(%rax), %rdx
	movq	-24(%rbp), %rax
	movq	%rdx, 16(%rax)
	movq	_TIG_iO_XxWH_1_main_1_opaque_list_1(%rip), %rdx
	movq	-24(%rbp), %rax
	movq	%rdx, 8(%rax)
	movq	_TIG_iO_XxWH_1_main_1_opaque_list_1(%rip), %rax
	movq	16(%rax), %rax
	movq	-24(%rbp), %rdx
	movq	%rdx, 8(%rax)
	movq	_TIG_iO_XxWH_1_main_1_opaque_list_1(%rip), %rax
	movq	-24(%rbp), %rdx
	movq	%rdx, 16(%rax)
	call	rand@PLT
	movl	%eax, -52(%rbp)
	movl	$24, %edi
	call	malloc@PLT
	movq	%rax, -16(%rbp)
	movq	-16(%rbp), %rax
	movl	-52(%rbp), %edx
	movl	%edx, (%rax)
	movq	_TIG_iO_XxWH_1_main_1_opaque_list_1(%rip), %rax
	movq	16(%rax), %rdx
	movq	-16(%rbp), %rax
	movq	%rdx, 16(%rax)
	movq	_TIG_iO_XxWH_1_main_1_opaque_list_1(%rip), %rdx
	movq	-16(%rbp), %rax
	movq	%rdx, 8(%rax)
	movq	_TIG_iO_XxWH_1_main_1_opaque_list_1(%rip), %rax
	movq	16(%rax), %rax
	movq	-16(%rbp), %rdx
	movq	%rdx, 8(%rax)
	movq	_TIG_iO_XxWH_1_main_1_opaque_list_1(%rip), %rax
	movq	-16(%rbp), %rdx
	movq	%rdx, 16(%rax)
	movq	_TIG_iO_XxWH_1_main_1_opaque_list_1(%rip), %rax
	movq	16(%rax), %rax
	movq	%rax, _TIG_iO_XxWH_1_main_1_opaque_ptr_1(%rip)
	movq	_TIG_iO_XxWH_1_main_1_opaque_ptr_1(%rip), %rax
	movq	%rax, _TIG_iO_XxWH_1_main_1_opaque_ptr_2(%rip)
	nop
	nop
	leaq	.LC0(%rip), %rax
	movq	%rax, %rdi
	call	puts@PLT
	leaq	.LC1(%rip), %rax
	movq	%rax, %rdi
	movl	$0, %eax
	call	printf@PLT
	leaq	-60(%rbp), %rax
	movq	%rax, %rsi
	leaq	.LC2(%rip), %rax
	movq	%rax, %rdi
	movl	$0, %eax
	call	__isoc99_scanf@PLT
	movl	-60(%rbp), %eax
	cmpl	$3, %eax
	je	.L15
	cmpl	$3, %eax
	jg	.L16
	cmpl	$1, %eax
	je	.L17
	cmpl	$2, %eax
	je	.L18
	jmp	.L16
.L17:
	leaq	add(%rip), %rax
	movq	%rax, -40(%rbp)
	jmp	.L19
.L18:
	leaq	subtract(%rip), %rax
	movq	%rax, -40(%rbp)
	jmp	.L19
.L15:
	leaq	multiply(%rip), %rax
	movq	%rax, -40(%rbp)
	jmp	.L19
.L16:
	leaq	.LC3(%rip), %rax
	movq	%rax, %rdi
	call	puts@PLT
	movl	$1, %eax
	jmp	.L22
.L19:
	movq	-40(%rbp), %rax
	movl	$2, %esi
	movl	$4, %edi
	call	*%rax
	movl	%eax, -48(%rbp)
	movl	-48(%rbp), %eax
	movl	%eax, -44(%rbp)
	movl	-44(%rbp), %eax
	movl	%eax, %esi
	leaq	.LC4(%rip), %rax
	movq	%rax, %rdi
	movl	$0, %eax
	call	printf@PLT
	movq	_TIG_iO_XxWH_1_subtract_1_opaque_ptr_1(%rip), %rdx
	movq	_TIG_iO_XxWH_1_subtract_1_opaque_ptr_2(%rip), %rax
	cmpq	%rax, %rdx
	je	.L21
	movl	-48(%rbp), %eax
	jmp	.L22
.L21:
	movl	$0, %eax
.L22:
	movq	-8(%rbp), %rdx
	subq	%fs:40, %rdx
	je	.L23
	call	__stack_chk_fail@PLT
.L23:
	leave
	.cfi_def_cfa 7, 8
	ret
	.cfi_endproc
.LFE9:
	.size	main, .-main
	.ident	"GCC: (Ubuntu 11.4.0-1ubuntu1~22.04) 11.4.0"
	.section	.note.GNU-stack,"",@progbits
	.section	.note.gnu.property,"a"
	.align 8
	.long	1f - 0f
	.long	4f - 1f
	.long	5
0:
	.string	"GNU"
1:
	.align 8
	.long	0xc0000002
	.long	3f - 2f
2:
	.long	0x3
3:
	.align 8
4:
