	.file	"iijung_Code-Up-Algorithm_2020_opaque.c"
	.text
	.globl	_TIG_iO_kusv_1_getBaseVal_1_opaque_list_2
	.bss
	.align 8
	.type	_TIG_iO_kusv_1_getBaseVal_1_opaque_list_2, @object
	.size	_TIG_iO_kusv_1_getBaseVal_1_opaque_list_2, 8
_TIG_iO_kusv_1_getBaseVal_1_opaque_list_2:
	.zero	8
	.globl	_TIG_IZ_kusv_envp
	.align 8
	.type	_TIG_IZ_kusv_envp, @object
	.size	_TIG_IZ_kusv_envp, 8
_TIG_IZ_kusv_envp:
	.zero	8
	.globl	_TIG_iO_kusv_1___bswap_64_1_opaque_ptr_1
	.align 8
	.type	_TIG_iO_kusv_1___bswap_64_1_opaque_ptr_1, @object
	.size	_TIG_iO_kusv_1___bswap_64_1_opaque_ptr_1, 8
_TIG_iO_kusv_1___bswap_64_1_opaque_ptr_1:
	.zero	8
	.globl	_TIG_iO_kusv_1_main_1_opaque_ptr_2
	.align 8
	.type	_TIG_iO_kusv_1_main_1_opaque_ptr_2, @object
	.size	_TIG_iO_kusv_1_main_1_opaque_ptr_2, 8
_TIG_iO_kusv_1_main_1_opaque_ptr_2:
	.zero	8
	.globl	_TIG_iO_kusv_1___bswap_32_1_opaque_ptr_1
	.align 8
	.type	_TIG_iO_kusv_1___bswap_32_1_opaque_ptr_1, @object
	.size	_TIG_iO_kusv_1___bswap_32_1_opaque_ptr_1, 8
_TIG_iO_kusv_1___bswap_32_1_opaque_ptr_1:
	.zero	8
	.globl	_TIG_iO_kusv_1___uint16_identity_1_opaque_ptr_2
	.align 8
	.type	_TIG_iO_kusv_1___uint16_identity_1_opaque_ptr_2, @object
	.size	_TIG_iO_kusv_1___uint16_identity_1_opaque_ptr_2, 8
_TIG_iO_kusv_1___uint16_identity_1_opaque_ptr_2:
	.zero	8
	.globl	_TIG_iO_kusv_1_getBaseVal_1_opaque_ptr_1
	.align 8
	.type	_TIG_iO_kusv_1_getBaseVal_1_opaque_ptr_1, @object
	.size	_TIG_iO_kusv_1_getBaseVal_1_opaque_ptr_1, 8
_TIG_iO_kusv_1_getBaseVal_1_opaque_ptr_1:
	.zero	8
	.globl	_TIG_iO_kusv_1___uint32_identity_1_opaque_ptr_1
	.align 8
	.type	_TIG_iO_kusv_1___uint32_identity_1_opaque_ptr_1, @object
	.size	_TIG_iO_kusv_1___uint32_identity_1_opaque_ptr_1, 8
_TIG_iO_kusv_1___uint32_identity_1_opaque_ptr_1:
	.zero	8
	.globl	_TIG_IZ_kusv_argc
	.align 4
	.type	_TIG_IZ_kusv_argc, @object
	.size	_TIG_IZ_kusv_argc, 4
_TIG_IZ_kusv_argc:
	.zero	4
	.globl	_TIG_iO_kusv_1___bswap_32_1_opaque_ptr_2
	.align 8
	.type	_TIG_iO_kusv_1___bswap_32_1_opaque_ptr_2, @object
	.size	_TIG_iO_kusv_1___bswap_32_1_opaque_ptr_2, 8
_TIG_iO_kusv_1___bswap_32_1_opaque_ptr_2:
	.zero	8
	.globl	_TIG_iO_kusv_1_getBaseVal_1_opaque_ptr_2
	.align 8
	.type	_TIG_iO_kusv_1_getBaseVal_1_opaque_ptr_2, @object
	.size	_TIG_iO_kusv_1_getBaseVal_1_opaque_ptr_2, 8
_TIG_iO_kusv_1_getBaseVal_1_opaque_ptr_2:
	.zero	8
	.globl	_TIG_iO_kusv_1___bswap_64_1_opaque_list_2
	.align 8
	.type	_TIG_iO_kusv_1___bswap_64_1_opaque_list_2, @object
	.size	_TIG_iO_kusv_1___bswap_64_1_opaque_list_2, 8
_TIG_iO_kusv_1___bswap_64_1_opaque_list_2:
	.zero	8
	.globl	_TIG_iO_kusv_1___uint16_identity_1_opaque_ptr_1
	.align 8
	.type	_TIG_iO_kusv_1___uint16_identity_1_opaque_ptr_1, @object
	.size	_TIG_iO_kusv_1___uint16_identity_1_opaque_ptr_1, 8
_TIG_iO_kusv_1___uint16_identity_1_opaque_ptr_1:
	.zero	8
	.globl	_TIG_iO_kusv_1_main_1_opaque_list_1
	.align 8
	.type	_TIG_iO_kusv_1_main_1_opaque_list_1, @object
	.size	_TIG_iO_kusv_1_main_1_opaque_list_1, 8
_TIG_iO_kusv_1_main_1_opaque_list_1:
	.zero	8
	.globl	_TIG_iO_kusv_1___bswap_64_1_opaque_list_1
	.align 8
	.type	_TIG_iO_kusv_1___bswap_64_1_opaque_list_1, @object
	.size	_TIG_iO_kusv_1___bswap_64_1_opaque_list_1, 8
_TIG_iO_kusv_1___bswap_64_1_opaque_list_1:
	.zero	8
	.globl	_TIG_iO_kusv_1___bswap_16_1_opaque_list_1
	.align 8
	.type	_TIG_iO_kusv_1___bswap_16_1_opaque_list_1, @object
	.size	_TIG_iO_kusv_1___bswap_16_1_opaque_list_1, 8
_TIG_iO_kusv_1___bswap_16_1_opaque_list_1:
	.zero	8
	.globl	_TIG_IZ_kusv_argv
	.align 8
	.type	_TIG_IZ_kusv_argv, @object
	.size	_TIG_IZ_kusv_argv, 8
_TIG_IZ_kusv_argv:
	.zero	8
	.globl	_TIG_iO_kusv_1___bswap_16_1_opaque_ptr_1
	.align 8
	.type	_TIG_iO_kusv_1___bswap_16_1_opaque_ptr_1, @object
	.size	_TIG_iO_kusv_1___bswap_16_1_opaque_ptr_1, 8
_TIG_iO_kusv_1___bswap_16_1_opaque_ptr_1:
	.zero	8
	.globl	_TIG_iO_kusv_1___uint64_identity_1_opaque_list_2
	.align 8
	.type	_TIG_iO_kusv_1___uint64_identity_1_opaque_list_2, @object
	.size	_TIG_iO_kusv_1___uint64_identity_1_opaque_list_2, 8
_TIG_iO_kusv_1___uint64_identity_1_opaque_list_2:
	.zero	8
	.globl	_TIG_iO_kusv_1_getBaseVal_1_opaque_list_1
	.align 8
	.type	_TIG_iO_kusv_1_getBaseVal_1_opaque_list_1, @object
	.size	_TIG_iO_kusv_1_getBaseVal_1_opaque_list_1, 8
_TIG_iO_kusv_1_getBaseVal_1_opaque_list_1:
	.zero	8
	.globl	_TIG_iO_kusv_1___uint32_identity_1_opaque_ptr_2
	.align 8
	.type	_TIG_iO_kusv_1___uint32_identity_1_opaque_ptr_2, @object
	.size	_TIG_iO_kusv_1___uint32_identity_1_opaque_ptr_2, 8
_TIG_iO_kusv_1___uint32_identity_1_opaque_ptr_2:
	.zero	8
	.globl	_TIG_iO_kusv_1___uint16_identity_1_opaque_list_1
	.align 8
	.type	_TIG_iO_kusv_1___uint16_identity_1_opaque_list_1, @object
	.size	_TIG_iO_kusv_1___uint16_identity_1_opaque_list_1, 8
_TIG_iO_kusv_1___uint16_identity_1_opaque_list_1:
	.zero	8
	.globl	_TIG_iO_kusv_1___uint32_identity_1_opaque_list_2
	.align 8
	.type	_TIG_iO_kusv_1___uint32_identity_1_opaque_list_2, @object
	.size	_TIG_iO_kusv_1___uint32_identity_1_opaque_list_2, 8
_TIG_iO_kusv_1___uint32_identity_1_opaque_list_2:
	.zero	8
	.globl	_TIG_iO_kusv_1___bswap_16_1_opaque_ptr_2
	.align 8
	.type	_TIG_iO_kusv_1___bswap_16_1_opaque_ptr_2, @object
	.size	_TIG_iO_kusv_1___bswap_16_1_opaque_ptr_2, 8
_TIG_iO_kusv_1___bswap_16_1_opaque_ptr_2:
	.zero	8
	.globl	_TIG_iO_kusv_1___uint16_identity_1_opaque_list_2
	.align 8
	.type	_TIG_iO_kusv_1___uint16_identity_1_opaque_list_2, @object
	.size	_TIG_iO_kusv_1___uint16_identity_1_opaque_list_2, 8
_TIG_iO_kusv_1___uint16_identity_1_opaque_list_2:
	.zero	8
	.globl	_TIG_iO_kusv_1_main_1_opaque_ptr_1
	.align 8
	.type	_TIG_iO_kusv_1_main_1_opaque_ptr_1, @object
	.size	_TIG_iO_kusv_1_main_1_opaque_ptr_1, 8
_TIG_iO_kusv_1_main_1_opaque_ptr_1:
	.zero	8
	.globl	_TIG_iO_kusv_1___bswap_32_1_opaque_list_2
	.align 8
	.type	_TIG_iO_kusv_1___bswap_32_1_opaque_list_2, @object
	.size	_TIG_iO_kusv_1___bswap_32_1_opaque_list_2, 8
_TIG_iO_kusv_1___bswap_32_1_opaque_list_2:
	.zero	8
	.globl	_TIG_iO_kusv_1___uint64_identity_1_opaque_ptr_1
	.align 8
	.type	_TIG_iO_kusv_1___uint64_identity_1_opaque_ptr_1, @object
	.size	_TIG_iO_kusv_1___uint64_identity_1_opaque_ptr_1, 8
_TIG_iO_kusv_1___uint64_identity_1_opaque_ptr_1:
	.zero	8
	.globl	_TIG_iO_kusv_1_main_1_opaque_list_2
	.align 8
	.type	_TIG_iO_kusv_1_main_1_opaque_list_2, @object
	.size	_TIG_iO_kusv_1_main_1_opaque_list_2, 8
_TIG_iO_kusv_1_main_1_opaque_list_2:
	.zero	8
	.globl	_TIG_iO_kusv_1___uint64_identity_1_opaque_list_1
	.align 8
	.type	_TIG_iO_kusv_1___uint64_identity_1_opaque_list_1, @object
	.size	_TIG_iO_kusv_1___uint64_identity_1_opaque_list_1, 8
_TIG_iO_kusv_1___uint64_identity_1_opaque_list_1:
	.zero	8
	.globl	_TIG_iO_kusv_1___bswap_64_1_opaque_ptr_2
	.align 8
	.type	_TIG_iO_kusv_1___bswap_64_1_opaque_ptr_2, @object
	.size	_TIG_iO_kusv_1___bswap_64_1_opaque_ptr_2, 8
_TIG_iO_kusv_1___bswap_64_1_opaque_ptr_2:
	.zero	8
	.globl	_TIG_iO_kusv_1___bswap_32_1_opaque_list_1
	.align 8
	.type	_TIG_iO_kusv_1___bswap_32_1_opaque_list_1, @object
	.size	_TIG_iO_kusv_1___bswap_32_1_opaque_list_1, 8
_TIG_iO_kusv_1___bswap_32_1_opaque_list_1:
	.zero	8
	.globl	_TIG_iO_kusv_1___bswap_16_1_opaque_list_2
	.align 8
	.type	_TIG_iO_kusv_1___bswap_16_1_opaque_list_2, @object
	.size	_TIG_iO_kusv_1___bswap_16_1_opaque_list_2, 8
_TIG_iO_kusv_1___bswap_16_1_opaque_list_2:
	.zero	8
	.globl	_TIG_iO_kusv_1___uint32_identity_1_opaque_list_1
	.align 8
	.type	_TIG_iO_kusv_1___uint32_identity_1_opaque_list_1, @object
	.size	_TIG_iO_kusv_1___uint32_identity_1_opaque_list_1, 8
_TIG_iO_kusv_1___uint32_identity_1_opaque_list_1:
	.zero	8
	.globl	_TIG_iO_kusv_1___uint64_identity_1_opaque_ptr_2
	.align 8
	.type	_TIG_iO_kusv_1___uint64_identity_1_opaque_ptr_2, @object
	.size	_TIG_iO_kusv_1___uint64_identity_1_opaque_ptr_2, 8
_TIG_iO_kusv_1___uint64_identity_1_opaque_ptr_2:
	.zero	8
	.text
	.globl	getBaseVal
	.type	getBaseVal, @function
getBaseVal:
.LFB5:
	.cfi_startproc
	endbr64
	pushq	%rbp
	.cfi_def_cfa_offset 16
	.cfi_offset 6, -16
	movq	%rsp, %rbp
	.cfi_def_cfa_register 6
	subq	$80, %rsp
	movl	%edi, %eax
	movb	%al, -68(%rbp)
#APP
# 63 "/usr/include/x86_64-linux-gnu/bits/uintn-identity.h" 1
	##_ANNOTATION_INITIALREGION_-TIG-iO-kusv-1-getBaseVal--14
# 0 "" 2
# 67 "/usr/include/x86_64-linux-gnu/bits/uintn-identity.h" 1
	##_ANNOTATION_ATOMICREGION_-TIG-iO-kusv-1-getBaseVal--13
# 0 "" 2
#NO_APP
	movl	$24, %edi
	call	malloc@PLT
	movq	%rax, -40(%rbp)
	movq	-40(%rbp), %rax
	movq	-40(%rbp), %rdx
	movq	%rdx, (%rax)
	movq	-40(%rbp), %rax
	movq	-40(%rbp), %rdx
	movq	%rdx, 8(%rax)
	movq	-40(%rbp), %rax
	movq	%rax, _TIG_iO_kusv_1_getBaseVal_1_opaque_list_1(%rip)
	call	rand@PLT
	movl	%eax, -56(%rbp)
	movl	$24, %edi
	call	malloc@PLT
	movq	%rax, -32(%rbp)
	movq	-32(%rbp), %rax
	movl	$0, 16(%rax)
	movq	_TIG_iO_kusv_1_getBaseVal_1_opaque_list_1(%rip), %rax
	movq	(%rax), %rdx
	movq	-32(%rbp), %rax
	movq	%rdx, (%rax)
	movq	_TIG_iO_kusv_1_getBaseVal_1_opaque_list_1(%rip), %rdx
	movq	-32(%rbp), %rax
	movq	%rdx, 8(%rax)
	movq	_TIG_iO_kusv_1_getBaseVal_1_opaque_list_1(%rip), %rax
	movq	(%rax), %rax
	movq	-32(%rbp), %rdx
	movq	%rdx, 8(%rax)
	movq	_TIG_iO_kusv_1_getBaseVal_1_opaque_list_1(%rip), %rax
	movq	-32(%rbp), %rdx
	movq	%rdx, (%rax)
	call	rand@PLT
	movl	%eax, -52(%rbp)
	movl	$24, %edi
	call	malloc@PLT
	movq	%rax, -24(%rbp)
	movq	-24(%rbp), %rax
	movl	-52(%rbp), %edx
	movl	%edx, 16(%rax)
	movq	_TIG_iO_kusv_1_getBaseVal_1_opaque_list_1(%rip), %rax
	movq	(%rax), %rdx
	movq	-24(%rbp), %rax
	movq	%rdx, (%rax)
	movq	_TIG_iO_kusv_1_getBaseVal_1_opaque_list_1(%rip), %rdx
	movq	-24(%rbp), %rax
	movq	%rdx, 8(%rax)
	movq	_TIG_iO_kusv_1_getBaseVal_1_opaque_list_1(%rip), %rax
	movq	(%rax), %rax
	movq	-24(%rbp), %rdx
	movq	%rdx, 8(%rax)
	movq	_TIG_iO_kusv_1_getBaseVal_1_opaque_list_1(%rip), %rax
	movq	-24(%rbp), %rdx
	movq	%rdx, (%rax)
	call	rand@PLT
	movl	%eax, -48(%rbp)
	movl	$24, %edi
	call	malloc@PLT
	movq	%rax, -16(%rbp)
	movl	-48(%rbp), %eax
	leal	(%rax,%rax), %edx
	movq	-16(%rbp), %rax
	movl	%edx, 16(%rax)
	movq	_TIG_iO_kusv_1_getBaseVal_1_opaque_list_1(%rip), %rax
	movq	(%rax), %rdx
	movq	-16(%rbp), %rax
	movq	%rdx, (%rax)
	movq	_TIG_iO_kusv_1_getBaseVal_1_opaque_list_1(%rip), %rdx
	movq	-16(%rbp), %rax
	movq	%rdx, 8(%rax)
	movq	_TIG_iO_kusv_1_getBaseVal_1_opaque_list_1(%rip), %rax
	movq	(%rax), %rax
	movq	-16(%rbp), %rdx
	movq	%rdx, 8(%rax)
	movq	_TIG_iO_kusv_1_getBaseVal_1_opaque_list_1(%rip), %rax
	movq	-16(%rbp), %rdx
	movq	%rdx, (%rax)
	call	rand@PLT
	movl	%eax, -44(%rbp)
	movl	$24, %edi
	call	malloc@PLT
	movq	%rax, -8(%rbp)
	movl	-44(%rbp), %edx
	movl	%edx, %eax
	addl	%eax, %eax
	addl	%eax, %edx
	movq	-8(%rbp), %rax
	movl	%edx, 16(%rax)
	movq	_TIG_iO_kusv_1_getBaseVal_1_opaque_list_1(%rip), %rax
	movq	(%rax), %rdx
	movq	-8(%rbp), %rax
	movq	%rdx, (%rax)
	movq	_TIG_iO_kusv_1_getBaseVal_1_opaque_list_1(%rip), %rdx
	movq	-8(%rbp), %rax
	movq	%rdx, 8(%rax)
	movq	_TIG_iO_kusv_1_getBaseVal_1_opaque_list_1(%rip), %rax
	movq	(%rax), %rax
	movq	-8(%rbp), %rdx
	movq	%rdx, 8(%rax)
	movq	_TIG_iO_kusv_1_getBaseVal_1_opaque_list_1(%rip), %rax
	movq	-8(%rbp), %rdx
	movq	%rdx, (%rax)
	movq	_TIG_iO_kusv_1_getBaseVal_1_opaque_list_1(%rip), %rax
	movq	(%rax), %rax
	movq	%rax, _TIG_iO_kusv_1_getBaseVal_1_opaque_ptr_1(%rip)
	movq	_TIG_iO_kusv_1_getBaseVal_1_opaque_ptr_1(%rip), %rax
	movq	%rax, _TIG_iO_kusv_1_getBaseVal_1_opaque_ptr_2(%rip)
	movq	_TIG_iO_kusv_1_getBaseVal_1_opaque_ptr_2(%rip), %rax
	movq	(%rax), %rax
	movq	%rax, _TIG_iO_kusv_1_getBaseVal_1_opaque_ptr_2(%rip)
	nop
	nop
	movq	_TIG_iO_kusv_1_main_1_opaque_ptr_1(%rip), %rdx
	movq	_TIG_iO_kusv_1_main_1_opaque_ptr_2(%rip), %rax
	cmpq	%rax, %rdx
	jne	.L2
	movsbl	-68(%rbp), %eax
	subl	$67, %eax
	cmpl	$21, %eax
	ja	.L3
	movl	%eax, %eax
	leaq	0(,%rax,4), %rdx
	leaq	.L5(%rip), %rax
	movl	(%rdx,%rax), %eax
	cltq
	leaq	.L5(%rip), %rdx
	addq	%rdx, %rax
	notrack jmp	*%rax
	.section	.rodata
	.align 4
	.align 4
.L5:
	.long	.L11-.L5
	.long	.L10-.L5
	.long	.L3-.L5
	.long	.L3-.L5
	.long	.L3-.L5
	.long	.L3-.L5
	.long	.L9-.L5
	.long	.L3-.L5
	.long	.L3-.L5
	.long	.L8-.L5
	.long	.L7-.L5
	.long	.L3-.L5
	.long	.L3-.L5
	.long	.L3-.L5
	.long	.L3-.L5
	.long	.L3-.L5
	.long	.L3-.L5
	.long	.L3-.L5
	.long	.L3-.L5
	.long	.L6-.L5
	.long	.L3-.L5
	.long	.L4-.L5
	.text
.L9:
	movl	$1, %eax
	jmp	.L12
.L6:
	movl	$5, %eax
	jmp	.L12
.L4:
	movl	$10, %eax
	jmp	.L12
.L8:
	movl	$50, %eax
	jmp	.L12
.L11:
	movl	$100, %eax
	jmp	.L12
.L10:
	movl	$500, %eax
	jmp	.L12
.L7:
	movl	$1000, %eax
	jmp	.L12
.L3:
	movl	$0, %eax
	jmp	.L12
.L2:
	movl	$0, %eax
.L12:
	leave
	.cfi_def_cfa 7, 8
	ret
	.cfi_endproc
.LFE5:
	.size	getBaseVal, .-getBaseVal
	.section	.rodata
.LC0:
	.string	"%s"
.LC1:
	.string	"%d"
	.text
	.globl	main
	.type	main, @function
main:
.LFB7:
	.cfi_startproc
	endbr64
	pushq	%rbp
	.cfi_def_cfa_offset 16
	.cfi_offset 6, -16
	movq	%rsp, %rbp
	.cfi_def_cfa_register 6
	pushq	%rbx
	subq	$344, %rsp
	.cfi_offset 3, -24
	movl	%edi, -324(%rbp)
	movq	%rsi, -336(%rbp)
	movq	%rdx, -344(%rbp)
	movq	%fs:40, %rax
	movq	%rax, -24(%rbp)
	xorl	%eax, %eax
	movq	$0, _TIG_IZ_kusv_envp(%rip)
	nop
.L14:
	movq	$0, _TIG_IZ_kusv_argv(%rip)
	nop
.L15:
	movl	$0, _TIG_IZ_kusv_argc(%rip)
	nop
	nop
.L16:
.L17:
#APP
# 93 "/usr/include/x86_64-linux-gnu/bits/uintn-identity.h" 1
	##_ANNOTATION_INITIALREGION_-TIG-IZ-kusv--0
# 0 "" 2
#NO_APP
	movl	-324(%rbp), %eax
	movl	%eax, _TIG_IZ_kusv_argc(%rip)
	movq	-336(%rbp), %rax
	movq	%rax, _TIG_IZ_kusv_argv(%rip)
	movq	-344(%rbp), %rax
	movq	%rax, _TIG_IZ_kusv_envp(%rip)
#APP
# 100 "/usr/include/x86_64-linux-gnu/bits/uintn-identity.h" 1
	##_ANNOTATION_ATOMICREGION_-TIG-iO-kusv-1-main--15
# 0 "" 2
#NO_APP
	movl	$24, %edi
	call	malloc@PLT
	movq	%rax, -272(%rbp)
	movq	-272(%rbp), %rax
	movq	-272(%rbp), %rdx
	movq	%rdx, 16(%rax)
	movq	-272(%rbp), %rax
	movq	-272(%rbp), %rdx
	movq	%rdx, 8(%rax)
	movq	-272(%rbp), %rax
	movq	%rax, _TIG_iO_kusv_1_main_1_opaque_list_1(%rip)
	call	rand@PLT
	movl	%eax, -284(%rbp)
	movl	$24, %edi
	call	malloc@PLT
	movq	%rax, -264(%rbp)
	movq	-264(%rbp), %rax
	movl	$0, (%rax)
	movq	_TIG_iO_kusv_1_main_1_opaque_list_1(%rip), %rax
	movq	16(%rax), %rdx
	movq	-264(%rbp), %rax
	movq	%rdx, 16(%rax)
	movq	_TIG_iO_kusv_1_main_1_opaque_list_1(%rip), %rdx
	movq	-264(%rbp), %rax
	movq	%rdx, 8(%rax)
	movq	_TIG_iO_kusv_1_main_1_opaque_list_1(%rip), %rax
	movq	16(%rax), %rax
	movq	-264(%rbp), %rdx
	movq	%rdx, 8(%rax)
	movq	_TIG_iO_kusv_1_main_1_opaque_list_1(%rip), %rax
	movq	-264(%rbp), %rdx
	movq	%rdx, 16(%rax)
	call	rand@PLT
	movl	%eax, -280(%rbp)
	movl	$24, %edi
	call	malloc@PLT
	movq	%rax, -256(%rbp)
	movq	-256(%rbp), %rax
	movl	-280(%rbp), %edx
	movl	%edx, (%rax)
	movq	_TIG_iO_kusv_1_main_1_opaque_list_1(%rip), %rax
	movq	16(%rax), %rdx
	movq	-256(%rbp), %rax
	movq	%rdx, 16(%rax)
	movq	_TIG_iO_kusv_1_main_1_opaque_list_1(%rip), %rdx
	movq	-256(%rbp), %rax
	movq	%rdx, 8(%rax)
	movq	_TIG_iO_kusv_1_main_1_opaque_list_1(%rip), %rax
	movq	16(%rax), %rax
	movq	-256(%rbp), %rdx
	movq	%rdx, 8(%rax)
	movq	_TIG_iO_kusv_1_main_1_opaque_list_1(%rip), %rax
	movq	-256(%rbp), %rdx
	movq	%rdx, 16(%rax)
	movq	_TIG_iO_kusv_1_main_1_opaque_list_1(%rip), %rax
	movq	16(%rax), %rax
	movq	%rax, _TIG_iO_kusv_1_main_1_opaque_ptr_1(%rip)
	movq	_TIG_iO_kusv_1_main_1_opaque_ptr_1(%rip), %rax
	movq	%rax, _TIG_iO_kusv_1_main_1_opaque_ptr_2(%rip)
	nop
	nop
	movb	$0, -80(%rbp)
	movl	$1, -316(%rbp)
.L20:
	movq	_TIG_iO_kusv_1_main_1_opaque_ptr_1(%rip), %rdx
	movq	_TIG_iO_kusv_1_main_1_opaque_ptr_2(%rip), %rax
	cmpq	%rax, %rdx
	jne	.L18
	cmpl	$49, -316(%rbp)
	ja	.L36
.L18:
	movl	-316(%rbp), %eax
	movb	$0, -80(%rbp,%rax)
	addl	$1, -316(%rbp)
	jmp	.L20
.L36:
	nop
	leaq	-80(%rbp), %rax
	movq	%rax, %rsi
	leaq	.LC0(%rip), %rax
	movq	%rax, %rdi
	movl	$0, %eax
	call	__isoc99_scanf@PLT
	movl	$0, -312(%rbp)
	movl	$0, -240(%rbp)
	movl	$1, -308(%rbp)
	jmp	.L21
.L22:
	movl	-308(%rbp), %eax
	movl	$0, -240(%rbp,%rax,4)
	addl	$1, -308(%rbp)
.L21:
	cmpl	$19, -308(%rbp)
	jbe	.L22
	movl	$0, -160(%rbp)
	movl	$1, -304(%rbp)
	jmp	.L23
.L24:
	movl	-304(%rbp), %eax
	movl	$0, -160(%rbp,%rax,4)
	addl	$1, -304(%rbp)
.L23:
	cmpl	$19, -304(%rbp)
	jbe	.L24
	movl	$0, -300(%rbp)
.L27:
	leaq	-80(%rbp), %rax
	movq	%rax, %rdi
	call	strlen@PLT
	movq	%rax, -248(%rbp)
	movl	-300(%rbp), %eax
	cltq
	movq	-248(%rbp), %rdx
	subq	$1, %rdx
	cmpq	%rdx, %rax
	jnb	.L37
	movl	-300(%rbp), %eax
	cltq
	movzbl	-80(%rbp,%rax), %eax
	movsbl	%al, %edx
	movl	-300(%rbp), %eax
	movl	%eax, %ecx
	shrl	$31, %ecx
	addl	%ecx, %eax
	sarl	%eax
	subl	$48, %edx
	cltq
	movl	%edx, -240(%rbp,%rax,4)
	movl	-300(%rbp), %eax
	addl	$1, %eax
	cltq
	movzbl	-80(%rbp,%rax), %eax
	movsbl	%al, %eax
	movl	-300(%rbp), %edx
	movl	%edx, %ecx
	shrl	$31, %ecx
	addl	%ecx, %edx
	sarl	%edx
	movl	%edx, %ebx
	movl	%eax, %edi
	call	getBaseVal
	movslq	%ebx, %rdx
	movl	%eax, -160(%rbp,%rdx,4)
	addl	$1, -312(%rbp)
	addl	$2, -300(%rbp)
	jmp	.L27
.L37:
	nop
	movl	$0, -276(%rbp)
	movl	$0, -296(%rbp)
	movl	$0, -292(%rbp)
	jmp	.L28
.L31:
	movl	-292(%rbp), %eax
	cltq
	movl	-240(%rbp,%rax,4), %edx
	movl	-292(%rbp), %eax
	cltq
	movl	-160(%rbp,%rax,4), %eax
	imull	%edx, %eax
	movl	%eax, -276(%rbp)
	movl	-292(%rbp), %eax
	cltq
	movl	-160(%rbp,%rax,4), %edx
	movl	-292(%rbp), %eax
	addl	$1, %eax
	cltq
	movl	-160(%rbp,%rax,4), %eax
	cmpl	%eax, %edx
	jge	.L29
	movl	-276(%rbp), %eax
	negl	%eax
	movl	%eax, -288(%rbp)
	jmp	.L30
.L29:
	movl	-276(%rbp), %eax
	movl	%eax, -288(%rbp)
.L30:
	movl	-288(%rbp), %eax
	addl	%eax, -296(%rbp)
	addl	$1, -292(%rbp)
.L28:
	movl	-312(%rbp), %eax
	subl	$1, %eax
	cmpl	%eax, -292(%rbp)
	jl	.L31
	movl	-312(%rbp), %eax
	subl	$1, %eax
	cltq
	movl	-240(%rbp,%rax,4), %edx
	movl	-312(%rbp), %eax
	subl	$1, %eax
	cltq
	movl	-160(%rbp,%rax,4), %eax
	imull	%edx, %eax
	addl	%eax, -296(%rbp)
	movl	-296(%rbp), %eax
	movl	%eax, %esi
	leaq	.LC1(%rip), %rax
	movq	%rax, %rdi
	movl	$0, %eax
	call	printf@PLT
	movl	$0, %eax
	movq	-24(%rbp), %rdx
	subq	%fs:40, %rdx
	je	.L33
	call	__stack_chk_fail@PLT
.L33:
	movq	-8(%rbp), %rbx
	leave
	.cfi_def_cfa 7, 8
	ret
	.cfi_endproc
.LFE7:
	.size	main, .-main
	.ident	"GCC: (Ubuntu 11.4.0-1ubuntu1~22.04) 11.4.0"
	.section	.note.GNU-stack,"",@progbits
	.section	.note.gnu.property,"a"
	.align 8
	.long	1f - 0f
	.long	4f - 1f
	.long	5
0:
	.string	"GNU"
1:
	.align 8
	.long	0xc0000002
	.long	3f - 2f
2:
	.long	0x3
3:
	.align 8
4:
