	.file	"jayeshbhandarkar_Data-Structures-and-Algorithms_q_opaque.c"
	.text
	.globl	_TIG_iO_dw4r_1_display_1_opaque_ptr_1
	.bss
	.align 8
	.type	_TIG_iO_dw4r_1_display_1_opaque_ptr_1, @object
	.size	_TIG_iO_dw4r_1_display_1_opaque_ptr_1, 8
_TIG_iO_dw4r_1_display_1_opaque_ptr_1:
	.zero	8
	.globl	_TIG_iO_dw4r_1___bswap_64_1_opaque_list_2
	.align 8
	.type	_TIG_iO_dw4r_1___bswap_64_1_opaque_list_2, @object
	.size	_TIG_iO_dw4r_1___bswap_64_1_opaque_list_2, 8
_TIG_iO_dw4r_1___bswap_64_1_opaque_list_2:
	.zero	8
	.globl	_TIG_iO_dw4r_1___bswap_32_1_opaque_list_1
	.align 8
	.type	_TIG_iO_dw4r_1___bswap_32_1_opaque_list_1, @object
	.size	_TIG_iO_dw4r_1___bswap_32_1_opaque_list_1, 8
_TIG_iO_dw4r_1___bswap_32_1_opaque_list_1:
	.zero	8
	.globl	_TIG_iO_dw4r_1_display_1_opaque_list_1
	.align 8
	.type	_TIG_iO_dw4r_1_display_1_opaque_list_1, @object
	.size	_TIG_iO_dw4r_1_display_1_opaque_list_1, 8
_TIG_iO_dw4r_1_display_1_opaque_list_1:
	.zero	8
	.globl	_TIG_iO_dw4r_1___uint16_identity_1_opaque_ptr_2
	.align 8
	.type	_TIG_iO_dw4r_1___uint16_identity_1_opaque_ptr_2, @object
	.size	_TIG_iO_dw4r_1___uint16_identity_1_opaque_ptr_2, 8
_TIG_iO_dw4r_1___uint16_identity_1_opaque_ptr_2:
	.zero	8
	.globl	_TIG_IZ_dw4r_envp
	.align 8
	.type	_TIG_IZ_dw4r_envp, @object
	.size	_TIG_IZ_dw4r_envp, 8
_TIG_IZ_dw4r_envp:
	.zero	8
	.globl	_TIG_iO_dw4r_1___uint32_identity_1_opaque_list_2
	.align 8
	.type	_TIG_iO_dw4r_1___uint32_identity_1_opaque_list_2, @object
	.size	_TIG_iO_dw4r_1___uint32_identity_1_opaque_list_2, 8
_TIG_iO_dw4r_1___uint32_identity_1_opaque_list_2:
	.zero	8
	.globl	_TIG_iO_dw4r_1_del_1_opaque_ptr_1
	.align 8
	.type	_TIG_iO_dw4r_1_del_1_opaque_ptr_1, @object
	.size	_TIG_iO_dw4r_1_del_1_opaque_ptr_1, 8
_TIG_iO_dw4r_1_del_1_opaque_ptr_1:
	.zero	8
	.globl	rear
	.align 4
	.type	rear, @object
	.size	rear, 4
rear:
	.zero	4
	.globl	_TIG_iO_dw4r_1_insert_1_opaque_ptr_2
	.align 8
	.type	_TIG_iO_dw4r_1_insert_1_opaque_ptr_2, @object
	.size	_TIG_iO_dw4r_1_insert_1_opaque_ptr_2, 8
_TIG_iO_dw4r_1_insert_1_opaque_ptr_2:
	.zero	8
	.globl	_TIG_iO_dw4r_1___uint64_identity_1_opaque_list_2
	.align 8
	.type	_TIG_iO_dw4r_1___uint64_identity_1_opaque_list_2, @object
	.size	_TIG_iO_dw4r_1___uint64_identity_1_opaque_list_2, 8
_TIG_iO_dw4r_1___uint64_identity_1_opaque_list_2:
	.zero	8
	.globl	_TIG_iO_dw4r_1___uint64_identity_1_opaque_ptr_1
	.align 8
	.type	_TIG_iO_dw4r_1___uint64_identity_1_opaque_ptr_1, @object
	.size	_TIG_iO_dw4r_1___uint64_identity_1_opaque_ptr_1, 8
_TIG_iO_dw4r_1___uint64_identity_1_opaque_ptr_1:
	.zero	8
	.globl	_TIG_iO_dw4r_1___bswap_64_1_opaque_list_1
	.align 8
	.type	_TIG_iO_dw4r_1___bswap_64_1_opaque_list_1, @object
	.size	_TIG_iO_dw4r_1___bswap_64_1_opaque_list_1, 8
_TIG_iO_dw4r_1___bswap_64_1_opaque_list_1:
	.zero	8
	.globl	_TIG_iO_dw4r_1___bswap_64_1_opaque_ptr_2
	.align 8
	.type	_TIG_iO_dw4r_1___bswap_64_1_opaque_ptr_2, @object
	.size	_TIG_iO_dw4r_1___bswap_64_1_opaque_ptr_2, 8
_TIG_iO_dw4r_1___bswap_64_1_opaque_ptr_2:
	.zero	8
	.globl	_TIG_iO_dw4r_1_display_1_opaque_list_2
	.align 8
	.type	_TIG_iO_dw4r_1_display_1_opaque_list_2, @object
	.size	_TIG_iO_dw4r_1_display_1_opaque_list_2, 8
_TIG_iO_dw4r_1_display_1_opaque_list_2:
	.zero	8
	.globl	_TIG_iO_dw4r_1___uint32_identity_1_opaque_ptr_2
	.align 8
	.type	_TIG_iO_dw4r_1___uint32_identity_1_opaque_ptr_2, @object
	.size	_TIG_iO_dw4r_1___uint32_identity_1_opaque_ptr_2, 8
_TIG_iO_dw4r_1___uint32_identity_1_opaque_ptr_2:
	.zero	8
	.globl	_TIG_IZ_dw4r_argc
	.align 4
	.type	_TIG_IZ_dw4r_argc, @object
	.size	_TIG_IZ_dw4r_argc, 4
_TIG_IZ_dw4r_argc:
	.zero	4
	.globl	_TIG_iO_dw4r_1_del_1_opaque_ptr_2
	.align 8
	.type	_TIG_iO_dw4r_1_del_1_opaque_ptr_2, @object
	.size	_TIG_iO_dw4r_1_del_1_opaque_ptr_2, 8
_TIG_iO_dw4r_1_del_1_opaque_ptr_2:
	.zero	8
	.globl	_TIG_iO_dw4r_1___bswap_16_1_opaque_list_2
	.align 8
	.type	_TIG_iO_dw4r_1___bswap_16_1_opaque_list_2, @object
	.size	_TIG_iO_dw4r_1___bswap_16_1_opaque_list_2, 8
_TIG_iO_dw4r_1___bswap_16_1_opaque_list_2:
	.zero	8
	.globl	_TIG_iO_dw4r_1_main_1_opaque_ptr_1
	.align 8
	.type	_TIG_iO_dw4r_1_main_1_opaque_ptr_1, @object
	.size	_TIG_iO_dw4r_1_main_1_opaque_ptr_1, 8
_TIG_iO_dw4r_1_main_1_opaque_ptr_1:
	.zero	8
	.globl	_TIG_iO_dw4r_1___uint16_identity_1_opaque_list_2
	.align 8
	.type	_TIG_iO_dw4r_1___uint16_identity_1_opaque_list_2, @object
	.size	_TIG_iO_dw4r_1___uint16_identity_1_opaque_list_2, 8
_TIG_iO_dw4r_1___uint16_identity_1_opaque_list_2:
	.zero	8
	.globl	_TIG_iO_dw4r_1_isFull_1_opaque_list_2
	.align 8
	.type	_TIG_iO_dw4r_1_isFull_1_opaque_list_2, @object
	.size	_TIG_iO_dw4r_1_isFull_1_opaque_list_2, 8
_TIG_iO_dw4r_1_isFull_1_opaque_list_2:
	.zero	8
	.globl	_TIG_iO_dw4r_1___bswap_32_1_opaque_ptr_1
	.align 8
	.type	_TIG_iO_dw4r_1___bswap_32_1_opaque_ptr_1, @object
	.size	_TIG_iO_dw4r_1___bswap_32_1_opaque_ptr_1, 8
_TIG_iO_dw4r_1___bswap_32_1_opaque_ptr_1:
	.zero	8
	.globl	_TIG_iO_dw4r_1___bswap_16_1_opaque_list_1
	.align 8
	.type	_TIG_iO_dw4r_1___bswap_16_1_opaque_list_1, @object
	.size	_TIG_iO_dw4r_1___bswap_16_1_opaque_list_1, 8
_TIG_iO_dw4r_1___bswap_16_1_opaque_list_1:
	.zero	8
	.globl	_TIG_iO_dw4r_1_main_1_opaque_ptr_2
	.align 8
	.type	_TIG_iO_dw4r_1_main_1_opaque_ptr_2, @object
	.size	_TIG_iO_dw4r_1_main_1_opaque_ptr_2, 8
_TIG_iO_dw4r_1_main_1_opaque_ptr_2:
	.zero	8
	.globl	_TIG_iO_dw4r_1___bswap_16_1_opaque_ptr_2
	.align 8
	.type	_TIG_iO_dw4r_1___bswap_16_1_opaque_ptr_2, @object
	.size	_TIG_iO_dw4r_1___bswap_16_1_opaque_ptr_2, 8
_TIG_iO_dw4r_1___bswap_16_1_opaque_ptr_2:
	.zero	8
	.globl	_TIG_iO_dw4r_1___uint16_identity_1_opaque_list_1
	.align 8
	.type	_TIG_iO_dw4r_1___uint16_identity_1_opaque_list_1, @object
	.size	_TIG_iO_dw4r_1___uint16_identity_1_opaque_list_1, 8
_TIG_iO_dw4r_1___uint16_identity_1_opaque_list_1:
	.zero	8
	.globl	_TIG_iO_dw4r_1___uint32_identity_1_opaque_list_1
	.align 8
	.type	_TIG_iO_dw4r_1___uint32_identity_1_opaque_list_1, @object
	.size	_TIG_iO_dw4r_1___uint32_identity_1_opaque_list_1, 8
_TIG_iO_dw4r_1___uint32_identity_1_opaque_list_1:
	.zero	8
	.globl	_TIG_iO_dw4r_1_insert_1_opaque_list_2
	.align 8
	.type	_TIG_iO_dw4r_1_insert_1_opaque_list_2, @object
	.size	_TIG_iO_dw4r_1_insert_1_opaque_list_2, 8
_TIG_iO_dw4r_1_insert_1_opaque_list_2:
	.zero	8
	.globl	_TIG_iO_dw4r_1_main_1_opaque_list_2
	.align 8
	.type	_TIG_iO_dw4r_1_main_1_opaque_list_2, @object
	.size	_TIG_iO_dw4r_1_main_1_opaque_list_2, 8
_TIG_iO_dw4r_1_main_1_opaque_list_2:
	.zero	8
	.globl	_TIG_iO_dw4r_1___uint32_identity_1_opaque_ptr_1
	.align 8
	.type	_TIG_iO_dw4r_1___uint32_identity_1_opaque_ptr_1, @object
	.size	_TIG_iO_dw4r_1___uint32_identity_1_opaque_ptr_1, 8
_TIG_iO_dw4r_1___uint32_identity_1_opaque_ptr_1:
	.zero	8
	.globl	_TIG_iO_dw4r_1_isEmpty_1_opaque_list_2
	.align 8
	.type	_TIG_iO_dw4r_1_isEmpty_1_opaque_list_2, @object
	.size	_TIG_iO_dw4r_1_isEmpty_1_opaque_list_2, 8
_TIG_iO_dw4r_1_isEmpty_1_opaque_list_2:
	.zero	8
	.globl	_TIG_IZ_dw4r_argv
	.align 8
	.type	_TIG_IZ_dw4r_argv, @object
	.size	_TIG_IZ_dw4r_argv, 8
_TIG_IZ_dw4r_argv:
	.zero	8
	.globl	_TIG_iO_dw4r_1_isEmpty_1_opaque_list_1
	.align 8
	.type	_TIG_iO_dw4r_1_isEmpty_1_opaque_list_1, @object
	.size	_TIG_iO_dw4r_1_isEmpty_1_opaque_list_1, 8
_TIG_iO_dw4r_1_isEmpty_1_opaque_list_1:
	.zero	8
	.globl	_TIG_iO_dw4r_1___bswap_32_1_opaque_list_2
	.align 8
	.type	_TIG_iO_dw4r_1___bswap_32_1_opaque_list_2, @object
	.size	_TIG_iO_dw4r_1___bswap_32_1_opaque_list_2, 8
_TIG_iO_dw4r_1___bswap_32_1_opaque_list_2:
	.zero	8
	.globl	_TIG_iO_dw4r_1_isEmpty_1_opaque_ptr_2
	.align 8
	.type	_TIG_iO_dw4r_1_isEmpty_1_opaque_ptr_2, @object
	.size	_TIG_iO_dw4r_1_isEmpty_1_opaque_ptr_2, 8
_TIG_iO_dw4r_1_isEmpty_1_opaque_ptr_2:
	.zero	8
	.globl	_TIG_iO_dw4r_1_isFull_1_opaque_ptr_2
	.align 8
	.type	_TIG_iO_dw4r_1_isFull_1_opaque_ptr_2, @object
	.size	_TIG_iO_dw4r_1_isFull_1_opaque_ptr_2, 8
_TIG_iO_dw4r_1_isFull_1_opaque_ptr_2:
	.zero	8
	.globl	_TIG_iO_dw4r_1_del_1_opaque_list_2
	.align 8
	.type	_TIG_iO_dw4r_1_del_1_opaque_list_2, @object
	.size	_TIG_iO_dw4r_1_del_1_opaque_list_2, 8
_TIG_iO_dw4r_1_del_1_opaque_list_2:
	.zero	8
	.globl	_TIG_iO_dw4r_1_insert_1_opaque_ptr_1
	.align 8
	.type	_TIG_iO_dw4r_1_insert_1_opaque_ptr_1, @object
	.size	_TIG_iO_dw4r_1_insert_1_opaque_ptr_1, 8
_TIG_iO_dw4r_1_insert_1_opaque_ptr_1:
	.zero	8
	.globl	_TIG_iO_dw4r_1_isEmpty_1_opaque_ptr_1
	.align 8
	.type	_TIG_iO_dw4r_1_isEmpty_1_opaque_ptr_1, @object
	.size	_TIG_iO_dw4r_1_isEmpty_1_opaque_ptr_1, 8
_TIG_iO_dw4r_1_isEmpty_1_opaque_ptr_1:
	.zero	8
	.globl	_TIG_iO_dw4r_1_insert_1_opaque_list_1
	.align 8
	.type	_TIG_iO_dw4r_1_insert_1_opaque_list_1, @object
	.size	_TIG_iO_dw4r_1_insert_1_opaque_list_1, 8
_TIG_iO_dw4r_1_insert_1_opaque_list_1:
	.zero	8
	.globl	queue_arr
	.align 16
	.type	queue_arr, @object
	.size	queue_arr, 20
queue_arr:
	.zero	20
	.globl	front
	.align 4
	.type	front, @object
	.size	front, 4
front:
	.zero	4
	.globl	_TIG_iO_dw4r_1_isFull_1_opaque_ptr_1
	.align 8
	.type	_TIG_iO_dw4r_1_isFull_1_opaque_ptr_1, @object
	.size	_TIG_iO_dw4r_1_isFull_1_opaque_ptr_1, 8
_TIG_iO_dw4r_1_isFull_1_opaque_ptr_1:
	.zero	8
	.globl	_TIG_iO_dw4r_1_main_1_opaque_list_1
	.align 8
	.type	_TIG_iO_dw4r_1_main_1_opaque_list_1, @object
	.size	_TIG_iO_dw4r_1_main_1_opaque_list_1, 8
_TIG_iO_dw4r_1_main_1_opaque_list_1:
	.zero	8
	.globl	_TIG_iO_dw4r_1_isFull_1_opaque_list_1
	.align 8
	.type	_TIG_iO_dw4r_1_isFull_1_opaque_list_1, @object
	.size	_TIG_iO_dw4r_1_isFull_1_opaque_list_1, 8
_TIG_iO_dw4r_1_isFull_1_opaque_list_1:
	.zero	8
	.globl	_TIG_iO_dw4r_1___bswap_32_1_opaque_ptr_2
	.align 8
	.type	_TIG_iO_dw4r_1___bswap_32_1_opaque_ptr_2, @object
	.size	_TIG_iO_dw4r_1___bswap_32_1_opaque_ptr_2, 8
_TIG_iO_dw4r_1___bswap_32_1_opaque_ptr_2:
	.zero	8
	.globl	_TIG_iO_dw4r_1___uint16_identity_1_opaque_ptr_1
	.align 8
	.type	_TIG_iO_dw4r_1___uint16_identity_1_opaque_ptr_1, @object
	.size	_TIG_iO_dw4r_1___uint16_identity_1_opaque_ptr_1, 8
_TIG_iO_dw4r_1___uint16_identity_1_opaque_ptr_1:
	.zero	8
	.globl	_TIG_iO_dw4r_1___uint64_identity_1_opaque_ptr_2
	.align 8
	.type	_TIG_iO_dw4r_1___uint64_identity_1_opaque_ptr_2, @object
	.size	_TIG_iO_dw4r_1___uint64_identity_1_opaque_ptr_2, 8
_TIG_iO_dw4r_1___uint64_identity_1_opaque_ptr_2:
	.zero	8
	.globl	_TIG_iO_dw4r_1___uint64_identity_1_opaque_list_1
	.align 8
	.type	_TIG_iO_dw4r_1___uint64_identity_1_opaque_list_1, @object
	.size	_TIG_iO_dw4r_1___uint64_identity_1_opaque_list_1, 8
_TIG_iO_dw4r_1___uint64_identity_1_opaque_list_1:
	.zero	8
	.globl	_TIG_iO_dw4r_1___bswap_64_1_opaque_ptr_1
	.align 8
	.type	_TIG_iO_dw4r_1___bswap_64_1_opaque_ptr_1, @object
	.size	_TIG_iO_dw4r_1___bswap_64_1_opaque_ptr_1, 8
_TIG_iO_dw4r_1___bswap_64_1_opaque_ptr_1:
	.zero	8
	.globl	_TIG_iO_dw4r_1___bswap_16_1_opaque_ptr_1
	.align 8
	.type	_TIG_iO_dw4r_1___bswap_16_1_opaque_ptr_1, @object
	.size	_TIG_iO_dw4r_1___bswap_16_1_opaque_ptr_1, 8
_TIG_iO_dw4r_1___bswap_16_1_opaque_ptr_1:
	.zero	8
	.globl	_TIG_iO_dw4r_1_del_1_opaque_list_1
	.align 8
	.type	_TIG_iO_dw4r_1_del_1_opaque_list_1, @object
	.size	_TIG_iO_dw4r_1_del_1_opaque_list_1, 8
_TIG_iO_dw4r_1_del_1_opaque_list_1:
	.zero	8
	.globl	_TIG_iO_dw4r_1_display_1_opaque_ptr_2
	.align 8
	.type	_TIG_iO_dw4r_1_display_1_opaque_ptr_2, @object
	.size	_TIG_iO_dw4r_1_display_1_opaque_ptr_2, 8
_TIG_iO_dw4r_1_display_1_opaque_ptr_2:
	.zero	8
	.section	.rodata
.LC0:
	.string	"Queue is empty"
.LC1:
	.string	"Queue is:"
.LC2:
	.string	"%d"
.LC3:
	.string	"\n"
	.text
	.globl	display
	.type	display, @function
display:
.LFB0:
	.cfi_startproc
	endbr64
	pushq	%rbp
	.cfi_def_cfa_offset 16
	.cfi_offset 6, -16
	movq	%rsp, %rbp
	.cfi_def_cfa_register 6
	subq	$48, %rsp
#APP
# 78 "/usr/include/stdlib.h" 1
	##_ANNOTATION_INITIALREGION_-TIG-iO-dw4r-1-display--16
# 0 "" 2
# 82 "/usr/include/stdlib.h" 1
	##_ANNOTATION_ATOMICREGION_-TIG-iO-dw4r-1-display--15
# 0 "" 2
#NO_APP
	movl	$24, %edi
	call	malloc@PLT
	movq	%rax, -24(%rbp)
	movq	-24(%rbp), %rax
	movq	-24(%rbp), %rdx
	movq	%rdx, 16(%rax)
	movq	-24(%rbp), %rax
	movq	-24(%rbp), %rdx
	movq	%rdx, 8(%rax)
	movq	-24(%rbp), %rax
	movq	%rax, _TIG_iO_dw4r_1_display_1_opaque_list_1(%rip)
	call	rand@PLT
	movl	%eax, -36(%rbp)
	movl	$24, %edi
	call	malloc@PLT
	movq	%rax, -16(%rbp)
	movq	-16(%rbp), %rax
	movl	$0, (%rax)
	movq	_TIG_iO_dw4r_1_display_1_opaque_list_1(%rip), %rax
	movq	16(%rax), %rdx
	movq	-16(%rbp), %rax
	movq	%rdx, 16(%rax)
	movq	_TIG_iO_dw4r_1_display_1_opaque_list_1(%rip), %rdx
	movq	-16(%rbp), %rax
	movq	%rdx, 8(%rax)
	movq	_TIG_iO_dw4r_1_display_1_opaque_list_1(%rip), %rax
	movq	16(%rax), %rax
	movq	-16(%rbp), %rdx
	movq	%rdx, 8(%rax)
	movq	_TIG_iO_dw4r_1_display_1_opaque_list_1(%rip), %rax
	movq	-16(%rbp), %rdx
	movq	%rdx, 16(%rax)
	call	rand@PLT
	movl	%eax, -32(%rbp)
	movl	$24, %edi
	call	malloc@PLT
	movq	%rax, -8(%rbp)
	movq	-8(%rbp), %rax
	movl	-32(%rbp), %edx
	movl	%edx, (%rax)
	movq	_TIG_iO_dw4r_1_display_1_opaque_list_1(%rip), %rax
	movq	16(%rax), %rdx
	movq	-8(%rbp), %rax
	movq	%rdx, 16(%rax)
	movq	_TIG_iO_dw4r_1_display_1_opaque_list_1(%rip), %rdx
	movq	-8(%rbp), %rax
	movq	%rdx, 8(%rax)
	movq	_TIG_iO_dw4r_1_display_1_opaque_list_1(%rip), %rax
	movq	16(%rax), %rax
	movq	-8(%rbp), %rdx
	movq	%rdx, 8(%rax)
	movq	_TIG_iO_dw4r_1_display_1_opaque_list_1(%rip), %rax
	movq	-8(%rbp), %rdx
	movq	%rdx, 16(%rax)
	movq	_TIG_iO_dw4r_1_display_1_opaque_list_1(%rip), %rax
	movq	16(%rax), %rax
	movq	%rax, _TIG_iO_dw4r_1_display_1_opaque_ptr_1(%rip)
	movq	_TIG_iO_dw4r_1_display_1_opaque_ptr_1(%rip), %rax
	movq	%rax, _TIG_iO_dw4r_1_display_1_opaque_ptr_2(%rip)
	nop
	nop
	call	isEmpty
	movl	%eax, -28(%rbp)
	cmpl	$0, -28(%rbp)
	je	.L2
	leaq	.LC0(%rip), %rax
	movq	%rax, %rdi
	call	puts@PLT
	jmp	.L1
.L2:
	movq	_TIG_iO_dw4r_1_main_1_opaque_ptr_1(%rip), %rdx
	movq	_TIG_iO_dw4r_1_main_1_opaque_ptr_2(%rip), %rax
	cmpq	%rax, %rdx
	jne	.L4
	leaq	1+.LC1(%rip), %rax
	movq	%rax, %rdi
	movl	$0, %eax
	call	printf@PLT
	movl	-28(%rbp), %eax
	movl	%eax, -40(%rbp)
	jmp	.L6
.L4:
	leaq	.LC1(%rip), %rax
	movq	%rax, %rdi
	movl	$0, %eax
	call	printf@PLT
	movl	front(%rip), %eax
	movl	%eax, -40(%rbp)
	jmp	.L6
.L7:
	movl	-40(%rbp), %eax
	cltq
	leaq	0(,%rax,4), %rdx
	leaq	queue_arr(%rip), %rax
	movl	(%rdx,%rax), %eax
	movl	%eax, %esi
	leaq	.LC2(%rip), %rax
	movq	%rax, %rdi
	movl	$0, %eax
	call	printf@PLT
	leaq	.LC3(%rip), %rax
	movq	%rax, %rdi
	call	puts@PLT
	addl	$1, -40(%rbp)
.L6:
	movl	rear(%rip), %eax
	cmpl	%eax, -40(%rbp)
	jle	.L7
	nop
.L1:
	leave
	.cfi_def_cfa 7, 8
	ret
	.cfi_endproc
.LFE0:
	.size	display, .-display
	.globl	isFull
	.type	isFull, @function
isFull:
.LFB2:
	.cfi_startproc
	endbr64
	pushq	%rbp
	.cfi_def_cfa_offset 16
	.cfi_offset 6, -16
	movq	%rsp, %rbp
	.cfi_def_cfa_register 6
	subq	$48, %rsp
#APP
# 56 "/usr/include/x86_64-linux-gnu/bits/byteswap.h" 1
	##_ANNOTATION_INITIALREGION_-TIG-iO-dw4r-1-isFull--22
# 0 "" 2
# 60 "/usr/include/x86_64-linux-gnu/bits/byteswap.h" 1
	##_ANNOTATION_ATOMICREGION_-TIG-iO-dw4r-1-isFull--21
# 0 "" 2
#NO_APP
	movl	$24, %edi
	call	malloc@PLT
	movq	%rax, -32(%rbp)
	movq	-32(%rbp), %rax
	movq	-32(%rbp), %rdx
	movq	%rdx, (%rax)
	movq	-32(%rbp), %rax
	movq	-32(%rbp), %rdx
	movq	%rdx, 16(%rax)
	movq	-32(%rbp), %rax
	movq	%rax, _TIG_iO_dw4r_1_isFull_1_opaque_list_1(%rip)
	call	rand@PLT
	movl	%eax, -44(%rbp)
	movl	$24, %edi
	call	malloc@PLT
	movq	%rax, -24(%rbp)
	movq	-24(%rbp), %rax
	movl	$0, 8(%rax)
	movq	_TIG_iO_dw4r_1_isFull_1_opaque_list_1(%rip), %rax
	movq	(%rax), %rdx
	movq	-24(%rbp), %rax
	movq	%rdx, (%rax)
	movq	_TIG_iO_dw4r_1_isFull_1_opaque_list_1(%rip), %rdx
	movq	-24(%rbp), %rax
	movq	%rdx, 16(%rax)
	movq	_TIG_iO_dw4r_1_isFull_1_opaque_list_1(%rip), %rax
	movq	(%rax), %rax
	movq	-24(%rbp), %rdx
	movq	%rdx, 16(%rax)
	movq	_TIG_iO_dw4r_1_isFull_1_opaque_list_1(%rip), %rax
	movq	-24(%rbp), %rdx
	movq	%rdx, (%rax)
	call	rand@PLT
	movl	%eax, -40(%rbp)
	movl	$24, %edi
	call	malloc@PLT
	movq	%rax, -16(%rbp)
	movq	-16(%rbp), %rax
	movl	-40(%rbp), %edx
	movl	%edx, 8(%rax)
	movq	_TIG_iO_dw4r_1_isFull_1_opaque_list_1(%rip), %rax
	movq	(%rax), %rdx
	movq	-16(%rbp), %rax
	movq	%rdx, (%rax)
	movq	_TIG_iO_dw4r_1_isFull_1_opaque_list_1(%rip), %rdx
	movq	-16(%rbp), %rax
	movq	%rdx, 16(%rax)
	movq	_TIG_iO_dw4r_1_isFull_1_opaque_list_1(%rip), %rax
	movq	(%rax), %rax
	movq	-16(%rbp), %rdx
	movq	%rdx, 16(%rax)
	movq	_TIG_iO_dw4r_1_isFull_1_opaque_list_1(%rip), %rax
	movq	-16(%rbp), %rdx
	movq	%rdx, (%rax)
	call	rand@PLT
	movl	%eax, -36(%rbp)
	movl	$24, %edi
	call	malloc@PLT
	movq	%rax, -8(%rbp)
	movl	-36(%rbp), %eax
	leal	(%rax,%rax), %edx
	movq	-8(%rbp), %rax
	movl	%edx, 8(%rax)
	movq	_TIG_iO_dw4r_1_isFull_1_opaque_list_1(%rip), %rax
	movq	(%rax), %rdx
	movq	-8(%rbp), %rax
	movq	%rdx, (%rax)
	movq	_TIG_iO_dw4r_1_isFull_1_opaque_list_1(%rip), %rdx
	movq	-8(%rbp), %rax
	movq	%rdx, 16(%rax)
	movq	_TIG_iO_dw4r_1_isFull_1_opaque_list_1(%rip), %rax
	movq	(%rax), %rax
	movq	-8(%rbp), %rdx
	movq	%rdx, 16(%rax)
	movq	_TIG_iO_dw4r_1_isFull_1_opaque_list_1(%rip), %rax
	movq	-8(%rbp), %rdx
	movq	%rdx, (%rax)
	movq	_TIG_iO_dw4r_1_isFull_1_opaque_list_1(%rip), %rax
	movq	(%rax), %rax
	movq	%rax, _TIG_iO_dw4r_1_isFull_1_opaque_ptr_1(%rip)
	movq	_TIG_iO_dw4r_1_isFull_1_opaque_ptr_1(%rip), %rax
	movq	%rax, _TIG_iO_dw4r_1_isFull_1_opaque_ptr_2(%rip)
	movq	_TIG_iO_dw4r_1_isFull_1_opaque_ptr_2(%rip), %rax
	movq	(%rax), %rax
	movq	%rax, _TIG_iO_dw4r_1_isFull_1_opaque_ptr_2(%rip)
	nop
	nop
	movl	rear(%rip), %eax
	cmpl	$4, %eax
	jne	.L9
	movl	$1, %eax
	jmp	.L10
.L9:
	movq	_TIG_iO_dw4r_1_main_1_opaque_ptr_1(%rip), %rdx
	movq	_TIG_iO_dw4r_1_main_1_opaque_ptr_2(%rip), %rax
	cmpq	%rax, %rdx
	je	.L11
	movl	$0, %eax
	jmp	.L10
.L11:
	movl	-36(%rbp), %eax
	negl	%eax
.L10:
	leave
	.cfi_def_cfa 7, 8
	ret
	.cfi_endproc
.LFE2:
	.size	isFull, .-isFull
	.globl	isEmpty
	.type	isEmpty, @function
isEmpty:
.LFB4:
	.cfi_startproc
	endbr64
	pushq	%rbp
	.cfi_def_cfa_offset 16
	.cfi_offset 6, -16
	movq	%rsp, %rbp
	.cfi_def_cfa_register 6
	subq	$32, %rsp
#APP
# 72 "/usr/include/x86_64-linux-gnu/bits/byteswap.h" 1
	##_ANNOTATION_INITIALREGION_-TIG-iO-dw4r-1-isEmpty--20
# 0 "" 2
# 76 "/usr/include/x86_64-linux-gnu/bits/byteswap.h" 1
	##_ANNOTATION_ATOMICREGION_-TIG-iO-dw4r-1-isEmpty--19
# 0 "" 2
#NO_APP
	movl	$24, %edi
	call	malloc@PLT
	movq	%rax, -24(%rbp)
	movq	-24(%rbp), %rax
	movq	-24(%rbp), %rdx
	movq	%rdx, 8(%rax)
	movq	-24(%rbp), %rax
	movq	-24(%rbp), %rdx
	movq	%rdx, 16(%rax)
	movq	-24(%rbp), %rax
	movq	%rax, _TIG_iO_dw4r_1_isEmpty_1_opaque_list_1(%rip)
	call	rand@PLT
	movl	%eax, -32(%rbp)
	movl	$24, %edi
	call	malloc@PLT
	movq	%rax, -16(%rbp)
	movq	-16(%rbp), %rax
	movl	$0, (%rax)
	movq	_TIG_iO_dw4r_1_isEmpty_1_opaque_list_1(%rip), %rax
	movq	8(%rax), %rdx
	movq	-16(%rbp), %rax
	movq	%rdx, 8(%rax)
	movq	_TIG_iO_dw4r_1_isEmpty_1_opaque_list_1(%rip), %rdx
	movq	-16(%rbp), %rax
	movq	%rdx, 16(%rax)
	movq	_TIG_iO_dw4r_1_isEmpty_1_opaque_list_1(%rip), %rax
	movq	8(%rax), %rax
	movq	-16(%rbp), %rdx
	movq	%rdx, 16(%rax)
	movq	_TIG_iO_dw4r_1_isEmpty_1_opaque_list_1(%rip), %rax
	movq	-16(%rbp), %rdx
	movq	%rdx, 8(%rax)
	call	rand@PLT
	movl	%eax, -28(%rbp)
	movl	$24, %edi
	call	malloc@PLT
	movq	%rax, -8(%rbp)
	movq	-8(%rbp), %rax
	movl	-28(%rbp), %edx
	movl	%edx, (%rax)
	movq	_TIG_iO_dw4r_1_isEmpty_1_opaque_list_1(%rip), %rax
	movq	8(%rax), %rdx
	movq	-8(%rbp), %rax
	movq	%rdx, 8(%rax)
	movq	_TIG_iO_dw4r_1_isEmpty_1_opaque_list_1(%rip), %rdx
	movq	-8(%rbp), %rax
	movq	%rdx, 16(%rax)
	movq	_TIG_iO_dw4r_1_isEmpty_1_opaque_list_1(%rip), %rax
	movq	8(%rax), %rax
	movq	-8(%rbp), %rdx
	movq	%rdx, 16(%rax)
	movq	_TIG_iO_dw4r_1_isEmpty_1_opaque_list_1(%rip), %rax
	movq	-8(%rbp), %rdx
	movq	%rdx, 8(%rax)
	movq	_TIG_iO_dw4r_1_isEmpty_1_opaque_list_1(%rip), %rax
	movq	8(%rax), %rax
	movq	%rax, _TIG_iO_dw4r_1_isEmpty_1_opaque_ptr_1(%rip)
	movq	_TIG_iO_dw4r_1_isEmpty_1_opaque_ptr_1(%rip), %rax
	movq	%rax, _TIG_iO_dw4r_1_isEmpty_1_opaque_ptr_2(%rip)
	nop
	nop
	movl	front(%rip), %eax
	cmpl	$-1, %eax
	jne	.L13
	movq	_TIG_iO_dw4r_1_main_1_opaque_ptr_1(%rip), %rdx
	movq	_TIG_iO_dw4r_1_main_1_opaque_ptr_2(%rip), %rax
	cmpq	%rax, %rdx
	je	.L14
	movl	$1, %eax
	jmp	.L15
.L14:
#APP
# 77 "/usr/include/x86_64-linux-gnu/bits/byteswap.h" 1
	.byte 0x23,0x17,0xe0
# 0 "" 2
#NO_APP
	movl	$0, %eax
	jmp	.L15
.L13:
	movl	rear(%rip), %eax
	leal	1(%rax), %edx
	movl	front(%rip), %eax
	cmpl	%eax, %edx
	jne	.L17
	movl	$1, %eax
	jmp	.L15
.L17:
	movl	$0, %eax
.L15:
	leave
	.cfi_def_cfa 7, 8
	ret
	.cfi_endproc
.LFE4:
	.size	isEmpty, .-isEmpty
	.section	.rodata
.LC4:
	.string	"\n 1.Insert"
.LC5:
	.string	"\n 2.Delete"
.LC6:
	.string	"\n 3.Display all element"
.LC7:
	.string	"\n 4.Quit"
.LC8:
	.string	"\n Enter your choice:   "
	.align 8
.LC9:
	.string	"Input the element for adding in queue:     "
.LC10:
	.string	"Deleted elements is %d"
.LC11:
	.string	"wrong choice "
	.text
	.globl	main
	.type	main, @function
main:
.LFB7:
	.cfi_startproc
	endbr64
	pushq	%rbp
	.cfi_def_cfa_offset 16
	.cfi_offset 6, -16
	movq	%rsp, %rbp
	.cfi_def_cfa_register 6
	subq	$96, %rsp
	movl	%edi, -68(%rbp)
	movq	%rsi, -80(%rbp)
	movq	%rdx, -88(%rbp)
	movq	%fs:40, %rax
	movq	%rax, -8(%rbp)
	xorl	%eax, %eax
	movl	$-1, front(%rip)
	nop
.L19:
	movl	$-1, rear(%rip)
	nop
.L20:
	movl	$0, -56(%rbp)
	jmp	.L21
.L22:
	movl	-56(%rbp), %eax
	cltq
	leaq	0(,%rax,4), %rdx
	leaq	queue_arr(%rip), %rax
	movl	$0, (%rdx,%rax)
	addl	$1, -56(%rbp)
.L21:
	cmpl	$4, -56(%rbp)
	jle	.L22
	nop
.L23:
	movq	$0, _TIG_IZ_dw4r_envp(%rip)
	nop
.L24:
	movq	$0, _TIG_IZ_dw4r_argv(%rip)
	nop
.L25:
	movl	$0, _TIG_IZ_dw4r_argc(%rip)
	nop
	nop
.L26:
.L27:
#APP
# 112 "/usr/include/x86_64-linux-gnu/bits/uintn-identity.h" 1
	##_ANNOTATION_INITIALREGION_-TIG-IZ-dw4r--0
# 0 "" 2
#NO_APP
	movl	-68(%rbp), %eax
	movl	%eax, _TIG_IZ_dw4r_argc(%rip)
	movq	-80(%rbp), %rax
	movq	%rax, _TIG_IZ_dw4r_argv(%rip)
	movq	-88(%rbp), %rax
	movq	%rax, _TIG_IZ_dw4r_envp(%rip)
#APP
# 119 "/usr/include/x86_64-linux-gnu/bits/uintn-identity.h" 1
	##_ANNOTATION_ATOMICREGION_-TIG-iO-dw4r-1-main--23
# 0 "" 2
#NO_APP
	movl	$24, %edi
	call	malloc@PLT
	movq	%rax, -40(%rbp)
	movq	-40(%rbp), %rax
	movq	-40(%rbp), %rdx
	movq	%rdx, (%rax)
	movq	-40(%rbp), %rax
	movq	-40(%rbp), %rdx
	movq	%rdx, 8(%rax)
	movq	-40(%rbp), %rax
	movq	%rax, _TIG_iO_dw4r_1_main_1_opaque_list_1(%rip)
	call	rand@PLT
	movl	%eax, -52(%rbp)
	movl	$24, %edi
	call	malloc@PLT
	movq	%rax, -32(%rbp)
	movq	-32(%rbp), %rax
	movl	$0, 16(%rax)
	movq	_TIG_iO_dw4r_1_main_1_opaque_list_1(%rip), %rax
	movq	(%rax), %rdx
	movq	-32(%rbp), %rax
	movq	%rdx, (%rax)
	movq	_TIG_iO_dw4r_1_main_1_opaque_list_1(%rip), %rdx
	movq	-32(%rbp), %rax
	movq	%rdx, 8(%rax)
	movq	_TIG_iO_dw4r_1_main_1_opaque_list_1(%rip), %rax
	movq	(%rax), %rax
	movq	-32(%rbp), %rdx
	movq	%rdx, 8(%rax)
	movq	_TIG_iO_dw4r_1_main_1_opaque_list_1(%rip), %rax
	movq	-32(%rbp), %rdx
	movq	%rdx, (%rax)
	call	rand@PLT
	movl	%eax, -48(%rbp)
	movl	$24, %edi
	call	malloc@PLT
	movq	%rax, -24(%rbp)
	movq	-24(%rbp), %rax
	movl	-48(%rbp), %edx
	movl	%edx, 16(%rax)
	movq	_TIG_iO_dw4r_1_main_1_opaque_list_1(%rip), %rax
	movq	(%rax), %rdx
	movq	-24(%rbp), %rax
	movq	%rdx, (%rax)
	movq	_TIG_iO_dw4r_1_main_1_opaque_list_1(%rip), %rdx
	movq	-24(%rbp), %rax
	movq	%rdx, 8(%rax)
	movq	_TIG_iO_dw4r_1_main_1_opaque_list_1(%rip), %rax
	movq	(%rax), %rax
	movq	-24(%rbp), %rdx
	movq	%rdx, 8(%rax)
	movq	_TIG_iO_dw4r_1_main_1_opaque_list_1(%rip), %rax
	movq	-24(%rbp), %rdx
	movq	%rdx, (%rax)
	call	rand@PLT
	movl	%eax, -44(%rbp)
	movl	$24, %edi
	call	malloc@PLT
	movq	%rax, -16(%rbp)
	movl	-44(%rbp), %eax
	leal	(%rax,%rax), %edx
	movq	-16(%rbp), %rax
	movl	%edx, 16(%rax)
	movq	_TIG_iO_dw4r_1_main_1_opaque_list_1(%rip), %rax
	movq	(%rax), %rdx
	movq	-16(%rbp), %rax
	movq	%rdx, (%rax)
	movq	_TIG_iO_dw4r_1_main_1_opaque_list_1(%rip), %rdx
	movq	-16(%rbp), %rax
	movq	%rdx, 8(%rax)
	movq	_TIG_iO_dw4r_1_main_1_opaque_list_1(%rip), %rax
	movq	(%rax), %rax
	movq	-16(%rbp), %rdx
	movq	%rdx, 8(%rax)
	movq	_TIG_iO_dw4r_1_main_1_opaque_list_1(%rip), %rax
	movq	-16(%rbp), %rdx
	movq	%rdx, (%rax)
	movq	_TIG_iO_dw4r_1_main_1_opaque_list_1(%rip), %rax
	movq	(%rax), %rax
	movq	%rax, _TIG_iO_dw4r_1_main_1_opaque_ptr_1(%rip)
	movq	_TIG_iO_dw4r_1_main_1_opaque_ptr_1(%rip), %rax
	movq	%rax, _TIG_iO_dw4r_1_main_1_opaque_ptr_2(%rip)
	movq	_TIG_iO_dw4r_1_main_1_opaque_ptr_2(%rip), %rax
	movq	(%rax), %rax
	movq	%rax, _TIG_iO_dw4r_1_main_1_opaque_ptr_2(%rip)
	nop
	nop
.L37:
	leaq	.LC4(%rip), %rax
	movq	%rax, %rdi
	call	puts@PLT
	leaq	.LC5(%rip), %rax
	movq	%rax, %rdi
	call	puts@PLT
	leaq	.LC6(%rip), %rax
	movq	%rax, %rdi
	call	puts@PLT
	leaq	.LC7(%rip), %rax
	movq	%rax, %rdi
	call	puts@PLT
	leaq	.LC8(%rip), %rax
	movq	%rax, %rdi
	movl	$0, %eax
	call	printf@PLT
	leaq	-64(%rbp), %rax
	movq	%rax, %rsi
	leaq	.LC2(%rip), %rax
	movq	%rax, %rdi
	movl	$0, %eax
	call	__isoc99_scanf@PLT
	movq	_TIG_iO_dw4r_1_main_1_opaque_ptr_1(%rip), %rdx
	movq	_TIG_iO_dw4r_1_main_1_opaque_ptr_2(%rip), %rax
	cmpq	%rax, %rdx
	je	.L28
	movl	-64(%rbp), %eax
	cmpl	$4, %eax
	je	.L29
	cmpl	$4, %eax
	jg	.L30
	cmpl	$3, %eax
	je	.L31
	cmpl	$3, %eax
	jg	.L30
	cmpl	$1, %eax
	je	.L32
	cmpl	$2, %eax
	je	.L33
	jmp	.L30
.L32:
	leaq	.LC9(%rip), %rax
	movq	%rax, %rdi
	movl	$0, %eax
	call	printf@PLT
	leaq	-60(%rbp), %rax
	movq	%rax, %rsi
	leaq	.LC2(%rip), %rax
	movq	%rax, %rdi
	movl	$0, %eax
	call	__isoc99_scanf@PLT
	movl	-60(%rbp), %eax
	movl	%eax, %edi
	call	insert
	jmp	.L35
.L33:
	call	del
	movl	%eax, -60(%rbp)
	movl	-60(%rbp), %eax
	movl	%eax, %esi
	leaq	.LC10(%rip), %rax
	movq	%rax, %rdi
	movl	$0, %eax
	call	printf@PLT
	jmp	.L35
.L31:
	call	display
	jmp	.L35
.L29:
	movl	$1, %edi
	call	exit@PLT
.L30:
	leaq	.LC11(%rip), %rax
	movq	%rax, %rdi
	call	puts@PLT
	jmp	.L37
.L28:
	movl	-64(%rbp), %eax
	cmpl	%eax, -68(%rbp)
	jg	.L37
	movl	-48(%rbp), %eax
	movq	-8(%rbp), %rdx
	subq	%fs:40, %rdx
	je	.L38
	jmp	.L39
.L35:
	jmp	.L37
.L39:
	call	__stack_chk_fail@PLT
.L38:
	leave
	.cfi_def_cfa 7, 8
	ret
	.cfi_endproc
.LFE7:
	.size	main, .-main
	.section	.rodata
.LC12:
	.string	"Queue underflow "
	.text
	.globl	del
	.type	del, @function
del:
.LFB8:
	.cfi_startproc
	endbr64
	pushq	%rbp
	.cfi_def_cfa_offset 16
	.cfi_offset 6, -16
	movq	%rsp, %rbp
	.cfi_def_cfa_register 6
	subq	$64, %rsp
#APP
# 54 "jayeshbhandarkar_Data-Structures-and-Algorithms_q.c" 1
	##_ANNOTATION_INITIALREGION_-TIG-iO-dw4r-1-del--14
# 0 "" 2
# 58 "jayeshbhandarkar_Data-Structures-and-Algorithms_q.c" 1
	##_ANNOTATION_ATOMICREGION_-TIG-iO-dw4r-1-del--13
# 0 "" 2
#NO_APP
	movl	$24, %edi
	call	malloc@PLT
	movq	%rax, -40(%rbp)
	movq	-40(%rbp), %rax
	movq	-40(%rbp), %rdx
	movq	%rdx, (%rax)
	movq	-40(%rbp), %rax
	movq	-40(%rbp), %rdx
	movq	%rdx, 8(%rax)
	movq	-40(%rbp), %rax
	movq	%rax, _TIG_iO_dw4r_1_del_1_opaque_list_1(%rip)
	call	rand@PLT
	movl	%eax, -60(%rbp)
	movl	$24, %edi
	call	malloc@PLT
	movq	%rax, -32(%rbp)
	movq	-32(%rbp), %rax
	movl	$0, 16(%rax)
	movq	_TIG_iO_dw4r_1_del_1_opaque_list_1(%rip), %rax
	movq	(%rax), %rdx
	movq	-32(%rbp), %rax
	movq	%rdx, (%rax)
	movq	_TIG_iO_dw4r_1_del_1_opaque_list_1(%rip), %rdx
	movq	-32(%rbp), %rax
	movq	%rdx, 8(%rax)
	movq	_TIG_iO_dw4r_1_del_1_opaque_list_1(%rip), %rax
	movq	(%rax), %rax
	movq	-32(%rbp), %rdx
	movq	%rdx, 8(%rax)
	movq	_TIG_iO_dw4r_1_del_1_opaque_list_1(%rip), %rax
	movq	-32(%rbp), %rdx
	movq	%rdx, (%rax)
	call	rand@PLT
	movl	%eax, -56(%rbp)
	movl	$24, %edi
	call	malloc@PLT
	movq	%rax, -24(%rbp)
	movq	-24(%rbp), %rax
	movl	-56(%rbp), %edx
	movl	%edx, 16(%rax)
	movq	_TIG_iO_dw4r_1_del_1_opaque_list_1(%rip), %rax
	movq	(%rax), %rdx
	movq	-24(%rbp), %rax
	movq	%rdx, (%rax)
	movq	_TIG_iO_dw4r_1_del_1_opaque_list_1(%rip), %rdx
	movq	-24(%rbp), %rax
	movq	%rdx, 8(%rax)
	movq	_TIG_iO_dw4r_1_del_1_opaque_list_1(%rip), %rax
	movq	(%rax), %rax
	movq	-24(%rbp), %rdx
	movq	%rdx, 8(%rax)
	movq	_TIG_iO_dw4r_1_del_1_opaque_list_1(%rip), %rax
	movq	-24(%rbp), %rdx
	movq	%rdx, (%rax)
	call	rand@PLT
	movl	%eax, -52(%rbp)
	movl	$24, %edi
	call	malloc@PLT
	movq	%rax, -16(%rbp)
	movl	-52(%rbp), %eax
	leal	(%rax,%rax), %edx
	movq	-16(%rbp), %rax
	movl	%edx, 16(%rax)
	movq	_TIG_iO_dw4r_1_del_1_opaque_list_1(%rip), %rax
	movq	(%rax), %rdx
	movq	-16(%rbp), %rax
	movq	%rdx, (%rax)
	movq	_TIG_iO_dw4r_1_del_1_opaque_list_1(%rip), %rdx
	movq	-16(%rbp), %rax
	movq	%rdx, 8(%rax)
	movq	_TIG_iO_dw4r_1_del_1_opaque_list_1(%rip), %rax
	movq	(%rax), %rax
	movq	-16(%rbp), %rdx
	movq	%rdx, 8(%rax)
	movq	_TIG_iO_dw4r_1_del_1_opaque_list_1(%rip), %rax
	movq	-16(%rbp), %rdx
	movq	%rdx, (%rax)
	call	rand@PLT
	movl	%eax, -48(%rbp)
	movl	$24, %edi
	call	malloc@PLT
	movq	%rax, -8(%rbp)
	movl	-48(%rbp), %edx
	movl	%edx, %eax
	addl	%eax, %eax
	addl	%eax, %edx
	movq	-8(%rbp), %rax
	movl	%edx, 16(%rax)
	movq	_TIG_iO_dw4r_1_del_1_opaque_list_1(%rip), %rax
	movq	(%rax), %rdx
	movq	-8(%rbp), %rax
	movq	%rdx, (%rax)
	movq	_TIG_iO_dw4r_1_del_1_opaque_list_1(%rip), %rdx
	movq	-8(%rbp), %rax
	movq	%rdx, 8(%rax)
	movq	_TIG_iO_dw4r_1_del_1_opaque_list_1(%rip), %rax
	movq	(%rax), %rax
	movq	-8(%rbp), %rdx
	movq	%rdx, 8(%rax)
	movq	_TIG_iO_dw4r_1_del_1_opaque_list_1(%rip), %rax
	movq	-8(%rbp), %rdx
	movq	%rdx, (%rax)
	movq	_TIG_iO_dw4r_1_del_1_opaque_list_1(%rip), %rax
	movq	(%rax), %rax
	movq	%rax, _TIG_iO_dw4r_1_del_1_opaque_ptr_1(%rip)
	movq	_TIG_iO_dw4r_1_del_1_opaque_ptr_1(%rip), %rax
	movq	%rax, _TIG_iO_dw4r_1_del_1_opaque_ptr_2(%rip)
	movq	_TIG_iO_dw4r_1_del_1_opaque_ptr_2(%rip), %rax
	movq	(%rax), %rax
	movq	%rax, _TIG_iO_dw4r_1_del_1_opaque_ptr_2(%rip)
	nop
	nop
	movq	_TIG_iO_dw4r_1_main_1_opaque_ptr_1(%rip), %rdx
	movq	_TIG_iO_dw4r_1_main_1_opaque_ptr_2(%rip), %rax
	cmpq	%rax, %rdx
	je	.L41
	call	isEmpty
	movl	%eax, -64(%rbp)
	jmp	.L42
.L41:
#APP
# 65 "jayeshbhandarkar_Data-Structures-and-Algorithms_q.c" 1
	.byte 0x8b
# 0 "" 2
#NO_APP
.L42:
	cmpl	$0, -64(%rbp)
	je	.L43
	leaq	.LC12(%rip), %rax
	movq	%rax, %rdi
	call	puts@PLT
	movl	$1, %edi
	call	exit@PLT
.L43:
	movl	front(%rip), %eax
	cltq
	leaq	0(,%rax,4), %rdx
	leaq	queue_arr(%rip), %rax
	movl	(%rdx,%rax), %eax
	movl	%eax, -44(%rbp)
	movl	front(%rip), %eax
	addl	$1, %eax
	movl	%eax, front(%rip)
	movl	-44(%rbp), %eax
	leave
	.cfi_def_cfa 7, 8
	ret
	.cfi_endproc
.LFE8:
	.size	del, .-del
	.section	.rodata
.LC13:
	.string	"Queue overflow "
	.text
	.globl	insert
	.type	insert, @function
insert:
.LFB9:
	.cfi_startproc
	endbr64
	pushq	%rbp
	.cfi_def_cfa_offset 16
	.cfi_offset 6, -16
	movq	%rsp, %rbp
	.cfi_def_cfa_register 6
	subq	$64, %rsp
	movl	%edi, -52(%rbp)
#APP
# 87 "jayeshbhandarkar_Data-Structures-and-Algorithms_q.c" 1
	##_ANNOTATION_INITIALREGION_-TIG-iO-dw4r-1-insert--18
# 0 "" 2
# 91 "jayeshbhandarkar_Data-Structures-and-Algorithms_q.c" 1
	##_ANNOTATION_ATOMICREGION_-TIG-iO-dw4r-1-insert--17
# 0 "" 2
#NO_APP
	movl	$24, %edi
	call	malloc@PLT
	movq	%rax, -24(%rbp)
	movq	-24(%rbp), %rax
	movq	-24(%rbp), %rdx
	movq	%rdx, 8(%rax)
	movq	-24(%rbp), %rax
	movq	-24(%rbp), %rdx
	movq	%rdx, (%rax)
	movq	-24(%rbp), %rax
	movq	%rax, _TIG_iO_dw4r_1_insert_1_opaque_list_1(%rip)
	call	rand@PLT
	movl	%eax, -36(%rbp)
	movl	$24, %edi
	call	malloc@PLT
	movq	%rax, -16(%rbp)
	movq	-16(%rbp), %rax
	movl	$0, 16(%rax)
	movq	_TIG_iO_dw4r_1_insert_1_opaque_list_1(%rip), %rax
	movq	8(%rax), %rdx
	movq	-16(%rbp), %rax
	movq	%rdx, 8(%rax)
	movq	_TIG_iO_dw4r_1_insert_1_opaque_list_1(%rip), %rdx
	movq	-16(%rbp), %rax
	movq	%rdx, (%rax)
	movq	_TIG_iO_dw4r_1_insert_1_opaque_list_1(%rip), %rax
	movq	8(%rax), %rax
	movq	-16(%rbp), %rdx
	movq	%rdx, (%rax)
	movq	_TIG_iO_dw4r_1_insert_1_opaque_list_1(%rip), %rax
	movq	-16(%rbp), %rdx
	movq	%rdx, 8(%rax)
	call	rand@PLT
	movl	%eax, -32(%rbp)
	movl	$24, %edi
	call	malloc@PLT
	movq	%rax, -8(%rbp)
	movq	-8(%rbp), %rax
	movl	-32(%rbp), %edx
	movl	%edx, 16(%rax)
	movq	_TIG_iO_dw4r_1_insert_1_opaque_list_1(%rip), %rax
	movq	8(%rax), %rdx
	movq	-8(%rbp), %rax
	movq	%rdx, 8(%rax)
	movq	_TIG_iO_dw4r_1_insert_1_opaque_list_1(%rip), %rdx
	movq	-8(%rbp), %rax
	movq	%rdx, (%rax)
	movq	_TIG_iO_dw4r_1_insert_1_opaque_list_1(%rip), %rax
	movq	8(%rax), %rax
	movq	-8(%rbp), %rdx
	movq	%rdx, (%rax)
	movq	_TIG_iO_dw4r_1_insert_1_opaque_list_1(%rip), %rax
	movq	-8(%rbp), %rdx
	movq	%rdx, 8(%rax)
	movq	_TIG_iO_dw4r_1_insert_1_opaque_list_1(%rip), %rax
	movq	8(%rax), %rax
	movq	%rax, _TIG_iO_dw4r_1_insert_1_opaque_ptr_1(%rip)
	movq	_TIG_iO_dw4r_1_insert_1_opaque_ptr_1(%rip), %rax
	movq	%rax, _TIG_iO_dw4r_1_insert_1_opaque_ptr_2(%rip)
	movq	_TIG_iO_dw4r_1_insert_1_opaque_ptr_2(%rip), %rax
	movq	8(%rax), %rax
	movq	%rax, _TIG_iO_dw4r_1_insert_1_opaque_ptr_2(%rip)
	nop
	nop
	call	isFull
	movl	%eax, -28(%rbp)
	cmpl	$0, -28(%rbp)
	je	.L46
	leaq	.LC13(%rip), %rax
	movq	%rax, %rdi
	call	puts@PLT
	movq	_TIG_iO_dw4r_1_main_1_opaque_ptr_1(%rip), %rdx
	movq	_TIG_iO_dw4r_1_main_1_opaque_ptr_2(%rip), %rax
	cmpq	%rax, %rdx
	jmp	.L45
.L46:
	movl	front(%rip), %eax
	cmpl	$-1, %eax
	jne	.L49
	movl	$0, front(%rip)
.L49:
	movl	rear(%rip), %eax
	addl	$1, %eax
	movl	%eax, rear(%rip)
	movl	rear(%rip), %eax
	cltq
	leaq	0(,%rax,4), %rcx
	leaq	queue_arr(%rip), %rdx
	movl	-52(%rbp), %eax
	movl	%eax, (%rcx,%rdx)
	nop
.L45:
	leave
	.cfi_def_cfa 7, 8
	ret
	.cfi_endproc
.LFE9:
	.size	insert, .-insert
	.ident	"GCC: (Ubuntu 11.4.0-1ubuntu1~22.04) 11.4.0"
	.section	.note.GNU-stack,"",@progbits
	.section	.note.gnu.property,"a"
	.align 8
	.long	1f - 0f
	.long	4f - 1f
	.long	5
0:
	.string	"GNU"
1:
	.align 8
	.long	0xc0000002
	.long	3f - 2f
2:
	.long	0x3
3:
	.align 8
4:
