	.file	"lac-dcc_jotai-benchmarks_extr_linuxdriversmediaplatformexynos-gscgsc-core.c_gsc_set_frame_size_Final_opaque.c"
	.text
	.globl	_TIG_iO_tEfO_1_main_1_opaque_ptr_1
	.bss
	.align 8
	.type	_TIG_iO_tEfO_1_main_1_opaque_ptr_1, @object
	.size	_TIG_iO_tEfO_1_main_1_opaque_ptr_1, 8
_TIG_iO_tEfO_1_main_1_opaque_ptr_1:
	.zero	8
	.globl	_TIG_iO_tEfO_1_main_1_opaque_list_1
	.align 8
	.type	_TIG_iO_tEfO_1_main_1_opaque_list_1, @object
	.size	_TIG_iO_tEfO_1_main_1_opaque_list_1, 8
_TIG_iO_tEfO_1_main_1_opaque_list_1:
	.zero	8
	.globl	_TIG_iO_tEfO_1_next_f_1_opaque_list_1
	.align 8
	.type	_TIG_iO_tEfO_1_next_f_1_opaque_list_1, @object
	.size	_TIG_iO_tEfO_1_next_f_1_opaque_list_1, 8
_TIG_iO_tEfO_1_next_f_1_opaque_list_1:
	.zero	8
	.globl	_TIG_iO_tEfO_1_next_f_1_opaque_ptr_2
	.align 8
	.type	_TIG_iO_tEfO_1_next_f_1_opaque_ptr_2, @object
	.size	_TIG_iO_tEfO_1_next_f_1_opaque_ptr_2, 8
_TIG_iO_tEfO_1_next_f_1_opaque_ptr_2:
	.zero	8
	.globl	_TIG_IZ_tEfO_envp
	.align 8
	.type	_TIG_IZ_tEfO_envp, @object
	.size	_TIG_IZ_tEfO_envp, 8
_TIG_IZ_tEfO_envp:
	.zero	8
	.globl	_TIG_iO_tEfO_1_next_i_1_opaque_ptr_1
	.align 8
	.type	_TIG_iO_tEfO_1_next_i_1_opaque_ptr_1, @object
	.size	_TIG_iO_tEfO_1_next_i_1_opaque_ptr_1, 8
_TIG_iO_tEfO_1_next_i_1_opaque_ptr_1:
	.zero	8
	.globl	_TIG_iO_tEfO_1___bswap_64_1_opaque_ptr_2
	.align 8
	.type	_TIG_iO_tEfO_1___bswap_64_1_opaque_ptr_2, @object
	.size	_TIG_iO_tEfO_1___bswap_64_1_opaque_ptr_2, 8
_TIG_iO_tEfO_1___bswap_64_1_opaque_ptr_2:
	.zero	8
	.globl	_TIG_iO_tEfO_1_gsc_set_frame_size_1_opaque_ptr_1
	.align 8
	.type	_TIG_iO_tEfO_1_gsc_set_frame_size_1_opaque_ptr_1, @object
	.size	_TIG_iO_tEfO_1_gsc_set_frame_size_1_opaque_ptr_1, 8
_TIG_iO_tEfO_1_gsc_set_frame_size_1_opaque_ptr_1:
	.zero	8
	.globl	_TIG_iO_tEfO_1_main_1_opaque_ptr_2
	.align 8
	.type	_TIG_iO_tEfO_1_main_1_opaque_ptr_2, @object
	.size	_TIG_iO_tEfO_1_main_1_opaque_ptr_2, 8
_TIG_iO_tEfO_1_main_1_opaque_ptr_2:
	.zero	8
	.globl	_TIG_iO_tEfO_1___uint32_identity_1_opaque_list_1
	.align 8
	.type	_TIG_iO_tEfO_1___uint32_identity_1_opaque_list_1, @object
	.size	_TIG_iO_tEfO_1___uint32_identity_1_opaque_list_1, 8
_TIG_iO_tEfO_1___uint32_identity_1_opaque_list_1:
	.zero	8
	.globl	_TIG_iO_tEfO_1___uint16_identity_1_opaque_list_2
	.align 8
	.type	_TIG_iO_tEfO_1___uint16_identity_1_opaque_list_2, @object
	.size	_TIG_iO_tEfO_1___uint16_identity_1_opaque_list_2, 8
_TIG_iO_tEfO_1___uint16_identity_1_opaque_list_2:
	.zero	8
	.globl	_TIG_iO_tEfO_1___bswap_32_1_opaque_ptr_1
	.align 8
	.type	_TIG_iO_tEfO_1___bswap_32_1_opaque_ptr_1, @object
	.size	_TIG_iO_tEfO_1___bswap_32_1_opaque_ptr_1, 8
_TIG_iO_tEfO_1___bswap_32_1_opaque_ptr_1:
	.zero	8
	.globl	_TIG_iO_tEfO_1_usage_1_opaque_list_2
	.align 8
	.type	_TIG_iO_tEfO_1_usage_1_opaque_list_2, @object
	.size	_TIG_iO_tEfO_1_usage_1_opaque_list_2, 8
_TIG_iO_tEfO_1_usage_1_opaque_list_2:
	.zero	8
	.globl	_TIG_iO_tEfO_1___bswap_16_1_opaque_ptr_1
	.align 8
	.type	_TIG_iO_tEfO_1___bswap_16_1_opaque_ptr_1, @object
	.size	_TIG_iO_tEfO_1___bswap_16_1_opaque_ptr_1, 8
_TIG_iO_tEfO_1___bswap_16_1_opaque_ptr_1:
	.zero	8
	.globl	_TIG_iO_tEfO_1___uint16_identity_1_opaque_ptr_1
	.align 8
	.type	_TIG_iO_tEfO_1___uint16_identity_1_opaque_ptr_1, @object
	.size	_TIG_iO_tEfO_1___uint16_identity_1_opaque_ptr_1, 8
_TIG_iO_tEfO_1___uint16_identity_1_opaque_ptr_1:
	.zero	8
	.globl	_TIG_iO_tEfO_1___bswap_64_1_opaque_list_1
	.align 8
	.type	_TIG_iO_tEfO_1___bswap_64_1_opaque_list_1, @object
	.size	_TIG_iO_tEfO_1___bswap_64_1_opaque_list_1, 8
_TIG_iO_tEfO_1___bswap_64_1_opaque_list_1:
	.zero	8
	.globl	_TIG_iO_tEfO_1___bswap_16_1_opaque_list_2
	.align 8
	.type	_TIG_iO_tEfO_1___bswap_16_1_opaque_list_2, @object
	.size	_TIG_iO_tEfO_1___bswap_16_1_opaque_list_2, 8
_TIG_iO_tEfO_1___bswap_16_1_opaque_list_2:
	.zero	8
	.globl	_TIG_iO_tEfO_1___uint16_identity_1_opaque_ptr_2
	.align 8
	.type	_TIG_iO_tEfO_1___uint16_identity_1_opaque_ptr_2, @object
	.size	_TIG_iO_tEfO_1___uint16_identity_1_opaque_ptr_2, 8
_TIG_iO_tEfO_1___uint16_identity_1_opaque_ptr_2:
	.zero	8
	.globl	_TIG_iO_tEfO_1___uint32_identity_1_opaque_ptr_2
	.align 8
	.type	_TIG_iO_tEfO_1___uint32_identity_1_opaque_ptr_2, @object
	.size	_TIG_iO_tEfO_1___uint32_identity_1_opaque_ptr_2, 8
_TIG_iO_tEfO_1___uint32_identity_1_opaque_ptr_2:
	.zero	8
	.globl	_TIG_iO_tEfO_1_next_i_1_opaque_ptr_2
	.align 8
	.type	_TIG_iO_tEfO_1_next_i_1_opaque_ptr_2, @object
	.size	_TIG_iO_tEfO_1_next_i_1_opaque_ptr_2, 8
_TIG_iO_tEfO_1_next_i_1_opaque_ptr_2:
	.zero	8
	.globl	rand_primes
	.align 32
	.type	rand_primes, @object
	.size	rand_primes, 100
rand_primes:
	.zero	100
	.globl	_TIG_iO_tEfO_1___bswap_64_1_opaque_ptr_1
	.align 8
	.type	_TIG_iO_tEfO_1___bswap_64_1_opaque_ptr_1, @object
	.size	_TIG_iO_tEfO_1___bswap_64_1_opaque_ptr_1, 8
_TIG_iO_tEfO_1___bswap_64_1_opaque_ptr_1:
	.zero	8
	.globl	_TIG_IZ_tEfO_argv
	.align 8
	.type	_TIG_IZ_tEfO_argv, @object
	.size	_TIG_IZ_tEfO_argv, 8
_TIG_IZ_tEfO_argv:
	.zero	8
	.globl	_TIG_iO_tEfO_1_next_f_1_opaque_list_2
	.align 8
	.type	_TIG_iO_tEfO_1_next_f_1_opaque_list_2, @object
	.size	_TIG_iO_tEfO_1_next_f_1_opaque_list_2, 8
_TIG_iO_tEfO_1_next_f_1_opaque_list_2:
	.zero	8
	.globl	_TIG_iO_tEfO_1_main_1_opaque_list_2
	.align 8
	.type	_TIG_iO_tEfO_1_main_1_opaque_list_2, @object
	.size	_TIG_iO_tEfO_1_main_1_opaque_list_2, 8
_TIG_iO_tEfO_1_main_1_opaque_list_2:
	.zero	8
	.globl	_TIG_iO_tEfO_1___bswap_32_1_opaque_list_2
	.align 8
	.type	_TIG_iO_tEfO_1___bswap_32_1_opaque_list_2, @object
	.size	_TIG_iO_tEfO_1___bswap_32_1_opaque_list_2, 8
_TIG_iO_tEfO_1___bswap_32_1_opaque_list_2:
	.zero	8
	.globl	_TIG_iO_tEfO_1___uint32_identity_1_opaque_list_2
	.align 8
	.type	_TIG_iO_tEfO_1___uint32_identity_1_opaque_list_2, @object
	.size	_TIG_iO_tEfO_1___uint32_identity_1_opaque_list_2, 8
_TIG_iO_tEfO_1___uint32_identity_1_opaque_list_2:
	.zero	8
	.globl	_TIG_iO_tEfO_1_gsc_set_frame_size_1_opaque_ptr_2
	.align 8
	.type	_TIG_iO_tEfO_1_gsc_set_frame_size_1_opaque_ptr_2, @object
	.size	_TIG_iO_tEfO_1_gsc_set_frame_size_1_opaque_ptr_2, 8
_TIG_iO_tEfO_1_gsc_set_frame_size_1_opaque_ptr_2:
	.zero	8
	.globl	_TIG_IZ_tEfO_argc
	.align 4
	.type	_TIG_IZ_tEfO_argc, @object
	.size	_TIG_IZ_tEfO_argc, 4
_TIG_IZ_tEfO_argc:
	.zero	4
	.globl	_TIG_iO_tEfO_1_usage_1_opaque_ptr_2
	.align 8
	.type	_TIG_iO_tEfO_1_usage_1_opaque_ptr_2, @object
	.size	_TIG_iO_tEfO_1_usage_1_opaque_ptr_2, 8
_TIG_iO_tEfO_1_usage_1_opaque_ptr_2:
	.zero	8
	.globl	_TIG_iO_tEfO_1___uint64_identity_1_opaque_list_1
	.align 8
	.type	_TIG_iO_tEfO_1___uint64_identity_1_opaque_list_1, @object
	.size	_TIG_iO_tEfO_1___uint64_identity_1_opaque_list_1, 8
_TIG_iO_tEfO_1___uint64_identity_1_opaque_list_1:
	.zero	8
	.globl	_TIG_iO_tEfO_1_next_i_1_opaque_list_2
	.align 8
	.type	_TIG_iO_tEfO_1_next_i_1_opaque_list_2, @object
	.size	_TIG_iO_tEfO_1_next_i_1_opaque_list_2, 8
_TIG_iO_tEfO_1_next_i_1_opaque_list_2:
	.zero	8
	.globl	_TIG_iO_tEfO_1___bswap_64_1_opaque_list_2
	.align 8
	.type	_TIG_iO_tEfO_1___bswap_64_1_opaque_list_2, @object
	.size	_TIG_iO_tEfO_1___bswap_64_1_opaque_list_2, 8
_TIG_iO_tEfO_1___bswap_64_1_opaque_list_2:
	.zero	8
	.globl	_TIG_iO_tEfO_1___uint64_identity_1_opaque_ptr_1
	.align 8
	.type	_TIG_iO_tEfO_1___uint64_identity_1_opaque_ptr_1, @object
	.size	_TIG_iO_tEfO_1___uint64_identity_1_opaque_ptr_1, 8
_TIG_iO_tEfO_1___uint64_identity_1_opaque_ptr_1:
	.zero	8
	.globl	_TIG_iO_tEfO_1___uint16_identity_1_opaque_list_1
	.align 8
	.type	_TIG_iO_tEfO_1___uint16_identity_1_opaque_list_1, @object
	.size	_TIG_iO_tEfO_1___uint16_identity_1_opaque_list_1, 8
_TIG_iO_tEfO_1___uint16_identity_1_opaque_list_1:
	.zero	8
	.globl	_TIG_iO_tEfO_1___uint64_identity_1_opaque_ptr_2
	.align 8
	.type	_TIG_iO_tEfO_1___uint64_identity_1_opaque_ptr_2, @object
	.size	_TIG_iO_tEfO_1___uint64_identity_1_opaque_ptr_2, 8
_TIG_iO_tEfO_1___uint64_identity_1_opaque_ptr_2:
	.zero	8
	.globl	_TIG_iO_tEfO_1_gsc_set_frame_size_1_opaque_list_2
	.align 8
	.type	_TIG_iO_tEfO_1_gsc_set_frame_size_1_opaque_list_2, @object
	.size	_TIG_iO_tEfO_1_gsc_set_frame_size_1_opaque_list_2, 8
_TIG_iO_tEfO_1_gsc_set_frame_size_1_opaque_list_2:
	.zero	8
	.globl	_TIG_iO_tEfO_1_next_i_1_opaque_list_1
	.align 8
	.type	_TIG_iO_tEfO_1_next_i_1_opaque_list_1, @object
	.size	_TIG_iO_tEfO_1_next_i_1_opaque_list_1, 8
_TIG_iO_tEfO_1_next_i_1_opaque_list_1:
	.zero	8
	.globl	_TIG_iO_tEfO_1___uint32_identity_1_opaque_ptr_1
	.align 8
	.type	_TIG_iO_tEfO_1___uint32_identity_1_opaque_ptr_1, @object
	.size	_TIG_iO_tEfO_1___uint32_identity_1_opaque_ptr_1, 8
_TIG_iO_tEfO_1___uint32_identity_1_opaque_ptr_1:
	.zero	8
	.globl	_TIG_iO_tEfO_1___uint64_identity_1_opaque_list_2
	.align 8
	.type	_TIG_iO_tEfO_1___uint64_identity_1_opaque_list_2, @object
	.size	_TIG_iO_tEfO_1___uint64_identity_1_opaque_list_2, 8
_TIG_iO_tEfO_1___uint64_identity_1_opaque_list_2:
	.zero	8
	.globl	_TIG_iO_tEfO_1___bswap_16_1_opaque_list_1
	.align 8
	.type	_TIG_iO_tEfO_1___bswap_16_1_opaque_list_1, @object
	.size	_TIG_iO_tEfO_1___bswap_16_1_opaque_list_1, 8
_TIG_iO_tEfO_1___bswap_16_1_opaque_list_1:
	.zero	8
	.globl	_TIG_iO_tEfO_1___bswap_16_1_opaque_ptr_2
	.align 8
	.type	_TIG_iO_tEfO_1___bswap_16_1_opaque_ptr_2, @object
	.size	_TIG_iO_tEfO_1___bswap_16_1_opaque_ptr_2, 8
_TIG_iO_tEfO_1___bswap_16_1_opaque_ptr_2:
	.zero	8
	.globl	_TIG_iO_tEfO_1_next_f_1_opaque_ptr_1
	.align 8
	.type	_TIG_iO_tEfO_1_next_f_1_opaque_ptr_1, @object
	.size	_TIG_iO_tEfO_1_next_f_1_opaque_ptr_1, 8
_TIG_iO_tEfO_1_next_f_1_opaque_ptr_1:
	.zero	8
	.globl	_TIG_iO_tEfO_1_usage_1_opaque_ptr_1
	.align 8
	.type	_TIG_iO_tEfO_1_usage_1_opaque_ptr_1, @object
	.size	_TIG_iO_tEfO_1_usage_1_opaque_ptr_1, 8
_TIG_iO_tEfO_1_usage_1_opaque_ptr_1:
	.zero	8
	.globl	_TIG_iO_tEfO_1_gsc_set_frame_size_1_opaque_list_1
	.align 8
	.type	_TIG_iO_tEfO_1_gsc_set_frame_size_1_opaque_list_1, @object
	.size	_TIG_iO_tEfO_1_gsc_set_frame_size_1_opaque_list_1, 8
_TIG_iO_tEfO_1_gsc_set_frame_size_1_opaque_list_1:
	.zero	8
	.globl	_TIG_iO_tEfO_1_usage_1_opaque_list_1
	.align 8
	.type	_TIG_iO_tEfO_1_usage_1_opaque_list_1, @object
	.size	_TIG_iO_tEfO_1_usage_1_opaque_list_1, 8
_TIG_iO_tEfO_1_usage_1_opaque_list_1:
	.zero	8
	.globl	_TIG_iO_tEfO_1___bswap_32_1_opaque_ptr_2
	.align 8
	.type	_TIG_iO_tEfO_1___bswap_32_1_opaque_ptr_2, @object
	.size	_TIG_iO_tEfO_1___bswap_32_1_opaque_ptr_2, 8
_TIG_iO_tEfO_1___bswap_32_1_opaque_ptr_2:
	.zero	8
	.globl	_TIG_iO_tEfO_1___bswap_32_1_opaque_list_1
	.align 8
	.type	_TIG_iO_tEfO_1___bswap_32_1_opaque_list_1, @object
	.size	_TIG_iO_tEfO_1___bswap_32_1_opaque_list_1, 8
_TIG_iO_tEfO_1___bswap_32_1_opaque_list_1:
	.zero	8
	.text
	.globl	gsc_set_frame_size
	.type	gsc_set_frame_size, @function
gsc_set_frame_size:
.LFB0:
	.cfi_startproc
	endbr64
	pushq	%rbp
	.cfi_def_cfa_offset 16
	.cfi_offset 6, -16
	movq	%rsp, %rbp
	.cfi_def_cfa_register 6
	subq	$80, %rsp
	movq	%rdi, -72(%rbp)
	movl	%esi, -76(%rbp)
	movl	%edx, -80(%rbp)
#APP
# 80 "/usr/include/stdlib.h" 1
	##_ANNOTATION_INITIALREGION_-TIG-iO-tEfO-1-gsc-set-frame-size--14
# 0 "" 2
# 84 "/usr/include/stdlib.h" 1
	##_ANNOTATION_ATOMICREGION_-TIG-iO-tEfO-1-gsc-set-frame-size--13
# 0 "" 2
#NO_APP
	movl	$24, %edi
	call	malloc@PLT
	movq	%rax, -40(%rbp)
	movq	-40(%rbp), %rax
	movq	-40(%rbp), %rdx
	movq	%rdx, (%rax)
	movq	-40(%rbp), %rax
	movq	-40(%rbp), %rdx
	movq	%rdx, 8(%rax)
	movq	-40(%rbp), %rax
	movq	%rax, _TIG_iO_tEfO_1_gsc_set_frame_size_1_opaque_list_1(%rip)
	call	rand@PLT
	movl	%eax, -56(%rbp)
	movl	$24, %edi
	call	malloc@PLT
	movq	%rax, -32(%rbp)
	movq	-32(%rbp), %rax
	movl	$0, 16(%rax)
	movq	_TIG_iO_tEfO_1_gsc_set_frame_size_1_opaque_list_1(%rip), %rax
	movq	(%rax), %rdx
	movq	-32(%rbp), %rax
	movq	%rdx, (%rax)
	movq	_TIG_iO_tEfO_1_gsc_set_frame_size_1_opaque_list_1(%rip), %rdx
	movq	-32(%rbp), %rax
	movq	%rdx, 8(%rax)
	movq	_TIG_iO_tEfO_1_gsc_set_frame_size_1_opaque_list_1(%rip), %rax
	movq	(%rax), %rax
	movq	-32(%rbp), %rdx
	movq	%rdx, 8(%rax)
	movq	_TIG_iO_tEfO_1_gsc_set_frame_size_1_opaque_list_1(%rip), %rax
	movq	-32(%rbp), %rdx
	movq	%rdx, (%rax)
	call	rand@PLT
	movl	%eax, -52(%rbp)
	movl	$24, %edi
	call	malloc@PLT
	movq	%rax, -24(%rbp)
	movq	-24(%rbp), %rax
	movl	-52(%rbp), %edx
	movl	%edx, 16(%rax)
	movq	_TIG_iO_tEfO_1_gsc_set_frame_size_1_opaque_list_1(%rip), %rax
	movq	(%rax), %rdx
	movq	-24(%rbp), %rax
	movq	%rdx, (%rax)
	movq	_TIG_iO_tEfO_1_gsc_set_frame_size_1_opaque_list_1(%rip), %rdx
	movq	-24(%rbp), %rax
	movq	%rdx, 8(%rax)
	movq	_TIG_iO_tEfO_1_gsc_set_frame_size_1_opaque_list_1(%rip), %rax
	movq	(%rax), %rax
	movq	-24(%rbp), %rdx
	movq	%rdx, 8(%rax)
	movq	_TIG_iO_tEfO_1_gsc_set_frame_size_1_opaque_list_1(%rip), %rax
	movq	-24(%rbp), %rdx
	movq	%rdx, (%rax)
	call	rand@PLT
	movl	%eax, -48(%rbp)
	movl	$24, %edi
	call	malloc@PLT
	movq	%rax, -16(%rbp)
	movl	-48(%rbp), %eax
	leal	(%rax,%rax), %edx
	movq	-16(%rbp), %rax
	movl	%edx, 16(%rax)
	movq	_TIG_iO_tEfO_1_gsc_set_frame_size_1_opaque_list_1(%rip), %rax
	movq	(%rax), %rdx
	movq	-16(%rbp), %rax
	movq	%rdx, (%rax)
	movq	_TIG_iO_tEfO_1_gsc_set_frame_size_1_opaque_list_1(%rip), %rdx
	movq	-16(%rbp), %rax
	movq	%rdx, 8(%rax)
	movq	_TIG_iO_tEfO_1_gsc_set_frame_size_1_opaque_list_1(%rip), %rax
	movq	(%rax), %rax
	movq	-16(%rbp), %rdx
	movq	%rdx, 8(%rax)
	movq	_TIG_iO_tEfO_1_gsc_set_frame_size_1_opaque_list_1(%rip), %rax
	movq	-16(%rbp), %rdx
	movq	%rdx, (%rax)
	call	rand@PLT
	movl	%eax, -44(%rbp)
	movl	$24, %edi
	call	malloc@PLT
	movq	%rax, -8(%rbp)
	movl	-44(%rbp), %edx
	movl	%edx, %eax
	addl	%eax, %eax
	addl	%eax, %edx
	movq	-8(%rbp), %rax
	movl	%edx, 16(%rax)
	movq	_TIG_iO_tEfO_1_gsc_set_frame_size_1_opaque_list_1(%rip), %rax
	movq	(%rax), %rdx
	movq	-8(%rbp), %rax
	movq	%rdx, (%rax)
	movq	_TIG_iO_tEfO_1_gsc_set_frame_size_1_opaque_list_1(%rip), %rdx
	movq	-8(%rbp), %rax
	movq	%rdx, 8(%rax)
	movq	_TIG_iO_tEfO_1_gsc_set_frame_size_1_opaque_list_1(%rip), %rax
	movq	(%rax), %rax
	movq	-8(%rbp), %rdx
	movq	%rdx, 8(%rax)
	movq	_TIG_iO_tEfO_1_gsc_set_frame_size_1_opaque_list_1(%rip), %rax
	movq	-8(%rbp), %rdx
	movq	%rdx, (%rax)
	movq	_TIG_iO_tEfO_1_gsc_set_frame_size_1_opaque_list_1(%rip), %rax
	movq	(%rax), %rax
	movq	%rax, _TIG_iO_tEfO_1_gsc_set_frame_size_1_opaque_ptr_1(%rip)
	movq	_TIG_iO_tEfO_1_gsc_set_frame_size_1_opaque_ptr_1(%rip), %rax
	movq	%rax, _TIG_iO_tEfO_1_gsc_set_frame_size_1_opaque_ptr_2(%rip)
	movq	_TIG_iO_tEfO_1_gsc_set_frame_size_1_opaque_ptr_2(%rip), %rax
	movq	(%rax), %rax
	movq	%rax, _TIG_iO_tEfO_1_gsc_set_frame_size_1_opaque_ptr_2(%rip)
	nop
	nop
	movq	_TIG_iO_tEfO_1_usage_1_opaque_ptr_1(%rip), %rdx
	movq	_TIG_iO_tEfO_1_usage_1_opaque_ptr_2(%rip), %rax
	cmpq	%rax, %rdx
	je	.L4
	movq	-72(%rbp), %rax
	movl	-76(%rbp), %edx
	movl	%edx, (%rax)
	movq	-72(%rbp), %rax
	movl	-80(%rbp), %edx
	movl	%edx, 4(%rax)
	movq	-72(%rbp), %rax
	movl	-76(%rbp), %edx
	movl	%edx, 8(%rax)
	movq	-72(%rbp), %rax
	movl	-80(%rbp), %edx
	movl	%edx, 12(%rax)
	movq	-72(%rbp), %rax
	movq	$0, 24(%rax)
	movq	-72(%rbp), %rax
	movq	$0, 16(%rax)
	nop
.L4:
	nop
	leave
	.cfi_def_cfa 7, 8
	ret
	.cfi_endproc
.LFE0:
	.size	gsc_set_frame_size, .-gsc_set_frame_size
	.globl	main
	.type	main, @function
main:
.LFB2:
	.cfi_startproc
	endbr64
	pushq	%rbp
	.cfi_def_cfa_offset 16
	.cfi_offset 6, -16
	movq	%rsp, %rbp
	.cfi_def_cfa_register 6
	subq	$416, %rsp
	movl	%edi, -388(%rbp)
	movq	%rsi, -400(%rbp)
	movq	%rdx, -408(%rbp)
	movl	$179, rand_primes(%rip)
	movl	$103, 4+rand_primes(%rip)
	movl	$479, 8+rand_primes(%rip)
	movl	$647, 12+rand_primes(%rip)
	movl	$229, 16+rand_primes(%rip)
	movl	$37, 20+rand_primes(%rip)
	movl	$271, 24+rand_primes(%rip)
	movl	$557, 28+rand_primes(%rip)
	movl	$263, 32+rand_primes(%rip)
	movl	$607, 36+rand_primes(%rip)
	movl	$18743, 40+rand_primes(%rip)
	movl	$50359, 44+rand_primes(%rip)
	movl	$21929, 48+rand_primes(%rip)
	movl	$48757, 52+rand_primes(%rip)
	movl	$98179, 56+rand_primes(%rip)
	movl	$12907, 60+rand_primes(%rip)
	movl	$52937, 64+rand_primes(%rip)
	movl	$64579, 68+rand_primes(%rip)
	movl	$49957, 72+rand_primes(%rip)
	movl	$52567, 76+rand_primes(%rip)
	movl	$507163, 80+rand_primes(%rip)
	movl	$149939, 84+rand_primes(%rip)
	movl	$412157, 88+rand_primes(%rip)
	movl	$680861, 92+rand_primes(%rip)
	movl	$757751, 96+rand_primes(%rip)
	nop
.L6:
	movq	$0, _TIG_IZ_tEfO_envp(%rip)
	nop
.L7:
	movq	$0, _TIG_IZ_tEfO_argv(%rip)
	nop
.L8:
	movl	$0, _TIG_IZ_tEfO_argc(%rip)
	nop
	nop
.L9:
.L10:
#APP
# 197 "/usr/include/x86_64-linux-gnu/bits/uintn-identity.h" 1
	##_ANNOTATION_INITIALREGION_-TIG-IZ-tEfO--0
# 0 "" 2
#NO_APP
	movl	-388(%rbp), %eax
	movl	%eax, _TIG_IZ_tEfO_argc(%rip)
	movq	-400(%rbp), %rax
	movq	%rax, _TIG_IZ_tEfO_argv(%rip)
	movq	-408(%rbp), %rax
	movq	%rax, _TIG_IZ_tEfO_envp(%rip)
#APP
# 204 "/usr/include/x86_64-linux-gnu/bits/uintn-identity.h" 1
	##_ANNOTATION_ATOMICREGION_-TIG-iO-tEfO-1-main--15
# 0 "" 2
#NO_APP
	movl	$24, %edi
	call	malloc@PLT
	movq	%rax, -88(%rbp)
	movq	-88(%rbp), %rax
	movq	-88(%rbp), %rdx
	movq	%rdx, 16(%rax)
	movq	-88(%rbp), %rax
	movq	-88(%rbp), %rdx
	movq	%rdx, 8(%rax)
	movq	-88(%rbp), %rax
	movq	%rax, _TIG_iO_tEfO_1_main_1_opaque_list_1(%rip)
	call	rand@PLT
	movl	%eax, -360(%rbp)
	movl	$24, %edi
	call	malloc@PLT
	movq	%rax, -80(%rbp)
	movq	-80(%rbp), %rax
	movl	$0, (%rax)
	movq	_TIG_iO_tEfO_1_main_1_opaque_list_1(%rip), %rax
	movq	16(%rax), %rdx
	movq	-80(%rbp), %rax
	movq	%rdx, 16(%rax)
	movq	_TIG_iO_tEfO_1_main_1_opaque_list_1(%rip), %rdx
	movq	-80(%rbp), %rax
	movq	%rdx, 8(%rax)
	movq	_TIG_iO_tEfO_1_main_1_opaque_list_1(%rip), %rax
	movq	16(%rax), %rax
	movq	-80(%rbp), %rdx
	movq	%rdx, 8(%rax)
	movq	_TIG_iO_tEfO_1_main_1_opaque_list_1(%rip), %rax
	movq	-80(%rbp), %rdx
	movq	%rdx, 16(%rax)
	call	rand@PLT
	movl	%eax, -356(%rbp)
	movl	$24, %edi
	call	malloc@PLT
	movq	%rax, -72(%rbp)
	movq	-72(%rbp), %rax
	movl	-356(%rbp), %edx
	movl	%edx, (%rax)
	movq	_TIG_iO_tEfO_1_main_1_opaque_list_1(%rip), %rax
	movq	16(%rax), %rdx
	movq	-72(%rbp), %rax
	movq	%rdx, 16(%rax)
	movq	_TIG_iO_tEfO_1_main_1_opaque_list_1(%rip), %rdx
	movq	-72(%rbp), %rax
	movq	%rdx, 8(%rax)
	movq	_TIG_iO_tEfO_1_main_1_opaque_list_1(%rip), %rax
	movq	16(%rax), %rax
	movq	-72(%rbp), %rdx
	movq	%rdx, 8(%rax)
	movq	_TIG_iO_tEfO_1_main_1_opaque_list_1(%rip), %rax
	movq	-72(%rbp), %rdx
	movq	%rdx, 16(%rax)
	movq	_TIG_iO_tEfO_1_main_1_opaque_list_1(%rip), %rax
	movq	16(%rax), %rax
	movq	%rax, _TIG_iO_tEfO_1_main_1_opaque_ptr_1(%rip)
	movq	_TIG_iO_tEfO_1_main_1_opaque_ptr_1(%rip), %rax
	movq	%rax, _TIG_iO_tEfO_1_main_1_opaque_ptr_2(%rip)
	nop
	nop
	cmpl	$2, -388(%rbp)
	je	.L11
	call	usage
	movl	$1, %eax
	jmp	.L12
.L11:
	movq	-400(%rbp), %rax
	addq	$8, %rax
	movq	(%rax), %rax
	movq	%rax, %rdi
	call	atoi@PLT
	movl	%eax, -352(%rbp)
	movl	-352(%rbp), %eax
	movl	%eax, -348(%rbp)
	cmpl	$3, -348(%rbp)
	je	.L13
	cmpl	$3, -348(%rbp)
	jg	.L14
	cmpl	$2, -348(%rbp)
	je	.L15
	cmpl	$2, -348(%rbp)
	jg	.L14
	cmpl	$0, -348(%rbp)
	je	.L16
	cmpl	$1, -348(%rbp)
	je	.L17
	jmp	.L14
.L16:
	movl	$100, -148(%rbp)
	movl	$100, -144(%rbp)
	movl	$1, -140(%rbp)
	movl	-140(%rbp), %eax
	cltq
	salq	$5, %rax
	movq	%rax, %rdi
	call	malloc@PLT
	movq	%rax, -16(%rbp)
	movq	-16(%rbp), %rax
	movq	%rax, -8(%rbp)
	movl	$0, -376(%rbp)
	jmp	.L18
.L19:
	call	next_i
	movl	%eax, -136(%rbp)
	call	next_i
	movl	%eax, -132(%rbp)
	movl	-136(%rbp), %eax
	cltd
	shrl	$31, %edx
	addl	%edx, %eax
	andl	$1, %eax
	subl	%edx, %eax
	movl	%eax, %edx
	movl	$0, %eax
	subl	%edx, %eax
	addl	%eax, %eax
	addl	$1, %eax
	movl	-376(%rbp), %edx
	movslq	%edx, %rdx
	movq	%rdx, %rcx
	salq	$5, %rcx
	movq	-8(%rbp), %rdx
	addq	%rcx, %rdx
	imull	-132(%rbp), %eax
	movl	%eax, (%rdx)
	call	next_i
	movl	%eax, -128(%rbp)
	call	next_i
	movl	%eax, -124(%rbp)
	movl	-128(%rbp), %eax
	cltd
	shrl	$31, %edx
	addl	%edx, %eax
	andl	$1, %eax
	subl	%edx, %eax
	movl	%eax, %edx
	movl	$0, %eax
	subl	%edx, %eax
	addl	%eax, %eax
	addl	$1, %eax
	movl	-376(%rbp), %edx
	movslq	%edx, %rdx
	movq	%rdx, %rcx
	salq	$5, %rcx
	movq	-8(%rbp), %rdx
	addq	%rcx, %rdx
	imull	-124(%rbp), %eax
	movl	%eax, 4(%rdx)
	call	next_i
	movl	%eax, -120(%rbp)
	call	next_i
	movl	%eax, -116(%rbp)
	movl	-120(%rbp), %eax
	cltd
	shrl	$31, %edx
	addl	%edx, %eax
	andl	$1, %eax
	subl	%edx, %eax
	movl	%eax, %edx
	movl	$0, %eax
	subl	%edx, %eax
	addl	%eax, %eax
	addl	$1, %eax
	movl	-376(%rbp), %edx
	movslq	%edx, %rdx
	movq	%rdx, %rcx
	salq	$5, %rcx
	movq	-8(%rbp), %rdx
	addq	%rcx, %rdx
	imull	-116(%rbp), %eax
	movl	%eax, 8(%rdx)
	call	next_i
	movl	%eax, -112(%rbp)
	call	next_i
	movl	%eax, -108(%rbp)
	movl	-112(%rbp), %eax
	cltd
	shrl	$31, %edx
	addl	%edx, %eax
	andl	$1, %eax
	subl	%edx, %eax
	movl	%eax, %edx
	movl	$0, %eax
	subl	%edx, %eax
	addl	%eax, %eax
	addl	$1, %eax
	movl	-376(%rbp), %edx
	movslq	%edx, %rdx
	movq	%rdx, %rcx
	salq	$5, %rcx
	movq	-8(%rbp), %rdx
	addq	%rcx, %rdx
	imull	-108(%rbp), %eax
	movl	%eax, 12(%rdx)
	call	next_i
	movl	%eax, -104(%rbp)
	call	next_i
	movl	%eax, -100(%rbp)
	movl	-104(%rbp), %eax
	cltd
	shrl	$31, %edx
	addl	%edx, %eax
	andl	$1, %eax
	subl	%edx, %eax
	movl	%eax, %edx
	movl	$0, %eax
	subl	%edx, %eax
	addl	%eax, %eax
	addl	$1, %eax
	imull	-100(%rbp), %eax
	movl	-376(%rbp), %edx
	movslq	%edx, %rdx
	movq	%rdx, %rcx
	salq	$5, %rcx
	movq	-8(%rbp), %rdx
	addq	%rcx, %rdx
	cltq
	movq	%rax, 16(%rdx)
	call	next_i
	movl	%eax, -96(%rbp)
	call	next_i
	movl	%eax, -92(%rbp)
	movl	-96(%rbp), %eax
	cltd
	shrl	$31, %edx
	addl	%edx, %eax
	andl	$1, %eax
	subl	%edx, %eax
	movl	%eax, %edx
	movl	$0, %eax
	subl	%edx, %eax
	addl	%eax, %eax
	addl	$1, %eax
	imull	-92(%rbp), %eax
	movl	-376(%rbp), %edx
	movslq	%edx, %rdx
	movq	%rdx, %rcx
	salq	$5, %rcx
	movq	-8(%rbp), %rdx
	addq	%rcx, %rdx
	cltq
	movq	%rax, 24(%rdx)
	addl	$1, -376(%rbp)
.L18:
	movl	-376(%rbp), %eax
	cmpl	-140(%rbp), %eax
	jl	.L19
	movl	-144(%rbp), %edx
	movl	-148(%rbp), %ecx
	movq	-8(%rbp), %rax
	movl	%ecx, %esi
	movq	%rax, %rdi
	call	gsc_set_frame_size
	movq	-8(%rbp), %rax
	movq	%rax, %rdi
	call	free@PLT
	jmp	.L20
.L17:
	movl	$255, -208(%rbp)
	movl	$255, -204(%rbp)
	movl	$65025, -200(%rbp)
	movl	-200(%rbp), %eax
	cltq
	salq	$5, %rax
	movq	%rax, %rdi
	call	malloc@PLT
	movq	%rax, -32(%rbp)
	movq	-32(%rbp), %rax
	movq	%rax, -24(%rbp)
	movl	$0, -372(%rbp)
	jmp	.L21
.L22:
	call	next_i
	movl	%eax, -196(%rbp)
	call	next_i
	movl	%eax, -192(%rbp)
	movl	-196(%rbp), %eax
	cltd
	shrl	$31, %edx
	addl	%edx, %eax
	andl	$1, %eax
	subl	%edx, %eax
	movl	%eax, %edx
	movl	$0, %eax
	subl	%edx, %eax
	addl	%eax, %eax
	addl	$1, %eax
	movl	-372(%rbp), %edx
	movslq	%edx, %rdx
	movq	%rdx, %rcx
	salq	$5, %rcx
	movq	-24(%rbp), %rdx
	addq	%rcx, %rdx
	imull	-192(%rbp), %eax
	movl	%eax, (%rdx)
	call	next_i
	movl	%eax, -188(%rbp)
	call	next_i
	movl	%eax, -184(%rbp)
	movl	-188(%rbp), %eax
	cltd
	shrl	$31, %edx
	addl	%edx, %eax
	andl	$1, %eax
	subl	%edx, %eax
	movl	%eax, %edx
	movl	$0, %eax
	subl	%edx, %eax
	addl	%eax, %eax
	addl	$1, %eax
	movl	-372(%rbp), %edx
	movslq	%edx, %rdx
	movq	%rdx, %rcx
	salq	$5, %rcx
	movq	-24(%rbp), %rdx
	addq	%rcx, %rdx
	imull	-184(%rbp), %eax
	movl	%eax, 4(%rdx)
	call	next_i
	movl	%eax, -180(%rbp)
	call	next_i
	movl	%eax, -176(%rbp)
	movl	-180(%rbp), %eax
	cltd
	shrl	$31, %edx
	addl	%edx, %eax
	andl	$1, %eax
	subl	%edx, %eax
	movl	%eax, %edx
	movl	$0, %eax
	subl	%edx, %eax
	addl	%eax, %eax
	addl	$1, %eax
	movl	-372(%rbp), %edx
	movslq	%edx, %rdx
	movq	%rdx, %rcx
	salq	$5, %rcx
	movq	-24(%rbp), %rdx
	addq	%rcx, %rdx
	imull	-176(%rbp), %eax
	movl	%eax, 8(%rdx)
	call	next_i
	movl	%eax, -172(%rbp)
	call	next_i
	movl	%eax, -168(%rbp)
	movl	-172(%rbp), %eax
	cltd
	shrl	$31, %edx
	addl	%edx, %eax
	andl	$1, %eax
	subl	%edx, %eax
	movl	%eax, %edx
	movl	$0, %eax
	subl	%edx, %eax
	addl	%eax, %eax
	addl	$1, %eax
	movl	-372(%rbp), %edx
	movslq	%edx, %rdx
	movq	%rdx, %rcx
	salq	$5, %rcx
	movq	-24(%rbp), %rdx
	addq	%rcx, %rdx
	imull	-168(%rbp), %eax
	movl	%eax, 12(%rdx)
	call	next_i
	movl	%eax, -164(%rbp)
	call	next_i
	movl	%eax, -160(%rbp)
	movl	-164(%rbp), %eax
	cltd
	shrl	$31, %edx
	addl	%edx, %eax
	andl	$1, %eax
	subl	%edx, %eax
	movl	%eax, %edx
	movl	$0, %eax
	subl	%edx, %eax
	addl	%eax, %eax
	addl	$1, %eax
	imull	-160(%rbp), %eax
	movl	-372(%rbp), %edx
	movslq	%edx, %rdx
	movq	%rdx, %rcx
	salq	$5, %rcx
	movq	-24(%rbp), %rdx
	addq	%rcx, %rdx
	cltq
	movq	%rax, 16(%rdx)
	call	next_i
	movl	%eax, -156(%rbp)
	call	next_i
	movl	%eax, -152(%rbp)
	movl	-156(%rbp), %eax
	cltd
	shrl	$31, %edx
	addl	%edx, %eax
	andl	$1, %eax
	subl	%edx, %eax
	movl	%eax, %edx
	movl	$0, %eax
	subl	%edx, %eax
	addl	%eax, %eax
	addl	$1, %eax
	imull	-152(%rbp), %eax
	movl	-372(%rbp), %edx
	movslq	%edx, %rdx
	movq	%rdx, %rcx
	salq	$5, %rcx
	movq	-24(%rbp), %rdx
	addq	%rcx, %rdx
	cltq
	movq	%rax, 24(%rdx)
	addl	$1, -372(%rbp)
.L21:
	movl	-372(%rbp), %eax
	cmpl	-200(%rbp), %eax
	jl	.L22
	movl	-204(%rbp), %edx
	movl	-208(%rbp), %ecx
	movq	-24(%rbp), %rax
	movl	%ecx, %esi
	movq	%rax, %rdi
	call	gsc_set_frame_size
	movq	-24(%rbp), %rax
	movq	%rax, %rdi
	call	free@PLT
	jmp	.L20
.L15:
	movl	$10, -268(%rbp)
	movl	$10, -264(%rbp)
	movl	$100, -260(%rbp)
	movl	-260(%rbp), %eax
	cltq
	salq	$5, %rax
	movq	%rax, %rdi
	call	malloc@PLT
	movq	%rax, -48(%rbp)
	movq	-48(%rbp), %rax
	movq	%rax, -40(%rbp)
	movl	$0, -368(%rbp)
	jmp	.L23
.L24:
	call	next_i
	movl	%eax, -256(%rbp)
	call	next_i
	movl	%eax, -252(%rbp)
	movl	-256(%rbp), %eax
	cltd
	shrl	$31, %edx
	addl	%edx, %eax
	andl	$1, %eax
	subl	%edx, %eax
	movl	%eax, %edx
	movl	$0, %eax
	subl	%edx, %eax
	addl	%eax, %eax
	addl	$1, %eax
	movl	-368(%rbp), %edx
	movslq	%edx, %rdx
	movq	%rdx, %rcx
	salq	$5, %rcx
	movq	-40(%rbp), %rdx
	addq	%rcx, %rdx
	imull	-252(%rbp), %eax
	movl	%eax, (%rdx)
	call	next_i
	movl	%eax, -248(%rbp)
	call	next_i
	movl	%eax, -244(%rbp)
	movl	-248(%rbp), %eax
	cltd
	shrl	$31, %edx
	addl	%edx, %eax
	andl	$1, %eax
	subl	%edx, %eax
	movl	%eax, %edx
	movl	$0, %eax
	subl	%edx, %eax
	addl	%eax, %eax
	addl	$1, %eax
	movl	-368(%rbp), %edx
	movslq	%edx, %rdx
	movq	%rdx, %rcx
	salq	$5, %rcx
	movq	-40(%rbp), %rdx
	addq	%rcx, %rdx
	imull	-244(%rbp), %eax
	movl	%eax, 4(%rdx)
	call	next_i
	movl	%eax, -240(%rbp)
	call	next_i
	movl	%eax, -236(%rbp)
	movl	-240(%rbp), %eax
	cltd
	shrl	$31, %edx
	addl	%edx, %eax
	andl	$1, %eax
	subl	%edx, %eax
	movl	%eax, %edx
	movl	$0, %eax
	subl	%edx, %eax
	addl	%eax, %eax
	addl	$1, %eax
	movl	-368(%rbp), %edx
	movslq	%edx, %rdx
	movq	%rdx, %rcx
	salq	$5, %rcx
	movq	-40(%rbp), %rdx
	addq	%rcx, %rdx
	imull	-236(%rbp), %eax
	movl	%eax, 8(%rdx)
	call	next_i
	movl	%eax, -232(%rbp)
	call	next_i
	movl	%eax, -228(%rbp)
	movl	-232(%rbp), %eax
	cltd
	shrl	$31, %edx
	addl	%edx, %eax
	andl	$1, %eax
	subl	%edx, %eax
	movl	%eax, %edx
	movl	$0, %eax
	subl	%edx, %eax
	addl	%eax, %eax
	addl	$1, %eax
	movl	-368(%rbp), %edx
	movslq	%edx, %rdx
	movq	%rdx, %rcx
	salq	$5, %rcx
	movq	-40(%rbp), %rdx
	addq	%rcx, %rdx
	imull	-228(%rbp), %eax
	movl	%eax, 12(%rdx)
	call	next_i
	movl	%eax, -224(%rbp)
	call	next_i
	movl	%eax, -220(%rbp)
	movl	-224(%rbp), %eax
	cltd
	shrl	$31, %edx
	addl	%edx, %eax
	andl	$1, %eax
	subl	%edx, %eax
	movl	%eax, %edx
	movl	$0, %eax
	subl	%edx, %eax
	addl	%eax, %eax
	addl	$1, %eax
	imull	-220(%rbp), %eax
	movl	-368(%rbp), %edx
	movslq	%edx, %rdx
	movq	%rdx, %rcx
	salq	$5, %rcx
	movq	-40(%rbp), %rdx
	addq	%rcx, %rdx
	cltq
	movq	%rax, 16(%rdx)
	call	next_i
	movl	%eax, -216(%rbp)
	call	next_i
	movl	%eax, -212(%rbp)
	movl	-216(%rbp), %eax
	cltd
	shrl	$31, %edx
	addl	%edx, %eax
	andl	$1, %eax
	subl	%edx, %eax
	movl	%eax, %edx
	movl	$0, %eax
	subl	%edx, %eax
	addl	%eax, %eax
	addl	$1, %eax
	imull	-212(%rbp), %eax
	movl	-368(%rbp), %edx
	movslq	%edx, %rdx
	movq	%rdx, %rcx
	salq	$5, %rcx
	movq	-40(%rbp), %rdx
	addq	%rcx, %rdx
	cltq
	movq	%rax, 24(%rdx)
	addl	$1, -368(%rbp)
.L23:
	movl	-368(%rbp), %eax
	cmpl	-260(%rbp), %eax
	jl	.L24
	movl	-264(%rbp), %edx
	movl	-268(%rbp), %ecx
	movq	-40(%rbp), %rax
	movl	%ecx, %esi
	movq	%rax, %rdi
	call	gsc_set_frame_size
	movq	-40(%rbp), %rax
	movq	%rax, %rdi
	call	free@PLT
	jmp	.L20
.L13:
	call	next_i
	movl	%eax, -344(%rbp)
	call	next_i
	movl	%eax, -340(%rbp)
	movl	-344(%rbp), %eax
	cltd
	shrl	$31, %edx
	addl	%edx, %eax
	andl	$1, %eax
	subl	%edx, %eax
	movl	%eax, %edx
	movl	$0, %eax
	subl	%edx, %eax
	addl	%eax, %eax
	leal	1(%rax), %edx
	movl	-340(%rbp), %eax
	imull	%edx, %eax
	movl	%eax, -336(%rbp)
	call	next_i
	movl	%eax, -332(%rbp)
	call	next_i
	movl	%eax, -328(%rbp)
	movl	-332(%rbp), %eax
	cltd
	shrl	$31, %edx
	addl	%edx, %eax
	andl	$1, %eax
	subl	%edx, %eax
	movl	%eax, %edx
	movl	$0, %eax
	subl	%edx, %eax
	addl	%eax, %eax
	leal	1(%rax), %edx
	movl	-328(%rbp), %eax
	imull	%edx, %eax
	movl	%eax, -324(%rbp)
	movl	$1, -320(%rbp)
	movl	-320(%rbp), %eax
	cltq
	salq	$5, %rax
	movq	%rax, %rdi
	call	malloc@PLT
	movq	%rax, -64(%rbp)
	movq	-64(%rbp), %rax
	movq	%rax, -56(%rbp)
	movl	$0, -364(%rbp)
	jmp	.L25
.L26:
	call	next_i
	movl	%eax, -316(%rbp)
	call	next_i
	movl	%eax, -312(%rbp)
	movl	-316(%rbp), %eax
	cltd
	shrl	$31, %edx
	addl	%edx, %eax
	andl	$1, %eax
	subl	%edx, %eax
	movl	%eax, %edx
	movl	$0, %eax
	subl	%edx, %eax
	addl	%eax, %eax
	addl	$1, %eax
	movl	-364(%rbp), %edx
	movslq	%edx, %rdx
	movq	%rdx, %rcx
	salq	$5, %rcx
	movq	-56(%rbp), %rdx
	addq	%rcx, %rdx
	imull	-312(%rbp), %eax
	movl	%eax, (%rdx)
	call	next_i
	movl	%eax, -308(%rbp)
	call	next_i
	movl	%eax, -304(%rbp)
	movl	-308(%rbp), %eax
	cltd
	shrl	$31, %edx
	addl	%edx, %eax
	andl	$1, %eax
	subl	%edx, %eax
	movl	%eax, %edx
	movl	$0, %eax
	subl	%edx, %eax
	addl	%eax, %eax
	addl	$1, %eax
	movl	-364(%rbp), %edx
	movslq	%edx, %rdx
	movq	%rdx, %rcx
	salq	$5, %rcx
	movq	-56(%rbp), %rdx
	addq	%rcx, %rdx
	imull	-304(%rbp), %eax
	movl	%eax, 4(%rdx)
	call	next_i
	movl	%eax, -300(%rbp)
	call	next_i
	movl	%eax, -296(%rbp)
	movl	-300(%rbp), %eax
	cltd
	shrl	$31, %edx
	addl	%edx, %eax
	andl	$1, %eax
	subl	%edx, %eax
	movl	%eax, %edx
	movl	$0, %eax
	subl	%edx, %eax
	addl	%eax, %eax
	addl	$1, %eax
	movl	-364(%rbp), %edx
	movslq	%edx, %rdx
	movq	%rdx, %rcx
	salq	$5, %rcx
	movq	-56(%rbp), %rdx
	addq	%rcx, %rdx
	imull	-296(%rbp), %eax
	movl	%eax, 8(%rdx)
	call	next_i
	movl	%eax, -292(%rbp)
	call	next_i
	movl	%eax, -288(%rbp)
	movl	-292(%rbp), %eax
	cltd
	shrl	$31, %edx
	addl	%edx, %eax
	andl	$1, %eax
	subl	%edx, %eax
	movl	%eax, %edx
	movl	$0, %eax
	subl	%edx, %eax
	addl	%eax, %eax
	addl	$1, %eax
	movl	-364(%rbp), %edx
	movslq	%edx, %rdx
	movq	%rdx, %rcx
	salq	$5, %rcx
	movq	-56(%rbp), %rdx
	addq	%rcx, %rdx
	imull	-288(%rbp), %eax
	movl	%eax, 12(%rdx)
	call	next_i
	movl	%eax, -284(%rbp)
	call	next_i
	movl	%eax, -280(%rbp)
	movl	-284(%rbp), %eax
	cltd
	shrl	$31, %edx
	addl	%edx, %eax
	andl	$1, %eax
	subl	%edx, %eax
	movl	%eax, %edx
	movl	$0, %eax
	subl	%edx, %eax
	addl	%eax, %eax
	addl	$1, %eax
	imull	-280(%rbp), %eax
	movl	-364(%rbp), %edx
	movslq	%edx, %rdx
	movq	%rdx, %rcx
	salq	$5, %rcx
	movq	-56(%rbp), %rdx
	addq	%rcx, %rdx
	cltq
	movq	%rax, 16(%rdx)
	call	next_i
	movl	%eax, -276(%rbp)
	call	next_i
	movl	%eax, -272(%rbp)
	movl	-276(%rbp), %eax
	cltd
	shrl	$31, %edx
	addl	%edx, %eax
	andl	$1, %eax
	subl	%edx, %eax
	movl	%eax, %edx
	movl	$0, %eax
	subl	%edx, %eax
	addl	%eax, %eax
	addl	$1, %eax
	imull	-272(%rbp), %eax
	movl	-364(%rbp), %edx
	movslq	%edx, %rdx
	movq	%rdx, %rcx
	salq	$5, %rcx
	movq	-56(%rbp), %rdx
	addq	%rcx, %rdx
	cltq
	movq	%rax, 24(%rdx)
	addl	$1, -364(%rbp)
.L25:
	movl	-364(%rbp), %eax
	cmpl	-320(%rbp), %eax
	jl	.L26
	movl	-324(%rbp), %edx
	movl	-336(%rbp), %ecx
	movq	-56(%rbp), %rax
	movl	%ecx, %esi
	movq	%rax, %rdi
	call	gsc_set_frame_size
	movq	-56(%rbp), %rax
	movq	%rax, %rdi
	call	free@PLT
	jmp	.L20
.L14:
	call	usage
	movq	_TIG_iO_tEfO_1_usage_1_opaque_ptr_1(%rip), %rdx
	movq	_TIG_iO_tEfO_1_usage_1_opaque_ptr_2(%rip), %rax
	cmpq	%rax, %rdx
	jne	.L28
#APP
# 285 "lac-dcc_jotai-benchmarks_extr_linuxdriversmediaplatformexynos-gscgsc-core.c_gsc_set_frame_size_Final.c" 1
	.byte 0x0,0x48
# 0 "" 2
#NO_APP
	jmp	.L20
.L28:
	nop
.L20:
	movl	$0, %eax
.L12:
	leave
	.cfi_def_cfa 7, 8
	ret
	.cfi_endproc
.LFE2:
	.size	main, .-main
	.section	.rodata
	.align 8
.LC0:
	.string	"Usage:\n    prog [ARGS]\n\nARGS:\n       0            int-bounds\n       1            big-arr\n       2            big-arr-10x\n       3            empty\n"
	.text
	.globl	usage
	.type	usage, @function
usage:
.LFB3:
	.cfi_startproc
	endbr64
	pushq	%rbp
	.cfi_def_cfa_offset 16
	.cfi_offset 6, -16
	movq	%rsp, %rbp
	.cfi_def_cfa_register 6
	subq	$48, %rsp
#APP
# 305 "lac-dcc_jotai-benchmarks_extr_linuxdriversmediaplatformexynos-gscgsc-core.c_gsc_set_frame_size_Final.c" 1
	##_ANNOTATION_INITIALREGION_-TIG-iO-tEfO-1-usage--22
# 0 "" 2
# 309 "lac-dcc_jotai-benchmarks_extr_linuxdriversmediaplatformexynos-gscgsc-core.c_gsc_set_frame_size_Final.c" 1
	##_ANNOTATION_ATOMICREGION_-TIG-iO-tEfO-1-usage--21
# 0 "" 2
#NO_APP
	movl	$24, %edi
	call	malloc@PLT
	movq	%rax, -32(%rbp)
	movq	-32(%rbp), %rax
	movq	-32(%rbp), %rdx
	movq	%rdx, (%rax)
	movq	-32(%rbp), %rax
	movq	-32(%rbp), %rdx
	movq	%rdx, 16(%rax)
	movq	-32(%rbp), %rax
	movq	%rax, _TIG_iO_tEfO_1_usage_1_opaque_list_1(%rip)
	call	rand@PLT
	movl	%eax, -44(%rbp)
	movl	$24, %edi
	call	malloc@PLT
	movq	%rax, -24(%rbp)
	movq	-24(%rbp), %rax
	movl	$0, 8(%rax)
	movq	_TIG_iO_tEfO_1_usage_1_opaque_list_1(%rip), %rax
	movq	(%rax), %rdx
	movq	-24(%rbp), %rax
	movq	%rdx, (%rax)
	movq	_TIG_iO_tEfO_1_usage_1_opaque_list_1(%rip), %rdx
	movq	-24(%rbp), %rax
	movq	%rdx, 16(%rax)
	movq	_TIG_iO_tEfO_1_usage_1_opaque_list_1(%rip), %rax
	movq	(%rax), %rax
	movq	-24(%rbp), %rdx
	movq	%rdx, 16(%rax)
	movq	_TIG_iO_tEfO_1_usage_1_opaque_list_1(%rip), %rax
	movq	-24(%rbp), %rdx
	movq	%rdx, (%rax)
	call	rand@PLT
	movl	%eax, -40(%rbp)
	movl	$24, %edi
	call	malloc@PLT
	movq	%rax, -16(%rbp)
	movq	-16(%rbp), %rax
	movl	-40(%rbp), %edx
	movl	%edx, 8(%rax)
	movq	_TIG_iO_tEfO_1_usage_1_opaque_list_1(%rip), %rax
	movq	(%rax), %rdx
	movq	-16(%rbp), %rax
	movq	%rdx, (%rax)
	movq	_TIG_iO_tEfO_1_usage_1_opaque_list_1(%rip), %rdx
	movq	-16(%rbp), %rax
	movq	%rdx, 16(%rax)
	movq	_TIG_iO_tEfO_1_usage_1_opaque_list_1(%rip), %rax
	movq	(%rax), %rax
	movq	-16(%rbp), %rdx
	movq	%rdx, 16(%rax)
	movq	_TIG_iO_tEfO_1_usage_1_opaque_list_1(%rip), %rax
	movq	-16(%rbp), %rdx
	movq	%rdx, (%rax)
	call	rand@PLT
	movl	%eax, -36(%rbp)
	movl	$24, %edi
	call	malloc@PLT
	movq	%rax, -8(%rbp)
	movl	-36(%rbp), %eax
	leal	(%rax,%rax), %edx
	movq	-8(%rbp), %rax
	movl	%edx, 8(%rax)
	movq	_TIG_iO_tEfO_1_usage_1_opaque_list_1(%rip), %rax
	movq	(%rax), %rdx
	movq	-8(%rbp), %rax
	movq	%rdx, (%rax)
	movq	_TIG_iO_tEfO_1_usage_1_opaque_list_1(%rip), %rdx
	movq	-8(%rbp), %rax
	movq	%rdx, 16(%rax)
	movq	_TIG_iO_tEfO_1_usage_1_opaque_list_1(%rip), %rax
	movq	(%rax), %rax
	movq	-8(%rbp), %rdx
	movq	%rdx, 16(%rax)
	movq	_TIG_iO_tEfO_1_usage_1_opaque_list_1(%rip), %rax
	movq	-8(%rbp), %rdx
	movq	%rdx, (%rax)
	movq	_TIG_iO_tEfO_1_usage_1_opaque_list_1(%rip), %rax
	movq	(%rax), %rax
	movq	%rax, _TIG_iO_tEfO_1_usage_1_opaque_ptr_1(%rip)
	movq	_TIG_iO_tEfO_1_usage_1_opaque_ptr_1(%rip), %rax
	movq	%rax, _TIG_iO_tEfO_1_usage_1_opaque_ptr_2(%rip)
	movq	_TIG_iO_tEfO_1_usage_1_opaque_ptr_2(%rip), %rax
	movq	(%rax), %rax
	movq	%rax, _TIG_iO_tEfO_1_usage_1_opaque_ptr_2(%rip)
	nop
	nop
	leaq	.LC0(%rip), %rax
	movq	%rax, %rdi
	call	puts@PLT
	movq	_TIG_iO_tEfO_1_usage_1_opaque_ptr_1(%rip), %rdx
	movq	_TIG_iO_tEfO_1_usage_1_opaque_ptr_2(%rip), %rax
	cmpq	%rax, %rdx
	jne	.L32
#APP
# 42 "lac-dcc_jotai-benchmarks_extr_linuxdriversmediaplatformexynos-gscgsc-core.c_gsc_set_frame_size_Final.c" 1
	.byte 0x7d
# 0 "" 2
#NO_APP
	jmp	.L29
.L32:
	nop
.L29:
	leave
	.cfi_def_cfa 7, 8
	ret
	.cfi_endproc
.LFE3:
	.size	usage, .-usage
	.globl	next_i
	.type	next_i, @function
next_i:
.LFB8:
	.cfi_startproc
	endbr64
	pushq	%rbp
	.cfi_def_cfa_offset 16
	.cfi_offset 6, -16
	movq	%rsp, %rbp
	.cfi_def_cfa_register 6
	subq	$48, %rsp
#APP
# 54 "/usr/include/x86_64-linux-gnu/bits/byteswap.h" 1
	##_ANNOTATION_INITIALREGION_-TIG-iO-tEfO-1-next-i--20
# 0 "" 2
# 58 "/usr/include/x86_64-linux-gnu/bits/byteswap.h" 1
	##_ANNOTATION_ATOMICREGION_-TIG-iO-tEfO-1-next-i--19
# 0 "" 2
#NO_APP
	movl	$24, %edi
	call	malloc@PLT
	movq	%rax, -24(%rbp)
	movq	-24(%rbp), %rax
	movq	-24(%rbp), %rdx
	movq	%rdx, 8(%rax)
	movq	-24(%rbp), %rax
	movq	-24(%rbp), %rdx
	movq	%rdx, 16(%rax)
	movq	-24(%rbp), %rax
	movq	%rax, _TIG_iO_tEfO_1_next_i_1_opaque_list_1(%rip)
	call	rand@PLT
	movl	%eax, -32(%rbp)
	movl	$24, %edi
	call	malloc@PLT
	movq	%rax, -16(%rbp)
	movq	-16(%rbp), %rax
	movl	$0, (%rax)
	movq	_TIG_iO_tEfO_1_next_i_1_opaque_list_1(%rip), %rax
	movq	8(%rax), %rdx
	movq	-16(%rbp), %rax
	movq	%rdx, 8(%rax)
	movq	_TIG_iO_tEfO_1_next_i_1_opaque_list_1(%rip), %rdx
	movq	-16(%rbp), %rax
	movq	%rdx, 16(%rax)
	movq	_TIG_iO_tEfO_1_next_i_1_opaque_list_1(%rip), %rax
	movq	8(%rax), %rax
	movq	-16(%rbp), %rdx
	movq	%rdx, 16(%rax)
	movq	_TIG_iO_tEfO_1_next_i_1_opaque_list_1(%rip), %rax
	movq	-16(%rbp), %rdx
	movq	%rdx, 8(%rax)
	call	rand@PLT
	movl	%eax, -28(%rbp)
	movl	$24, %edi
	call	malloc@PLT
	movq	%rax, -8(%rbp)
	movq	-8(%rbp), %rax
	movl	-28(%rbp), %edx
	movl	%edx, (%rax)
	movq	_TIG_iO_tEfO_1_next_i_1_opaque_list_1(%rip), %rax
	movq	8(%rax), %rdx
	movq	-8(%rbp), %rax
	movq	%rdx, 8(%rax)
	movq	_TIG_iO_tEfO_1_next_i_1_opaque_list_1(%rip), %rdx
	movq	-8(%rbp), %rax
	movq	%rdx, 16(%rax)
	movq	_TIG_iO_tEfO_1_next_i_1_opaque_list_1(%rip), %rax
	movq	8(%rax), %rax
	movq	-8(%rbp), %rdx
	movq	%rdx, 16(%rax)
	movq	_TIG_iO_tEfO_1_next_i_1_opaque_list_1(%rip), %rax
	movq	-8(%rbp), %rdx
	movq	%rdx, 8(%rax)
	movq	_TIG_iO_tEfO_1_next_i_1_opaque_list_1(%rip), %rax
	movq	8(%rax), %rax
	movq	%rax, _TIG_iO_tEfO_1_next_i_1_opaque_ptr_1(%rip)
	movq	_TIG_iO_tEfO_1_next_i_1_opaque_ptr_1(%rip), %rax
	movq	%rax, _TIG_iO_tEfO_1_next_i_1_opaque_ptr_2(%rip)
	nop
	nop
	movq	_TIG_iO_tEfO_1_usage_1_opaque_ptr_1(%rip), %rdx
	movq	_TIG_iO_tEfO_1_usage_1_opaque_ptr_2(%rip), %rax
	cmpq	%rax, %rdx
	je	.L34
	movl	$0, -36(%rbp)
	addl	$1, -36(%rbp)
	jmp	.L35
.L34:
	movl	$0, -36(%rbp)
	movl	-28(%rbp), %eax
	movl	%eax, -36(%rbp)
.L35:
	movl	-36(%rbp), %ecx
	movslq	%ecx, %rax
	imulq	$1374389535, %rax, %rax
	shrq	$32, %rax
	sarl	$3, %eax
	movl	%ecx, %esi
	sarl	$31, %esi
	subl	%esi, %eax
	movl	%eax, %edx
	movl	%edx, %eax
	sall	$2, %eax
	addl	%edx, %eax
	leal	0(,%rax,4), %edx
	addl	%edx, %eax
	subl	%eax, %ecx
	movl	%ecx, %edx
	movslq	%edx, %rax
	leaq	0(,%rax,4), %rdx
	leaq	rand_primes(%rip), %rax
	movl	(%rdx,%rax), %eax
	leave
	.cfi_def_cfa 7, 8
	ret
	.cfi_endproc
.LFE8:
	.size	next_i, .-next_i
	.globl	next_f
	.type	next_f, @function
next_f:
.LFB10:
	.cfi_startproc
	endbr64
	pushq	%rbp
	.cfi_def_cfa_offset 16
	.cfi_offset 6, -16
	movq	%rsp, %rbp
	.cfi_def_cfa_register 6
	subq	$48, %rsp
#APP
# 69 "/usr/include/x86_64-linux-gnu/bits/byteswap.h" 1
	##_ANNOTATION_INITIALREGION_-TIG-iO-tEfO-1-next-f--18
# 0 "" 2
# 73 "/usr/include/x86_64-linux-gnu/bits/byteswap.h" 1
	##_ANNOTATION_ATOMICREGION_-TIG-iO-tEfO-1-next-f--17
# 0 "" 2
#NO_APP
	movl	$24, %edi
	call	malloc@PLT
	movq	%rax, -24(%rbp)
	movq	-24(%rbp), %rax
	movq	-24(%rbp), %rdx
	movq	%rdx, 8(%rax)
	movq	-24(%rbp), %rax
	movq	-24(%rbp), %rdx
	movq	%rdx, (%rax)
	movq	-24(%rbp), %rax
	movq	%rax, _TIG_iO_tEfO_1_next_f_1_opaque_list_1(%rip)
	call	rand@PLT
	movl	%eax, -36(%rbp)
	movl	$24, %edi
	call	malloc@PLT
	movq	%rax, -16(%rbp)
	movq	-16(%rbp), %rax
	movl	$0, 16(%rax)
	movq	_TIG_iO_tEfO_1_next_f_1_opaque_list_1(%rip), %rax
	movq	8(%rax), %rdx
	movq	-16(%rbp), %rax
	movq	%rdx, 8(%rax)
	movq	_TIG_iO_tEfO_1_next_f_1_opaque_list_1(%rip), %rdx
	movq	-16(%rbp), %rax
	movq	%rdx, (%rax)
	movq	_TIG_iO_tEfO_1_next_f_1_opaque_list_1(%rip), %rax
	movq	8(%rax), %rax
	movq	-16(%rbp), %rdx
	movq	%rdx, (%rax)
	movq	_TIG_iO_tEfO_1_next_f_1_opaque_list_1(%rip), %rax
	movq	-16(%rbp), %rdx
	movq	%rdx, 8(%rax)
	call	rand@PLT
	movl	%eax, -32(%rbp)
	movl	$24, %edi
	call	malloc@PLT
	movq	%rax, -8(%rbp)
	movq	-8(%rbp), %rax
	movl	-32(%rbp), %edx
	movl	%edx, 16(%rax)
	movq	_TIG_iO_tEfO_1_next_f_1_opaque_list_1(%rip), %rax
	movq	8(%rax), %rdx
	movq	-8(%rbp), %rax
	movq	%rdx, 8(%rax)
	movq	_TIG_iO_tEfO_1_next_f_1_opaque_list_1(%rip), %rdx
	movq	-8(%rbp), %rax
	movq	%rdx, (%rax)
	movq	_TIG_iO_tEfO_1_next_f_1_opaque_list_1(%rip), %rax
	movq	8(%rax), %rax
	movq	-8(%rbp), %rdx
	movq	%rdx, (%rax)
	movq	_TIG_iO_tEfO_1_next_f_1_opaque_list_1(%rip), %rax
	movq	-8(%rbp), %rdx
	movq	%rdx, 8(%rax)
	movq	_TIG_iO_tEfO_1_next_f_1_opaque_list_1(%rip), %rax
	movq	8(%rax), %rax
	movq	%rax, _TIG_iO_tEfO_1_next_f_1_opaque_ptr_1(%rip)
	movq	_TIG_iO_tEfO_1_next_f_1_opaque_ptr_1(%rip), %rax
	movq	%rax, _TIG_iO_tEfO_1_next_f_1_opaque_ptr_2(%rip)
	movq	_TIG_iO_tEfO_1_next_f_1_opaque_ptr_2(%rip), %rax
	movq	8(%rax), %rax
	movq	%rax, _TIG_iO_tEfO_1_next_f_1_opaque_ptr_2(%rip)
	nop
	nop
	movl	$0, -28(%rbp)
	addl	$1, -28(%rbp)
	movq	_TIG_iO_tEfO_1_usage_1_opaque_ptr_1(%rip), %rdx
	movq	_TIG_iO_tEfO_1_usage_1_opaque_ptr_2(%rip), %rax
	cmpq	%rax, %rdx
	je	.L38
	movl	-28(%rbp), %ecx
	movslq	%ecx, %rax
	imulq	$1374389535, %rax, %rax
	shrq	$32, %rax
	sarl	$3, %eax
	movl	%ecx, %esi
	sarl	$31, %esi
	subl	%esi, %eax
	movl	%eax, %edx
	movl	%edx, %eax
	sall	$2, %eax
	addl	%edx, %eax
	leal	0(,%rax,4), %edx
	addl	%edx, %eax
	subl	%eax, %ecx
	movl	%ecx, %edx
	movslq	%edx, %rax
	leaq	0(,%rax,4), %rdx
	leaq	rand_primes(%rip), %rax
	movl	(%rdx,%rax), %eax
	movl	%eax, %eax
	testq	%rax, %rax
	js	.L39
	pxor	%xmm0, %xmm0
	cvtsi2ssq	%rax, %xmm0
	jmp	.L40
.L39:
	movq	%rax, %rdx
	shrq	%rdx
	andl	$1, %eax
	orq	%rax, %rdx
	pxor	%xmm0, %xmm0
	cvtsi2ssq	%rdx, %xmm0
	addss	%xmm0, %xmm0
.L40:
	movss	.LC1(%rip), %xmm1
	divss	%xmm1, %xmm0
	jmp	.L41
.L38:
	movl	-28(%rbp), %ecx
	movslq	%ecx, %rax
	imulq	$1374389535, %rax, %rax
	shrq	$32, %rax
	sarl	$3, %eax
	movl	%ecx, %esi
	sarl	$31, %esi
	subl	%esi, %eax
	movl	%eax, %edx
	movl	%edx, %eax
	sall	$2, %eax
	addl	%edx, %eax
	leal	0(,%rax,4), %edx
	addl	%edx, %eax
	subl	%eax, %ecx
	movl	%ecx, %edx
	movslq	%edx, %rax
	leaq	0(,%rax,4), %rdx
	leaq	rand_primes(%rip), %rax
	movl	(%rdx,%rax), %eax
	movl	%eax, %eax
	testq	%rax, %rax
	js	.L42
	pxor	%xmm0, %xmm0
	cvtsi2ssq	%rax, %xmm0
	jmp	.L43
.L42:
	movq	%rax, %rdx
	shrq	%rdx
	andl	$1, %eax
	orq	%rax, %rdx
	pxor	%xmm0, %xmm0
	cvtsi2ssq	%rdx, %xmm0
	addss	%xmm0, %xmm0
.L43:
	movss	.LC1(%rip), %xmm2
	movaps	%xmm0, %xmm1
	divss	%xmm2, %xmm1
	movss	.LC2(%rip), %xmm0
	mulss	%xmm1, %xmm0
.L41:
	leave
	.cfi_def_cfa 7, 8
	ret
	.cfi_endproc
.LFE10:
	.size	next_f, .-next_f
	.section	.rodata
	.align 4
.LC1:
	.long	1228472176
	.align 4
.LC2:
	.long	1069246747
	.ident	"GCC: (Ubuntu 11.4.0-1ubuntu1~22.04) 11.4.0"
	.section	.note.GNU-stack,"",@progbits
	.section	.note.gnu.property,"a"
	.align 8
	.long	1f - 0f
	.long	4f - 1f
	.long	5
0:
	.string	"GNU"
1:
	.align 8
	.long	0xc0000002
	.long	3f - 2f
2:
	.long	0x3
3:
	.align 8
4:
