	.file	"lac-dcc_jotai-benchmarks_extr_tenginesrccorengx_md5.c_ngx_md5_init_Final_opaque.c"
	.text
	.globl	_TIG_iO_qT0r_1_main_1_opaque_list_2
	.bss
	.align 8
	.type	_TIG_iO_qT0r_1_main_1_opaque_list_2, @object
	.size	_TIG_iO_qT0r_1_main_1_opaque_list_2, 8
_TIG_iO_qT0r_1_main_1_opaque_list_2:
	.zero	8
	.globl	_TIG_iO_qT0r_1_next_i_1_opaque_ptr_2
	.align 8
	.type	_TIG_iO_qT0r_1_next_i_1_opaque_ptr_2, @object
	.size	_TIG_iO_qT0r_1_next_i_1_opaque_ptr_2, 8
_TIG_iO_qT0r_1_next_i_1_opaque_ptr_2:
	.zero	8
	.globl	_TIG_iO_qT0r_1___bswap_16_1_opaque_ptr_2
	.align 8
	.type	_TIG_iO_qT0r_1___bswap_16_1_opaque_ptr_2, @object
	.size	_TIG_iO_qT0r_1___bswap_16_1_opaque_ptr_2, 8
_TIG_iO_qT0r_1___bswap_16_1_opaque_ptr_2:
	.zero	8
	.globl	_TIG_iO_qT0r_1_next_f_1_opaque_ptr_1
	.align 8
	.type	_TIG_iO_qT0r_1_next_f_1_opaque_ptr_1, @object
	.size	_TIG_iO_qT0r_1_next_f_1_opaque_ptr_1, 8
_TIG_iO_qT0r_1_next_f_1_opaque_ptr_1:
	.zero	8
	.globl	_TIG_iO_qT0r_1___uint32_identity_1_opaque_ptr_1
	.align 8
	.type	_TIG_iO_qT0r_1___uint32_identity_1_opaque_ptr_1, @object
	.size	_TIG_iO_qT0r_1___uint32_identity_1_opaque_ptr_1, 8
_TIG_iO_qT0r_1___uint32_identity_1_opaque_ptr_1:
	.zero	8
	.globl	_TIG_iO_qT0r_1___bswap_64_1_opaque_ptr_2
	.align 8
	.type	_TIG_iO_qT0r_1___bswap_64_1_opaque_ptr_2, @object
	.size	_TIG_iO_qT0r_1___bswap_64_1_opaque_ptr_2, 8
_TIG_iO_qT0r_1___bswap_64_1_opaque_ptr_2:
	.zero	8
	.globl	_TIG_iO_qT0r_1___bswap_64_1_opaque_list_1
	.align 8
	.type	_TIG_iO_qT0r_1___bswap_64_1_opaque_list_1, @object
	.size	_TIG_iO_qT0r_1___bswap_64_1_opaque_list_1, 8
_TIG_iO_qT0r_1___bswap_64_1_opaque_list_1:
	.zero	8
	.globl	_TIG_IZ_qT0r_envp
	.align 8
	.type	_TIG_IZ_qT0r_envp, @object
	.size	_TIG_IZ_qT0r_envp, 8
_TIG_IZ_qT0r_envp:
	.zero	8
	.globl	_TIG_iO_qT0r_1___uint16_identity_1_opaque_list_1
	.align 8
	.type	_TIG_iO_qT0r_1___uint16_identity_1_opaque_list_1, @object
	.size	_TIG_iO_qT0r_1___uint16_identity_1_opaque_list_1, 8
_TIG_iO_qT0r_1___uint16_identity_1_opaque_list_1:
	.zero	8
	.globl	_TIG_iO_qT0r_1_ngx_md5_init_1_opaque_list_1
	.align 8
	.type	_TIG_iO_qT0r_1_ngx_md5_init_1_opaque_list_1, @object
	.size	_TIG_iO_qT0r_1_ngx_md5_init_1_opaque_list_1, 8
_TIG_iO_qT0r_1_ngx_md5_init_1_opaque_list_1:
	.zero	8
	.globl	_TIG_iO_qT0r_1___bswap_64_1_opaque_list_2
	.align 8
	.type	_TIG_iO_qT0r_1___bswap_64_1_opaque_list_2, @object
	.size	_TIG_iO_qT0r_1___bswap_64_1_opaque_list_2, 8
_TIG_iO_qT0r_1___bswap_64_1_opaque_list_2:
	.zero	8
	.globl	_TIG_iO_qT0r_1_next_f_1_opaque_list_2
	.align 8
	.type	_TIG_iO_qT0r_1_next_f_1_opaque_list_2, @object
	.size	_TIG_iO_qT0r_1_next_f_1_opaque_list_2, 8
_TIG_iO_qT0r_1_next_f_1_opaque_list_2:
	.zero	8
	.globl	_TIG_iO_qT0r_1_next_i_1_opaque_list_1
	.align 8
	.type	_TIG_iO_qT0r_1_next_i_1_opaque_list_1, @object
	.size	_TIG_iO_qT0r_1_next_i_1_opaque_list_1, 8
_TIG_iO_qT0r_1_next_i_1_opaque_list_1:
	.zero	8
	.globl	_TIG_iO_qT0r_1_ngx_md5_init_1_opaque_ptr_2
	.align 8
	.type	_TIG_iO_qT0r_1_ngx_md5_init_1_opaque_ptr_2, @object
	.size	_TIG_iO_qT0r_1_ngx_md5_init_1_opaque_ptr_2, 8
_TIG_iO_qT0r_1_ngx_md5_init_1_opaque_ptr_2:
	.zero	8
	.globl	_TIG_iO_qT0r_1_ngx_md5_init_1_opaque_ptr_1
	.align 8
	.type	_TIG_iO_qT0r_1_ngx_md5_init_1_opaque_ptr_1, @object
	.size	_TIG_iO_qT0r_1_ngx_md5_init_1_opaque_ptr_1, 8
_TIG_iO_qT0r_1_ngx_md5_init_1_opaque_ptr_1:
	.zero	8
	.globl	_TIG_iO_qT0r_1___uint16_identity_1_opaque_ptr_1
	.align 8
	.type	_TIG_iO_qT0r_1___uint16_identity_1_opaque_ptr_1, @object
	.size	_TIG_iO_qT0r_1___uint16_identity_1_opaque_ptr_1, 8
_TIG_iO_qT0r_1___uint16_identity_1_opaque_ptr_1:
	.zero	8
	.globl	_TIG_iO_qT0r_1_usage_1_opaque_list_1
	.align 8
	.type	_TIG_iO_qT0r_1_usage_1_opaque_list_1, @object
	.size	_TIG_iO_qT0r_1_usage_1_opaque_list_1, 8
_TIG_iO_qT0r_1_usage_1_opaque_list_1:
	.zero	8
	.globl	_TIG_iO_qT0r_1___bswap_16_1_opaque_list_2
	.align 8
	.type	_TIG_iO_qT0r_1___bswap_16_1_opaque_list_2, @object
	.size	_TIG_iO_qT0r_1___bswap_16_1_opaque_list_2, 8
_TIG_iO_qT0r_1___bswap_16_1_opaque_list_2:
	.zero	8
	.globl	_TIG_iO_qT0r_1_next_f_1_opaque_ptr_2
	.align 8
	.type	_TIG_iO_qT0r_1_next_f_1_opaque_ptr_2, @object
	.size	_TIG_iO_qT0r_1_next_f_1_opaque_ptr_2, 8
_TIG_iO_qT0r_1_next_f_1_opaque_ptr_2:
	.zero	8
	.globl	_TIG_iO_qT0r_1___bswap_16_1_opaque_list_1
	.align 8
	.type	_TIG_iO_qT0r_1___bswap_16_1_opaque_list_1, @object
	.size	_TIG_iO_qT0r_1___bswap_16_1_opaque_list_1, 8
_TIG_iO_qT0r_1___bswap_16_1_opaque_list_1:
	.zero	8
	.globl	_TIG_iO_qT0r_1___bswap_16_1_opaque_ptr_1
	.align 8
	.type	_TIG_iO_qT0r_1___bswap_16_1_opaque_ptr_1, @object
	.size	_TIG_iO_qT0r_1___bswap_16_1_opaque_ptr_1, 8
_TIG_iO_qT0r_1___bswap_16_1_opaque_ptr_1:
	.zero	8
	.globl	rand_primes
	.align 32
	.type	rand_primes, @object
	.size	rand_primes, 100
rand_primes:
	.zero	100
	.globl	_TIG_iO_qT0r_1_main_1_opaque_list_1
	.align 8
	.type	_TIG_iO_qT0r_1_main_1_opaque_list_1, @object
	.size	_TIG_iO_qT0r_1_main_1_opaque_list_1, 8
_TIG_iO_qT0r_1_main_1_opaque_list_1:
	.zero	8
	.globl	_TIG_iO_qT0r_1_next_i_1_opaque_list_2
	.align 8
	.type	_TIG_iO_qT0r_1_next_i_1_opaque_list_2, @object
	.size	_TIG_iO_qT0r_1_next_i_1_opaque_list_2, 8
_TIG_iO_qT0r_1_next_i_1_opaque_list_2:
	.zero	8
	.globl	_TIG_iO_qT0r_1_next_f_1_opaque_list_1
	.align 8
	.type	_TIG_iO_qT0r_1_next_f_1_opaque_list_1, @object
	.size	_TIG_iO_qT0r_1_next_f_1_opaque_list_1, 8
_TIG_iO_qT0r_1_next_f_1_opaque_list_1:
	.zero	8
	.globl	_TIG_iO_qT0r_1___uint16_identity_1_opaque_ptr_2
	.align 8
	.type	_TIG_iO_qT0r_1___uint16_identity_1_opaque_ptr_2, @object
	.size	_TIG_iO_qT0r_1___uint16_identity_1_opaque_ptr_2, 8
_TIG_iO_qT0r_1___uint16_identity_1_opaque_ptr_2:
	.zero	8
	.globl	_TIG_iO_qT0r_1___uint64_identity_1_opaque_ptr_1
	.align 8
	.type	_TIG_iO_qT0r_1___uint64_identity_1_opaque_ptr_1, @object
	.size	_TIG_iO_qT0r_1___uint64_identity_1_opaque_ptr_1, 8
_TIG_iO_qT0r_1___uint64_identity_1_opaque_ptr_1:
	.zero	8
	.globl	_TIG_iO_qT0r_1_ngx_md5_init_1_opaque_list_2
	.align 8
	.type	_TIG_iO_qT0r_1_ngx_md5_init_1_opaque_list_2, @object
	.size	_TIG_iO_qT0r_1_ngx_md5_init_1_opaque_list_2, 8
_TIG_iO_qT0r_1_ngx_md5_init_1_opaque_list_2:
	.zero	8
	.globl	_TIG_iO_qT0r_1_main_1_opaque_ptr_2
	.align 8
	.type	_TIG_iO_qT0r_1_main_1_opaque_ptr_2, @object
	.size	_TIG_iO_qT0r_1_main_1_opaque_ptr_2, 8
_TIG_iO_qT0r_1_main_1_opaque_ptr_2:
	.zero	8
	.globl	_TIG_IZ_qT0r_argv
	.align 8
	.type	_TIG_IZ_qT0r_argv, @object
	.size	_TIG_IZ_qT0r_argv, 8
_TIG_IZ_qT0r_argv:
	.zero	8
	.globl	_TIG_iO_qT0r_1___bswap_32_1_opaque_ptr_2
	.align 8
	.type	_TIG_iO_qT0r_1___bswap_32_1_opaque_ptr_2, @object
	.size	_TIG_iO_qT0r_1___bswap_32_1_opaque_ptr_2, 8
_TIG_iO_qT0r_1___bswap_32_1_opaque_ptr_2:
	.zero	8
	.globl	_TIG_iO_qT0r_1___bswap_32_1_opaque_list_1
	.align 8
	.type	_TIG_iO_qT0r_1___bswap_32_1_opaque_list_1, @object
	.size	_TIG_iO_qT0r_1___bswap_32_1_opaque_list_1, 8
_TIG_iO_qT0r_1___bswap_32_1_opaque_list_1:
	.zero	8
	.globl	_TIG_iO_qT0r_1___uint64_identity_1_opaque_ptr_2
	.align 8
	.type	_TIG_iO_qT0r_1___uint64_identity_1_opaque_ptr_2, @object
	.size	_TIG_iO_qT0r_1___uint64_identity_1_opaque_ptr_2, 8
_TIG_iO_qT0r_1___uint64_identity_1_opaque_ptr_2:
	.zero	8
	.globl	_TIG_iO_qT0r_1___bswap_64_1_opaque_ptr_1
	.align 8
	.type	_TIG_iO_qT0r_1___bswap_64_1_opaque_ptr_1, @object
	.size	_TIG_iO_qT0r_1___bswap_64_1_opaque_ptr_1, 8
_TIG_iO_qT0r_1___bswap_64_1_opaque_ptr_1:
	.zero	8
	.globl	_TIG_iO_qT0r_1___uint16_identity_1_opaque_list_2
	.align 8
	.type	_TIG_iO_qT0r_1___uint16_identity_1_opaque_list_2, @object
	.size	_TIG_iO_qT0r_1___uint16_identity_1_opaque_list_2, 8
_TIG_iO_qT0r_1___uint16_identity_1_opaque_list_2:
	.zero	8
	.globl	_TIG_iO_qT0r_1___uint32_identity_1_opaque_list_2
	.align 8
	.type	_TIG_iO_qT0r_1___uint32_identity_1_opaque_list_2, @object
	.size	_TIG_iO_qT0r_1___uint32_identity_1_opaque_list_2, 8
_TIG_iO_qT0r_1___uint32_identity_1_opaque_list_2:
	.zero	8
	.globl	_TIG_iO_qT0r_1_main_1_opaque_ptr_1
	.align 8
	.type	_TIG_iO_qT0r_1_main_1_opaque_ptr_1, @object
	.size	_TIG_iO_qT0r_1_main_1_opaque_ptr_1, 8
_TIG_iO_qT0r_1_main_1_opaque_ptr_1:
	.zero	8
	.globl	_TIG_iO_qT0r_1___uint64_identity_1_opaque_list_2
	.align 8
	.type	_TIG_iO_qT0r_1___uint64_identity_1_opaque_list_2, @object
	.size	_TIG_iO_qT0r_1___uint64_identity_1_opaque_list_2, 8
_TIG_iO_qT0r_1___uint64_identity_1_opaque_list_2:
	.zero	8
	.globl	_TIG_iO_qT0r_1___uint32_identity_1_opaque_list_1
	.align 8
	.type	_TIG_iO_qT0r_1___uint32_identity_1_opaque_list_1, @object
	.size	_TIG_iO_qT0r_1___uint32_identity_1_opaque_list_1, 8
_TIG_iO_qT0r_1___uint32_identity_1_opaque_list_1:
	.zero	8
	.globl	_TIG_iO_qT0r_1_usage_1_opaque_ptr_2
	.align 8
	.type	_TIG_iO_qT0r_1_usage_1_opaque_ptr_2, @object
	.size	_TIG_iO_qT0r_1_usage_1_opaque_ptr_2, 8
_TIG_iO_qT0r_1_usage_1_opaque_ptr_2:
	.zero	8
	.globl	_TIG_iO_qT0r_1___uint64_identity_1_opaque_list_1
	.align 8
	.type	_TIG_iO_qT0r_1___uint64_identity_1_opaque_list_1, @object
	.size	_TIG_iO_qT0r_1___uint64_identity_1_opaque_list_1, 8
_TIG_iO_qT0r_1___uint64_identity_1_opaque_list_1:
	.zero	8
	.globl	_TIG_IZ_qT0r_argc
	.align 4
	.type	_TIG_IZ_qT0r_argc, @object
	.size	_TIG_IZ_qT0r_argc, 4
_TIG_IZ_qT0r_argc:
	.zero	4
	.globl	_TIG_iO_qT0r_1_next_i_1_opaque_ptr_1
	.align 8
	.type	_TIG_iO_qT0r_1_next_i_1_opaque_ptr_1, @object
	.size	_TIG_iO_qT0r_1_next_i_1_opaque_ptr_1, 8
_TIG_iO_qT0r_1_next_i_1_opaque_ptr_1:
	.zero	8
	.globl	_TIG_iO_qT0r_1___bswap_32_1_opaque_list_2
	.align 8
	.type	_TIG_iO_qT0r_1___bswap_32_1_opaque_list_2, @object
	.size	_TIG_iO_qT0r_1___bswap_32_1_opaque_list_2, 8
_TIG_iO_qT0r_1___bswap_32_1_opaque_list_2:
	.zero	8
	.globl	_TIG_iO_qT0r_1___bswap_32_1_opaque_ptr_1
	.align 8
	.type	_TIG_iO_qT0r_1___bswap_32_1_opaque_ptr_1, @object
	.size	_TIG_iO_qT0r_1___bswap_32_1_opaque_ptr_1, 8
_TIG_iO_qT0r_1___bswap_32_1_opaque_ptr_1:
	.zero	8
	.globl	_TIG_iO_qT0r_1_usage_1_opaque_ptr_1
	.align 8
	.type	_TIG_iO_qT0r_1_usage_1_opaque_ptr_1, @object
	.size	_TIG_iO_qT0r_1_usage_1_opaque_ptr_1, 8
_TIG_iO_qT0r_1_usage_1_opaque_ptr_1:
	.zero	8
	.globl	_TIG_iO_qT0r_1_usage_1_opaque_list_2
	.align 8
	.type	_TIG_iO_qT0r_1_usage_1_opaque_list_2, @object
	.size	_TIG_iO_qT0r_1_usage_1_opaque_list_2, 8
_TIG_iO_qT0r_1_usage_1_opaque_list_2:
	.zero	8
	.globl	_TIG_iO_qT0r_1___uint32_identity_1_opaque_ptr_2
	.align 8
	.type	_TIG_iO_qT0r_1___uint32_identity_1_opaque_ptr_2, @object
	.size	_TIG_iO_qT0r_1___uint32_identity_1_opaque_ptr_2, 8
_TIG_iO_qT0r_1___uint32_identity_1_opaque_ptr_2:
	.zero	8
	.text
	.globl	ngx_md5_init
	.type	ngx_md5_init, @function
ngx_md5_init:
.LFB1:
	.cfi_startproc
	endbr64
	pushq	%rbp
	.cfi_def_cfa_offset 16
	.cfi_offset 6, -16
	movq	%rsp, %rbp
	.cfi_def_cfa_register 6
	subq	$48, %rsp
	movq	%rdi, -40(%rbp)
#APP
# 65 "/usr/include/x86_64-linux-gnu/bits/uintn-identity.h" 1
	##_ANNOTATION_INITIALREGION_-TIG-iO-qT0r-1-ngx-md5-init--20
# 0 "" 2
# 69 "/usr/include/x86_64-linux-gnu/bits/uintn-identity.h" 1
	##_ANNOTATION_ATOMICREGION_-TIG-iO-qT0r-1-ngx-md5-init--19
# 0 "" 2
#NO_APP
	movl	$24, %edi
	call	malloc@PLT
	movq	%rax, -24(%rbp)
	movq	-24(%rbp), %rax
	movq	-24(%rbp), %rdx
	movq	%rdx, 8(%rax)
	movq	-24(%rbp), %rax
	movq	-24(%rbp), %rdx
	movq	%rdx, 16(%rax)
	movq	-24(%rbp), %rax
	movq	%rax, _TIG_iO_qT0r_1_ngx_md5_init_1_opaque_list_1(%rip)
	call	rand@PLT
	movl	%eax, -32(%rbp)
	movl	$24, %edi
	call	malloc@PLT
	movq	%rax, -16(%rbp)
	movq	-16(%rbp), %rax
	movl	$0, (%rax)
	movq	_TIG_iO_qT0r_1_ngx_md5_init_1_opaque_list_1(%rip), %rax
	movq	8(%rax), %rdx
	movq	-16(%rbp), %rax
	movq	%rdx, 8(%rax)
	movq	_TIG_iO_qT0r_1_ngx_md5_init_1_opaque_list_1(%rip), %rdx
	movq	-16(%rbp), %rax
	movq	%rdx, 16(%rax)
	movq	_TIG_iO_qT0r_1_ngx_md5_init_1_opaque_list_1(%rip), %rax
	movq	8(%rax), %rax
	movq	-16(%rbp), %rdx
	movq	%rdx, 16(%rax)
	movq	_TIG_iO_qT0r_1_ngx_md5_init_1_opaque_list_1(%rip), %rax
	movq	-16(%rbp), %rdx
	movq	%rdx, 8(%rax)
	call	rand@PLT
	movl	%eax, -28(%rbp)
	movl	$24, %edi
	call	malloc@PLT
	movq	%rax, -8(%rbp)
	movq	-8(%rbp), %rax
	movl	-28(%rbp), %edx
	movl	%edx, (%rax)
	movq	_TIG_iO_qT0r_1_ngx_md5_init_1_opaque_list_1(%rip), %rax
	movq	8(%rax), %rdx
	movq	-8(%rbp), %rax
	movq	%rdx, 8(%rax)
	movq	_TIG_iO_qT0r_1_ngx_md5_init_1_opaque_list_1(%rip), %rdx
	movq	-8(%rbp), %rax
	movq	%rdx, 16(%rax)
	movq	_TIG_iO_qT0r_1_ngx_md5_init_1_opaque_list_1(%rip), %rax
	movq	8(%rax), %rax
	movq	-8(%rbp), %rdx
	movq	%rdx, 16(%rax)
	movq	_TIG_iO_qT0r_1_ngx_md5_init_1_opaque_list_1(%rip), %rax
	movq	-8(%rbp), %rdx
	movq	%rdx, 8(%rax)
	movq	_TIG_iO_qT0r_1_ngx_md5_init_1_opaque_list_1(%rip), %rax
	movq	8(%rax), %rax
	movq	%rax, _TIG_iO_qT0r_1_ngx_md5_init_1_opaque_ptr_1(%rip)
	movq	_TIG_iO_qT0r_1_ngx_md5_init_1_opaque_ptr_1(%rip), %rax
	movq	%rax, _TIG_iO_qT0r_1_ngx_md5_init_1_opaque_ptr_2(%rip)
	nop
	nop
	movq	_TIG_iO_qT0r_1_usage_1_opaque_ptr_1(%rip), %rdx
	movq	_TIG_iO_qT0r_1_usage_1_opaque_ptr_2(%rip), %rax
	cmpq	%rax, %rdx
	je	.L4
	movq	-40(%rbp), %rax
	movl	$1732584193, (%rax)
	movq	-40(%rbp), %rax
	movl	$-271733879, 4(%rax)
	movq	-40(%rbp), %rax
	movl	$-1732584194, 8(%rax)
	movq	-40(%rbp), %rax
	movl	$271733878, 12(%rax)
	movq	-40(%rbp), %rax
	movq	$0, 16(%rax)
	nop
.L4:
	nop
	leave
	.cfi_def_cfa 7, 8
	ret
	.cfi_endproc
.LFE1:
	.size	ngx_md5_init, .-ngx_md5_init
	.globl	main
	.type	main, @function
main:
.LFB4:
	.cfi_startproc
	endbr64
	pushq	%rbp
	.cfi_def_cfa_offset 16
	.cfi_offset 6, -16
	movq	%rsp, %rbp
	.cfi_def_cfa_register 6
	subq	$288, %rsp
	movl	%edi, -260(%rbp)
	movq	%rsi, -272(%rbp)
	movq	%rdx, -280(%rbp)
	movl	$179, rand_primes(%rip)
	movl	$103, 4+rand_primes(%rip)
	movl	$479, 8+rand_primes(%rip)
	movl	$647, 12+rand_primes(%rip)
	movl	$229, 16+rand_primes(%rip)
	movl	$37, 20+rand_primes(%rip)
	movl	$271, 24+rand_primes(%rip)
	movl	$557, 28+rand_primes(%rip)
	movl	$263, 32+rand_primes(%rip)
	movl	$607, 36+rand_primes(%rip)
	movl	$18743, 40+rand_primes(%rip)
	movl	$50359, 44+rand_primes(%rip)
	movl	$21929, 48+rand_primes(%rip)
	movl	$48757, 52+rand_primes(%rip)
	movl	$98179, 56+rand_primes(%rip)
	movl	$12907, 60+rand_primes(%rip)
	movl	$52937, 64+rand_primes(%rip)
	movl	$64579, 68+rand_primes(%rip)
	movl	$49957, 72+rand_primes(%rip)
	movl	$52567, 76+rand_primes(%rip)
	movl	$507163, 80+rand_primes(%rip)
	movl	$149939, 84+rand_primes(%rip)
	movl	$412157, 88+rand_primes(%rip)
	movl	$680861, 92+rand_primes(%rip)
	movl	$757751, 96+rand_primes(%rip)
	nop
.L6:
	movq	$0, _TIG_IZ_qT0r_envp(%rip)
	nop
.L7:
	movq	$0, _TIG_IZ_qT0r_argv(%rip)
	nop
.L8:
	movl	$0, _TIG_IZ_qT0r_argc(%rip)
	nop
	nop
.L9:
.L10:
#APP
# 161 "/usr/include/x86_64-linux-gnu/bits/uintn-identity.h" 1
	##_ANNOTATION_INITIALREGION_-TIG-IZ-qT0r--0
# 0 "" 2
#NO_APP
	movl	-260(%rbp), %eax
	movl	%eax, _TIG_IZ_qT0r_argc(%rip)
	movq	-272(%rbp), %rax
	movq	%rax, _TIG_IZ_qT0r_argv(%rip)
	movq	-280(%rbp), %rax
	movq	%rax, _TIG_IZ_qT0r_envp(%rip)
#APP
# 168 "/usr/include/x86_64-linux-gnu/bits/uintn-identity.h" 1
	##_ANNOTATION_ATOMICREGION_-TIG-iO-qT0r-1-main--13
# 0 "" 2
#NO_APP
	movl	$24, %edi
	call	malloc@PLT
	movq	%rax, -88(%rbp)
	movq	-88(%rbp), %rax
	movq	-88(%rbp), %rdx
	movq	%rdx, (%rax)
	movq	-88(%rbp), %rax
	movq	-88(%rbp), %rdx
	movq	%rdx, 8(%rax)
	movq	-88(%rbp), %rax
	movq	%rax, _TIG_iO_qT0r_1_main_1_opaque_list_1(%rip)
	call	rand@PLT
	movl	%eax, -244(%rbp)
	movl	$24, %edi
	call	malloc@PLT
	movq	%rax, -80(%rbp)
	movq	-80(%rbp), %rax
	movl	$0, 16(%rax)
	movq	_TIG_iO_qT0r_1_main_1_opaque_list_1(%rip), %rax
	movq	(%rax), %rdx
	movq	-80(%rbp), %rax
	movq	%rdx, (%rax)
	movq	_TIG_iO_qT0r_1_main_1_opaque_list_1(%rip), %rdx
	movq	-80(%rbp), %rax
	movq	%rdx, 8(%rax)
	movq	_TIG_iO_qT0r_1_main_1_opaque_list_1(%rip), %rax
	movq	(%rax), %rax
	movq	-80(%rbp), %rdx
	movq	%rdx, 8(%rax)
	movq	_TIG_iO_qT0r_1_main_1_opaque_list_1(%rip), %rax
	movq	-80(%rbp), %rdx
	movq	%rdx, (%rax)
	call	rand@PLT
	movl	%eax, -240(%rbp)
	movl	$24, %edi
	call	malloc@PLT
	movq	%rax, -72(%rbp)
	movq	-72(%rbp), %rax
	movl	-240(%rbp), %edx
	movl	%edx, 16(%rax)
	movq	_TIG_iO_qT0r_1_main_1_opaque_list_1(%rip), %rax
	movq	(%rax), %rdx
	movq	-72(%rbp), %rax
	movq	%rdx, (%rax)
	movq	_TIG_iO_qT0r_1_main_1_opaque_list_1(%rip), %rdx
	movq	-72(%rbp), %rax
	movq	%rdx, 8(%rax)
	movq	_TIG_iO_qT0r_1_main_1_opaque_list_1(%rip), %rax
	movq	(%rax), %rax
	movq	-72(%rbp), %rdx
	movq	%rdx, 8(%rax)
	movq	_TIG_iO_qT0r_1_main_1_opaque_list_1(%rip), %rax
	movq	-72(%rbp), %rdx
	movq	%rdx, (%rax)
	call	rand@PLT
	movl	%eax, -236(%rbp)
	movl	$24, %edi
	call	malloc@PLT
	movq	%rax, -64(%rbp)
	movl	-236(%rbp), %eax
	leal	(%rax,%rax), %edx
	movq	-64(%rbp), %rax
	movl	%edx, 16(%rax)
	movq	_TIG_iO_qT0r_1_main_1_opaque_list_1(%rip), %rax
	movq	(%rax), %rdx
	movq	-64(%rbp), %rax
	movq	%rdx, (%rax)
	movq	_TIG_iO_qT0r_1_main_1_opaque_list_1(%rip), %rdx
	movq	-64(%rbp), %rax
	movq	%rdx, 8(%rax)
	movq	_TIG_iO_qT0r_1_main_1_opaque_list_1(%rip), %rax
	movq	(%rax), %rax
	movq	-64(%rbp), %rdx
	movq	%rdx, 8(%rax)
	movq	_TIG_iO_qT0r_1_main_1_opaque_list_1(%rip), %rax
	movq	-64(%rbp), %rdx
	movq	%rdx, (%rax)
	call	rand@PLT
	movl	%eax, -232(%rbp)
	movl	$24, %edi
	call	malloc@PLT
	movq	%rax, -56(%rbp)
	movl	-232(%rbp), %edx
	movl	%edx, %eax
	addl	%eax, %eax
	addl	%eax, %edx
	movq	-56(%rbp), %rax
	movl	%edx, 16(%rax)
	movq	_TIG_iO_qT0r_1_main_1_opaque_list_1(%rip), %rax
	movq	(%rax), %rdx
	movq	-56(%rbp), %rax
	movq	%rdx, (%rax)
	movq	_TIG_iO_qT0r_1_main_1_opaque_list_1(%rip), %rdx
	movq	-56(%rbp), %rax
	movq	%rdx, 8(%rax)
	movq	_TIG_iO_qT0r_1_main_1_opaque_list_1(%rip), %rax
	movq	(%rax), %rax
	movq	-56(%rbp), %rdx
	movq	%rdx, 8(%rax)
	movq	_TIG_iO_qT0r_1_main_1_opaque_list_1(%rip), %rax
	movq	-56(%rbp), %rdx
	movq	%rdx, (%rax)
	movq	_TIG_iO_qT0r_1_main_1_opaque_list_1(%rip), %rax
	movq	(%rax), %rax
	movq	%rax, _TIG_iO_qT0r_1_main_1_opaque_ptr_1(%rip)
	movq	_TIG_iO_qT0r_1_main_1_opaque_ptr_1(%rip), %rax
	movq	%rax, _TIG_iO_qT0r_1_main_1_opaque_ptr_2(%rip)
	movq	_TIG_iO_qT0r_1_main_1_opaque_ptr_2(%rip), %rax
	movq	(%rax), %rax
	movq	%rax, _TIG_iO_qT0r_1_main_1_opaque_ptr_2(%rip)
	nop
	nop
	cmpl	$2, -260(%rbp)
	je	.L11
	call	usage
	movl	$1, %eax
	jmp	.L12
.L11:
	movq	-272(%rbp), %rax
	addq	$8, %rax
	movq	(%rax), %rax
	movq	%rax, %rdi
	call	atoi@PLT
	movl	%eax, -228(%rbp)
	movl	-228(%rbp), %eax
	movl	%eax, -224(%rbp)
	cmpl	$2, -224(%rbp)
	je	.L13
	cmpl	$2, -224(%rbp)
	jg	.L14
	cmpl	$0, -224(%rbp)
	je	.L15
	cmpl	$1, -224(%rbp)
	je	.L16
	jmp	.L14
.L15:
	movl	$65025, -132(%rbp)
	movl	-132(%rbp), %eax
	movslq	%eax, %rdx
	movq	%rdx, %rax
	addq	%rax, %rax
	addq	%rdx, %rax
	salq	$3, %rax
	movq	%rax, %rdi
	call	malloc@PLT
	movq	%rax, -16(%rbp)
	movq	-16(%rbp), %rax
	movq	%rax, -8(%rbp)
	movl	$0, -256(%rbp)
.L19:
	movq	_TIG_iO_qT0r_1_usage_1_opaque_ptr_1(%rip), %rdx
	movq	_TIG_iO_qT0r_1_usage_1_opaque_ptr_2(%rip), %rax
	cmpq	%rax, %rdx
	je	.L17
	movl	-256(%rbp), %eax
	cmpl	-132(%rbp), %eax
	jge	.L26
.L17:
	call	next_i
	movl	%eax, -128(%rbp)
	call	next_i
	movl	%eax, -124(%rbp)
	movl	-128(%rbp), %eax
	cltd
	shrl	$31, %edx
	addl	%edx, %eax
	andl	$1, %eax
	subl	%edx, %eax
	movl	%eax, %edx
	movl	$0, %eax
	subl	%edx, %eax
	addl	%eax, %eax
	leal	1(%rax), %ecx
	movl	-256(%rbp), %eax
	movslq	%eax, %rdx
	movq	%rdx, %rax
	addq	%rax, %rax
	addq	%rdx, %rax
	salq	$3, %rax
	movq	%rax, %rdx
	movq	-8(%rbp), %rax
	addq	%rax, %rdx
	movl	%ecx, %eax
	imull	-124(%rbp), %eax
	movl	%eax, (%rdx)
	call	next_i
	movl	%eax, -120(%rbp)
	call	next_i
	movl	%eax, -116(%rbp)
	movl	-120(%rbp), %eax
	cltd
	shrl	$31, %edx
	addl	%edx, %eax
	andl	$1, %eax
	subl	%edx, %eax
	movl	%eax, %edx
	movl	$0, %eax
	subl	%edx, %eax
	addl	%eax, %eax
	leal	1(%rax), %ecx
	movl	-256(%rbp), %eax
	movslq	%eax, %rdx
	movq	%rdx, %rax
	addq	%rax, %rax
	addq	%rdx, %rax
	salq	$3, %rax
	movq	%rax, %rdx
	movq	-8(%rbp), %rax
	addq	%rax, %rdx
	movl	%ecx, %eax
	imull	-116(%rbp), %eax
	movl	%eax, 4(%rdx)
	call	next_i
	movl	%eax, -112(%rbp)
	call	next_i
	movl	%eax, -108(%rbp)
	movl	-112(%rbp), %eax
	cltd
	shrl	$31, %edx
	addl	%edx, %eax
	andl	$1, %eax
	subl	%edx, %eax
	movl	%eax, %edx
	movl	$0, %eax
	subl	%edx, %eax
	addl	%eax, %eax
	leal	1(%rax), %ecx
	movl	-256(%rbp), %eax
	movslq	%eax, %rdx
	movq	%rdx, %rax
	addq	%rax, %rax
	addq	%rdx, %rax
	salq	$3, %rax
	movq	%rax, %rdx
	movq	-8(%rbp), %rax
	addq	%rax, %rdx
	movl	%ecx, %eax
	imull	-108(%rbp), %eax
	movl	%eax, 8(%rdx)
	call	next_i
	movl	%eax, -104(%rbp)
	call	next_i
	movl	%eax, -100(%rbp)
	movl	-104(%rbp), %eax
	cltd
	shrl	$31, %edx
	addl	%edx, %eax
	andl	$1, %eax
	subl	%edx, %eax
	movl	%eax, %edx
	movl	$0, %eax
	subl	%edx, %eax
	addl	%eax, %eax
	leal	1(%rax), %ecx
	movl	-256(%rbp), %eax
	movslq	%eax, %rdx
	movq	%rdx, %rax
	addq	%rax, %rax
	addq	%rdx, %rax
	salq	$3, %rax
	movq	%rax, %rdx
	movq	-8(%rbp), %rax
	addq	%rax, %rdx
	movl	%ecx, %eax
	imull	-100(%rbp), %eax
	movl	%eax, 12(%rdx)
	call	next_i
	movl	%eax, -96(%rbp)
	call	next_i
	movl	%eax, -92(%rbp)
	movl	-96(%rbp), %eax
	cltd
	shrl	$31, %edx
	addl	%edx, %eax
	andl	$1, %eax
	subl	%edx, %eax
	movl	%eax, %edx
	movl	$0, %eax
	subl	%edx, %eax
	addl	%eax, %eax
	addl	$1, %eax
	imull	-92(%rbp), %eax
	movl	%eax, %ecx
	movl	-256(%rbp), %eax
	movslq	%eax, %rdx
	movq	%rdx, %rax
	addq	%rax, %rax
	addq	%rdx, %rax
	salq	$3, %rax
	movq	%rax, %rdx
	movq	-8(%rbp), %rax
	addq	%rax, %rdx
	movslq	%ecx, %rax
	movq	%rax, 16(%rdx)
	addl	$1, -256(%rbp)
	jmp	.L19
.L26:
	nop
	movq	-8(%rbp), %rax
	movq	%rax, %rdi
	call	ngx_md5_init
	movq	-8(%rbp), %rax
	movq	%rax, %rdi
	call	free@PLT
	jmp	.L20
.L16:
	movl	$100, -176(%rbp)
	movl	-176(%rbp), %eax
	movslq	%eax, %rdx
	movq	%rdx, %rax
	addq	%rax, %rax
	addq	%rdx, %rax
	salq	$3, %rax
	movq	%rax, %rdi
	call	malloc@PLT
	movq	%rax, -32(%rbp)
	movq	-32(%rbp), %rax
	movq	%rax, -24(%rbp)
	movl	$0, -252(%rbp)
	jmp	.L21
.L22:
	call	next_i
	movl	%eax, -172(%rbp)
	call	next_i
	movl	%eax, -168(%rbp)
	movl	-172(%rbp), %eax
	cltd
	shrl	$31, %edx
	addl	%edx, %eax
	andl	$1, %eax
	subl	%edx, %eax
	movl	%eax, %edx
	movl	$0, %eax
	subl	%edx, %eax
	addl	%eax, %eax
	leal	1(%rax), %ecx
	movl	-252(%rbp), %eax
	movslq	%eax, %rdx
	movq	%rdx, %rax
	addq	%rax, %rax
	addq	%rdx, %rax
	salq	$3, %rax
	movq	%rax, %rdx
	movq	-24(%rbp), %rax
	addq	%rax, %rdx
	movl	%ecx, %eax
	imull	-168(%rbp), %eax
	movl	%eax, (%rdx)
	call	next_i
	movl	%eax, -164(%rbp)
	call	next_i
	movl	%eax, -160(%rbp)
	movl	-164(%rbp), %eax
	cltd
	shrl	$31, %edx
	addl	%edx, %eax
	andl	$1, %eax
	subl	%edx, %eax
	movl	%eax, %edx
	movl	$0, %eax
	subl	%edx, %eax
	addl	%eax, %eax
	leal	1(%rax), %ecx
	movl	-252(%rbp), %eax
	movslq	%eax, %rdx
	movq	%rdx, %rax
	addq	%rax, %rax
	addq	%rdx, %rax
	salq	$3, %rax
	movq	%rax, %rdx
	movq	-24(%rbp), %rax
	addq	%rax, %rdx
	movl	%ecx, %eax
	imull	-160(%rbp), %eax
	movl	%eax, 4(%rdx)
	call	next_i
	movl	%eax, -156(%rbp)
	call	next_i
	movl	%eax, -152(%rbp)
	movl	-156(%rbp), %eax
	cltd
	shrl	$31, %edx
	addl	%edx, %eax
	andl	$1, %eax
	subl	%edx, %eax
	movl	%eax, %edx
	movl	$0, %eax
	subl	%edx, %eax
	addl	%eax, %eax
	leal	1(%rax), %ecx
	movl	-252(%rbp), %eax
	movslq	%eax, %rdx
	movq	%rdx, %rax
	addq	%rax, %rax
	addq	%rdx, %rax
	salq	$3, %rax
	movq	%rax, %rdx
	movq	-24(%rbp), %rax
	addq	%rax, %rdx
	movl	%ecx, %eax
	imull	-152(%rbp), %eax
	movl	%eax, 8(%rdx)
	call	next_i
	movl	%eax, -148(%rbp)
	call	next_i
	movl	%eax, -144(%rbp)
	movl	-148(%rbp), %eax
	cltd
	shrl	$31, %edx
	addl	%edx, %eax
	andl	$1, %eax
	subl	%edx, %eax
	movl	%eax, %edx
	movl	$0, %eax
	subl	%edx, %eax
	addl	%eax, %eax
	leal	1(%rax), %ecx
	movl	-252(%rbp), %eax
	movslq	%eax, %rdx
	movq	%rdx, %rax
	addq	%rax, %rax
	addq	%rdx, %rax
	salq	$3, %rax
	movq	%rax, %rdx
	movq	-24(%rbp), %rax
	addq	%rax, %rdx
	movl	%ecx, %eax
	imull	-144(%rbp), %eax
	movl	%eax, 12(%rdx)
	call	next_i
	movl	%eax, -140(%rbp)
	call	next_i
	movl	%eax, -136(%rbp)
	movl	-140(%rbp), %eax
	cltd
	shrl	$31, %edx
	addl	%edx, %eax
	andl	$1, %eax
	subl	%edx, %eax
	movl	%eax, %edx
	movl	$0, %eax
	subl	%edx, %eax
	addl	%eax, %eax
	addl	$1, %eax
	imull	-136(%rbp), %eax
	movl	%eax, %ecx
	movl	-252(%rbp), %eax
	movslq	%eax, %rdx
	movq	%rdx, %rax
	addq	%rax, %rax
	addq	%rdx, %rax
	salq	$3, %rax
	movq	%rax, %rdx
	movq	-24(%rbp), %rax
	addq	%rax, %rdx
	movslq	%ecx, %rax
	movq	%rax, 16(%rdx)
	addl	$1, -252(%rbp)
.L21:
	movl	-252(%rbp), %eax
	cmpl	-176(%rbp), %eax
	jl	.L22
	movq	-24(%rbp), %rax
	movq	%rax, %rdi
	call	ngx_md5_init
	movq	-24(%rbp), %rax
	movq	%rax, %rdi
	call	free@PLT
	jmp	.L20
.L13:
	movl	$1, -220(%rbp)
	movl	-220(%rbp), %eax
	movslq	%eax, %rdx
	movq	%rdx, %rax
	addq	%rax, %rax
	addq	%rdx, %rax
	salq	$3, %rax
	movq	%rax, %rdi
	call	malloc@PLT
	movq	%rax, -48(%rbp)
	movq	-48(%rbp), %rax
	movq	%rax, -40(%rbp)
	movl	$0, -248(%rbp)
	jmp	.L23
.L24:
	call	next_i
	movl	%eax, -216(%rbp)
	call	next_i
	movl	%eax, -212(%rbp)
	movl	-216(%rbp), %eax
	cltd
	shrl	$31, %edx
	addl	%edx, %eax
	andl	$1, %eax
	subl	%edx, %eax
	movl	%eax, %edx
	movl	$0, %eax
	subl	%edx, %eax
	addl	%eax, %eax
	leal	1(%rax), %ecx
	movl	-248(%rbp), %eax
	movslq	%eax, %rdx
	movq	%rdx, %rax
	addq	%rax, %rax
	addq	%rdx, %rax
	salq	$3, %rax
	movq	%rax, %rdx
	movq	-40(%rbp), %rax
	addq	%rax, %rdx
	movl	%ecx, %eax
	imull	-212(%rbp), %eax
	movl	%eax, (%rdx)
	call	next_i
	movl	%eax, -208(%rbp)
	call	next_i
	movl	%eax, -204(%rbp)
	movl	-208(%rbp), %eax
	cltd
	shrl	$31, %edx
	addl	%edx, %eax
	andl	$1, %eax
	subl	%edx, %eax
	movl	%eax, %edx
	movl	$0, %eax
	subl	%edx, %eax
	addl	%eax, %eax
	leal	1(%rax), %ecx
	movl	-248(%rbp), %eax
	movslq	%eax, %rdx
	movq	%rdx, %rax
	addq	%rax, %rax
	addq	%rdx, %rax
	salq	$3, %rax
	movq	%rax, %rdx
	movq	-40(%rbp), %rax
	addq	%rax, %rdx
	movl	%ecx, %eax
	imull	-204(%rbp), %eax
	movl	%eax, 4(%rdx)
	call	next_i
	movl	%eax, -200(%rbp)
	call	next_i
	movl	%eax, -196(%rbp)
	movl	-200(%rbp), %eax
	cltd
	shrl	$31, %edx
	addl	%edx, %eax
	andl	$1, %eax
	subl	%edx, %eax
	movl	%eax, %edx
	movl	$0, %eax
	subl	%edx, %eax
	addl	%eax, %eax
	leal	1(%rax), %ecx
	movl	-248(%rbp), %eax
	movslq	%eax, %rdx
	movq	%rdx, %rax
	addq	%rax, %rax
	addq	%rdx, %rax
	salq	$3, %rax
	movq	%rax, %rdx
	movq	-40(%rbp), %rax
	addq	%rax, %rdx
	movl	%ecx, %eax
	imull	-196(%rbp), %eax
	movl	%eax, 8(%rdx)
	call	next_i
	movl	%eax, -192(%rbp)
	call	next_i
	movl	%eax, -188(%rbp)
	movl	-192(%rbp), %eax
	cltd
	shrl	$31, %edx
	addl	%edx, %eax
	andl	$1, %eax
	subl	%edx, %eax
	movl	%eax, %edx
	movl	$0, %eax
	subl	%edx, %eax
	addl	%eax, %eax
	leal	1(%rax), %ecx
	movl	-248(%rbp), %eax
	movslq	%eax, %rdx
	movq	%rdx, %rax
	addq	%rax, %rax
	addq	%rdx, %rax
	salq	$3, %rax
	movq	%rax, %rdx
	movq	-40(%rbp), %rax
	addq	%rax, %rdx
	movl	%ecx, %eax
	imull	-188(%rbp), %eax
	movl	%eax, 12(%rdx)
	call	next_i
	movl	%eax, -184(%rbp)
	call	next_i
	movl	%eax, -180(%rbp)
	movl	-184(%rbp), %eax
	cltd
	shrl	$31, %edx
	addl	%edx, %eax
	andl	$1, %eax
	subl	%edx, %eax
	movl	%eax, %edx
	movl	$0, %eax
	subl	%edx, %eax
	addl	%eax, %eax
	addl	$1, %eax
	imull	-180(%rbp), %eax
	movl	%eax, %ecx
	movl	-248(%rbp), %eax
	movslq	%eax, %rdx
	movq	%rdx, %rax
	addq	%rax, %rax
	addq	%rdx, %rax
	salq	$3, %rax
	movq	%rax, %rdx
	movq	-40(%rbp), %rax
	addq	%rax, %rdx
	movslq	%ecx, %rax
	movq	%rax, 16(%rdx)
	addl	$1, -248(%rbp)
.L23:
	movl	-248(%rbp), %eax
	cmpl	-220(%rbp), %eax
	jl	.L24
	movq	-40(%rbp), %rax
	movq	%rax, %rdi
	call	ngx_md5_init
	movq	-40(%rbp), %rax
	movq	%rax, %rdi
	call	free@PLT
	jmp	.L20
.L14:
	call	usage
	nop
.L20:
	movl	$0, %eax
.L12:
	leave
	.cfi_def_cfa 7, 8
	ret
	.cfi_endproc
.LFE4:
	.size	main, .-main
	.globl	next_i
	.type	next_i, @function
next_i:
.LFB5:
	.cfi_startproc
	endbr64
	pushq	%rbp
	.cfi_def_cfa_offset 16
	.cfi_offset 6, -16
	movq	%rsp, %rbp
	.cfi_def_cfa_register 6
	subq	$48, %rsp
#APP
# 237 "lac-dcc_jotai-benchmarks_extr_tenginesrccorengx_md5.c_ngx_md5_init_Final.c" 1
	##_ANNOTATION_INITIALREGION_-TIG-iO-qT0r-1-next-i--18
# 0 "" 2
# 241 "lac-dcc_jotai-benchmarks_extr_tenginesrccorengx_md5.c_ngx_md5_init_Final.c" 1
	##_ANNOTATION_ATOMICREGION_-TIG-iO-qT0r-1-next-i--17
# 0 "" 2
#NO_APP
	movl	$24, %edi
	call	malloc@PLT
	movq	%rax, -24(%rbp)
	movq	-24(%rbp), %rax
	movq	-24(%rbp), %rdx
	movq	%rdx, 8(%rax)
	movq	-24(%rbp), %rax
	movq	-24(%rbp), %rdx
	movq	%rdx, (%rax)
	movq	-24(%rbp), %rax
	movq	%rax, _TIG_iO_qT0r_1_next_i_1_opaque_list_1(%rip)
	call	rand@PLT
	movl	%eax, -32(%rbp)
	movl	$24, %edi
	call	malloc@PLT
	movq	%rax, -16(%rbp)
	movq	-16(%rbp), %rax
	movl	$0, 16(%rax)
	movq	_TIG_iO_qT0r_1_next_i_1_opaque_list_1(%rip), %rax
	movq	8(%rax), %rdx
	movq	-16(%rbp), %rax
	movq	%rdx, 8(%rax)
	movq	_TIG_iO_qT0r_1_next_i_1_opaque_list_1(%rip), %rdx
	movq	-16(%rbp), %rax
	movq	%rdx, (%rax)
	movq	_TIG_iO_qT0r_1_next_i_1_opaque_list_1(%rip), %rax
	movq	8(%rax), %rax
	movq	-16(%rbp), %rdx
	movq	%rdx, (%rax)
	movq	_TIG_iO_qT0r_1_next_i_1_opaque_list_1(%rip), %rax
	movq	-16(%rbp), %rdx
	movq	%rdx, 8(%rax)
	call	rand@PLT
	movl	%eax, -28(%rbp)
	movl	$24, %edi
	call	malloc@PLT
	movq	%rax, -8(%rbp)
	movq	-8(%rbp), %rax
	movl	-28(%rbp), %edx
	movl	%edx, 16(%rax)
	movq	_TIG_iO_qT0r_1_next_i_1_opaque_list_1(%rip), %rax
	movq	8(%rax), %rdx
	movq	-8(%rbp), %rax
	movq	%rdx, 8(%rax)
	movq	_TIG_iO_qT0r_1_next_i_1_opaque_list_1(%rip), %rdx
	movq	-8(%rbp), %rax
	movq	%rdx, (%rax)
	movq	_TIG_iO_qT0r_1_next_i_1_opaque_list_1(%rip), %rax
	movq	8(%rax), %rax
	movq	-8(%rbp), %rdx
	movq	%rdx, (%rax)
	movq	_TIG_iO_qT0r_1_next_i_1_opaque_list_1(%rip), %rax
	movq	-8(%rbp), %rdx
	movq	%rdx, 8(%rax)
	movq	_TIG_iO_qT0r_1_next_i_1_opaque_list_1(%rip), %rax
	movq	8(%rax), %rax
	movq	%rax, _TIG_iO_qT0r_1_next_i_1_opaque_ptr_1(%rip)
	movq	_TIG_iO_qT0r_1_next_i_1_opaque_ptr_1(%rip), %rax
	movq	%rax, _TIG_iO_qT0r_1_next_i_1_opaque_ptr_2(%rip)
	movq	_TIG_iO_qT0r_1_next_i_1_opaque_ptr_2(%rip), %rax
	movq	8(%rax), %rax
	movq	%rax, _TIG_iO_qT0r_1_next_i_1_opaque_ptr_2(%rip)
	nop
	nop
	movq	_TIG_iO_qT0r_1_usage_1_opaque_ptr_1(%rip), %rdx
	movq	_TIG_iO_qT0r_1_usage_1_opaque_ptr_2(%rip), %rax
	cmpq	%rax, %rdx
	je	.L28
	movl	$0, -36(%rbp)
	addl	$1, -36(%rbp)
.L28:
	movl	-36(%rbp), %ecx
	movslq	%ecx, %rax
	imulq	$1374389535, %rax, %rax
	shrq	$32, %rax
	sarl	$3, %eax
	movl	%ecx, %esi
	sarl	$31, %esi
	subl	%esi, %eax
	movl	%eax, %edx
	movl	%edx, %eax
	sall	$2, %eax
	addl	%edx, %eax
	leal	0(,%rax,4), %edx
	addl	%edx, %eax
	subl	%eax, %ecx
	movl	%ecx, %edx
	movslq	%edx, %rax
	leaq	0(,%rax,4), %rdx
	leaq	rand_primes(%rip), %rax
	movl	(%rdx,%rax), %eax
	leave
	.cfi_def_cfa 7, 8
	ret
	.cfi_endproc
.LFE5:
	.size	next_i, .-next_i
	.globl	next_f
	.type	next_f, @function
next_f:
.LFB6:
	.cfi_startproc
	endbr64
	pushq	%rbp
	.cfi_def_cfa_offset 16
	.cfi_offset 6, -16
	movq	%rsp, %rbp
	.cfi_def_cfa_register 6
	subq	$48, %rsp
#APP
# 36 "lac-dcc_jotai-benchmarks_extr_tenginesrccorengx_md5.c_ngx_md5_init_Final.c" 1
	##_ANNOTATION_INITIALREGION_-TIG-iO-qT0r-1-next-f--16
# 0 "" 2
# 40 "lac-dcc_jotai-benchmarks_extr_tenginesrccorengx_md5.c_ngx_md5_init_Final.c" 1
	##_ANNOTATION_ATOMICREGION_-TIG-iO-qT0r-1-next-f--15
# 0 "" 2
#NO_APP
	movl	$24, %edi
	call	malloc@PLT
	movq	%rax, -24(%rbp)
	movq	-24(%rbp), %rax
	movq	-24(%rbp), %rdx
	movq	%rdx, 16(%rax)
	movq	-24(%rbp), %rax
	movq	-24(%rbp), %rdx
	movq	%rdx, 8(%rax)
	movq	-24(%rbp), %rax
	movq	%rax, _TIG_iO_qT0r_1_next_f_1_opaque_list_1(%rip)
	call	rand@PLT
	movl	%eax, -36(%rbp)
	movl	$24, %edi
	call	malloc@PLT
	movq	%rax, -16(%rbp)
	movq	-16(%rbp), %rax
	movl	$0, (%rax)
	movq	_TIG_iO_qT0r_1_next_f_1_opaque_list_1(%rip), %rax
	movq	16(%rax), %rdx
	movq	-16(%rbp), %rax
	movq	%rdx, 16(%rax)
	movq	_TIG_iO_qT0r_1_next_f_1_opaque_list_1(%rip), %rdx
	movq	-16(%rbp), %rax
	movq	%rdx, 8(%rax)
	movq	_TIG_iO_qT0r_1_next_f_1_opaque_list_1(%rip), %rax
	movq	16(%rax), %rax
	movq	-16(%rbp), %rdx
	movq	%rdx, 8(%rax)
	movq	_TIG_iO_qT0r_1_next_f_1_opaque_list_1(%rip), %rax
	movq	-16(%rbp), %rdx
	movq	%rdx, 16(%rax)
	call	rand@PLT
	movl	%eax, -32(%rbp)
	movl	$24, %edi
	call	malloc@PLT
	movq	%rax, -8(%rbp)
	movq	-8(%rbp), %rax
	movl	-32(%rbp), %edx
	movl	%edx, (%rax)
	movq	_TIG_iO_qT0r_1_next_f_1_opaque_list_1(%rip), %rax
	movq	16(%rax), %rdx
	movq	-8(%rbp), %rax
	movq	%rdx, 16(%rax)
	movq	_TIG_iO_qT0r_1_next_f_1_opaque_list_1(%rip), %rdx
	movq	-8(%rbp), %rax
	movq	%rdx, 8(%rax)
	movq	_TIG_iO_qT0r_1_next_f_1_opaque_list_1(%rip), %rax
	movq	16(%rax), %rax
	movq	-8(%rbp), %rdx
	movq	%rdx, 8(%rax)
	movq	_TIG_iO_qT0r_1_next_f_1_opaque_list_1(%rip), %rax
	movq	-8(%rbp), %rdx
	movq	%rdx, 16(%rax)
	movq	_TIG_iO_qT0r_1_next_f_1_opaque_list_1(%rip), %rax
	movq	16(%rax), %rax
	movq	%rax, _TIG_iO_qT0r_1_next_f_1_opaque_ptr_1(%rip)
	movq	_TIG_iO_qT0r_1_next_f_1_opaque_ptr_1(%rip), %rax
	movq	%rax, _TIG_iO_qT0r_1_next_f_1_opaque_ptr_2(%rip)
	nop
	nop
	movl	$0, -28(%rbp)
	addl	$1, -28(%rbp)
	movq	_TIG_iO_qT0r_1_usage_1_opaque_ptr_1(%rip), %rdx
	movq	_TIG_iO_qT0r_1_usage_1_opaque_ptr_2(%rip), %rax
	cmpq	%rax, %rdx
	jne	.L31
	movss	.LC0(%rip), %xmm0
	jmp	.L32
.L31:
	movl	-28(%rbp), %ecx
	movslq	%ecx, %rax
	imulq	$1374389535, %rax, %rax
	shrq	$32, %rax
	sarl	$3, %eax
	movl	%ecx, %esi
	sarl	$31, %esi
	subl	%esi, %eax
	movl	%eax, %edx
	movl	%edx, %eax
	sall	$2, %eax
	addl	%edx, %eax
	leal	0(,%rax,4), %edx
	addl	%edx, %eax
	subl	%eax, %ecx
	movl	%ecx, %edx
	movslq	%edx, %rax
	leaq	0(,%rax,4), %rdx
	leaq	rand_primes(%rip), %rax
	movl	(%rdx,%rax), %eax
	movl	%eax, %eax
	testq	%rax, %rax
	js	.L33
	pxor	%xmm0, %xmm0
	cvtsi2ssq	%rax, %xmm0
	jmp	.L34
.L33:
	movq	%rax, %rdx
	shrq	%rdx
	andl	$1, %eax
	orq	%rax, %rdx
	pxor	%xmm0, %xmm0
	cvtsi2ssq	%rdx, %xmm0
	addss	%xmm0, %xmm0
.L34:
	movss	.LC1(%rip), %xmm1
	divss	%xmm1, %xmm0
.L32:
	leave
	.cfi_def_cfa 7, 8
	ret
	.cfi_endproc
.LFE6:
	.size	next_f, .-next_f
	.section	.rodata
	.align 8
.LC2:
	.string	"Usage:\n    prog [ARGS]\n\nARGS:\n       0            big-arr\n       1            big-arr-10x\n       2            empty\n"
	.text
	.globl	usage
	.type	usage, @function
usage:
.LFB8:
	.cfi_startproc
	endbr64
	pushq	%rbp
	.cfi_def_cfa_offset 16
	.cfi_offset 6, -16
	movq	%rsp, %rbp
	.cfi_def_cfa_register 6
	subq	$48, %rsp
#APP
# 55 "/usr/include/x86_64-linux-gnu/bits/byteswap.h" 1
	##_ANNOTATION_INITIALREGION_-TIG-iO-qT0r-1-usage--22
# 0 "" 2
# 59 "/usr/include/x86_64-linux-gnu/bits/byteswap.h" 1
	##_ANNOTATION_ATOMICREGION_-TIG-iO-qT0r-1-usage--21
# 0 "" 2
#NO_APP
	movl	$24, %edi
	call	malloc@PLT
	movq	%rax, -32(%rbp)
	movq	-32(%rbp), %rax
	movq	-32(%rbp), %rdx
	movq	%rdx, (%rax)
	movq	-32(%rbp), %rax
	movq	-32(%rbp), %rdx
	movq	%rdx, 16(%rax)
	movq	-32(%rbp), %rax
	movq	%rax, _TIG_iO_qT0r_1_usage_1_opaque_list_1(%rip)
	call	rand@PLT
	movl	%eax, -44(%rbp)
	movl	$24, %edi
	call	malloc@PLT
	movq	%rax, -24(%rbp)
	movq	-24(%rbp), %rax
	movl	$0, 8(%rax)
	movq	_TIG_iO_qT0r_1_usage_1_opaque_list_1(%rip), %rax
	movq	(%rax), %rdx
	movq	-24(%rbp), %rax
	movq	%rdx, (%rax)
	movq	_TIG_iO_qT0r_1_usage_1_opaque_list_1(%rip), %rdx
	movq	-24(%rbp), %rax
	movq	%rdx, 16(%rax)
	movq	_TIG_iO_qT0r_1_usage_1_opaque_list_1(%rip), %rax
	movq	(%rax), %rax
	movq	-24(%rbp), %rdx
	movq	%rdx, 16(%rax)
	movq	_TIG_iO_qT0r_1_usage_1_opaque_list_1(%rip), %rax
	movq	-24(%rbp), %rdx
	movq	%rdx, (%rax)
	call	rand@PLT
	movl	%eax, -40(%rbp)
	movl	$24, %edi
	call	malloc@PLT
	movq	%rax, -16(%rbp)
	movq	-16(%rbp), %rax
	movl	-40(%rbp), %edx
	movl	%edx, 8(%rax)
	movq	_TIG_iO_qT0r_1_usage_1_opaque_list_1(%rip), %rax
	movq	(%rax), %rdx
	movq	-16(%rbp), %rax
	movq	%rdx, (%rax)
	movq	_TIG_iO_qT0r_1_usage_1_opaque_list_1(%rip), %rdx
	movq	-16(%rbp), %rax
	movq	%rdx, 16(%rax)
	movq	_TIG_iO_qT0r_1_usage_1_opaque_list_1(%rip), %rax
	movq	(%rax), %rax
	movq	-16(%rbp), %rdx
	movq	%rdx, 16(%rax)
	movq	_TIG_iO_qT0r_1_usage_1_opaque_list_1(%rip), %rax
	movq	-16(%rbp), %rdx
	movq	%rdx, (%rax)
	call	rand@PLT
	movl	%eax, -36(%rbp)
	movl	$24, %edi
	call	malloc@PLT
	movq	%rax, -8(%rbp)
	movl	-36(%rbp), %eax
	leal	(%rax,%rax), %edx
	movq	-8(%rbp), %rax
	movl	%edx, 8(%rax)
	movq	_TIG_iO_qT0r_1_usage_1_opaque_list_1(%rip), %rax
	movq	(%rax), %rdx
	movq	-8(%rbp), %rax
	movq	%rdx, (%rax)
	movq	_TIG_iO_qT0r_1_usage_1_opaque_list_1(%rip), %rdx
	movq	-8(%rbp), %rax
	movq	%rdx, 16(%rax)
	movq	_TIG_iO_qT0r_1_usage_1_opaque_list_1(%rip), %rax
	movq	(%rax), %rax
	movq	-8(%rbp), %rdx
	movq	%rdx, 16(%rax)
	movq	_TIG_iO_qT0r_1_usage_1_opaque_list_1(%rip), %rax
	movq	-8(%rbp), %rdx
	movq	%rdx, (%rax)
	movq	_TIG_iO_qT0r_1_usage_1_opaque_list_1(%rip), %rax
	movq	(%rax), %rax
	movq	%rax, _TIG_iO_qT0r_1_usage_1_opaque_ptr_1(%rip)
	movq	_TIG_iO_qT0r_1_usage_1_opaque_ptr_1(%rip), %rax
	movq	%rax, _TIG_iO_qT0r_1_usage_1_opaque_ptr_2(%rip)
	movq	_TIG_iO_qT0r_1_usage_1_opaque_ptr_2(%rip), %rax
	movq	(%rax), %rax
	movq	%rax, _TIG_iO_qT0r_1_usage_1_opaque_ptr_2(%rip)
	nop
	nop
	movq	_TIG_iO_qT0r_1_usage_1_opaque_ptr_1(%rip), %rdx
	movq	_TIG_iO_qT0r_1_usage_1_opaque_ptr_2(%rip), %rax
	cmpq	%rax, %rdx
	je	.L36
	leaq	.LC2(%rip), %rax
	movq	%rax, %rdi
	call	puts@PLT
	jmp	.L35
.L36:
#APP
# 32 "lac-dcc_jotai-benchmarks_extr_tenginesrccorengx_md5.c_ngx_md5_init_Final.c" 1
	.byte 0x76,0xaa,0x1f,0xa9,0x5a,0xa3,0x44
# 0 "" 2
#NO_APP
	nop
.L35:
	leave
	.cfi_def_cfa 7, 8
	ret
	.cfi_endproc
.LFE8:
	.size	usage, .-usage
	.section	.rodata
	.align 4
.LC0:
	.long	1084227584
	.align 4
.LC1:
	.long	1228472176
	.ident	"GCC: (Ubuntu 11.4.0-1ubuntu1~22.04) 11.4.0"
	.section	.note.GNU-stack,"",@progbits
	.section	.note.gnu.property,"a"
	.align 8
	.long	1f - 0f
	.long	4f - 1f
	.long	5
0:
	.string	"GNU"
1:
	.align 8
	.long	0xc0000002
	.long	3f - 2f
2:
	.long	0x3
3:
	.align 8
4:
