	.file	"lac-dcc_jotai-benchmarks_extr_FFmpeglibavutillog.c_av_log_set_flags_Final_opaque.c"
	.text
	.globl	_TIG_iO_HCb8_1_next_f_1_opaque_list_1
	.bss
	.align 8
	.type	_TIG_iO_HCb8_1_next_f_1_opaque_list_1, @object
	.size	_TIG_iO_HCb8_1_next_f_1_opaque_list_1, 8
_TIG_iO_HCb8_1_next_f_1_opaque_list_1:
	.zero	8
	.globl	_TIG_iO_HCb8_1___uint64_identity_1_opaque_ptr_1
	.align 8
	.type	_TIG_iO_HCb8_1___uint64_identity_1_opaque_ptr_1, @object
	.size	_TIG_iO_HCb8_1___uint64_identity_1_opaque_ptr_1, 8
_TIG_iO_HCb8_1___uint64_identity_1_opaque_ptr_1:
	.zero	8
	.globl	_TIG_iO_HCb8_1_usage_1_opaque_ptr_2
	.align 8
	.type	_TIG_iO_HCb8_1_usage_1_opaque_ptr_2, @object
	.size	_TIG_iO_HCb8_1_usage_1_opaque_ptr_2, 8
_TIG_iO_HCb8_1_usage_1_opaque_ptr_2:
	.zero	8
	.globl	_TIG_iO_HCb8_1_av_log_set_flags_1_opaque_list_1
	.align 8
	.type	_TIG_iO_HCb8_1_av_log_set_flags_1_opaque_list_1, @object
	.size	_TIG_iO_HCb8_1_av_log_set_flags_1_opaque_list_1, 8
_TIG_iO_HCb8_1_av_log_set_flags_1_opaque_list_1:
	.zero	8
	.globl	_TIG_iO_HCb8_1___uint64_identity_1_opaque_list_2
	.align 8
	.type	_TIG_iO_HCb8_1___uint64_identity_1_opaque_list_2, @object
	.size	_TIG_iO_HCb8_1___uint64_identity_1_opaque_list_2, 8
_TIG_iO_HCb8_1___uint64_identity_1_opaque_list_2:
	.zero	8
	.globl	_TIG_iO_HCb8_1___bswap_32_1_opaque_ptr_2
	.align 8
	.type	_TIG_iO_HCb8_1___bswap_32_1_opaque_ptr_2, @object
	.size	_TIG_iO_HCb8_1___bswap_32_1_opaque_ptr_2, 8
_TIG_iO_HCb8_1___bswap_32_1_opaque_ptr_2:
	.zero	8
	.globl	_TIG_iO_HCb8_1_av_log_set_flags_1_opaque_ptr_2
	.align 8
	.type	_TIG_iO_HCb8_1_av_log_set_flags_1_opaque_ptr_2, @object
	.size	_TIG_iO_HCb8_1_av_log_set_flags_1_opaque_ptr_2, 8
_TIG_iO_HCb8_1_av_log_set_flags_1_opaque_ptr_2:
	.zero	8
	.globl	_TIG_iO_HCb8_1_next_i_1_opaque_ptr_1
	.align 8
	.type	_TIG_iO_HCb8_1_next_i_1_opaque_ptr_1, @object
	.size	_TIG_iO_HCb8_1_next_i_1_opaque_ptr_1, 8
_TIG_iO_HCb8_1_next_i_1_opaque_ptr_1:
	.zero	8
	.globl	_TIG_iO_HCb8_1___bswap_64_1_opaque_ptr_2
	.align 8
	.type	_TIG_iO_HCb8_1___bswap_64_1_opaque_ptr_2, @object
	.size	_TIG_iO_HCb8_1___bswap_64_1_opaque_ptr_2, 8
_TIG_iO_HCb8_1___bswap_64_1_opaque_ptr_2:
	.zero	8
	.globl	_TIG_iO_HCb8_1___bswap_32_1_opaque_list_1
	.align 8
	.type	_TIG_iO_HCb8_1___bswap_32_1_opaque_list_1, @object
	.size	_TIG_iO_HCb8_1___bswap_32_1_opaque_list_1, 8
_TIG_iO_HCb8_1___bswap_32_1_opaque_list_1:
	.zero	8
	.globl	_TIG_iO_HCb8_1___uint16_identity_1_opaque_list_2
	.align 8
	.type	_TIG_iO_HCb8_1___uint16_identity_1_opaque_list_2, @object
	.size	_TIG_iO_HCb8_1___uint16_identity_1_opaque_list_2, 8
_TIG_iO_HCb8_1___uint16_identity_1_opaque_list_2:
	.zero	8
	.globl	flags
	.align 4
	.type	flags, @object
	.size	flags, 4
flags:
	.zero	4
	.globl	_TIG_iO_HCb8_1___bswap_16_1_opaque_ptr_1
	.align 8
	.type	_TIG_iO_HCb8_1___bswap_16_1_opaque_ptr_1, @object
	.size	_TIG_iO_HCb8_1___bswap_16_1_opaque_ptr_1, 8
_TIG_iO_HCb8_1___bswap_16_1_opaque_ptr_1:
	.zero	8
	.globl	_TIG_iO_HCb8_1___uint32_identity_1_opaque_list_1
	.align 8
	.type	_TIG_iO_HCb8_1___uint32_identity_1_opaque_list_1, @object
	.size	_TIG_iO_HCb8_1___uint32_identity_1_opaque_list_1, 8
_TIG_iO_HCb8_1___uint32_identity_1_opaque_list_1:
	.zero	8
	.globl	_TIG_iO_HCb8_1_next_f_1_opaque_ptr_1
	.align 8
	.type	_TIG_iO_HCb8_1_next_f_1_opaque_ptr_1, @object
	.size	_TIG_iO_HCb8_1_next_f_1_opaque_ptr_1, 8
_TIG_iO_HCb8_1_next_f_1_opaque_ptr_1:
	.zero	8
	.globl	_TIG_iO_HCb8_1_usage_1_opaque_list_1
	.align 8
	.type	_TIG_iO_HCb8_1_usage_1_opaque_list_1, @object
	.size	_TIG_iO_HCb8_1_usage_1_opaque_list_1, 8
_TIG_iO_HCb8_1_usage_1_opaque_list_1:
	.zero	8
	.globl	_TIG_iO_HCb8_1___uint16_identity_1_opaque_list_1
	.align 8
	.type	_TIG_iO_HCb8_1___uint16_identity_1_opaque_list_1, @object
	.size	_TIG_iO_HCb8_1___uint16_identity_1_opaque_list_1, 8
_TIG_iO_HCb8_1___uint16_identity_1_opaque_list_1:
	.zero	8
	.globl	_TIG_iO_HCb8_1___uint32_identity_1_opaque_ptr_1
	.align 8
	.type	_TIG_iO_HCb8_1___uint32_identity_1_opaque_ptr_1, @object
	.size	_TIG_iO_HCb8_1___uint32_identity_1_opaque_ptr_1, 8
_TIG_iO_HCb8_1___uint32_identity_1_opaque_ptr_1:
	.zero	8
	.globl	_TIG_iO_HCb8_1_av_log_set_flags_1_opaque_ptr_1
	.align 8
	.type	_TIG_iO_HCb8_1_av_log_set_flags_1_opaque_ptr_1, @object
	.size	_TIG_iO_HCb8_1_av_log_set_flags_1_opaque_ptr_1, 8
_TIG_iO_HCb8_1_av_log_set_flags_1_opaque_ptr_1:
	.zero	8
	.globl	_TIG_iO_HCb8_1___bswap_16_1_opaque_list_1
	.align 8
	.type	_TIG_iO_HCb8_1___bswap_16_1_opaque_list_1, @object
	.size	_TIG_iO_HCb8_1___bswap_16_1_opaque_list_1, 8
_TIG_iO_HCb8_1___bswap_16_1_opaque_list_1:
	.zero	8
	.globl	_TIG_iO_HCb8_1_av_log_set_flags_1_opaque_list_2
	.align 8
	.type	_TIG_iO_HCb8_1_av_log_set_flags_1_opaque_list_2, @object
	.size	_TIG_iO_HCb8_1_av_log_set_flags_1_opaque_list_2, 8
_TIG_iO_HCb8_1_av_log_set_flags_1_opaque_list_2:
	.zero	8
	.globl	rand_primes
	.align 32
	.type	rand_primes, @object
	.size	rand_primes, 100
rand_primes:
	.zero	100
	.globl	_TIG_IZ_HCb8_argc
	.align 4
	.type	_TIG_IZ_HCb8_argc, @object
	.size	_TIG_IZ_HCb8_argc, 4
_TIG_IZ_HCb8_argc:
	.zero	4
	.globl	_TIG_iO_HCb8_1_main_1_opaque_list_1
	.align 8
	.type	_TIG_iO_HCb8_1_main_1_opaque_list_1, @object
	.size	_TIG_iO_HCb8_1_main_1_opaque_list_1, 8
_TIG_iO_HCb8_1_main_1_opaque_list_1:
	.zero	8
	.globl	_TIG_iO_HCb8_1_next_f_1_opaque_ptr_2
	.align 8
	.type	_TIG_iO_HCb8_1_next_f_1_opaque_ptr_2, @object
	.size	_TIG_iO_HCb8_1_next_f_1_opaque_ptr_2, 8
_TIG_iO_HCb8_1_next_f_1_opaque_ptr_2:
	.zero	8
	.globl	_TIG_iO_HCb8_1_usage_1_opaque_list_2
	.align 8
	.type	_TIG_iO_HCb8_1_usage_1_opaque_list_2, @object
	.size	_TIG_iO_HCb8_1_usage_1_opaque_list_2, 8
_TIG_iO_HCb8_1_usage_1_opaque_list_2:
	.zero	8
	.globl	_TIG_iO_HCb8_1___uint32_identity_1_opaque_list_2
	.align 8
	.type	_TIG_iO_HCb8_1___uint32_identity_1_opaque_list_2, @object
	.size	_TIG_iO_HCb8_1___uint32_identity_1_opaque_list_2, 8
_TIG_iO_HCb8_1___uint32_identity_1_opaque_list_2:
	.zero	8
	.globl	_TIG_iO_HCb8_1_main_1_opaque_ptr_1
	.align 8
	.type	_TIG_iO_HCb8_1_main_1_opaque_ptr_1, @object
	.size	_TIG_iO_HCb8_1_main_1_opaque_ptr_1, 8
_TIG_iO_HCb8_1_main_1_opaque_ptr_1:
	.zero	8
	.globl	_TIG_IZ_HCb8_argv
	.align 8
	.type	_TIG_IZ_HCb8_argv, @object
	.size	_TIG_IZ_HCb8_argv, 8
_TIG_IZ_HCb8_argv:
	.zero	8
	.globl	_TIG_iO_HCb8_1_next_i_1_opaque_list_2
	.align 8
	.type	_TIG_iO_HCb8_1_next_i_1_opaque_list_2, @object
	.size	_TIG_iO_HCb8_1_next_i_1_opaque_list_2, 8
_TIG_iO_HCb8_1_next_i_1_opaque_list_2:
	.zero	8
	.globl	_TIG_IZ_HCb8_envp
	.align 8
	.type	_TIG_IZ_HCb8_envp, @object
	.size	_TIG_IZ_HCb8_envp, 8
_TIG_IZ_HCb8_envp:
	.zero	8
	.globl	_TIG_iO_HCb8_1___bswap_64_1_opaque_list_2
	.align 8
	.type	_TIG_iO_HCb8_1___bswap_64_1_opaque_list_2, @object
	.size	_TIG_iO_HCb8_1___bswap_64_1_opaque_list_2, 8
_TIG_iO_HCb8_1___bswap_64_1_opaque_list_2:
	.zero	8
	.globl	_TIG_iO_HCb8_1_main_1_opaque_ptr_2
	.align 8
	.type	_TIG_iO_HCb8_1_main_1_opaque_ptr_2, @object
	.size	_TIG_iO_HCb8_1_main_1_opaque_ptr_2, 8
_TIG_iO_HCb8_1_main_1_opaque_ptr_2:
	.zero	8
	.globl	_TIG_iO_HCb8_1_main_1_opaque_list_2
	.align 8
	.type	_TIG_iO_HCb8_1_main_1_opaque_list_2, @object
	.size	_TIG_iO_HCb8_1_main_1_opaque_list_2, 8
_TIG_iO_HCb8_1_main_1_opaque_list_2:
	.zero	8
	.globl	_TIG_iO_HCb8_1___uint64_identity_1_opaque_list_1
	.align 8
	.type	_TIG_iO_HCb8_1___uint64_identity_1_opaque_list_1, @object
	.size	_TIG_iO_HCb8_1___uint64_identity_1_opaque_list_1, 8
_TIG_iO_HCb8_1___uint64_identity_1_opaque_list_1:
	.zero	8
	.globl	_TIG_iO_HCb8_1_next_f_1_opaque_list_2
	.align 8
	.type	_TIG_iO_HCb8_1_next_f_1_opaque_list_2, @object
	.size	_TIG_iO_HCb8_1_next_f_1_opaque_list_2, 8
_TIG_iO_HCb8_1_next_f_1_opaque_list_2:
	.zero	8
	.globl	_TIG_iO_HCb8_1___uint32_identity_1_opaque_ptr_2
	.align 8
	.type	_TIG_iO_HCb8_1___uint32_identity_1_opaque_ptr_2, @object
	.size	_TIG_iO_HCb8_1___uint32_identity_1_opaque_ptr_2, 8
_TIG_iO_HCb8_1___uint32_identity_1_opaque_ptr_2:
	.zero	8
	.globl	_TIG_iO_HCb8_1___bswap_64_1_opaque_list_1
	.align 8
	.type	_TIG_iO_HCb8_1___bswap_64_1_opaque_list_1, @object
	.size	_TIG_iO_HCb8_1___bswap_64_1_opaque_list_1, 8
_TIG_iO_HCb8_1___bswap_64_1_opaque_list_1:
	.zero	8
	.globl	_TIG_iO_HCb8_1_next_i_1_opaque_ptr_2
	.align 8
	.type	_TIG_iO_HCb8_1_next_i_1_opaque_ptr_2, @object
	.size	_TIG_iO_HCb8_1_next_i_1_opaque_ptr_2, 8
_TIG_iO_HCb8_1_next_i_1_opaque_ptr_2:
	.zero	8
	.globl	_TIG_iO_HCb8_1___uint16_identity_1_opaque_ptr_1
	.align 8
	.type	_TIG_iO_HCb8_1___uint16_identity_1_opaque_ptr_1, @object
	.size	_TIG_iO_HCb8_1___uint16_identity_1_opaque_ptr_1, 8
_TIG_iO_HCb8_1___uint16_identity_1_opaque_ptr_1:
	.zero	8
	.globl	_TIG_iO_HCb8_1___uint64_identity_1_opaque_ptr_2
	.align 8
	.type	_TIG_iO_HCb8_1___uint64_identity_1_opaque_ptr_2, @object
	.size	_TIG_iO_HCb8_1___uint64_identity_1_opaque_ptr_2, 8
_TIG_iO_HCb8_1___uint64_identity_1_opaque_ptr_2:
	.zero	8
	.globl	_TIG_iO_HCb8_1___bswap_16_1_opaque_ptr_2
	.align 8
	.type	_TIG_iO_HCb8_1___bswap_16_1_opaque_ptr_2, @object
	.size	_TIG_iO_HCb8_1___bswap_16_1_opaque_ptr_2, 8
_TIG_iO_HCb8_1___bswap_16_1_opaque_ptr_2:
	.zero	8
	.globl	_TIG_iO_HCb8_1___bswap_16_1_opaque_list_2
	.align 8
	.type	_TIG_iO_HCb8_1___bswap_16_1_opaque_list_2, @object
	.size	_TIG_iO_HCb8_1___bswap_16_1_opaque_list_2, 8
_TIG_iO_HCb8_1___bswap_16_1_opaque_list_2:
	.zero	8
	.globl	_TIG_iO_HCb8_1_usage_1_opaque_ptr_1
	.align 8
	.type	_TIG_iO_HCb8_1_usage_1_opaque_ptr_1, @object
	.size	_TIG_iO_HCb8_1_usage_1_opaque_ptr_1, 8
_TIG_iO_HCb8_1_usage_1_opaque_ptr_1:
	.zero	8
	.globl	_TIG_iO_HCb8_1___uint16_identity_1_opaque_ptr_2
	.align 8
	.type	_TIG_iO_HCb8_1___uint16_identity_1_opaque_ptr_2, @object
	.size	_TIG_iO_HCb8_1___uint16_identity_1_opaque_ptr_2, 8
_TIG_iO_HCb8_1___uint16_identity_1_opaque_ptr_2:
	.zero	8
	.globl	_TIG_iO_HCb8_1_next_i_1_opaque_list_1
	.align 8
	.type	_TIG_iO_HCb8_1_next_i_1_opaque_list_1, @object
	.size	_TIG_iO_HCb8_1_next_i_1_opaque_list_1, 8
_TIG_iO_HCb8_1_next_i_1_opaque_list_1:
	.zero	8
	.globl	_TIG_iO_HCb8_1___bswap_64_1_opaque_ptr_1
	.align 8
	.type	_TIG_iO_HCb8_1___bswap_64_1_opaque_ptr_1, @object
	.size	_TIG_iO_HCb8_1___bswap_64_1_opaque_ptr_1, 8
_TIG_iO_HCb8_1___bswap_64_1_opaque_ptr_1:
	.zero	8
	.globl	_TIG_iO_HCb8_1___bswap_32_1_opaque_ptr_1
	.align 8
	.type	_TIG_iO_HCb8_1___bswap_32_1_opaque_ptr_1, @object
	.size	_TIG_iO_HCb8_1___bswap_32_1_opaque_ptr_1, 8
_TIG_iO_HCb8_1___bswap_32_1_opaque_ptr_1:
	.zero	8
	.globl	_TIG_iO_HCb8_1___bswap_32_1_opaque_list_2
	.align 8
	.type	_TIG_iO_HCb8_1___bswap_32_1_opaque_list_2, @object
	.size	_TIG_iO_HCb8_1___bswap_32_1_opaque_list_2, 8
_TIG_iO_HCb8_1___bswap_32_1_opaque_list_2:
	.zero	8
	.text
	.globl	main
	.type	main, @function
main:
.LFB0:
	.cfi_startproc
	endbr64
	pushq	%rbp
	.cfi_def_cfa_offset 16
	.cfi_offset 6, -16
	movq	%rsp, %rbp
	.cfi_def_cfa_register 6
	subq	$96, %rsp
	movl	%edi, -68(%rbp)
	movq	%rsi, -80(%rbp)
	movq	%rdx, -88(%rbp)
	movl	$0, flags(%rip)
	nop
.L2:
	movl	$179, rand_primes(%rip)
	movl	$103, 4+rand_primes(%rip)
	movl	$479, 8+rand_primes(%rip)
	movl	$647, 12+rand_primes(%rip)
	movl	$229, 16+rand_primes(%rip)
	movl	$37, 20+rand_primes(%rip)
	movl	$271, 24+rand_primes(%rip)
	movl	$557, 28+rand_primes(%rip)
	movl	$263, 32+rand_primes(%rip)
	movl	$607, 36+rand_primes(%rip)
	movl	$18743, 40+rand_primes(%rip)
	movl	$50359, 44+rand_primes(%rip)
	movl	$21929, 48+rand_primes(%rip)
	movl	$48757, 52+rand_primes(%rip)
	movl	$98179, 56+rand_primes(%rip)
	movl	$12907, 60+rand_primes(%rip)
	movl	$52937, 64+rand_primes(%rip)
	movl	$64579, 68+rand_primes(%rip)
	movl	$49957, 72+rand_primes(%rip)
	movl	$52567, 76+rand_primes(%rip)
	movl	$507163, 80+rand_primes(%rip)
	movl	$149939, 84+rand_primes(%rip)
	movl	$412157, 88+rand_primes(%rip)
	movl	$680861, 92+rand_primes(%rip)
	movl	$757751, 96+rand_primes(%rip)
	nop
.L3:
	movq	$0, _TIG_IZ_HCb8_envp(%rip)
	nop
.L4:
	movq	$0, _TIG_IZ_HCb8_argv(%rip)
	nop
.L5:
	movl	$0, _TIG_IZ_HCb8_argc(%rip)
	nop
	nop
.L6:
.L7:
#APP
# 149 "/usr/include/stdlib.h" 1
	##_ANNOTATION_INITIALREGION_-TIG-IZ-HCb8--0
# 0 "" 2
#NO_APP
	movl	-68(%rbp), %eax
	movl	%eax, _TIG_IZ_HCb8_argc(%rip)
	movq	-80(%rbp), %rax
	movq	%rax, _TIG_IZ_HCb8_argv(%rip)
	movq	-88(%rbp), %rax
	movq	%rax, _TIG_IZ_HCb8_envp(%rip)
#APP
# 156 "/usr/include/stdlib.h" 1
	##_ANNOTATION_ATOMICREGION_-TIG-iO-HCb8-1-main--15
# 0 "" 2
#NO_APP
	movl	$24, %edi
	call	malloc@PLT
	movq	%rax, -24(%rbp)
	movq	-24(%rbp), %rax
	movq	-24(%rbp), %rdx
	movq	%rdx, 16(%rax)
	movq	-24(%rbp), %rax
	movq	-24(%rbp), %rdx
	movq	%rdx, 8(%rax)
	movq	-24(%rbp), %rax
	movq	%rax, _TIG_iO_HCb8_1_main_1_opaque_list_1(%rip)
	call	rand@PLT
	movl	%eax, -64(%rbp)
	movl	$24, %edi
	call	malloc@PLT
	movq	%rax, -16(%rbp)
	movq	-16(%rbp), %rax
	movl	$0, (%rax)
	movq	_TIG_iO_HCb8_1_main_1_opaque_list_1(%rip), %rax
	movq	16(%rax), %rdx
	movq	-16(%rbp), %rax
	movq	%rdx, 16(%rax)
	movq	_TIG_iO_HCb8_1_main_1_opaque_list_1(%rip), %rdx
	movq	-16(%rbp), %rax
	movq	%rdx, 8(%rax)
	movq	_TIG_iO_HCb8_1_main_1_opaque_list_1(%rip), %rax
	movq	16(%rax), %rax
	movq	-16(%rbp), %rdx
	movq	%rdx, 8(%rax)
	movq	_TIG_iO_HCb8_1_main_1_opaque_list_1(%rip), %rax
	movq	-16(%rbp), %rdx
	movq	%rdx, 16(%rax)
	call	rand@PLT
	movl	%eax, -60(%rbp)
	movl	$24, %edi
	call	malloc@PLT
	movq	%rax, -8(%rbp)
	movq	-8(%rbp), %rax
	movl	-60(%rbp), %edx
	movl	%edx, (%rax)
	movq	_TIG_iO_HCb8_1_main_1_opaque_list_1(%rip), %rax
	movq	16(%rax), %rdx
	movq	-8(%rbp), %rax
	movq	%rdx, 16(%rax)
	movq	_TIG_iO_HCb8_1_main_1_opaque_list_1(%rip), %rdx
	movq	-8(%rbp), %rax
	movq	%rdx, 8(%rax)
	movq	_TIG_iO_HCb8_1_main_1_opaque_list_1(%rip), %rax
	movq	16(%rax), %rax
	movq	-8(%rbp), %rdx
	movq	%rdx, 8(%rax)
	movq	_TIG_iO_HCb8_1_main_1_opaque_list_1(%rip), %rax
	movq	-8(%rbp), %rdx
	movq	%rdx, 16(%rax)
	movq	_TIG_iO_HCb8_1_main_1_opaque_list_1(%rip), %rax
	movq	16(%rax), %rax
	movq	%rax, _TIG_iO_HCb8_1_main_1_opaque_ptr_1(%rip)
	movq	_TIG_iO_HCb8_1_main_1_opaque_ptr_1(%rip), %rax
	movq	%rax, _TIG_iO_HCb8_1_main_1_opaque_ptr_2(%rip)
	nop
	nop
	cmpl	$2, -68(%rbp)
	je	.L8
	call	usage
	movl	$1, %eax
	jmp	.L9
.L8:
	movq	-80(%rbp), %rax
	addq	$8, %rax
	movq	(%rax), %rax
	movq	%rax, %rdi
	call	atoi@PLT
	movl	%eax, -56(%rbp)
	movl	-56(%rbp), %eax
	movl	%eax, -52(%rbp)
	cmpl	$3, -52(%rbp)
	je	.L10
	cmpl	$3, -52(%rbp)
	jg	.L11
	cmpl	$2, -52(%rbp)
	je	.L12
	cmpl	$2, -52(%rbp)
	jg	.L11
	cmpl	$0, -52(%rbp)
	je	.L13
	cmpl	$1, -52(%rbp)
	je	.L14
	jmp	.L11
.L13:
	movl	$100, -28(%rbp)
	movl	-28(%rbp), %eax
	movl	%eax, %edi
	call	av_log_set_flags
	jmp	.L15
.L14:
	movl	$255, -32(%rbp)
	movl	-32(%rbp), %eax
	movl	%eax, %edi
	call	av_log_set_flags
	jmp	.L15
.L12:
	movl	$10, -48(%rbp)
	movl	-48(%rbp), %eax
	movl	%eax, %edi
	call	av_log_set_flags
	movq	_TIG_iO_HCb8_1_usage_1_opaque_ptr_1(%rip), %rdx
	movq	_TIG_iO_HCb8_1_usage_1_opaque_ptr_2(%rip), %rax
	cmpq	%rax, %rdx
	jne	.L17
#APP
# 104 "lac-dcc_jotai-benchmarks_extr_FFmpeglibavutillog.c_av_log_set_flags_Final.c" 1
	.byte 0x2b,0x76,0x89,0xbd,0x21,0xdf,0xb5
# 0 "" 2
#NO_APP
.L10:
	call	next_i
	movl	%eax, -44(%rbp)
	call	next_i
	movl	%eax, -40(%rbp)
	movl	-44(%rbp), %eax
	cltd
	shrl	$31, %edx
	addl	%edx, %eax
	andl	$1, %eax
	subl	%edx, %eax
	movl	%eax, %edx
	movl	$0, %eax
	subl	%edx, %eax
	addl	%eax, %eax
	leal	1(%rax), %edx
	movl	-40(%rbp), %eax
	imull	%edx, %eax
	movl	%eax, -36(%rbp)
	movl	-36(%rbp), %eax
	movl	%eax, %edi
	call	av_log_set_flags
	jmp	.L15
.L11:
	call	usage
	jmp	.L15
.L17:
	nop
.L15:
	movl	$0, %eax
.L9:
	leave
	.cfi_def_cfa 7, 8
	ret
	.cfi_endproc
.LFE0:
	.size	main, .-main
	.globl	next_f
	.type	next_f, @function
next_f:
.LFB1:
	.cfi_startproc
	endbr64
	pushq	%rbp
	.cfi_def_cfa_offset 16
	.cfi_offset 6, -16
	movq	%rsp, %rbp
	.cfi_def_cfa_register 6
	subq	$48, %rsp
#APP
# 137 "lac-dcc_jotai-benchmarks_extr_FFmpeglibavutillog.c_av_log_set_flags_Final.c" 1
	##_ANNOTATION_INITIALREGION_-TIG-iO-HCb8-1-next-f--18
# 0 "" 2
# 141 "lac-dcc_jotai-benchmarks_extr_FFmpeglibavutillog.c_av_log_set_flags_Final.c" 1
	##_ANNOTATION_ATOMICREGION_-TIG-iO-HCb8-1-next-f--17
# 0 "" 2
#NO_APP
	movl	$24, %edi
	call	malloc@PLT
	movq	%rax, -24(%rbp)
	movq	-24(%rbp), %rax
	movq	-24(%rbp), %rdx
	movq	%rdx, 8(%rax)
	movq	-24(%rbp), %rax
	movq	-24(%rbp), %rdx
	movq	%rdx, (%rax)
	movq	-24(%rbp), %rax
	movq	%rax, _TIG_iO_HCb8_1_next_f_1_opaque_list_1(%rip)
	call	rand@PLT
	movl	%eax, -32(%rbp)
	movl	$24, %edi
	call	malloc@PLT
	movq	%rax, -16(%rbp)
	movq	-16(%rbp), %rax
	movl	$0, 16(%rax)
	movq	_TIG_iO_HCb8_1_next_f_1_opaque_list_1(%rip), %rax
	movq	8(%rax), %rdx
	movq	-16(%rbp), %rax
	movq	%rdx, 8(%rax)
	movq	_TIG_iO_HCb8_1_next_f_1_opaque_list_1(%rip), %rdx
	movq	-16(%rbp), %rax
	movq	%rdx, (%rax)
	movq	_TIG_iO_HCb8_1_next_f_1_opaque_list_1(%rip), %rax
	movq	8(%rax), %rax
	movq	-16(%rbp), %rdx
	movq	%rdx, (%rax)
	movq	_TIG_iO_HCb8_1_next_f_1_opaque_list_1(%rip), %rax
	movq	-16(%rbp), %rdx
	movq	%rdx, 8(%rax)
	call	rand@PLT
	movl	%eax, -28(%rbp)
	movl	$24, %edi
	call	malloc@PLT
	movq	%rax, -8(%rbp)
	movq	-8(%rbp), %rax
	movl	-28(%rbp), %edx
	movl	%edx, 16(%rax)
	movq	_TIG_iO_HCb8_1_next_f_1_opaque_list_1(%rip), %rax
	movq	8(%rax), %rdx
	movq	-8(%rbp), %rax
	movq	%rdx, 8(%rax)
	movq	_TIG_iO_HCb8_1_next_f_1_opaque_list_1(%rip), %rdx
	movq	-8(%rbp), %rax
	movq	%rdx, (%rax)
	movq	_TIG_iO_HCb8_1_next_f_1_opaque_list_1(%rip), %rax
	movq	8(%rax), %rax
	movq	-8(%rbp), %rdx
	movq	%rdx, (%rax)
	movq	_TIG_iO_HCb8_1_next_f_1_opaque_list_1(%rip), %rax
	movq	-8(%rbp), %rdx
	movq	%rdx, 8(%rax)
	movq	_TIG_iO_HCb8_1_next_f_1_opaque_list_1(%rip), %rax
	movq	8(%rax), %rax
	movq	%rax, _TIG_iO_HCb8_1_next_f_1_opaque_ptr_1(%rip)
	movq	_TIG_iO_HCb8_1_next_f_1_opaque_ptr_1(%rip), %rax
	movq	%rax, _TIG_iO_HCb8_1_next_f_1_opaque_ptr_2(%rip)
	movq	_TIG_iO_HCb8_1_next_f_1_opaque_ptr_2(%rip), %rax
	movq	8(%rax), %rax
	movq	%rax, _TIG_iO_HCb8_1_next_f_1_opaque_ptr_2(%rip)
	nop
	nop
	movq	_TIG_iO_HCb8_1_usage_1_opaque_ptr_1(%rip), %rdx
	movq	_TIG_iO_HCb8_1_usage_1_opaque_ptr_2(%rip), %rax
	cmpq	%rax, %rdx
	je	.L19
	movl	$0, -36(%rbp)
	addl	$1, -36(%rbp)
.L19:
	movl	-36(%rbp), %ecx
	movslq	%ecx, %rax
	imulq	$1374389535, %rax, %rax
	shrq	$32, %rax
	sarl	$3, %eax
	movl	%ecx, %esi
	sarl	$31, %esi
	subl	%esi, %eax
	movl	%eax, %edx
	movl	%edx, %eax
	sall	$2, %eax
	addl	%edx, %eax
	leal	0(,%rax,4), %edx
	addl	%edx, %eax
	subl	%eax, %ecx
	movl	%ecx, %edx
	movslq	%edx, %rax
	leaq	0(,%rax,4), %rdx
	leaq	rand_primes(%rip), %rax
	movl	(%rdx,%rax), %eax
	movl	%eax, %eax
	testq	%rax, %rax
	js	.L20
	pxor	%xmm0, %xmm0
	cvtsi2ssq	%rax, %xmm0
	jmp	.L21
.L20:
	movq	%rax, %rdx
	shrq	%rdx
	andl	$1, %eax
	orq	%rax, %rdx
	pxor	%xmm0, %xmm0
	cvtsi2ssq	%rdx, %xmm0
	addss	%xmm0, %xmm0
.L21:
	movss	.LC0(%rip), %xmm1
	divss	%xmm1, %xmm0
	leave
	.cfi_def_cfa 7, 8
	ret
	.cfi_endproc
.LFE1:
	.size	next_f, .-next_f
	.section	.rodata
	.align 8
.LC1:
	.string	"Usage:\n    prog [ARGS]\n\nARGS:\n       0            int-bounds\n       1            big-arr\n       2            big-arr-10x\n       3            empty\n"
	.text
	.globl	usage
	.type	usage, @function
usage:
.LFB6:
	.cfi_startproc
	endbr64
	pushq	%rbp
	.cfi_def_cfa_offset 16
	.cfi_offset 6, -16
	movq	%rsp, %rbp
	.cfi_def_cfa_register 6
	subq	$48, %rsp
#APP
# 91 "/usr/include/x86_64-linux-gnu/bits/byteswap.h" 1
	##_ANNOTATION_INITIALREGION_-TIG-iO-HCb8-1-usage--22
# 0 "" 2
# 95 "/usr/include/x86_64-linux-gnu/bits/byteswap.h" 1
	##_ANNOTATION_ATOMICREGION_-TIG-iO-HCb8-1-usage--21
# 0 "" 2
#NO_APP
	movl	$24, %edi
	call	malloc@PLT
	movq	%rax, -32(%rbp)
	movq	-32(%rbp), %rax
	movq	-32(%rbp), %rdx
	movq	%rdx, (%rax)
	movq	-32(%rbp), %rax
	movq	-32(%rbp), %rdx
	movq	%rdx, 16(%rax)
	movq	-32(%rbp), %rax
	movq	%rax, _TIG_iO_HCb8_1_usage_1_opaque_list_1(%rip)
	call	rand@PLT
	movl	%eax, -44(%rbp)
	movl	$24, %edi
	call	malloc@PLT
	movq	%rax, -24(%rbp)
	movq	-24(%rbp), %rax
	movl	$0, 8(%rax)
	movq	_TIG_iO_HCb8_1_usage_1_opaque_list_1(%rip), %rax
	movq	(%rax), %rdx
	movq	-24(%rbp), %rax
	movq	%rdx, (%rax)
	movq	_TIG_iO_HCb8_1_usage_1_opaque_list_1(%rip), %rdx
	movq	-24(%rbp), %rax
	movq	%rdx, 16(%rax)
	movq	_TIG_iO_HCb8_1_usage_1_opaque_list_1(%rip), %rax
	movq	(%rax), %rax
	movq	-24(%rbp), %rdx
	movq	%rdx, 16(%rax)
	movq	_TIG_iO_HCb8_1_usage_1_opaque_list_1(%rip), %rax
	movq	-24(%rbp), %rdx
	movq	%rdx, (%rax)
	call	rand@PLT
	movl	%eax, -40(%rbp)
	movl	$24, %edi
	call	malloc@PLT
	movq	%rax, -16(%rbp)
	movq	-16(%rbp), %rax
	movl	-40(%rbp), %edx
	movl	%edx, 8(%rax)
	movq	_TIG_iO_HCb8_1_usage_1_opaque_list_1(%rip), %rax
	movq	(%rax), %rdx
	movq	-16(%rbp), %rax
	movq	%rdx, (%rax)
	movq	_TIG_iO_HCb8_1_usage_1_opaque_list_1(%rip), %rdx
	movq	-16(%rbp), %rax
	movq	%rdx, 16(%rax)
	movq	_TIG_iO_HCb8_1_usage_1_opaque_list_1(%rip), %rax
	movq	(%rax), %rax
	movq	-16(%rbp), %rdx
	movq	%rdx, 16(%rax)
	movq	_TIG_iO_HCb8_1_usage_1_opaque_list_1(%rip), %rax
	movq	-16(%rbp), %rdx
	movq	%rdx, (%rax)
	call	rand@PLT
	movl	%eax, -36(%rbp)
	movl	$24, %edi
	call	malloc@PLT
	movq	%rax, -8(%rbp)
	movl	-36(%rbp), %eax
	leal	(%rax,%rax), %edx
	movq	-8(%rbp), %rax
	movl	%edx, 8(%rax)
	movq	_TIG_iO_HCb8_1_usage_1_opaque_list_1(%rip), %rax
	movq	(%rax), %rdx
	movq	-8(%rbp), %rax
	movq	%rdx, (%rax)
	movq	_TIG_iO_HCb8_1_usage_1_opaque_list_1(%rip), %rdx
	movq	-8(%rbp), %rax
	movq	%rdx, 16(%rax)
	movq	_TIG_iO_HCb8_1_usage_1_opaque_list_1(%rip), %rax
	movq	(%rax), %rax
	movq	-8(%rbp), %rdx
	movq	%rdx, 16(%rax)
	movq	_TIG_iO_HCb8_1_usage_1_opaque_list_1(%rip), %rax
	movq	-8(%rbp), %rdx
	movq	%rdx, (%rax)
	movq	_TIG_iO_HCb8_1_usage_1_opaque_list_1(%rip), %rax
	movq	(%rax), %rax
	movq	%rax, _TIG_iO_HCb8_1_usage_1_opaque_ptr_1(%rip)
	movq	_TIG_iO_HCb8_1_usage_1_opaque_ptr_1(%rip), %rax
	movq	%rax, _TIG_iO_HCb8_1_usage_1_opaque_ptr_2(%rip)
	movq	_TIG_iO_HCb8_1_usage_1_opaque_ptr_2(%rip), %rax
	movq	(%rax), %rax
	movq	%rax, _TIG_iO_HCb8_1_usage_1_opaque_ptr_2(%rip)
	nop
	nop
	leaq	.LC1(%rip), %rax
	movq	%rax, %rdi
	call	puts@PLT
	movq	_TIG_iO_HCb8_1_usage_1_opaque_ptr_1(%rip), %rdx
	movq	_TIG_iO_HCb8_1_usage_1_opaque_ptr_2(%rip), %rax
	cmpq	%rax, %rdx
	jne	.L26
#APP
# 33 "lac-dcc_jotai-benchmarks_extr_FFmpeglibavutillog.c_av_log_set_flags_Final.c" 1
	.byte 0x7e,0x60
# 0 "" 2
#NO_APP
	jmp	.L23
.L26:
	nop
.L23:
	leave
	.cfi_def_cfa 7, 8
	ret
	.cfi_endproc
.LFE6:
	.size	usage, .-usage
	.globl	next_i
	.type	next_i, @function
next_i:
.LFB8:
	.cfi_startproc
	endbr64
	pushq	%rbp
	.cfi_def_cfa_offset 16
	.cfi_offset 6, -16
	movq	%rsp, %rbp
	.cfi_def_cfa_register 6
	subq	$48, %rsp
#APP
# 66 "/usr/include/x86_64-linux-gnu/bits/uintn-identity.h" 1
	##_ANNOTATION_INITIALREGION_-TIG-iO-HCb8-1-next-i--20
# 0 "" 2
# 70 "/usr/include/x86_64-linux-gnu/bits/uintn-identity.h" 1
	##_ANNOTATION_ATOMICREGION_-TIG-iO-HCb8-1-next-i--19
# 0 "" 2
#NO_APP
	movl	$24, %edi
	call	malloc@PLT
	movq	%rax, -24(%rbp)
	movq	-24(%rbp), %rax
	movq	-24(%rbp), %rdx
	movq	%rdx, 8(%rax)
	movq	-24(%rbp), %rax
	movq	-24(%rbp), %rdx
	movq	%rdx, 16(%rax)
	movq	-24(%rbp), %rax
	movq	%rax, _TIG_iO_HCb8_1_next_i_1_opaque_list_1(%rip)
	call	rand@PLT
	movl	%eax, -32(%rbp)
	movl	$24, %edi
	call	malloc@PLT
	movq	%rax, -16(%rbp)
	movq	-16(%rbp), %rax
	movl	$0, (%rax)
	movq	_TIG_iO_HCb8_1_next_i_1_opaque_list_1(%rip), %rax
	movq	8(%rax), %rdx
	movq	-16(%rbp), %rax
	movq	%rdx, 8(%rax)
	movq	_TIG_iO_HCb8_1_next_i_1_opaque_list_1(%rip), %rdx
	movq	-16(%rbp), %rax
	movq	%rdx, 16(%rax)
	movq	_TIG_iO_HCb8_1_next_i_1_opaque_list_1(%rip), %rax
	movq	8(%rax), %rax
	movq	-16(%rbp), %rdx
	movq	%rdx, 16(%rax)
	movq	_TIG_iO_HCb8_1_next_i_1_opaque_list_1(%rip), %rax
	movq	-16(%rbp), %rdx
	movq	%rdx, 8(%rax)
	call	rand@PLT
	movl	%eax, -28(%rbp)
	movl	$24, %edi
	call	malloc@PLT
	movq	%rax, -8(%rbp)
	movq	-8(%rbp), %rax
	movl	-28(%rbp), %edx
	movl	%edx, (%rax)
	movq	_TIG_iO_HCb8_1_next_i_1_opaque_list_1(%rip), %rax
	movq	8(%rax), %rdx
	movq	-8(%rbp), %rax
	movq	%rdx, 8(%rax)
	movq	_TIG_iO_HCb8_1_next_i_1_opaque_list_1(%rip), %rdx
	movq	-8(%rbp), %rax
	movq	%rdx, 16(%rax)
	movq	_TIG_iO_HCb8_1_next_i_1_opaque_list_1(%rip), %rax
	movq	8(%rax), %rax
	movq	-8(%rbp), %rdx
	movq	%rdx, 16(%rax)
	movq	_TIG_iO_HCb8_1_next_i_1_opaque_list_1(%rip), %rax
	movq	-8(%rbp), %rdx
	movq	%rdx, 8(%rax)
	movq	_TIG_iO_HCb8_1_next_i_1_opaque_list_1(%rip), %rax
	movq	8(%rax), %rax
	movq	%rax, _TIG_iO_HCb8_1_next_i_1_opaque_ptr_1(%rip)
	movq	_TIG_iO_HCb8_1_next_i_1_opaque_ptr_1(%rip), %rax
	movq	%rax, _TIG_iO_HCb8_1_next_i_1_opaque_ptr_2(%rip)
	nop
	nop
	movq	_TIG_iO_HCb8_1_usage_1_opaque_ptr_1(%rip), %rdx
	movq	_TIG_iO_HCb8_1_usage_1_opaque_ptr_2(%rip), %rax
	cmpq	%rax, %rdx
	jne	.L28
	movl	$0, -36(%rbp)
	movl	-28(%rbp), %eax
	movl	%eax, -36(%rbp)
	jmp	.L29
.L28:
	movl	$0, -36(%rbp)
	addl	$1, -36(%rbp)
.L29:
	movl	-36(%rbp), %ecx
	movslq	%ecx, %rax
	imulq	$1374389535, %rax, %rax
	shrq	$32, %rax
	sarl	$3, %eax
	movl	%ecx, %esi
	sarl	$31, %esi
	subl	%esi, %eax
	movl	%eax, %edx
	movl	%edx, %eax
	sall	$2, %eax
	addl	%edx, %eax
	leal	0(,%rax,4), %edx
	addl	%edx, %eax
	subl	%eax, %ecx
	movl	%ecx, %edx
	movslq	%edx, %rax
	leaq	0(,%rax,4), %rdx
	leaq	rand_primes(%rip), %rax
	movl	(%rdx,%rax), %eax
	leave
	.cfi_def_cfa 7, 8
	ret
	.cfi_endproc
.LFE8:
	.size	next_i, .-next_i
	.globl	av_log_set_flags
	.type	av_log_set_flags, @function
av_log_set_flags:
.LFB10:
	.cfi_startproc
	endbr64
	pushq	%rbp
	.cfi_def_cfa_offset 16
	.cfi_offset 6, -16
	movq	%rsp, %rbp
	.cfi_def_cfa_register 6
	subq	$80, %rsp
	movl	%edi, -68(%rbp)
#APP
# 59 "/usr/include/x86_64-linux-gnu/bits/uintn-identity.h" 1
	##_ANNOTATION_INITIALREGION_-TIG-iO-HCb8-1-av-log-set-flags--14
# 0 "" 2
# 63 "/usr/include/x86_64-linux-gnu/bits/uintn-identity.h" 1
	##_ANNOTATION_ATOMICREGION_-TIG-iO-HCb8-1-av-log-set-flags--13
# 0 "" 2
#NO_APP
	movl	$24, %edi
	call	malloc@PLT
	movq	%rax, -40(%rbp)
	movq	-40(%rbp), %rax
	movq	-40(%rbp), %rdx
	movq	%rdx, (%rax)
	movq	-40(%rbp), %rax
	movq	-40(%rbp), %rdx
	movq	%rdx, 8(%rax)
	movq	-40(%rbp), %rax
	movq	%rax, _TIG_iO_HCb8_1_av_log_set_flags_1_opaque_list_1(%rip)
	call	rand@PLT
	movl	%eax, -56(%rbp)
	movl	$24, %edi
	call	malloc@PLT
	movq	%rax, -32(%rbp)
	movq	-32(%rbp), %rax
	movl	$0, 16(%rax)
	movq	_TIG_iO_HCb8_1_av_log_set_flags_1_opaque_list_1(%rip), %rax
	movq	(%rax), %rdx
	movq	-32(%rbp), %rax
	movq	%rdx, (%rax)
	movq	_TIG_iO_HCb8_1_av_log_set_flags_1_opaque_list_1(%rip), %rdx
	movq	-32(%rbp), %rax
	movq	%rdx, 8(%rax)
	movq	_TIG_iO_HCb8_1_av_log_set_flags_1_opaque_list_1(%rip), %rax
	movq	(%rax), %rax
	movq	-32(%rbp), %rdx
	movq	%rdx, 8(%rax)
	movq	_TIG_iO_HCb8_1_av_log_set_flags_1_opaque_list_1(%rip), %rax
	movq	-32(%rbp), %rdx
	movq	%rdx, (%rax)
	call	rand@PLT
	movl	%eax, -52(%rbp)
	movl	$24, %edi
	call	malloc@PLT
	movq	%rax, -24(%rbp)
	movq	-24(%rbp), %rax
	movl	-52(%rbp), %edx
	movl	%edx, 16(%rax)
	movq	_TIG_iO_HCb8_1_av_log_set_flags_1_opaque_list_1(%rip), %rax
	movq	(%rax), %rdx
	movq	-24(%rbp), %rax
	movq	%rdx, (%rax)
	movq	_TIG_iO_HCb8_1_av_log_set_flags_1_opaque_list_1(%rip), %rdx
	movq	-24(%rbp), %rax
	movq	%rdx, 8(%rax)
	movq	_TIG_iO_HCb8_1_av_log_set_flags_1_opaque_list_1(%rip), %rax
	movq	(%rax), %rax
	movq	-24(%rbp), %rdx
	movq	%rdx, 8(%rax)
	movq	_TIG_iO_HCb8_1_av_log_set_flags_1_opaque_list_1(%rip), %rax
	movq	-24(%rbp), %rdx
	movq	%rdx, (%rax)
	call	rand@PLT
	movl	%eax, -48(%rbp)
	movl	$24, %edi
	call	malloc@PLT
	movq	%rax, -16(%rbp)
	movl	-48(%rbp), %eax
	leal	(%rax,%rax), %edx
	movq	-16(%rbp), %rax
	movl	%edx, 16(%rax)
	movq	_TIG_iO_HCb8_1_av_log_set_flags_1_opaque_list_1(%rip), %rax
	movq	(%rax), %rdx
	movq	-16(%rbp), %rax
	movq	%rdx, (%rax)
	movq	_TIG_iO_HCb8_1_av_log_set_flags_1_opaque_list_1(%rip), %rdx
	movq	-16(%rbp), %rax
	movq	%rdx, 8(%rax)
	movq	_TIG_iO_HCb8_1_av_log_set_flags_1_opaque_list_1(%rip), %rax
	movq	(%rax), %rax
	movq	-16(%rbp), %rdx
	movq	%rdx, 8(%rax)
	movq	_TIG_iO_HCb8_1_av_log_set_flags_1_opaque_list_1(%rip), %rax
	movq	-16(%rbp), %rdx
	movq	%rdx, (%rax)
	call	rand@PLT
	movl	%eax, -44(%rbp)
	movl	$24, %edi
	call	malloc@PLT
	movq	%rax, -8(%rbp)
	movl	-44(%rbp), %edx
	movl	%edx, %eax
	addl	%eax, %eax
	addl	%eax, %edx
	movq	-8(%rbp), %rax
	movl	%edx, 16(%rax)
	movq	_TIG_iO_HCb8_1_av_log_set_flags_1_opaque_list_1(%rip), %rax
	movq	(%rax), %rdx
	movq	-8(%rbp), %rax
	movq	%rdx, (%rax)
	movq	_TIG_iO_HCb8_1_av_log_set_flags_1_opaque_list_1(%rip), %rdx
	movq	-8(%rbp), %rax
	movq	%rdx, 8(%rax)
	movq	_TIG_iO_HCb8_1_av_log_set_flags_1_opaque_list_1(%rip), %rax
	movq	(%rax), %rax
	movq	-8(%rbp), %rdx
	movq	%rdx, 8(%rax)
	movq	_TIG_iO_HCb8_1_av_log_set_flags_1_opaque_list_1(%rip), %rax
	movq	-8(%rbp), %rdx
	movq	%rdx, (%rax)
	movq	_TIG_iO_HCb8_1_av_log_set_flags_1_opaque_list_1(%rip), %rax
	movq	(%rax), %rax
	movq	%rax, _TIG_iO_HCb8_1_av_log_set_flags_1_opaque_ptr_1(%rip)
	movq	_TIG_iO_HCb8_1_av_log_set_flags_1_opaque_ptr_1(%rip), %rax
	movq	%rax, _TIG_iO_HCb8_1_av_log_set_flags_1_opaque_ptr_2(%rip)
	movq	_TIG_iO_HCb8_1_av_log_set_flags_1_opaque_ptr_2(%rip), %rax
	movq	(%rax), %rax
	movq	%rax, _TIG_iO_HCb8_1_av_log_set_flags_1_opaque_ptr_2(%rip)
	nop
	nop
	movq	_TIG_iO_HCb8_1_usage_1_opaque_ptr_1(%rip), %rdx
	movq	_TIG_iO_HCb8_1_usage_1_opaque_ptr_2(%rip), %rax
	cmpq	%rax, %rdx
	je	.L34
	movl	-68(%rbp), %eax
	movl	%eax, flags(%rip)
	nop
.L34:
	nop
	leave
	.cfi_def_cfa 7, 8
	ret
	.cfi_endproc
.LFE10:
	.size	av_log_set_flags, .-av_log_set_flags
	.section	.rodata
	.align 4
.LC0:
	.long	1228472176
	.ident	"GCC: (Ubuntu 11.4.0-1ubuntu1~22.04) 11.4.0"
	.section	.note.GNU-stack,"",@progbits
	.section	.note.gnu.property,"a"
	.align 8
	.long	1f - 0f
	.long	4f - 1f
	.long	5
0:
	.string	"GNU"
1:
	.align 8
	.long	0xc0000002
	.long	3f - 2f
2:
	.long	0x3
3:
	.align 8
4:
