	.file	"lac-dcc_jotai-benchmarks_extr_linuxdriversmediai2cadv7511.c_hdmi_infoframe_checksum_Final_opaque.c"
	.text
	.globl	_TIG_iO_pRgd_1_next_f_1_opaque_ptr_1
	.bss
	.align 8
	.type	_TIG_iO_pRgd_1_next_f_1_opaque_ptr_1, @object
	.size	_TIG_iO_pRgd_1_next_f_1_opaque_ptr_1, 8
_TIG_iO_pRgd_1_next_f_1_opaque_ptr_1:
	.zero	8
	.globl	_TIG_iO_pRgd_1___bswap_32_1_opaque_ptr_2
	.align 8
	.type	_TIG_iO_pRgd_1___bswap_32_1_opaque_ptr_2, @object
	.size	_TIG_iO_pRgd_1___bswap_32_1_opaque_ptr_2, 8
_TIG_iO_pRgd_1___bswap_32_1_opaque_ptr_2:
	.zero	8
	.globl	_TIG_iO_pRgd_1___bswap_32_1_opaque_list_2
	.align 8
	.type	_TIG_iO_pRgd_1___bswap_32_1_opaque_list_2, @object
	.size	_TIG_iO_pRgd_1___bswap_32_1_opaque_list_2, 8
_TIG_iO_pRgd_1___bswap_32_1_opaque_list_2:
	.zero	8
	.globl	_TIG_iO_pRgd_1_hdmi_infoframe_checksum_1_opaque_list_1
	.align 8
	.type	_TIG_iO_pRgd_1_hdmi_infoframe_checksum_1_opaque_list_1, @object
	.size	_TIG_iO_pRgd_1_hdmi_infoframe_checksum_1_opaque_list_1, 8
_TIG_iO_pRgd_1_hdmi_infoframe_checksum_1_opaque_list_1:
	.zero	8
	.globl	_TIG_iO_pRgd_1___bswap_64_1_opaque_list_1
	.align 8
	.type	_TIG_iO_pRgd_1___bswap_64_1_opaque_list_1, @object
	.size	_TIG_iO_pRgd_1___bswap_64_1_opaque_list_1, 8
_TIG_iO_pRgd_1___bswap_64_1_opaque_list_1:
	.zero	8
	.globl	_TIG_iO_pRgd_1___bswap_32_1_opaque_ptr_1
	.align 8
	.type	_TIG_iO_pRgd_1___bswap_32_1_opaque_ptr_1, @object
	.size	_TIG_iO_pRgd_1___bswap_32_1_opaque_ptr_1, 8
_TIG_iO_pRgd_1___bswap_32_1_opaque_ptr_1:
	.zero	8
	.globl	_TIG_iO_pRgd_1___bswap_16_1_opaque_ptr_2
	.align 8
	.type	_TIG_iO_pRgd_1___bswap_16_1_opaque_ptr_2, @object
	.size	_TIG_iO_pRgd_1___bswap_16_1_opaque_ptr_2, 8
_TIG_iO_pRgd_1___bswap_16_1_opaque_ptr_2:
	.zero	8
	.globl	_TIG_iO_pRgd_1_next_i_1_opaque_list_2
	.align 8
	.type	_TIG_iO_pRgd_1_next_i_1_opaque_list_2, @object
	.size	_TIG_iO_pRgd_1_next_i_1_opaque_list_2, 8
_TIG_iO_pRgd_1_next_i_1_opaque_list_2:
	.zero	8
	.globl	_TIG_iO_pRgd_1_next_i_1_opaque_list_1
	.align 8
	.type	_TIG_iO_pRgd_1_next_i_1_opaque_list_1, @object
	.size	_TIG_iO_pRgd_1_next_i_1_opaque_list_1, 8
_TIG_iO_pRgd_1_next_i_1_opaque_list_1:
	.zero	8
	.globl	_TIG_iO_pRgd_1___bswap_64_1_opaque_ptr_2
	.align 8
	.type	_TIG_iO_pRgd_1___bswap_64_1_opaque_ptr_2, @object
	.size	_TIG_iO_pRgd_1___bswap_64_1_opaque_ptr_2, 8
_TIG_iO_pRgd_1___bswap_64_1_opaque_ptr_2:
	.zero	8
	.globl	_TIG_iO_pRgd_1___uint16_identity_1_opaque_list_1
	.align 8
	.type	_TIG_iO_pRgd_1___uint16_identity_1_opaque_list_1, @object
	.size	_TIG_iO_pRgd_1___uint16_identity_1_opaque_list_1, 8
_TIG_iO_pRgd_1___uint16_identity_1_opaque_list_1:
	.zero	8
	.globl	_TIG_iO_pRgd_1_next_f_1_opaque_list_1
	.align 8
	.type	_TIG_iO_pRgd_1_next_f_1_opaque_list_1, @object
	.size	_TIG_iO_pRgd_1_next_f_1_opaque_list_1, 8
_TIG_iO_pRgd_1_next_f_1_opaque_list_1:
	.zero	8
	.globl	_TIG_iO_pRgd_1_usage_1_opaque_ptr_1
	.align 8
	.type	_TIG_iO_pRgd_1_usage_1_opaque_ptr_1, @object
	.size	_TIG_iO_pRgd_1_usage_1_opaque_ptr_1, 8
_TIG_iO_pRgd_1_usage_1_opaque_ptr_1:
	.zero	8
	.globl	_TIG_iO_pRgd_1___uint64_identity_1_opaque_ptr_2
	.align 8
	.type	_TIG_iO_pRgd_1___uint64_identity_1_opaque_ptr_2, @object
	.size	_TIG_iO_pRgd_1___uint64_identity_1_opaque_ptr_2, 8
_TIG_iO_pRgd_1___uint64_identity_1_opaque_ptr_2:
	.zero	8
	.globl	_TIG_iO_pRgd_1___uint64_identity_1_opaque_list_1
	.align 8
	.type	_TIG_iO_pRgd_1___uint64_identity_1_opaque_list_1, @object
	.size	_TIG_iO_pRgd_1___uint64_identity_1_opaque_list_1, 8
_TIG_iO_pRgd_1___uint64_identity_1_opaque_list_1:
	.zero	8
	.globl	_TIG_iO_pRgd_1_next_f_1_opaque_ptr_2
	.align 8
	.type	_TIG_iO_pRgd_1_next_f_1_opaque_ptr_2, @object
	.size	_TIG_iO_pRgd_1_next_f_1_opaque_ptr_2, 8
_TIG_iO_pRgd_1_next_f_1_opaque_ptr_2:
	.zero	8
	.globl	_TIG_iO_pRgd_1_next_i_1_opaque_ptr_2
	.align 8
	.type	_TIG_iO_pRgd_1_next_i_1_opaque_ptr_2, @object
	.size	_TIG_iO_pRgd_1_next_i_1_opaque_ptr_2, 8
_TIG_iO_pRgd_1_next_i_1_opaque_ptr_2:
	.zero	8
	.globl	_TIG_iO_pRgd_1_main_1_opaque_list_1
	.align 8
	.type	_TIG_iO_pRgd_1_main_1_opaque_list_1, @object
	.size	_TIG_iO_pRgd_1_main_1_opaque_list_1, 8
_TIG_iO_pRgd_1_main_1_opaque_list_1:
	.zero	8
	.globl	_TIG_iO_pRgd_1___uint32_identity_1_opaque_ptr_2
	.align 8
	.type	_TIG_iO_pRgd_1___uint32_identity_1_opaque_ptr_2, @object
	.size	_TIG_iO_pRgd_1___uint32_identity_1_opaque_ptr_2, 8
_TIG_iO_pRgd_1___uint32_identity_1_opaque_ptr_2:
	.zero	8
	.globl	_TIG_iO_pRgd_1___uint32_identity_1_opaque_list_1
	.align 8
	.type	_TIG_iO_pRgd_1___uint32_identity_1_opaque_list_1, @object
	.size	_TIG_iO_pRgd_1___uint32_identity_1_opaque_list_1, 8
_TIG_iO_pRgd_1___uint32_identity_1_opaque_list_1:
	.zero	8
	.globl	_TIG_iO_pRgd_1___bswap_64_1_opaque_list_2
	.align 8
	.type	_TIG_iO_pRgd_1___bswap_64_1_opaque_list_2, @object
	.size	_TIG_iO_pRgd_1___bswap_64_1_opaque_list_2, 8
_TIG_iO_pRgd_1___bswap_64_1_opaque_list_2:
	.zero	8
	.globl	_TIG_iO_pRgd_1___uint32_identity_1_opaque_list_2
	.align 8
	.type	_TIG_iO_pRgd_1___uint32_identity_1_opaque_list_2, @object
	.size	_TIG_iO_pRgd_1___uint32_identity_1_opaque_list_2, 8
_TIG_iO_pRgd_1___uint32_identity_1_opaque_list_2:
	.zero	8
	.globl	_TIG_iO_pRgd_1_next_i_1_opaque_ptr_1
	.align 8
	.type	_TIG_iO_pRgd_1_next_i_1_opaque_ptr_1, @object
	.size	_TIG_iO_pRgd_1_next_i_1_opaque_ptr_1, 8
_TIG_iO_pRgd_1_next_i_1_opaque_ptr_1:
	.zero	8
	.globl	_TIG_iO_pRgd_1___uint16_identity_1_opaque_list_2
	.align 8
	.type	_TIG_iO_pRgd_1___uint16_identity_1_opaque_list_2, @object
	.size	_TIG_iO_pRgd_1___uint16_identity_1_opaque_list_2, 8
_TIG_iO_pRgd_1___uint16_identity_1_opaque_list_2:
	.zero	8
	.globl	rand_primes
	.align 32
	.type	rand_primes, @object
	.size	rand_primes, 100
rand_primes:
	.zero	100
	.globl	_TIG_iO_pRgd_1___uint16_identity_1_opaque_ptr_2
	.align 8
	.type	_TIG_iO_pRgd_1___uint16_identity_1_opaque_ptr_2, @object
	.size	_TIG_iO_pRgd_1___uint16_identity_1_opaque_ptr_2, 8
_TIG_iO_pRgd_1___uint16_identity_1_opaque_ptr_2:
	.zero	8
	.globl	_TIG_iO_pRgd_1_usage_1_opaque_list_1
	.align 8
	.type	_TIG_iO_pRgd_1_usage_1_opaque_list_1, @object
	.size	_TIG_iO_pRgd_1_usage_1_opaque_list_1, 8
_TIG_iO_pRgd_1_usage_1_opaque_list_1:
	.zero	8
	.globl	_TIG_IZ_pRgd_argc
	.align 4
	.type	_TIG_IZ_pRgd_argc, @object
	.size	_TIG_IZ_pRgd_argc, 4
_TIG_IZ_pRgd_argc:
	.zero	4
	.globl	_TIG_iO_pRgd_1_usage_1_opaque_ptr_2
	.align 8
	.type	_TIG_iO_pRgd_1_usage_1_opaque_ptr_2, @object
	.size	_TIG_iO_pRgd_1_usage_1_opaque_ptr_2, 8
_TIG_iO_pRgd_1_usage_1_opaque_ptr_2:
	.zero	8
	.globl	_TIG_iO_pRgd_1_next_f_1_opaque_list_2
	.align 8
	.type	_TIG_iO_pRgd_1_next_f_1_opaque_list_2, @object
	.size	_TIG_iO_pRgd_1_next_f_1_opaque_list_2, 8
_TIG_iO_pRgd_1_next_f_1_opaque_list_2:
	.zero	8
	.globl	_TIG_IZ_pRgd_envp
	.align 8
	.type	_TIG_IZ_pRgd_envp, @object
	.size	_TIG_IZ_pRgd_envp, 8
_TIG_IZ_pRgd_envp:
	.zero	8
	.globl	_TIG_iO_pRgd_1___uint64_identity_1_opaque_ptr_1
	.align 8
	.type	_TIG_iO_pRgd_1___uint64_identity_1_opaque_ptr_1, @object
	.size	_TIG_iO_pRgd_1___uint64_identity_1_opaque_ptr_1, 8
_TIG_iO_pRgd_1___uint64_identity_1_opaque_ptr_1:
	.zero	8
	.globl	_TIG_iO_pRgd_1___bswap_16_1_opaque_ptr_1
	.align 8
	.type	_TIG_iO_pRgd_1___bswap_16_1_opaque_ptr_1, @object
	.size	_TIG_iO_pRgd_1___bswap_16_1_opaque_ptr_1, 8
_TIG_iO_pRgd_1___bswap_16_1_opaque_ptr_1:
	.zero	8
	.globl	_TIG_iO_pRgd_1___bswap_16_1_opaque_list_2
	.align 8
	.type	_TIG_iO_pRgd_1___bswap_16_1_opaque_list_2, @object
	.size	_TIG_iO_pRgd_1___bswap_16_1_opaque_list_2, 8
_TIG_iO_pRgd_1___bswap_16_1_opaque_list_2:
	.zero	8
	.globl	_TIG_iO_pRgd_1_hdmi_infoframe_checksum_1_opaque_ptr_1
	.align 8
	.type	_TIG_iO_pRgd_1_hdmi_infoframe_checksum_1_opaque_ptr_1, @object
	.size	_TIG_iO_pRgd_1_hdmi_infoframe_checksum_1_opaque_ptr_1, 8
_TIG_iO_pRgd_1_hdmi_infoframe_checksum_1_opaque_ptr_1:
	.zero	8
	.globl	_TIG_IZ_pRgd_argv
	.align 8
	.type	_TIG_IZ_pRgd_argv, @object
	.size	_TIG_IZ_pRgd_argv, 8
_TIG_IZ_pRgd_argv:
	.zero	8
	.globl	_TIG_iO_pRgd_1_usage_1_opaque_list_2
	.align 8
	.type	_TIG_iO_pRgd_1_usage_1_opaque_list_2, @object
	.size	_TIG_iO_pRgd_1_usage_1_opaque_list_2, 8
_TIG_iO_pRgd_1_usage_1_opaque_list_2:
	.zero	8
	.globl	_TIG_iO_pRgd_1_main_1_opaque_ptr_2
	.align 8
	.type	_TIG_iO_pRgd_1_main_1_opaque_ptr_2, @object
	.size	_TIG_iO_pRgd_1_main_1_opaque_ptr_2, 8
_TIG_iO_pRgd_1_main_1_opaque_ptr_2:
	.zero	8
	.globl	_TIG_iO_pRgd_1_hdmi_infoframe_checksum_1_opaque_list_2
	.align 8
	.type	_TIG_iO_pRgd_1_hdmi_infoframe_checksum_1_opaque_list_2, @object
	.size	_TIG_iO_pRgd_1_hdmi_infoframe_checksum_1_opaque_list_2, 8
_TIG_iO_pRgd_1_hdmi_infoframe_checksum_1_opaque_list_2:
	.zero	8
	.globl	_TIG_iO_pRgd_1___uint64_identity_1_opaque_list_2
	.align 8
	.type	_TIG_iO_pRgd_1___uint64_identity_1_opaque_list_2, @object
	.size	_TIG_iO_pRgd_1___uint64_identity_1_opaque_list_2, 8
_TIG_iO_pRgd_1___uint64_identity_1_opaque_list_2:
	.zero	8
	.globl	_TIG_iO_pRgd_1___bswap_32_1_opaque_list_1
	.align 8
	.type	_TIG_iO_pRgd_1___bswap_32_1_opaque_list_1, @object
	.size	_TIG_iO_pRgd_1___bswap_32_1_opaque_list_1, 8
_TIG_iO_pRgd_1___bswap_32_1_opaque_list_1:
	.zero	8
	.globl	_TIG_iO_pRgd_1___bswap_16_1_opaque_list_1
	.align 8
	.type	_TIG_iO_pRgd_1___bswap_16_1_opaque_list_1, @object
	.size	_TIG_iO_pRgd_1___bswap_16_1_opaque_list_1, 8
_TIG_iO_pRgd_1___bswap_16_1_opaque_list_1:
	.zero	8
	.globl	_TIG_iO_pRgd_1_hdmi_infoframe_checksum_1_opaque_ptr_2
	.align 8
	.type	_TIG_iO_pRgd_1_hdmi_infoframe_checksum_1_opaque_ptr_2, @object
	.size	_TIG_iO_pRgd_1_hdmi_infoframe_checksum_1_opaque_ptr_2, 8
_TIG_iO_pRgd_1_hdmi_infoframe_checksum_1_opaque_ptr_2:
	.zero	8
	.globl	_TIG_iO_pRgd_1___bswap_64_1_opaque_ptr_1
	.align 8
	.type	_TIG_iO_pRgd_1___bswap_64_1_opaque_ptr_1, @object
	.size	_TIG_iO_pRgd_1___bswap_64_1_opaque_ptr_1, 8
_TIG_iO_pRgd_1___bswap_64_1_opaque_ptr_1:
	.zero	8
	.globl	_TIG_iO_pRgd_1_main_1_opaque_ptr_1
	.align 8
	.type	_TIG_iO_pRgd_1_main_1_opaque_ptr_1, @object
	.size	_TIG_iO_pRgd_1_main_1_opaque_ptr_1, 8
_TIG_iO_pRgd_1_main_1_opaque_ptr_1:
	.zero	8
	.globl	_TIG_iO_pRgd_1___uint16_identity_1_opaque_ptr_1
	.align 8
	.type	_TIG_iO_pRgd_1___uint16_identity_1_opaque_ptr_1, @object
	.size	_TIG_iO_pRgd_1___uint16_identity_1_opaque_ptr_1, 8
_TIG_iO_pRgd_1___uint16_identity_1_opaque_ptr_1:
	.zero	8
	.globl	_TIG_iO_pRgd_1___uint32_identity_1_opaque_ptr_1
	.align 8
	.type	_TIG_iO_pRgd_1___uint32_identity_1_opaque_ptr_1, @object
	.size	_TIG_iO_pRgd_1___uint32_identity_1_opaque_ptr_1, 8
_TIG_iO_pRgd_1___uint32_identity_1_opaque_ptr_1:
	.zero	8
	.globl	_TIG_iO_pRgd_1_main_1_opaque_list_2
	.align 8
	.type	_TIG_iO_pRgd_1_main_1_opaque_list_2, @object
	.size	_TIG_iO_pRgd_1_main_1_opaque_list_2, 8
_TIG_iO_pRgd_1_main_1_opaque_list_2:
	.zero	8
	.text
	.type	hdmi_infoframe_checksum, @function
hdmi_infoframe_checksum:
.LFB0:
	.cfi_startproc
	endbr64
	pushq	%rbp
	.cfi_def_cfa_offset 16
	.cfi_offset 6, -16
	movq	%rsp, %rbp
	.cfi_def_cfa_register 6
	subq	$96, %rsp
	movq	%rdi, -88(%rbp)
	movq	%rsi, -96(%rbp)
#APP
# 83 "/usr/include/stdlib.h" 1
	##_ANNOTATION_INITIALREGION_-TIG-iO-pRgd-1-hdmi-infoframe-checksum--14
# 0 "" 2
# 87 "/usr/include/stdlib.h" 1
	##_ANNOTATION_ATOMICREGION_-TIG-iO-pRgd-1-hdmi-infoframe-checksum--13
# 0 "" 2
#NO_APP
	movl	$24, %edi
	call	malloc@PLT
	movq	%rax, -40(%rbp)
	movq	-40(%rbp), %rax
	movq	-40(%rbp), %rdx
	movq	%rdx, (%rax)
	movq	-40(%rbp), %rax
	movq	-40(%rbp), %rdx
	movq	%rdx, 8(%rax)
	movq	-40(%rbp), %rax
	movq	%rax, _TIG_iO_pRgd_1_hdmi_infoframe_checksum_1_opaque_list_1(%rip)
	call	rand@PLT
	movl	%eax, -72(%rbp)
	movl	$24, %edi
	call	malloc@PLT
	movq	%rax, -32(%rbp)
	movq	-32(%rbp), %rax
	movl	$0, 16(%rax)
	movq	_TIG_iO_pRgd_1_hdmi_infoframe_checksum_1_opaque_list_1(%rip), %rax
	movq	(%rax), %rdx
	movq	-32(%rbp), %rax
	movq	%rdx, (%rax)
	movq	_TIG_iO_pRgd_1_hdmi_infoframe_checksum_1_opaque_list_1(%rip), %rdx
	movq	-32(%rbp), %rax
	movq	%rdx, 8(%rax)
	movq	_TIG_iO_pRgd_1_hdmi_infoframe_checksum_1_opaque_list_1(%rip), %rax
	movq	(%rax), %rax
	movq	-32(%rbp), %rdx
	movq	%rdx, 8(%rax)
	movq	_TIG_iO_pRgd_1_hdmi_infoframe_checksum_1_opaque_list_1(%rip), %rax
	movq	-32(%rbp), %rdx
	movq	%rdx, (%rax)
	call	rand@PLT
	movl	%eax, -68(%rbp)
	movl	$24, %edi
	call	malloc@PLT
	movq	%rax, -24(%rbp)
	movq	-24(%rbp), %rax
	movl	-68(%rbp), %edx
	movl	%edx, 16(%rax)
	movq	_TIG_iO_pRgd_1_hdmi_infoframe_checksum_1_opaque_list_1(%rip), %rax
	movq	(%rax), %rdx
	movq	-24(%rbp), %rax
	movq	%rdx, (%rax)
	movq	_TIG_iO_pRgd_1_hdmi_infoframe_checksum_1_opaque_list_1(%rip), %rdx
	movq	-24(%rbp), %rax
	movq	%rdx, 8(%rax)
	movq	_TIG_iO_pRgd_1_hdmi_infoframe_checksum_1_opaque_list_1(%rip), %rax
	movq	(%rax), %rax
	movq	-24(%rbp), %rdx
	movq	%rdx, 8(%rax)
	movq	_TIG_iO_pRgd_1_hdmi_infoframe_checksum_1_opaque_list_1(%rip), %rax
	movq	-24(%rbp), %rdx
	movq	%rdx, (%rax)
	call	rand@PLT
	movl	%eax, -64(%rbp)
	movl	$24, %edi
	call	malloc@PLT
	movq	%rax, -16(%rbp)
	movl	-64(%rbp), %eax
	leal	(%rax,%rax), %edx
	movq	-16(%rbp), %rax
	movl	%edx, 16(%rax)
	movq	_TIG_iO_pRgd_1_hdmi_infoframe_checksum_1_opaque_list_1(%rip), %rax
	movq	(%rax), %rdx
	movq	-16(%rbp), %rax
	movq	%rdx, (%rax)
	movq	_TIG_iO_pRgd_1_hdmi_infoframe_checksum_1_opaque_list_1(%rip), %rdx
	movq	-16(%rbp), %rax
	movq	%rdx, 8(%rax)
	movq	_TIG_iO_pRgd_1_hdmi_infoframe_checksum_1_opaque_list_1(%rip), %rax
	movq	(%rax), %rax
	movq	-16(%rbp), %rdx
	movq	%rdx, 8(%rax)
	movq	_TIG_iO_pRgd_1_hdmi_infoframe_checksum_1_opaque_list_1(%rip), %rax
	movq	-16(%rbp), %rdx
	movq	%rdx, (%rax)
	call	rand@PLT
	movl	%eax, -60(%rbp)
	movl	$24, %edi
	call	malloc@PLT
	movq	%rax, -8(%rbp)
	movl	-60(%rbp), %edx
	movl	%edx, %eax
	addl	%eax, %eax
	addl	%eax, %edx
	movq	-8(%rbp), %rax
	movl	%edx, 16(%rax)
	movq	_TIG_iO_pRgd_1_hdmi_infoframe_checksum_1_opaque_list_1(%rip), %rax
	movq	(%rax), %rdx
	movq	-8(%rbp), %rax
	movq	%rdx, (%rax)
	movq	_TIG_iO_pRgd_1_hdmi_infoframe_checksum_1_opaque_list_1(%rip), %rdx
	movq	-8(%rbp), %rax
	movq	%rdx, 8(%rax)
	movq	_TIG_iO_pRgd_1_hdmi_infoframe_checksum_1_opaque_list_1(%rip), %rax
	movq	(%rax), %rax
	movq	-8(%rbp), %rdx
	movq	%rdx, 8(%rax)
	movq	_TIG_iO_pRgd_1_hdmi_infoframe_checksum_1_opaque_list_1(%rip), %rax
	movq	-8(%rbp), %rdx
	movq	%rdx, (%rax)
	movq	_TIG_iO_pRgd_1_hdmi_infoframe_checksum_1_opaque_list_1(%rip), %rax
	movq	(%rax), %rax
	movq	%rax, _TIG_iO_pRgd_1_hdmi_infoframe_checksum_1_opaque_ptr_1(%rip)
	movq	_TIG_iO_pRgd_1_hdmi_infoframe_checksum_1_opaque_ptr_1(%rip), %rax
	movq	%rax, _TIG_iO_pRgd_1_hdmi_infoframe_checksum_1_opaque_ptr_2(%rip)
	movq	_TIG_iO_pRgd_1_hdmi_infoframe_checksum_1_opaque_ptr_2(%rip), %rax
	movq	(%rax), %rax
	movq	%rax, _TIG_iO_pRgd_1_hdmi_infoframe_checksum_1_opaque_ptr_2(%rip)
	nop
	nop
	movq	$0, -56(%rbp)
	movq	$0, -48(%rbp)
	movq	_TIG_iO_pRgd_1_usage_1_opaque_ptr_1(%rip), %rdx
	movq	_TIG_iO_pRgd_1_usage_1_opaque_ptr_2(%rip), %rax
	cmpq	%rax, %rdx
	je	.L2
	jmp	.L3
.L4:
	movq	-48(%rbp), %rax
	leaq	0(,%rax,8), %rdx
	movq	-88(%rbp), %rax
	addq	%rdx, %rax
	movq	(%rax), %rax
	addq	%rax, -56(%rbp)
	addq	$1, -48(%rbp)
.L3:
	movq	-48(%rbp), %rax
	cmpq	-96(%rbp), %rax
	jb	.L4
.L2:
	movl	$256, %eax
	subq	-56(%rbp), %rax
	leave
	.cfi_def_cfa 7, 8
	ret
	.cfi_endproc
.LFE0:
	.size	hdmi_infoframe_checksum, .-hdmi_infoframe_checksum
	.section	.rodata
	.align 8
.LC0:
	.string	"Usage:\n    prog [ARGS]\n\nARGS:\n       0            big-arr\n       1            big-arr-10x\n"
	.text
	.globl	usage
	.type	usage, @function
usage:
.LFB1:
	.cfi_startproc
	endbr64
	pushq	%rbp
	.cfi_def_cfa_offset 16
	.cfi_offset 6, -16
	movq	%rsp, %rbp
	.cfi_def_cfa_register 6
	subq	$48, %rsp
#APP
# 86 "lac-dcc_jotai-benchmarks_extr_linuxdriversmediai2cadv7511.c_hdmi_infoframe_checksum_Final.c" 1
	##_ANNOTATION_INITIALREGION_-TIG-iO-pRgd-1-usage--22
# 0 "" 2
# 90 "lac-dcc_jotai-benchmarks_extr_linuxdriversmediai2cadv7511.c_hdmi_infoframe_checksum_Final.c" 1
	##_ANNOTATION_ATOMICREGION_-TIG-iO-pRgd-1-usage--21
# 0 "" 2
#NO_APP
	movl	$24, %edi
	call	malloc@PLT
	movq	%rax, -32(%rbp)
	movq	-32(%rbp), %rax
	movq	-32(%rbp), %rdx
	movq	%rdx, (%rax)
	movq	-32(%rbp), %rax
	movq	-32(%rbp), %rdx
	movq	%rdx, 16(%rax)
	movq	-32(%rbp), %rax
	movq	%rax, _TIG_iO_pRgd_1_usage_1_opaque_list_1(%rip)
	call	rand@PLT
	movl	%eax, -44(%rbp)
	movl	$24, %edi
	call	malloc@PLT
	movq	%rax, -24(%rbp)
	movq	-24(%rbp), %rax
	movl	$0, 8(%rax)
	movq	_TIG_iO_pRgd_1_usage_1_opaque_list_1(%rip), %rax
	movq	(%rax), %rdx
	movq	-24(%rbp), %rax
	movq	%rdx, (%rax)
	movq	_TIG_iO_pRgd_1_usage_1_opaque_list_1(%rip), %rdx
	movq	-24(%rbp), %rax
	movq	%rdx, 16(%rax)
	movq	_TIG_iO_pRgd_1_usage_1_opaque_list_1(%rip), %rax
	movq	(%rax), %rax
	movq	-24(%rbp), %rdx
	movq	%rdx, 16(%rax)
	movq	_TIG_iO_pRgd_1_usage_1_opaque_list_1(%rip), %rax
	movq	-24(%rbp), %rdx
	movq	%rdx, (%rax)
	call	rand@PLT
	movl	%eax, -40(%rbp)
	movl	$24, %edi
	call	malloc@PLT
	movq	%rax, -16(%rbp)
	movq	-16(%rbp), %rax
	movl	-40(%rbp), %edx
	movl	%edx, 8(%rax)
	movq	_TIG_iO_pRgd_1_usage_1_opaque_list_1(%rip), %rax
	movq	(%rax), %rdx
	movq	-16(%rbp), %rax
	movq	%rdx, (%rax)
	movq	_TIG_iO_pRgd_1_usage_1_opaque_list_1(%rip), %rdx
	movq	-16(%rbp), %rax
	movq	%rdx, 16(%rax)
	movq	_TIG_iO_pRgd_1_usage_1_opaque_list_1(%rip), %rax
	movq	(%rax), %rax
	movq	-16(%rbp), %rdx
	movq	%rdx, 16(%rax)
	movq	_TIG_iO_pRgd_1_usage_1_opaque_list_1(%rip), %rax
	movq	-16(%rbp), %rdx
	movq	%rdx, (%rax)
	call	rand@PLT
	movl	%eax, -36(%rbp)
	movl	$24, %edi
	call	malloc@PLT
	movq	%rax, -8(%rbp)
	movl	-36(%rbp), %eax
	leal	(%rax,%rax), %edx
	movq	-8(%rbp), %rax
	movl	%edx, 8(%rax)
	movq	_TIG_iO_pRgd_1_usage_1_opaque_list_1(%rip), %rax
	movq	(%rax), %rdx
	movq	-8(%rbp), %rax
	movq	%rdx, (%rax)
	movq	_TIG_iO_pRgd_1_usage_1_opaque_list_1(%rip), %rdx
	movq	-8(%rbp), %rax
	movq	%rdx, 16(%rax)
	movq	_TIG_iO_pRgd_1_usage_1_opaque_list_1(%rip), %rax
	movq	(%rax), %rax
	movq	-8(%rbp), %rdx
	movq	%rdx, 16(%rax)
	movq	_TIG_iO_pRgd_1_usage_1_opaque_list_1(%rip), %rax
	movq	-8(%rbp), %rdx
	movq	%rdx, (%rax)
	movq	_TIG_iO_pRgd_1_usage_1_opaque_list_1(%rip), %rax
	movq	(%rax), %rax
	movq	%rax, _TIG_iO_pRgd_1_usage_1_opaque_ptr_1(%rip)
	movq	_TIG_iO_pRgd_1_usage_1_opaque_ptr_1(%rip), %rax
	movq	%rax, _TIG_iO_pRgd_1_usage_1_opaque_ptr_2(%rip)
	movq	_TIG_iO_pRgd_1_usage_1_opaque_ptr_2(%rip), %rax
	movq	(%rax), %rax
	movq	%rax, _TIG_iO_pRgd_1_usage_1_opaque_ptr_2(%rip)
	nop
	nop
	leaq	.LC0(%rip), %rax
	movq	%rax, %rdi
	call	puts@PLT
	movq	_TIG_iO_pRgd_1_usage_1_opaque_ptr_1(%rip), %rdx
	movq	_TIG_iO_pRgd_1_usage_1_opaque_ptr_2(%rip), %rax
	cmpq	%rax, %rdx
	jne	.L9
	call	next_i
	movl	%eax, -40(%rbp)
	nop
.L9:
	nop
	leave
	.cfi_def_cfa 7, 8
	ret
	.cfi_endproc
.LFE1:
	.size	usage, .-usage
	.globl	next_f
	.type	next_f, @function
next_f:
.LFB2:
	.cfi_startproc
	endbr64
	pushq	%rbp
	.cfi_def_cfa_offset 16
	.cfi_offset 6, -16
	movq	%rsp, %rbp
	.cfi_def_cfa_register 6
	subq	$48, %rsp
#APP
# 57 "lac-dcc_jotai-benchmarks_extr_linuxdriversmediai2cadv7511.c_hdmi_infoframe_checksum_Final.c" 1
	##_ANNOTATION_INITIALREGION_-TIG-iO-pRgd-1-next-f--18
# 0 "" 2
# 61 "lac-dcc_jotai-benchmarks_extr_linuxdriversmediai2cadv7511.c_hdmi_infoframe_checksum_Final.c" 1
	##_ANNOTATION_ATOMICREGION_-TIG-iO-pRgd-1-next-f--17
# 0 "" 2
#NO_APP
	movl	$24, %edi
	call	malloc@PLT
	movq	%rax, -24(%rbp)
	movq	-24(%rbp), %rax
	movq	-24(%rbp), %rdx
	movq	%rdx, 8(%rax)
	movq	-24(%rbp), %rax
	movq	-24(%rbp), %rdx
	movq	%rdx, (%rax)
	movq	-24(%rbp), %rax
	movq	%rax, _TIG_iO_pRgd_1_next_f_1_opaque_list_1(%rip)
	call	rand@PLT
	movl	%eax, -40(%rbp)
	movl	$24, %edi
	call	malloc@PLT
	movq	%rax, -16(%rbp)
	movq	-16(%rbp), %rax
	movl	$0, 16(%rax)
	movq	_TIG_iO_pRgd_1_next_f_1_opaque_list_1(%rip), %rax
	movq	8(%rax), %rdx
	movq	-16(%rbp), %rax
	movq	%rdx, 8(%rax)
	movq	_TIG_iO_pRgd_1_next_f_1_opaque_list_1(%rip), %rdx
	movq	-16(%rbp), %rax
	movq	%rdx, (%rax)
	movq	_TIG_iO_pRgd_1_next_f_1_opaque_list_1(%rip), %rax
	movq	8(%rax), %rax
	movq	-16(%rbp), %rdx
	movq	%rdx, (%rax)
	movq	_TIG_iO_pRgd_1_next_f_1_opaque_list_1(%rip), %rax
	movq	-16(%rbp), %rdx
	movq	%rdx, 8(%rax)
	call	rand@PLT
	movl	%eax, -36(%rbp)
	movl	$24, %edi
	call	malloc@PLT
	movq	%rax, -8(%rbp)
	movq	-8(%rbp), %rax
	movl	-36(%rbp), %edx
	movl	%edx, 16(%rax)
	movq	_TIG_iO_pRgd_1_next_f_1_opaque_list_1(%rip), %rax
	movq	8(%rax), %rdx
	movq	-8(%rbp), %rax
	movq	%rdx, 8(%rax)
	movq	_TIG_iO_pRgd_1_next_f_1_opaque_list_1(%rip), %rdx
	movq	-8(%rbp), %rax
	movq	%rdx, (%rax)
	movq	_TIG_iO_pRgd_1_next_f_1_opaque_list_1(%rip), %rax
	movq	8(%rax), %rax
	movq	-8(%rbp), %rdx
	movq	%rdx, (%rax)
	movq	_TIG_iO_pRgd_1_next_f_1_opaque_list_1(%rip), %rax
	movq	-8(%rbp), %rdx
	movq	%rdx, 8(%rax)
	movq	_TIG_iO_pRgd_1_next_f_1_opaque_list_1(%rip), %rax
	movq	8(%rax), %rax
	movq	%rax, _TIG_iO_pRgd_1_next_f_1_opaque_ptr_1(%rip)
	movq	_TIG_iO_pRgd_1_next_f_1_opaque_ptr_1(%rip), %rax
	movq	%rax, _TIG_iO_pRgd_1_next_f_1_opaque_ptr_2(%rip)
	movq	_TIG_iO_pRgd_1_next_f_1_opaque_ptr_2(%rip), %rax
	movq	8(%rax), %rax
	movq	%rax, _TIG_iO_pRgd_1_next_f_1_opaque_ptr_2(%rip)
	nop
	nop
	movl	$0, -32(%rbp)
	addl	$1, -32(%rbp)
	movq	_TIG_iO_pRgd_1_usage_1_opaque_ptr_1(%rip), %rdx
	movq	_TIG_iO_pRgd_1_usage_1_opaque_ptr_2(%rip), %rax
	cmpq	%rax, %rdx
	jne	.L11
	call	next_f
	movd	%xmm0, %eax
	movl	%eax, -28(%rbp)
.L11:
	movl	-32(%rbp), %ecx
	movslq	%ecx, %rax
	imulq	$1374389535, %rax, %rax
	shrq	$32, %rax
	sarl	$3, %eax
	movl	%ecx, %esi
	sarl	$31, %esi
	subl	%esi, %eax
	movl	%eax, %edx
	movl	%edx, %eax
	sall	$2, %eax
	addl	%edx, %eax
	leal	0(,%rax,4), %edx
	addl	%edx, %eax
	subl	%eax, %ecx
	movl	%ecx, %edx
	movslq	%edx, %rax
	leaq	0(,%rax,4), %rdx
	leaq	rand_primes(%rip), %rax
	movl	(%rdx,%rax), %eax
	movl	%eax, %eax
	testq	%rax, %rax
	js	.L12
	pxor	%xmm0, %xmm0
	cvtsi2ssq	%rax, %xmm0
	jmp	.L13
.L12:
	movq	%rax, %rdx
	shrq	%rdx
	andl	$1, %eax
	orq	%rax, %rdx
	pxor	%xmm0, %xmm0
	cvtsi2ssq	%rdx, %xmm0
	addss	%xmm0, %xmm0
.L13:
	movss	.LC1(%rip), %xmm1
	divss	%xmm1, %xmm0
	leave
	.cfi_def_cfa 7, 8
	ret
	.cfi_endproc
.LFE2:
	.size	next_f, .-next_f
	.globl	next_i
	.type	next_i, @function
next_i:
.LFB3:
	.cfi_startproc
	endbr64
	pushq	%rbp
	.cfi_def_cfa_offset 16
	.cfi_offset 6, -16
	movq	%rsp, %rbp
	.cfi_def_cfa_register 6
	subq	$48, %rsp
#APP
# 42 "lac-dcc_jotai-benchmarks_extr_linuxdriversmediai2cadv7511.c_hdmi_infoframe_checksum_Final.c" 1
	##_ANNOTATION_INITIALREGION_-TIG-iO-pRgd-1-next-i--20
# 0 "" 2
# 46 "lac-dcc_jotai-benchmarks_extr_linuxdriversmediai2cadv7511.c_hdmi_infoframe_checksum_Final.c" 1
	##_ANNOTATION_ATOMICREGION_-TIG-iO-pRgd-1-next-i--19
# 0 "" 2
#NO_APP
	movl	$24, %edi
	call	malloc@PLT
	movq	%rax, -24(%rbp)
	movq	-24(%rbp), %rax
	movq	-24(%rbp), %rdx
	movq	%rdx, 8(%rax)
	movq	-24(%rbp), %rax
	movq	-24(%rbp), %rdx
	movq	%rdx, 16(%rax)
	movq	-24(%rbp), %rax
	movq	%rax, _TIG_iO_pRgd_1_next_i_1_opaque_list_1(%rip)
	call	rand@PLT
	movl	%eax, -36(%rbp)
	movl	$24, %edi
	call	malloc@PLT
	movq	%rax, -16(%rbp)
	movq	-16(%rbp), %rax
	movl	$0, (%rax)
	movq	_TIG_iO_pRgd_1_next_i_1_opaque_list_1(%rip), %rax
	movq	8(%rax), %rdx
	movq	-16(%rbp), %rax
	movq	%rdx, 8(%rax)
	movq	_TIG_iO_pRgd_1_next_i_1_opaque_list_1(%rip), %rdx
	movq	-16(%rbp), %rax
	movq	%rdx, 16(%rax)
	movq	_TIG_iO_pRgd_1_next_i_1_opaque_list_1(%rip), %rax
	movq	8(%rax), %rax
	movq	-16(%rbp), %rdx
	movq	%rdx, 16(%rax)
	movq	_TIG_iO_pRgd_1_next_i_1_opaque_list_1(%rip), %rax
	movq	-16(%rbp), %rdx
	movq	%rdx, 8(%rax)
	call	rand@PLT
	movl	%eax, -32(%rbp)
	movl	$24, %edi
	call	malloc@PLT
	movq	%rax, -8(%rbp)
	movq	-8(%rbp), %rax
	movl	-32(%rbp), %edx
	movl	%edx, (%rax)
	movq	_TIG_iO_pRgd_1_next_i_1_opaque_list_1(%rip), %rax
	movq	8(%rax), %rdx
	movq	-8(%rbp), %rax
	movq	%rdx, 8(%rax)
	movq	_TIG_iO_pRgd_1_next_i_1_opaque_list_1(%rip), %rdx
	movq	-8(%rbp), %rax
	movq	%rdx, 16(%rax)
	movq	_TIG_iO_pRgd_1_next_i_1_opaque_list_1(%rip), %rax
	movq	8(%rax), %rax
	movq	-8(%rbp), %rdx
	movq	%rdx, 16(%rax)
	movq	_TIG_iO_pRgd_1_next_i_1_opaque_list_1(%rip), %rax
	movq	-8(%rbp), %rdx
	movq	%rdx, 8(%rax)
	movq	_TIG_iO_pRgd_1_next_i_1_opaque_list_1(%rip), %rax
	movq	8(%rax), %rax
	movq	%rax, _TIG_iO_pRgd_1_next_i_1_opaque_ptr_1(%rip)
	movq	_TIG_iO_pRgd_1_next_i_1_opaque_ptr_1(%rip), %rax
	movq	%rax, _TIG_iO_pRgd_1_next_i_1_opaque_ptr_2(%rip)
	nop
	nop
	movl	$0, -28(%rbp)
	addl	$1, -28(%rbp)
	movq	_TIG_iO_pRgd_1_usage_1_opaque_ptr_1(%rip), %rdx
	movq	_TIG_iO_pRgd_1_usage_1_opaque_ptr_2(%rip), %rax
	cmpq	%rax, %rdx
	je	.L16
	movl	-28(%rbp), %ecx
	movslq	%ecx, %rax
	imulq	$1374389535, %rax, %rax
	shrq	$32, %rax
	sarl	$3, %eax
	movl	%ecx, %esi
	sarl	$31, %esi
	subl	%esi, %eax
	movl	%eax, %edx
	movl	%edx, %eax
	sall	$2, %eax
	addl	%edx, %eax
	leal	0(,%rax,4), %edx
	addl	%edx, %eax
	subl	%eax, %ecx
	movl	%ecx, %edx
	movslq	%edx, %rax
	leaq	0(,%rax,4), %rdx
	leaq	rand_primes(%rip), %rax
	movl	(%rdx,%rax), %eax
	jmp	.L15
.L16:
#APP
# 21 "lac-dcc_jotai-benchmarks_extr_linuxdriversmediai2cadv7511.c_hdmi_infoframe_checksum_Final.c" 1
	.byte 0xeb,0x11,0x48
# 0 "" 2
#NO_APP
.L15:
	leave
	.cfi_def_cfa 7, 8
	ret
	.cfi_endproc
.LFE3:
	.size	next_i, .-next_i
	.section	.rodata
.LC2:
	.string	"%ld\n"
	.text
	.globl	main
	.type	main, @function
main:
.LFB8:
	.cfi_startproc
	endbr64
	pushq	%rbp
	.cfi_def_cfa_offset 16
	.cfi_offset 6, -16
	movq	%rsp, %rbp
	.cfi_def_cfa_register 6
	subq	$192, %rsp
	movl	%edi, -164(%rbp)
	movq	%rsi, -176(%rbp)
	movq	%rdx, -184(%rbp)
	movl	$179, rand_primes(%rip)
	movl	$103, 4+rand_primes(%rip)
	movl	$479, 8+rand_primes(%rip)
	movl	$647, 12+rand_primes(%rip)
	movl	$229, 16+rand_primes(%rip)
	movl	$37, 20+rand_primes(%rip)
	movl	$271, 24+rand_primes(%rip)
	movl	$557, 28+rand_primes(%rip)
	movl	$263, 32+rand_primes(%rip)
	movl	$607, 36+rand_primes(%rip)
	movl	$18743, 40+rand_primes(%rip)
	movl	$50359, 44+rand_primes(%rip)
	movl	$21929, 48+rand_primes(%rip)
	movl	$48757, 52+rand_primes(%rip)
	movl	$98179, 56+rand_primes(%rip)
	movl	$12907, 60+rand_primes(%rip)
	movl	$52937, 64+rand_primes(%rip)
	movl	$64579, 68+rand_primes(%rip)
	movl	$49957, 72+rand_primes(%rip)
	movl	$52567, 76+rand_primes(%rip)
	movl	$507163, 80+rand_primes(%rip)
	movl	$149939, 84+rand_primes(%rip)
	movl	$412157, 88+rand_primes(%rip)
	movl	$680861, 92+rand_primes(%rip)
	movl	$757751, 96+rand_primes(%rip)
	nop
.L19:
	movq	$0, _TIG_IZ_pRgd_envp(%rip)
	nop
.L20:
	movq	$0, _TIG_IZ_pRgd_argv(%rip)
	nop
.L21:
	movl	$0, _TIG_IZ_pRgd_argc(%rip)
	nop
	nop
.L22:
.L23:
#APP
# 139 "/usr/include/x86_64-linux-gnu/bits/uintn-identity.h" 1
	##_ANNOTATION_INITIALREGION_-TIG-IZ-pRgd--0
# 0 "" 2
#NO_APP
	movl	-164(%rbp), %eax
	movl	%eax, _TIG_IZ_pRgd_argc(%rip)
	movq	-176(%rbp), %rax
	movq	%rax, _TIG_IZ_pRgd_argv(%rip)
	movq	-184(%rbp), %rax
	movq	%rax, _TIG_IZ_pRgd_envp(%rip)
#APP
# 146 "/usr/include/x86_64-linux-gnu/bits/uintn-identity.h" 1
	##_ANNOTATION_ATOMICREGION_-TIG-iO-pRgd-1-main--15
# 0 "" 2
#NO_APP
	movl	$24, %edi
	call	malloc@PLT
	movq	%rax, -104(%rbp)
	movq	-104(%rbp), %rax
	movq	-104(%rbp), %rdx
	movq	%rdx, 16(%rax)
	movq	-104(%rbp), %rax
	movq	-104(%rbp), %rdx
	movq	%rdx, 8(%rax)
	movq	-104(%rbp), %rax
	movq	%rax, _TIG_iO_pRgd_1_main_1_opaque_list_1(%rip)
	call	rand@PLT
	movl	%eax, -144(%rbp)
	movl	$24, %edi
	call	malloc@PLT
	movq	%rax, -96(%rbp)
	movq	-96(%rbp), %rax
	movl	$0, (%rax)
	movq	_TIG_iO_pRgd_1_main_1_opaque_list_1(%rip), %rax
	movq	16(%rax), %rdx
	movq	-96(%rbp), %rax
	movq	%rdx, 16(%rax)
	movq	_TIG_iO_pRgd_1_main_1_opaque_list_1(%rip), %rdx
	movq	-96(%rbp), %rax
	movq	%rdx, 8(%rax)
	movq	_TIG_iO_pRgd_1_main_1_opaque_list_1(%rip), %rax
	movq	16(%rax), %rax
	movq	-96(%rbp), %rdx
	movq	%rdx, 8(%rax)
	movq	_TIG_iO_pRgd_1_main_1_opaque_list_1(%rip), %rax
	movq	-96(%rbp), %rdx
	movq	%rdx, 16(%rax)
	call	rand@PLT
	movl	%eax, -140(%rbp)
	movl	$24, %edi
	call	malloc@PLT
	movq	%rax, -88(%rbp)
	movq	-88(%rbp), %rax
	movl	-140(%rbp), %edx
	movl	%edx, (%rax)
	movq	_TIG_iO_pRgd_1_main_1_opaque_list_1(%rip), %rax
	movq	16(%rax), %rdx
	movq	-88(%rbp), %rax
	movq	%rdx, 16(%rax)
	movq	_TIG_iO_pRgd_1_main_1_opaque_list_1(%rip), %rdx
	movq	-88(%rbp), %rax
	movq	%rdx, 8(%rax)
	movq	_TIG_iO_pRgd_1_main_1_opaque_list_1(%rip), %rax
	movq	16(%rax), %rax
	movq	-88(%rbp), %rdx
	movq	%rdx, 8(%rax)
	movq	_TIG_iO_pRgd_1_main_1_opaque_list_1(%rip), %rax
	movq	-88(%rbp), %rdx
	movq	%rdx, 16(%rax)
	movq	_TIG_iO_pRgd_1_main_1_opaque_list_1(%rip), %rax
	movq	16(%rax), %rax
	movq	%rax, _TIG_iO_pRgd_1_main_1_opaque_ptr_1(%rip)
	movq	_TIG_iO_pRgd_1_main_1_opaque_ptr_1(%rip), %rax
	movq	%rax, _TIG_iO_pRgd_1_main_1_opaque_ptr_2(%rip)
	nop
	nop
	cmpl	$2, -164(%rbp)
	je	.L24
	call	usage
	movl	$1, %eax
	jmp	.L25
.L24:
	movq	-176(%rbp), %rax
	addq	$8, %rax
	movq	(%rax), %rax
	movq	%rax, %rdi
	call	atoi@PLT
	movl	%eax, -136(%rbp)
	movl	-136(%rbp), %eax
	movl	%eax, -132(%rbp)
	cmpl	$0, -132(%rbp)
	je	.L26
	cmpl	$1, -132(%rbp)
	je	.L27
	jmp	.L37
.L26:
	movq	$255, -40(%rbp)
	movl	$65025, -116(%rbp)
	movl	-116(%rbp), %eax
	cltq
	salq	$3, %rax
	movq	%rax, %rdi
	call	malloc@PLT
	movq	%rax, -32(%rbp)
	movq	-32(%rbp), %rax
	movq	%rax, -24(%rbp)
	movl	$0, -152(%rbp)
	movq	_TIG_iO_pRgd_1_usage_1_opaque_ptr_1(%rip), %rdx
	movq	_TIG_iO_pRgd_1_usage_1_opaque_ptr_2(%rip), %rax
	cmpq	%rax, %rdx
	jne	.L32
.L31:
	movl	-152(%rbp), %eax
	cmpl	-116(%rbp), %eax
	setl	%al
	movzbl	%al, %eax
	cmpl	%eax, -124(%rbp)
	jge	.L30
	movl	-120(%rbp), %eax
	jmp	.L25
.L30:
	call	next_i
	movl	%eax, -112(%rbp)
	call	next_i
	movl	%eax, -108(%rbp)
	movl	-152(%rbp), %eax
	cltq
	leaq	0(,%rax,8), %rdx
	movq	-24(%rbp), %rax
	addq	%rax, %rdx
	movq	-16(%rbp), %rax
	movq	%rax, (%rdx)
	movl	-152(%rbp), %eax
	addl	$1, %eax
	sall	$5, %eax
	movl	%eax, -152(%rbp)
	jmp	.L31
.L33:
	call	next_i
	movl	%eax, -112(%rbp)
	call	next_i
	movl	%eax, -108(%rbp)
	movl	-112(%rbp), %eax
	cltd
	shrl	$31, %edx
	addl	%edx, %eax
	andl	$1, %eax
	subl	%edx, %eax
	movl	%eax, %edx
	movl	$0, %eax
	subl	%edx, %eax
	addl	%eax, %eax
	addl	$1, %eax
	imull	-108(%rbp), %eax
	movl	-152(%rbp), %edx
	movslq	%edx, %rdx
	leaq	0(,%rdx,8), %rcx
	movq	-24(%rbp), %rdx
	addq	%rcx, %rdx
	cltq
	movq	%rax, (%rdx)
	addl	$1, -152(%rbp)
.L32:
	movl	-152(%rbp), %eax
	cmpl	-116(%rbp), %eax
	jl	.L33
	movq	-40(%rbp), %rdx
	movq	-24(%rbp), %rax
	movq	%rdx, %rsi
	movq	%rax, %rdi
	call	hdmi_infoframe_checksum
	movq	%rax, -16(%rbp)
	movq	-16(%rbp), %rax
	movq	%rax, -8(%rbp)
	movq	-8(%rbp), %rax
	movq	%rax, %rsi
	leaq	.LC2(%rip), %rax
	movq	%rax, %rdi
	movl	$0, %eax
	call	printf@PLT
	movq	-24(%rbp), %rax
	movq	%rax, %rdi
	call	free@PLT
	jmp	.L34
.L27:
	movq	$10, -80(%rbp)
	movl	$100, -128(%rbp)
	movl	-128(%rbp), %eax
	cltq
	salq	$3, %rax
	movq	%rax, %rdi
	call	malloc@PLT
	movq	%rax, -72(%rbp)
	movq	-72(%rbp), %rax
	movq	%rax, -64(%rbp)
	movl	$0, -148(%rbp)
	jmp	.L35
.L36:
	call	next_i
	movl	%eax, -124(%rbp)
	call	next_i
	movl	%eax, -120(%rbp)
	movl	-124(%rbp), %eax
	cltd
	shrl	$31, %edx
	addl	%edx, %eax
	andl	$1, %eax
	subl	%edx, %eax
	movl	%eax, %edx
	movl	$0, %eax
	subl	%edx, %eax
	addl	%eax, %eax
	addl	$1, %eax
	imull	-120(%rbp), %eax
	movl	-148(%rbp), %edx
	movslq	%edx, %rdx
	leaq	0(,%rdx,8), %rcx
	movq	-64(%rbp), %rdx
	addq	%rcx, %rdx
	cltq
	movq	%rax, (%rdx)
	addl	$1, -148(%rbp)
.L35:
	movl	-148(%rbp), %eax
	cmpl	-128(%rbp), %eax
	jl	.L36
	movq	-80(%rbp), %rdx
	movq	-64(%rbp), %rax
	movq	%rdx, %rsi
	movq	%rax, %rdi
	call	hdmi_infoframe_checksum
	movq	%rax, -56(%rbp)
	movq	-56(%rbp), %rax
	movq	%rax, -48(%rbp)
	movq	-48(%rbp), %rax
	movq	%rax, %rsi
	leaq	.LC2(%rip), %rax
	movq	%rax, %rdi
	movl	$0, %eax
	call	printf@PLT
	movq	-64(%rbp), %rax
	movq	%rax, %rdi
	call	free@PLT
	jmp	.L34
.L37:
	call	usage
	nop
.L34:
	movl	$0, %eax
.L25:
	leave
	.cfi_def_cfa 7, 8
	ret
	.cfi_endproc
.LFE8:
	.size	main, .-main
	.section	.rodata
	.align 4
.LC1:
	.long	1228472176
	.ident	"GCC: (Ubuntu 11.4.0-1ubuntu1~22.04) 11.4.0"
	.section	.note.GNU-stack,"",@progbits
	.section	.note.gnu.property,"a"
	.align 8
	.long	1f - 0f
	.long	4f - 1f
	.long	5
0:
	.string	"GNU"
1:
	.align 8
	.long	0xc0000002
	.long	3f - 2f
2:
	.long	0x3
3:
	.align 8
4:
