	.file	"lileicc_swift_quote_calc2.tab_opaque.c"
	.text
	.local	quote_calc2_sindex
	.comm	quote_calc2_sindex,66,32
	.globl	_TIG_iO_CNxj_1___bswap_16_1_opaque_ptr_2
	.bss
	.align 8
	.type	_TIG_iO_CNxj_1___bswap_16_1_opaque_ptr_2, @object
	.size	_TIG_iO_CNxj_1___bswap_16_1_opaque_ptr_2, 8
_TIG_iO_CNxj_1___bswap_16_1_opaque_ptr_2:
	.zero	8
	.globl	_TIG_iO_CNxj_1___uint64_identity_1_opaque_ptr_1
	.align 8
	.type	_TIG_iO_CNxj_1___uint64_identity_1_opaque_ptr_1, @object
	.size	_TIG_iO_CNxj_1___uint64_identity_1_opaque_ptr_1, 8
_TIG_iO_CNxj_1___uint64_identity_1_opaque_ptr_1:
	.zero	8
	.globl	_TIG_iO_CNxj_1___bswap_16_1_opaque_list_1
	.align 8
	.type	_TIG_iO_CNxj_1___bswap_16_1_opaque_list_1, @object
	.size	_TIG_iO_CNxj_1___bswap_16_1_opaque_list_1, 8
_TIG_iO_CNxj_1___bswap_16_1_opaque_list_1:
	.zero	8
	.globl	_TIG_iO_CNxj_1_quote_calc2_lex_1_opaque_list_1
	.align 8
	.type	_TIG_iO_CNxj_1_quote_calc2_lex_1_opaque_list_1, @object
	.size	_TIG_iO_CNxj_1_quote_calc2_lex_1_opaque_list_1, 8
_TIG_iO_CNxj_1_quote_calc2_lex_1_opaque_list_1:
	.zero	8
	.globl	_TIG_iO_CNxj_1_quote_calc2_parse_1_opaque_list_1
	.align 8
	.type	_TIG_iO_CNxj_1_quote_calc2_parse_1_opaque_list_1, @object
	.size	_TIG_iO_CNxj_1_quote_calc2_parse_1_opaque_list_1, 8
_TIG_iO_CNxj_1_quote_calc2_parse_1_opaque_list_1:
	.zero	8
	.local	quote_calc2_gindex
	.comm	quote_calc2_gindex,8,8
	.globl	_TIG_iO_CNxj_1___uint16_identity_1_opaque_list_1
	.align 8
	.type	_TIG_iO_CNxj_1___uint16_identity_1_opaque_list_1, @object
	.size	_TIG_iO_CNxj_1___uint16_identity_1_opaque_list_1, 8
_TIG_iO_CNxj_1___uint16_identity_1_opaque_list_1:
	.zero	8
	.globl	_TIG_iO_CNxj_1_yygrowstack_1_opaque_list_2
	.align 8
	.type	_TIG_iO_CNxj_1_yygrowstack_1_opaque_list_2, @object
	.size	_TIG_iO_CNxj_1_yygrowstack_1_opaque_list_2, 8
_TIG_iO_CNxj_1_yygrowstack_1_opaque_list_2:
	.zero	8
	.local	quote_calc2_dgoto
	.comm	quote_calc2_dgoto,8,8
	.globl	_TIG_iO_CNxj_1___uint16_identity_1_opaque_list_2
	.align 8
	.type	_TIG_iO_CNxj_1___uint16_identity_1_opaque_list_2, @object
	.size	_TIG_iO_CNxj_1___uint16_identity_1_opaque_list_2, 8
_TIG_iO_CNxj_1___uint16_identity_1_opaque_list_2:
	.zero	8
	.globl	quote_calc2_val
	.align 4
	.type	quote_calc2_val, @object
	.size	quote_calc2_val, 4
quote_calc2_val:
	.zero	4
	.globl	_TIG_iO_CNxj_1___uint32_identity_1_opaque_list_1
	.align 8
	.type	_TIG_iO_CNxj_1___uint32_identity_1_opaque_list_1, @object
	.size	_TIG_iO_CNxj_1___uint32_identity_1_opaque_list_1, 8
_TIG_iO_CNxj_1___uint32_identity_1_opaque_list_1:
	.zero	8
	.globl	_TIG_iO_CNxj_1___uint32_identity_1_opaque_ptr_1
	.align 8
	.type	_TIG_iO_CNxj_1___uint32_identity_1_opaque_ptr_1, @object
	.size	_TIG_iO_CNxj_1___uint32_identity_1_opaque_ptr_1, 8
_TIG_iO_CNxj_1___uint32_identity_1_opaque_ptr_1:
	.zero	8
	.globl	_TIG_iO_CNxj_1___uint64_identity_1_opaque_list_2
	.align 8
	.type	_TIG_iO_CNxj_1___uint64_identity_1_opaque_list_2, @object
	.size	_TIG_iO_CNxj_1___uint64_identity_1_opaque_list_2, 8
_TIG_iO_CNxj_1___uint64_identity_1_opaque_list_2:
	.zero	8
	.globl	_TIG_iO_CNxj_1_main_1_opaque_list_1
	.align 8
	.type	_TIG_iO_CNxj_1_main_1_opaque_list_1, @object
	.size	_TIG_iO_CNxj_1_main_1_opaque_list_1, 8
_TIG_iO_CNxj_1_main_1_opaque_list_1:
	.zero	8
	.local	quote_calc2_defred
	.comm	quote_calc2_defred,66,32
	.globl	_TIG_iO_CNxj_1_quote_calc2_error_1_opaque_ptr_1
	.align 8
	.type	_TIG_iO_CNxj_1_quote_calc2_error_1_opaque_ptr_1, @object
	.size	_TIG_iO_CNxj_1_quote_calc2_error_1_opaque_ptr_1, 8
_TIG_iO_CNxj_1_quote_calc2_error_1_opaque_ptr_1:
	.zero	8
	.globl	_TIG_iO_CNxj_1___bswap_32_1_opaque_ptr_1
	.align 8
	.type	_TIG_iO_CNxj_1___bswap_32_1_opaque_ptr_1, @object
	.size	_TIG_iO_CNxj_1___bswap_32_1_opaque_ptr_1, 8
_TIG_iO_CNxj_1___bswap_32_1_opaque_ptr_1:
	.zero	8
	.globl	_TIG_iO_CNxj_1___bswap_16_1_opaque_list_2
	.align 8
	.type	_TIG_iO_CNxj_1___bswap_16_1_opaque_list_2, @object
	.size	_TIG_iO_CNxj_1___bswap_16_1_opaque_list_2, 8
_TIG_iO_CNxj_1___bswap_16_1_opaque_list_2:
	.zero	8
	.local	yysccsid
	.comm	yysccsid,36,32
	.local	quote_calc2_len
	.comm	quote_calc2_len,38,32
	.globl	_TIG_IZ_CNxj_argv
	.align 8
	.type	_TIG_IZ_CNxj_argv, @object
	.size	_TIG_IZ_CNxj_argv, 8
_TIG_IZ_CNxj_argv:
	.zero	8
	.globl	regs
	.align 32
	.type	regs, @object
	.size	regs, 104
regs:
	.zero	104
	.globl	quote_calc2_debug
	.align 4
	.type	quote_calc2_debug, @object
	.size	quote_calc2_debug, 4
quote_calc2_debug:
	.zero	4
	.globl	_TIG_iO_CNxj_1_yygrowstack_1_opaque_ptr_2
	.align 8
	.type	_TIG_iO_CNxj_1_yygrowstack_1_opaque_ptr_2, @object
	.size	_TIG_iO_CNxj_1_yygrowstack_1_opaque_ptr_2, 8
_TIG_iO_CNxj_1_yygrowstack_1_opaque_ptr_2:
	.zero	8
	.local	quote_calc2_table
	.comm	quote_calc2_table,520,32
	.globl	_TIG_iO_CNxj_1_yygrowstack_1_opaque_ptr_1
	.align 8
	.type	_TIG_iO_CNxj_1_yygrowstack_1_opaque_ptr_1, @object
	.size	_TIG_iO_CNxj_1_yygrowstack_1_opaque_ptr_1, 8
_TIG_iO_CNxj_1_yygrowstack_1_opaque_ptr_1:
	.zero	8
	.globl	_TIG_iO_CNxj_1_quote_calc2_lex_1_opaque_list_2
	.align 8
	.type	_TIG_iO_CNxj_1_quote_calc2_lex_1_opaque_list_2, @object
	.size	_TIG_iO_CNxj_1_quote_calc2_lex_1_opaque_list_2, 8
_TIG_iO_CNxj_1_quote_calc2_lex_1_opaque_list_2:
	.zero	8
	.globl	quote_calc2_char
	.align 4
	.type	quote_calc2_char, @object
	.size	quote_calc2_char, 4
quote_calc2_char:
	.zero	4
	.globl	base
	.align 4
	.type	base, @object
	.size	base, 4
base:
	.zero	4
	.globl	_TIG_IZ_CNxj_argc
	.align 4
	.type	_TIG_IZ_CNxj_argc, @object
	.size	_TIG_IZ_CNxj_argc, 4
_TIG_IZ_CNxj_argc:
	.zero	4
	.globl	_TIG_iO_CNxj_1___uint32_identity_1_opaque_ptr_2
	.align 8
	.type	_TIG_iO_CNxj_1___uint32_identity_1_opaque_ptr_2, @object
	.size	_TIG_iO_CNxj_1___uint32_identity_1_opaque_ptr_2, 8
_TIG_iO_CNxj_1___uint32_identity_1_opaque_ptr_2:
	.zero	8
	.globl	_TIG_iO_CNxj_1___uint32_identity_1_opaque_list_2
	.align 8
	.type	_TIG_iO_CNxj_1___uint32_identity_1_opaque_list_2, @object
	.size	_TIG_iO_CNxj_1___uint32_identity_1_opaque_list_2, 8
_TIG_iO_CNxj_1___uint32_identity_1_opaque_list_2:
	.zero	8
	.globl	quote_calc2_lval
	.align 4
	.type	quote_calc2_lval, @object
	.size	quote_calc2_lval, 4
quote_calc2_lval:
	.zero	4
	.local	quote_calc2_check
	.comm	quote_calc2_check,520,32
	.globl	_TIG_iO_CNxj_1___uint64_identity_1_opaque_ptr_2
	.align 8
	.type	_TIG_iO_CNxj_1___uint64_identity_1_opaque_ptr_2, @object
	.size	_TIG_iO_CNxj_1___uint64_identity_1_opaque_ptr_2, 8
_TIG_iO_CNxj_1___uint64_identity_1_opaque_ptr_2:
	.zero	8
	.globl	_TIG_iO_CNxj_1___bswap_64_1_opaque_list_2
	.align 8
	.type	_TIG_iO_CNxj_1___bswap_64_1_opaque_list_2, @object
	.size	_TIG_iO_CNxj_1___bswap_64_1_opaque_list_2, 8
_TIG_iO_CNxj_1___bswap_64_1_opaque_list_2:
	.zero	8
	.globl	_TIG_iO_CNxj_1___uint16_identity_1_opaque_ptr_1
	.align 8
	.type	_TIG_iO_CNxj_1___uint16_identity_1_opaque_ptr_1, @object
	.size	_TIG_iO_CNxj_1___uint16_identity_1_opaque_ptr_1, 8
_TIG_iO_CNxj_1___uint16_identity_1_opaque_ptr_1:
	.zero	8
	.globl	_TIG_iO_CNxj_1_quote_calc2_parse_1_opaque_ptr_1
	.align 8
	.type	_TIG_iO_CNxj_1_quote_calc2_parse_1_opaque_ptr_1, @object
	.size	_TIG_iO_CNxj_1_quote_calc2_parse_1_opaque_ptr_1, 8
_TIG_iO_CNxj_1_quote_calc2_parse_1_opaque_ptr_1:
	.zero	8
	.globl	_TIG_iO_CNxj_1_quote_calc2_lex_1_opaque_ptr_2
	.align 8
	.type	_TIG_iO_CNxj_1_quote_calc2_lex_1_opaque_ptr_2, @object
	.size	_TIG_iO_CNxj_1_quote_calc2_lex_1_opaque_ptr_2, 8
_TIG_iO_CNxj_1_quote_calc2_lex_1_opaque_ptr_2:
	.zero	8
	.globl	_TIG_iO_CNxj_1_quote_calc2_error_1_opaque_ptr_2
	.align 8
	.type	_TIG_iO_CNxj_1_quote_calc2_error_1_opaque_ptr_2, @object
	.size	_TIG_iO_CNxj_1_quote_calc2_error_1_opaque_ptr_2, 8
_TIG_iO_CNxj_1_quote_calc2_error_1_opaque_ptr_2:
	.zero	8
	.globl	_TIG_iO_CNxj_1___bswap_32_1_opaque_list_1
	.align 8
	.type	_TIG_iO_CNxj_1___bswap_32_1_opaque_list_1, @object
	.size	_TIG_iO_CNxj_1___bswap_32_1_opaque_list_1, 8
_TIG_iO_CNxj_1___bswap_32_1_opaque_list_1:
	.zero	8
	.globl	_TIG_iO_CNxj_1___bswap_64_1_opaque_list_1
	.align 8
	.type	_TIG_iO_CNxj_1___bswap_64_1_opaque_list_1, @object
	.size	_TIG_iO_CNxj_1___bswap_64_1_opaque_list_1, 8
_TIG_iO_CNxj_1___bswap_64_1_opaque_list_1:
	.zero	8
	.local	yystack
	.comm	yystack,48,32
	.globl	_TIG_iO_CNxj_1___bswap_64_1_opaque_ptr_2
	.align 8
	.type	_TIG_iO_CNxj_1___bswap_64_1_opaque_ptr_2, @object
	.size	_TIG_iO_CNxj_1___bswap_64_1_opaque_ptr_2, 8
_TIG_iO_CNxj_1___bswap_64_1_opaque_ptr_2:
	.zero	8
	.globl	_TIG_iO_CNxj_1_quote_calc2_lex_1_opaque_ptr_1
	.align 8
	.type	_TIG_iO_CNxj_1_quote_calc2_lex_1_opaque_ptr_1, @object
	.size	_TIG_iO_CNxj_1_quote_calc2_lex_1_opaque_ptr_1, 8
_TIG_iO_CNxj_1_quote_calc2_lex_1_opaque_ptr_1:
	.zero	8
	.globl	_TIG_iO_CNxj_1_quote_calc2_parse_1_opaque_list_2
	.align 8
	.type	_TIG_iO_CNxj_1_quote_calc2_parse_1_opaque_list_2, @object
	.size	_TIG_iO_CNxj_1_quote_calc2_parse_1_opaque_list_2, 8
_TIG_iO_CNxj_1_quote_calc2_parse_1_opaque_list_2:
	.zero	8
	.globl	_TIG_iO_CNxj_1___bswap_32_1_opaque_ptr_2
	.align 8
	.type	_TIG_iO_CNxj_1___bswap_32_1_opaque_ptr_2, @object
	.size	_TIG_iO_CNxj_1___bswap_32_1_opaque_ptr_2, 8
_TIG_iO_CNxj_1___bswap_32_1_opaque_ptr_2:
	.zero	8
	.globl	quote_calc2_errflag
	.align 4
	.type	quote_calc2_errflag, @object
	.size	quote_calc2_errflag, 4
quote_calc2_errflag:
	.zero	4
	.globl	quote_calc2_nerrs
	.align 4
	.type	quote_calc2_nerrs, @object
	.size	quote_calc2_nerrs, 4
quote_calc2_nerrs:
	.zero	4
	.globl	_TIG_iO_CNxj_1___uint16_identity_1_opaque_ptr_2
	.align 8
	.type	_TIG_iO_CNxj_1___uint16_identity_1_opaque_ptr_2, @object
	.size	_TIG_iO_CNxj_1___uint16_identity_1_opaque_ptr_2, 8
_TIG_iO_CNxj_1___uint16_identity_1_opaque_ptr_2:
	.zero	8
	.globl	_TIG_iO_CNxj_1_main_1_opaque_list_2
	.align 8
	.type	_TIG_iO_CNxj_1_main_1_opaque_list_2, @object
	.size	_TIG_iO_CNxj_1_main_1_opaque_list_2, 8
_TIG_iO_CNxj_1_main_1_opaque_list_2:
	.zero	8
	.globl	_TIG_iO_CNxj_1_main_1_opaque_ptr_1
	.align 8
	.type	_TIG_iO_CNxj_1_main_1_opaque_ptr_1, @object
	.size	_TIG_iO_CNxj_1_main_1_opaque_ptr_1, 8
_TIG_iO_CNxj_1_main_1_opaque_ptr_1:
	.zero	8
	.globl	_TIG_iO_CNxj_1___bswap_16_1_opaque_ptr_1
	.align 8
	.type	_TIG_iO_CNxj_1___bswap_16_1_opaque_ptr_1, @object
	.size	_TIG_iO_CNxj_1___bswap_16_1_opaque_ptr_1, 8
_TIG_iO_CNxj_1___bswap_16_1_opaque_ptr_1:
	.zero	8
	.globl	_TIG_iO_CNxj_1_quote_calc2_error_1_opaque_list_1
	.align 8
	.type	_TIG_iO_CNxj_1_quote_calc2_error_1_opaque_list_1, @object
	.size	_TIG_iO_CNxj_1_quote_calc2_error_1_opaque_list_1, 8
_TIG_iO_CNxj_1_quote_calc2_error_1_opaque_list_1:
	.zero	8
	.globl	_TIG_iO_CNxj_1___bswap_64_1_opaque_ptr_1
	.align 8
	.type	_TIG_iO_CNxj_1___bswap_64_1_opaque_ptr_1, @object
	.size	_TIG_iO_CNxj_1___bswap_64_1_opaque_ptr_1, 8
_TIG_iO_CNxj_1___bswap_64_1_opaque_ptr_1:
	.zero	8
	.globl	_TIG_iO_CNxj_1_main_1_opaque_ptr_2
	.align 8
	.type	_TIG_iO_CNxj_1_main_1_opaque_ptr_2, @object
	.size	_TIG_iO_CNxj_1_main_1_opaque_ptr_2, 8
_TIG_iO_CNxj_1_main_1_opaque_ptr_2:
	.zero	8
	.local	quote_calc2_lhs
	.comm	quote_calc2_lhs,38,32
	.globl	_TIG_iO_CNxj_1___uint64_identity_1_opaque_list_1
	.align 8
	.type	_TIG_iO_CNxj_1___uint64_identity_1_opaque_list_1, @object
	.size	_TIG_iO_CNxj_1___uint64_identity_1_opaque_list_1, 8
_TIG_iO_CNxj_1___uint64_identity_1_opaque_list_1:
	.zero	8
	.globl	_TIG_iO_CNxj_1_quote_calc2_error_1_opaque_list_2
	.align 8
	.type	_TIG_iO_CNxj_1_quote_calc2_error_1_opaque_list_2, @object
	.size	_TIG_iO_CNxj_1_quote_calc2_error_1_opaque_list_2, 8
_TIG_iO_CNxj_1_quote_calc2_error_1_opaque_list_2:
	.zero	8
	.local	quote_calc2_rindex
	.comm	quote_calc2_rindex,66,32
	.globl	_TIG_iO_CNxj_1_quote_calc2_parse_1_opaque_ptr_2
	.align 8
	.type	_TIG_iO_CNxj_1_quote_calc2_parse_1_opaque_ptr_2, @object
	.size	_TIG_iO_CNxj_1_quote_calc2_parse_1_opaque_ptr_2, 8
_TIG_iO_CNxj_1_quote_calc2_parse_1_opaque_ptr_2:
	.zero	8
	.globl	_TIG_iO_CNxj_1___bswap_32_1_opaque_list_2
	.align 8
	.type	_TIG_iO_CNxj_1___bswap_32_1_opaque_list_2, @object
	.size	_TIG_iO_CNxj_1___bswap_32_1_opaque_list_2, 8
_TIG_iO_CNxj_1___bswap_32_1_opaque_list_2:
	.zero	8
	.globl	_TIG_iO_CNxj_1_yygrowstack_1_opaque_list_1
	.align 8
	.type	_TIG_iO_CNxj_1_yygrowstack_1_opaque_list_1, @object
	.size	_TIG_iO_CNxj_1_yygrowstack_1_opaque_list_1, 8
_TIG_iO_CNxj_1_yygrowstack_1_opaque_list_1:
	.zero	8
	.globl	_TIG_IZ_CNxj_envp
	.align 8
	.type	_TIG_IZ_CNxj_envp, @object
	.size	_TIG_IZ_CNxj_envp, 8
_TIG_IZ_CNxj_envp:
	.zero	8
	.section	.rodata
.LC0:
	.string	"%s\n"
	.text
	.type	quote_calc2_error, @function
quote_calc2_error:
.LFB4:
	.cfi_startproc
	endbr64
	pushq	%rbp
	.cfi_def_cfa_offset 16
	.cfi_offset 6, -16
	movq	%rsp, %rbp
	.cfi_def_cfa_register 6
	subq	$48, %rsp
	movq	%rdi, -40(%rbp)
#APP
# 89 "/usr/include/x86_64-linux-gnu/bits/byteswap.h" 1
	##_ANNOTATION_INITIALREGION_-TIG-iO-CNxj-1-quote-calc2-error--16
# 0 "" 2
# 93 "/usr/include/x86_64-linux-gnu/bits/byteswap.h" 1
	##_ANNOTATION_ATOMICREGION_-TIG-iO-CNxj-1-quote-calc2-error--15
# 0 "" 2
#NO_APP
	movl	$24, %edi
	call	malloc@PLT
	movq	%rax, -24(%rbp)
	movq	-24(%rbp), %rax
	movq	-24(%rbp), %rdx
	movq	%rdx, 16(%rax)
	movq	-24(%rbp), %rax
	movq	-24(%rbp), %rdx
	movq	%rdx, 8(%rax)
	movq	-24(%rbp), %rax
	movq	%rax, _TIG_iO_CNxj_1_quote_calc2_error_1_opaque_list_1(%rip)
	call	rand@PLT
	movl	%eax, -32(%rbp)
	movl	$24, %edi
	call	malloc@PLT
	movq	%rax, -16(%rbp)
	movq	-16(%rbp), %rax
	movl	$0, (%rax)
	movq	_TIG_iO_CNxj_1_quote_calc2_error_1_opaque_list_1(%rip), %rax
	movq	16(%rax), %rdx
	movq	-16(%rbp), %rax
	movq	%rdx, 16(%rax)
	movq	_TIG_iO_CNxj_1_quote_calc2_error_1_opaque_list_1(%rip), %rdx
	movq	-16(%rbp), %rax
	movq	%rdx, 8(%rax)
	movq	_TIG_iO_CNxj_1_quote_calc2_error_1_opaque_list_1(%rip), %rax
	movq	16(%rax), %rax
	movq	-16(%rbp), %rdx
	movq	%rdx, 8(%rax)
	movq	_TIG_iO_CNxj_1_quote_calc2_error_1_opaque_list_1(%rip), %rax
	movq	-16(%rbp), %rdx
	movq	%rdx, 16(%rax)
	call	rand@PLT
	movl	%eax, -28(%rbp)
	movl	$24, %edi
	call	malloc@PLT
	movq	%rax, -8(%rbp)
	movq	-8(%rbp), %rax
	movl	-28(%rbp), %edx
	movl	%edx, (%rax)
	movq	_TIG_iO_CNxj_1_quote_calc2_error_1_opaque_list_1(%rip), %rax
	movq	16(%rax), %rdx
	movq	-8(%rbp), %rax
	movq	%rdx, 16(%rax)
	movq	_TIG_iO_CNxj_1_quote_calc2_error_1_opaque_list_1(%rip), %rdx
	movq	-8(%rbp), %rax
	movq	%rdx, 8(%rax)
	movq	_TIG_iO_CNxj_1_quote_calc2_error_1_opaque_list_1(%rip), %rax
	movq	16(%rax), %rax
	movq	-8(%rbp), %rdx
	movq	%rdx, 8(%rax)
	movq	_TIG_iO_CNxj_1_quote_calc2_error_1_opaque_list_1(%rip), %rax
	movq	-8(%rbp), %rdx
	movq	%rdx, 16(%rax)
	movq	_TIG_iO_CNxj_1_quote_calc2_error_1_opaque_list_1(%rip), %rax
	movq	16(%rax), %rax
	movq	%rax, _TIG_iO_CNxj_1_quote_calc2_error_1_opaque_ptr_1(%rip)
	movq	_TIG_iO_CNxj_1_quote_calc2_error_1_opaque_ptr_1(%rip), %rax
	movq	%rax, _TIG_iO_CNxj_1_quote_calc2_error_1_opaque_ptr_2(%rip)
	nop
	nop
	movq	_TIG_iO_CNxj_1_yygrowstack_1_opaque_ptr_1(%rip), %rdx
	movq	_TIG_iO_CNxj_1_yygrowstack_1_opaque_ptr_2(%rip), %rax
	cmpq	%rax, %rdx
	jne	.L2
#APP
# 122 "/usr/include/x86_64-linux-gnu/bits/byteswap.h" 1
	.byte 0x83,0xc6,0x68
# 0 "" 2
#NO_APP
	jmp	.L1
.L2:
	movq	stderr(%rip), %rax
	movq	-40(%rbp), %rdx
	leaq	.LC0(%rip), %rcx
	movq	%rcx, %rsi
	movq	%rax, %rdi
	movl	$0, %eax
	call	fprintf@PLT
	nop
.L1:
	leave
	.cfi_def_cfa 7, 8
	ret
	.cfi_endproc
.LFE4:
	.size	quote_calc2_error, .-quote_calc2_error
	.globl	quote_calc2_lex
	.type	quote_calc2_lex, @function
quote_calc2_lex:
.LFB5:
	.cfi_startproc
	endbr64
	pushq	%rbp
	.cfi_def_cfa_offset 16
	.cfi_offset 6, -16
	movq	%rsp, %rbp
	.cfi_def_cfa_register 6
	subq	$64, %rsp
#APP
# 107 "quote_calc2.y" 1
	##_ANNOTATION_INITIALREGION_-TIG-iO-CNxj-1-quote-calc2-lex--18
# 0 "" 2
# 111 "quote_calc2.y" 1
	##_ANNOTATION_ATOMICREGION_-TIG-iO-CNxj-1-quote-calc2-lex--17
# 0 "" 2
#NO_APP
	movl	$24, %edi
	call	malloc@PLT
	movq	%rax, -40(%rbp)
	movq	-40(%rbp), %rax
	movq	-40(%rbp), %rdx
	movq	%rdx, 8(%rax)
	movq	-40(%rbp), %rax
	movq	-40(%rbp), %rdx
	movq	%rdx, (%rax)
	movq	-40(%rbp), %rax
	movq	%rax, _TIG_iO_CNxj_1_quote_calc2_lex_1_opaque_list_1(%rip)
	call	rand@PLT
	movl	%eax, -52(%rbp)
	movl	$24, %edi
	call	malloc@PLT
	movq	%rax, -32(%rbp)
	movq	-32(%rbp), %rax
	movl	$0, 16(%rax)
	movq	_TIG_iO_CNxj_1_quote_calc2_lex_1_opaque_list_1(%rip), %rax
	movq	8(%rax), %rdx
	movq	-32(%rbp), %rax
	movq	%rdx, 8(%rax)
	movq	_TIG_iO_CNxj_1_quote_calc2_lex_1_opaque_list_1(%rip), %rdx
	movq	-32(%rbp), %rax
	movq	%rdx, (%rax)
	movq	_TIG_iO_CNxj_1_quote_calc2_lex_1_opaque_list_1(%rip), %rax
	movq	8(%rax), %rax
	movq	-32(%rbp), %rdx
	movq	%rdx, (%rax)
	movq	_TIG_iO_CNxj_1_quote_calc2_lex_1_opaque_list_1(%rip), %rax
	movq	-32(%rbp), %rdx
	movq	%rdx, 8(%rax)
	call	rand@PLT
	movl	%eax, -48(%rbp)
	movl	$24, %edi
	call	malloc@PLT
	movq	%rax, -24(%rbp)
	movq	-24(%rbp), %rax
	movl	-48(%rbp), %edx
	movl	%edx, 16(%rax)
	movq	_TIG_iO_CNxj_1_quote_calc2_lex_1_opaque_list_1(%rip), %rax
	movq	8(%rax), %rdx
	movq	-24(%rbp), %rax
	movq	%rdx, 8(%rax)
	movq	_TIG_iO_CNxj_1_quote_calc2_lex_1_opaque_list_1(%rip), %rdx
	movq	-24(%rbp), %rax
	movq	%rdx, (%rax)
	movq	_TIG_iO_CNxj_1_quote_calc2_lex_1_opaque_list_1(%rip), %rax
	movq	8(%rax), %rax
	movq	-24(%rbp), %rdx
	movq	%rdx, (%rax)
	movq	_TIG_iO_CNxj_1_quote_calc2_lex_1_opaque_list_1(%rip), %rax
	movq	-24(%rbp), %rdx
	movq	%rdx, 8(%rax)
	movq	_TIG_iO_CNxj_1_quote_calc2_lex_1_opaque_list_1(%rip), %rax
	movq	8(%rax), %rax
	movq	%rax, _TIG_iO_CNxj_1_quote_calc2_lex_1_opaque_ptr_1(%rip)
	movq	_TIG_iO_CNxj_1_quote_calc2_lex_1_opaque_ptr_1(%rip), %rax
	movq	%rax, _TIG_iO_CNxj_1_quote_calc2_lex_1_opaque_ptr_2(%rip)
	movq	_TIG_iO_CNxj_1_quote_calc2_lex_1_opaque_ptr_2(%rip), %rax
	movq	8(%rax), %rax
	movq	%rax, _TIG_iO_CNxj_1_quote_calc2_lex_1_opaque_ptr_2(%rip)
	nop
	nop
.L8:
	call	getchar@PLT
	movl	%eax, -44(%rbp)
	cmpl	$32, -44(%rbp)
	jne	.L15
	jmp	.L8
.L15:
	nop
	call	__ctype_b_loc@PLT
	movq	%rax, -16(%rbp)
	movq	-16(%rbp), %rax
	movq	(%rax), %rdx
	movl	-44(%rbp), %eax
	cltq
	addq	%rax, %rax
	addq	%rdx, %rax
	movzwl	(%rax), %eax
	movzwl	%ax, %eax
	andl	$512, %eax
	testl	%eax, %eax
	je	.L9
	movq	_TIG_iO_CNxj_1_yygrowstack_1_opaque_ptr_1(%rip), %rdx
	movq	_TIG_iO_CNxj_1_yygrowstack_1_opaque_ptr_2(%rip), %rax
	cmpq	%rax, %rdx
	jne	.L10
#APP
# 106 "quote_calc2.y" 1
	.byte 0x37,0x9c,0xf0
# 0 "" 2
#NO_APP
	jmp	.L11
.L10:
	movl	-44(%rbp), %eax
	subl	$97, %eax
	movl	%eax, quote_calc2_lval(%rip)
.L11:
	movl	$270, %eax
	jmp	.L12
.L9:
	call	__ctype_b_loc@PLT
	movq	%rax, -8(%rbp)
	movq	-8(%rbp), %rax
	movq	(%rax), %rdx
	movl	-44(%rbp), %eax
	cltq
	addq	%rax, %rax
	addq	%rdx, %rax
	movzwl	(%rax), %eax
	movzwl	%ax, %eax
	andl	$2048, %eax
	testl	%eax, %eax
	je	.L13
	movl	-44(%rbp), %eax
	subl	$48, %eax
	movl	%eax, quote_calc2_lval(%rip)
	movl	$269, %eax
	jmp	.L12
.L13:
	movl	-44(%rbp), %eax
.L12:
	leave
	.cfi_def_cfa 7, 8
	ret
	.cfi_endproc
.LFE5:
	.size	quote_calc2_lex, .-quote_calc2_lex
	.type	yygrowstack, @function
yygrowstack:
.LFB7:
	.cfi_startproc
	endbr64
	pushq	%rbp
	.cfi_def_cfa_offset 16
	.cfi_offset 6, -16
	movq	%rsp, %rbp
	.cfi_def_cfa_register 6
	subq	$112, %rsp
	movq	%rdi, -104(%rbp)
#APP
# 63 "/usr/include/x86_64-linux-gnu/bits/uintn-identity.h" 1
	##_ANNOTATION_INITIALREGION_-TIG-iO-CNxj-1-yygrowstack--22
# 0 "" 2
# 67 "/usr/include/x86_64-linux-gnu/bits/uintn-identity.h" 1
	##_ANNOTATION_ATOMICREGION_-TIG-iO-CNxj-1-yygrowstack--21
# 0 "" 2
#NO_APP
	movl	$24, %edi
	call	malloc@PLT
	movq	%rax, -64(%rbp)
	movq	-64(%rbp), %rax
	movq	-64(%rbp), %rdx
	movq	%rdx, (%rax)
	movq	-64(%rbp), %rax
	movq	-64(%rbp), %rdx
	movq	%rdx, 16(%rax)
	movq	-64(%rbp), %rax
	movq	%rax, _TIG_iO_CNxj_1_yygrowstack_1_opaque_list_1(%rip)
	call	rand@PLT
	movl	%eax, -80(%rbp)
	movl	$24, %edi
	call	malloc@PLT
	movq	%rax, -56(%rbp)
	movq	-56(%rbp), %rax
	movl	$0, 8(%rax)
	movq	_TIG_iO_CNxj_1_yygrowstack_1_opaque_list_1(%rip), %rax
	movq	(%rax), %rdx
	movq	-56(%rbp), %rax
	movq	%rdx, (%rax)
	movq	_TIG_iO_CNxj_1_yygrowstack_1_opaque_list_1(%rip), %rdx
	movq	-56(%rbp), %rax
	movq	%rdx, 16(%rax)
	movq	_TIG_iO_CNxj_1_yygrowstack_1_opaque_list_1(%rip), %rax
	movq	(%rax), %rax
	movq	-56(%rbp), %rdx
	movq	%rdx, 16(%rax)
	movq	_TIG_iO_CNxj_1_yygrowstack_1_opaque_list_1(%rip), %rax
	movq	-56(%rbp), %rdx
	movq	%rdx, (%rax)
	call	rand@PLT
	movl	%eax, -76(%rbp)
	movl	$24, %edi
	call	malloc@PLT
	movq	%rax, -48(%rbp)
	movq	-48(%rbp), %rax
	movl	-76(%rbp), %edx
	movl	%edx, 8(%rax)
	movq	_TIG_iO_CNxj_1_yygrowstack_1_opaque_list_1(%rip), %rax
	movq	(%rax), %rdx
	movq	-48(%rbp), %rax
	movq	%rdx, (%rax)
	movq	_TIG_iO_CNxj_1_yygrowstack_1_opaque_list_1(%rip), %rdx
	movq	-48(%rbp), %rax
	movq	%rdx, 16(%rax)
	movq	_TIG_iO_CNxj_1_yygrowstack_1_opaque_list_1(%rip), %rax
	movq	(%rax), %rax
	movq	-48(%rbp), %rdx
	movq	%rdx, 16(%rax)
	movq	_TIG_iO_CNxj_1_yygrowstack_1_opaque_list_1(%rip), %rax
	movq	-48(%rbp), %rdx
	movq	%rdx, (%rax)
	call	rand@PLT
	movl	%eax, -72(%rbp)
	movl	$24, %edi
	call	malloc@PLT
	movq	%rax, -40(%rbp)
	movl	-72(%rbp), %eax
	leal	(%rax,%rax), %edx
	movq	-40(%rbp), %rax
	movl	%edx, 8(%rax)
	movq	_TIG_iO_CNxj_1_yygrowstack_1_opaque_list_1(%rip), %rax
	movq	(%rax), %rdx
	movq	-40(%rbp), %rax
	movq	%rdx, (%rax)
	movq	_TIG_iO_CNxj_1_yygrowstack_1_opaque_list_1(%rip), %rdx
	movq	-40(%rbp), %rax
	movq	%rdx, 16(%rax)
	movq	_TIG_iO_CNxj_1_yygrowstack_1_opaque_list_1(%rip), %rax
	movq	(%rax), %rax
	movq	-40(%rbp), %rdx
	movq	%rdx, 16(%rax)
	movq	_TIG_iO_CNxj_1_yygrowstack_1_opaque_list_1(%rip), %rax
	movq	-40(%rbp), %rdx
	movq	%rdx, (%rax)
	movq	_TIG_iO_CNxj_1_yygrowstack_1_opaque_list_1(%rip), %rax
	movq	(%rax), %rax
	movq	%rax, _TIG_iO_CNxj_1_yygrowstack_1_opaque_ptr_1(%rip)
	movq	_TIG_iO_CNxj_1_yygrowstack_1_opaque_ptr_1(%rip), %rax
	movq	%rax, _TIG_iO_CNxj_1_yygrowstack_1_opaque_ptr_2(%rip)
	movq	_TIG_iO_CNxj_1_yygrowstack_1_opaque_ptr_2(%rip), %rax
	movq	(%rax), %rax
	movq	%rax, _TIG_iO_CNxj_1_yygrowstack_1_opaque_ptr_2(%rip)
	nop
	nop
	movq	-104(%rbp), %rax
	movl	(%rax), %eax
	movl	%eax, -84(%rbp)
	cmpl	$0, -84(%rbp)
	jne	.L17
	movl	$200, -84(%rbp)
	jmp	.L18
.L17:
	cmpl	$9999, -84(%rbp)
	jbe	.L19
	movl	$-1, %eax
	jmp	.L20
.L19:
	sall	-84(%rbp)
	cmpl	$10000, -84(%rbp)
	jbe	.L18
	movl	$10000, -84(%rbp)
.L18:
	movq	-104(%rbp), %rax
	movq	16(%rax), %rdx
	movq	-104(%rbp), %rax
	movq	8(%rax), %rcx
	movq	%rdx, %rax
	subq	%rcx, %rax
	sarq	%rax
	movl	%eax, -68(%rbp)
	movl	-84(%rbp), %eax
	leaq	(%rax,%rax), %rdx
	movq	-104(%rbp), %rax
	movq	8(%rax), %rax
	movq	%rdx, %rsi
	movq	%rax, %rdi
	call	realloc@PLT
	movq	%rax, -32(%rbp)
	movq	-32(%rbp), %rax
	movq	%rax, -24(%rbp)
	movq	_TIG_iO_CNxj_1_yygrowstack_1_opaque_ptr_1(%rip), %rdx
	movq	_TIG_iO_CNxj_1_yygrowstack_1_opaque_ptr_2(%rip), %rax
	cmpq	%rax, %rdx
	jne	.L21
	call	quote_calc2_parse
	movl	%eax, -80(%rbp)
.L21:
	cmpq	$0, -24(%rbp)
	jne	.L22
	movl	$-1, %eax
	jmp	.L20
.L22:
	movq	-104(%rbp), %rax
	movq	-24(%rbp), %rdx
	movq	%rdx, 8(%rax)
	movl	-68(%rbp), %eax
	cltq
	leaq	(%rax,%rax), %rdx
	movq	-24(%rbp), %rax
	addq	%rax, %rdx
	movq	-104(%rbp), %rax
	movq	%rdx, 16(%rax)
	movl	-84(%rbp), %eax
	leaq	0(,%rax,4), %rdx
	movq	-104(%rbp), %rax
	movq	32(%rax), %rax
	movq	%rdx, %rsi
	movq	%rax, %rdi
	call	realloc@PLT
	movq	%rax, -16(%rbp)
	movq	-16(%rbp), %rax
	movq	%rax, -8(%rbp)
	cmpq	$0, -8(%rbp)
	jne	.L23
	movl	$-1, %eax
	jmp	.L20
.L23:
	movq	-104(%rbp), %rax
	movq	-8(%rbp), %rdx
	movq	%rdx, 32(%rax)
	movl	-68(%rbp), %eax
	cltq
	leaq	0(,%rax,4), %rdx
	movq	-8(%rbp), %rax
	addq	%rax, %rdx
	movq	-104(%rbp), %rax
	movq	%rdx, 40(%rax)
	movq	-104(%rbp), %rax
	movl	-84(%rbp), %edx
	movl	%edx, (%rax)
	movq	-104(%rbp), %rax
	movq	8(%rax), %rdx
	movl	-84(%rbp), %eax
	addq	%rax, %rax
	subq	$2, %rax
	addq	%rax, %rdx
	movq	-104(%rbp), %rax
	movq	%rdx, 24(%rax)
	movl	$0, %eax
.L20:
	leave
	.cfi_def_cfa 7, 8
	ret
	.cfi_endproc
.LFE7:
	.size	yygrowstack, .-yygrowstack
	.globl	main
	.type	main, @function
main:
.LFB8:
	.cfi_startproc
	endbr64
	pushq	%rbp
	.cfi_def_cfa_offset 16
	.cfi_offset 6, -16
	movq	%rsp, %rbp
	.cfi_def_cfa_register 6
	subq	$96, %rsp
	movl	%edi, -68(%rbp)
	movq	%rsi, -80(%rbp)
	movq	%rdx, -88(%rbp)
	movl	$0, yystack(%rip)
	movq	$0, 8+yystack(%rip)
	movq	$0, 16+yystack(%rip)
	movq	$0, 24+yystack(%rip)
	movq	$0, 32+yystack(%rip)
	movq	$0, 40+yystack(%rip)
	nop
.L25:
	movl	$0, quote_calc2_lval(%rip)
	nop
.L26:
	movl	$0, quote_calc2_val(%rip)
	nop
.L27:
	movl	$0, quote_calc2_char(%rip)
	nop
.L28:
	movl	$0, quote_calc2_errflag(%rip)
	nop
.L29:
	movl	$0, quote_calc2_nerrs(%rip)
	nop
.L30:
	movl	$0, quote_calc2_debug(%rip)
	nop
.L31:
	movw	$10, quote_calc2_check(%rip)
	movw	$10, 2+quote_calc2_check(%rip)
	movw	$40, 4+quote_calc2_check(%rip)
	movw	$124, 6+quote_calc2_check(%rip)
	movw	$40, 8+quote_calc2_check(%rip)
	movw	$10, 10+quote_calc2_check(%rip)
	movw	$10, 12+quote_calc2_check(%rip)
	movw	$10, 14+quote_calc2_check(%rip)
	movw	$10, 16+quote_calc2_check(%rip)
	movw	$10, 18+quote_calc2_check(%rip)
	movw	$61, 20+quote_calc2_check(%rip)
	movw	$10, 22+quote_calc2_check(%rip)
	movw	$10, 24+quote_calc2_check(%rip)
	movw	$10, 26+quote_calc2_check(%rip)
	movw	$10, 28+quote_calc2_check(%rip)
	movw	$258, 30+quote_calc2_check(%rip)
	movw	$10, 32+quote_calc2_check(%rip)
	movw	$260, 34+quote_calc2_check(%rip)
	movw	$41, 36+quote_calc2_check(%rip)
	movw	$262, 38+quote_calc2_check(%rip)
	movw	$269, 40+quote_calc2_check(%rip)
	movw	$264, 42+quote_calc2_check(%rip)
	movw	$10, 44+quote_calc2_check(%rip)
	movw	$266, 46+quote_calc2_check(%rip)
	movw	$10, 48+quote_calc2_check(%rip)
	movw	$268, 50+quote_calc2_check(%rip)
	movw	$-1, 52+quote_calc2_check(%rip)
	movw	$-1, 54+quote_calc2_check(%rip)
	movw	$-1, 56+quote_calc2_check(%rip)
	movw	$-1, 58+quote_calc2_check(%rip)
	movw	$-1, 60+quote_calc2_check(%rip)
	movw	$41, 62+quote_calc2_check(%rip)
	movw	$-1, 64+quote_calc2_check(%rip)
	movw	$-1, 66+quote_calc2_check(%rip)
	movw	$-1, 68+quote_calc2_check(%rip)
	movw	$-1, 70+quote_calc2_check(%rip)
	movw	$41, 72+quote_calc2_check(%rip)
	movw	$41, 74+quote_calc2_check(%rip)
	movw	$41, 76+quote_calc2_check(%rip)
	movw	$41, 78+quote_calc2_check(%rip)
	movw	$41, 80+quote_calc2_check(%rip)
	movw	$-1, 82+quote_calc2_check(%rip)
	movw	$41, 84+quote_calc2_check(%rip)
	movw	$41, 86+quote_calc2_check(%rip)
	movw	$41, 88+quote_calc2_check(%rip)
	movw	$3, 90+quote_calc2_check(%rip)
	movw	$-1, 92+quote_calc2_check(%rip)
	movw	$-1, 94+quote_calc2_check(%rip)
	movw	$6, 96+quote_calc2_check(%rip)
	movw	$-1, 98+quote_calc2_check(%rip)
	movw	$-1, 100+quote_calc2_check(%rip)
	movw	$-1, 102+quote_calc2_check(%rip)
	movw	$-1, 104+quote_calc2_check(%rip)
	movw	$-1, 106+quote_calc2_check(%rip)
	movw	$-1, 108+quote_calc2_check(%rip)
	movw	$13, 110+quote_calc2_check(%rip)
	movw	$-1, 112+quote_calc2_check(%rip)
	movw	$-1, 114+quote_calc2_check(%rip)
	movw	$16, 116+quote_calc2_check(%rip)
	movw	$17, 118+quote_calc2_check(%rip)
	movw	$18, 120+quote_calc2_check(%rip)
	movw	$19, 122+quote_calc2_check(%rip)
	movw	$20, 124+quote_calc2_check(%rip)
	movw	$21, 126+quote_calc2_check(%rip)
	movw	$22, 128+quote_calc2_check(%rip)
	movw	$-1, 130+quote_calc2_check(%rip)
	movw	$-1, 132+quote_calc2_check(%rip)
	movw	$-1, 134+quote_calc2_check(%rip)
	movw	$-1, 136+quote_calc2_check(%rip)
	movw	$-1, 138+quote_calc2_check(%rip)
	movw	$-1, 140+quote_calc2_check(%rip)
	movw	$-1, 142+quote_calc2_check(%rip)
	movw	$-1, 144+quote_calc2_check(%rip)
	movw	$-1, 146+quote_calc2_check(%rip)
	movw	$-1, 148+quote_calc2_check(%rip)
	movw	$-1, 150+quote_calc2_check(%rip)
	movw	$-1, 152+quote_calc2_check(%rip)
	movw	$-1, 154+quote_calc2_check(%rip)
	movw	$-1, 156+quote_calc2_check(%rip)
	movw	$-1, 158+quote_calc2_check(%rip)
	movw	$-1, 160+quote_calc2_check(%rip)
	movw	$-1, 162+quote_calc2_check(%rip)
	movw	$-1, 164+quote_calc2_check(%rip)
	movw	$-1, 166+quote_calc2_check(%rip)
	movw	$-1, 168+quote_calc2_check(%rip)
	movw	$-1, 170+quote_calc2_check(%rip)
	movw	$-1, 172+quote_calc2_check(%rip)
	movw	$-1, 174+quote_calc2_check(%rip)
	movw	$-1, 176+quote_calc2_check(%rip)
	movw	$-1, 178+quote_calc2_check(%rip)
	movw	$-1, 180+quote_calc2_check(%rip)
	movw	$-1, 182+quote_calc2_check(%rip)
	movw	$-1, 184+quote_calc2_check(%rip)
	movw	$-1, 186+quote_calc2_check(%rip)
	movw	$-1, 188+quote_calc2_check(%rip)
	movw	$-1, 190+quote_calc2_check(%rip)
	movw	$-1, 192+quote_calc2_check(%rip)
	movw	$-1, 194+quote_calc2_check(%rip)
	movw	$-1, 196+quote_calc2_check(%rip)
	movw	$-1, 198+quote_calc2_check(%rip)
	movw	$-1, 200+quote_calc2_check(%rip)
	movw	$124, 202+quote_calc2_check(%rip)
	movw	$-1, 204+quote_calc2_check(%rip)
	movw	$-1, 206+quote_calc2_check(%rip)
	movw	$-1, 208+quote_calc2_check(%rip)
	movw	$-1, 210+quote_calc2_check(%rip)
	movw	$-1, 212+quote_calc2_check(%rip)
	movw	$-1, 214+quote_calc2_check(%rip)
	movw	$-1, 216+quote_calc2_check(%rip)
	movw	$-1, 218+quote_calc2_check(%rip)
	movw	$-1, 220+quote_calc2_check(%rip)
	movw	$-1, 222+quote_calc2_check(%rip)
	movw	$-1, 224+quote_calc2_check(%rip)
	movw	$-1, 226+quote_calc2_check(%rip)
	movw	$124, 228+quote_calc2_check(%rip)
	movw	$124, 230+quote_calc2_check(%rip)
	movw	$-1, 232+quote_calc2_check(%rip)
	movw	$-1, 234+quote_calc2_check(%rip)
	movw	$-1, 236+quote_calc2_check(%rip)
	movw	$124, 238+quote_calc2_check(%rip)
	movw	$124, 240+quote_calc2_check(%rip)
	movw	$-1, 242+quote_calc2_check(%rip)
	movw	$-1, 244+quote_calc2_check(%rip)
	movw	$-1, 246+quote_calc2_check(%rip)
	movw	$-1, 248+quote_calc2_check(%rip)
	movw	$-1, 250+quote_calc2_check(%rip)
	movw	$-1, 252+quote_calc2_check(%rip)
	movw	$-1, 254+quote_calc2_check(%rip)
	movw	$-1, 256+quote_calc2_check(%rip)
	movw	$-1, 258+quote_calc2_check(%rip)
	movw	$-1, 260+quote_calc2_check(%rip)
	movw	$-1, 262+quote_calc2_check(%rip)
	movw	$-1, 264+quote_calc2_check(%rip)
	movw	$-1, 266+quote_calc2_check(%rip)
	movw	$-1, 268+quote_calc2_check(%rip)
	movw	$-1, 270+quote_calc2_check(%rip)
	movw	$-1, 272+quote_calc2_check(%rip)
	movw	$258, 274+quote_calc2_check(%rip)
	movw	$-1, 276+quote_calc2_check(%rip)
	movw	$260, 278+quote_calc2_check(%rip)
	movw	$-1, 280+quote_calc2_check(%rip)
	movw	$262, 282+quote_calc2_check(%rip)
	movw	$-1, 284+quote_calc2_check(%rip)
	movw	$264, 286+quote_calc2_check(%rip)
	movw	$-1, 288+quote_calc2_check(%rip)
	movw	$266, 290+quote_calc2_check(%rip)
	movw	$-1, 292+quote_calc2_check(%rip)
	movw	$268, 294+quote_calc2_check(%rip)
	movw	$-1, 296+quote_calc2_check(%rip)
	movw	$-1, 298+quote_calc2_check(%rip)
	movw	$-1, 300+quote_calc2_check(%rip)
	movw	$-1, 302+quote_calc2_check(%rip)
	movw	$-1, 304+quote_calc2_check(%rip)
	movw	$-1, 306+quote_calc2_check(%rip)
	movw	$-1, 308+quote_calc2_check(%rip)
	movw	$-1, 310+quote_calc2_check(%rip)
	movw	$-1, 312+quote_calc2_check(%rip)
	movw	$-1, 314+quote_calc2_check(%rip)
	movw	$-1, 316+quote_calc2_check(%rip)
	movw	$-1, 318+quote_calc2_check(%rip)
	movw	$-1, 320+quote_calc2_check(%rip)
	movw	$-1, 322+quote_calc2_check(%rip)
	movw	$-1, 324+quote_calc2_check(%rip)
	movw	$-1, 326+quote_calc2_check(%rip)
	movw	$-1, 328+quote_calc2_check(%rip)
	movw	$-1, 330+quote_calc2_check(%rip)
	movw	$-1, 332+quote_calc2_check(%rip)
	movw	$-1, 334+quote_calc2_check(%rip)
	movw	$-1, 336+quote_calc2_check(%rip)
	movw	$-1, 338+quote_calc2_check(%rip)
	movw	$-1, 340+quote_calc2_check(%rip)
	movw	$-1, 342+quote_calc2_check(%rip)
	movw	$-1, 344+quote_calc2_check(%rip)
	movw	$-1, 346+quote_calc2_check(%rip)
	movw	$-1, 348+quote_calc2_check(%rip)
	movw	$-1, 350+quote_calc2_check(%rip)
	movw	$-1, 352+quote_calc2_check(%rip)
	movw	$-1, 354+quote_calc2_check(%rip)
	movw	$-1, 356+quote_calc2_check(%rip)
	movw	$-1, 358+quote_calc2_check(%rip)
	movw	$-1, 360+quote_calc2_check(%rip)
	movw	$-1, 362+quote_calc2_check(%rip)
	movw	$-1, 364+quote_calc2_check(%rip)
	movw	$-1, 366+quote_calc2_check(%rip)
	movw	$-1, 368+quote_calc2_check(%rip)
	movw	$-1, 370+quote_calc2_check(%rip)
	movw	$-1, 372+quote_calc2_check(%rip)
	movw	$-1, 374+quote_calc2_check(%rip)
	movw	$-1, 376+quote_calc2_check(%rip)
	movw	$-1, 378+quote_calc2_check(%rip)
	movw	$-1, 380+quote_calc2_check(%rip)
	movw	$-1, 382+quote_calc2_check(%rip)
	movw	$-1, 384+quote_calc2_check(%rip)
	movw	$-1, 386+quote_calc2_check(%rip)
	movw	$-1, 388+quote_calc2_check(%rip)
	movw	$-1, 390+quote_calc2_check(%rip)
	movw	$-1, 392+quote_calc2_check(%rip)
	movw	$-1, 394+quote_calc2_check(%rip)
	movw	$-1, 396+quote_calc2_check(%rip)
	movw	$-1, 398+quote_calc2_check(%rip)
	movw	$-1, 400+quote_calc2_check(%rip)
	movw	$-1, 402+quote_calc2_check(%rip)
	movw	$-1, 404+quote_calc2_check(%rip)
	movw	$-1, 406+quote_calc2_check(%rip)
	movw	$-1, 408+quote_calc2_check(%rip)
	movw	$-1, 410+quote_calc2_check(%rip)
	movw	$-1, 412+quote_calc2_check(%rip)
	movw	$-1, 414+quote_calc2_check(%rip)
	movw	$-1, 416+quote_calc2_check(%rip)
	movw	$-1, 418+quote_calc2_check(%rip)
	movw	$-1, 420+quote_calc2_check(%rip)
	movw	$-1, 422+quote_calc2_check(%rip)
	movw	$-1, 424+quote_calc2_check(%rip)
	movw	$-1, 426+quote_calc2_check(%rip)
	movw	$-1, 428+quote_calc2_check(%rip)
	movw	$-1, 430+quote_calc2_check(%rip)
	movw	$-1, 432+quote_calc2_check(%rip)
	movw	$-1, 434+quote_calc2_check(%rip)
	movw	$256, 436+quote_calc2_check(%rip)
	movw	$-1, 438+quote_calc2_check(%rip)
	movw	$-1, 440+quote_calc2_check(%rip)
	movw	$-1, 442+quote_calc2_check(%rip)
	movw	$260, 444+quote_calc2_check(%rip)
	movw	$-1, 446+quote_calc2_check(%rip)
	movw	$260, 448+quote_calc2_check(%rip)
	movw	$-1, 450+quote_calc2_check(%rip)
	movw	$-1, 452+quote_calc2_check(%rip)
	movw	$-1, 454+quote_calc2_check(%rip)
	movw	$-1, 456+quote_calc2_check(%rip)
	movw	$-1, 458+quote_calc2_check(%rip)
	movw	$-1, 460+quote_calc2_check(%rip)
	movw	$269, 462+quote_calc2_check(%rip)
	movw	$270, 464+quote_calc2_check(%rip)
	movw	$269, 466+quote_calc2_check(%rip)
	movw	$270, 468+quote_calc2_check(%rip)
	movw	$258, 470+quote_calc2_check(%rip)
	movw	$-1, 472+quote_calc2_check(%rip)
	movw	$260, 474+quote_calc2_check(%rip)
	movw	$-1, 476+quote_calc2_check(%rip)
	movw	$262, 478+quote_calc2_check(%rip)
	movw	$-1, 480+quote_calc2_check(%rip)
	movw	$264, 482+quote_calc2_check(%rip)
	movw	$-1, 484+quote_calc2_check(%rip)
	movw	$266, 486+quote_calc2_check(%rip)
	movw	$-1, 488+quote_calc2_check(%rip)
	movw	$268, 490+quote_calc2_check(%rip)
	movw	$-1, 492+quote_calc2_check(%rip)
	movw	$-1, 494+quote_calc2_check(%rip)
	movw	$258, 496+quote_calc2_check(%rip)
	movw	$258, 498+quote_calc2_check(%rip)
	movw	$260, 500+quote_calc2_check(%rip)
	movw	$260, 502+quote_calc2_check(%rip)
	movw	$262, 504+quote_calc2_check(%rip)
	movw	$262, 506+quote_calc2_check(%rip)
	movw	$264, 508+quote_calc2_check(%rip)
	movw	$264, 510+quote_calc2_check(%rip)
	movw	$266, 512+quote_calc2_check(%rip)
	movw	$266, 514+quote_calc2_check(%rip)
	movw	$268, 516+quote_calc2_check(%rip)
	movw	$268, 518+quote_calc2_check(%rip)
	nop
.L32:
	movw	$16, quote_calc2_table(%rip)
	movw	$15, 2+quote_calc2_table(%rip)
	movw	$6, 4+quote_calc2_table(%rip)
	movw	$22, 6+quote_calc2_table(%rip)
	movw	$6, 8+quote_calc2_table(%rip)
	movw	$14, 10+quote_calc2_table(%rip)
	movw	$13, 12+quote_calc2_table(%rip)
	movw	$7, 14+quote_calc2_table(%rip)
	movw	$8, 16+quote_calc2_table(%rip)
	movw	$9, 18+quote_calc2_table(%rip)
	movw	$13, 20+quote_calc2_table(%rip)
	movw	$10, 22+quote_calc2_table(%rip)
	movw	$11, 24+quote_calc2_table(%rip)
	movw	$12, 26+quote_calc2_table(%rip)
	movw	$10, 28+quote_calc2_table(%rip)
	movw	$16, 30+quote_calc2_table(%rip)
	movw	$15, 32+quote_calc2_table(%rip)
	movw	$17, 34+quote_calc2_table(%rip)
	movw	$25, 36+quote_calc2_table(%rip)
	movw	$18, 38+quote_calc2_table(%rip)
	movw	$23, 40+quote_calc2_table(%rip)
	movw	$19, 42+quote_calc2_table(%rip)
	movw	$4, 44+quote_calc2_table(%rip)
	movw	$20, 46+quote_calc2_table(%rip)
	movw	$5, 48+quote_calc2_table(%rip)
	movw	$21, 50+quote_calc2_table(%rip)
	movw	$0, 52+quote_calc2_table(%rip)
	movw	$0, 54+quote_calc2_table(%rip)
	movw	$0, 56+quote_calc2_table(%rip)
	movw	$0, 58+quote_calc2_table(%rip)
	movw	$0, 60+quote_calc2_table(%rip)
	movw	$16, 62+quote_calc2_table(%rip)
	movw	$0, 64+quote_calc2_table(%rip)
	movw	$0, 66+quote_calc2_table(%rip)
	movw	$0, 68+quote_calc2_table(%rip)
	movw	$0, 70+quote_calc2_table(%rip)
	movw	$14, 72+quote_calc2_table(%rip)
	movw	$13, 74+quote_calc2_table(%rip)
	movw	$7, 76+quote_calc2_table(%rip)
	movw	$8, 78+quote_calc2_table(%rip)
	movw	$9, 80+quote_calc2_table(%rip)
	movw	$0, 82+quote_calc2_table(%rip)
	movw	$10, 84+quote_calc2_table(%rip)
	movw	$11, 86+quote_calc2_table(%rip)
	movw	$12, 88+quote_calc2_table(%rip)
	movw	$12, 90+quote_calc2_table(%rip)
	movw	$0, 92+quote_calc2_table(%rip)
	movw	$0, 94+quote_calc2_table(%rip)
	movw	$14, 96+quote_calc2_table(%rip)
	movw	$0, 98+quote_calc2_table(%rip)
	movw	$0, 100+quote_calc2_table(%rip)
	movw	$0, 102+quote_calc2_table(%rip)
	movw	$0, 104+quote_calc2_table(%rip)
	movw	$0, 106+quote_calc2_table(%rip)
	movw	$0, 108+quote_calc2_table(%rip)
	movw	$24, 110+quote_calc2_table(%rip)
	movw	$0, 112+quote_calc2_table(%rip)
	movw	$0, 114+quote_calc2_table(%rip)
	movw	$26, 116+quote_calc2_table(%rip)
	movw	$27, 118+quote_calc2_table(%rip)
	movw	$28, 120+quote_calc2_table(%rip)
	movw	$29, 122+quote_calc2_table(%rip)
	movw	$30, 124+quote_calc2_table(%rip)
	movw	$31, 126+quote_calc2_table(%rip)
	movw	$32, 128+quote_calc2_table(%rip)
	movw	$0, 130+quote_calc2_table(%rip)
	movw	$0, 132+quote_calc2_table(%rip)
	movw	$0, 134+quote_calc2_table(%rip)
	movw	$0, 136+quote_calc2_table(%rip)
	movw	$0, 138+quote_calc2_table(%rip)
	movw	$0, 140+quote_calc2_table(%rip)
	movw	$0, 142+quote_calc2_table(%rip)
	movw	$0, 144+quote_calc2_table(%rip)
	movw	$0, 146+quote_calc2_table(%rip)
	movw	$0, 148+quote_calc2_table(%rip)
	movw	$0, 150+quote_calc2_table(%rip)
	movw	$0, 152+quote_calc2_table(%rip)
	movw	$0, 154+quote_calc2_table(%rip)
	movw	$0, 156+quote_calc2_table(%rip)
	movw	$0, 158+quote_calc2_table(%rip)
	movw	$0, 160+quote_calc2_table(%rip)
	movw	$0, 162+quote_calc2_table(%rip)
	movw	$0, 164+quote_calc2_table(%rip)
	movw	$0, 166+quote_calc2_table(%rip)
	movw	$0, 168+quote_calc2_table(%rip)
	movw	$0, 170+quote_calc2_table(%rip)
	movw	$0, 172+quote_calc2_table(%rip)
	movw	$0, 174+quote_calc2_table(%rip)
	movw	$0, 176+quote_calc2_table(%rip)
	movw	$0, 178+quote_calc2_table(%rip)
	movw	$0, 180+quote_calc2_table(%rip)
	movw	$0, 182+quote_calc2_table(%rip)
	movw	$0, 184+quote_calc2_table(%rip)
	movw	$0, 186+quote_calc2_table(%rip)
	movw	$0, 188+quote_calc2_table(%rip)
	movw	$0, 190+quote_calc2_table(%rip)
	movw	$0, 192+quote_calc2_table(%rip)
	movw	$0, 194+quote_calc2_table(%rip)
	movw	$0, 196+quote_calc2_table(%rip)
	movw	$0, 198+quote_calc2_table(%rip)
	movw	$0, 200+quote_calc2_table(%rip)
	movw	$22, 202+quote_calc2_table(%rip)
	movw	$0, 204+quote_calc2_table(%rip)
	movw	$0, 206+quote_calc2_table(%rip)
	movw	$0, 208+quote_calc2_table(%rip)
	movw	$0, 210+quote_calc2_table(%rip)
	movw	$0, 212+quote_calc2_table(%rip)
	movw	$0, 214+quote_calc2_table(%rip)
	movw	$0, 216+quote_calc2_table(%rip)
	movw	$0, 218+quote_calc2_table(%rip)
	movw	$0, 220+quote_calc2_table(%rip)
	movw	$0, 222+quote_calc2_table(%rip)
	movw	$0, 224+quote_calc2_table(%rip)
	movw	$0, 226+quote_calc2_table(%rip)
	movw	$16, 228+quote_calc2_table(%rip)
	movw	$15, 230+quote_calc2_table(%rip)
	movw	$0, 232+quote_calc2_table(%rip)
	movw	$0, 234+quote_calc2_table(%rip)
	movw	$0, 236+quote_calc2_table(%rip)
	movw	$14, 238+quote_calc2_table(%rip)
	movw	$13, 240+quote_calc2_table(%rip)
	movw	$0, 242+quote_calc2_table(%rip)
	movw	$0, 244+quote_calc2_table(%rip)
	movw	$0, 246+quote_calc2_table(%rip)
	movw	$0, 248+quote_calc2_table(%rip)
	movw	$0, 250+quote_calc2_table(%rip)
	movw	$0, 252+quote_calc2_table(%rip)
	movw	$0, 254+quote_calc2_table(%rip)
	movw	$0, 256+quote_calc2_table(%rip)
	movw	$0, 258+quote_calc2_table(%rip)
	movw	$0, 260+quote_calc2_table(%rip)
	movw	$0, 262+quote_calc2_table(%rip)
	movw	$0, 264+quote_calc2_table(%rip)
	movw	$0, 266+quote_calc2_table(%rip)
	movw	$0, 268+quote_calc2_table(%rip)
	movw	$0, 270+quote_calc2_table(%rip)
	movw	$0, 272+quote_calc2_table(%rip)
	movw	$16, 274+quote_calc2_table(%rip)
	movw	$0, 276+quote_calc2_table(%rip)
	movw	$17, 278+quote_calc2_table(%rip)
	movw	$0, 280+quote_calc2_table(%rip)
	movw	$18, 282+quote_calc2_table(%rip)
	movw	$0, 284+quote_calc2_table(%rip)
	movw	$19, 286+quote_calc2_table(%rip)
	movw	$0, 288+quote_calc2_table(%rip)
	movw	$20, 290+quote_calc2_table(%rip)
	movw	$0, 292+quote_calc2_table(%rip)
	movw	$21, 294+quote_calc2_table(%rip)
	movw	$0, 296+quote_calc2_table(%rip)
	movw	$0, 298+quote_calc2_table(%rip)
	movw	$0, 300+quote_calc2_table(%rip)
	movw	$0, 302+quote_calc2_table(%rip)
	movw	$0, 304+quote_calc2_table(%rip)
	movw	$0, 306+quote_calc2_table(%rip)
	movw	$0, 308+quote_calc2_table(%rip)
	movw	$0, 310+quote_calc2_table(%rip)
	movw	$0, 312+quote_calc2_table(%rip)
	movw	$0, 314+quote_calc2_table(%rip)
	movw	$0, 316+quote_calc2_table(%rip)
	movw	$0, 318+quote_calc2_table(%rip)
	movw	$0, 320+quote_calc2_table(%rip)
	movw	$0, 322+quote_calc2_table(%rip)
	movw	$0, 324+quote_calc2_table(%rip)
	movw	$0, 326+quote_calc2_table(%rip)
	movw	$0, 328+quote_calc2_table(%rip)
	movw	$0, 330+quote_calc2_table(%rip)
	movw	$0, 332+quote_calc2_table(%rip)
	movw	$0, 334+quote_calc2_table(%rip)
	movw	$0, 336+quote_calc2_table(%rip)
	movw	$0, 338+quote_calc2_table(%rip)
	movw	$0, 340+quote_calc2_table(%rip)
	movw	$0, 342+quote_calc2_table(%rip)
	movw	$0, 344+quote_calc2_table(%rip)
	movw	$0, 346+quote_calc2_table(%rip)
	movw	$0, 348+quote_calc2_table(%rip)
	movw	$0, 350+quote_calc2_table(%rip)
	movw	$0, 352+quote_calc2_table(%rip)
	movw	$0, 354+quote_calc2_table(%rip)
	movw	$0, 356+quote_calc2_table(%rip)
	movw	$0, 358+quote_calc2_table(%rip)
	movw	$0, 360+quote_calc2_table(%rip)
	movw	$0, 362+quote_calc2_table(%rip)
	movw	$0, 364+quote_calc2_table(%rip)
	movw	$0, 366+quote_calc2_table(%rip)
	movw	$0, 368+quote_calc2_table(%rip)
	movw	$0, 370+quote_calc2_table(%rip)
	movw	$0, 372+quote_calc2_table(%rip)
	movw	$0, 374+quote_calc2_table(%rip)
	movw	$0, 376+quote_calc2_table(%rip)
	movw	$0, 378+quote_calc2_table(%rip)
	movw	$0, 380+quote_calc2_table(%rip)
	movw	$0, 382+quote_calc2_table(%rip)
	movw	$0, 384+quote_calc2_table(%rip)
	movw	$0, 386+quote_calc2_table(%rip)
	movw	$0, 388+quote_calc2_table(%rip)
	movw	$0, 390+quote_calc2_table(%rip)
	movw	$0, 392+quote_calc2_table(%rip)
	movw	$0, 394+quote_calc2_table(%rip)
	movw	$0, 396+quote_calc2_table(%rip)
	movw	$0, 398+quote_calc2_table(%rip)
	movw	$0, 400+quote_calc2_table(%rip)
	movw	$0, 402+quote_calc2_table(%rip)
	movw	$0, 404+quote_calc2_table(%rip)
	movw	$0, 406+quote_calc2_table(%rip)
	movw	$0, 408+quote_calc2_table(%rip)
	movw	$0, 410+quote_calc2_table(%rip)
	movw	$0, 412+quote_calc2_table(%rip)
	movw	$0, 414+quote_calc2_table(%rip)
	movw	$0, 416+quote_calc2_table(%rip)
	movw	$0, 418+quote_calc2_table(%rip)
	movw	$0, 420+quote_calc2_table(%rip)
	movw	$0, 422+quote_calc2_table(%rip)
	movw	$0, 424+quote_calc2_table(%rip)
	movw	$0, 426+quote_calc2_table(%rip)
	movw	$0, 428+quote_calc2_table(%rip)
	movw	$0, 430+quote_calc2_table(%rip)
	movw	$0, 432+quote_calc2_table(%rip)
	movw	$0, 434+quote_calc2_table(%rip)
	movw	$2, 436+quote_calc2_table(%rip)
	movw	$0, 438+quote_calc2_table(%rip)
	movw	$0, 440+quote_calc2_table(%rip)
	movw	$0, 442+quote_calc2_table(%rip)
	movw	$3, 444+quote_calc2_table(%rip)
	movw	$0, 446+quote_calc2_table(%rip)
	movw	$3, 448+quote_calc2_table(%rip)
	movw	$0, 450+quote_calc2_table(%rip)
	movw	$0, 452+quote_calc2_table(%rip)
	movw	$0, 454+quote_calc2_table(%rip)
	movw	$0, 456+quote_calc2_table(%rip)
	movw	$0, 458+quote_calc2_table(%rip)
	movw	$0, 460+quote_calc2_table(%rip)
	movw	$4, 462+quote_calc2_table(%rip)
	movw	$5, 464+quote_calc2_table(%rip)
	movw	$4, 466+quote_calc2_table(%rip)
	movw	$11, 468+quote_calc2_table(%rip)
	movw	$16, 470+quote_calc2_table(%rip)
	movw	$0, 472+quote_calc2_table(%rip)
	movw	$17, 474+quote_calc2_table(%rip)
	movw	$0, 476+quote_calc2_table(%rip)
	movw	$18, 478+quote_calc2_table(%rip)
	movw	$0, 480+quote_calc2_table(%rip)
	movw	$19, 482+quote_calc2_table(%rip)
	movw	$0, 484+quote_calc2_table(%rip)
	movw	$20, 486+quote_calc2_table(%rip)
	movw	$0, 488+quote_calc2_table(%rip)
	movw	$21, 490+quote_calc2_table(%rip)
	movw	$0, 492+quote_calc2_table(%rip)
	movw	$0, 494+quote_calc2_table(%rip)
	movw	$16, 496+quote_calc2_table(%rip)
	movw	$15, 498+quote_calc2_table(%rip)
	movw	$16, 500+quote_calc2_table(%rip)
	movw	$15, 502+quote_calc2_table(%rip)
	movw	$16, 504+quote_calc2_table(%rip)
	movw	$15, 506+quote_calc2_table(%rip)
	movw	$16, 508+quote_calc2_table(%rip)
	movw	$15, 510+quote_calc2_table(%rip)
	movw	$16, 512+quote_calc2_table(%rip)
	movw	$15, 514+quote_calc2_table(%rip)
	movw	$16, 516+quote_calc2_table(%rip)
	movw	$15, 518+quote_calc2_table(%rip)
	nop
.L33:
	movw	$0, quote_calc2_gindex(%rip)
	movw	$0, 2+quote_calc2_gindex(%rip)
	movw	$42, 4+quote_calc2_gindex(%rip)
	movw	$0, 6+quote_calc2_gindex(%rip)
	nop
.L34:
	movw	$0, quote_calc2_rindex(%rip)
	movw	$0, 2+quote_calc2_rindex(%rip)
	movw	$0, 4+quote_calc2_rindex(%rip)
	movw	$0, 6+quote_calc2_rindex(%rip)
	movw	$0, 8+quote_calc2_rindex(%rip)
	movw	$-9, 10+quote_calc2_rindex(%rip)
	movw	$0, 12+quote_calc2_rindex(%rip)
	movw	$0, 14+quote_calc2_rindex(%rip)
	movw	$12, 16+quote_calc2_rindex(%rip)
	movw	$-10, 18+quote_calc2_rindex(%rip)
	movw	$0, 20+quote_calc2_rindex(%rip)
	movw	$0, 22+quote_calc2_rindex(%rip)
	movw	$-5, 24+quote_calc2_rindex(%rip)
	movw	$0, 26+quote_calc2_rindex(%rip)
	movw	$0, 28+quote_calc2_rindex(%rip)
	movw	$0, 30+quote_calc2_rindex(%rip)
	movw	$0, 32+quote_calc2_rindex(%rip)
	movw	$0, 34+quote_calc2_rindex(%rip)
	movw	$0, 36+quote_calc2_rindex(%rip)
	movw	$0, 38+quote_calc2_rindex(%rip)
	movw	$0, 40+quote_calc2_rindex(%rip)
	movw	$0, 42+quote_calc2_rindex(%rip)
	movw	$0, 44+quote_calc2_rindex(%rip)
	movw	$0, 46+quote_calc2_rindex(%rip)
	movw	$14, 48+quote_calc2_rindex(%rip)
	movw	$0, 50+quote_calc2_rindex(%rip)
	movw	$-3, 52+quote_calc2_rindex(%rip)
	movw	$-2, 54+quote_calc2_rindex(%rip)
	movw	$-1, 56+quote_calc2_rindex(%rip)
	movw	$1, 58+quote_calc2_rindex(%rip)
	movw	$2, 60+quote_calc2_rindex(%rip)
	movw	$3, 62+quote_calc2_rindex(%rip)
	movw	$-4, 64+quote_calc2_rindex(%rip)
	nop
.L35:
	movw	$0, quote_calc2_sindex(%rip)
	movw	$-38, 2+quote_calc2_sindex(%rip)
	movw	$4, 4+quote_calc2_sindex(%rip)
	movw	$-36, 6+quote_calc2_sindex(%rip)
	movw	$0, 8+quote_calc2_sindex(%rip)
	movw	$-51, 10+quote_calc2_sindex(%rip)
	movw	$-36, 12+quote_calc2_sindex(%rip)
	movw	$6, 14+quote_calc2_sindex(%rip)
	movw	$-121, 16+quote_calc2_sindex(%rip)
	movw	$-249, 18+quote_calc2_sindex(%rip)
	movw	$0, 20+quote_calc2_sindex(%rip)
	movw	$0, 22+quote_calc2_sindex(%rip)
	movw	$-243, 24+quote_calc2_sindex(%rip)
	movw	$-36, 26+quote_calc2_sindex(%rip)
	movw	$-23, 28+quote_calc2_sindex(%rip)
	movw	$0, 30+quote_calc2_sindex(%rip)
	movw	$-36, 32+quote_calc2_sindex(%rip)
	movw	$-36, 34+quote_calc2_sindex(%rip)
	movw	$-36, 36+quote_calc2_sindex(%rip)
	movw	$-36, 38+quote_calc2_sindex(%rip)
	movw	$-36, 40+quote_calc2_sindex(%rip)
	movw	$-36, 42+quote_calc2_sindex(%rip)
	movw	$-36, 44+quote_calc2_sindex(%rip)
	movw	$0, 46+quote_calc2_sindex(%rip)
	movw	$-121, 48+quote_calc2_sindex(%rip)
	movw	$0, 50+quote_calc2_sindex(%rip)
	movw	$-121, 52+quote_calc2_sindex(%rip)
	movw	$-121, 54+quote_calc2_sindex(%rip)
	movw	$-121, 56+quote_calc2_sindex(%rip)
	movw	$-121, 58+quote_calc2_sindex(%rip)
	movw	$-121, 60+quote_calc2_sindex(%rip)
	movw	$-121, 62+quote_calc2_sindex(%rip)
	movw	$-243, 64+quote_calc2_sindex(%rip)
	nop
.L36:
	movw	$1, quote_calc2_dgoto(%rip)
	movw	$7, 2+quote_calc2_dgoto(%rip)
	movw	$8, 4+quote_calc2_dgoto(%rip)
	movw	$9, 6+quote_calc2_dgoto(%rip)
	nop
.L37:
	movw	$1, quote_calc2_defred(%rip)
	movw	$0, 2+quote_calc2_defred(%rip)
	movw	$0, 4+quote_calc2_defred(%rip)
	movw	$0, 6+quote_calc2_defred(%rip)
	movw	$17, 8+quote_calc2_defred(%rip)
	movw	$0, 10+quote_calc2_defred(%rip)
	movw	$0, 12+quote_calc2_defred(%rip)
	movw	$0, 14+quote_calc2_defred(%rip)
	movw	$0, 16+quote_calc2_defred(%rip)
	movw	$0, 18+quote_calc2_defred(%rip)
	movw	$3, 20+quote_calc2_defred(%rip)
	movw	$15, 22+quote_calc2_defred(%rip)
	movw	$0, 24+quote_calc2_defred(%rip)
	movw	$0, 26+quote_calc2_defred(%rip)
	movw	$0, 28+quote_calc2_defred(%rip)
	movw	$2, 30+quote_calc2_defred(%rip)
	movw	$0, 32+quote_calc2_defred(%rip)
	movw	$0, 34+quote_calc2_defred(%rip)
	movw	$0, 36+quote_calc2_defred(%rip)
	movw	$0, 38+quote_calc2_defred(%rip)
	movw	$0, 40+quote_calc2_defred(%rip)
	movw	$0, 42+quote_calc2_defred(%rip)
	movw	$0, 44+quote_calc2_defred(%rip)
	movw	$18, 46+quote_calc2_defred(%rip)
	movw	$0, 48+quote_calc2_defred(%rip)
	movw	$6, 50+quote_calc2_defred(%rip)
	movw	$0, 52+quote_calc2_defred(%rip)
	movw	$0, 54+quote_calc2_defred(%rip)
	movw	$0, 56+quote_calc2_defred(%rip)
	movw	$0, 58+quote_calc2_defred(%rip)
	movw	$0, 60+quote_calc2_defred(%rip)
	movw	$0, 62+quote_calc2_defred(%rip)
	movw	$0, 64+quote_calc2_defred(%rip)
	nop
.L38:
	movw	$2, quote_calc2_len(%rip)
	movw	$0, 2+quote_calc2_len(%rip)
	movw	$3, 4+quote_calc2_len(%rip)
	movw	$3, 6+quote_calc2_len(%rip)
	movw	$1, 8+quote_calc2_len(%rip)
	movw	$3, 10+quote_calc2_len(%rip)
	movw	$3, 12+quote_calc2_len(%rip)
	movw	$3, 14+quote_calc2_len(%rip)
	movw	$3, 16+quote_calc2_len(%rip)
	movw	$3, 18+quote_calc2_len(%rip)
	movw	$3, 20+quote_calc2_len(%rip)
	movw	$3, 22+quote_calc2_len(%rip)
	movw	$3, 24+quote_calc2_len(%rip)
	movw	$3, 26+quote_calc2_len(%rip)
	movw	$2, 28+quote_calc2_len(%rip)
	movw	$1, 30+quote_calc2_len(%rip)
	movw	$1, 32+quote_calc2_len(%rip)
	movw	$1, 34+quote_calc2_len(%rip)
	movw	$2, 36+quote_calc2_len(%rip)
	nop
.L39:
	movw	$-1, quote_calc2_lhs(%rip)
	movw	$0, 2+quote_calc2_lhs(%rip)
	movw	$0, 4+quote_calc2_lhs(%rip)
	movw	$0, 6+quote_calc2_lhs(%rip)
	movw	$1, 8+quote_calc2_lhs(%rip)
	movw	$1, 10+quote_calc2_lhs(%rip)
	movw	$2, 12+quote_calc2_lhs(%rip)
	movw	$2, 14+quote_calc2_lhs(%rip)
	movw	$2, 16+quote_calc2_lhs(%rip)
	movw	$2, 18+quote_calc2_lhs(%rip)
	movw	$2, 20+quote_calc2_lhs(%rip)
	movw	$2, 22+quote_calc2_lhs(%rip)
	movw	$2, 24+quote_calc2_lhs(%rip)
	movw	$2, 26+quote_calc2_lhs(%rip)
	movw	$2, 28+quote_calc2_lhs(%rip)
	movw	$2, 30+quote_calc2_lhs(%rip)
	movw	$2, 32+quote_calc2_lhs(%rip)
	movw	$3, 34+quote_calc2_lhs(%rip)
	movw	$3, 36+quote_calc2_lhs(%rip)
	nop
.L40:
	movl	$0, base(%rip)
	nop
.L41:
	movl	$0, -64(%rbp)
	jmp	.L42
.L43:
	movl	-64(%rbp), %eax
	cltq
	leaq	0(,%rax,4), %rdx
	leaq	regs(%rip), %rax
	movl	$0, (%rdx,%rax)
	addl	$1, -64(%rbp)
.L42:
	cmpl	$25, -64(%rbp)
	jle	.L43
	nop
.L44:
	movb	$64, yysccsid(%rip)
	movb	$40, 1+yysccsid(%rip)
	movb	$35, 2+yysccsid(%rip)
	movb	$41, 3+yysccsid(%rip)
	movb	$121, 4+yysccsid(%rip)
	movb	$97, 5+yysccsid(%rip)
	movb	$99, 6+yysccsid(%rip)
	movb	$99, 7+yysccsid(%rip)
	movb	$112, 8+yysccsid(%rip)
	movb	$97, 9+yysccsid(%rip)
	movb	$114, 10+yysccsid(%rip)
	movb	$9, 11+yysccsid(%rip)
	movb	$49, 12+yysccsid(%rip)
	movb	$46, 13+yysccsid(%rip)
	movb	$57, 14+yysccsid(%rip)
	movb	$32, 15+yysccsid(%rip)
	movb	$40, 16+yysccsid(%rip)
	movb	$66, 17+yysccsid(%rip)
	movb	$101, 18+yysccsid(%rip)
	movb	$114, 19+yysccsid(%rip)
	movb	$107, 20+yysccsid(%rip)
	movb	$101, 21+yysccsid(%rip)
	movb	$108, 22+yysccsid(%rip)
	movb	$101, 23+yysccsid(%rip)
	movb	$121, 24+yysccsid(%rip)
	movb	$41, 25+yysccsid(%rip)
	movb	$32, 26+yysccsid(%rip)
	movb	$48, 27+yysccsid(%rip)
	movb	$50, 28+yysccsid(%rip)
	movb	$47, 29+yysccsid(%rip)
	movb	$50, 30+yysccsid(%rip)
	movb	$49, 31+yysccsid(%rip)
	movb	$47, 32+yysccsid(%rip)
	movb	$57, 33+yysccsid(%rip)
	movb	$51, 34+yysccsid(%rip)
	movb	$0, 35+yysccsid(%rip)
	nop
.L45:
	movq	$0, _TIG_IZ_CNxj_envp(%rip)
	nop
.L46:
	movq	$0, _TIG_IZ_CNxj_argv(%rip)
	nop
.L47:
	movl	$0, _TIG_IZ_CNxj_argc(%rip)
	nop
	nop
.L48:
.L49:
#APP
# 1289 "quote_calc2.tab.c" 1
	##_ANNOTATION_INITIALREGION_-TIG-IZ-CNxj--0
# 0 "" 2
#NO_APP
	movl	-68(%rbp), %eax
	movl	%eax, _TIG_IZ_CNxj_argc(%rip)
	movq	-80(%rbp), %rax
	movq	%rax, _TIG_IZ_CNxj_argv(%rip)
	movq	-88(%rbp), %rax
	movq	%rax, _TIG_IZ_CNxj_envp(%rip)
#APP
# 1296 "quote_calc2.tab.c" 1
	##_ANNOTATION_ATOMICREGION_-TIG-iO-CNxj-1-main--13
# 0 "" 2
#NO_APP
	movl	$24, %edi
	call	malloc@PLT
	movq	%rax, -40(%rbp)
	movq	-40(%rbp), %rax
	movq	-40(%rbp), %rdx
	movq	%rdx, (%rax)
	movq	-40(%rbp), %rax
	movq	-40(%rbp), %rdx
	movq	%rdx, 8(%rax)
	movq	-40(%rbp), %rax
	movq	%rax, _TIG_iO_CNxj_1_main_1_opaque_list_1(%rip)
	call	rand@PLT
	movl	%eax, -60(%rbp)
	movl	$24, %edi
	call	malloc@PLT
	movq	%rax, -32(%rbp)
	movq	-32(%rbp), %rax
	movl	$0, 16(%rax)
	movq	_TIG_iO_CNxj_1_main_1_opaque_list_1(%rip), %rax
	movq	(%rax), %rdx
	movq	-32(%rbp), %rax
	movq	%rdx, (%rax)
	movq	_TIG_iO_CNxj_1_main_1_opaque_list_1(%rip), %rdx
	movq	-32(%rbp), %rax
	movq	%rdx, 8(%rax)
	movq	_TIG_iO_CNxj_1_main_1_opaque_list_1(%rip), %rax
	movq	(%rax), %rax
	movq	-32(%rbp), %rdx
	movq	%rdx, 8(%rax)
	movq	_TIG_iO_CNxj_1_main_1_opaque_list_1(%rip), %rax
	movq	-32(%rbp), %rdx
	movq	%rdx, (%rax)
	call	rand@PLT
	movl	%eax, -56(%rbp)
	movl	$24, %edi
	call	malloc@PLT
	movq	%rax, -24(%rbp)
	movq	-24(%rbp), %rax
	movl	-56(%rbp), %edx
	movl	%edx, 16(%rax)
	movq	_TIG_iO_CNxj_1_main_1_opaque_list_1(%rip), %rax
	movq	(%rax), %rdx
	movq	-24(%rbp), %rax
	movq	%rdx, (%rax)
	movq	_TIG_iO_CNxj_1_main_1_opaque_list_1(%rip), %rdx
	movq	-24(%rbp), %rax
	movq	%rdx, 8(%rax)
	movq	_TIG_iO_CNxj_1_main_1_opaque_list_1(%rip), %rax
	movq	(%rax), %rax
	movq	-24(%rbp), %rdx
	movq	%rdx, 8(%rax)
	movq	_TIG_iO_CNxj_1_main_1_opaque_list_1(%rip), %rax
	movq	-24(%rbp), %rdx
	movq	%rdx, (%rax)
	call	rand@PLT
	movl	%eax, -52(%rbp)
	movl	$24, %edi
	call	malloc@PLT
	movq	%rax, -16(%rbp)
	movl	-52(%rbp), %eax
	leal	(%rax,%rax), %edx
	movq	-16(%rbp), %rax
	movl	%edx, 16(%rax)
	movq	_TIG_iO_CNxj_1_main_1_opaque_list_1(%rip), %rax
	movq	(%rax), %rdx
	movq	-16(%rbp), %rax
	movq	%rdx, (%rax)
	movq	_TIG_iO_CNxj_1_main_1_opaque_list_1(%rip), %rdx
	movq	-16(%rbp), %rax
	movq	%rdx, 8(%rax)
	movq	_TIG_iO_CNxj_1_main_1_opaque_list_1(%rip), %rax
	movq	(%rax), %rax
	movq	-16(%rbp), %rdx
	movq	%rdx, 8(%rax)
	movq	_TIG_iO_CNxj_1_main_1_opaque_list_1(%rip), %rax
	movq	-16(%rbp), %rdx
	movq	%rdx, (%rax)
	call	rand@PLT
	movl	%eax, -48(%rbp)
	movl	$24, %edi
	call	malloc@PLT
	movq	%rax, -8(%rbp)
	movl	-48(%rbp), %edx
	movl	%edx, %eax
	addl	%eax, %eax
	addl	%eax, %edx
	movq	-8(%rbp), %rax
	movl	%edx, 16(%rax)
	movq	_TIG_iO_CNxj_1_main_1_opaque_list_1(%rip), %rax
	movq	(%rax), %rdx
	movq	-8(%rbp), %rax
	movq	%rdx, (%rax)
	movq	_TIG_iO_CNxj_1_main_1_opaque_list_1(%rip), %rdx
	movq	-8(%rbp), %rax
	movq	%rdx, 8(%rax)
	movq	_TIG_iO_CNxj_1_main_1_opaque_list_1(%rip), %rax
	movq	(%rax), %rax
	movq	-8(%rbp), %rdx
	movq	%rdx, 8(%rax)
	movq	_TIG_iO_CNxj_1_main_1_opaque_list_1(%rip), %rax
	movq	-8(%rbp), %rdx
	movq	%rdx, (%rax)
	movq	_TIG_iO_CNxj_1_main_1_opaque_list_1(%rip), %rax
	movq	(%rax), %rax
	movq	%rax, _TIG_iO_CNxj_1_main_1_opaque_ptr_1(%rip)
	movq	_TIG_iO_CNxj_1_main_1_opaque_ptr_1(%rip), %rax
	movq	%rax, _TIG_iO_CNxj_1_main_1_opaque_ptr_2(%rip)
	movq	_TIG_iO_CNxj_1_main_1_opaque_ptr_2(%rip), %rax
	movq	(%rax), %rax
	movq	%rax, _TIG_iO_CNxj_1_main_1_opaque_ptr_2(%rip)
	nop
	nop
.L52:
	movq	stdin(%rip), %rax
	movq	%rax, %rdi
	call	feof@PLT
	movl	%eax, -44(%rbp)
	cmpl	$0, -44(%rbp)
	jne	.L56
	call	quote_calc2_parse
	jmp	.L52
.L56:
	nop
	movq	_TIG_iO_CNxj_1_yygrowstack_1_opaque_ptr_1(%rip), %rdx
	movq	_TIG_iO_CNxj_1_yygrowstack_1_opaque_ptr_2(%rip), %rax
	cmpq	%rax, %rdx
	je	.L53
	movl	$0, %eax
	jmp	.L54
.L53:
	movl	$0, %eax
.L54:
	leave
	.cfi_def_cfa 7, 8
	ret
	.cfi_endproc
.LFE8:
	.size	main, .-main
	.section	.rodata
.LC1:
	.string	"syntax error"
.LC2:
	.string	"%d\n"
.LC3:
	.string	"yacc stack overflow"
	.text
	.globl	quote_calc2_parse
	.type	quote_calc2_parse, @function
quote_calc2_parse:
.LFB10:
	.cfi_startproc
	endbr64
	pushq	%rbp
	.cfi_def_cfa_offset 16
	.cfi_offset 6, -16
	movq	%rsp, %rbp
	.cfi_def_cfa_register 6
	subq	$64, %rsp
#APP
# 60 "/usr/include/x86_64-linux-gnu/bits/byteswap.h" 1
	##_ANNOTATION_INITIALREGION_-TIG-iO-CNxj-1-quote-calc2-parse--20
# 0 "" 2
# 64 "/usr/include/x86_64-linux-gnu/bits/byteswap.h" 1
	##_ANNOTATION_ATOMICREGION_-TIG-iO-CNxj-1-quote-calc2-parse--19
# 0 "" 2
#NO_APP
	movl	$24, %edi
	call	malloc@PLT
	movq	%rax, -24(%rbp)
	movq	-24(%rbp), %rax
	movq	-24(%rbp), %rdx
	movq	%rdx, 8(%rax)
	movq	-24(%rbp), %rax
	movq	-24(%rbp), %rdx
	movq	%rdx, 16(%rax)
	movq	-24(%rbp), %rax
	movq	%rax, _TIG_iO_CNxj_1_quote_calc2_parse_1_opaque_list_1(%rip)
	call	rand@PLT
	movl	%eax, -52(%rbp)
	movl	$24, %edi
	call	malloc@PLT
	movq	%rax, -16(%rbp)
	movq	-16(%rbp), %rax
	movl	$0, (%rax)
	movq	_TIG_iO_CNxj_1_quote_calc2_parse_1_opaque_list_1(%rip), %rax
	movq	8(%rax), %rdx
	movq	-16(%rbp), %rax
	movq	%rdx, 8(%rax)
	movq	_TIG_iO_CNxj_1_quote_calc2_parse_1_opaque_list_1(%rip), %rdx
	movq	-16(%rbp), %rax
	movq	%rdx, 16(%rax)
	movq	_TIG_iO_CNxj_1_quote_calc2_parse_1_opaque_list_1(%rip), %rax
	movq	8(%rax), %rax
	movq	-16(%rbp), %rdx
	movq	%rdx, 16(%rax)
	movq	_TIG_iO_CNxj_1_quote_calc2_parse_1_opaque_list_1(%rip), %rax
	movq	-16(%rbp), %rdx
	movq	%rdx, 8(%rax)
	call	rand@PLT
	movl	%eax, -48(%rbp)
	movl	$24, %edi
	call	malloc@PLT
	movq	%rax, -8(%rbp)
	movq	-8(%rbp), %rax
	movl	-48(%rbp), %edx
	movl	%edx, (%rax)
	movq	_TIG_iO_CNxj_1_quote_calc2_parse_1_opaque_list_1(%rip), %rax
	movq	8(%rax), %rdx
	movq	-8(%rbp), %rax
	movq	%rdx, 8(%rax)
	movq	_TIG_iO_CNxj_1_quote_calc2_parse_1_opaque_list_1(%rip), %rdx
	movq	-8(%rbp), %rax
	movq	%rdx, 16(%rax)
	movq	_TIG_iO_CNxj_1_quote_calc2_parse_1_opaque_list_1(%rip), %rax
	movq	8(%rax), %rax
	movq	-8(%rbp), %rdx
	movq	%rdx, 16(%rax)
	movq	_TIG_iO_CNxj_1_quote_calc2_parse_1_opaque_list_1(%rip), %rax
	movq	-8(%rbp), %rdx
	movq	%rdx, 8(%rax)
	movq	_TIG_iO_CNxj_1_quote_calc2_parse_1_opaque_list_1(%rip), %rax
	movq	8(%rax), %rax
	movq	%rax, _TIG_iO_CNxj_1_quote_calc2_parse_1_opaque_ptr_1(%rip)
	movq	_TIG_iO_CNxj_1_quote_calc2_parse_1_opaque_ptr_1(%rip), %rax
	movq	%rax, _TIG_iO_CNxj_1_quote_calc2_parse_1_opaque_ptr_2(%rip)
	nop
	nop
	movl	$0, quote_calc2_nerrs(%rip)
	movl	$0, quote_calc2_errflag(%rip)
	movl	$-1, quote_calc2_char(%rip)
	movl	$0, -56(%rbp)
	movq	8+yystack(%rip), %rax
	testq	%rax, %rax
	jne	.L58
	leaq	yystack(%rip), %rax
	movq	%rax, %rdi
	call	yygrowstack
	movl	%eax, -44(%rbp)
	cmpl	$0, -44(%rbp)
	jne	.L116
.L58:
	movq	8+yystack(%rip), %rax
	movq	%rax, 16+yystack(%rip)
	movq	32+yystack(%rip), %rax
	movq	%rax, 40+yystack(%rip)
	movl	$0, -56(%rbp)
	movq	16+yystack(%rip), %rax
	movw	$0, (%rax)
.L60:
	movl	-56(%rbp), %eax
	cltq
	leaq	(%rax,%rax), %rdx
	leaq	quote_calc2_defred(%rip), %rax
	movzwl	(%rdx,%rax), %eax
	cwtl
	movl	%eax, -60(%rbp)
	cmpl	$0, -60(%rbp)
	jne	.L117
	movl	quote_calc2_char(%rip), %eax
	testl	%eax, %eax
	jns	.L63
	call	quote_calc2_lex
	movl	%eax, quote_calc2_char(%rip)
	movl	quote_calc2_char(%rip), %eax
	testl	%eax, %eax
	jns	.L63
	movl	$0, quote_calc2_char(%rip)
.L63:
	movl	-56(%rbp), %eax
	cltq
	leaq	(%rax,%rax), %rdx
	leaq	quote_calc2_sindex(%rip), %rax
	movzwl	(%rdx,%rax), %eax
	cwtl
	movl	%eax, -60(%rbp)
	cmpl	$0, -60(%rbp)
	je	.L64
	movl	quote_calc2_char(%rip), %eax
	addl	%eax, -60(%rbp)
	cmpl	$0, -60(%rbp)
	js	.L64
	cmpl	$259, -60(%rbp)
	jg	.L64
	movl	-60(%rbp), %eax
	cltq
	leaq	(%rax,%rax), %rdx
	leaq	quote_calc2_check(%rip), %rax
	movzwl	(%rdx,%rax), %eax
	movswl	%ax, %edx
	movl	quote_calc2_char(%rip), %eax
	cmpl	%eax, %edx
	jne	.L64
	movq	16+yystack(%rip), %rax
	movq	%rax, %rdx
	movq	24+yystack(%rip), %rax
	cmpq	%rax, %rdx
	jb	.L65
	leaq	yystack(%rip), %rax
	movq	%rax, %rdi
	call	yygrowstack
	movl	%eax, -40(%rbp)
	cmpl	$0, -40(%rbp)
	jne	.L118
.L65:
	movl	-60(%rbp), %eax
	cltq
	leaq	(%rax,%rax), %rdx
	leaq	quote_calc2_table(%rip), %rax
	movzwl	(%rdx,%rax), %eax
	cwtl
	movl	%eax, -56(%rbp)
	movq	16+yystack(%rip), %rax
	addq	$2, %rax
	movq	%rax, 16+yystack(%rip)
	movq	16+yystack(%rip), %rax
	movl	-60(%rbp), %edx
	movslq	%edx, %rdx
	leaq	(%rdx,%rdx), %rcx
	leaq	quote_calc2_table(%rip), %rdx
	movzwl	(%rcx,%rdx), %edx
	movw	%dx, (%rax)
	movq	40+yystack(%rip), %rax
	addq	$4, %rax
	movq	%rax, 40+yystack(%rip)
	movq	40+yystack(%rip), %rax
	movl	quote_calc2_lval(%rip), %edx
	movl	%edx, (%rax)
	movl	$-1, quote_calc2_char(%rip)
	movl	quote_calc2_errflag(%rip), %eax
	testl	%eax, %eax
	jle	.L60
	movl	quote_calc2_errflag(%rip), %eax
	subl	$1, %eax
	movl	%eax, quote_calc2_errflag(%rip)
	jmp	.L60
.L64:
	movl	-56(%rbp), %eax
	cltq
	leaq	(%rax,%rax), %rdx
	leaq	quote_calc2_rindex(%rip), %rax
	movzwl	(%rdx,%rax), %eax
	cwtl
	movl	%eax, -60(%rbp)
	cmpl	$0, -60(%rbp)
	je	.L67
	movl	quote_calc2_char(%rip), %eax
	addl	%eax, -60(%rbp)
	cmpl	$0, -60(%rbp)
	js	.L67
	cmpl	$259, -60(%rbp)
	jg	.L67
	movl	-60(%rbp), %eax
	cltq
	leaq	(%rax,%rax), %rdx
	leaq	quote_calc2_check(%rip), %rax
	movzwl	(%rdx,%rax), %eax
	movswl	%ax, %edx
	movl	quote_calc2_char(%rip), %eax
	cmpl	%eax, %edx
	jne	.L67
	movl	-60(%rbp), %eax
	cltq
	leaq	(%rax,%rax), %rdx
	leaq	quote_calc2_table(%rip), %rax
	movzwl	(%rdx,%rax), %eax
	cwtl
	movl	%eax, -60(%rbp)
	jmp	.L62
.L67:
	movl	quote_calc2_errflag(%rip), %eax
	testl	%eax, %eax
	jne	.L119
	leaq	.LC1(%rip), %rax
	movq	%rax, %rdi
	call	quote_calc2_error
	movq	_TIG_iO_CNxj_1_yygrowstack_1_opaque_ptr_1(%rip), %rdx
	movq	_TIG_iO_CNxj_1_yygrowstack_1_opaque_ptr_2(%rip), %rax
	cmpq	%rax, %rdx
	nop
.L70:
	movl	quote_calc2_nerrs(%rip), %eax
	addl	$1, %eax
	movl	%eax, quote_calc2_nerrs(%rip)
	jmp	.L69
.L119:
	nop
.L69:
	movl	quote_calc2_errflag(%rip), %eax
	cmpl	$2, %eax
	jg	.L71
	movl	$3, quote_calc2_errflag(%rip)
.L81:
	movq	16+yystack(%rip), %rax
	movzwl	(%rax), %eax
	cwtl
	cltq
	leaq	(%rax,%rax), %rdx
	leaq	quote_calc2_sindex(%rip), %rax
	movzwl	(%rdx,%rax), %eax
	cwtl
	movl	%eax, -60(%rbp)
	cmpl	$0, -60(%rbp)
	je	.L120
	addl	$256, -60(%rbp)
	cmpl	$0, -60(%rbp)
	js	.L121
	cmpl	$259, -60(%rbp)
	jg	.L122
	movl	-60(%rbp), %eax
	cltq
	leaq	(%rax,%rax), %rdx
	leaq	quote_calc2_check(%rip), %rax
	movzwl	(%rdx,%rax), %eax
	cmpw	$256, %ax
	jne	.L123
	movq	16+yystack(%rip), %rax
	movq	%rax, %rdx
	movq	24+yystack(%rip), %rax
	cmpq	%rax, %rdx
	jb	.L76
	leaq	yystack(%rip), %rax
	movq	%rax, %rdi
	call	yygrowstack
	movl	%eax, -36(%rbp)
	cmpl	$0, -36(%rbp)
	jne	.L124
.L76:
	movl	-60(%rbp), %eax
	cltq
	leaq	(%rax,%rax), %rdx
	leaq	quote_calc2_table(%rip), %rax
	movzwl	(%rdx,%rax), %eax
	cwtl
	movl	%eax, -56(%rbp)
	movq	16+yystack(%rip), %rax
	addq	$2, %rax
	movq	%rax, 16+yystack(%rip)
	movq	16+yystack(%rip), %rax
	movl	-60(%rbp), %edx
	movslq	%edx, %rdx
	leaq	(%rdx,%rdx), %rcx
	leaq	quote_calc2_table(%rip), %rdx
	movzwl	(%rcx,%rdx), %edx
	movw	%dx, (%rax)
	movq	40+yystack(%rip), %rax
	addq	$4, %rax
	movq	%rax, 40+yystack(%rip)
	movq	40+yystack(%rip), %rax
	movl	quote_calc2_lval(%rip), %edx
	movl	%edx, (%rax)
	jmp	.L60
.L72:
.L77:
.L120:
	nop
	jmp	.L78
.L121:
	nop
	jmp	.L78
.L122:
	nop
	jmp	.L78
.L123:
	nop
.L78:
	movq	16+yystack(%rip), %rax
	movq	%rax, %rdx
	movq	8+yystack(%rip), %rax
	cmpq	%rax, %rdx
	jbe	.L125
	movq	16+yystack(%rip), %rax
	subq	$2, %rax
	movq	%rax, 16+yystack(%rip)
	movq	40+yystack(%rip), %rax
	subq	$4, %rax
	movq	%rax, 40+yystack(%rip)
	jmp	.L81
.L71:
	movl	quote_calc2_char(%rip), %eax
	testl	%eax, %eax
	je	.L126
	movl	$-1, quote_calc2_char(%rip)
	jmp	.L60
.L117:
	nop
.L62:
	movl	-60(%rbp), %eax
	cltq
	leaq	(%rax,%rax), %rdx
	leaq	quote_calc2_len(%rip), %rax
	movzwl	(%rdx,%rax), %eax
	cwtl
	movl	%eax, -32(%rbp)
	cmpl	$0, -32(%rbp)
	je	.L83
	movq	40+yystack(%rip), %rdx
	movl	$1, %eax
	subl	-32(%rbp), %eax
	cltq
	salq	$2, %rax
	addq	%rdx, %rax
	movl	(%rax), %eax
	movl	%eax, quote_calc2_val(%rip)
	jmp	.L84
.L83:
	movl	$0, quote_calc2_val(%rip)
.L84:
	movl	-60(%rbp), %eax
	subl	$3, %eax
	cmpl	$15, %eax
	ja	.L85
	movl	%eax, %eax
	leaq	0(,%rax,4), %rdx
	leaq	.L87(%rip), %rax
	movl	(%rdx,%rax), %eax
	cltq
	leaq	.L87(%rip), %rdx
	addq	%rdx, %rax
	notrack jmp	*%rax
	.section	.rodata
	.align 4
	.align 4
.L87:
	.long	.L101-.L87
	.long	.L100-.L87
	.long	.L99-.L87
	.long	.L98-.L87
	.long	.L97-.L87
	.long	.L96-.L87
	.long	.L95-.L87
	.long	.L94-.L87
	.long	.L93-.L87
	.long	.L92-.L87
	.long	.L91-.L87
	.long	.L90-.L87
	.long	.L89-.L87
	.long	.L85-.L87
	.long	.L88-.L87
	.long	.L86-.L87
	.text
.L101:
	movl	$0, quote_calc2_errflag(%rip)
	jmp	.L85
.L100:
	movq	40+yystack(%rip), %rax
	movl	(%rax), %eax
	movl	%eax, %esi
	leaq	.LC2(%rip), %rax
	movq	%rax, %rdi
	movl	$0, %eax
	call	printf@PLT
	jmp	.L85
.L99:
	movq	40+yystack(%rip), %rax
	movq	40+yystack(%rip), %rdx
	subq	$8, %rdx
	movl	(%rdx), %edx
	movl	(%rax), %eax
	movslq	%edx, %rdx
	leaq	0(,%rdx,4), %rcx
	leaq	regs(%rip), %rdx
	movl	%eax, (%rcx,%rdx)
	jmp	.L85
.L98:
	movq	40+yystack(%rip), %rax
	movl	-4(%rax), %eax
	movl	%eax, quote_calc2_val(%rip)
	jmp	.L85
.L97:
	movq	40+yystack(%rip), %rax
	subq	$8, %rax
	movl	(%rax), %edx
	movq	40+yystack(%rip), %rax
	movl	(%rax), %eax
	addl	%edx, %eax
	movl	%eax, quote_calc2_val(%rip)
	jmp	.L85
.L96:
	movq	40+yystack(%rip), %rax
	subq	$8, %rax
	movl	(%rax), %edx
	movq	40+yystack(%rip), %rax
	movl	(%rax), %ecx
	movl	%edx, %eax
	subl	%ecx, %eax
	movl	%eax, quote_calc2_val(%rip)
	jmp	.L85
.L95:
	movq	40+yystack(%rip), %rax
	subq	$8, %rax
	movl	(%rax), %edx
	movq	40+yystack(%rip), %rax
	movl	(%rax), %eax
	imull	%edx, %eax
	movl	%eax, quote_calc2_val(%rip)
	jmp	.L85
.L94:
	movq	40+yystack(%rip), %rax
	subq	$8, %rax
	movl	(%rax), %eax
	movq	40+yystack(%rip), %rdx
	movl	(%rdx), %esi
	cltd
	idivl	%esi
	movl	%eax, quote_calc2_val(%rip)
	jmp	.L85
.L93:
	movq	40+yystack(%rip), %rax
	subq	$8, %rax
	movl	(%rax), %eax
	movq	40+yystack(%rip), %rdx
	movl	(%rdx), %ecx
	cltd
	idivl	%ecx
	movl	%edx, %eax
	movl	%eax, quote_calc2_val(%rip)
	jmp	.L85
.L92:
	movq	40+yystack(%rip), %rax
	subq	$8, %rax
	movl	(%rax), %edx
	movq	40+yystack(%rip), %rax
	movl	(%rax), %eax
	andl	%edx, %eax
	movl	%eax, quote_calc2_val(%rip)
	jmp	.L85
.L91:
	movq	40+yystack(%rip), %rax
	subq	$8, %rax
	movl	(%rax), %edx
	movq	40+yystack(%rip), %rax
	movl	(%rax), %eax
	orl	%edx, %eax
	movl	%eax, quote_calc2_val(%rip)
	jmp	.L85
.L90:
	movq	40+yystack(%rip), %rax
	movl	(%rax), %eax
	negl	%eax
	movl	%eax, quote_calc2_val(%rip)
	jmp	.L85
.L89:
	movq	40+yystack(%rip), %rax
	movl	(%rax), %eax
	cltq
	leaq	0(,%rax,4), %rdx
	leaq	regs(%rip), %rax
	movl	(%rdx,%rax), %eax
	movl	%eax, quote_calc2_val(%rip)
	jmp	.L85
.L88:
	movq	40+yystack(%rip), %rax
	movl	(%rax), %eax
	movl	%eax, quote_calc2_val(%rip)
	movq	40+yystack(%rip), %rax
	movl	(%rax), %eax
	testl	%eax, %eax
	jne	.L102
	movl	$8, base(%rip)
	jmp	.L85
.L102:
	movl	$10, base(%rip)
	jmp	.L85
.L86:
	movq	40+yystack(%rip), %rax
	subq	$4, %rax
	movl	(%rax), %edx
	movl	base(%rip), %eax
	imull	%eax, %edx
	movq	40+yystack(%rip), %rax
	movl	(%rax), %eax
	addl	%edx, %eax
	movl	%eax, quote_calc2_val(%rip)
	nop
.L85:
	movq	16+yystack(%rip), %rdx
	movl	-32(%rbp), %eax
	cltq
	addq	%rax, %rax
	negq	%rax
	addq	%rdx, %rax
	movq	%rax, 16+yystack(%rip)
	movq	16+yystack(%rip), %rax
	movzwl	(%rax), %eax
	cwtl
	movl	%eax, -56(%rbp)
	movq	40+yystack(%rip), %rdx
	movl	-32(%rbp), %eax
	cltq
	salq	$2, %rax
	negq	%rax
	addq	%rdx, %rax
	movq	%rax, 40+yystack(%rip)
	movl	-60(%rbp), %eax
	cltq
	leaq	(%rax,%rax), %rdx
	leaq	quote_calc2_lhs(%rip), %rax
	movzwl	(%rdx,%rax), %eax
	cwtl
	movl	%eax, -32(%rbp)
	cmpl	$0, -56(%rbp)
	jne	.L104
	cmpl	$0, -32(%rbp)
	jne	.L104
	movl	$1, -56(%rbp)
	movq	16+yystack(%rip), %rax
	addq	$2, %rax
	movq	%rax, 16+yystack(%rip)
	movq	16+yystack(%rip), %rax
	movw	$1, (%rax)
	movq	40+yystack(%rip), %rax
	addq	$4, %rax
	movq	%rax, 40+yystack(%rip)
	movq	40+yystack(%rip), %rax
	movl	quote_calc2_val(%rip), %edx
	movl	%edx, (%rax)
	movl	quote_calc2_char(%rip), %eax
	testl	%eax, %eax
	jns	.L105
	call	quote_calc2_lex
	movl	%eax, quote_calc2_char(%rip)
	movl	quote_calc2_char(%rip), %eax
	testl	%eax, %eax
	jns	.L105
	movl	$0, quote_calc2_char(%rip)
.L105:
	movl	quote_calc2_char(%rip), %eax
	testl	%eax, %eax
	je	.L127
	jmp	.L60
.L104:
	movl	-32(%rbp), %eax
	cltq
	leaq	(%rax,%rax), %rdx
	leaq	quote_calc2_gindex(%rip), %rax
	movzwl	(%rdx,%rax), %eax
	cwtl
	movl	%eax, -60(%rbp)
	cmpl	$0, -60(%rbp)
	je	.L108
	movl	-56(%rbp), %eax
	addl	%eax, -60(%rbp)
	cmpl	$0, -60(%rbp)
	js	.L109
	cmpl	$259, -60(%rbp)
	jg	.L110
	movl	-60(%rbp), %eax
	cltq
	leaq	(%rax,%rax), %rdx
	leaq	quote_calc2_check(%rip), %rax
	movzwl	(%rdx,%rax), %eax
	cwtl
	cmpl	%eax, -56(%rbp)
	jne	.L111
	movl	-60(%rbp), %eax
	cltq
	leaq	(%rax,%rax), %rdx
	leaq	quote_calc2_table(%rip), %rax
	movzwl	(%rdx,%rax), %eax
	cwtl
	movl	%eax, -56(%rbp)
	jmp	.L112
.L111:
	movl	-32(%rbp), %eax
	cltq
	leaq	(%rax,%rax), %rdx
	leaq	quote_calc2_dgoto(%rip), %rax
	movzwl	(%rdx,%rax), %eax
	cwtl
	movl	%eax, -56(%rbp)
	jmp	.L112
.L110:
	movl	-32(%rbp), %eax
	cltq
	leaq	(%rax,%rax), %rdx
	leaq	quote_calc2_dgoto(%rip), %rax
	movzwl	(%rdx,%rax), %eax
	cwtl
	movl	%eax, -56(%rbp)
	jmp	.L112
.L109:
	movl	-32(%rbp), %eax
	cltq
	leaq	(%rax,%rax), %rdx
	leaq	quote_calc2_dgoto(%rip), %rax
	movzwl	(%rdx,%rax), %eax
	cwtl
	movl	%eax, -56(%rbp)
	jmp	.L112
.L108:
	movl	-32(%rbp), %eax
	cltq
	leaq	(%rax,%rax), %rdx
	leaq	quote_calc2_dgoto(%rip), %rax
	movzwl	(%rdx,%rax), %eax
	cwtl
	movl	%eax, -56(%rbp)
.L112:
	movq	16+yystack(%rip), %rax
	movq	%rax, %rdx
	movq	24+yystack(%rip), %rax
	cmpq	%rax, %rdx
	jb	.L113
	leaq	yystack(%rip), %rax
	movq	%rax, %rdi
	call	yygrowstack
	movl	%eax, -28(%rbp)
	cmpl	$0, -28(%rbp)
	jne	.L128
.L113:
	movq	16+yystack(%rip), %rax
	addq	$2, %rax
	movq	%rax, 16+yystack(%rip)
	movq	16+yystack(%rip), %rax
	movl	-56(%rbp), %edx
	movw	%dx, (%rax)
	movq	40+yystack(%rip), %rax
	addq	$4, %rax
	movq	%rax, 40+yystack(%rip)
	movq	40+yystack(%rip), %rax
	movl	quote_calc2_val(%rip), %edx
	movl	%edx, (%rax)
	jmp	.L60
.L116:
	nop
	jmp	.L59
.L118:
	nop
	jmp	.L59
.L124:
	nop
	jmp	.L59
.L128:
	nop
.L59:
	leaq	.LC3(%rip), %rax
	movq	%rax, %rdi
	call	quote_calc2_error
	jmp	.L80
.L125:
	nop
	jmp	.L80
.L126:
	nop
.L80:
	movl	$1, %eax
	jmp	.L114
.L127:
	nop
.L107:
	movl	$0, %eax
.L114:
	leave
	.cfi_def_cfa 7, 8
	ret
	.cfi_endproc
.LFE10:
	.size	quote_calc2_parse, .-quote_calc2_parse
	.ident	"GCC: (Ubuntu 11.4.0-1ubuntu1~22.04) 11.4.0"
	.section	.note.GNU-stack,"",@progbits
	.section	.note.gnu.property,"a"
	.align 8
	.long	1f - 0f
	.long	4f - 1f
	.long	5
0:
	.string	"GNU"
1:
	.align 8
	.long	0xc0000002
	.long	3f - 2f
2:
	.long	0x3
3:
	.align 8
4:
