	.file	"malbolgee_URI_2582_opaque.c"
	.text
	.globl	_TIG_iO_Z3f9_1___bswap_64_1_opaque_ptr_2
	.bss
	.align 8
	.type	_TIG_iO_Z3f9_1___bswap_64_1_opaque_ptr_2, @object
	.size	_TIG_iO_Z3f9_1___bswap_64_1_opaque_ptr_2, 8
_TIG_iO_Z3f9_1___bswap_64_1_opaque_ptr_2:
	.zero	8
	.globl	_TIG_iO_Z3f9_1___uint32_identity_1_opaque_ptr_2
	.align 8
	.type	_TIG_iO_Z3f9_1___uint32_identity_1_opaque_ptr_2, @object
	.size	_TIG_iO_Z3f9_1___uint32_identity_1_opaque_ptr_2, 8
_TIG_iO_Z3f9_1___uint32_identity_1_opaque_ptr_2:
	.zero	8
	.globl	_TIG_iO_Z3f9_1___bswap_16_1_opaque_list_2
	.align 8
	.type	_TIG_iO_Z3f9_1___bswap_16_1_opaque_list_2, @object
	.size	_TIG_iO_Z3f9_1___bswap_16_1_opaque_list_2, 8
_TIG_iO_Z3f9_1___bswap_16_1_opaque_list_2:
	.zero	8
	.globl	_TIG_iO_Z3f9_1___bswap_32_1_opaque_ptr_1
	.align 8
	.type	_TIG_iO_Z3f9_1___bswap_32_1_opaque_ptr_1, @object
	.size	_TIG_iO_Z3f9_1___bswap_32_1_opaque_ptr_1, 8
_TIG_iO_Z3f9_1___bswap_32_1_opaque_ptr_1:
	.zero	8
	.globl	_TIG_iO_Z3f9_1_main_1_opaque_list_1
	.align 8
	.type	_TIG_iO_Z3f9_1_main_1_opaque_list_1, @object
	.size	_TIG_iO_Z3f9_1_main_1_opaque_list_1, 8
_TIG_iO_Z3f9_1_main_1_opaque_list_1:
	.zero	8
	.globl	_TIG_iO_Z3f9_1___bswap_64_1_opaque_list_2
	.align 8
	.type	_TIG_iO_Z3f9_1___bswap_64_1_opaque_list_2, @object
	.size	_TIG_iO_Z3f9_1___bswap_64_1_opaque_list_2, 8
_TIG_iO_Z3f9_1___bswap_64_1_opaque_list_2:
	.zero	8
	.globl	_TIG_iO_Z3f9_1_main_1_opaque_ptr_2
	.align 8
	.type	_TIG_iO_Z3f9_1_main_1_opaque_ptr_2, @object
	.size	_TIG_iO_Z3f9_1_main_1_opaque_ptr_2, 8
_TIG_iO_Z3f9_1_main_1_opaque_ptr_2:
	.zero	8
	.globl	_TIG_IZ_Z3f9_argc
	.align 4
	.type	_TIG_IZ_Z3f9_argc, @object
	.size	_TIG_IZ_Z3f9_argc, 4
_TIG_IZ_Z3f9_argc:
	.zero	4
	.globl	_TIG_iO_Z3f9_1___uint32_identity_1_opaque_list_2
	.align 8
	.type	_TIG_iO_Z3f9_1___uint32_identity_1_opaque_list_2, @object
	.size	_TIG_iO_Z3f9_1___uint32_identity_1_opaque_list_2, 8
_TIG_iO_Z3f9_1___uint32_identity_1_opaque_list_2:
	.zero	8
	.globl	_TIG_iO_Z3f9_1___uint64_identity_1_opaque_ptr_1
	.align 8
	.type	_TIG_iO_Z3f9_1___uint64_identity_1_opaque_ptr_1, @object
	.size	_TIG_iO_Z3f9_1___uint64_identity_1_opaque_ptr_1, 8
_TIG_iO_Z3f9_1___uint64_identity_1_opaque_ptr_1:
	.zero	8
	.globl	_TIG_iO_Z3f9_1___uint32_identity_1_opaque_ptr_1
	.align 8
	.type	_TIG_iO_Z3f9_1___uint32_identity_1_opaque_ptr_1, @object
	.size	_TIG_iO_Z3f9_1___uint32_identity_1_opaque_ptr_1, 8
_TIG_iO_Z3f9_1___uint32_identity_1_opaque_ptr_1:
	.zero	8
	.globl	_TIG_iO_Z3f9_1___bswap_32_1_opaque_list_2
	.align 8
	.type	_TIG_iO_Z3f9_1___bswap_32_1_opaque_list_2, @object
	.size	_TIG_iO_Z3f9_1___bswap_32_1_opaque_list_2, 8
_TIG_iO_Z3f9_1___bswap_32_1_opaque_list_2:
	.zero	8
	.globl	_TIG_iO_Z3f9_1___bswap_16_1_opaque_ptr_1
	.align 8
	.type	_TIG_iO_Z3f9_1___bswap_16_1_opaque_ptr_1, @object
	.size	_TIG_iO_Z3f9_1___bswap_16_1_opaque_ptr_1, 8
_TIG_iO_Z3f9_1___bswap_16_1_opaque_ptr_1:
	.zero	8
	.globl	_TIG_iO_Z3f9_1___bswap_32_1_opaque_ptr_2
	.align 8
	.type	_TIG_iO_Z3f9_1___bswap_32_1_opaque_ptr_2, @object
	.size	_TIG_iO_Z3f9_1___bswap_32_1_opaque_ptr_2, 8
_TIG_iO_Z3f9_1___bswap_32_1_opaque_ptr_2:
	.zero	8
	.globl	_TIG_iO_Z3f9_1___uint64_identity_1_opaque_ptr_2
	.align 8
	.type	_TIG_iO_Z3f9_1___uint64_identity_1_opaque_ptr_2, @object
	.size	_TIG_iO_Z3f9_1___uint64_identity_1_opaque_ptr_2, 8
_TIG_iO_Z3f9_1___uint64_identity_1_opaque_ptr_2:
	.zero	8
	.globl	_TIG_iO_Z3f9_1___bswap_16_1_opaque_list_1
	.align 8
	.type	_TIG_iO_Z3f9_1___bswap_16_1_opaque_list_1, @object
	.size	_TIG_iO_Z3f9_1___bswap_16_1_opaque_list_1, 8
_TIG_iO_Z3f9_1___bswap_16_1_opaque_list_1:
	.zero	8
	.globl	_TIG_IZ_Z3f9_argv
	.align 8
	.type	_TIG_IZ_Z3f9_argv, @object
	.size	_TIG_IZ_Z3f9_argv, 8
_TIG_IZ_Z3f9_argv:
	.zero	8
	.globl	_TIG_iO_Z3f9_1___uint64_identity_1_opaque_list_1
	.align 8
	.type	_TIG_iO_Z3f9_1___uint64_identity_1_opaque_list_1, @object
	.size	_TIG_iO_Z3f9_1___uint64_identity_1_opaque_list_1, 8
_TIG_iO_Z3f9_1___uint64_identity_1_opaque_list_1:
	.zero	8
	.globl	_TIG_IZ_Z3f9_envp
	.align 8
	.type	_TIG_IZ_Z3f9_envp, @object
	.size	_TIG_IZ_Z3f9_envp, 8
_TIG_IZ_Z3f9_envp:
	.zero	8
	.globl	_TIG_iO_Z3f9_1___bswap_32_1_opaque_list_1
	.align 8
	.type	_TIG_iO_Z3f9_1___bswap_32_1_opaque_list_1, @object
	.size	_TIG_iO_Z3f9_1___bswap_32_1_opaque_list_1, 8
_TIG_iO_Z3f9_1___bswap_32_1_opaque_list_1:
	.zero	8
	.globl	_TIG_iO_Z3f9_1___uint32_identity_1_opaque_list_1
	.align 8
	.type	_TIG_iO_Z3f9_1___uint32_identity_1_opaque_list_1, @object
	.size	_TIG_iO_Z3f9_1___uint32_identity_1_opaque_list_1, 8
_TIG_iO_Z3f9_1___uint32_identity_1_opaque_list_1:
	.zero	8
	.globl	_TIG_iO_Z3f9_1___bswap_64_1_opaque_list_1
	.align 8
	.type	_TIG_iO_Z3f9_1___bswap_64_1_opaque_list_1, @object
	.size	_TIG_iO_Z3f9_1___bswap_64_1_opaque_list_1, 8
_TIG_iO_Z3f9_1___bswap_64_1_opaque_list_1:
	.zero	8
	.globl	_TIG_iO_Z3f9_1___uint64_identity_1_opaque_list_2
	.align 8
	.type	_TIG_iO_Z3f9_1___uint64_identity_1_opaque_list_2, @object
	.size	_TIG_iO_Z3f9_1___uint64_identity_1_opaque_list_2, 8
_TIG_iO_Z3f9_1___uint64_identity_1_opaque_list_2:
	.zero	8
	.globl	_TIG_iO_Z3f9_1_main_1_opaque_ptr_1
	.align 8
	.type	_TIG_iO_Z3f9_1_main_1_opaque_ptr_1, @object
	.size	_TIG_iO_Z3f9_1_main_1_opaque_ptr_1, 8
_TIG_iO_Z3f9_1_main_1_opaque_ptr_1:
	.zero	8
	.globl	_TIG_iO_Z3f9_1___uint16_identity_1_opaque_list_2
	.align 8
	.type	_TIG_iO_Z3f9_1___uint16_identity_1_opaque_list_2, @object
	.size	_TIG_iO_Z3f9_1___uint16_identity_1_opaque_list_2, 8
_TIG_iO_Z3f9_1___uint16_identity_1_opaque_list_2:
	.zero	8
	.globl	_TIG_iO_Z3f9_1___bswap_64_1_opaque_ptr_1
	.align 8
	.type	_TIG_iO_Z3f9_1___bswap_64_1_opaque_ptr_1, @object
	.size	_TIG_iO_Z3f9_1___bswap_64_1_opaque_ptr_1, 8
_TIG_iO_Z3f9_1___bswap_64_1_opaque_ptr_1:
	.zero	8
	.globl	_TIG_iO_Z3f9_1___uint16_identity_1_opaque_list_1
	.align 8
	.type	_TIG_iO_Z3f9_1___uint16_identity_1_opaque_list_1, @object
	.size	_TIG_iO_Z3f9_1___uint16_identity_1_opaque_list_1, 8
_TIG_iO_Z3f9_1___uint16_identity_1_opaque_list_1:
	.zero	8
	.globl	_TIG_iO_Z3f9_1___uint16_identity_1_opaque_ptr_2
	.align 8
	.type	_TIG_iO_Z3f9_1___uint16_identity_1_opaque_ptr_2, @object
	.size	_TIG_iO_Z3f9_1___uint16_identity_1_opaque_ptr_2, 8
_TIG_iO_Z3f9_1___uint16_identity_1_opaque_ptr_2:
	.zero	8
	.globl	_TIG_iO_Z3f9_1___uint16_identity_1_opaque_ptr_1
	.align 8
	.type	_TIG_iO_Z3f9_1___uint16_identity_1_opaque_ptr_1, @object
	.size	_TIG_iO_Z3f9_1___uint16_identity_1_opaque_ptr_1, 8
_TIG_iO_Z3f9_1___uint16_identity_1_opaque_ptr_1:
	.zero	8
	.globl	_TIG_iO_Z3f9_1___bswap_16_1_opaque_ptr_2
	.align 8
	.type	_TIG_iO_Z3f9_1___bswap_16_1_opaque_ptr_2, @object
	.size	_TIG_iO_Z3f9_1___bswap_16_1_opaque_ptr_2, 8
_TIG_iO_Z3f9_1___bswap_16_1_opaque_ptr_2:
	.zero	8
	.globl	_TIG_iO_Z3f9_1_main_1_opaque_list_2
	.align 8
	.type	_TIG_iO_Z3f9_1_main_1_opaque_list_2, @object
	.size	_TIG_iO_Z3f9_1_main_1_opaque_list_2, 8
_TIG_iO_Z3f9_1_main_1_opaque_list_2:
	.zero	8
	.section	.rodata
.LC0:
	.string	"%hu"
.LC1:
	.string	"%hu %hu"
.LC2:
	.string	"PROXYCITY"
.LC3:
	.string	"P.Y.N.G."
.LC4:
	.string	"DNSUEY!"
.LC5:
	.string	"SERVERS"
.LC6:
	.string	"HOST!"
.LC7:
	.string	"CRIPTONIZE"
.LC8:
	.string	"OFFLINE DAY"
.LC9:
	.string	"SALT"
.LC10:
	.string	"ANSWER!"
.LC11:
	.string	"RAR?"
.LC12:
	.string	"WIFI ANTENNAS"
	.text
	.globl	main
	.type	main, @function
main:
.LFB0:
	.cfi_startproc
	endbr64
	pushq	%rbp
	.cfi_def_cfa_offset 16
	.cfi_offset 6, -16
	movq	%rsp, %rbp
	.cfi_def_cfa_register 6
	subq	$112, %rsp
	movl	%edi, -84(%rbp)
	movq	%rsi, -96(%rbp)
	movq	%rdx, -104(%rbp)
	movq	%fs:40, %rax
	movq	%rax, -8(%rbp)
	xorl	%eax, %eax
	movq	$0, _TIG_IZ_Z3f9_envp(%rip)
	nop
.L2:
	movq	$0, _TIG_IZ_Z3f9_argv(%rip)
	nop
.L3:
	movl	$0, _TIG_IZ_Z3f9_argc(%rip)
	nop
	nop
.L4:
.L5:
#APP
# 117 "/usr/include/stdlib.h" 1
	##_ANNOTATION_INITIALREGION_-TIG-IZ-Z3f9--0
# 0 "" 2
#NO_APP
	movl	-84(%rbp), %eax
	movl	%eax, _TIG_IZ_Z3f9_argc(%rip)
	movq	-96(%rbp), %rax
	movq	%rax, _TIG_IZ_Z3f9_argv(%rip)
	movq	-104(%rbp), %rax
	movq	%rax, _TIG_IZ_Z3f9_envp(%rip)
#APP
# 124 "/usr/include/stdlib.h" 1
	##_ANNOTATION_ATOMICREGION_-TIG-iO-Z3f9-1-main--13
# 0 "" 2
#NO_APP
	movl	$24, %edi
	call	malloc@PLT
	movq	%rax, -48(%rbp)
	movq	-48(%rbp), %rax
	movq	-48(%rbp), %rdx
	movq	%rdx, (%rax)
	movq	-48(%rbp), %rax
	movq	-48(%rbp), %rdx
	movq	%rdx, 8(%rax)
	movq	-48(%rbp), %rax
	movq	%rax, _TIG_iO_Z3f9_1_main_1_opaque_list_1(%rip)
	call	rand@PLT
	movl	%eax, -64(%rbp)
	movl	$24, %edi
	call	malloc@PLT
	movq	%rax, -40(%rbp)
	movq	-40(%rbp), %rax
	movl	$0, 16(%rax)
	movq	_TIG_iO_Z3f9_1_main_1_opaque_list_1(%rip), %rax
	movq	(%rax), %rdx
	movq	-40(%rbp), %rax
	movq	%rdx, (%rax)
	movq	_TIG_iO_Z3f9_1_main_1_opaque_list_1(%rip), %rdx
	movq	-40(%rbp), %rax
	movq	%rdx, 8(%rax)
	movq	_TIG_iO_Z3f9_1_main_1_opaque_list_1(%rip), %rax
	movq	(%rax), %rax
	movq	-40(%rbp), %rdx
	movq	%rdx, 8(%rax)
	movq	_TIG_iO_Z3f9_1_main_1_opaque_list_1(%rip), %rax
	movq	-40(%rbp), %rdx
	movq	%rdx, (%rax)
	call	rand@PLT
	movl	%eax, -60(%rbp)
	movl	$24, %edi
	call	malloc@PLT
	movq	%rax, -32(%rbp)
	movq	-32(%rbp), %rax
	movl	-60(%rbp), %edx
	movl	%edx, 16(%rax)
	movq	_TIG_iO_Z3f9_1_main_1_opaque_list_1(%rip), %rax
	movq	(%rax), %rdx
	movq	-32(%rbp), %rax
	movq	%rdx, (%rax)
	movq	_TIG_iO_Z3f9_1_main_1_opaque_list_1(%rip), %rdx
	movq	-32(%rbp), %rax
	movq	%rdx, 8(%rax)
	movq	_TIG_iO_Z3f9_1_main_1_opaque_list_1(%rip), %rax
	movq	(%rax), %rax
	movq	-32(%rbp), %rdx
	movq	%rdx, 8(%rax)
	movq	_TIG_iO_Z3f9_1_main_1_opaque_list_1(%rip), %rax
	movq	-32(%rbp), %rdx
	movq	%rdx, (%rax)
	call	rand@PLT
	movl	%eax, -56(%rbp)
	movl	$24, %edi
	call	malloc@PLT
	movq	%rax, -24(%rbp)
	movl	-56(%rbp), %eax
	leal	(%rax,%rax), %edx
	movq	-24(%rbp), %rax
	movl	%edx, 16(%rax)
	movq	_TIG_iO_Z3f9_1_main_1_opaque_list_1(%rip), %rax
	movq	(%rax), %rdx
	movq	-24(%rbp), %rax
	movq	%rdx, (%rax)
	movq	_TIG_iO_Z3f9_1_main_1_opaque_list_1(%rip), %rdx
	movq	-24(%rbp), %rax
	movq	%rdx, 8(%rax)
	movq	_TIG_iO_Z3f9_1_main_1_opaque_list_1(%rip), %rax
	movq	(%rax), %rax
	movq	-24(%rbp), %rdx
	movq	%rdx, 8(%rax)
	movq	_TIG_iO_Z3f9_1_main_1_opaque_list_1(%rip), %rax
	movq	-24(%rbp), %rdx
	movq	%rdx, (%rax)
	call	rand@PLT
	movl	%eax, -52(%rbp)
	movl	$24, %edi
	call	malloc@PLT
	movq	%rax, -16(%rbp)
	movl	-52(%rbp), %edx
	movl	%edx, %eax
	addl	%eax, %eax
	addl	%eax, %edx
	movq	-16(%rbp), %rax
	movl	%edx, 16(%rax)
	movq	_TIG_iO_Z3f9_1_main_1_opaque_list_1(%rip), %rax
	movq	(%rax), %rdx
	movq	-16(%rbp), %rax
	movq	%rdx, (%rax)
	movq	_TIG_iO_Z3f9_1_main_1_opaque_list_1(%rip), %rdx
	movq	-16(%rbp), %rax
	movq	%rdx, 8(%rax)
	movq	_TIG_iO_Z3f9_1_main_1_opaque_list_1(%rip), %rax
	movq	(%rax), %rax
	movq	-16(%rbp), %rdx
	movq	%rdx, 8(%rax)
	movq	_TIG_iO_Z3f9_1_main_1_opaque_list_1(%rip), %rax
	movq	-16(%rbp), %rdx
	movq	%rdx, (%rax)
	movq	_TIG_iO_Z3f9_1_main_1_opaque_list_1(%rip), %rax
	movq	(%rax), %rax
	movq	%rax, _TIG_iO_Z3f9_1_main_1_opaque_ptr_1(%rip)
	movq	_TIG_iO_Z3f9_1_main_1_opaque_ptr_1(%rip), %rax
	movq	%rax, _TIG_iO_Z3f9_1_main_1_opaque_ptr_2(%rip)
	movq	_TIG_iO_Z3f9_1_main_1_opaque_ptr_2(%rip), %rax
	movq	(%rax), %rax
	movq	%rax, _TIG_iO_Z3f9_1_main_1_opaque_ptr_2(%rip)
	nop
	nop
	leaq	-74(%rbp), %rax
	movq	%rax, %rsi
	leaq	.LC0(%rip), %rax
	movq	%rax, %rdi
	movl	$0, %eax
	call	__isoc99_scanf@PLT
.L22:
	movq	_TIG_iO_Z3f9_1_main_1_opaque_ptr_1(%rip), %rdx
	movq	_TIG_iO_Z3f9_1_main_1_opaque_ptr_2(%rip), %rax
	cmpq	%rax, %rdx
	jne	.L6
	movq	-104(%rbp), %rdx
	movq	-104(%rbp), %rcx
	movl	-56(%rbp), %eax
	movq	%rcx, %rsi
	movl	%eax, %edi
	call	main
.L6:
	movzwl	-74(%rbp), %eax
	movw	%ax, -68(%rbp)
	movzwl	-74(%rbp), %eax
	subl	$1, %eax
	movw	%ax, -74(%rbp)
	cmpw	$0, -68(%rbp)
	je	.L26
	leaq	-70(%rbp), %rdx
	leaq	-72(%rbp), %rax
	movq	%rax, %rsi
	leaq	.LC1(%rip), %rax
	movq	%rax, %rdi
	movl	$0, %eax
	call	__isoc99_scanf@PLT
	movzwl	-72(%rbp), %edx
	movzwl	-70(%rbp), %eax
	addl	%edx, %eax
	movw	%ax, -66(%rbp)
	movzwl	-66(%rbp), %eax
	cmpl	$10, %eax
	ja	.L22
	movl	%eax, %eax
	leaq	0(,%rax,4), %rdx
	leaq	.L11(%rip), %rax
	movl	(%rdx,%rax), %eax
	cltq
	leaq	.L11(%rip), %rdx
	addq	%rdx, %rax
	notrack jmp	*%rax
	.section	.rodata
	.align 4
	.align 4
.L11:
	.long	.L21-.L11
	.long	.L20-.L11
	.long	.L19-.L11
	.long	.L18-.L11
	.long	.L17-.L11
	.long	.L16-.L11
	.long	.L15-.L11
	.long	.L14-.L11
	.long	.L13-.L11
	.long	.L12-.L11
	.long	.L10-.L11
	.text
.L21:
	leaq	.LC2(%rip), %rax
	movq	%rax, %rdi
	call	puts@PLT
	jmp	.L9
.L20:
	leaq	.LC3(%rip), %rax
	movq	%rax, %rdi
	call	puts@PLT
	jmp	.L9
.L19:
	leaq	.LC4(%rip), %rax
	movq	%rax, %rdi
	call	puts@PLT
	jmp	.L9
.L18:
	leaq	.LC5(%rip), %rax
	movq	%rax, %rdi
	call	puts@PLT
	jmp	.L9
.L17:
	leaq	.LC6(%rip), %rax
	movq	%rax, %rdi
	call	puts@PLT
	jmp	.L9
.L16:
	leaq	.LC7(%rip), %rax
	movq	%rax, %rdi
	call	puts@PLT
	jmp	.L9
.L15:
	leaq	.LC8(%rip), %rax
	movq	%rax, %rdi
	call	puts@PLT
	jmp	.L9
.L14:
	leaq	.LC9(%rip), %rax
	movq	%rax, %rdi
	call	puts@PLT
	jmp	.L9
.L13:
	leaq	.LC10(%rip), %rax
	movq	%rax, %rdi
	call	puts@PLT
	jmp	.L9
.L12:
	leaq	.LC11(%rip), %rax
	movq	%rax, %rdi
	call	puts@PLT
	jmp	.L9
.L10:
	leaq	.LC12(%rip), %rax
	movq	%rax, %rdi
	call	puts@PLT
	nop
.L9:
	jmp	.L22
.L26:
	nop
	nop
	movq	-8(%rbp), %rax
	subq	%fs:40, %rax
	je	.L24
	call	__stack_chk_fail@PLT
.L24:
	leave
	.cfi_def_cfa 7, 8
	ret
	.cfi_endproc
.LFE0:
	.size	main, .-main
	.ident	"GCC: (Ubuntu 11.4.0-1ubuntu1~22.04) 11.4.0"
	.section	.note.GNU-stack,"",@progbits
	.section	.note.gnu.property,"a"
	.align 8
	.long	1f - 0f
	.long	4f - 1f
	.long	5
0:
	.string	"GNU"
1:
	.align 8
	.long	0xc0000002
	.long	3f - 2f
2:
	.long	0x3
3:
	.align 8
4:
