	.file	"marcotessarotto_exOpSys_003.3calc-iter_opaque.c"
	.text
	.globl	_TIG_iO_Fjeo_1_main_1_opaque_list_2
	.bss
	.align 8
	.type	_TIG_iO_Fjeo_1_main_1_opaque_list_2, @object
	.size	_TIG_iO_Fjeo_1_main_1_opaque_list_2, 8
_TIG_iO_Fjeo_1_main_1_opaque_list_2:
	.zero	8
	.globl	_TIG_iO_Fjeo_1___bswap_16_1_opaque_list_2
	.align 8
	.type	_TIG_iO_Fjeo_1___bswap_16_1_opaque_list_2, @object
	.size	_TIG_iO_Fjeo_1___bswap_16_1_opaque_list_2, 8
_TIG_iO_Fjeo_1___bswap_16_1_opaque_list_2:
	.zero	8
	.globl	_TIG_iO_Fjeo_1_calculator_1_opaque_ptr_1
	.align 8
	.type	_TIG_iO_Fjeo_1_calculator_1_opaque_ptr_1, @object
	.size	_TIG_iO_Fjeo_1_calculator_1_opaque_ptr_1, 8
_TIG_iO_Fjeo_1_calculator_1_opaque_ptr_1:
	.zero	8
	.globl	_TIG_iO_Fjeo_1___uint64_identity_1_opaque_list_2
	.align 8
	.type	_TIG_iO_Fjeo_1___uint64_identity_1_opaque_list_2, @object
	.size	_TIG_iO_Fjeo_1___uint64_identity_1_opaque_list_2, 8
_TIG_iO_Fjeo_1___uint64_identity_1_opaque_list_2:
	.zero	8
	.globl	_TIG_iO_Fjeo_1___uint32_identity_1_opaque_list_1
	.align 8
	.type	_TIG_iO_Fjeo_1___uint32_identity_1_opaque_list_1, @object
	.size	_TIG_iO_Fjeo_1___uint32_identity_1_opaque_list_1, 8
_TIG_iO_Fjeo_1___uint32_identity_1_opaque_list_1:
	.zero	8
	.globl	_TIG_iO_Fjeo_1___bswap_16_1_opaque_list_1
	.align 8
	.type	_TIG_iO_Fjeo_1___bswap_16_1_opaque_list_1, @object
	.size	_TIG_iO_Fjeo_1___bswap_16_1_opaque_list_1, 8
_TIG_iO_Fjeo_1___bswap_16_1_opaque_list_1:
	.zero	8
	.globl	_TIG_iO_Fjeo_1_calculator_1_opaque_list_1
	.align 8
	.type	_TIG_iO_Fjeo_1_calculator_1_opaque_list_1, @object
	.size	_TIG_iO_Fjeo_1_calculator_1_opaque_list_1, 8
_TIG_iO_Fjeo_1_calculator_1_opaque_list_1:
	.zero	8
	.globl	_TIG_iO_Fjeo_1___bswap_16_1_opaque_ptr_2
	.align 8
	.type	_TIG_iO_Fjeo_1___bswap_16_1_opaque_ptr_2, @object
	.size	_TIG_iO_Fjeo_1___bswap_16_1_opaque_ptr_2, 8
_TIG_iO_Fjeo_1___bswap_16_1_opaque_ptr_2:
	.zero	8
	.globl	_TIG_iO_Fjeo_1___uint16_identity_1_opaque_ptr_2
	.align 8
	.type	_TIG_iO_Fjeo_1___uint16_identity_1_opaque_ptr_2, @object
	.size	_TIG_iO_Fjeo_1___uint16_identity_1_opaque_ptr_2, 8
_TIG_iO_Fjeo_1___uint16_identity_1_opaque_ptr_2:
	.zero	8
	.globl	_TIG_iO_Fjeo_1___bswap_64_1_opaque_ptr_1
	.align 8
	.type	_TIG_iO_Fjeo_1___bswap_64_1_opaque_ptr_1, @object
	.size	_TIG_iO_Fjeo_1___bswap_64_1_opaque_ptr_1, 8
_TIG_iO_Fjeo_1___bswap_64_1_opaque_ptr_1:
	.zero	8
	.globl	_TIG_IZ_Fjeo_argv
	.align 8
	.type	_TIG_IZ_Fjeo_argv, @object
	.size	_TIG_IZ_Fjeo_argv, 8
_TIG_IZ_Fjeo_argv:
	.zero	8
	.globl	_TIG_iO_Fjeo_1___uint64_identity_1_opaque_ptr_2
	.align 8
	.type	_TIG_iO_Fjeo_1___uint64_identity_1_opaque_ptr_2, @object
	.size	_TIG_iO_Fjeo_1___uint64_identity_1_opaque_ptr_2, 8
_TIG_iO_Fjeo_1___uint64_identity_1_opaque_ptr_2:
	.zero	8
	.globl	_TIG_iO_Fjeo_1_main_1_opaque_ptr_1
	.align 8
	.type	_TIG_iO_Fjeo_1_main_1_opaque_ptr_1, @object
	.size	_TIG_iO_Fjeo_1_main_1_opaque_ptr_1, 8
_TIG_iO_Fjeo_1_main_1_opaque_ptr_1:
	.zero	8
	.globl	_TIG_iO_Fjeo_1___uint16_identity_1_opaque_ptr_1
	.align 8
	.type	_TIG_iO_Fjeo_1___uint16_identity_1_opaque_ptr_1, @object
	.size	_TIG_iO_Fjeo_1___uint16_identity_1_opaque_ptr_1, 8
_TIG_iO_Fjeo_1___uint16_identity_1_opaque_ptr_1:
	.zero	8
	.globl	_TIG_iO_Fjeo_1_main_1_opaque_ptr_2
	.align 8
	.type	_TIG_iO_Fjeo_1_main_1_opaque_ptr_2, @object
	.size	_TIG_iO_Fjeo_1_main_1_opaque_ptr_2, 8
_TIG_iO_Fjeo_1_main_1_opaque_ptr_2:
	.zero	8
	.globl	_TIG_iO_Fjeo_1___bswap_64_1_opaque_ptr_2
	.align 8
	.type	_TIG_iO_Fjeo_1___bswap_64_1_opaque_ptr_2, @object
	.size	_TIG_iO_Fjeo_1___bswap_64_1_opaque_ptr_2, 8
_TIG_iO_Fjeo_1___bswap_64_1_opaque_ptr_2:
	.zero	8
	.globl	_TIG_iO_Fjeo_1_main_1_opaque_list_1
	.align 8
	.type	_TIG_iO_Fjeo_1_main_1_opaque_list_1, @object
	.size	_TIG_iO_Fjeo_1_main_1_opaque_list_1, 8
_TIG_iO_Fjeo_1_main_1_opaque_list_1:
	.zero	8
	.globl	_TIG_iO_Fjeo_1___uint16_identity_1_opaque_list_2
	.align 8
	.type	_TIG_iO_Fjeo_1___uint16_identity_1_opaque_list_2, @object
	.size	_TIG_iO_Fjeo_1___uint16_identity_1_opaque_list_2, 8
_TIG_iO_Fjeo_1___uint16_identity_1_opaque_list_2:
	.zero	8
	.globl	_TIG_iO_Fjeo_1___bswap_16_1_opaque_ptr_1
	.align 8
	.type	_TIG_iO_Fjeo_1___bswap_16_1_opaque_ptr_1, @object
	.size	_TIG_iO_Fjeo_1___bswap_16_1_opaque_ptr_1, 8
_TIG_iO_Fjeo_1___bswap_16_1_opaque_ptr_1:
	.zero	8
	.globl	_TIG_iO_Fjeo_1___bswap_64_1_opaque_list_2
	.align 8
	.type	_TIG_iO_Fjeo_1___bswap_64_1_opaque_list_2, @object
	.size	_TIG_iO_Fjeo_1___bswap_64_1_opaque_list_2, 8
_TIG_iO_Fjeo_1___bswap_64_1_opaque_list_2:
	.zero	8
	.globl	_TIG_iO_Fjeo_1___uint32_identity_1_opaque_list_2
	.align 8
	.type	_TIG_iO_Fjeo_1___uint32_identity_1_opaque_list_2, @object
	.size	_TIG_iO_Fjeo_1___uint32_identity_1_opaque_list_2, 8
_TIG_iO_Fjeo_1___uint32_identity_1_opaque_list_2:
	.zero	8
	.globl	_TIG_iO_Fjeo_1___bswap_32_1_opaque_ptr_1
	.align 8
	.type	_TIG_iO_Fjeo_1___bswap_32_1_opaque_ptr_1, @object
	.size	_TIG_iO_Fjeo_1___bswap_32_1_opaque_ptr_1, 8
_TIG_iO_Fjeo_1___bswap_32_1_opaque_ptr_1:
	.zero	8
	.globl	_TIG_IZ_Fjeo_argc
	.align 4
	.type	_TIG_IZ_Fjeo_argc, @object
	.size	_TIG_IZ_Fjeo_argc, 4
_TIG_IZ_Fjeo_argc:
	.zero	4
	.globl	_TIG_iO_Fjeo_1_calculator_1_opaque_ptr_2
	.align 8
	.type	_TIG_iO_Fjeo_1_calculator_1_opaque_ptr_2, @object
	.size	_TIG_iO_Fjeo_1_calculator_1_opaque_ptr_2, 8
_TIG_iO_Fjeo_1_calculator_1_opaque_ptr_2:
	.zero	8
	.globl	_TIG_iO_Fjeo_1___uint32_identity_1_opaque_ptr_1
	.align 8
	.type	_TIG_iO_Fjeo_1___uint32_identity_1_opaque_ptr_1, @object
	.size	_TIG_iO_Fjeo_1___uint32_identity_1_opaque_ptr_1, 8
_TIG_iO_Fjeo_1___uint32_identity_1_opaque_ptr_1:
	.zero	8
	.globl	_TIG_iO_Fjeo_1___uint64_identity_1_opaque_list_1
	.align 8
	.type	_TIG_iO_Fjeo_1___uint64_identity_1_opaque_list_1, @object
	.size	_TIG_iO_Fjeo_1___uint64_identity_1_opaque_list_1, 8
_TIG_iO_Fjeo_1___uint64_identity_1_opaque_list_1:
	.zero	8
	.globl	_TIG_iO_Fjeo_1___uint32_identity_1_opaque_ptr_2
	.align 8
	.type	_TIG_iO_Fjeo_1___uint32_identity_1_opaque_ptr_2, @object
	.size	_TIG_iO_Fjeo_1___uint32_identity_1_opaque_ptr_2, 8
_TIG_iO_Fjeo_1___uint32_identity_1_opaque_ptr_2:
	.zero	8
	.globl	_TIG_iO_Fjeo_1___bswap_64_1_opaque_list_1
	.align 8
	.type	_TIG_iO_Fjeo_1___bswap_64_1_opaque_list_1, @object
	.size	_TIG_iO_Fjeo_1___bswap_64_1_opaque_list_1, 8
_TIG_iO_Fjeo_1___bswap_64_1_opaque_list_1:
	.zero	8
	.globl	_TIG_iO_Fjeo_1___uint16_identity_1_opaque_list_1
	.align 8
	.type	_TIG_iO_Fjeo_1___uint16_identity_1_opaque_list_1, @object
	.size	_TIG_iO_Fjeo_1___uint16_identity_1_opaque_list_1, 8
_TIG_iO_Fjeo_1___uint16_identity_1_opaque_list_1:
	.zero	8
	.globl	_TIG_iO_Fjeo_1___uint64_identity_1_opaque_ptr_1
	.align 8
	.type	_TIG_iO_Fjeo_1___uint64_identity_1_opaque_ptr_1, @object
	.size	_TIG_iO_Fjeo_1___uint64_identity_1_opaque_ptr_1, 8
_TIG_iO_Fjeo_1___uint64_identity_1_opaque_ptr_1:
	.zero	8
	.globl	_TIG_IZ_Fjeo_envp
	.align 8
	.type	_TIG_IZ_Fjeo_envp, @object
	.size	_TIG_IZ_Fjeo_envp, 8
_TIG_IZ_Fjeo_envp:
	.zero	8
	.globl	_TIG_iO_Fjeo_1___bswap_32_1_opaque_list_2
	.align 8
	.type	_TIG_iO_Fjeo_1___bswap_32_1_opaque_list_2, @object
	.size	_TIG_iO_Fjeo_1___bswap_32_1_opaque_list_2, 8
_TIG_iO_Fjeo_1___bswap_32_1_opaque_list_2:
	.zero	8
	.globl	_TIG_iO_Fjeo_1___bswap_32_1_opaque_ptr_2
	.align 8
	.type	_TIG_iO_Fjeo_1___bswap_32_1_opaque_ptr_2, @object
	.size	_TIG_iO_Fjeo_1___bswap_32_1_opaque_ptr_2, 8
_TIG_iO_Fjeo_1___bswap_32_1_opaque_ptr_2:
	.zero	8
	.globl	_TIG_iO_Fjeo_1___bswap_32_1_opaque_list_1
	.align 8
	.type	_TIG_iO_Fjeo_1___bswap_32_1_opaque_list_1, @object
	.size	_TIG_iO_Fjeo_1___bswap_32_1_opaque_list_1, 8
_TIG_iO_Fjeo_1___bswap_32_1_opaque_list_1:
	.zero	8
	.globl	_TIG_iO_Fjeo_1_calculator_1_opaque_list_2
	.align 8
	.type	_TIG_iO_Fjeo_1_calculator_1_opaque_list_2, @object
	.size	_TIG_iO_Fjeo_1_calculator_1_opaque_list_2, 8
_TIG_iO_Fjeo_1_calculator_1_opaque_list_2:
	.zero	8
	.section	.rodata
.LC0:
	.string	" %c %d %d "
.LC1:
	.string	"wrong operation\n"
.LC2:
	.string	"%c %d %d => %d\n"
.LC3:
	.string	"EOF!!!!"
.LC4:
	.string	"wrong parameters, control=%d\n"
	.text
	.globl	calculator
	.type	calculator, @function
calculator:
.LFB2:
	.cfi_startproc
	endbr64
	pushq	%rbp
	.cfi_def_cfa_offset 16
	.cfi_offset 6, -16
	movq	%rsp, %rbp
	.cfi_def_cfa_register 6
	subq	$96, %rsp
	movq	%fs:40, %rax
	movq	%rax, -8(%rbp)
	xorl	%eax, %eax
#APP
# 68 "/usr/include/x86_64-linux-gnu/bits/uintn-identity.h" 1
	##_ANNOTATION_INITIALREGION_-TIG-iO-Fjeo-1-calculator--14
# 0 "" 2
# 72 "/usr/include/x86_64-linux-gnu/bits/uintn-identity.h" 1
	##_ANNOTATION_ATOMICREGION_-TIG-iO-Fjeo-1-calculator--13
# 0 "" 2
#NO_APP
	movl	$24, %edi
	call	malloc@PLT
	movq	%rax, -48(%rbp)
	movq	-48(%rbp), %rax
	movq	-48(%rbp), %rdx
	movq	%rdx, (%rax)
	movq	-48(%rbp), %rax
	movq	-48(%rbp), %rdx
	movq	%rdx, 8(%rax)
	movq	-48(%rbp), %rax
	movq	%rax, _TIG_iO_Fjeo_1_calculator_1_opaque_list_1(%rip)
	call	rand@PLT
	movl	%eax, -68(%rbp)
	movl	$24, %edi
	call	malloc@PLT
	movq	%rax, -40(%rbp)
	movq	-40(%rbp), %rax
	movl	$0, 16(%rax)
	movq	_TIG_iO_Fjeo_1_calculator_1_opaque_list_1(%rip), %rax
	movq	(%rax), %rdx
	movq	-40(%rbp), %rax
	movq	%rdx, (%rax)
	movq	_TIG_iO_Fjeo_1_calculator_1_opaque_list_1(%rip), %rdx
	movq	-40(%rbp), %rax
	movq	%rdx, 8(%rax)
	movq	_TIG_iO_Fjeo_1_calculator_1_opaque_list_1(%rip), %rax
	movq	(%rax), %rax
	movq	-40(%rbp), %rdx
	movq	%rdx, 8(%rax)
	movq	_TIG_iO_Fjeo_1_calculator_1_opaque_list_1(%rip), %rax
	movq	-40(%rbp), %rdx
	movq	%rdx, (%rax)
	call	rand@PLT
	movl	%eax, -64(%rbp)
	movl	$24, %edi
	call	malloc@PLT
	movq	%rax, -32(%rbp)
	movq	-32(%rbp), %rax
	movl	-64(%rbp), %edx
	movl	%edx, 16(%rax)
	movq	_TIG_iO_Fjeo_1_calculator_1_opaque_list_1(%rip), %rax
	movq	(%rax), %rdx
	movq	-32(%rbp), %rax
	movq	%rdx, (%rax)
	movq	_TIG_iO_Fjeo_1_calculator_1_opaque_list_1(%rip), %rdx
	movq	-32(%rbp), %rax
	movq	%rdx, 8(%rax)
	movq	_TIG_iO_Fjeo_1_calculator_1_opaque_list_1(%rip), %rax
	movq	(%rax), %rax
	movq	-32(%rbp), %rdx
	movq	%rdx, 8(%rax)
	movq	_TIG_iO_Fjeo_1_calculator_1_opaque_list_1(%rip), %rax
	movq	-32(%rbp), %rdx
	movq	%rdx, (%rax)
	call	rand@PLT
	movl	%eax, -60(%rbp)
	movl	$24, %edi
	call	malloc@PLT
	movq	%rax, -24(%rbp)
	movl	-60(%rbp), %eax
	leal	(%rax,%rax), %edx
	movq	-24(%rbp), %rax
	movl	%edx, 16(%rax)
	movq	_TIG_iO_Fjeo_1_calculator_1_opaque_list_1(%rip), %rax
	movq	(%rax), %rdx
	movq	-24(%rbp), %rax
	movq	%rdx, (%rax)
	movq	_TIG_iO_Fjeo_1_calculator_1_opaque_list_1(%rip), %rdx
	movq	-24(%rbp), %rax
	movq	%rdx, 8(%rax)
	movq	_TIG_iO_Fjeo_1_calculator_1_opaque_list_1(%rip), %rax
	movq	(%rax), %rax
	movq	-24(%rbp), %rdx
	movq	%rdx, 8(%rax)
	movq	_TIG_iO_Fjeo_1_calculator_1_opaque_list_1(%rip), %rax
	movq	-24(%rbp), %rdx
	movq	%rdx, (%rax)
	call	rand@PLT
	movl	%eax, -56(%rbp)
	movl	$24, %edi
	call	malloc@PLT
	movq	%rax, -16(%rbp)
	movl	-56(%rbp), %edx
	movl	%edx, %eax
	addl	%eax, %eax
	addl	%eax, %edx
	movq	-16(%rbp), %rax
	movl	%edx, 16(%rax)
	movq	_TIG_iO_Fjeo_1_calculator_1_opaque_list_1(%rip), %rax
	movq	(%rax), %rdx
	movq	-16(%rbp), %rax
	movq	%rdx, (%rax)
	movq	_TIG_iO_Fjeo_1_calculator_1_opaque_list_1(%rip), %rdx
	movq	-16(%rbp), %rax
	movq	%rdx, 8(%rax)
	movq	_TIG_iO_Fjeo_1_calculator_1_opaque_list_1(%rip), %rax
	movq	(%rax), %rax
	movq	-16(%rbp), %rdx
	movq	%rdx, 8(%rax)
	movq	_TIG_iO_Fjeo_1_calculator_1_opaque_list_1(%rip), %rax
	movq	-16(%rbp), %rdx
	movq	%rdx, (%rax)
	movq	_TIG_iO_Fjeo_1_calculator_1_opaque_list_1(%rip), %rax
	movq	(%rax), %rax
	movq	%rax, _TIG_iO_Fjeo_1_calculator_1_opaque_ptr_1(%rip)
	movq	_TIG_iO_Fjeo_1_calculator_1_opaque_ptr_1(%rip), %rax
	movq	%rax, _TIG_iO_Fjeo_1_calculator_1_opaque_ptr_2(%rip)
	movq	_TIG_iO_Fjeo_1_calculator_1_opaque_ptr_2(%rip), %rax
	movq	(%rax), %rax
	movq	%rax, _TIG_iO_Fjeo_1_calculator_1_opaque_ptr_2(%rip)
	nop
	nop
	movl	$0, -80(%rbp)
	movl	$0, -76(%rbp)
	movl	$0, -72(%rbp)
	leaq	-76(%rbp), %rcx
	leaq	-80(%rbp), %rdx
	leaq	-81(%rbp), %rax
	movq	%rax, %rsi
	leaq	.LC0(%rip), %rax
	movq	%rax, %rdi
	movl	$0, %eax
	call	__isoc99_scanf@PLT
	movl	%eax, -52(%rbp)
	cmpl	$3, -52(%rbp)
	jne	.L2
	movzbl	-81(%rbp), %eax
	movsbl	%al, %eax
	cmpl	$47, %eax
	je	.L3
	cmpl	$47, %eax
	jg	.L4
	cmpl	$45, %eax
	je	.L5
	cmpl	$45, %eax
	jg	.L4
	cmpl	$42, %eax
	je	.L6
	cmpl	$43, %eax
	jne	.L4
	movl	-80(%rbp), %edx
	movl	-76(%rbp), %eax
	addl	%edx, %eax
	movl	%eax, -72(%rbp)
	movq	_TIG_iO_Fjeo_1_main_1_opaque_ptr_1(%rip), %rdx
	movq	_TIG_iO_Fjeo_1_main_1_opaque_ptr_2(%rip), %rax
	cmpq	%rax, %rdx
	je	.L13
	call	calculator
	movl	%eax, -68(%rbp)
	jmp	.L13
.L5:
	movl	-80(%rbp), %eax
	movl	-76(%rbp), %edx
	subl	%edx, %eax
	movl	%eax, -72(%rbp)
	jmp	.L8
.L6:
	movl	-80(%rbp), %edx
	movl	-76(%rbp), %eax
	imull	%edx, %eax
	movl	%eax, -72(%rbp)
	jmp	.L8
.L3:
	movl	-80(%rbp), %eax
	movl	-76(%rbp), %esi
	cltd
	idivl	%esi
	movl	%eax, -72(%rbp)
	jmp	.L8
.L4:
	movq	stderr(%rip), %rax
	movq	%rax, %rcx
	movl	$16, %edx
	movl	$1, %esi
	leaq	.LC1(%rip), %rax
	movq	%rax, %rdi
	call	fwrite@PLT
	movl	$1, %eax
	jmp	.L11
.L13:
	nop
.L8:
	movl	-76(%rbp), %ecx
	movl	-80(%rbp), %edx
	movzbl	-81(%rbp), %eax
	movsbl	%al, %eax
	movl	-72(%rbp), %esi
	movl	%esi, %r8d
	movl	%eax, %esi
	leaq	.LC2(%rip), %rax
	movq	%rax, %rdi
	movl	$0, %eax
	call	printf@PLT
	movl	$0, %eax
	jmp	.L11
.L2:
	cmpl	$-1, -52(%rbp)
	jne	.L10
	leaq	.LC3(%rip), %rax
	movq	%rax, %rdi
	call	puts@PLT
	movl	$-1, %eax
	jmp	.L11
.L10:
	movq	stderr(%rip), %rax
	movl	-52(%rbp), %edx
	leaq	.LC4(%rip), %rcx
	movq	%rcx, %rsi
	movq	%rax, %rdi
	movl	$0, %eax
	call	fprintf@PLT
	movl	$1, %eax
.L11:
	movq	-8(%rbp), %rdx
	subq	%fs:40, %rdx
	je	.L12
	call	__stack_chk_fail@PLT
.L12:
	leave
	.cfi_def_cfa 7, 8
	ret
	.cfi_endproc
.LFE2:
	.size	calculator, .-calculator
	.globl	main
	.type	main, @function
main:
.LFB5:
	.cfi_startproc
	endbr64
	pushq	%rbp
	.cfi_def_cfa_offset 16
	.cfi_offset 6, -16
	movq	%rsp, %rbp
	.cfi_def_cfa_register 6
	subq	$80, %rsp
	movl	%edi, -52(%rbp)
	movq	%rsi, -64(%rbp)
	movq	%rdx, -72(%rbp)
	movq	$0, _TIG_IZ_Fjeo_envp(%rip)
	nop
.L15:
	movq	$0, _TIG_IZ_Fjeo_argv(%rip)
	nop
.L16:
	movl	$0, _TIG_IZ_Fjeo_argc(%rip)
	nop
	nop
.L17:
.L18:
#APP
# 97 "/usr/include/x86_64-linux-gnu/bits/byteswap.h" 1
	##_ANNOTATION_INITIALREGION_-TIG-IZ-Fjeo--0
# 0 "" 2
#NO_APP
	movl	-52(%rbp), %eax
	movl	%eax, _TIG_IZ_Fjeo_argc(%rip)
	movq	-64(%rbp), %rax
	movq	%rax, _TIG_IZ_Fjeo_argv(%rip)
	movq	-72(%rbp), %rax
	movq	%rax, _TIG_IZ_Fjeo_envp(%rip)
#APP
# 104 "/usr/include/x86_64-linux-gnu/bits/byteswap.h" 1
	##_ANNOTATION_ATOMICREGION_-TIG-iO-Fjeo-1-main--15
# 0 "" 2
#NO_APP
	movl	$24, %edi
	call	malloc@PLT
	movq	%rax, -24(%rbp)
	movq	-24(%rbp), %rax
	movq	-24(%rbp), %rdx
	movq	%rdx, 16(%rax)
	movq	-24(%rbp), %rax
	movq	-24(%rbp), %rdx
	movq	%rdx, 8(%rax)
	movq	-24(%rbp), %rax
	movq	%rax, _TIG_iO_Fjeo_1_main_1_opaque_list_1(%rip)
	call	rand@PLT
	movl	%eax, -36(%rbp)
	movl	$24, %edi
	call	malloc@PLT
	movq	%rax, -16(%rbp)
	movq	-16(%rbp), %rax
	movl	$0, (%rax)
	movq	_TIG_iO_Fjeo_1_main_1_opaque_list_1(%rip), %rax
	movq	16(%rax), %rdx
	movq	-16(%rbp), %rax
	movq	%rdx, 16(%rax)
	movq	_TIG_iO_Fjeo_1_main_1_opaque_list_1(%rip), %rdx
	movq	-16(%rbp), %rax
	movq	%rdx, 8(%rax)
	movq	_TIG_iO_Fjeo_1_main_1_opaque_list_1(%rip), %rax
	movq	16(%rax), %rax
	movq	-16(%rbp), %rdx
	movq	%rdx, 8(%rax)
	movq	_TIG_iO_Fjeo_1_main_1_opaque_list_1(%rip), %rax
	movq	-16(%rbp), %rdx
	movq	%rdx, 16(%rax)
	call	rand@PLT
	movl	%eax, -32(%rbp)
	movl	$24, %edi
	call	malloc@PLT
	movq	%rax, -8(%rbp)
	movq	-8(%rbp), %rax
	movl	-32(%rbp), %edx
	movl	%edx, (%rax)
	movq	_TIG_iO_Fjeo_1_main_1_opaque_list_1(%rip), %rax
	movq	16(%rax), %rdx
	movq	-8(%rbp), %rax
	movq	%rdx, 16(%rax)
	movq	_TIG_iO_Fjeo_1_main_1_opaque_list_1(%rip), %rdx
	movq	-8(%rbp), %rax
	movq	%rdx, 8(%rax)
	movq	_TIG_iO_Fjeo_1_main_1_opaque_list_1(%rip), %rax
	movq	16(%rax), %rax
	movq	-8(%rbp), %rdx
	movq	%rdx, 8(%rax)
	movq	_TIG_iO_Fjeo_1_main_1_opaque_list_1(%rip), %rax
	movq	-8(%rbp), %rdx
	movq	%rdx, 16(%rax)
	movq	_TIG_iO_Fjeo_1_main_1_opaque_list_1(%rip), %rax
	movq	16(%rax), %rax
	movq	%rax, _TIG_iO_Fjeo_1_main_1_opaque_ptr_1(%rip)
	movq	_TIG_iO_Fjeo_1_main_1_opaque_ptr_1(%rip), %rax
	movq	%rax, _TIG_iO_Fjeo_1_main_1_opaque_ptr_2(%rip)
	nop
	nop
.L23:
	movq	_TIG_iO_Fjeo_1_main_1_opaque_ptr_1(%rip), %rdx
	movq	_TIG_iO_Fjeo_1_main_1_opaque_ptr_2(%rip), %rax
	cmpq	%rax, %rdx
	je	.L19
#APP
# 64 "/usr/include/x86_64-linux-gnu/bits/byteswap.h" 1
	.byte 0xfd,0xff,0xff
# 0 "" 2
#NO_APP
	jmp	.L20
.L19:
	call	calculator
	movl	%eax, -28(%rbp)
	movl	-28(%rbp), %eax
	movl	%eax, -40(%rbp)
.L20:
	cmpl	$0, -40(%rbp)
	jne	.L26
	jmp	.L23
.L26:
	nop
	movl	$0, %eax
	leave
	.cfi_def_cfa 7, 8
	ret
	.cfi_endproc
.LFE5:
	.size	main, .-main
	.ident	"GCC: (Ubuntu 11.4.0-1ubuntu1~22.04) 11.4.0"
	.section	.note.GNU-stack,"",@progbits
	.section	.note.gnu.property,"a"
	.align 8
	.long	1f - 0f
	.long	4f - 1f
	.long	5
0:
	.string	"GNU"
1:
	.align 8
	.long	0xc0000002
	.long	3f - 2f
2:
	.long	0x3
3:
	.align 8
4:
