	.file	"mehme2_cse_assignments_main_opaque.c"
	.text
	.globl	_TIG_iO_SooK_1___bswap_16_1_opaque_list_1
	.bss
	.align 8
	.type	_TIG_iO_SooK_1___bswap_16_1_opaque_list_1, @object
	.size	_TIG_iO_SooK_1___bswap_16_1_opaque_list_1, 8
_TIG_iO_SooK_1___bswap_16_1_opaque_list_1:
	.zero	8
	.globl	_TIG_iO_SooK_1___uint64_identity_1_opaque_ptr_2
	.align 8
	.type	_TIG_iO_SooK_1___uint64_identity_1_opaque_ptr_2, @object
	.size	_TIG_iO_SooK_1___uint64_identity_1_opaque_ptr_2, 8
_TIG_iO_SooK_1___uint64_identity_1_opaque_ptr_2:
	.zero	8
	.globl	_TIG_iO_SooK_1_updateBook_1_opaque_list_2
	.align 8
	.type	_TIG_iO_SooK_1_updateBook_1_opaque_list_2, @object
	.size	_TIG_iO_SooK_1_updateBook_1_opaque_list_2, 8
_TIG_iO_SooK_1_updateBook_1_opaque_list_2:
	.zero	8
	.globl	_TIG_iO_SooK_1___bswap_64_1_opaque_list_1
	.align 8
	.type	_TIG_iO_SooK_1___bswap_64_1_opaque_list_1, @object
	.size	_TIG_iO_SooK_1___bswap_64_1_opaque_list_1, 8
_TIG_iO_SooK_1___bswap_64_1_opaque_list_1:
	.zero	8
	.globl	_TIG_iO_SooK_1_load_1_opaque_list_1
	.align 8
	.type	_TIG_iO_SooK_1_load_1_opaque_list_1, @object
	.size	_TIG_iO_SooK_1_load_1_opaque_list_1, 8
_TIG_iO_SooK_1_load_1_opaque_list_1:
	.zero	8
	.globl	_TIG_iO_SooK_1___uint16_identity_1_opaque_list_2
	.align 8
	.type	_TIG_iO_SooK_1___uint16_identity_1_opaque_list_2, @object
	.size	_TIG_iO_SooK_1___uint16_identity_1_opaque_list_2, 8
_TIG_iO_SooK_1___uint16_identity_1_opaque_list_2:
	.zero	8
	.globl	_TIG_iO_SooK_1_reverseBookList_1_opaque_list_1
	.align 8
	.type	_TIG_iO_SooK_1_reverseBookList_1_opaque_list_1, @object
	.size	_TIG_iO_SooK_1_reverseBookList_1_opaque_list_1, 8
_TIG_iO_SooK_1_reverseBookList_1_opaque_list_1:
	.zero	8
	.globl	_TIG_iO_SooK_1_addStudent_1_opaque_list_1
	.align 8
	.type	_TIG_iO_SooK_1_addStudent_1_opaque_list_1, @object
	.size	_TIG_iO_SooK_1_addStudent_1_opaque_list_1, 8
_TIG_iO_SooK_1_addStudent_1_opaque_list_1:
	.zero	8
	.globl	_TIG_iO_SooK_1_borrowBook_1_opaque_ptr_1
	.align 8
	.type	_TIG_iO_SooK_1_borrowBook_1_opaque_ptr_1, @object
	.size	_TIG_iO_SooK_1_borrowBook_1_opaque_ptr_1, 8
_TIG_iO_SooK_1_borrowBook_1_opaque_ptr_1:
	.zero	8
	.globl	_TIG_iO_SooK_1___bswap_32_1_opaque_ptr_2
	.align 8
	.type	_TIG_iO_SooK_1___bswap_32_1_opaque_ptr_2, @object
	.size	_TIG_iO_SooK_1___bswap_32_1_opaque_ptr_2, 8
_TIG_iO_SooK_1___bswap_32_1_opaque_ptr_2:
	.zero	8
	.globl	_TIG_iO_SooK_1___bswap_64_1_opaque_list_2
	.align 8
	.type	_TIG_iO_SooK_1___bswap_64_1_opaque_list_2, @object
	.size	_TIG_iO_SooK_1___bswap_64_1_opaque_list_2, 8
_TIG_iO_SooK_1___bswap_64_1_opaque_list_2:
	.zero	8
	.globl	_TIG_IZ_SooK_argc
	.align 4
	.type	_TIG_IZ_SooK_argc, @object
	.size	_TIG_IZ_SooK_argc, 4
_TIG_IZ_SooK_argc:
	.zero	4
	.globl	_TIG_iO_SooK_1_searchBooks_1_opaque_ptr_2
	.align 8
	.type	_TIG_iO_SooK_1_searchBooks_1_opaque_ptr_2, @object
	.size	_TIG_iO_SooK_1_searchBooks_1_opaque_ptr_2, 8
_TIG_iO_SooK_1_searchBooks_1_opaque_ptr_2:
	.zero	8
	.globl	_TIG_iO_SooK_1_displayBooks_1_opaque_ptr_1
	.align 8
	.type	_TIG_iO_SooK_1_displayBooks_1_opaque_ptr_1, @object
	.size	_TIG_iO_SooK_1_displayBooks_1_opaque_ptr_1, 8
_TIG_iO_SooK_1_displayBooks_1_opaque_ptr_1:
	.zero	8
	.globl	_TIG_iO_SooK_1_returnBook_1_opaque_ptr_2
	.align 8
	.type	_TIG_iO_SooK_1_returnBook_1_opaque_ptr_2, @object
	.size	_TIG_iO_SooK_1_returnBook_1_opaque_ptr_2, 8
_TIG_iO_SooK_1_returnBook_1_opaque_ptr_2:
	.zero	8
	.globl	_TIG_iO_SooK_1___uint16_identity_1_opaque_ptr_2
	.align 8
	.type	_TIG_iO_SooK_1___uint16_identity_1_opaque_ptr_2, @object
	.size	_TIG_iO_SooK_1___uint16_identity_1_opaque_ptr_2, 8
_TIG_iO_SooK_1___uint16_identity_1_opaque_ptr_2:
	.zero	8
	.globl	_TIG_iO_SooK_1_removeStudent_1_opaque_ptr_2
	.align 8
	.type	_TIG_iO_SooK_1_removeStudent_1_opaque_ptr_2, @object
	.size	_TIG_iO_SooK_1_removeStudent_1_opaque_ptr_2, 8
_TIG_iO_SooK_1_removeStudent_1_opaque_ptr_2:
	.zero	8
	.globl	_TIG_iO_SooK_1___bswap_16_1_opaque_ptr_2
	.align 8
	.type	_TIG_iO_SooK_1___bswap_16_1_opaque_ptr_2, @object
	.size	_TIG_iO_SooK_1___bswap_16_1_opaque_ptr_2, 8
_TIG_iO_SooK_1___bswap_16_1_opaque_ptr_2:
	.zero	8
	.globl	_TIG_iO_SooK_1___uint32_identity_1_opaque_ptr_2
	.align 8
	.type	_TIG_iO_SooK_1___uint32_identity_1_opaque_ptr_2, @object
	.size	_TIG_iO_SooK_1___uint32_identity_1_opaque_ptr_2, 8
_TIG_iO_SooK_1___uint32_identity_1_opaque_ptr_2:
	.zero	8
	.globl	_TIG_iO_SooK_1_displayBooks_1_opaque_list_2
	.align 8
	.type	_TIG_iO_SooK_1_displayBooks_1_opaque_list_2, @object
	.size	_TIG_iO_SooK_1_displayBooks_1_opaque_list_2, 8
_TIG_iO_SooK_1_displayBooks_1_opaque_list_2:
	.zero	8
	.globl	_TIG_iO_SooK_1_returnBook_1_opaque_ptr_1
	.align 8
	.type	_TIG_iO_SooK_1_returnBook_1_opaque_ptr_1, @object
	.size	_TIG_iO_SooK_1_returnBook_1_opaque_ptr_1, 8
_TIG_iO_SooK_1_returnBook_1_opaque_ptr_1:
	.zero	8
	.globl	_TIG_iO_SooK_1___uint32_identity_1_opaque_ptr_1
	.align 8
	.type	_TIG_iO_SooK_1___uint32_identity_1_opaque_ptr_1, @object
	.size	_TIG_iO_SooK_1___uint32_identity_1_opaque_ptr_1, 8
_TIG_iO_SooK_1___uint32_identity_1_opaque_ptr_1:
	.zero	8
	.globl	_TIG_iO_SooK_1_displayBooks_1_opaque_list_1
	.align 8
	.type	_TIG_iO_SooK_1_displayBooks_1_opaque_list_1, @object
	.size	_TIG_iO_SooK_1_displayBooks_1_opaque_list_1, 8
_TIG_iO_SooK_1_displayBooks_1_opaque_list_1:
	.zero	8
	.globl	_TIG_iO_SooK_1_addBook_1_opaque_ptr_1
	.align 8
	.type	_TIG_iO_SooK_1_addBook_1_opaque_ptr_1, @object
	.size	_TIG_iO_SooK_1_addBook_1_opaque_ptr_1, 8
_TIG_iO_SooK_1_addBook_1_opaque_ptr_1:
	.zero	8
	.globl	_TIG_iO_SooK_1_addStudent_1_opaque_ptr_2
	.align 8
	.type	_TIG_iO_SooK_1_addStudent_1_opaque_ptr_2, @object
	.size	_TIG_iO_SooK_1_addStudent_1_opaque_ptr_2, 8
_TIG_iO_SooK_1_addStudent_1_opaque_ptr_2:
	.zero	8
	.globl	_TIG_iO_SooK_1_save_1_opaque_list_2
	.align 8
	.type	_TIG_iO_SooK_1_save_1_opaque_list_2, @object
	.size	_TIG_iO_SooK_1_save_1_opaque_list_2, 8
_TIG_iO_SooK_1_save_1_opaque_list_2:
	.zero	8
	.globl	_TIG_iO_SooK_1_filterAndSortBooks_1_opaque_list_1
	.align 8
	.type	_TIG_iO_SooK_1_filterAndSortBooks_1_opaque_list_1, @object
	.size	_TIG_iO_SooK_1_filterAndSortBooks_1_opaque_list_1, 8
_TIG_iO_SooK_1_filterAndSortBooks_1_opaque_list_1:
	.zero	8
	.globl	_TIG_iO_SooK_1_filterAndSortBooks_1_opaque_ptr_1
	.align 8
	.type	_TIG_iO_SooK_1_filterAndSortBooks_1_opaque_ptr_1, @object
	.size	_TIG_iO_SooK_1_filterAndSortBooks_1_opaque_ptr_1, 8
_TIG_iO_SooK_1_filterAndSortBooks_1_opaque_ptr_1:
	.zero	8
	.globl	_TIG_iO_SooK_1_main_1_opaque_ptr_1
	.align 8
	.type	_TIG_iO_SooK_1_main_1_opaque_ptr_1, @object
	.size	_TIG_iO_SooK_1_main_1_opaque_ptr_1, 8
_TIG_iO_SooK_1_main_1_opaque_ptr_1:
	.zero	8
	.globl	_TIG_iO_SooK_1_main_1_opaque_ptr_2
	.align 8
	.type	_TIG_iO_SooK_1_main_1_opaque_ptr_2, @object
	.size	_TIG_iO_SooK_1_main_1_opaque_ptr_2, 8
_TIG_iO_SooK_1_main_1_opaque_ptr_2:
	.zero	8
	.globl	_TIG_iO_SooK_1___bswap_32_1_opaque_list_2
	.align 8
	.type	_TIG_iO_SooK_1___bswap_32_1_opaque_list_2, @object
	.size	_TIG_iO_SooK_1___bswap_32_1_opaque_list_2, 8
_TIG_iO_SooK_1___bswap_32_1_opaque_list_2:
	.zero	8
	.globl	_TIG_iO_SooK_1___uint16_identity_1_opaque_list_1
	.align 8
	.type	_TIG_iO_SooK_1___uint16_identity_1_opaque_list_1, @object
	.size	_TIG_iO_SooK_1___uint16_identity_1_opaque_list_1, 8
_TIG_iO_SooK_1___uint16_identity_1_opaque_list_1:
	.zero	8
	.globl	_TIG_iO_SooK_1_filterAndSortBooks_1_opaque_ptr_2
	.align 8
	.type	_TIG_iO_SooK_1_filterAndSortBooks_1_opaque_ptr_2, @object
	.size	_TIG_iO_SooK_1_filterAndSortBooks_1_opaque_ptr_2, 8
_TIG_iO_SooK_1_filterAndSortBooks_1_opaque_ptr_2:
	.zero	8
	.globl	_TIG_iO_SooK_1_save_1_opaque_ptr_1
	.align 8
	.type	_TIG_iO_SooK_1_save_1_opaque_ptr_1, @object
	.size	_TIG_iO_SooK_1_save_1_opaque_ptr_1, 8
_TIG_iO_SooK_1_save_1_opaque_ptr_1:
	.zero	8
	.globl	_TIG_iO_SooK_1_borrowBook_1_opaque_list_2
	.align 8
	.type	_TIG_iO_SooK_1_borrowBook_1_opaque_list_2, @object
	.size	_TIG_iO_SooK_1_borrowBook_1_opaque_list_2, 8
_TIG_iO_SooK_1_borrowBook_1_opaque_list_2:
	.zero	8
	.globl	_TIG_iO_SooK_1_addStudent_1_opaque_list_2
	.align 8
	.type	_TIG_iO_SooK_1_addStudent_1_opaque_list_2, @object
	.size	_TIG_iO_SooK_1_addStudent_1_opaque_list_2, 8
_TIG_iO_SooK_1_addStudent_1_opaque_list_2:
	.zero	8
	.globl	_TIG_iO_SooK_1___bswap_16_1_opaque_ptr_1
	.align 8
	.type	_TIG_iO_SooK_1___bswap_16_1_opaque_ptr_1, @object
	.size	_TIG_iO_SooK_1___bswap_16_1_opaque_ptr_1, 8
_TIG_iO_SooK_1___bswap_16_1_opaque_ptr_1:
	.zero	8
	.globl	_TIG_iO_SooK_1___uint64_identity_1_opaque_ptr_1
	.align 8
	.type	_TIG_iO_SooK_1___uint64_identity_1_opaque_ptr_1, @object
	.size	_TIG_iO_SooK_1___uint64_identity_1_opaque_ptr_1, 8
_TIG_iO_SooK_1___uint64_identity_1_opaque_ptr_1:
	.zero	8
	.globl	_TIG_IZ_SooK_envp
	.align 8
	.type	_TIG_IZ_SooK_envp, @object
	.size	_TIG_IZ_SooK_envp, 8
_TIG_IZ_SooK_envp:
	.zero	8
	.globl	_TIG_iO_SooK_1_searchBooks_1_opaque_list_1
	.align 8
	.type	_TIG_iO_SooK_1_searchBooks_1_opaque_list_1, @object
	.size	_TIG_iO_SooK_1_searchBooks_1_opaque_list_1, 8
_TIG_iO_SooK_1_searchBooks_1_opaque_list_1:
	.zero	8
	.globl	_TIG_iO_SooK_1_removeStudent_1_opaque_list_2
	.align 8
	.type	_TIG_iO_SooK_1_removeStudent_1_opaque_list_2, @object
	.size	_TIG_iO_SooK_1_removeStudent_1_opaque_list_2, 8
_TIG_iO_SooK_1_removeStudent_1_opaque_list_2:
	.zero	8
	.globl	_TIG_iO_SooK_1_deleteBook_1_opaque_ptr_1
	.align 8
	.type	_TIG_iO_SooK_1_deleteBook_1_opaque_ptr_1, @object
	.size	_TIG_iO_SooK_1_deleteBook_1_opaque_ptr_1, 8
_TIG_iO_SooK_1_deleteBook_1_opaque_ptr_1:
	.zero	8
	.globl	_TIG_iO_SooK_1_updateBook_1_opaque_ptr_1
	.align 8
	.type	_TIG_iO_SooK_1_updateBook_1_opaque_ptr_1, @object
	.size	_TIG_iO_SooK_1_updateBook_1_opaque_ptr_1, 8
_TIG_iO_SooK_1_updateBook_1_opaque_ptr_1:
	.zero	8
	.globl	_TIG_IZ_SooK_argv
	.align 8
	.type	_TIG_IZ_SooK_argv, @object
	.size	_TIG_IZ_SooK_argv, 8
_TIG_IZ_SooK_argv:
	.zero	8
	.globl	_TIG_iO_SooK_1___uint32_identity_1_opaque_list_2
	.align 8
	.type	_TIG_iO_SooK_1___uint32_identity_1_opaque_list_2, @object
	.size	_TIG_iO_SooK_1___uint32_identity_1_opaque_list_2, 8
_TIG_iO_SooK_1___uint32_identity_1_opaque_list_2:
	.zero	8
	.globl	_TIG_iO_SooK_1_borrowBook_1_opaque_list_1
	.align 8
	.type	_TIG_iO_SooK_1_borrowBook_1_opaque_list_1, @object
	.size	_TIG_iO_SooK_1_borrowBook_1_opaque_list_1, 8
_TIG_iO_SooK_1_borrowBook_1_opaque_list_1:
	.zero	8
	.globl	_TIG_iO_SooK_1_addBook_1_opaque_list_2
	.align 8
	.type	_TIG_iO_SooK_1_addBook_1_opaque_list_2, @object
	.size	_TIG_iO_SooK_1_addBook_1_opaque_list_2, 8
_TIG_iO_SooK_1_addBook_1_opaque_list_2:
	.zero	8
	.globl	_TIG_iO_SooK_1_save_1_opaque_ptr_2
	.align 8
	.type	_TIG_iO_SooK_1_save_1_opaque_ptr_2, @object
	.size	_TIG_iO_SooK_1_save_1_opaque_ptr_2, 8
_TIG_iO_SooK_1_save_1_opaque_ptr_2:
	.zero	8
	.globl	_TIG_iO_SooK_1_borrowBook_1_opaque_ptr_2
	.align 8
	.type	_TIG_iO_SooK_1_borrowBook_1_opaque_ptr_2, @object
	.size	_TIG_iO_SooK_1_borrowBook_1_opaque_ptr_2, 8
_TIG_iO_SooK_1_borrowBook_1_opaque_ptr_2:
	.zero	8
	.globl	_TIG_iO_SooK_1_updateBook_1_opaque_list_1
	.align 8
	.type	_TIG_iO_SooK_1_updateBook_1_opaque_list_1, @object
	.size	_TIG_iO_SooK_1_updateBook_1_opaque_list_1, 8
_TIG_iO_SooK_1_updateBook_1_opaque_list_1:
	.zero	8
	.globl	_TIG_iO_SooK_1_load_1_opaque_ptr_2
	.align 8
	.type	_TIG_iO_SooK_1_load_1_opaque_ptr_2, @object
	.size	_TIG_iO_SooK_1_load_1_opaque_ptr_2, 8
_TIG_iO_SooK_1_load_1_opaque_ptr_2:
	.zero	8
	.globl	_TIG_iO_SooK_1___bswap_64_1_opaque_ptr_2
	.align 8
	.type	_TIG_iO_SooK_1___bswap_64_1_opaque_ptr_2, @object
	.size	_TIG_iO_SooK_1___bswap_64_1_opaque_ptr_2, 8
_TIG_iO_SooK_1___bswap_64_1_opaque_ptr_2:
	.zero	8
	.globl	_TIG_iO_SooK_1___uint64_identity_1_opaque_list_1
	.align 8
	.type	_TIG_iO_SooK_1___uint64_identity_1_opaque_list_1, @object
	.size	_TIG_iO_SooK_1___uint64_identity_1_opaque_list_1, 8
_TIG_iO_SooK_1___uint64_identity_1_opaque_list_1:
	.zero	8
	.globl	_TIG_iO_SooK_1_filterAndSortBooks_1_opaque_list_2
	.align 8
	.type	_TIG_iO_SooK_1_filterAndSortBooks_1_opaque_list_2, @object
	.size	_TIG_iO_SooK_1_filterAndSortBooks_1_opaque_list_2, 8
_TIG_iO_SooK_1_filterAndSortBooks_1_opaque_list_2:
	.zero	8
	.globl	_TIG_iO_SooK_1_save_1_opaque_list_1
	.align 8
	.type	_TIG_iO_SooK_1_save_1_opaque_list_1, @object
	.size	_TIG_iO_SooK_1_save_1_opaque_list_1, 8
_TIG_iO_SooK_1_save_1_opaque_list_1:
	.zero	8
	.globl	_TIG_iO_SooK_1_searchBooks_1_opaque_list_2
	.align 8
	.type	_TIG_iO_SooK_1_searchBooks_1_opaque_list_2, @object
	.size	_TIG_iO_SooK_1_searchBooks_1_opaque_list_2, 8
_TIG_iO_SooK_1_searchBooks_1_opaque_list_2:
	.zero	8
	.globl	_TIG_iO_SooK_1___uint64_identity_1_opaque_list_2
	.align 8
	.type	_TIG_iO_SooK_1___uint64_identity_1_opaque_list_2, @object
	.size	_TIG_iO_SooK_1___uint64_identity_1_opaque_list_2, 8
_TIG_iO_SooK_1___uint64_identity_1_opaque_list_2:
	.zero	8
	.globl	_TIG_iO_SooK_1___bswap_32_1_opaque_ptr_1
	.align 8
	.type	_TIG_iO_SooK_1___bswap_32_1_opaque_ptr_1, @object
	.size	_TIG_iO_SooK_1___bswap_32_1_opaque_ptr_1, 8
_TIG_iO_SooK_1___bswap_32_1_opaque_ptr_1:
	.zero	8
	.globl	_TIG_iO_SooK_1_removeStudent_1_opaque_list_1
	.align 8
	.type	_TIG_iO_SooK_1_removeStudent_1_opaque_list_1, @object
	.size	_TIG_iO_SooK_1_removeStudent_1_opaque_list_1, 8
_TIG_iO_SooK_1_removeStudent_1_opaque_list_1:
	.zero	8
	.globl	_TIG_iO_SooK_1_reverseBookList_1_opaque_ptr_1
	.align 8
	.type	_TIG_iO_SooK_1_reverseBookList_1_opaque_ptr_1, @object
	.size	_TIG_iO_SooK_1_reverseBookList_1_opaque_ptr_1, 8
_TIG_iO_SooK_1_reverseBookList_1_opaque_ptr_1:
	.zero	8
	.globl	_TIG_iO_SooK_1_deleteBook_1_opaque_ptr_2
	.align 8
	.type	_TIG_iO_SooK_1_deleteBook_1_opaque_ptr_2, @object
	.size	_TIG_iO_SooK_1_deleteBook_1_opaque_ptr_2, 8
_TIG_iO_SooK_1_deleteBook_1_opaque_ptr_2:
	.zero	8
	.globl	_TIG_iO_SooK_1_reverseBookList_1_opaque_list_2
	.align 8
	.type	_TIG_iO_SooK_1_reverseBookList_1_opaque_list_2, @object
	.size	_TIG_iO_SooK_1_reverseBookList_1_opaque_list_2, 8
_TIG_iO_SooK_1_reverseBookList_1_opaque_list_2:
	.zero	8
	.globl	_TIG_iO_SooK_1_updateBook_1_opaque_ptr_2
	.align 8
	.type	_TIG_iO_SooK_1_updateBook_1_opaque_ptr_2, @object
	.size	_TIG_iO_SooK_1_updateBook_1_opaque_ptr_2, 8
_TIG_iO_SooK_1_updateBook_1_opaque_ptr_2:
	.zero	8
	.globl	_TIG_iO_SooK_1___bswap_64_1_opaque_ptr_1
	.align 8
	.type	_TIG_iO_SooK_1___bswap_64_1_opaque_ptr_1, @object
	.size	_TIG_iO_SooK_1___bswap_64_1_opaque_ptr_1, 8
_TIG_iO_SooK_1___bswap_64_1_opaque_ptr_1:
	.zero	8
	.globl	_TIG_iO_SooK_1_displayBooks_1_opaque_ptr_2
	.align 8
	.type	_TIG_iO_SooK_1_displayBooks_1_opaque_ptr_2, @object
	.size	_TIG_iO_SooK_1_displayBooks_1_opaque_ptr_2, 8
_TIG_iO_SooK_1_displayBooks_1_opaque_ptr_2:
	.zero	8
	.globl	_TIG_iO_SooK_1___uint32_identity_1_opaque_list_1
	.align 8
	.type	_TIG_iO_SooK_1___uint32_identity_1_opaque_list_1, @object
	.size	_TIG_iO_SooK_1___uint32_identity_1_opaque_list_1, 8
_TIG_iO_SooK_1___uint32_identity_1_opaque_list_1:
	.zero	8
	.globl	_TIG_iO_SooK_1_addBook_1_opaque_list_1
	.align 8
	.type	_TIG_iO_SooK_1_addBook_1_opaque_list_1, @object
	.size	_TIG_iO_SooK_1_addBook_1_opaque_list_1, 8
_TIG_iO_SooK_1_addBook_1_opaque_list_1:
	.zero	8
	.globl	_TIG_iO_SooK_1___bswap_32_1_opaque_list_1
	.align 8
	.type	_TIG_iO_SooK_1___bswap_32_1_opaque_list_1, @object
	.size	_TIG_iO_SooK_1___bswap_32_1_opaque_list_1, 8
_TIG_iO_SooK_1___bswap_32_1_opaque_list_1:
	.zero	8
	.globl	_TIG_iO_SooK_1_addStudent_1_opaque_ptr_1
	.align 8
	.type	_TIG_iO_SooK_1_addStudent_1_opaque_ptr_1, @object
	.size	_TIG_iO_SooK_1_addStudent_1_opaque_ptr_1, 8
_TIG_iO_SooK_1_addStudent_1_opaque_ptr_1:
	.zero	8
	.globl	_TIG_iO_SooK_1_returnBook_1_opaque_list_1
	.align 8
	.type	_TIG_iO_SooK_1_returnBook_1_opaque_list_1, @object
	.size	_TIG_iO_SooK_1_returnBook_1_opaque_list_1, 8
_TIG_iO_SooK_1_returnBook_1_opaque_list_1:
	.zero	8
	.globl	_TIG_iO_SooK_1___uint16_identity_1_opaque_ptr_1
	.align 8
	.type	_TIG_iO_SooK_1___uint16_identity_1_opaque_ptr_1, @object
	.size	_TIG_iO_SooK_1___uint16_identity_1_opaque_ptr_1, 8
_TIG_iO_SooK_1___uint16_identity_1_opaque_ptr_1:
	.zero	8
	.globl	_TIG_iO_SooK_1_deleteBook_1_opaque_list_2
	.align 8
	.type	_TIG_iO_SooK_1_deleteBook_1_opaque_list_2, @object
	.size	_TIG_iO_SooK_1_deleteBook_1_opaque_list_2, 8
_TIG_iO_SooK_1_deleteBook_1_opaque_list_2:
	.zero	8
	.globl	_TIG_iO_SooK_1_reverseBookList_1_opaque_ptr_2
	.align 8
	.type	_TIG_iO_SooK_1_reverseBookList_1_opaque_ptr_2, @object
	.size	_TIG_iO_SooK_1_reverseBookList_1_opaque_ptr_2, 8
_TIG_iO_SooK_1_reverseBookList_1_opaque_ptr_2:
	.zero	8
	.globl	_TIG_iO_SooK_1_main_1_opaque_list_2
	.align 8
	.type	_TIG_iO_SooK_1_main_1_opaque_list_2, @object
	.size	_TIG_iO_SooK_1_main_1_opaque_list_2, 8
_TIG_iO_SooK_1_main_1_opaque_list_2:
	.zero	8
	.globl	_TIG_iO_SooK_1___bswap_16_1_opaque_list_2
	.align 8
	.type	_TIG_iO_SooK_1___bswap_16_1_opaque_list_2, @object
	.size	_TIG_iO_SooK_1___bswap_16_1_opaque_list_2, 8
_TIG_iO_SooK_1___bswap_16_1_opaque_list_2:
	.zero	8
	.globl	_TIG_iO_SooK_1_load_1_opaque_list_2
	.align 8
	.type	_TIG_iO_SooK_1_load_1_opaque_list_2, @object
	.size	_TIG_iO_SooK_1_load_1_opaque_list_2, 8
_TIG_iO_SooK_1_load_1_opaque_list_2:
	.zero	8
	.globl	_TIG_iO_SooK_1_addBook_1_opaque_ptr_2
	.align 8
	.type	_TIG_iO_SooK_1_addBook_1_opaque_ptr_2, @object
	.size	_TIG_iO_SooK_1_addBook_1_opaque_ptr_2, 8
_TIG_iO_SooK_1_addBook_1_opaque_ptr_2:
	.zero	8
	.globl	_TIG_iO_SooK_1_searchBooks_1_opaque_ptr_1
	.align 8
	.type	_TIG_iO_SooK_1_searchBooks_1_opaque_ptr_1, @object
	.size	_TIG_iO_SooK_1_searchBooks_1_opaque_ptr_1, 8
_TIG_iO_SooK_1_searchBooks_1_opaque_ptr_1:
	.zero	8
	.globl	_TIG_iO_SooK_1_load_1_opaque_ptr_1
	.align 8
	.type	_TIG_iO_SooK_1_load_1_opaque_ptr_1, @object
	.size	_TIG_iO_SooK_1_load_1_opaque_ptr_1, 8
_TIG_iO_SooK_1_load_1_opaque_ptr_1:
	.zero	8
	.globl	_TIG_iO_SooK_1_returnBook_1_opaque_list_2
	.align 8
	.type	_TIG_iO_SooK_1_returnBook_1_opaque_list_2, @object
	.size	_TIG_iO_SooK_1_returnBook_1_opaque_list_2, 8
_TIG_iO_SooK_1_returnBook_1_opaque_list_2:
	.zero	8
	.globl	_TIG_iO_SooK_1_removeStudent_1_opaque_ptr_1
	.align 8
	.type	_TIG_iO_SooK_1_removeStudent_1_opaque_ptr_1, @object
	.size	_TIG_iO_SooK_1_removeStudent_1_opaque_ptr_1, 8
_TIG_iO_SooK_1_removeStudent_1_opaque_ptr_1:
	.zero	8
	.globl	_TIG_iO_SooK_1_main_1_opaque_list_1
	.align 8
	.type	_TIG_iO_SooK_1_main_1_opaque_list_1, @object
	.size	_TIG_iO_SooK_1_main_1_opaque_list_1, 8
_TIG_iO_SooK_1_main_1_opaque_list_1:
	.zero	8
	.globl	_TIG_iO_SooK_1_deleteBook_1_opaque_list_1
	.align 8
	.type	_TIG_iO_SooK_1_deleteBook_1_opaque_list_1, @object
	.size	_TIG_iO_SooK_1_deleteBook_1_opaque_list_1, 8
_TIG_iO_SooK_1_deleteBook_1_opaque_list_1:
	.zero	8
	.section	.rodata
.LC0:
	.string	"w"
.LC1:
	.string	"%s,%s,%s,%d,%d\n"
.LC2:
	.string	"%d,%s"
.LC3:
	.string	"%s\n"
	.text
	.globl	save
	.type	save, @function
save:
.LFB0:
	.cfi_startproc
	endbr64
	pushq	%rbp
	.cfi_def_cfa_offset 16
	.cfi_offset 6, -16
	movq	%rsp, %rbp
	.cfi_def_cfa_register 6
	subq	$96, %rsp
	movq	%rdi, -72(%rbp)
	movq	%rsi, -80(%rbp)
	movq	%rdx, -88(%rbp)
	movq	%rcx, -96(%rbp)
#APP
# 79 "/usr/include/stdlib.h" 1
	##_ANNOTATION_INITIALREGION_-TIG-iO-SooK-1-save--36
# 0 "" 2
# 83 "/usr/include/stdlib.h" 1
	##_ANNOTATION_ATOMICREGION_-TIG-iO-SooK-1-save--35
# 0 "" 2
#NO_APP
	movl	$24, %edi
	call	malloc@PLT
	movq	%rax, -32(%rbp)
	movq	-32(%rbp), %rax
	movq	-32(%rbp), %rdx
	movq	%rdx, 8(%rax)
	movq	-32(%rbp), %rax
	movq	-32(%rbp), %rdx
	movq	%rdx, 16(%rax)
	movq	-32(%rbp), %rax
	movq	%rax, _TIG_iO_SooK_1_save_1_opaque_list_1(%rip)
	call	rand@PLT
	movl	%eax, -56(%rbp)
	movl	$24, %edi
	call	malloc@PLT
	movq	%rax, -24(%rbp)
	movq	-24(%rbp), %rax
	movl	$0, (%rax)
	movq	_TIG_iO_SooK_1_save_1_opaque_list_1(%rip), %rax
	movq	8(%rax), %rdx
	movq	-24(%rbp), %rax
	movq	%rdx, 8(%rax)
	movq	_TIG_iO_SooK_1_save_1_opaque_list_1(%rip), %rdx
	movq	-24(%rbp), %rax
	movq	%rdx, 16(%rax)
	movq	_TIG_iO_SooK_1_save_1_opaque_list_1(%rip), %rax
	movq	8(%rax), %rax
	movq	-24(%rbp), %rdx
	movq	%rdx, 16(%rax)
	movq	_TIG_iO_SooK_1_save_1_opaque_list_1(%rip), %rax
	movq	-24(%rbp), %rdx
	movq	%rdx, 8(%rax)
	call	rand@PLT
	movl	%eax, -52(%rbp)
	movl	$24, %edi
	call	malloc@PLT
	movq	%rax, -16(%rbp)
	movq	-16(%rbp), %rax
	movl	-52(%rbp), %edx
	movl	%edx, (%rax)
	movq	_TIG_iO_SooK_1_save_1_opaque_list_1(%rip), %rax
	movq	8(%rax), %rdx
	movq	-16(%rbp), %rax
	movq	%rdx, 8(%rax)
	movq	_TIG_iO_SooK_1_save_1_opaque_list_1(%rip), %rdx
	movq	-16(%rbp), %rax
	movq	%rdx, 16(%rax)
	movq	_TIG_iO_SooK_1_save_1_opaque_list_1(%rip), %rax
	movq	8(%rax), %rax
	movq	-16(%rbp), %rdx
	movq	%rdx, 16(%rax)
	movq	_TIG_iO_SooK_1_save_1_opaque_list_1(%rip), %rax
	movq	-16(%rbp), %rdx
	movq	%rdx, 8(%rax)
	movq	_TIG_iO_SooK_1_save_1_opaque_list_1(%rip), %rax
	movq	8(%rax), %rax
	movq	%rax, _TIG_iO_SooK_1_save_1_opaque_ptr_1(%rip)
	movq	_TIG_iO_SooK_1_save_1_opaque_ptr_1(%rip), %rax
	movq	%rax, _TIG_iO_SooK_1_save_1_opaque_ptr_2(%rip)
	nop
	nop
	movq	-72(%rbp), %rax
	leaq	.LC0(%rip), %rdx
	movq	%rdx, %rsi
	movq	%rax, %rdi
	call	fopen@PLT
	movq	%rax, -8(%rbp)
	cmpq	$0, -8(%rbp)
	je	.L2
	movq	-88(%rbp), %rax
	movq	%rax, -48(%rbp)
.L7:
	cmpq	$0, -48(%rbp)
	jne	.L3
	movq	_TIG_iO_SooK_1_updateBook_1_opaque_ptr_1(%rip), %rdx
	movq	_TIG_iO_SooK_1_updateBook_1_opaque_ptr_2(%rip), %rax
	cmpq	%rax, %rdx
	jne	.L14
	jmp	.L13
.L3:
	movq	-48(%rbp), %rax
	movl	116(%rax), %esi
	movq	-48(%rbp), %rax
	movl	112(%rax), %edi
	movq	-48(%rbp), %rax
	leaq	78(%rax), %r8
	movq	-48(%rbp), %rax
	leaq	14(%rax), %rcx
	movq	-48(%rbp), %rdx
	movq	-8(%rbp), %rax
	subq	$8, %rsp
	pushq	%rsi
	movl	%edi, %r9d
	leaq	.LC1(%rip), %rsi
	movq	%rax, %rdi
	movl	$0, %eax
	call	fprintf@PLT
	addq	$16, %rsp
	movq	-48(%rbp), %rax
	movq	120(%rax), %rax
	movq	%rax, -48(%rbp)
	jmp	.L7
.L13:
	movq	-8(%rbp), %rax
	movq	%rax, %rdi
	call	fclose@PLT
.L2:
	movq	-80(%rbp), %rax
	leaq	.LC0(%rip), %rdx
	movq	%rdx, %rsi
	movq	%rax, %rdi
	call	fopen@PLT
	movq	%rax, -8(%rbp)
	cmpq	$0, -8(%rbp)
	je	.L15
	movq	-96(%rbp), %rax
	movq	%rax, -40(%rbp)
	jmp	.L9
.L12:
	movq	-40(%rbp), %rcx
	movq	-40(%rbp), %rax
	movl	32(%rax), %edx
	movq	-8(%rbp), %rax
	leaq	.LC2(%rip), %rsi
	movq	%rax, %rdi
	movl	$0, %eax
	call	fprintf@PLT
	movq	-40(%rbp), %rax
	movq	40(%rax), %rax
	movzbl	(%rax), %eax
	testb	%al, %al
	je	.L10
	movq	-40(%rbp), %rax
	movq	40(%rax), %rdx
	movq	-8(%rbp), %rax
	leaq	.LC3(%rip), %rcx
	movq	%rcx, %rsi
	movq	%rax, %rdi
	movl	$0, %eax
	call	fprintf@PLT
	jmp	.L11
.L10:
	movq	-8(%rbp), %rax
	movq	%rax, %rsi
	movl	$10, %edi
	call	fputc@PLT
.L11:
	movq	-40(%rbp), %rax
	movq	48(%rax), %rax
	movq	%rax, -40(%rbp)
.L9:
	cmpq	$0, -40(%rbp)
	jne	.L12
	movq	-8(%rbp), %rax
	movq	%rax, %rdi
	call	fclose@PLT
	jmp	.L15
.L14:
	nop
	jmp	.L1
.L15:
	nop
.L1:
	leave
	.cfi_def_cfa 7, 8
	ret
	.cfi_endproc
.LFE0:
	.size	save, .-save
	.section	.rodata
.LC4:
	.string	"\nNo books borrowed by %s.\n"
.LC5:
	.string	"%[^,]"
	.align 8
.LC6:
	.string	"\nISBN: %s | Title: %s | Author: %s | Publication Year: %d\n"
	.text
	.globl	displayBooks
	.type	displayBooks, @function
displayBooks:
.LFB1:
	.cfi_startproc
	endbr64
	pushq	%rbp
	.cfi_def_cfa_offset 16
	.cfi_offset 6, -16
	movq	%rsp, %rbp
	.cfi_def_cfa_register 6
	addq	$-128, %rsp
	movq	%rdi, -104(%rbp)
	movq	%rsi, -112(%rbp)
	movl	%edx, -116(%rbp)
	movq	%fs:40, %rax
	movq	%rax, -8(%rbp)
	xorl	%eax, %eax
#APP
# 379 "mehme2_cse_assignments_main.c" 1
	##_ANNOTATION_INITIALREGION_-TIG-iO-SooK-1-displayBooks--22
# 0 "" 2
# 383 "mehme2_cse_assignments_main.c" 1
	##_ANNOTATION_ATOMICREGION_-TIG-iO-SooK-1-displayBooks--21
# 0 "" 2
#NO_APP
	movl	$24, %edi
	call	malloc@PLT
	movq	%rax, -56(%rbp)
	movq	-56(%rbp), %rax
	movq	-56(%rbp), %rdx
	movq	%rdx, (%rax)
	movq	-56(%rbp), %rax
	movq	-56(%rbp), %rdx
	movq	%rdx, 16(%rax)
	movq	-56(%rbp), %rax
	movq	%rax, _TIG_iO_SooK_1_displayBooks_1_opaque_list_1(%rip)
	call	rand@PLT
	movl	%eax, -88(%rbp)
	movl	$24, %edi
	call	malloc@PLT
	movq	%rax, -48(%rbp)
	movq	-48(%rbp), %rax
	movl	$0, 8(%rax)
	movq	_TIG_iO_SooK_1_displayBooks_1_opaque_list_1(%rip), %rax
	movq	(%rax), %rdx
	movq	-48(%rbp), %rax
	movq	%rdx, (%rax)
	movq	_TIG_iO_SooK_1_displayBooks_1_opaque_list_1(%rip), %rdx
	movq	-48(%rbp), %rax
	movq	%rdx, 16(%rax)
	movq	_TIG_iO_SooK_1_displayBooks_1_opaque_list_1(%rip), %rax
	movq	(%rax), %rax
	movq	-48(%rbp), %rdx
	movq	%rdx, 16(%rax)
	movq	_TIG_iO_SooK_1_displayBooks_1_opaque_list_1(%rip), %rax
	movq	-48(%rbp), %rdx
	movq	%rdx, (%rax)
	call	rand@PLT
	movl	%eax, -84(%rbp)
	movl	$24, %edi
	call	malloc@PLT
	movq	%rax, -40(%rbp)
	movq	-40(%rbp), %rax
	movl	-84(%rbp), %edx
	movl	%edx, 8(%rax)
	movq	_TIG_iO_SooK_1_displayBooks_1_opaque_list_1(%rip), %rax
	movq	(%rax), %rdx
	movq	-40(%rbp), %rax
	movq	%rdx, (%rax)
	movq	_TIG_iO_SooK_1_displayBooks_1_opaque_list_1(%rip), %rdx
	movq	-40(%rbp), %rax
	movq	%rdx, 16(%rax)
	movq	_TIG_iO_SooK_1_displayBooks_1_opaque_list_1(%rip), %rax
	movq	(%rax), %rax
	movq	-40(%rbp), %rdx
	movq	%rdx, 16(%rax)
	movq	_TIG_iO_SooK_1_displayBooks_1_opaque_list_1(%rip), %rax
	movq	-40(%rbp), %rdx
	movq	%rdx, (%rax)
	call	rand@PLT
	movl	%eax, -80(%rbp)
	movl	$24, %edi
	call	malloc@PLT
	movq	%rax, -32(%rbp)
	movl	-80(%rbp), %eax
	leal	(%rax,%rax), %edx
	movq	-32(%rbp), %rax
	movl	%edx, 8(%rax)
	movq	_TIG_iO_SooK_1_displayBooks_1_opaque_list_1(%rip), %rax
	movq	(%rax), %rdx
	movq	-32(%rbp), %rax
	movq	%rdx, (%rax)
	movq	_TIG_iO_SooK_1_displayBooks_1_opaque_list_1(%rip), %rdx
	movq	-32(%rbp), %rax
	movq	%rdx, 16(%rax)
	movq	_TIG_iO_SooK_1_displayBooks_1_opaque_list_1(%rip), %rax
	movq	(%rax), %rax
	movq	-32(%rbp), %rdx
	movq	%rdx, 16(%rax)
	movq	_TIG_iO_SooK_1_displayBooks_1_opaque_list_1(%rip), %rax
	movq	-32(%rbp), %rdx
	movq	%rdx, (%rax)
	movq	_TIG_iO_SooK_1_displayBooks_1_opaque_list_1(%rip), %rax
	movq	(%rax), %rax
	movq	%rax, _TIG_iO_SooK_1_displayBooks_1_opaque_ptr_1(%rip)
	movq	_TIG_iO_SooK_1_displayBooks_1_opaque_ptr_1(%rip), %rax
	movq	%rax, _TIG_iO_SooK_1_displayBooks_1_opaque_ptr_2(%rip)
	movq	_TIG_iO_SooK_1_displayBooks_1_opaque_ptr_2(%rip), %rax
	movq	(%rax), %rax
	movq	%rax, _TIG_iO_SooK_1_displayBooks_1_opaque_ptr_2(%rip)
	nop
	nop
	movq	-104(%rbp), %rax
	movq	%rax, -72(%rbp)
.L20:
	cmpq	$0, -72(%rbp)
	je	.L35
	movq	-72(%rbp), %rax
	movl	32(%rax), %eax
	cmpl	%eax, -116(%rbp)
	je	.L36
	movq	-72(%rbp), %rax
	movq	48(%rax), %rax
	movq	%rax, -72(%rbp)
	jmp	.L20
.L35:
	nop
	jmp	.L19
.L36:
	nop
.L19:
	cmpq	$0, -72(%rbp)
	je	.L37
	movq	-72(%rbp), %rax
	movq	40(%rax), %rax
	movzbl	(%rax), %eax
	testb	%al, %al
	jne	.L22
	movq	-72(%rbp), %rax
	movq	%rax, %rsi
	leaq	.LC4(%rip), %rax
	movq	%rax, %rdi
	movl	$0, %eax
	call	printf@PLT
	jmp	.L37
.L22:
	movl	$0, -92(%rbp)
	jmp	.L23
.L32:
	addl	$1, -92(%rbp)
	movq	-72(%rbp), %rax
	movq	40(%rax), %rdx
	movl	-92(%rbp), %eax
	cltq
	leaq	(%rdx,%rax), %rcx
	leaq	-22(%rbp), %rax
	movq	%rax, %rdx
	leaq	.LC5(%rip), %rax
	movq	%rax, %rsi
	movq	%rcx, %rdi
	movl	$0, %eax
	call	__isoc99_sscanf@PLT
	movq	-112(%rbp), %rax
	movq	%rax, -64(%rbp)
.L27:
	cmpq	$0, -64(%rbp)
	je	.L38
	movq	-64(%rbp), %rax
	leaq	-22(%rbp), %rdx
	movq	%rdx, %rsi
	movq	%rax, %rdi
	call	strcmp@PLT
	movl	%eax, -76(%rbp)
	cmpl	$0, -76(%rbp)
	jne	.L25
	movq	_TIG_iO_SooK_1_updateBook_1_opaque_ptr_1(%rip), %rdx
	movq	_TIG_iO_SooK_1_updateBook_1_opaque_ptr_2(%rip), %rax
	cmpq	%rax, %rdx
	je	.L39
.L25:
	movq	-64(%rbp), %rax
	movq	120(%rax), %rax
	movq	%rax, -64(%rbp)
	jmp	.L27
.L38:
	nop
	jmp	.L26
.L39:
	nop
.L26:
	cmpq	$0, -64(%rbp)
	je	.L31
	movq	-64(%rbp), %rax
	movl	112(%rax), %esi
	movq	-64(%rbp), %rax
	leaq	78(%rax), %rcx
	movq	-64(%rbp), %rax
	leaq	14(%rax), %rdx
	movq	-64(%rbp), %rax
	movl	%esi, %r8d
	movq	%rax, %rsi
	leaq	.LC6(%rip), %rax
	movq	%rax, %rdi
	movl	$0, %eax
	call	printf@PLT
.L31:
	movq	-72(%rbp), %rax
	movq	40(%rax), %rdx
	movl	-92(%rbp), %eax
	cltq
	addq	%rdx, %rax
	movzbl	(%rax), %eax
	cmpb	$44, %al
	je	.L23
	movq	-72(%rbp), %rax
	movq	40(%rax), %rdx
	movl	-92(%rbp), %eax
	cltq
	addq	%rdx, %rax
	movzbl	(%rax), %eax
	testb	%al, %al
	jne	.L30
	jmp	.L23
.L30:
	addl	$1, -92(%rbp)
	jmp	.L31
.L23:
	movq	-72(%rbp), %rax
	movq	40(%rax), %rdx
	movl	-92(%rbp), %eax
	cltq
	addq	%rdx, %rax
	movzbl	(%rax), %eax
	testb	%al, %al
	jne	.L32
	nop
.L37:
	nop
	movq	-8(%rbp), %rax
	subq	%fs:40, %rax
	je	.L34
	call	__stack_chk_fail@PLT
.L34:
	leave
	.cfi_def_cfa 7, 8
	ret
	.cfi_endproc
.LFE1:
	.size	displayBooks, .-displayBooks
	.globl	reverseBookList
	.type	reverseBookList, @function
reverseBookList:
.LFB3:
	.cfi_startproc
	endbr64
	pushq	%rbp
	.cfi_def_cfa_offset 16
	.cfi_offset 6, -16
	movq	%rsp, %rbp
	.cfi_def_cfa_register 6
	subq	$64, %rsp
	movq	%rdi, -56(%rbp)
#APP
# 57 "/usr/include/x86_64-linux-gnu/bits/byteswap.h" 1
	##_ANNOTATION_INITIALREGION_-TIG-iO-SooK-1-reverseBookList--34
# 0 "" 2
# 61 "/usr/include/x86_64-linux-gnu/bits/byteswap.h" 1
	##_ANNOTATION_ATOMICREGION_-TIG-iO-SooK-1-reverseBookList--33
# 0 "" 2
#NO_APP
	movl	$24, %edi
	call	malloc@PLT
	movq	%rax, -24(%rbp)
	movq	-24(%rbp), %rax
	movq	-24(%rbp), %rdx
	movq	%rdx, (%rax)
	movq	-24(%rbp), %rax
	movq	-24(%rbp), %rdx
	movq	%rdx, 8(%rax)
	movq	-24(%rbp), %rax
	movq	%rax, _TIG_iO_SooK_1_reverseBookList_1_opaque_list_1(%rip)
	call	rand@PLT
	movl	%eax, -48(%rbp)
	movl	$24, %edi
	call	malloc@PLT
	movq	%rax, -16(%rbp)
	movq	-16(%rbp), %rax
	movl	$0, 16(%rax)
	movq	_TIG_iO_SooK_1_reverseBookList_1_opaque_list_1(%rip), %rax
	movq	(%rax), %rdx
	movq	-16(%rbp), %rax
	movq	%rdx, (%rax)
	movq	_TIG_iO_SooK_1_reverseBookList_1_opaque_list_1(%rip), %rdx
	movq	-16(%rbp), %rax
	movq	%rdx, 8(%rax)
	movq	_TIG_iO_SooK_1_reverseBookList_1_opaque_list_1(%rip), %rax
	movq	(%rax), %rax
	movq	-16(%rbp), %rdx
	movq	%rdx, 8(%rax)
	movq	_TIG_iO_SooK_1_reverseBookList_1_opaque_list_1(%rip), %rax
	movq	-16(%rbp), %rdx
	movq	%rdx, (%rax)
	call	rand@PLT
	movl	%eax, -44(%rbp)
	movl	$24, %edi
	call	malloc@PLT
	movq	%rax, -8(%rbp)
	movq	-8(%rbp), %rax
	movl	-44(%rbp), %edx
	movl	%edx, 16(%rax)
	movq	_TIG_iO_SooK_1_reverseBookList_1_opaque_list_1(%rip), %rax
	movq	(%rax), %rdx
	movq	-8(%rbp), %rax
	movq	%rdx, (%rax)
	movq	_TIG_iO_SooK_1_reverseBookList_1_opaque_list_1(%rip), %rdx
	movq	-8(%rbp), %rax
	movq	%rdx, 8(%rax)
	movq	_TIG_iO_SooK_1_reverseBookList_1_opaque_list_1(%rip), %rax
	movq	(%rax), %rax
	movq	-8(%rbp), %rdx
	movq	%rdx, 8(%rax)
	movq	_TIG_iO_SooK_1_reverseBookList_1_opaque_list_1(%rip), %rax
	movq	-8(%rbp), %rdx
	movq	%rdx, (%rax)
	movq	_TIG_iO_SooK_1_reverseBookList_1_opaque_list_1(%rip), %rax
	movq	(%rax), %rax
	movq	%rax, _TIG_iO_SooK_1_reverseBookList_1_opaque_ptr_1(%rip)
	movq	_TIG_iO_SooK_1_reverseBookList_1_opaque_ptr_1(%rip), %rax
	movq	%rax, _TIG_iO_SooK_1_reverseBookList_1_opaque_ptr_2(%rip)
	nop
	nop
	movq	_TIG_iO_SooK_1_updateBook_1_opaque_ptr_1(%rip), %rdx
	movq	_TIG_iO_SooK_1_updateBook_1_opaque_ptr_2(%rip), %rax
	cmpq	%rax, %rdx
	je	.L41
	movq	-32(%rbp), %rax
	movl	$0, %ecx
	movq	%rax, %rdx
	movl	$0, %esi
	movl	$0, %edi
	call	save
.L41:
	movq	$0, -32(%rbp)
	movq	-56(%rbp), %rax
	movq	%rax, -40(%rbp)
	jmp	.L42
.L43:
	movq	-40(%rbp), %rax
	movq	120(%rax), %rax
	movq	%rax, -56(%rbp)
	movq	-40(%rbp), %rax
	movq	-32(%rbp), %rdx
	movq	%rdx, 120(%rax)
	movq	-40(%rbp), %rax
	movq	%rax, -32(%rbp)
	movq	-56(%rbp), %rax
	movq	%rax, -40(%rbp)
.L42:
	cmpq	$0, -40(%rbp)
	jne	.L43
	movq	-32(%rbp), %rax
	leave
	.cfi_def_cfa 7, 8
	ret
	.cfi_endproc
.LFE3:
	.size	reverseBookList, .-reverseBookList
	.section	.rodata
.LC7:
	.string	"%d"
	.text
	.globl	filterAndSortBooks
	.type	filterAndSortBooks, @function
filterAndSortBooks:
.LFB5:
	.cfi_startproc
	endbr64
	pushq	%rbp
	.cfi_def_cfa_offset 16
	.cfi_offset 6, -16
	movq	%rsp, %rbp
	.cfi_def_cfa_register 6
	pushq	%rbx
	subq	$312, %rsp
	.cfi_offset 3, -24
	movq	%rdi, -296(%rbp)
	movl	%esi, -300(%rbp)
	movq	%rdx, -312(%rbp)
	movl	%ecx, -304(%rbp)
	movq	%fs:40, %rax
	movq	%rax, -24(%rbp)
	xorl	%eax, %eax
#APP
# 84 "/usr/include/x86_64-linux-gnu/bits/uintn-identity.h" 1
	##_ANNOTATION_INITIALREGION_-TIG-iO-SooK-1-filterAndSortBooks--24
# 0 "" 2
# 88 "/usr/include/x86_64-linux-gnu/bits/uintn-identity.h" 1
	##_ANNOTATION_ATOMICREGION_-TIG-iO-SooK-1-filterAndSortBooks--23
# 0 "" 2
#NO_APP
	movl	$24, %edi
	call	malloc@PLT
	movq	%rax, -200(%rbp)
	movq	-200(%rbp), %rax
	movq	-200(%rbp), %rdx
	movq	%rdx, (%rax)
	movq	-200(%rbp), %rax
	movq	-200(%rbp), %rdx
	movq	%rdx, 8(%rax)
	movq	-200(%rbp), %rax
	movq	%rax, _TIG_iO_SooK_1_filterAndSortBooks_1_opaque_list_1(%rip)
	call	rand@PLT
	movl	%eax, -248(%rbp)
	movl	$24, %edi
	call	malloc@PLT
	movq	%rax, -192(%rbp)
	movq	-192(%rbp), %rax
	movl	$0, 16(%rax)
	movq	_TIG_iO_SooK_1_filterAndSortBooks_1_opaque_list_1(%rip), %rax
	movq	(%rax), %rdx
	movq	-192(%rbp), %rax
	movq	%rdx, (%rax)
	movq	_TIG_iO_SooK_1_filterAndSortBooks_1_opaque_list_1(%rip), %rdx
	movq	-192(%rbp), %rax
	movq	%rdx, 8(%rax)
	movq	_TIG_iO_SooK_1_filterAndSortBooks_1_opaque_list_1(%rip), %rax
	movq	(%rax), %rax
	movq	-192(%rbp), %rdx
	movq	%rdx, 8(%rax)
	movq	_TIG_iO_SooK_1_filterAndSortBooks_1_opaque_list_1(%rip), %rax
	movq	-192(%rbp), %rdx
	movq	%rdx, (%rax)
	call	rand@PLT
	movl	%eax, -244(%rbp)
	movl	$24, %edi
	call	malloc@PLT
	movq	%rax, -184(%rbp)
	movq	-184(%rbp), %rax
	movl	-244(%rbp), %edx
	movl	%edx, 16(%rax)
	movq	_TIG_iO_SooK_1_filterAndSortBooks_1_opaque_list_1(%rip), %rax
	movq	(%rax), %rdx
	movq	-184(%rbp), %rax
	movq	%rdx, (%rax)
	movq	_TIG_iO_SooK_1_filterAndSortBooks_1_opaque_list_1(%rip), %rdx
	movq	-184(%rbp), %rax
	movq	%rdx, 8(%rax)
	movq	_TIG_iO_SooK_1_filterAndSortBooks_1_opaque_list_1(%rip), %rax
	movq	(%rax), %rax
	movq	-184(%rbp), %rdx
	movq	%rdx, 8(%rax)
	movq	_TIG_iO_SooK_1_filterAndSortBooks_1_opaque_list_1(%rip), %rax
	movq	-184(%rbp), %rdx
	movq	%rdx, (%rax)
	call	rand@PLT
	movl	%eax, -240(%rbp)
	movl	$24, %edi
	call	malloc@PLT
	movq	%rax, -176(%rbp)
	movl	-240(%rbp), %eax
	leal	(%rax,%rax), %edx
	movq	-176(%rbp), %rax
	movl	%edx, 16(%rax)
	movq	_TIG_iO_SooK_1_filterAndSortBooks_1_opaque_list_1(%rip), %rax
	movq	(%rax), %rdx
	movq	-176(%rbp), %rax
	movq	%rdx, (%rax)
	movq	_TIG_iO_SooK_1_filterAndSortBooks_1_opaque_list_1(%rip), %rdx
	movq	-176(%rbp), %rax
	movq	%rdx, 8(%rax)
	movq	_TIG_iO_SooK_1_filterAndSortBooks_1_opaque_list_1(%rip), %rax
	movq	(%rax), %rax
	movq	-176(%rbp), %rdx
	movq	%rdx, 8(%rax)
	movq	_TIG_iO_SooK_1_filterAndSortBooks_1_opaque_list_1(%rip), %rax
	movq	-176(%rbp), %rdx
	movq	%rdx, (%rax)
	movq	_TIG_iO_SooK_1_filterAndSortBooks_1_opaque_list_1(%rip), %rax
	movq	(%rax), %rax
	movq	%rax, _TIG_iO_SooK_1_filterAndSortBooks_1_opaque_ptr_1(%rip)
	movq	_TIG_iO_SooK_1_filterAndSortBooks_1_opaque_ptr_1(%rip), %rax
	movq	%rax, _TIG_iO_SooK_1_filterAndSortBooks_1_opaque_ptr_2(%rip)
	movq	_TIG_iO_SooK_1_filterAndSortBooks_1_opaque_ptr_2(%rip), %rax
	movq	(%rax), %rax
	movq	%rax, _TIG_iO_SooK_1_filterAndSortBooks_1_opaque_ptr_2(%rip)
	nop
	nop
	cmpl	$1, -300(%rbp)
	jne	.L46
	leaq	-276(%rbp), %rdx
	movq	-312(%rbp), %rax
	leaq	.LC7(%rip), %rcx
	movq	%rcx, %rsi
	movq	%rax, %rdi
	movl	$0, %eax
	call	__isoc99_sscanf@PLT
.L46:
	movq	_TIG_iO_SooK_1_updateBook_1_opaque_ptr_1(%rip), %rdx
	movq	_TIG_iO_SooK_1_updateBook_1_opaque_ptr_2(%rip), %rax
	cmpq	%rax, %rdx
	jne	.L48
	leaq	-296(%rbp), %rax
	movq	%rax, -224(%rbp)
	jmp	.L48
.L71:
	movq	-224(%rbp), %rax
	movq	(%rax), %rax
	movq	%rax, -216(%rbp)
	cmpl	$0, -300(%rbp)
	jne	.L49
	movq	-216(%rbp), %rax
	leaq	78(%rax), %rdx
	movq	-312(%rbp), %rax
	movq	%rax, %rsi
	movq	%rdx, %rdi
	call	strcmp@PLT
	movl	%eax, -236(%rbp)
	cmpl	$0, -236(%rbp)
	je	.L50
	movl	$0, -260(%rbp)
	jmp	.L51
.L50:
	movl	$1, -260(%rbp)
.L51:
	movl	-260(%rbp), %eax
	movl	%eax, -272(%rbp)
	jmp	.L52
.L49:
	movq	-216(%rbp), %rax
	movl	112(%rax), %edx
	movl	-276(%rbp), %eax
	cmpl	%eax, %edx
	sete	%al
	movzbl	%al, %eax
	movl	%eax, -272(%rbp)
.L52:
	movq	-216(%rbp), %rax
	movq	120(%rax), %rax
	movq	%rax, -208(%rbp)
	jmp	.L53
.L69:
	cmpl	$0, -300(%rbp)
	jne	.L54
	movq	-208(%rbp), %rax
	leaq	78(%rax), %rdx
	movq	-312(%rbp), %rax
	movq	%rax, %rsi
	movq	%rdx, %rdi
	call	strcmp@PLT
	movl	%eax, -232(%rbp)
	cmpl	$0, -232(%rbp)
	je	.L55
	movl	$0, -256(%rbp)
	jmp	.L56
.L55:
	movl	$1, -256(%rbp)
.L56:
	movl	-256(%rbp), %eax
	movl	%eax, -268(%rbp)
	jmp	.L57
.L54:
	movq	-208(%rbp), %rax
	movl	112(%rax), %edx
	movl	-276(%rbp), %eax
	cmpl	%eax, %edx
	sete	%al
	movzbl	%al, %eax
	movl	%eax, -268(%rbp)
.L57:
	cmpl	$0, -268(%rbp)
	je	.L58
	cmpl	$0, -272(%rbp)
	jne	.L59
	movl	$-1, -264(%rbp)
	jmp	.L64
.L59:
	cmpl	$2, -304(%rbp)
	je	.L61
	cmpl	$2, -304(%rbp)
	jg	.L64
	cmpl	$0, -304(%rbp)
	je	.L62
	cmpl	$1, -304(%rbp)
	je	.L63
	jmp	.L64
.L62:
	movq	-216(%rbp), %rax
	leaq	14(%rax), %rdx
	movq	-208(%rbp), %rax
	addq	$14, %rax
	movq	%rdx, %rsi
	movq	%rax, %rdi
	call	strcmp@PLT
	movl	%eax, -264(%rbp)
	jmp	.L64
.L63:
	movq	-216(%rbp), %rax
	leaq	78(%rax), %rdx
	movq	-208(%rbp), %rax
	addq	$78, %rax
	movq	%rdx, %rsi
	movq	%rax, %rdi
	call	strcmp@PLT
	movl	%eax, -264(%rbp)
	jmp	.L64
.L61:
	movq	-208(%rbp), %rax
	movl	112(%rax), %edx
	movq	-216(%rbp), %rax
	movl	112(%rax), %ecx
	movl	%edx, %eax
	subl	%ecx, %eax
	movl	%eax, -264(%rbp)
	jmp	.L64
.L58:
	movl	$0, -264(%rbp)
.L64:
	cmpl	$0, -264(%rbp)
	jns	.L65
	movq	-208(%rbp), %rax
	movq	%rax, -216(%rbp)
	cmpl	$0, -300(%rbp)
	jne	.L66
	movq	-216(%rbp), %rax
	leaq	78(%rax), %rdx
	movq	-312(%rbp), %rax
	movq	%rax, %rsi
	movq	%rdx, %rdi
	call	strcmp@PLT
	movl	%eax, -228(%rbp)
	cmpl	$0, -228(%rbp)
	je	.L67
	movl	$0, -252(%rbp)
	jmp	.L68
.L67:
	movl	$1, -252(%rbp)
.L68:
	movl	-252(%rbp), %eax
	movl	%eax, -272(%rbp)
	jmp	.L65
.L66:
	movq	-216(%rbp), %rax
	movl	112(%rax), %edx
	movl	-276(%rbp), %eax
	cmpl	%eax, %edx
	sete	%al
	movzbl	%al, %eax
	movl	%eax, -272(%rbp)
.L65:
	movq	-208(%rbp), %rax
	movq	120(%rax), %rax
	movq	%rax, -208(%rbp)
.L53:
	cmpq	$0, -208(%rbp)
	jne	.L69
	movq	-224(%rbp), %rax
	movq	(%rax), %rax
	movq	%rax, %rdx
	movq	-216(%rbp), %rax
	cmpq	%rax, %rdx
	je	.L70
	movq	-224(%rbp), %rax
	movq	(%rax), %rax
	movq	(%rax), %rcx
	movq	8(%rax), %rbx
	movq	%rcx, -160(%rbp)
	movq	%rbx, -152(%rbp)
	movq	16(%rax), %rcx
	movq	24(%rax), %rbx
	movq	%rcx, -144(%rbp)
	movq	%rbx, -136(%rbp)
	movq	32(%rax), %rcx
	movq	40(%rax), %rbx
	movq	%rcx, -128(%rbp)
	movq	%rbx, -120(%rbp)
	movq	48(%rax), %rcx
	movq	56(%rax), %rbx
	movq	%rcx, -112(%rbp)
	movq	%rbx, -104(%rbp)
	movq	64(%rax), %rcx
	movq	72(%rax), %rbx
	movq	%rcx, -96(%rbp)
	movq	%rbx, -88(%rbp)
	movq	80(%rax), %rcx
	movq	88(%rax), %rbx
	movq	%rcx, -80(%rbp)
	movq	%rbx, -72(%rbp)
	movq	96(%rax), %rcx
	movq	104(%rax), %rbx
	movq	%rcx, -64(%rbp)
	movq	%rbx, -56(%rbp)
	movq	120(%rax), %rdx
	movq	112(%rax), %rax
	movq	%rax, -48(%rbp)
	movq	%rdx, -40(%rbp)
	movq	-224(%rbp), %rax
	movq	(%rax), %rax
	movq	120(%rax), %rax
	movq	%rax, -168(%rbp)
	movq	-224(%rbp), %rax
	movq	(%rax), %rax
	movq	-216(%rbp), %rdx
	movq	(%rdx), %rcx
	movq	8(%rdx), %rbx
	movq	%rcx, (%rax)
	movq	%rbx, 8(%rax)
	movq	16(%rdx), %rcx
	movq	24(%rdx), %rbx
	movq	%rcx, 16(%rax)
	movq	%rbx, 24(%rax)
	movq	32(%rdx), %rcx
	movq	40(%rdx), %rbx
	movq	%rcx, 32(%rax)
	movq	%rbx, 40(%rax)
	movq	48(%rdx), %rcx
	movq	56(%rdx), %rbx
	movq	%rcx, 48(%rax)
	movq	%rbx, 56(%rax)
	movq	64(%rdx), %rcx
	movq	72(%rdx), %rbx
	movq	%rcx, 64(%rax)
	movq	%rbx, 72(%rax)
	movq	80(%rdx), %rcx
	movq	88(%rdx), %rbx
	movq	%rcx, 80(%rax)
	movq	%rbx, 88(%rax)
	movq	96(%rdx), %rcx
	movq	104(%rdx), %rbx
	movq	%rcx, 96(%rax)
	movq	%rbx, 104(%rax)
	movq	112(%rdx), %rcx
	movq	120(%rdx), %rbx
	movq	%rcx, 112(%rax)
	movq	%rbx, 120(%rax)
	movq	-216(%rbp), %rax
	movq	-160(%rbp), %rcx
	movq	-152(%rbp), %rbx
	movq	%rcx, (%rax)
	movq	%rbx, 8(%rax)
	movq	-144(%rbp), %rcx
	movq	-136(%rbp), %rbx
	movq	%rcx, 16(%rax)
	movq	%rbx, 24(%rax)
	movq	-128(%rbp), %rcx
	movq	-120(%rbp), %rbx
	movq	%rcx, 32(%rax)
	movq	%rbx, 40(%rax)
	movq	-112(%rbp), %rcx
	movq	-104(%rbp), %rbx
	movq	%rcx, 48(%rax)
	movq	%rbx, 56(%rax)
	movq	-96(%rbp), %rcx
	movq	-88(%rbp), %rbx
	movq	%rcx, 64(%rax)
	movq	%rbx, 72(%rax)
	movq	-80(%rbp), %rcx
	movq	-72(%rbp), %rbx
	movq	%rcx, 80(%rax)
	movq	%rbx, 88(%rax)
	movq	-64(%rbp), %rcx
	movq	-56(%rbp), %rbx
	movq	%rcx, 96(%rax)
	movq	%rbx, 104(%rax)
	movq	-48(%rbp), %rcx
	movq	-40(%rbp), %rbx
	movq	%rcx, 112(%rax)
	movq	%rbx, 120(%rax)
	movq	-224(%rbp), %rax
	movq	(%rax), %rax
	movq	120(%rax), %rdx
	movq	-216(%rbp), %rax
	movq	%rdx, 120(%rax)
	movq	-224(%rbp), %rax
	movq	(%rax), %rax
	movq	-168(%rbp), %rdx
	movq	%rdx, 120(%rax)
.L70:
	movq	-224(%rbp), %rax
	movq	(%rax), %rax
	addq	$120, %rax
	movq	%rax, -224(%rbp)
.L48:
	movq	-224(%rbp), %rax
	movq	(%rax), %rax
	testq	%rax, %rax
	jne	.L71
	movq	-296(%rbp), %rax
	movq	-24(%rbp), %rdx
	subq	%fs:40, %rdx
	je	.L73
	call	__stack_chk_fail@PLT
.L73:
	movq	-8(%rbp), %rbx
	leave
	.cfi_def_cfa 7, 8
	ret
	.cfi_endproc
.LFE5:
	.size	filterAndSortBooks, .-filterAndSortBooks
	.section	.rodata
	.align 8
.LC8:
	.string	"\nPlease select the management method (0 for FIFO, 1 for LIFO): "
.LC9:
	.string	"\nInvalid input!"
.LC10:
	.string	"students.txt"
.LC11:
	.string	"library.txt"
	.align 8
.LC12:
	.ascii	"\nWelcome to the library, please select an option:\n 0 "
	.string	"- Exit\n 1 - Add a book\n 2 - Delete a book\n 3 - Update a book\n 4 - Filter and sort books\n 5 - Reverse the book list\n 6 - Search books\n 7 - Borrow a book\n 8 - Return a book\n 9 - Display books borrowed by a student\n10 - Add a student\n11 - Remove a student\n\n> "
.LC13:
	.string	"\nEnter ISBN: "
.LC14:
	.string	" %13[^\n]"
.LC15:
	.string	"\nEnter the title: "
.LC16:
	.string	" %63[^\n]"
	.align 8
.LC17:
	.string	"\nEnter the name of the author: "
.LC18:
	.string	" %31[^\n]"
	.align 8
.LC19:
	.string	"\nEnter the year of publication: "
.LC20:
	.string	"\nEnter feature name: "
.LC21:
	.string	"\nEnter new value: "
	.align 8
.LC22:
	.string	"\nEnter filter choice (0 for author, 1 for publication year): "
.LC23:
	.string	"\nEnter filter: "
	.align 8
.LC24:
	.string	"\nEnter sort choice (0 for title, 1 for author, 2 for publication year): "
	.align 8
.LC25:
	.string	"\nEnter search choice (0 for ISBN, 1 for author, 2 for title): "
.LC26:
	.string	"\nEnter search criteria: "
.LC27:
	.string	"\nEnter student ID: "
.LC28:
	.string	"\nEnter student name: "
	.text
	.globl	main
	.type	main, @function
main:
.LFB6:
	.cfi_startproc
	endbr64
	pushq	%rbp
	.cfi_def_cfa_offset 16
	.cfi_offset 6, -16
	movq	%rsp, %rbp
	.cfi_def_cfa_register 6
	subq	$304, %rsp
	movl	%edi, -276(%rbp)
	movq	%rsi, -288(%rbp)
	movq	%rdx, -296(%rbp)
	movq	%fs:40, %rax
	movq	%rax, -8(%rbp)
	xorl	%eax, %eax
	movq	$0, _TIG_IZ_SooK_envp(%rip)
	nop
.L75:
	movq	$0, _TIG_IZ_SooK_argv(%rip)
	nop
.L76:
	movl	$0, _TIG_IZ_SooK_argc(%rip)
	nop
	nop
.L77:
.L78:
#APP
# 218 "mehme2_cse_assignments_main.c" 1
	##_ANNOTATION_INITIALREGION_-TIG-IZ-SooK--0
# 0 "" 2
#NO_APP
	movl	-276(%rbp), %eax
	movl	%eax, _TIG_IZ_SooK_argc(%rip)
	movq	-288(%rbp), %rax
	movq	%rax, _TIG_IZ_SooK_argv(%rip)
	movq	-296(%rbp), %rax
	movq	%rax, _TIG_IZ_SooK_envp(%rip)
#APP
# 225 "mehme2_cse_assignments_main.c" 1
	##_ANNOTATION_ATOMICREGION_-TIG-iO-SooK-1-main--27
# 0 "" 2
#NO_APP
	movl	$24, %edi
	call	malloc@PLT
	movq	%rax, -240(%rbp)
	movq	-240(%rbp), %rax
	movq	-240(%rbp), %rdx
	movq	%rdx, 16(%rax)
	movq	-240(%rbp), %rax
	movq	-240(%rbp), %rdx
	movq	%rdx, 8(%rax)
	movq	-240(%rbp), %rax
	movq	%rax, _TIG_iO_SooK_1_main_1_opaque_list_1(%rip)
	call	rand@PLT
	movl	%eax, -264(%rbp)
	movl	$24, %edi
	call	malloc@PLT
	movq	%rax, -232(%rbp)
	movq	-232(%rbp), %rax
	movl	$0, (%rax)
	movq	_TIG_iO_SooK_1_main_1_opaque_list_1(%rip), %rax
	movq	16(%rax), %rdx
	movq	-232(%rbp), %rax
	movq	%rdx, 16(%rax)
	movq	_TIG_iO_SooK_1_main_1_opaque_list_1(%rip), %rdx
	movq	-232(%rbp), %rax
	movq	%rdx, 8(%rax)
	movq	_TIG_iO_SooK_1_main_1_opaque_list_1(%rip), %rax
	movq	16(%rax), %rax
	movq	-232(%rbp), %rdx
	movq	%rdx, 8(%rax)
	movq	_TIG_iO_SooK_1_main_1_opaque_list_1(%rip), %rax
	movq	-232(%rbp), %rdx
	movq	%rdx, 16(%rax)
	call	rand@PLT
	movl	%eax, -260(%rbp)
	movl	$24, %edi
	call	malloc@PLT
	movq	%rax, -224(%rbp)
	movq	-224(%rbp), %rax
	movl	-260(%rbp), %edx
	movl	%edx, (%rax)
	movq	_TIG_iO_SooK_1_main_1_opaque_list_1(%rip), %rax
	movq	16(%rax), %rdx
	movq	-224(%rbp), %rax
	movq	%rdx, 16(%rax)
	movq	_TIG_iO_SooK_1_main_1_opaque_list_1(%rip), %rdx
	movq	-224(%rbp), %rax
	movq	%rdx, 8(%rax)
	movq	_TIG_iO_SooK_1_main_1_opaque_list_1(%rip), %rax
	movq	16(%rax), %rax
	movq	-224(%rbp), %rdx
	movq	%rdx, 8(%rax)
	movq	_TIG_iO_SooK_1_main_1_opaque_list_1(%rip), %rax
	movq	-224(%rbp), %rdx
	movq	%rdx, 16(%rax)
	movq	_TIG_iO_SooK_1_main_1_opaque_list_1(%rip), %rax
	movq	16(%rax), %rax
	movq	%rax, _TIG_iO_SooK_1_main_1_opaque_ptr_1(%rip)
	movq	_TIG_iO_SooK_1_main_1_opaque_ptr_1(%rip), %rax
	movq	%rax, _TIG_iO_SooK_1_main_1_opaque_ptr_2(%rip)
	nop
	nop
.L83:
	leaq	.LC8(%rip), %rax
	movq	%rax, %rdi
	movl	$0, %eax
	call	printf@PLT
	leaq	-272(%rbp), %rax
	movq	%rax, %rsi
	leaq	.LC7(%rip), %rax
	movq	%rax, %rdi
	movl	$0, %eax
	call	__isoc99_scanf@PLT
	movl	-272(%rbp), %eax
	testl	%eax, %eax
	je	.L105
	movq	_TIG_iO_SooK_1_updateBook_1_opaque_ptr_1(%rip), %rdx
	movq	_TIG_iO_SooK_1_updateBook_1_opaque_ptr_2(%rip), %rax
	cmpq	%rax, %rdx
	jne	.L83
	movl	-272(%rbp), %eax
	cmpl	$1, %eax
	je	.L106
	leaq	.LC9(%rip), %rax
	movq	%rax, %rdi
	call	puts@PLT
	jmp	.L83
.L105:
	nop
	jmp	.L80
.L106:
	nop
.L80:
	leaq	-248(%rbp), %rdx
	leaq	-256(%rbp), %rax
	movq	%rdx, %rcx
	movq	%rax, %rdx
	leaq	.LC10(%rip), %rax
	movq	%rax, %rsi
	leaq	.LC11(%rip), %rax
	movq	%rax, %rdi
	call	load
.L101:
	leaq	.LC12(%rip), %rax
	movq	%rax, %rdi
	movl	$0, %eax
	call	printf@PLT
	leaq	-268(%rbp), %rax
	movq	%rax, %rsi
	leaq	.LC7(%rip), %rax
	movq	%rax, %rdi
	movl	$0, %eax
	call	__isoc99_scanf@PLT
	movl	-268(%rbp), %eax
	cmpl	$11, %eax
	ja	.L84
	movl	%eax, %eax
	leaq	0(,%rax,4), %rdx
	leaq	.L86(%rip), %rax
	movl	(%rdx,%rax), %eax
	cltq
	leaq	.L86(%rip), %rdx
	addq	%rdx, %rax
	notrack jmp	*%rax
	.section	.rodata
	.align 4
	.align 4
.L86:
	.long	.L107-.L86
	.long	.L96-.L86
	.long	.L95-.L86
	.long	.L94-.L86
	.long	.L93-.L86
	.long	.L92-.L86
	.long	.L91-.L86
	.long	.L90-.L86
	.long	.L89-.L86
	.long	.L88-.L86
	.long	.L87-.L86
	.long	.L85-.L86
	.text
.L96:
	leaq	.LC13(%rip), %rax
	movq	%rax, %rdi
	movl	$0, %eax
	call	printf@PLT
	leaq	-208(%rbp), %rax
	movq	%rax, %rsi
	leaq	.LC14(%rip), %rax
	movq	%rax, %rdi
	movl	$0, %eax
	call	__isoc99_scanf@PLT
	leaq	.LC15(%rip), %rax
	movq	%rax, %rdi
	movl	$0, %eax
	call	printf@PLT
	leaq	-208(%rbp), %rax
	addq	$64, %rax
	movq	%rax, %rsi
	leaq	.LC16(%rip), %rax
	movq	%rax, %rdi
	movl	$0, %eax
	call	__isoc99_scanf@PLT
	leaq	.LC17(%rip), %rax
	movq	%rax, %rdi
	movl	$0, %eax
	call	printf@PLT
	leaq	-208(%rbp), %rax
	subq	$-128, %rax
	movq	%rax, %rsi
	leaq	.LC18(%rip), %rax
	movq	%rax, %rdi
	movl	$0, %eax
	call	__isoc99_scanf@PLT
	leaq	.LC19(%rip), %rax
	movq	%rax, %rdi
	movl	$0, %eax
	call	printf@PLT
	leaq	-216(%rbp), %rax
	movq	%rax, %rsi
	leaq	.LC7(%rip), %rax
	movq	%rax, %rdi
	movl	$0, %eax
	call	__isoc99_scanf@PLT
	movl	-272(%rbp), %r8d
	movl	-216(%rbp), %edi
	movq	-256(%rbp), %rax
	leaq	-208(%rbp), %rdx
	leaq	128(%rdx), %rcx
	leaq	-208(%rbp), %rdx
	addq	$64, %rdx
	leaq	-208(%rbp), %rsi
	movl	%r8d, %r9d
	movl	%edi, %r8d
	movq	%rax, %rdi
	call	addBook
	movq	%rax, -256(%rbp)
	jmp	.L98
.L95:
	leaq	.LC13(%rip), %rax
	movq	%rax, %rdi
	movl	$0, %eax
	call	printf@PLT
	leaq	-208(%rbp), %rax
	movq	%rax, %rsi
	leaq	.LC14(%rip), %rax
	movq	%rax, %rdi
	movl	$0, %eax
	call	__isoc99_scanf@PLT
	movq	-256(%rbp), %rax
	leaq	-208(%rbp), %rdx
	movq	%rdx, %rsi
	movq	%rax, %rdi
	call	deleteBook
	movq	%rax, -256(%rbp)
	jmp	.L98
.L94:
	leaq	.LC13(%rip), %rax
	movq	%rax, %rdi
	movl	$0, %eax
	call	printf@PLT
	leaq	-208(%rbp), %rax
	movq	%rax, %rsi
	leaq	.LC14(%rip), %rax
	movq	%rax, %rdi
	movl	$0, %eax
	call	__isoc99_scanf@PLT
	leaq	.LC20(%rip), %rax
	movq	%rax, %rdi
	movl	$0, %eax
	call	printf@PLT
	leaq	-208(%rbp), %rax
	addq	$64, %rax
	movq	%rax, %rsi
	leaq	.LC16(%rip), %rax
	movq	%rax, %rdi
	movl	$0, %eax
	call	__isoc99_scanf@PLT
	leaq	.LC21(%rip), %rax
	movq	%rax, %rdi
	movl	$0, %eax
	call	printf@PLT
	leaq	-208(%rbp), %rax
	subq	$-128, %rax
	movq	%rax, %rsi
	leaq	.LC16(%rip), %rax
	movq	%rax, %rdi
	movl	$0, %eax
	call	__isoc99_scanf@PLT
	movq	-256(%rbp), %rax
	leaq	-208(%rbp), %rdx
	leaq	128(%rdx), %rcx
	leaq	-208(%rbp), %rdx
	addq	$64, %rdx
	leaq	-208(%rbp), %rsi
	movq	%rax, %rdi
	call	updateBook
	jmp	.L98
.L93:
	leaq	.LC22(%rip), %rax
	movq	%rax, %rdi
	movl	$0, %eax
	call	printf@PLT
	leaq	-216(%rbp), %rax
	movq	%rax, %rsi
	leaq	.LC7(%rip), %rax
	movq	%rax, %rdi
	movl	$0, %eax
	call	__isoc99_scanf@PLT
	leaq	.LC23(%rip), %rax
	movq	%rax, %rdi
	movl	$0, %eax
	call	printf@PLT
	leaq	-208(%rbp), %rax
	movq	%rax, %rsi
	leaq	.LC18(%rip), %rax
	movq	%rax, %rdi
	movl	$0, %eax
	call	__isoc99_scanf@PLT
	leaq	.LC24(%rip), %rax
	movq	%rax, %rdi
	movl	$0, %eax
	call	printf@PLT
	leaq	-216(%rbp), %rax
	addq	$4, %rax
	movq	%rax, %rsi
	leaq	.LC7(%rip), %rax
	movq	%rax, %rdi
	movl	$0, %eax
	call	__isoc99_scanf@PLT
	movl	-212(%rbp), %ecx
	movl	-216(%rbp), %esi
	movq	-256(%rbp), %rax
	leaq	-208(%rbp), %rdx
	movq	%rax, %rdi
	call	filterAndSortBooks
	movq	%rax, -256(%rbp)
	jmp	.L98
.L92:
	movq	-256(%rbp), %rax
	movq	%rax, %rdi
	call	reverseBookList
	movq	%rax, -256(%rbp)
	jmp	.L98
.L91:
	leaq	.LC25(%rip), %rax
	movq	%rax, %rdi
	movl	$0, %eax
	call	printf@PLT
	leaq	-216(%rbp), %rax
	movq	%rax, %rsi
	leaq	.LC7(%rip), %rax
	movq	%rax, %rdi
	movl	$0, %eax
	call	__isoc99_scanf@PLT
	leaq	.LC26(%rip), %rax
	movq	%rax, %rdi
	movl	$0, %eax
	call	printf@PLT
	leaq	-208(%rbp), %rax
	movq	%rax, %rsi
	leaq	.LC16(%rip), %rax
	movq	%rax, %rdi
	movl	$0, %eax
	call	__isoc99_scanf@PLT
	movl	-216(%rbp), %ecx
	movq	-256(%rbp), %rax
	leaq	-208(%rbp), %rdx
	movl	%ecx, %esi
	movq	%rax, %rdi
	call	searchBooks
	jmp	.L98
.L90:
	leaq	.LC27(%rip), %rax
	movq	%rax, %rdi
	movl	$0, %eax
	call	printf@PLT
	leaq	-216(%rbp), %rax
	movq	%rax, %rsi
	leaq	.LC7(%rip), %rax
	movq	%rax, %rdi
	movl	$0, %eax
	call	__isoc99_scanf@PLT
	leaq	.LC13(%rip), %rax
	movq	%rax, %rdi
	movl	$0, %eax
	call	printf@PLT
	leaq	-208(%rbp), %rax
	movq	%rax, %rsi
	leaq	.LC14(%rip), %rax
	movq	%rax, %rdi
	movl	$0, %eax
	call	__isoc99_scanf@PLT
	movl	-216(%rbp), %edx
	movq	-256(%rbp), %rsi
	movq	-248(%rbp), %rax
	leaq	-208(%rbp), %rcx
	movq	%rax, %rdi
	call	borrowBook
	jmp	.L98
.L89:
	leaq	.LC27(%rip), %rax
	movq	%rax, %rdi
	movl	$0, %eax
	call	printf@PLT
	leaq	-216(%rbp), %rax
	movq	%rax, %rsi
	leaq	.LC7(%rip), %rax
	movq	%rax, %rdi
	movl	$0, %eax
	call	__isoc99_scanf@PLT
	leaq	.LC13(%rip), %rax
	movq	%rax, %rdi
	movl	$0, %eax
	call	printf@PLT
	leaq	-208(%rbp), %rax
	movq	%rax, %rsi
	leaq	.LC14(%rip), %rax
	movq	%rax, %rdi
	movl	$0, %eax
	call	__isoc99_scanf@PLT
	movl	-216(%rbp), %edx
	movq	-256(%rbp), %rsi
	movq	-248(%rbp), %rax
	leaq	-208(%rbp), %rcx
	movq	%rax, %rdi
	call	returnBook
	jmp	.L98
.L88:
	leaq	.LC27(%rip), %rax
	movq	%rax, %rdi
	movl	$0, %eax
	call	printf@PLT
	leaq	-216(%rbp), %rax
	movq	%rax, %rsi
	leaq	.LC7(%rip), %rax
	movq	%rax, %rdi
	movl	$0, %eax
	call	__isoc99_scanf@PLT
	movl	-216(%rbp), %edx
	movq	-256(%rbp), %rcx
	movq	-248(%rbp), %rax
	movq	%rcx, %rsi
	movq	%rax, %rdi
	call	displayBooks
	jmp	.L98
.L87:
	leaq	.LC28(%rip), %rax
	movq	%rax, %rdi
	movl	$0, %eax
	call	printf@PLT
	leaq	-208(%rbp), %rax
	movq	%rax, %rsi
	leaq	.LC18(%rip), %rax
	movq	%rax, %rdi
	movl	$0, %eax
	call	__isoc99_scanf@PLT
	leaq	.LC27(%rip), %rax
	movq	%rax, %rdi
	movl	$0, %eax
	call	printf@PLT
	leaq	-216(%rbp), %rax
	movq	%rax, %rsi
	leaq	.LC7(%rip), %rax
	movq	%rax, %rdi
	movl	$0, %eax
	call	__isoc99_scanf@PLT
	movl	-272(%rbp), %ecx
	movl	-216(%rbp), %edx
	movq	-248(%rbp), %rax
	leaq	-208(%rbp), %rsi
	movq	%rax, %rdi
	call	addStudent
	movq	%rax, -248(%rbp)
	jmp	.L98
.L85:
	leaq	.LC27(%rip), %rax
	movq	%rax, %rdi
	movl	$0, %eax
	call	printf@PLT
	leaq	-216(%rbp), %rax
	movq	%rax, %rsi
	leaq	.LC7(%rip), %rax
	movq	%rax, %rdi
	movl	$0, %eax
	call	__isoc99_scanf@PLT
	movl	-216(%rbp), %edx
	movq	-248(%rbp), %rax
	movl	%edx, %esi
	movq	%rax, %rdi
	call	removeStudent
	movq	%rax, -248(%rbp)
	jmp	.L98
.L84:
	leaq	.LC9(%rip), %rax
	movq	%rax, %rdi
	call	puts@PLT
	jmp	.L98
.L107:
	nop
.L98:
	movq	-248(%rbp), %rdx
	movq	-256(%rbp), %rax
	movq	%rdx, %rcx
	movq	%rax, %rdx
	leaq	.LC10(%rip), %rax
	movq	%rax, %rsi
	leaq	.LC11(%rip), %rax
	movq	%rax, %rdi
	call	save
	movl	-268(%rbp), %eax
	testl	%eax, %eax
	je	.L108
	jmp	.L101
.L108:
	nop
	movl	$0, %eax
	movq	-8(%rbp), %rdx
	subq	%fs:40, %rdx
	je	.L103
	call	__stack_chk_fail@PLT
.L103:
	leave
	.cfi_def_cfa 7, 8
	ret
	.cfi_endproc
.LFE6:
	.size	main, .-main
	.globl	addStudent
	.type	addStudent, @function
addStudent:
.LFB8:
	.cfi_startproc
	endbr64
	pushq	%rbp
	.cfi_def_cfa_offset 16
	.cfi_offset 6, -16
	movq	%rsp, %rbp
	.cfi_def_cfa_register 6
	subq	$96, %rsp
	movq	%rdi, -72(%rbp)
	movq	%rsi, -80(%rbp)
	movl	%edx, -84(%rbp)
	movl	%ecx, -88(%rbp)
#APP
# 72 "/usr/include/x86_64-linux-gnu/bits/byteswap.h" 1
	##_ANNOTATION_INITIALREGION_-TIG-iO-SooK-1-addStudent--16
# 0 "" 2
# 76 "/usr/include/x86_64-linux-gnu/bits/byteswap.h" 1
	##_ANNOTATION_ATOMICREGION_-TIG-iO-SooK-1-addStudent--15
# 0 "" 2
#NO_APP
	movl	$24, %edi
	call	malloc@PLT
	movq	%rax, -48(%rbp)
	movq	-48(%rbp), %rax
	movq	-48(%rbp), %rdx
	movq	%rdx, 16(%rax)
	movq	-48(%rbp), %rax
	movq	-48(%rbp), %rdx
	movq	%rdx, 8(%rax)
	movq	-48(%rbp), %rax
	movq	%rax, _TIG_iO_SooK_1_addStudent_1_opaque_list_1(%rip)
	call	rand@PLT
	movl	%eax, -64(%rbp)
	movl	$24, %edi
	call	malloc@PLT
	movq	%rax, -40(%rbp)
	movq	-40(%rbp), %rax
	movl	$0, (%rax)
	movq	_TIG_iO_SooK_1_addStudent_1_opaque_list_1(%rip), %rax
	movq	16(%rax), %rdx
	movq	-40(%rbp), %rax
	movq	%rdx, 16(%rax)
	movq	_TIG_iO_SooK_1_addStudent_1_opaque_list_1(%rip), %rdx
	movq	-40(%rbp), %rax
	movq	%rdx, 8(%rax)
	movq	_TIG_iO_SooK_1_addStudent_1_opaque_list_1(%rip), %rax
	movq	16(%rax), %rax
	movq	-40(%rbp), %rdx
	movq	%rdx, 8(%rax)
	movq	_TIG_iO_SooK_1_addStudent_1_opaque_list_1(%rip), %rax
	movq	-40(%rbp), %rdx
	movq	%rdx, 16(%rax)
	call	rand@PLT
	movl	%eax, -60(%rbp)
	movl	$24, %edi
	call	malloc@PLT
	movq	%rax, -32(%rbp)
	movq	-32(%rbp), %rax
	movl	-60(%rbp), %edx
	movl	%edx, (%rax)
	movq	_TIG_iO_SooK_1_addStudent_1_opaque_list_1(%rip), %rax
	movq	16(%rax), %rdx
	movq	-32(%rbp), %rax
	movq	%rdx, 16(%rax)
	movq	_TIG_iO_SooK_1_addStudent_1_opaque_list_1(%rip), %rdx
	movq	-32(%rbp), %rax
	movq	%rdx, 8(%rax)
	movq	_TIG_iO_SooK_1_addStudent_1_opaque_list_1(%rip), %rax
	movq	16(%rax), %rax
	movq	-32(%rbp), %rdx
	movq	%rdx, 8(%rax)
	movq	_TIG_iO_SooK_1_addStudent_1_opaque_list_1(%rip), %rax
	movq	-32(%rbp), %rdx
	movq	%rdx, 16(%rax)
	movq	_TIG_iO_SooK_1_addStudent_1_opaque_list_1(%rip), %rax
	movq	16(%rax), %rax
	movq	%rax, _TIG_iO_SooK_1_addStudent_1_opaque_ptr_1(%rip)
	movq	_TIG_iO_SooK_1_addStudent_1_opaque_ptr_1(%rip), %rax
	movq	%rax, _TIG_iO_SooK_1_addStudent_1_opaque_ptr_2(%rip)
	nop
	nop
	movl	$56, %edi
	call	malloc@PLT
	movq	%rax, -24(%rbp)
	movq	-24(%rbp), %rax
	movq	%rax, -16(%rbp)
	movq	-16(%rbp), %rax
	movq	-80(%rbp), %rcx
	movl	$32, %edx
	movq	%rcx, %rsi
	movq	%rax, %rdi
	call	strncpy@PLT
	movq	-16(%rbp), %rax
	movl	-84(%rbp), %edx
	movl	%edx, 32(%rax)
	movl	$1, %edi
	call	malloc@PLT
	movq	%rax, -8(%rbp)
	movq	-16(%rbp), %rax
	movq	-8(%rbp), %rdx
	movq	%rdx, 40(%rax)
	movq	-16(%rbp), %rax
	movq	40(%rax), %rax
	movb	$0, (%rax)
	cmpl	$1, -88(%rbp)
	jne	.L110
	movq	-72(%rbp), %rdx
	movq	-16(%rbp), %rax
	movq	%rdx, 48(%rax)
	movq	-16(%rbp), %rax
	movq	%rax, -72(%rbp)
	jmp	.L111
.L110:
	movq	-16(%rbp), %rax
	movq	$0, 48(%rax)
	leaq	-72(%rbp), %rax
	movq	%rax, -56(%rbp)
.L116:
	movq	-56(%rbp), %rax
	movq	(%rax), %rax
	testq	%rax, %rax
	jne	.L112
	movq	_TIG_iO_SooK_1_updateBook_1_opaque_ptr_1(%rip), %rdx
	movq	_TIG_iO_SooK_1_updateBook_1_opaque_ptr_2(%rip), %rax
	cmpq	%rax, %rdx
	je	.L118
	movq	-16(%rbp), %rax
	jmp	.L115
.L112:
	movq	-56(%rbp), %rax
	movq	(%rax), %rax
	addq	$48, %rax
	movq	%rax, -56(%rbp)
	jmp	.L116
.L118:
	nop
	movq	-56(%rbp), %rax
	movq	-16(%rbp), %rdx
	movq	%rdx, (%rax)
.L111:
	movq	-72(%rbp), %rax
.L115:
	leave
	.cfi_def_cfa 7, 8
	ret
	.cfi_endproc
.LFE8:
	.size	addStudent, .-addStudent
	.section	.rodata
.LC29:
	.string	"\nNo book with ISBN %s found.\n"
	.align 8
.LC30:
	.string	"\nThe book with ISBN %s is already borrowed.\n"
	.align 8
.LC31:
	.string	"\nCouldn't found a student with ID %d.\n"
	.text
	.globl	borrowBook
	.type	borrowBook, @function
borrowBook:
.LFB9:
	.cfi_startproc
	endbr64
	pushq	%rbp
	.cfi_def_cfa_offset 16
	.cfi_offset 6, -16
	movq	%rsp, %rbp
	.cfi_def_cfa_register 6
	pushq	%rbx
	subq	$120, %rsp
	.cfi_offset 3, -24
	movq	%rdi, -104(%rbp)
	movq	%rsi, -112(%rbp)
	movl	%edx, -116(%rbp)
	movq	%rcx, -128(%rbp)
#APP
# 302 "mehme2_cse_assignments_main.c" 1
	##_ANNOTATION_INITIALREGION_-TIG-iO-SooK-1-borrowBook--18
# 0 "" 2
# 306 "mehme2_cse_assignments_main.c" 1
	##_ANNOTATION_ATOMICREGION_-TIG-iO-SooK-1-borrowBook--17
# 0 "" 2
#NO_APP
	movl	$24, %edi
	call	malloc@PLT
	movq	%rax, -64(%rbp)
	movq	-64(%rbp), %rax
	movq	-64(%rbp), %rdx
	movq	%rdx, 8(%rax)
	movq	-64(%rbp), %rax
	movq	-64(%rbp), %rdx
	movq	%rdx, (%rax)
	movq	-64(%rbp), %rax
	movq	%rax, _TIG_iO_SooK_1_borrowBook_1_opaque_list_1(%rip)
	call	rand@PLT
	movl	%eax, -92(%rbp)
	movl	$24, %edi
	call	malloc@PLT
	movq	%rax, -56(%rbp)
	movq	-56(%rbp), %rax
	movl	$0, 16(%rax)
	movq	_TIG_iO_SooK_1_borrowBook_1_opaque_list_1(%rip), %rax
	movq	8(%rax), %rdx
	movq	-56(%rbp), %rax
	movq	%rdx, 8(%rax)
	movq	_TIG_iO_SooK_1_borrowBook_1_opaque_list_1(%rip), %rdx
	movq	-56(%rbp), %rax
	movq	%rdx, (%rax)
	movq	_TIG_iO_SooK_1_borrowBook_1_opaque_list_1(%rip), %rax
	movq	8(%rax), %rax
	movq	-56(%rbp), %rdx
	movq	%rdx, (%rax)
	movq	_TIG_iO_SooK_1_borrowBook_1_opaque_list_1(%rip), %rax
	movq	-56(%rbp), %rdx
	movq	%rdx, 8(%rax)
	call	rand@PLT
	movl	%eax, -88(%rbp)
	movl	$24, %edi
	call	malloc@PLT
	movq	%rax, -48(%rbp)
	movq	-48(%rbp), %rax
	movl	-88(%rbp), %edx
	movl	%edx, 16(%rax)
	movq	_TIG_iO_SooK_1_borrowBook_1_opaque_list_1(%rip), %rax
	movq	8(%rax), %rdx
	movq	-48(%rbp), %rax
	movq	%rdx, 8(%rax)
	movq	_TIG_iO_SooK_1_borrowBook_1_opaque_list_1(%rip), %rdx
	movq	-48(%rbp), %rax
	movq	%rdx, (%rax)
	movq	_TIG_iO_SooK_1_borrowBook_1_opaque_list_1(%rip), %rax
	movq	8(%rax), %rax
	movq	-48(%rbp), %rdx
	movq	%rdx, (%rax)
	movq	_TIG_iO_SooK_1_borrowBook_1_opaque_list_1(%rip), %rax
	movq	-48(%rbp), %rdx
	movq	%rdx, 8(%rax)
	movq	_TIG_iO_SooK_1_borrowBook_1_opaque_list_1(%rip), %rax
	movq	8(%rax), %rax
	movq	%rax, _TIG_iO_SooK_1_borrowBook_1_opaque_ptr_1(%rip)
	movq	_TIG_iO_SooK_1_borrowBook_1_opaque_ptr_1(%rip), %rax
	movq	%rax, _TIG_iO_SooK_1_borrowBook_1_opaque_ptr_2(%rip)
	movq	_TIG_iO_SooK_1_borrowBook_1_opaque_ptr_2(%rip), %rax
	movq	8(%rax), %rax
	movq	%rax, _TIG_iO_SooK_1_borrowBook_1_opaque_ptr_2(%rip)
	nop
	nop
	movq	-112(%rbp), %rax
	movq	%rax, -80(%rbp)
.L123:
	cmpq	$0, -80(%rbp)
	je	.L135
	movq	-80(%rbp), %rax
	movq	-128(%rbp), %rdx
	movq	%rdx, %rsi
	movq	%rax, %rdi
	call	strcmp@PLT
	movl	%eax, -84(%rbp)
	cmpl	$0, -84(%rbp)
	je	.L136
	movq	-80(%rbp), %rax
	movq	120(%rax), %rax
	movq	%rax, -80(%rbp)
	jmp	.L123
.L135:
	nop
	jmp	.L122
.L136:
	nop
.L122:
	cmpq	$0, -80(%rbp)
	jne	.L124
	movq	-128(%rbp), %rax
	movq	%rax, %rsi
	leaq	.LC29(%rip), %rax
	movq	%rax, %rdi
	movl	$0, %eax
	call	printf@PLT
	jmp	.L119
.L124:
	movq	-80(%rbp), %rax
	movl	116(%rax), %eax
	testl	%eax, %eax
	je	.L126
	movq	-128(%rbp), %rax
	movq	%rax, %rsi
	leaq	.LC30(%rip), %rax
	movq	%rax, %rdi
	movl	$0, %eax
	call	printf@PLT
	jmp	.L119
.L126:
	movq	-104(%rbp), %rax
	movq	%rax, -72(%rbp)
	movq	_TIG_iO_SooK_1_updateBook_1_opaque_ptr_1(%rip), %rdx
	movq	_TIG_iO_SooK_1_updateBook_1_opaque_ptr_2(%rip), %rax
	cmpq	%rax, %rdx
	jne	.L127
.L131:
	cmpq	$0, -72(%rbp)
	je	.L137
	movq	-72(%rbp), %rax
	movl	32(%rax), %eax
	cmpl	%eax, -116(%rbp)
	je	.L138
	movq	-72(%rbp), %rax
	movq	48(%rax), %rax
	movq	%rax, -72(%rbp)
	jmp	.L131
.L127:
#APP
# 224 "mehme2_cse_assignments_main.c" 1
	.byte 0x69,0x89,0x35
# 0 "" 2
#NO_APP
	jmp	.L132
.L137:
	nop
	jmp	.L132
.L138:
	nop
.L132:
	cmpq	$0, -72(%rbp)
	je	.L133
	movq	-72(%rbp), %rax
	movq	40(%rax), %rax
	movq	%rax, %rdi
	call	strlen@PLT
	movq	%rax, -40(%rbp)
	movq	-128(%rbp), %rax
	movq	%rax, %rdi
	call	strlen@PLT
	movq	%rax, -32(%rbp)
	movq	-40(%rbp), %rdx
	movq	-32(%rbp), %rax
	addq	%rdx, %rax
	leaq	2(%rax), %rdx
	movq	-72(%rbp), %rax
	movq	40(%rax), %rax
	movq	%rdx, %rsi
	movq	%rax, %rdi
	call	realloc@PLT
	movq	%rax, -24(%rbp)
	movq	-72(%rbp), %rax
	movq	-24(%rbp), %rdx
	movq	%rdx, 40(%rax)
	movq	-72(%rbp), %rax
	movq	40(%rax), %rbx
	movq	%rbx, %rdi
	call	strlen@PLT
	addq	%rbx, %rax
	movw	$44, (%rax)
	movq	-72(%rbp), %rax
	movq	40(%rax), %rax
	movq	-128(%rbp), %rdx
	movq	%rdx, %rsi
	movq	%rax, %rdi
	call	strcat@PLT
	movq	-80(%rbp), %rax
	movl	$1, 116(%rax)
	jmp	.L119
.L133:
	movl	-116(%rbp), %eax
	movl	%eax, %esi
	leaq	.LC31(%rip), %rax
	movq	%rax, %rdi
	movl	$0, %eax
	call	printf@PLT
	nop
.L119:
	movq	-8(%rbp), %rbx
	leave
	.cfi_def_cfa 7, 8
	ret
	.cfi_endproc
.LFE9:
	.size	borrowBook, .-borrowBook
	.section	.rodata
	.align 8
.LC32:
	.string	"\nNo matches found with ID: %d\n"
	.text
	.globl	removeStudent
	.type	removeStudent, @function
removeStudent:
.LFB10:
	.cfi_startproc
	endbr64
	pushq	%rbp
	.cfi_def_cfa_offset 16
	.cfi_offset 6, -16
	movq	%rsp, %rbp
	.cfi_def_cfa_register 6
	subq	$80, %rsp
	movq	%rdi, -72(%rbp)
	movl	%esi, -76(%rbp)
#APP
# 253 "mehme2_cse_assignments_main.c" 1
	##_ANNOTATION_INITIALREGION_-TIG-iO-SooK-1-removeStudent--30
# 0 "" 2
# 257 "mehme2_cse_assignments_main.c" 1
	##_ANNOTATION_ATOMICREGION_-TIG-iO-SooK-1-removeStudent--29
# 0 "" 2
#NO_APP
	movl	$24, %edi
	call	malloc@PLT
	movq	%rax, -40(%rbp)
	movq	-40(%rbp), %rax
	movq	-40(%rbp), %rdx
	movq	%rdx, 8(%rax)
	movq	-40(%rbp), %rax
	movq	-40(%rbp), %rdx
	movq	%rdx, (%rax)
	movq	-40(%rbp), %rax
	movq	%rax, _TIG_iO_SooK_1_removeStudent_1_opaque_list_1(%rip)
	call	rand@PLT
	movl	%eax, -64(%rbp)
	movl	$24, %edi
	call	malloc@PLT
	movq	%rax, -32(%rbp)
	movq	-32(%rbp), %rax
	movl	$0, 16(%rax)
	movq	_TIG_iO_SooK_1_removeStudent_1_opaque_list_1(%rip), %rax
	movq	8(%rax), %rdx
	movq	-32(%rbp), %rax
	movq	%rdx, 8(%rax)
	movq	_TIG_iO_SooK_1_removeStudent_1_opaque_list_1(%rip), %rdx
	movq	-32(%rbp), %rax
	movq	%rdx, (%rax)
	movq	_TIG_iO_SooK_1_removeStudent_1_opaque_list_1(%rip), %rax
	movq	8(%rax), %rax
	movq	-32(%rbp), %rdx
	movq	%rdx, (%rax)
	movq	_TIG_iO_SooK_1_removeStudent_1_opaque_list_1(%rip), %rax
	movq	-32(%rbp), %rdx
	movq	%rdx, 8(%rax)
	call	rand@PLT
	movl	%eax, -60(%rbp)
	movl	$24, %edi
	call	malloc@PLT
	movq	%rax, -24(%rbp)
	movq	-24(%rbp), %rax
	movl	-60(%rbp), %edx
	movl	%edx, 16(%rax)
	movq	_TIG_iO_SooK_1_removeStudent_1_opaque_list_1(%rip), %rax
	movq	8(%rax), %rdx
	movq	-24(%rbp), %rax
	movq	%rdx, 8(%rax)
	movq	_TIG_iO_SooK_1_removeStudent_1_opaque_list_1(%rip), %rdx
	movq	-24(%rbp), %rax
	movq	%rdx, (%rax)
	movq	_TIG_iO_SooK_1_removeStudent_1_opaque_list_1(%rip), %rax
	movq	8(%rax), %rax
	movq	-24(%rbp), %rdx
	movq	%rdx, (%rax)
	movq	_TIG_iO_SooK_1_removeStudent_1_opaque_list_1(%rip), %rax
	movq	-24(%rbp), %rdx
	movq	%rdx, 8(%rax)
	call	rand@PLT
	movl	%eax, -56(%rbp)
	movl	$24, %edi
	call	malloc@PLT
	movq	%rax, -16(%rbp)
	movl	-56(%rbp), %eax
	leal	(%rax,%rax), %edx
	movq	-16(%rbp), %rax
	movl	%edx, 16(%rax)
	movq	_TIG_iO_SooK_1_removeStudent_1_opaque_list_1(%rip), %rax
	movq	8(%rax), %rdx
	movq	-16(%rbp), %rax
	movq	%rdx, 8(%rax)
	movq	_TIG_iO_SooK_1_removeStudent_1_opaque_list_1(%rip), %rdx
	movq	-16(%rbp), %rax
	movq	%rdx, (%rax)
	movq	_TIG_iO_SooK_1_removeStudent_1_opaque_list_1(%rip), %rax
	movq	8(%rax), %rax
	movq	-16(%rbp), %rdx
	movq	%rdx, (%rax)
	movq	_TIG_iO_SooK_1_removeStudent_1_opaque_list_1(%rip), %rax
	movq	-16(%rbp), %rdx
	movq	%rdx, 8(%rax)
	call	rand@PLT
	movl	%eax, -52(%rbp)
	movl	$24, %edi
	call	malloc@PLT
	movq	%rax, -8(%rbp)
	movl	-52(%rbp), %edx
	movl	%edx, %eax
	addl	%eax, %eax
	addl	%eax, %edx
	movq	-8(%rbp), %rax
	movl	%edx, 16(%rax)
	movq	_TIG_iO_SooK_1_removeStudent_1_opaque_list_1(%rip), %rax
	movq	8(%rax), %rdx
	movq	-8(%rbp), %rax
	movq	%rdx, 8(%rax)
	movq	_TIG_iO_SooK_1_removeStudent_1_opaque_list_1(%rip), %rdx
	movq	-8(%rbp), %rax
	movq	%rdx, (%rax)
	movq	_TIG_iO_SooK_1_removeStudent_1_opaque_list_1(%rip), %rax
	movq	8(%rax), %rax
	movq	-8(%rbp), %rdx
	movq	%rdx, (%rax)
	movq	_TIG_iO_SooK_1_removeStudent_1_opaque_list_1(%rip), %rax
	movq	-8(%rbp), %rdx
	movq	%rdx, 8(%rax)
	movq	_TIG_iO_SooK_1_removeStudent_1_opaque_list_1(%rip), %rax
	movq	8(%rax), %rax
	movq	%rax, _TIG_iO_SooK_1_removeStudent_1_opaque_ptr_1(%rip)
	movq	_TIG_iO_SooK_1_removeStudent_1_opaque_ptr_1(%rip), %rax
	movq	%rax, _TIG_iO_SooK_1_removeStudent_1_opaque_ptr_2(%rip)
	movq	_TIG_iO_SooK_1_removeStudent_1_opaque_ptr_2(%rip), %rax
	movq	8(%rax), %rax
	movq	%rax, _TIG_iO_SooK_1_removeStudent_1_opaque_ptr_2(%rip)
	nop
	nop
	movq	_TIG_iO_SooK_1_updateBook_1_opaque_ptr_1(%rip), %rdx
	movq	_TIG_iO_SooK_1_updateBook_1_opaque_ptr_2(%rip), %rax
	cmpq	%rax, %rdx
	je	.L140
	movq	-72(%rbp), %rax
	movl	-60(%rbp), %edx
	movl	$0, %esi
	movq	%rax, %rdi
	call	displayBooks
.L140:
	leaq	-72(%rbp), %rax
	movq	%rax, -48(%rbp)
.L144:
	movq	-48(%rbp), %rax
	movq	(%rax), %rax
	testq	%rax, %rax
	je	.L148
	movq	-48(%rbp), %rax
	movq	(%rax), %rax
	movl	32(%rax), %eax
	cmpl	%eax, -76(%rbp)
	je	.L149
	movq	-48(%rbp), %rax
	movq	(%rax), %rax
	addq	$48, %rax
	movq	%rax, -48(%rbp)
	jmp	.L144
.L148:
	nop
	jmp	.L143
.L149:
	nop
.L143:
	movq	-48(%rbp), %rax
	movq	(%rax), %rax
	testq	%rax, %rax
	je	.L145
	movq	-48(%rbp), %rax
	movq	(%rax), %rax
	movq	40(%rax), %rax
	movq	%rax, %rdi
	call	free@PLT
	movq	-48(%rbp), %rax
	movq	(%rax), %rax
	movq	%rax, %rdi
	call	free@PLT
	movq	-48(%rbp), %rax
	movq	(%rax), %rax
	movq	48(%rax), %rdx
	movq	-48(%rbp), %rax
	movq	%rdx, (%rax)
	jmp	.L146
.L145:
	movl	-76(%rbp), %eax
	movl	%eax, %esi
	leaq	.LC32(%rip), %rax
	movq	%rax, %rdi
	movl	$0, %eax
	call	printf@PLT
.L146:
	movq	-72(%rbp), %rax
	leave
	.cfi_def_cfa 7, 8
	ret
	.cfi_endproc
.LFE10:
	.size	removeStudent, .-removeStudent
	.section	.rodata
.LC33:
	.string	"Yes"
.LC34:
	.string	"No"
	.align 8
.LC35:
	.string	"\nISBN: %s | Title: %s | Author: %s | Publication Year: %d | Borrowed: %s\n"
.LC36:
	.string	"\nNo results."
	.text
	.globl	searchBooks
	.type	searchBooks, @function
searchBooks:
.LFB11:
	.cfi_startproc
	endbr64
	pushq	%rbp
	.cfi_def_cfa_offset 16
	.cfi_offset 6, -16
	movq	%rsp, %rbp
	.cfi_def_cfa_register 6
	subq	$112, %rsp
	movq	%rdi, -88(%rbp)
	movl	%esi, -92(%rbp)
	movq	%rdx, -104(%rbp)
#APP
# 320 "mehme2_cse_assignments_main.c" 1
	##_ANNOTATION_INITIALREGION_-TIG-iO-SooK-1-searchBooks--38
# 0 "" 2
# 324 "mehme2_cse_assignments_main.c" 1
	##_ANNOTATION_ATOMICREGION_-TIG-iO-SooK-1-searchBooks--37
# 0 "" 2
#NO_APP
	movl	$24, %edi
	call	malloc@PLT
	movq	%rax, -24(%rbp)
	movq	-24(%rbp), %rax
	movq	-24(%rbp), %rdx
	movq	%rdx, (%rax)
	movq	-24(%rbp), %rax
	movq	-24(%rbp), %rdx
	movq	%rdx, 16(%rax)
	movq	-24(%rbp), %rax
	movq	%rax, _TIG_iO_SooK_1_searchBooks_1_opaque_list_1(%rip)
	call	rand@PLT
	movl	%eax, -60(%rbp)
	movl	$24, %edi
	call	malloc@PLT
	movq	%rax, -16(%rbp)
	movq	-16(%rbp), %rax
	movl	$0, 8(%rax)
	movq	_TIG_iO_SooK_1_searchBooks_1_opaque_list_1(%rip), %rax
	movq	(%rax), %rdx
	movq	-16(%rbp), %rax
	movq	%rdx, (%rax)
	movq	_TIG_iO_SooK_1_searchBooks_1_opaque_list_1(%rip), %rdx
	movq	-16(%rbp), %rax
	movq	%rdx, 16(%rax)
	movq	_TIG_iO_SooK_1_searchBooks_1_opaque_list_1(%rip), %rax
	movq	(%rax), %rax
	movq	-16(%rbp), %rdx
	movq	%rdx, 16(%rax)
	movq	_TIG_iO_SooK_1_searchBooks_1_opaque_list_1(%rip), %rax
	movq	-16(%rbp), %rdx
	movq	%rdx, (%rax)
	call	rand@PLT
	movl	%eax, -56(%rbp)
	movl	$24, %edi
	call	malloc@PLT
	movq	%rax, -8(%rbp)
	movq	-8(%rbp), %rax
	movl	-56(%rbp), %edx
	movl	%edx, 8(%rax)
	movq	_TIG_iO_SooK_1_searchBooks_1_opaque_list_1(%rip), %rax
	movq	(%rax), %rdx
	movq	-8(%rbp), %rax
	movq	%rdx, (%rax)
	movq	_TIG_iO_SooK_1_searchBooks_1_opaque_list_1(%rip), %rdx
	movq	-8(%rbp), %rax
	movq	%rdx, 16(%rax)
	movq	_TIG_iO_SooK_1_searchBooks_1_opaque_list_1(%rip), %rax
	movq	(%rax), %rax
	movq	-8(%rbp), %rdx
	movq	%rdx, 16(%rax)
	movq	_TIG_iO_SooK_1_searchBooks_1_opaque_list_1(%rip), %rax
	movq	-8(%rbp), %rdx
	movq	%rdx, (%rax)
	movq	_TIG_iO_SooK_1_searchBooks_1_opaque_list_1(%rip), %rax
	movq	(%rax), %rax
	movq	%rax, _TIG_iO_SooK_1_searchBooks_1_opaque_ptr_1(%rip)
	movq	_TIG_iO_SooK_1_searchBooks_1_opaque_ptr_1(%rip), %rax
	movq	%rax, _TIG_iO_SooK_1_searchBooks_1_opaque_ptr_2(%rip)
	movq	_TIG_iO_SooK_1_searchBooks_1_opaque_ptr_2(%rip), %rax
	movq	(%rax), %rax
	movq	%rax, _TIG_iO_SooK_1_searchBooks_1_opaque_ptr_2(%rip)
	nop
	nop
	movl	$0, -80(%rbp)
	movq	-88(%rbp), %rax
	movq	%rax, -40(%rbp)
	jmp	.L151
.L168:
	cmpl	$2, -92(%rbp)
	je	.L152
	cmpl	$2, -92(%rbp)
	jg	.L153
	cmpl	$0, -92(%rbp)
	je	.L154
	cmpl	$1, -92(%rbp)
	je	.L155
	jmp	.L153
.L154:
	movq	-40(%rbp), %rdx
	movq	-104(%rbp), %rax
	movq	%rdx, %rsi
	movq	%rax, %rdi
	call	strcmp@PLT
	movl	%eax, -44(%rbp)
	cmpl	$0, -44(%rbp)
	je	.L156
	movl	$0, -72(%rbp)
	jmp	.L157
.L156:
	movl	$1, -72(%rbp)
.L157:
	movl	-72(%rbp), %eax
	movl	%eax, -76(%rbp)
	movl	-76(%rbp), %eax
	addl	%eax, -80(%rbp)
	movq	_TIG_iO_SooK_1_updateBook_1_opaque_ptr_1(%rip), %rdx
	movq	_TIG_iO_SooK_1_updateBook_1_opaque_ptr_2(%rip), %rax
	cmpq	%rax, %rdx
	je	.L170
	jmp	.L150
.L155:
	movq	-40(%rbp), %rax
	leaq	78(%rax), %rdx
	movq	-104(%rbp), %rax
	movq	%rdx, %rsi
	movq	%rax, %rdi
	call	strcmp@PLT
	movl	%eax, -48(%rbp)
	cmpl	$0, -48(%rbp)
	je	.L161
	movl	$0, -68(%rbp)
	jmp	.L162
.L161:
	movl	$1, -68(%rbp)
.L162:
	movl	-68(%rbp), %eax
	movl	%eax, -76(%rbp)
	movl	-76(%rbp), %eax
	addl	%eax, -80(%rbp)
	jmp	.L160
.L152:
	movq	-40(%rbp), %rax
	leaq	14(%rax), %rdx
	movq	-104(%rbp), %rax
	movq	%rdx, %rsi
	movq	%rax, %rdi
	call	strcmp@PLT
	movl	%eax, -52(%rbp)
	cmpl	$0, -52(%rbp)
	je	.L163
	movl	$0, -64(%rbp)
	jmp	.L164
.L163:
	movl	$1, -64(%rbp)
.L164:
	movl	-64(%rbp), %eax
	movl	%eax, -76(%rbp)
	movl	-76(%rbp), %eax
	addl	%eax, -80(%rbp)
	jmp	.L160
.L153:
	movl	$0, -76(%rbp)
	jmp	.L160
.L170:
	nop
.L160:
	cmpl	$0, -76(%rbp)
	je	.L165
	movq	-40(%rbp), %rax
	movl	116(%rax), %eax
	testl	%eax, %eax
	je	.L166
	leaq	.LC33(%rip), %rax
	movq	%rax, -32(%rbp)
	jmp	.L167
.L166:
	leaq	.LC34(%rip), %rax
	movq	%rax, -32(%rbp)
.L167:
	movq	-40(%rbp), %rax
	movl	112(%rax), %esi
	movq	-40(%rbp), %rax
	leaq	78(%rax), %rcx
	movq	-40(%rbp), %rax
	leaq	14(%rax), %rdx
	movq	-40(%rbp), %rax
	movq	-32(%rbp), %rdi
	movq	%rdi, %r9
	movl	%esi, %r8d
	movq	%rax, %rsi
	leaq	.LC35(%rip), %rax
	movq	%rax, %rdi
	movl	$0, %eax
	call	printf@PLT
.L165:
	movq	-40(%rbp), %rax
	movq	120(%rax), %rax
	movq	%rax, -40(%rbp)
.L151:
	cmpq	$0, -40(%rbp)
	jne	.L168
	cmpl	$0, -80(%rbp)
	jne	.L171
	leaq	.LC36(%rip), %rax
	movq	%rax, %rdi
	call	puts@PLT
.L171:
	nop
.L150:
	leave
	.cfi_def_cfa 7, 8
	ret
	.cfi_endproc
.LFE11:
	.size	searchBooks, .-searchBooks
	.globl	addBook
	.type	addBook, @function
addBook:
.LFB12:
	.cfi_startproc
	endbr64
	pushq	%rbp
	.cfi_def_cfa_offset 16
	.cfi_offset 6, -16
	movq	%rsp, %rbp
	.cfi_def_cfa_register 6
	addq	$-128, %rsp
	movq	%rdi, -88(%rbp)
	movq	%rsi, -96(%rbp)
	movq	%rdx, -104(%rbp)
	movq	%rcx, -112(%rbp)
	movl	%r8d, -116(%rbp)
	movl	%r9d, -120(%rbp)
#APP
# 232 "mehme2_cse_assignments_main.c" 1
	##_ANNOTATION_INITIALREGION_-TIG-iO-SooK-1-addBook--14
# 0 "" 2
# 236 "mehme2_cse_assignments_main.c" 1
	##_ANNOTATION_ATOMICREGION_-TIG-iO-SooK-1-addBook--13
# 0 "" 2
#NO_APP
	movl	$24, %edi
	call	malloc@PLT
	movq	%rax, -56(%rbp)
	movq	-56(%rbp), %rax
	movq	-56(%rbp), %rdx
	movq	%rdx, (%rax)
	movq	-56(%rbp), %rax
	movq	-56(%rbp), %rdx
	movq	%rdx, 8(%rax)
	movq	-56(%rbp), %rax
	movq	%rax, _TIG_iO_SooK_1_addBook_1_opaque_list_1(%rip)
	call	rand@PLT
	movl	%eax, -80(%rbp)
	movl	$24, %edi
	call	malloc@PLT
	movq	%rax, -48(%rbp)
	movq	-48(%rbp), %rax
	movl	$0, 16(%rax)
	movq	_TIG_iO_SooK_1_addBook_1_opaque_list_1(%rip), %rax
	movq	(%rax), %rdx
	movq	-48(%rbp), %rax
	movq	%rdx, (%rax)
	movq	_TIG_iO_SooK_1_addBook_1_opaque_list_1(%rip), %rdx
	movq	-48(%rbp), %rax
	movq	%rdx, 8(%rax)
	movq	_TIG_iO_SooK_1_addBook_1_opaque_list_1(%rip), %rax
	movq	(%rax), %rax
	movq	-48(%rbp), %rdx
	movq	%rdx, 8(%rax)
	movq	_TIG_iO_SooK_1_addBook_1_opaque_list_1(%rip), %rax
	movq	-48(%rbp), %rdx
	movq	%rdx, (%rax)
	call	rand@PLT
	movl	%eax, -76(%rbp)
	movl	$24, %edi
	call	malloc@PLT
	movq	%rax, -40(%rbp)
	movq	-40(%rbp), %rax
	movl	-76(%rbp), %edx
	movl	%edx, 16(%rax)
	movq	_TIG_iO_SooK_1_addBook_1_opaque_list_1(%rip), %rax
	movq	(%rax), %rdx
	movq	-40(%rbp), %rax
	movq	%rdx, (%rax)
	movq	_TIG_iO_SooK_1_addBook_1_opaque_list_1(%rip), %rdx
	movq	-40(%rbp), %rax
	movq	%rdx, 8(%rax)
	movq	_TIG_iO_SooK_1_addBook_1_opaque_list_1(%rip), %rax
	movq	(%rax), %rax
	movq	-40(%rbp), %rdx
	movq	%rdx, 8(%rax)
	movq	_TIG_iO_SooK_1_addBook_1_opaque_list_1(%rip), %rax
	movq	-40(%rbp), %rdx
	movq	%rdx, (%rax)
	call	rand@PLT
	movl	%eax, -72(%rbp)
	movl	$24, %edi
	call	malloc@PLT
	movq	%rax, -32(%rbp)
	movl	-72(%rbp), %eax
	leal	(%rax,%rax), %edx
	movq	-32(%rbp), %rax
	movl	%edx, 16(%rax)
	movq	_TIG_iO_SooK_1_addBook_1_opaque_list_1(%rip), %rax
	movq	(%rax), %rdx
	movq	-32(%rbp), %rax
	movq	%rdx, (%rax)
	movq	_TIG_iO_SooK_1_addBook_1_opaque_list_1(%rip), %rdx
	movq	-32(%rbp), %rax
	movq	%rdx, 8(%rax)
	movq	_TIG_iO_SooK_1_addBook_1_opaque_list_1(%rip), %rax
	movq	(%rax), %rax
	movq	-32(%rbp), %rdx
	movq	%rdx, 8(%rax)
	movq	_TIG_iO_SooK_1_addBook_1_opaque_list_1(%rip), %rax
	movq	-32(%rbp), %rdx
	movq	%rdx, (%rax)
	call	rand@PLT
	movl	%eax, -68(%rbp)
	movl	$24, %edi
	call	malloc@PLT
	movq	%rax, -24(%rbp)
	movl	-68(%rbp), %edx
	movl	%edx, %eax
	addl	%eax, %eax
	addl	%eax, %edx
	movq	-24(%rbp), %rax
	movl	%edx, 16(%rax)
	movq	_TIG_iO_SooK_1_addBook_1_opaque_list_1(%rip), %rax
	movq	(%rax), %rdx
	movq	-24(%rbp), %rax
	movq	%rdx, (%rax)
	movq	_TIG_iO_SooK_1_addBook_1_opaque_list_1(%rip), %rdx
	movq	-24(%rbp), %rax
	movq	%rdx, 8(%rax)
	movq	_TIG_iO_SooK_1_addBook_1_opaque_list_1(%rip), %rax
	movq	(%rax), %rax
	movq	-24(%rbp), %rdx
	movq	%rdx, 8(%rax)
	movq	_TIG_iO_SooK_1_addBook_1_opaque_list_1(%rip), %rax
	movq	-24(%rbp), %rdx
	movq	%rdx, (%rax)
	movq	_TIG_iO_SooK_1_addBook_1_opaque_list_1(%rip), %rax
	movq	(%rax), %rax
	movq	%rax, _TIG_iO_SooK_1_addBook_1_opaque_ptr_1(%rip)
	movq	_TIG_iO_SooK_1_addBook_1_opaque_ptr_1(%rip), %rax
	movq	%rax, _TIG_iO_SooK_1_addBook_1_opaque_ptr_2(%rip)
	movq	_TIG_iO_SooK_1_addBook_1_opaque_ptr_2(%rip), %rax
	movq	(%rax), %rax
	movq	%rax, _TIG_iO_SooK_1_addBook_1_opaque_ptr_2(%rip)
	nop
	nop
	movl	$128, %edi
	call	malloc@PLT
	movq	%rax, -16(%rbp)
	movq	-16(%rbp), %rax
	movq	%rax, -8(%rbp)
	movq	-8(%rbp), %rax
	movq	-96(%rbp), %rcx
	movl	$14, %edx
	movq	%rcx, %rsi
	movq	%rax, %rdi
	call	strncpy@PLT
	movq	-8(%rbp), %rax
	leaq	14(%rax), %rcx
	movq	-104(%rbp), %rax
	movl	$64, %edx
	movq	%rax, %rsi
	movq	%rcx, %rdi
	call	strncpy@PLT
	movq	-8(%rbp), %rax
	leaq	78(%rax), %rcx
	movq	-112(%rbp), %rax
	movl	$32, %edx
	movq	%rax, %rsi
	movq	%rcx, %rdi
	call	strncpy@PLT
	movq	-8(%rbp), %rax
	movl	-116(%rbp), %edx
	movl	%edx, 112(%rax)
	movq	-8(%rbp), %rax
	movl	$0, 116(%rax)
	cmpl	$1, -120(%rbp)
	jne	.L173
	movq	-88(%rbp), %rdx
	movq	-8(%rbp), %rax
	movq	%rdx, 120(%rax)
	movq	-8(%rbp), %rax
	movq	%rax, -88(%rbp)
	jmp	.L174
.L173:
	movq	_TIG_iO_SooK_1_updateBook_1_opaque_ptr_1(%rip), %rdx
	movq	_TIG_iO_SooK_1_updateBook_1_opaque_ptr_2(%rip), %rax
	cmpq	%rax, %rdx
	je	.L175
	movq	-88(%rbp), %rax
	movq	-96(%rbp), %rcx
	movl	-76(%rbp), %edx
	movq	%rax, %rsi
	movl	$0, %edi
	call	returnBook
.L175:
	movq	-8(%rbp), %rax
	movq	$0, 120(%rax)
	leaq	-88(%rbp), %rax
	movq	%rax, -64(%rbp)
	jmp	.L176
.L177:
	movq	-64(%rbp), %rax
	movq	(%rax), %rax
	addq	$120, %rax
	movq	%rax, -64(%rbp)
.L176:
	movq	-64(%rbp), %rax
	movq	(%rax), %rax
	testq	%rax, %rax
	jne	.L177
	movq	-64(%rbp), %rax
	movq	-8(%rbp), %rdx
	movq	%rdx, (%rax)
.L174:
	movq	-88(%rbp), %rax
	leave
	.cfi_def_cfa 7, 8
	ret
	.cfi_endproc
.LFE12:
	.size	addBook, .-addBook
	.section	.rodata
	.align 8
.LC37:
	.string	"\nNo matches found with ISBN: %s\n"
	.text
	.globl	deleteBook
	.type	deleteBook, @function
deleteBook:
.LFB14:
	.cfi_startproc
	endbr64
	pushq	%rbp
	.cfi_def_cfa_offset 16
	.cfi_offset 6, -16
	movq	%rsp, %rbp
	.cfi_def_cfa_register 6
	subq	$64, %rsp
	movq	%rdi, -56(%rbp)
	movq	%rsi, -64(%rbp)
#APP
# 60 "/usr/include/x86_64-linux-gnu/bits/uintn-identity.h" 1
	##_ANNOTATION_INITIALREGION_-TIG-iO-SooK-1-deleteBook--20
# 0 "" 2
# 64 "/usr/include/x86_64-linux-gnu/bits/uintn-identity.h" 1
	##_ANNOTATION_ATOMICREGION_-TIG-iO-SooK-1-deleteBook--19
# 0 "" 2
#NO_APP
	movl	$24, %edi
	call	malloc@PLT
	movq	%rax, -24(%rbp)
	movq	-24(%rbp), %rax
	movq	-24(%rbp), %rdx
	movq	%rdx, 8(%rax)
	movq	-24(%rbp), %rax
	movq	-24(%rbp), %rdx
	movq	%rdx, 16(%rax)
	movq	-24(%rbp), %rax
	movq	%rax, _TIG_iO_SooK_1_deleteBook_1_opaque_list_1(%rip)
	call	rand@PLT
	movl	%eax, -44(%rbp)
	movl	$24, %edi
	call	malloc@PLT
	movq	%rax, -16(%rbp)
	movq	-16(%rbp), %rax
	movl	$0, (%rax)
	movq	_TIG_iO_SooK_1_deleteBook_1_opaque_list_1(%rip), %rax
	movq	8(%rax), %rdx
	movq	-16(%rbp), %rax
	movq	%rdx, 8(%rax)
	movq	_TIG_iO_SooK_1_deleteBook_1_opaque_list_1(%rip), %rdx
	movq	-16(%rbp), %rax
	movq	%rdx, 16(%rax)
	movq	_TIG_iO_SooK_1_deleteBook_1_opaque_list_1(%rip), %rax
	movq	8(%rax), %rax
	movq	-16(%rbp), %rdx
	movq	%rdx, 16(%rax)
	movq	_TIG_iO_SooK_1_deleteBook_1_opaque_list_1(%rip), %rax
	movq	-16(%rbp), %rdx
	movq	%rdx, 8(%rax)
	call	rand@PLT
	movl	%eax, -40(%rbp)
	movl	$24, %edi
	call	malloc@PLT
	movq	%rax, -8(%rbp)
	movq	-8(%rbp), %rax
	movl	-40(%rbp), %edx
	movl	%edx, (%rax)
	movq	_TIG_iO_SooK_1_deleteBook_1_opaque_list_1(%rip), %rax
	movq	8(%rax), %rdx
	movq	-8(%rbp), %rax
	movq	%rdx, 8(%rax)
	movq	_TIG_iO_SooK_1_deleteBook_1_opaque_list_1(%rip), %rdx
	movq	-8(%rbp), %rax
	movq	%rdx, 16(%rax)
	movq	_TIG_iO_SooK_1_deleteBook_1_opaque_list_1(%rip), %rax
	movq	8(%rax), %rax
	movq	-8(%rbp), %rdx
	movq	%rdx, 16(%rax)
	movq	_TIG_iO_SooK_1_deleteBook_1_opaque_list_1(%rip), %rax
	movq	-8(%rbp), %rdx
	movq	%rdx, 8(%rax)
	movq	_TIG_iO_SooK_1_deleteBook_1_opaque_list_1(%rip), %rax
	movq	8(%rax), %rax
	movq	%rax, _TIG_iO_SooK_1_deleteBook_1_opaque_ptr_1(%rip)
	movq	_TIG_iO_SooK_1_deleteBook_1_opaque_ptr_1(%rip), %rax
	movq	%rax, _TIG_iO_SooK_1_deleteBook_1_opaque_ptr_2(%rip)
	nop
	nop
	leaq	-56(%rbp), %rax
	movq	%rax, -32(%rbp)
.L184:
	movq	_TIG_iO_SooK_1_updateBook_1_opaque_ptr_1(%rip), %rdx
	movq	_TIG_iO_SooK_1_updateBook_1_opaque_ptr_2(%rip), %rax
	cmpq	%rax, %rdx
	jne	.L180
	movq	-32(%rbp), %rax
	movq	(%rax), %rax
	testq	%rax, %rax
	je	.L188
	movq	-32(%rbp), %rax
	movq	(%rax), %rax
	movq	%rax, %rdx
	movq	-64(%rbp), %rax
	movq	%rax, %rsi
	movq	%rdx, %rdi
	call	strcmp@PLT
	movl	%eax, -36(%rbp)
	cmpl	$0, -36(%rbp)
	jne	.L182
	jmp	.L183
.L180:
#APP
# 77 "mehme2_cse_assignments_main.c" 1
	.byte 0x7d,0x2,0x5d,0xc3,0x48,0x83,0xc7
# 0 "" 2
#NO_APP
.L182:
	movq	-32(%rbp), %rax
	movq	(%rax), %rax
	addq	$120, %rax
	movq	%rax, -32(%rbp)
	jmp	.L184
.L188:
	nop
.L183:
	movq	-32(%rbp), %rax
	movq	(%rax), %rax
	testq	%rax, %rax
	je	.L185
	movq	-32(%rbp), %rax
	movq	(%rax), %rax
	movq	%rax, %rdi
	call	free@PLT
	movq	-32(%rbp), %rax
	movq	(%rax), %rax
	movq	120(%rax), %rdx
	movq	-32(%rbp), %rax
	movq	%rdx, (%rax)
	jmp	.L186
.L185:
	movq	-64(%rbp), %rax
	movq	%rax, %rsi
	leaq	.LC37(%rip), %rax
	movq	%rax, %rdi
	movl	$0, %eax
	call	printf@PLT
.L186:
	movq	-56(%rbp), %rax
	leave
	.cfi_def_cfa 7, 8
	ret
	.cfi_endproc
.LFE14:
	.size	deleteBook, .-deleteBook
	.section	.rodata
.LC38:
	.string	"title"
.LC39:
	.string	"author"
.LC40:
	.string	"publication year"
.LC41:
	.string	"year"
.LC42:
	.string	"\nInvalid feature name: %s\n"
	.text
	.globl	updateBook
	.type	updateBook, @function
updateBook:
.LFB15:
	.cfi_startproc
	endbr64
	pushq	%rbp
	.cfi_def_cfa_offset 16
	.cfi_offset 6, -16
	movq	%rsp, %rbp
	.cfi_def_cfa_register 6
	subq	$96, %rsp
	movq	%rdi, -72(%rbp)
	movq	%rsi, -80(%rbp)
	movq	%rdx, -88(%rbp)
	movq	%rcx, -96(%rbp)
#APP
# 104 "mehme2_cse_assignments_main.c" 1
	##_ANNOTATION_INITIALREGION_-TIG-iO-SooK-1-updateBook--40
# 0 "" 2
# 108 "mehme2_cse_assignments_main.c" 1
	##_ANNOTATION_ATOMICREGION_-TIG-iO-SooK-1-updateBook--39
# 0 "" 2
#NO_APP
	movl	$24, %edi
	call	malloc@PLT
	movq	%rax, -24(%rbp)
	movq	-24(%rbp), %rax
	movq	-24(%rbp), %rdx
	movq	%rdx, 16(%rax)
	movq	-24(%rbp), %rax
	movq	-24(%rbp), %rdx
	movq	%rdx, 8(%rax)
	movq	-24(%rbp), %rax
	movq	%rax, _TIG_iO_SooK_1_updateBook_1_opaque_list_1(%rip)
	call	rand@PLT
	movl	%eax, -60(%rbp)
	movl	$24, %edi
	call	malloc@PLT
	movq	%rax, -16(%rbp)
	movq	-16(%rbp), %rax
	movl	$0, (%rax)
	movq	_TIG_iO_SooK_1_updateBook_1_opaque_list_1(%rip), %rax
	movq	16(%rax), %rdx
	movq	-16(%rbp), %rax
	movq	%rdx, 16(%rax)
	movq	_TIG_iO_SooK_1_updateBook_1_opaque_list_1(%rip), %rdx
	movq	-16(%rbp), %rax
	movq	%rdx, 8(%rax)
	movq	_TIG_iO_SooK_1_updateBook_1_opaque_list_1(%rip), %rax
	movq	16(%rax), %rax
	movq	-16(%rbp), %rdx
	movq	%rdx, 8(%rax)
	movq	_TIG_iO_SooK_1_updateBook_1_opaque_list_1(%rip), %rax
	movq	-16(%rbp), %rdx
	movq	%rdx, 16(%rax)
	call	rand@PLT
	movl	%eax, -56(%rbp)
	movl	$24, %edi
	call	malloc@PLT
	movq	%rax, -8(%rbp)
	movq	-8(%rbp), %rax
	movl	-56(%rbp), %edx
	movl	%edx, (%rax)
	movq	_TIG_iO_SooK_1_updateBook_1_opaque_list_1(%rip), %rax
	movq	16(%rax), %rdx
	movq	-8(%rbp), %rax
	movq	%rdx, 16(%rax)
	movq	_TIG_iO_SooK_1_updateBook_1_opaque_list_1(%rip), %rdx
	movq	-8(%rbp), %rax
	movq	%rdx, 8(%rax)
	movq	_TIG_iO_SooK_1_updateBook_1_opaque_list_1(%rip), %rax
	movq	16(%rax), %rax
	movq	-8(%rbp), %rdx
	movq	%rdx, 8(%rax)
	movq	_TIG_iO_SooK_1_updateBook_1_opaque_list_1(%rip), %rax
	movq	-8(%rbp), %rdx
	movq	%rdx, 16(%rax)
	movq	_TIG_iO_SooK_1_updateBook_1_opaque_list_1(%rip), %rax
	movq	16(%rax), %rax
	movq	%rax, _TIG_iO_SooK_1_updateBook_1_opaque_ptr_1(%rip)
	movq	_TIG_iO_SooK_1_updateBook_1_opaque_ptr_1(%rip), %rax
	movq	%rax, _TIG_iO_SooK_1_updateBook_1_opaque_ptr_2(%rip)
	nop
	nop
	movq	-72(%rbp), %rax
	movq	%rax, -32(%rbp)
.L193:
	cmpq	$0, -32(%rbp)
	je	.L202
	movq	-32(%rbp), %rax
	movq	-80(%rbp), %rdx
	movq	%rdx, %rsi
	movq	%rax, %rdi
	call	strcmp@PLT
	movl	%eax, -52(%rbp)
	cmpl	$0, -52(%rbp)
	je	.L203
	movq	-32(%rbp), %rax
	movq	120(%rax), %rax
	movq	%rax, -32(%rbp)
	jmp	.L193
.L202:
	nop
	jmp	.L192
.L203:
	nop
.L192:
	cmpq	$0, -32(%rbp)
	je	.L194
	movq	-88(%rbp), %rax
	leaq	.LC38(%rip), %rdx
	movq	%rdx, %rsi
	movq	%rax, %rdi
	call	strcmp@PLT
	movl	%eax, -48(%rbp)
	cmpl	$0, -48(%rbp)
	je	.L195
	movq	-88(%rbp), %rax
	leaq	.LC39(%rip), %rdx
	movq	%rdx, %rsi
	movq	%rax, %rdi
	call	strcmp@PLT
	movl	%eax, -44(%rbp)
	cmpl	$0, -44(%rbp)
	je	.L196
	movq	-88(%rbp), %rax
	leaq	.LC40(%rip), %rdx
	movq	%rdx, %rsi
	movq	%rax, %rdi
	call	strcmp@PLT
	movl	%eax, -40(%rbp)
	cmpl	$0, -40(%rbp)
	je	.L197
	movq	-88(%rbp), %rax
	leaq	.LC41(%rip), %rdx
	movq	%rdx, %rsi
	movq	%rax, %rdi
	call	strcmp@PLT
	movl	%eax, -36(%rbp)
	cmpl	$0, -36(%rbp)
	je	.L198
	movq	-88(%rbp), %rax
	movq	%rax, %rsi
	leaq	.LC42(%rip), %rax
	movq	%rax, %rdi
	movl	$0, %eax
	call	printf@PLT
	jmp	.L189
.L198:
	movq	-32(%rbp), %rax
	leaq	112(%rax), %rdx
	movq	-96(%rbp), %rax
	leaq	.LC7(%rip), %rcx
	movq	%rcx, %rsi
	movq	%rax, %rdi
	movl	$0, %eax
	call	__isoc99_sscanf@PLT
	jmp	.L189
.L197:
	movq	-32(%rbp), %rax
	leaq	112(%rax), %rdx
	movq	-96(%rbp), %rax
	leaq	.LC7(%rip), %rcx
	movq	%rcx, %rsi
	movq	%rax, %rdi
	movl	$0, %eax
	call	__isoc99_sscanf@PLT
	jmp	.L189
.L196:
	movq	-32(%rbp), %rax
	leaq	78(%rax), %rcx
	movq	-96(%rbp), %rax
	movl	$32, %edx
	movq	%rax, %rsi
	movq	%rcx, %rdi
	call	strncpy@PLT
	movq	-32(%rbp), %rax
	movb	$0, 109(%rax)
	jmp	.L189
.L195:
	movq	_TIG_iO_SooK_1_updateBook_1_opaque_ptr_1(%rip), %rdx
	movq	_TIG_iO_SooK_1_updateBook_1_opaque_ptr_2(%rip), %rax
	cmpq	%rax, %rdx
	jne	.L200
	movq	-32(%rbp), %rax
	leaq	14(%rax), %rcx
	movq	-96(%rbp), %rax
	movl	$64, %edx
	movq	%rax, %rsi
	movq	%rcx, %rdi
	call	strncpy@PLT
	jmp	.L189
.L200:
	movq	-96(%rbp), %rax
	leaq	-1(%rax), %rcx
	movq	-32(%rbp), %rax
	addq	$14, %rax
	subq	$1, %rax
	movl	$384, %edx
	movq	%rcx, %rsi
	movq	%rax, %rdi
	call	strncpy@PLT
	jmp	.L189
.L194:
	movq	-80(%rbp), %rax
	movq	%rax, %rsi
	leaq	.LC37(%rip), %rax
	movq	%rax, %rdi
	movl	$0, %eax
	call	printf@PLT
	nop
.L189:
	leave
	.cfi_def_cfa 7, 8
	ret
	.cfi_endproc
.LFE15:
	.size	updateBook, .-updateBook
	.section	.rodata
	.align 8
.LC43:
	.string	"\nStudent with ID %d did not borrow a book with ISBN %s.\n"
	.text
	.globl	returnBook
	.type	returnBook, @function
returnBook:
.LFB17:
	.cfi_startproc
	endbr64
	pushq	%rbp
	.cfi_def_cfa_offset 16
	.cfi_offset 6, -16
	movq	%rsp, %rbp
	.cfi_def_cfa_register 6
	subq	$112, %rsp
	movq	%rdi, -88(%rbp)
	movq	%rsi, -96(%rbp)
	movl	%edx, -100(%rbp)
	movq	%rcx, -112(%rbp)
#APP
# 60 "/usr/include/x86_64-linux-gnu/bits/uintn-identity.h" 1
	##_ANNOTATION_INITIALREGION_-TIG-iO-SooK-1-returnBook--32
# 0 "" 2
# 64 "/usr/include/x86_64-linux-gnu/bits/uintn-identity.h" 1
	##_ANNOTATION_ATOMICREGION_-TIG-iO-SooK-1-returnBook--31
# 0 "" 2
#NO_APP
	movl	$24, %edi
	call	malloc@PLT
	movq	%rax, -24(%rbp)
	movq	-24(%rbp), %rax
	movq	-24(%rbp), %rdx
	movq	%rdx, 16(%rax)
	movq	-24(%rbp), %rax
	movq	-24(%rbp), %rdx
	movq	%rdx, (%rax)
	movq	-24(%rbp), %rax
	movq	%rax, _TIG_iO_SooK_1_returnBook_1_opaque_list_1(%rip)
	call	rand@PLT
	movl	%eax, -60(%rbp)
	movl	$24, %edi
	call	malloc@PLT
	movq	%rax, -16(%rbp)
	movq	-16(%rbp), %rax
	movl	$0, 8(%rax)
	movq	_TIG_iO_SooK_1_returnBook_1_opaque_list_1(%rip), %rax
	movq	16(%rax), %rdx
	movq	-16(%rbp), %rax
	movq	%rdx, 16(%rax)
	movq	_TIG_iO_SooK_1_returnBook_1_opaque_list_1(%rip), %rdx
	movq	-16(%rbp), %rax
	movq	%rdx, (%rax)
	movq	_TIG_iO_SooK_1_returnBook_1_opaque_list_1(%rip), %rax
	movq	16(%rax), %rax
	movq	-16(%rbp), %rdx
	movq	%rdx, (%rax)
	movq	_TIG_iO_SooK_1_returnBook_1_opaque_list_1(%rip), %rax
	movq	-16(%rbp), %rdx
	movq	%rdx, 16(%rax)
	call	rand@PLT
	movl	%eax, -56(%rbp)
	movl	$24, %edi
	call	malloc@PLT
	movq	%rax, -8(%rbp)
	movq	-8(%rbp), %rax
	movl	-56(%rbp), %edx
	movl	%edx, 8(%rax)
	movq	_TIG_iO_SooK_1_returnBook_1_opaque_list_1(%rip), %rax
	movq	16(%rax), %rdx
	movq	-8(%rbp), %rax
	movq	%rdx, 16(%rax)
	movq	_TIG_iO_SooK_1_returnBook_1_opaque_list_1(%rip), %rdx
	movq	-8(%rbp), %rax
	movq	%rdx, (%rax)
	movq	_TIG_iO_SooK_1_returnBook_1_opaque_list_1(%rip), %rax
	movq	16(%rax), %rax
	movq	-8(%rbp), %rdx
	movq	%rdx, (%rax)
	movq	_TIG_iO_SooK_1_returnBook_1_opaque_list_1(%rip), %rax
	movq	-8(%rbp), %rdx
	movq	%rdx, 16(%rax)
	movq	_TIG_iO_SooK_1_returnBook_1_opaque_list_1(%rip), %rax
	movq	16(%rax), %rax
	movq	%rax, _TIG_iO_SooK_1_returnBook_1_opaque_ptr_1(%rip)
	movq	_TIG_iO_SooK_1_returnBook_1_opaque_ptr_1(%rip), %rax
	movq	%rax, _TIG_iO_SooK_1_returnBook_1_opaque_ptr_2(%rip)
	nop
	nop
	movq	-88(%rbp), %rax
	movq	%rax, -40(%rbp)
.L208:
	cmpq	$0, -40(%rbp)
	je	.L231
	movq	-40(%rbp), %rax
	movl	32(%rax), %eax
	cmpl	%eax, -100(%rbp)
	je	.L232
	movq	-40(%rbp), %rax
	movq	48(%rax), %rax
	movq	%rax, -40(%rbp)
	jmp	.L208
.L231:
	nop
	jmp	.L207
.L232:
	nop
.L207:
	cmpq	$0, -40(%rbp)
	je	.L209
	movl	$0, -68(%rbp)
	jmp	.L210
.L228:
	movl	-68(%rbp), %eax
	movl	%eax, -52(%rbp)
	addl	$1, -68(%rbp)
	movl	-52(%rbp), %eax
	movl	%eax, -48(%rbp)
	movl	$0, -64(%rbp)
.L214:
	movl	-64(%rbp), %eax
	movslq	%eax, %rdx
	movq	-112(%rbp), %rax
	addq	%rdx, %rax
	movzbl	(%rax), %eax
	testb	%al, %al
	je	.L233
	movl	-64(%rbp), %eax
	movslq	%eax, %rdx
	movq	-112(%rbp), %rax
	addq	%rdx, %rax
	movzbl	(%rax), %edx
	movq	-40(%rbp), %rax
	movq	40(%rax), %rcx
	movl	-68(%rbp), %eax
	cltq
	addq	%rcx, %rax
	movzbl	(%rax), %eax
	cmpb	%al, %dl
	jne	.L234
	addl	$1, -64(%rbp)
	addl	$1, -68(%rbp)
	jmp	.L214
.L233:
	nop
	jmp	.L213
.L234:
	nop
.L213:
	movq	-40(%rbp), %rax
	movq	40(%rax), %rdx
	movl	-68(%rbp), %eax
	cltq
	addq	%rdx, %rax
	movzbl	(%rax), %eax
	testb	%al, %al
	je	.L235
	movq	-40(%rbp), %rax
	movq	40(%rax), %rdx
	movl	-68(%rbp), %eax
	cltq
	addq	%rdx, %rax
	movzbl	(%rax), %eax
	cmpb	$44, %al
	jne	.L227
	movl	-64(%rbp), %eax
	movslq	%eax, %rdx
	movq	-112(%rbp), %rax
	addq	%rdx, %rax
	movzbl	(%rax), %eax
	testb	%al, %al
	jne	.L227
	jmp	.L216
.L235:
	nop
.L216:
	movq	-40(%rbp), %rax
	movq	40(%rax), %rdx
	movl	-68(%rbp), %eax
	cltq
	addq	%rax, %rdx
	movq	-40(%rbp), %rax
	movq	40(%rax), %rcx
	movl	-48(%rbp), %eax
	cltq
	addq	%rcx, %rax
	movq	%rdx, %rsi
	movq	%rax, %rdi
	call	strcpy@PLT
	movq	-96(%rbp), %rax
	movq	%rax, -32(%rbp)
.L221:
	cmpq	$0, -32(%rbp)
	je	.L236
	movq	-32(%rbp), %rax
	movq	-112(%rbp), %rdx
	movq	%rdx, %rsi
	movq	%rax, %rdi
	call	strcmp@PLT
	movl	%eax, -44(%rbp)
	cmpl	$0, -44(%rbp)
	je	.L237
	movq	-32(%rbp), %rax
	movq	120(%rax), %rax
	movq	%rax, -32(%rbp)
	jmp	.L221
.L236:
	nop
	jmp	.L220
.L237:
	nop
.L220:
	cmpq	$0, -32(%rbp)
	je	.L222
	movq	-32(%rbp), %rax
	movl	$0, 116(%rax)
.L222:
	movl	$-1, -68(%rbp)
	jmp	.L223
.L227:
	movq	-40(%rbp), %rax
	movq	40(%rax), %rdx
	movl	-68(%rbp), %eax
	cltq
	addq	%rdx, %rax
	movzbl	(%rax), %eax
	testb	%al, %al
	je	.L210
	movq	_TIG_iO_SooK_1_updateBook_1_opaque_ptr_1(%rip), %rdx
	movq	_TIG_iO_SooK_1_updateBook_1_opaque_ptr_2(%rip), %rax
	cmpq	%rax, %rdx
	je	.L225
#APP
# 256 "mehme2_cse_assignments_main.c" 1
	.byte 0x48
# 0 "" 2
#NO_APP
	jmp	.L226
.L225:
	movq	-40(%rbp), %rax
	movq	40(%rax), %rdx
	movl	-68(%rbp), %eax
	cltq
	addq	%rdx, %rax
	movzbl	(%rax), %eax
	cmpb	$44, %al
	jne	.L226
	jmp	.L210
.L226:
	addl	$1, -68(%rbp)
	jmp	.L227
.L210:
	movq	-40(%rbp), %rax
	movq	40(%rax), %rdx
	movl	-68(%rbp), %eax
	cltq
	addq	%rdx, %rax
	movzbl	(%rax), %eax
	testb	%al, %al
	jne	.L228
.L223:
	cmpl	$-1, -68(%rbp)
	je	.L238
	movq	-112(%rbp), %rdx
	movl	-100(%rbp), %eax
	movl	%eax, %esi
	leaq	.LC43(%rip), %rax
	movq	%rax, %rdi
	movl	$0, %eax
	call	printf@PLT
	jmp	.L238
.L209:
	movl	-100(%rbp), %eax
	movl	%eax, %esi
	leaq	.LC31(%rip), %rax
	movq	%rax, %rdi
	movl	$0, %eax
	call	printf@PLT
	nop
.L238:
	nop
	leave
	.cfi_def_cfa 7, 8
	ret
	.cfi_endproc
.LFE17:
	.size	returnBook, .-returnBook
	.section	.rodata
.LC44:
	.string	"r"
	.align 8
.LC45:
	.string	"%13[^,],%63[^,],%31[^,],%d,%d "
.LC46:
	.string	"%d,%31[^,\n]"
.LC47:
	.string	"%*[^\n]"
.LC48:
	.string	"%[^\n]"
	.text
	.globl	load
	.type	load, @function
load:
.LFB19:
	.cfi_startproc
	endbr64
	pushq	%rbp
	.cfi_def_cfa_offset 16
	.cfi_offset 6, -16
	movq	%rsp, %rbp
	.cfi_def_cfa_register 6
	pushq	%rbx
	subq	$392, %rsp
	.cfi_offset 3, -24
	movq	%rdi, -376(%rbp)
	movq	%rsi, -384(%rbp)
	movq	%rdx, -392(%rbp)
	movq	%rcx, -400(%rbp)
	movq	%fs:40, %rax
	movq	%rax, -24(%rbp)
	xorl	%eax, %eax
#APP
# 109 "/usr/include/x86_64-linux-gnu/bits/byteswap.h" 1
	##_ANNOTATION_INITIALREGION_-TIG-iO-SooK-1-load--26
# 0 "" 2
# 113 "/usr/include/x86_64-linux-gnu/bits/byteswap.h" 1
	##_ANNOTATION_ATOMICREGION_-TIG-iO-SooK-1-load--25
# 0 "" 2
#NO_APP
	movl	$24, %edi
	call	malloc@PLT
	movq	%rax, -320(%rbp)
	movq	-320(%rbp), %rax
	movq	-320(%rbp), %rdx
	movq	%rdx, (%rax)
	movq	-320(%rbp), %rax
	movq	-320(%rbp), %rdx
	movq	%rdx, 16(%rax)
	movq	-320(%rbp), %rax
	movq	%rax, _TIG_iO_SooK_1_load_1_opaque_list_1(%rip)
	call	rand@PLT
	movl	%eax, -368(%rbp)
	movl	$24, %edi
	call	malloc@PLT
	movq	%rax, -312(%rbp)
	movq	-312(%rbp), %rax
	movl	$0, 8(%rax)
	movq	_TIG_iO_SooK_1_load_1_opaque_list_1(%rip), %rax
	movq	(%rax), %rdx
	movq	-312(%rbp), %rax
	movq	%rdx, (%rax)
	movq	_TIG_iO_SooK_1_load_1_opaque_list_1(%rip), %rdx
	movq	-312(%rbp), %rax
	movq	%rdx, 16(%rax)
	movq	_TIG_iO_SooK_1_load_1_opaque_list_1(%rip), %rax
	movq	(%rax), %rax
	movq	-312(%rbp), %rdx
	movq	%rdx, 16(%rax)
	movq	_TIG_iO_SooK_1_load_1_opaque_list_1(%rip), %rax
	movq	-312(%rbp), %rdx
	movq	%rdx, (%rax)
	call	rand@PLT
	movl	%eax, -364(%rbp)
	movl	$24, %edi
	call	malloc@PLT
	movq	%rax, -304(%rbp)
	movq	-304(%rbp), %rax
	movl	-364(%rbp), %edx
	movl	%edx, 8(%rax)
	movq	_TIG_iO_SooK_1_load_1_opaque_list_1(%rip), %rax
	movq	(%rax), %rdx
	movq	-304(%rbp), %rax
	movq	%rdx, (%rax)
	movq	_TIG_iO_SooK_1_load_1_opaque_list_1(%rip), %rdx
	movq	-304(%rbp), %rax
	movq	%rdx, 16(%rax)
	movq	_TIG_iO_SooK_1_load_1_opaque_list_1(%rip), %rax
	movq	(%rax), %rax
	movq	-304(%rbp), %rdx
	movq	%rdx, 16(%rax)
	movq	_TIG_iO_SooK_1_load_1_opaque_list_1(%rip), %rax
	movq	-304(%rbp), %rdx
	movq	%rdx, (%rax)
	call	rand@PLT
	movl	%eax, -360(%rbp)
	movl	$24, %edi
	call	malloc@PLT
	movq	%rax, -296(%rbp)
	movl	-360(%rbp), %eax
	leal	(%rax,%rax), %edx
	movq	-296(%rbp), %rax
	movl	%edx, 8(%rax)
	movq	_TIG_iO_SooK_1_load_1_opaque_list_1(%rip), %rax
	movq	(%rax), %rdx
	movq	-296(%rbp), %rax
	movq	%rdx, (%rax)
	movq	_TIG_iO_SooK_1_load_1_opaque_list_1(%rip), %rdx
	movq	-296(%rbp), %rax
	movq	%rdx, 16(%rax)
	movq	_TIG_iO_SooK_1_load_1_opaque_list_1(%rip), %rax
	movq	(%rax), %rax
	movq	-296(%rbp), %rdx
	movq	%rdx, 16(%rax)
	movq	_TIG_iO_SooK_1_load_1_opaque_list_1(%rip), %rax
	movq	-296(%rbp), %rdx
	movq	%rdx, (%rax)
	call	rand@PLT
	movl	%eax, -356(%rbp)
	movl	$24, %edi
	call	malloc@PLT
	movq	%rax, -288(%rbp)
	movl	-356(%rbp), %edx
	movl	%edx, %eax
	addl	%eax, %eax
	addl	%eax, %edx
	movq	-288(%rbp), %rax
	movl	%edx, 8(%rax)
	movq	_TIG_iO_SooK_1_load_1_opaque_list_1(%rip), %rax
	movq	(%rax), %rdx
	movq	-288(%rbp), %rax
	movq	%rdx, (%rax)
	movq	_TIG_iO_SooK_1_load_1_opaque_list_1(%rip), %rdx
	movq	-288(%rbp), %rax
	movq	%rdx, 16(%rax)
	movq	_TIG_iO_SooK_1_load_1_opaque_list_1(%rip), %rax
	movq	(%rax), %rax
	movq	-288(%rbp), %rdx
	movq	%rdx, 16(%rax)
	movq	_TIG_iO_SooK_1_load_1_opaque_list_1(%rip), %rax
	movq	-288(%rbp), %rdx
	movq	%rdx, (%rax)
	movq	_TIG_iO_SooK_1_load_1_opaque_list_1(%rip), %rax
	movq	(%rax), %rax
	movq	%rax, _TIG_iO_SooK_1_load_1_opaque_ptr_1(%rip)
	movq	_TIG_iO_SooK_1_load_1_opaque_ptr_1(%rip), %rax
	movq	%rax, _TIG_iO_SooK_1_load_1_opaque_ptr_2(%rip)
	nop
	nop
	movq	-376(%rbp), %rax
	leaq	.LC44(%rip), %rdx
	movq	%rdx, %rsi
	movq	%rax, %rdi
	call	fopen@PLT
	movq	%rax, -280(%rbp)
	movq	-392(%rbp), %rax
	movq	$0, (%rax)
	movq	-400(%rbp), %rax
	movq	$0, (%rax)
	cmpq	$0, -280(%rbp)
	je	.L240
	movq	-392(%rbp), %rax
	movq	%rax, -336(%rbp)
.L244:
	leaq	-160(%rbp), %rax
	leaq	112(%rax), %r8
	leaq	-160(%rbp), %rax
	leaq	78(%rax), %rdi
	leaq	-160(%rbp), %rax
	leaq	14(%rax), %rcx
	leaq	-160(%rbp), %rdx
	movq	-280(%rbp), %rax
	subq	$8, %rsp
	leaq	-160(%rbp), %rsi
	addq	$116, %rsi
	pushq	%rsi
	movq	%r8, %r9
	movq	%rdi, %r8
	leaq	.LC45(%rip), %rsi
	movq	%rax, %rdi
	movl	$0, %eax
	call	__isoc99_fscanf@PLT
	addq	$16, %rsp
	movl	%eax, -352(%rbp)
	cmpl	$-1, -352(%rbp)
	je	.L253
	movq	_TIG_iO_SooK_1_updateBook_1_opaque_ptr_1(%rip), %rdx
	movq	_TIG_iO_SooK_1_updateBook_1_opaque_ptr_2(%rip), %rax
	cmpq	%rax, %rdx
	je	.L243
	movl	-360(%rbp), %ecx
	movq	-376(%rbp), %rdx
	movl	-348(%rbp), %eax
	movl	%eax, %esi
	movl	$0, %edi
	call	filterAndSortBooks
	movq	%rax, -272(%rbp)
.L243:
	movq	$0, -40(%rbp)
	movl	$128, %edi
	call	malloc@PLT
	movq	%rax, -264(%rbp)
	movq	-336(%rbp), %rax
	movq	-264(%rbp), %rdx
	movq	%rdx, (%rax)
	movq	-336(%rbp), %rax
	movq	(%rax), %rax
	movq	-160(%rbp), %rcx
	movq	-152(%rbp), %rbx
	movq	%rcx, (%rax)
	movq	%rbx, 8(%rax)
	movq	-144(%rbp), %rcx
	movq	-136(%rbp), %rbx
	movq	%rcx, 16(%rax)
	movq	%rbx, 24(%rax)
	movq	-128(%rbp), %rcx
	movq	-120(%rbp), %rbx
	movq	%rcx, 32(%rax)
	movq	%rbx, 40(%rax)
	movq	-112(%rbp), %rcx
	movq	-104(%rbp), %rbx
	movq	%rcx, 48(%rax)
	movq	%rbx, 56(%rax)
	movq	-96(%rbp), %rcx
	movq	-88(%rbp), %rbx
	movq	%rcx, 64(%rax)
	movq	%rbx, 72(%rax)
	movq	-80(%rbp), %rcx
	movq	-72(%rbp), %rbx
	movq	%rcx, 80(%rax)
	movq	%rbx, 88(%rax)
	movq	-64(%rbp), %rcx
	movq	-56(%rbp), %rbx
	movq	%rcx, 96(%rax)
	movq	%rbx, 104(%rax)
	movq	-48(%rbp), %rcx
	movq	-40(%rbp), %rbx
	movq	%rcx, 112(%rax)
	movq	%rbx, 120(%rax)
	movq	-336(%rbp), %rax
	movq	(%rax), %rax
	addq	$120, %rax
	movq	%rax, -336(%rbp)
	jmp	.L244
.L253:
	nop
	movq	-280(%rbp), %rax
	movq	%rax, %rdi
	call	fclose@PLT
.L240:
	movq	-384(%rbp), %rax
	leaq	.LC44(%rip), %rdx
	movq	%rdx, %rsi
	movq	%rax, %rdi
	call	fopen@PLT
	movq	%rax, -280(%rbp)
	cmpq	$0, -280(%rbp)
	je	.L254
	movq	-400(%rbp), %rax
	movq	%rax, -328(%rbp)
.L248:
	leaq	-224(%rbp), %rdx
	leaq	-224(%rbp), %rax
	leaq	32(%rax), %rsi
	movq	-280(%rbp), %rax
	movq	%rdx, %rcx
	movq	%rsi, %rdx
	leaq	.LC46(%rip), %rsi
	movq	%rax, %rdi
	movl	$0, %eax
	call	__isoc99_fscanf@PLT
	movl	%eax, -344(%rbp)
	cmpl	$-1, -344(%rbp)
	je	.L255
	movq	-280(%rbp), %rax
	movq	%rax, %rdi
	call	ftell@PLT
	movq	%rax, -256(%rbp)
	movq	-256(%rbp), %rax
	movl	%eax, -340(%rbp)
	movq	-280(%rbp), %rax
	leaq	.LC47(%rip), %rdx
	movq	%rdx, %rsi
	movq	%rax, %rdi
	movl	$0, %eax
	call	__isoc99_fscanf@PLT
	movq	-280(%rbp), %rax
	movq	%rax, %rdi
	call	ftell@PLT
	movq	%rax, -248(%rbp)
	movq	-248(%rbp), %rax
	movl	-340(%rbp), %edx
	subl	%edx, %eax
	movl	%eax, -348(%rbp)
	movl	-348(%rbp), %eax
	addl	$1, %eax
	cltq
	movq	%rax, %rdi
	call	malloc@PLT
	movq	%rax, -240(%rbp)
	movq	-240(%rbp), %rax
	movq	%rax, -184(%rbp)
	movl	-340(%rbp), %eax
	movslq	%eax, %rcx
	movq	-280(%rbp), %rax
	movl	$0, %edx
	movq	%rcx, %rsi
	movq	%rax, %rdi
	call	fseek@PLT
	movq	-184(%rbp), %rdx
	movq	-280(%rbp), %rax
	leaq	.LC48(%rip), %rcx
	movq	%rcx, %rsi
	movq	%rax, %rdi
	movl	$0, %eax
	call	__isoc99_fscanf@PLT
	movq	$0, -176(%rbp)
	movl	$56, %edi
	call	malloc@PLT
	movq	%rax, -232(%rbp)
	movq	-328(%rbp), %rax
	movq	-232(%rbp), %rdx
	movq	%rdx, (%rax)
	movq	-328(%rbp), %rax
	movq	(%rax), %rax
	movq	-224(%rbp), %rcx
	movq	-216(%rbp), %rbx
	movq	%rcx, (%rax)
	movq	%rbx, 8(%rax)
	movq	-208(%rbp), %rcx
	movq	-200(%rbp), %rbx
	movq	%rcx, 16(%rax)
	movq	%rbx, 24(%rax)
	movq	-192(%rbp), %rcx
	movq	-184(%rbp), %rbx
	movq	%rcx, 32(%rax)
	movq	%rbx, 40(%rax)
	movq	-176(%rbp), %rdx
	movq	%rdx, 48(%rax)
	movq	-328(%rbp), %rax
	movq	(%rax), %rax
	addq	$48, %rax
	movq	%rax, -328(%rbp)
	jmp	.L248
.L255:
	nop
	movq	-280(%rbp), %rax
	movq	%rax, %rdi
	call	fclose@PLT
	nop
.L254:
	nop
	movq	-24(%rbp), %rax
	subq	%fs:40, %rax
	je	.L250
	call	__stack_chk_fail@PLT
.L250:
	movq	-8(%rbp), %rbx
	leave
	.cfi_def_cfa 7, 8
	ret
	.cfi_endproc
.LFE19:
	.size	load, .-load
	.ident	"GCC: (Ubuntu 11.4.0-1ubuntu1~22.04) 11.4.0"
	.section	.note.GNU-stack,"",@progbits
	.section	.note.gnu.property,"a"
	.align 8
	.long	1f - 0f
	.long	4f - 1f
	.long	5
0:
	.string	"GNU"
1:
	.align 8
	.long	0xc0000002
	.long	3f - 2f
2:
	.long	0x3
3:
	.align 8
4:
