	.file	"moitreyacbx_CodingDsaSem2_7_opaque.c"
	.text
	.globl	_TIG_iO_D57g_1_pop_1_opaque_list_2
	.bss
	.align 8
	.type	_TIG_iO_D57g_1_pop_1_opaque_list_2, @object
	.size	_TIG_iO_D57g_1_pop_1_opaque_list_2, 8
_TIG_iO_D57g_1_pop_1_opaque_list_2:
	.zero	8
	.globl	_TIG_iO_D57g_1___bswap_32_1_opaque_list_2
	.align 8
	.type	_TIG_iO_D57g_1___bswap_32_1_opaque_list_2, @object
	.size	_TIG_iO_D57g_1___bswap_32_1_opaque_list_2, 8
_TIG_iO_D57g_1___bswap_32_1_opaque_list_2:
	.zero	8
	.globl	_TIG_iO_D57g_1_main_1_opaque_ptr_2
	.align 8
	.type	_TIG_iO_D57g_1_main_1_opaque_ptr_2, @object
	.size	_TIG_iO_D57g_1_main_1_opaque_ptr_2, 8
_TIG_iO_D57g_1_main_1_opaque_ptr_2:
	.zero	8
	.globl	_TIG_iO_D57g_1___bswap_64_1_opaque_ptr_1
	.align 8
	.type	_TIG_iO_D57g_1___bswap_64_1_opaque_ptr_1, @object
	.size	_TIG_iO_D57g_1___bswap_64_1_opaque_ptr_1, 8
_TIG_iO_D57g_1___bswap_64_1_opaque_ptr_1:
	.zero	8
	.globl	_TIG_iO_D57g_1_push_1_opaque_ptr_2
	.align 8
	.type	_TIG_iO_D57g_1_push_1_opaque_ptr_2, @object
	.size	_TIG_iO_D57g_1_push_1_opaque_ptr_2, 8
_TIG_iO_D57g_1_push_1_opaque_ptr_2:
	.zero	8
	.globl	_TIG_iO_D57g_1_push_1_opaque_list_1
	.align 8
	.type	_TIG_iO_D57g_1_push_1_opaque_list_1, @object
	.size	_TIG_iO_D57g_1_push_1_opaque_list_1, 8
_TIG_iO_D57g_1_push_1_opaque_list_1:
	.zero	8
	.globl	_TIG_iO_D57g_1_deletefirst_1_opaque_list_1
	.align 8
	.type	_TIG_iO_D57g_1_deletefirst_1_opaque_list_1, @object
	.size	_TIG_iO_D57g_1_deletefirst_1_opaque_list_1, 8
_TIG_iO_D57g_1_deletefirst_1_opaque_list_1:
	.zero	8
	.globl	_TIG_IZ_D57g_envp
	.align 8
	.type	_TIG_IZ_D57g_envp, @object
	.size	_TIG_IZ_D57g_envp, 8
_TIG_IZ_D57g_envp:
	.zero	8
	.globl	_TIG_iO_D57g_1___uint64_identity_1_opaque_ptr_2
	.align 8
	.type	_TIG_iO_D57g_1___uint64_identity_1_opaque_ptr_2, @object
	.size	_TIG_iO_D57g_1___uint64_identity_1_opaque_ptr_2, 8
_TIG_iO_D57g_1___uint64_identity_1_opaque_ptr_2:
	.zero	8
	.globl	_TIG_iO_D57g_1_deletefirst_1_opaque_ptr_1
	.align 8
	.type	_TIG_iO_D57g_1_deletefirst_1_opaque_ptr_1, @object
	.size	_TIG_iO_D57g_1_deletefirst_1_opaque_ptr_1, 8
_TIG_iO_D57g_1_deletefirst_1_opaque_ptr_1:
	.zero	8
	.globl	_TIG_iO_D57g_1_push_1_opaque_list_2
	.align 8
	.type	_TIG_iO_D57g_1_push_1_opaque_list_2, @object
	.size	_TIG_iO_D57g_1_push_1_opaque_list_2, 8
_TIG_iO_D57g_1_push_1_opaque_list_2:
	.zero	8
	.globl	_TIG_iO_D57g_1___bswap_64_1_opaque_list_2
	.align 8
	.type	_TIG_iO_D57g_1___bswap_64_1_opaque_list_2, @object
	.size	_TIG_iO_D57g_1___bswap_64_1_opaque_list_2, 8
_TIG_iO_D57g_1___bswap_64_1_opaque_list_2:
	.zero	8
	.globl	_TIG_iO_D57g_1___uint32_identity_1_opaque_list_1
	.align 8
	.type	_TIG_iO_D57g_1___uint32_identity_1_opaque_list_1, @object
	.size	_TIG_iO_D57g_1___uint32_identity_1_opaque_list_1, 8
_TIG_iO_D57g_1___uint32_identity_1_opaque_list_1:
	.zero	8
	.globl	_TIG_iO_D57g_1___bswap_16_1_opaque_ptr_2
	.align 8
	.type	_TIG_iO_D57g_1___bswap_16_1_opaque_ptr_2, @object
	.size	_TIG_iO_D57g_1___bswap_16_1_opaque_ptr_2, 8
_TIG_iO_D57g_1___bswap_16_1_opaque_ptr_2:
	.zero	8
	.globl	_TIG_iO_D57g_1_peek_1_opaque_list_1
	.align 8
	.type	_TIG_iO_D57g_1_peek_1_opaque_list_1, @object
	.size	_TIG_iO_D57g_1_peek_1_opaque_list_1, 8
_TIG_iO_D57g_1_peek_1_opaque_list_1:
	.zero	8
	.globl	_TIG_iO_D57g_1_peek_1_opaque_list_2
	.align 8
	.type	_TIG_iO_D57g_1_peek_1_opaque_list_2, @object
	.size	_TIG_iO_D57g_1_peek_1_opaque_list_2, 8
_TIG_iO_D57g_1_peek_1_opaque_list_2:
	.zero	8
	.globl	_TIG_iO_D57g_1___uint16_identity_1_opaque_ptr_2
	.align 8
	.type	_TIG_iO_D57g_1___uint16_identity_1_opaque_ptr_2, @object
	.size	_TIG_iO_D57g_1___uint16_identity_1_opaque_ptr_2, 8
_TIG_iO_D57g_1___uint16_identity_1_opaque_ptr_2:
	.zero	8
	.globl	_TIG_iO_D57g_1_main_1_opaque_list_1
	.align 8
	.type	_TIG_iO_D57g_1_main_1_opaque_list_1, @object
	.size	_TIG_iO_D57g_1_main_1_opaque_list_1, 8
_TIG_iO_D57g_1_main_1_opaque_list_1:
	.zero	8
	.globl	_TIG_iO_D57g_1___bswap_64_1_opaque_list_1
	.align 8
	.type	_TIG_iO_D57g_1___bswap_64_1_opaque_list_1, @object
	.size	_TIG_iO_D57g_1___bswap_64_1_opaque_list_1, 8
_TIG_iO_D57g_1___bswap_64_1_opaque_list_1:
	.zero	8
	.globl	_TIG_iO_D57g_1___uint16_identity_1_opaque_list_1
	.align 8
	.type	_TIG_iO_D57g_1___uint16_identity_1_opaque_list_1, @object
	.size	_TIG_iO_D57g_1___uint16_identity_1_opaque_list_1, 8
_TIG_iO_D57g_1___uint16_identity_1_opaque_list_1:
	.zero	8
	.globl	_TIG_iO_D57g_1___uint16_identity_1_opaque_ptr_1
	.align 8
	.type	_TIG_iO_D57g_1___uint16_identity_1_opaque_ptr_1, @object
	.size	_TIG_iO_D57g_1___uint16_identity_1_opaque_ptr_1, 8
_TIG_iO_D57g_1___uint16_identity_1_opaque_ptr_1:
	.zero	8
	.globl	_TIG_IZ_D57g_argc
	.align 4
	.type	_TIG_IZ_D57g_argc, @object
	.size	_TIG_IZ_D57g_argc, 4
_TIG_IZ_D57g_argc:
	.zero	4
	.globl	_TIG_iO_D57g_1___uint32_identity_1_opaque_list_2
	.align 8
	.type	_TIG_iO_D57g_1___uint32_identity_1_opaque_list_2, @object
	.size	_TIG_iO_D57g_1___uint32_identity_1_opaque_list_2, 8
_TIG_iO_D57g_1___uint32_identity_1_opaque_list_2:
	.zero	8
	.globl	_TIG_iO_D57g_1_postfix_evaluation_1_opaque_ptr_2
	.align 8
	.type	_TIG_iO_D57g_1_postfix_evaluation_1_opaque_ptr_2, @object
	.size	_TIG_iO_D57g_1_postfix_evaluation_1_opaque_ptr_2, 8
_TIG_iO_D57g_1_postfix_evaluation_1_opaque_ptr_2:
	.zero	8
	.globl	_TIG_iO_D57g_1_isempty_1_opaque_ptr_2
	.align 8
	.type	_TIG_iO_D57g_1_isempty_1_opaque_ptr_2, @object
	.size	_TIG_iO_D57g_1_isempty_1_opaque_ptr_2, 8
_TIG_iO_D57g_1_isempty_1_opaque_ptr_2:
	.zero	8
	.globl	_TIG_iO_D57g_1___uint64_identity_1_opaque_ptr_1
	.align 8
	.type	_TIG_iO_D57g_1___uint64_identity_1_opaque_ptr_1, @object
	.size	_TIG_iO_D57g_1___uint64_identity_1_opaque_ptr_1, 8
_TIG_iO_D57g_1___uint64_identity_1_opaque_ptr_1:
	.zero	8
	.globl	_TIG_iO_D57g_1___bswap_16_1_opaque_list_1
	.align 8
	.type	_TIG_iO_D57g_1___bswap_16_1_opaque_list_1, @object
	.size	_TIG_iO_D57g_1___bswap_16_1_opaque_list_1, 8
_TIG_iO_D57g_1___bswap_16_1_opaque_list_1:
	.zero	8
	.globl	_TIG_iO_D57g_1___uint32_identity_1_opaque_ptr_1
	.align 8
	.type	_TIG_iO_D57g_1___uint32_identity_1_opaque_ptr_1, @object
	.size	_TIG_iO_D57g_1___uint32_identity_1_opaque_ptr_1, 8
_TIG_iO_D57g_1___uint32_identity_1_opaque_ptr_1:
	.zero	8
	.globl	_TIG_iO_D57g_1___bswap_16_1_opaque_ptr_1
	.align 8
	.type	_TIG_iO_D57g_1___bswap_16_1_opaque_ptr_1, @object
	.size	_TIG_iO_D57g_1___bswap_16_1_opaque_ptr_1, 8
_TIG_iO_D57g_1___bswap_16_1_opaque_ptr_1:
	.zero	8
	.globl	_TIG_iO_D57g_1_deletefirst_1_opaque_list_2
	.align 8
	.type	_TIG_iO_D57g_1_deletefirst_1_opaque_list_2, @object
	.size	_TIG_iO_D57g_1_deletefirst_1_opaque_list_2, 8
_TIG_iO_D57g_1_deletefirst_1_opaque_list_2:
	.zero	8
	.globl	_TIG_iO_D57g_1_createnode_1_opaque_ptr_2
	.align 8
	.type	_TIG_iO_D57g_1_createnode_1_opaque_ptr_2, @object
	.size	_TIG_iO_D57g_1_createnode_1_opaque_ptr_2, 8
_TIG_iO_D57g_1_createnode_1_opaque_ptr_2:
	.zero	8
	.globl	_TIG_iO_D57g_1_deletefirst_1_opaque_ptr_2
	.align 8
	.type	_TIG_iO_D57g_1_deletefirst_1_opaque_ptr_2, @object
	.size	_TIG_iO_D57g_1_deletefirst_1_opaque_ptr_2, 8
_TIG_iO_D57g_1_deletefirst_1_opaque_ptr_2:
	.zero	8
	.globl	_TIG_iO_D57g_1_peek_1_opaque_ptr_1
	.align 8
	.type	_TIG_iO_D57g_1_peek_1_opaque_ptr_1, @object
	.size	_TIG_iO_D57g_1_peek_1_opaque_ptr_1, 8
_TIG_iO_D57g_1_peek_1_opaque_ptr_1:
	.zero	8
	.globl	_TIG_iO_D57g_1_postfix_evaluation_1_opaque_list_2
	.align 8
	.type	_TIG_iO_D57g_1_postfix_evaluation_1_opaque_list_2, @object
	.size	_TIG_iO_D57g_1_postfix_evaluation_1_opaque_list_2, 8
_TIG_iO_D57g_1_postfix_evaluation_1_opaque_list_2:
	.zero	8
	.globl	_TIG_iO_D57g_1_addfirst_1_opaque_ptr_1
	.align 8
	.type	_TIG_iO_D57g_1_addfirst_1_opaque_ptr_1, @object
	.size	_TIG_iO_D57g_1_addfirst_1_opaque_ptr_1, 8
_TIG_iO_D57g_1_addfirst_1_opaque_ptr_1:
	.zero	8
	.globl	_TIG_iO_D57g_1_createnode_1_opaque_ptr_1
	.align 8
	.type	_TIG_iO_D57g_1_createnode_1_opaque_ptr_1, @object
	.size	_TIG_iO_D57g_1_createnode_1_opaque_ptr_1, 8
_TIG_iO_D57g_1_createnode_1_opaque_ptr_1:
	.zero	8
	.globl	_TIG_iO_D57g_1___bswap_16_1_opaque_list_2
	.align 8
	.type	_TIG_iO_D57g_1___bswap_16_1_opaque_list_2, @object
	.size	_TIG_iO_D57g_1___bswap_16_1_opaque_list_2, 8
_TIG_iO_D57g_1___bswap_16_1_opaque_list_2:
	.zero	8
	.globl	_TIG_iO_D57g_1_postfix_evaluation_1_opaque_list_1
	.align 8
	.type	_TIG_iO_D57g_1_postfix_evaluation_1_opaque_list_1, @object
	.size	_TIG_iO_D57g_1_postfix_evaluation_1_opaque_list_1, 8
_TIG_iO_D57g_1_postfix_evaluation_1_opaque_list_1:
	.zero	8
	.globl	_TIG_iO_D57g_1___bswap_64_1_opaque_ptr_2
	.align 8
	.type	_TIG_iO_D57g_1___bswap_64_1_opaque_ptr_2, @object
	.size	_TIG_iO_D57g_1___bswap_64_1_opaque_ptr_2, 8
_TIG_iO_D57g_1___bswap_64_1_opaque_ptr_2:
	.zero	8
	.globl	_TIG_iO_D57g_1___uint32_identity_1_opaque_ptr_2
	.align 8
	.type	_TIG_iO_D57g_1___uint32_identity_1_opaque_ptr_2, @object
	.size	_TIG_iO_D57g_1___uint32_identity_1_opaque_ptr_2, 8
_TIG_iO_D57g_1___uint32_identity_1_opaque_ptr_2:
	.zero	8
	.globl	_TIG_iO_D57g_1___bswap_32_1_opaque_ptr_1
	.align 8
	.type	_TIG_iO_D57g_1___bswap_32_1_opaque_ptr_1, @object
	.size	_TIG_iO_D57g_1___bswap_32_1_opaque_ptr_1, 8
_TIG_iO_D57g_1___bswap_32_1_opaque_ptr_1:
	.zero	8
	.globl	_TIG_iO_D57g_1___uint16_identity_1_opaque_list_2
	.align 8
	.type	_TIG_iO_D57g_1___uint16_identity_1_opaque_list_2, @object
	.size	_TIG_iO_D57g_1___uint16_identity_1_opaque_list_2, 8
_TIG_iO_D57g_1___uint16_identity_1_opaque_list_2:
	.zero	8
	.globl	_TIG_iO_D57g_1_addfirst_1_opaque_list_2
	.align 8
	.type	_TIG_iO_D57g_1_addfirst_1_opaque_list_2, @object
	.size	_TIG_iO_D57g_1_addfirst_1_opaque_list_2, 8
_TIG_iO_D57g_1_addfirst_1_opaque_list_2:
	.zero	8
	.globl	_TIG_iO_D57g_1_pop_1_opaque_list_1
	.align 8
	.type	_TIG_iO_D57g_1_pop_1_opaque_list_1, @object
	.size	_TIG_iO_D57g_1_pop_1_opaque_list_1, 8
_TIG_iO_D57g_1_pop_1_opaque_list_1:
	.zero	8
	.globl	_TIG_iO_D57g_1_push_1_opaque_ptr_1
	.align 8
	.type	_TIG_iO_D57g_1_push_1_opaque_ptr_1, @object
	.size	_TIG_iO_D57g_1_push_1_opaque_ptr_1, 8
_TIG_iO_D57g_1_push_1_opaque_ptr_1:
	.zero	8
	.globl	_TIG_iO_D57g_1___bswap_32_1_opaque_list_1
	.align 8
	.type	_TIG_iO_D57g_1___bswap_32_1_opaque_list_1, @object
	.size	_TIG_iO_D57g_1___bswap_32_1_opaque_list_1, 8
_TIG_iO_D57g_1___bswap_32_1_opaque_list_1:
	.zero	8
	.globl	_TIG_iO_D57g_1_main_1_opaque_ptr_1
	.align 8
	.type	_TIG_iO_D57g_1_main_1_opaque_ptr_1, @object
	.size	_TIG_iO_D57g_1_main_1_opaque_ptr_1, 8
_TIG_iO_D57g_1_main_1_opaque_ptr_1:
	.zero	8
	.globl	_TIG_iO_D57g_1___uint64_identity_1_opaque_list_1
	.align 8
	.type	_TIG_iO_D57g_1___uint64_identity_1_opaque_list_1, @object
	.size	_TIG_iO_D57g_1___uint64_identity_1_opaque_list_1, 8
_TIG_iO_D57g_1___uint64_identity_1_opaque_list_1:
	.zero	8
	.globl	_TIG_iO_D57g_1_isempty_1_opaque_ptr_1
	.align 8
	.type	_TIG_iO_D57g_1_isempty_1_opaque_ptr_1, @object
	.size	_TIG_iO_D57g_1_isempty_1_opaque_ptr_1, 8
_TIG_iO_D57g_1_isempty_1_opaque_ptr_1:
	.zero	8
	.globl	_TIG_iO_D57g_1_isempty_1_opaque_list_1
	.align 8
	.type	_TIG_iO_D57g_1_isempty_1_opaque_list_1, @object
	.size	_TIG_iO_D57g_1_isempty_1_opaque_list_1, 8
_TIG_iO_D57g_1_isempty_1_opaque_list_1:
	.zero	8
	.globl	_TIG_iO_D57g_1_isempty_1_opaque_list_2
	.align 8
	.type	_TIG_iO_D57g_1_isempty_1_opaque_list_2, @object
	.size	_TIG_iO_D57g_1_isempty_1_opaque_list_2, 8
_TIG_iO_D57g_1_isempty_1_opaque_list_2:
	.zero	8
	.globl	_TIG_iO_D57g_1___bswap_32_1_opaque_ptr_2
	.align 8
	.type	_TIG_iO_D57g_1___bswap_32_1_opaque_ptr_2, @object
	.size	_TIG_iO_D57g_1___bswap_32_1_opaque_ptr_2, 8
_TIG_iO_D57g_1___bswap_32_1_opaque_ptr_2:
	.zero	8
	.globl	_TIG_iO_D57g_1_addfirst_1_opaque_list_1
	.align 8
	.type	_TIG_iO_D57g_1_addfirst_1_opaque_list_1, @object
	.size	_TIG_iO_D57g_1_addfirst_1_opaque_list_1, 8
_TIG_iO_D57g_1_addfirst_1_opaque_list_1:
	.zero	8
	.globl	_TIG_iO_D57g_1_postfix_evaluation_1_opaque_ptr_1
	.align 8
	.type	_TIG_iO_D57g_1_postfix_evaluation_1_opaque_ptr_1, @object
	.size	_TIG_iO_D57g_1_postfix_evaluation_1_opaque_ptr_1, 8
_TIG_iO_D57g_1_postfix_evaluation_1_opaque_ptr_1:
	.zero	8
	.globl	_TIG_IZ_D57g_argv
	.align 8
	.type	_TIG_IZ_D57g_argv, @object
	.size	_TIG_IZ_D57g_argv, 8
_TIG_IZ_D57g_argv:
	.zero	8
	.globl	_TIG_iO_D57g_1___uint64_identity_1_opaque_list_2
	.align 8
	.type	_TIG_iO_D57g_1___uint64_identity_1_opaque_list_2, @object
	.size	_TIG_iO_D57g_1___uint64_identity_1_opaque_list_2, 8
_TIG_iO_D57g_1___uint64_identity_1_opaque_list_2:
	.zero	8
	.globl	_TIG_iO_D57g_1_createnode_1_opaque_list_2
	.align 8
	.type	_TIG_iO_D57g_1_createnode_1_opaque_list_2, @object
	.size	_TIG_iO_D57g_1_createnode_1_opaque_list_2, 8
_TIG_iO_D57g_1_createnode_1_opaque_list_2:
	.zero	8
	.globl	_TIG_iO_D57g_1_pop_1_opaque_ptr_2
	.align 8
	.type	_TIG_iO_D57g_1_pop_1_opaque_ptr_2, @object
	.size	_TIG_iO_D57g_1_pop_1_opaque_ptr_2, 8
_TIG_iO_D57g_1_pop_1_opaque_ptr_2:
	.zero	8
	.globl	_TIG_iO_D57g_1_main_1_opaque_list_2
	.align 8
	.type	_TIG_iO_D57g_1_main_1_opaque_list_2, @object
	.size	_TIG_iO_D57g_1_main_1_opaque_list_2, 8
_TIG_iO_D57g_1_main_1_opaque_list_2:
	.zero	8
	.globl	_TIG_iO_D57g_1_createnode_1_opaque_list_1
	.align 8
	.type	_TIG_iO_D57g_1_createnode_1_opaque_list_1, @object
	.size	_TIG_iO_D57g_1_createnode_1_opaque_list_1, 8
_TIG_iO_D57g_1_createnode_1_opaque_list_1:
	.zero	8
	.globl	_TIG_iO_D57g_1_peek_1_opaque_ptr_2
	.align 8
	.type	_TIG_iO_D57g_1_peek_1_opaque_ptr_2, @object
	.size	_TIG_iO_D57g_1_peek_1_opaque_ptr_2, 8
_TIG_iO_D57g_1_peek_1_opaque_ptr_2:
	.zero	8
	.globl	_TIG_iO_D57g_1_pop_1_opaque_ptr_1
	.align 8
	.type	_TIG_iO_D57g_1_pop_1_opaque_ptr_1, @object
	.size	_TIG_iO_D57g_1_pop_1_opaque_ptr_1, 8
_TIG_iO_D57g_1_pop_1_opaque_ptr_1:
	.zero	8
	.globl	_TIG_iO_D57g_1_addfirst_1_opaque_ptr_2
	.align 8
	.type	_TIG_iO_D57g_1_addfirst_1_opaque_ptr_2, @object
	.size	_TIG_iO_D57g_1_addfirst_1_opaque_ptr_2, 8
_TIG_iO_D57g_1_addfirst_1_opaque_ptr_2:
	.zero	8
	.text
	.globl	postfix_evaluation
	.type	postfix_evaluation, @function
postfix_evaluation:
.LFB0:
	.cfi_startproc
	endbr64
	pushq	%rbp
	.cfi_def_cfa_offset 16
	.cfi_offset 6, -16
	movq	%rsp, %rbp
	.cfi_def_cfa_register 6
	subq	$112, %rsp
	movq	%rdi, -104(%rbp)
	movq	%fs:40, %rax
	movq	%rax, -8(%rbp)
	xorl	%eax, %eax
#APP
# 85 "/usr/include/stdlib.h" 1
	##_ANNOTATION_INITIALREGION_-TIG-iO-D57g-1-postfix-evaluation--28
# 0 "" 2
# 89 "/usr/include/stdlib.h" 1
	##_ANNOTATION_ATOMICREGION_-TIG-iO-D57g-1-postfix-evaluation--27
# 0 "" 2
#NO_APP
	movl	$24, %edi
	call	malloc@PLT
	movq	%rax, -40(%rbp)
	movq	-40(%rbp), %rax
	movq	-40(%rbp), %rdx
	movq	%rdx, 16(%rax)
	movq	-40(%rbp), %rax
	movq	-40(%rbp), %rdx
	movq	%rdx, 8(%rax)
	movq	-40(%rbp), %rax
	movq	%rax, _TIG_iO_D57g_1_postfix_evaluation_1_opaque_list_1(%rip)
	call	rand@PLT
	movl	%eax, -76(%rbp)
	movl	$24, %edi
	call	malloc@PLT
	movq	%rax, -32(%rbp)
	movq	-32(%rbp), %rax
	movl	$0, (%rax)
	movq	_TIG_iO_D57g_1_postfix_evaluation_1_opaque_list_1(%rip), %rax
	movq	16(%rax), %rdx
	movq	-32(%rbp), %rax
	movq	%rdx, 16(%rax)
	movq	_TIG_iO_D57g_1_postfix_evaluation_1_opaque_list_1(%rip), %rdx
	movq	-32(%rbp), %rax
	movq	%rdx, 8(%rax)
	movq	_TIG_iO_D57g_1_postfix_evaluation_1_opaque_list_1(%rip), %rax
	movq	16(%rax), %rax
	movq	-32(%rbp), %rdx
	movq	%rdx, 8(%rax)
	movq	_TIG_iO_D57g_1_postfix_evaluation_1_opaque_list_1(%rip), %rax
	movq	-32(%rbp), %rdx
	movq	%rdx, 16(%rax)
	call	rand@PLT
	movl	%eax, -72(%rbp)
	movl	$24, %edi
	call	malloc@PLT
	movq	%rax, -24(%rbp)
	movq	-24(%rbp), %rax
	movl	-72(%rbp), %edx
	movl	%edx, (%rax)
	movq	_TIG_iO_D57g_1_postfix_evaluation_1_opaque_list_1(%rip), %rax
	movq	16(%rax), %rdx
	movq	-24(%rbp), %rax
	movq	%rdx, 16(%rax)
	movq	_TIG_iO_D57g_1_postfix_evaluation_1_opaque_list_1(%rip), %rdx
	movq	-24(%rbp), %rax
	movq	%rdx, 8(%rax)
	movq	_TIG_iO_D57g_1_postfix_evaluation_1_opaque_list_1(%rip), %rax
	movq	16(%rax), %rax
	movq	-24(%rbp), %rdx
	movq	%rdx, 8(%rax)
	movq	_TIG_iO_D57g_1_postfix_evaluation_1_opaque_list_1(%rip), %rax
	movq	-24(%rbp), %rdx
	movq	%rdx, 16(%rax)
	movq	_TIG_iO_D57g_1_postfix_evaluation_1_opaque_list_1(%rip), %rax
	movq	16(%rax), %rax
	movq	%rax, _TIG_iO_D57g_1_postfix_evaluation_1_opaque_ptr_1(%rip)
	movq	_TIG_iO_D57g_1_postfix_evaluation_1_opaque_ptr_1(%rip), %rax
	movq	%rax, _TIG_iO_D57g_1_postfix_evaluation_1_opaque_ptr_2(%rip)
	nop
	nop
	movl	$0, -84(%rbp)
	movq	$0, -48(%rbp)
.L13:
	movq	_TIG_iO_D57g_1_push_1_opaque_ptr_1(%rip), %rdx
	movq	_TIG_iO_D57g_1_push_1_opaque_ptr_2(%rip), %rax
	cmpq	%rax, %rdx
	jne	.L2
	movl	-80(%rbp), %eax
	movd	%eax, %xmm0
	movl	$0, %edi
	call	push
.L2:
	movl	-84(%rbp), %eax
	movslq	%eax, %rdx
	movq	-104(%rbp), %rax
	addq	%rdx, %rax
	movzbl	(%rax), %eax
	testb	%al, %al
	je	.L17
	movl	-84(%rbp), %eax
	movslq	%eax, %rdx
	movq	-104(%rbp), %rax
	addq	%rdx, %rax
	movzbl	(%rax), %eax
	cmpb	$47, %al
	jle	.L18
	movl	-84(%rbp), %eax
	movslq	%eax, %rdx
	movq	-104(%rbp), %rax
	addq	%rdx, %rax
	movzbl	(%rax), %eax
	cmpb	$57, %al
	jg	.L19
	movl	-84(%rbp), %eax
	movl	%eax, -68(%rbp)
	addl	$1, -84(%rbp)
	movl	-68(%rbp), %eax
	movslq	%eax, %rdx
	movq	-104(%rbp), %rax
	addq	%rdx, %rax
	movzbl	(%rax), %eax
	movsbl	%al, %eax
	subl	$48, %eax
	pxor	%xmm2, %xmm2
	cvtsi2ssl	%eax, %xmm2
	movd	%xmm2, %edx
	leaq	-48(%rbp), %rax
	movd	%edx, %xmm0
	movq	%rax, %rdi
	call	push
	jmp	.L13
.L18:
	nop
	jmp	.L5
.L19:
	nop
.L5:
	leaq	-48(%rbp), %rax
	movq	%rax, %rdi
	call	pop
	movd	%xmm0, %eax
	movl	%eax, -64(%rbp)
	leaq	-48(%rbp), %rax
	movq	%rax, %rdi
	call	pop
	movd	%xmm0, %eax
	movl	%eax, -60(%rbp)
	movl	-84(%rbp), %eax
	movl	%eax, -56(%rbp)
	addl	$1, -84(%rbp)
	movl	-56(%rbp), %eax
	movslq	%eax, %rdx
	movq	-104(%rbp), %rax
	addq	%rdx, %rax
	movzbl	(%rax), %eax
	movsbl	%al, %eax
	cmpl	$94, %eax
	je	.L8
	cmpl	$94, %eax
	jg	.L9
	cmpl	$47, %eax
	je	.L10
	cmpl	$47, %eax
	jg	.L9
	cmpl	$45, %eax
	je	.L11
	cmpl	$45, %eax
	jg	.L9
	cmpl	$42, %eax
	je	.L12
	cmpl	$43, %eax
	jne	.L9
	movss	-60(%rbp), %xmm0
	addss	-64(%rbp), %xmm0
	movss	%xmm0, -80(%rbp)
	jmp	.L9
.L11:
	movss	-60(%rbp), %xmm0
	subss	-64(%rbp), %xmm0
	movss	%xmm0, -80(%rbp)
	jmp	.L9
.L12:
	movss	-60(%rbp), %xmm0
	mulss	-64(%rbp), %xmm0
	movss	%xmm0, -80(%rbp)
	jmp	.L9
.L10:
	movss	-60(%rbp), %xmm0
	divss	-64(%rbp), %xmm0
	movss	%xmm0, -80(%rbp)
	jmp	.L9
.L8:
	pxor	%xmm0, %xmm0
	cvtss2sd	-64(%rbp), %xmm0
	pxor	%xmm3, %xmm3
	cvtss2sd	-60(%rbp), %xmm3
	movq	%xmm3, %rax
	movapd	%xmm0, %xmm1
	movq	%rax, %xmm0
	call	pow@PLT
	movq	%xmm0, %rax
	movq	%rax, -16(%rbp)
	pxor	%xmm0, %xmm0
	cvtsd2ss	-16(%rbp), %xmm0
	movss	%xmm0, -80(%rbp)
	nop
.L9:
	movl	-80(%rbp), %edx
	leaq	-48(%rbp), %rax
	movd	%edx, %xmm0
	movq	%rax, %rdi
	call	push
	jmp	.L13
.L17:
	nop
	leaq	-48(%rbp), %rax
	movq	%rax, %rdi
	call	pop
	movd	%xmm0, %eax
	movl	%eax, -52(%rbp)
	movss	-52(%rbp), %xmm0
	movq	-8(%rbp), %rax
	subq	%fs:40, %rax
	je	.L15
	call	__stack_chk_fail@PLT
.L15:
	leave
	.cfi_def_cfa 7, 8
	ret
	.cfi_endproc
.LFE0:
	.size	postfix_evaluation, .-postfix_evaluation
	.globl	pop
	.type	pop, @function
pop:
.LFB1:
	.cfi_startproc
	endbr64
	pushq	%rbp
	.cfi_def_cfa_offset 16
	.cfi_offset 6, -16
	movq	%rsp, %rbp
	.cfi_def_cfa_register 6
	subq	$80, %rsp
	movq	%rdi, -72(%rbp)
#APP
# 136 "moitreyacbx_CodingDsaSem2_7.c" 1
	##_ANNOTATION_INITIALREGION_-TIG-iO-D57g-1-pop--26
# 0 "" 2
# 140 "moitreyacbx_CodingDsaSem2_7.c" 1
	##_ANNOTATION_ATOMICREGION_-TIG-iO-D57g-1-pop--25
# 0 "" 2
#NO_APP
	movl	$24, %edi
	call	malloc@PLT
	movq	%rax, -40(%rbp)
	movq	-40(%rbp), %rax
	movq	-40(%rbp), %rdx
	movq	%rdx, (%rax)
	movq	-40(%rbp), %rax
	movq	-40(%rbp), %rdx
	movq	%rdx, 16(%rax)
	movq	-40(%rbp), %rax
	movq	%rax, _TIG_iO_D57g_1_pop_1_opaque_list_1(%rip)
	call	rand@PLT
	movl	%eax, -56(%rbp)
	movl	$24, %edi
	call	malloc@PLT
	movq	%rax, -32(%rbp)
	movq	-32(%rbp), %rax
	movl	$0, 8(%rax)
	movq	_TIG_iO_D57g_1_pop_1_opaque_list_1(%rip), %rax
	movq	(%rax), %rdx
	movq	-32(%rbp), %rax
	movq	%rdx, (%rax)
	movq	_TIG_iO_D57g_1_pop_1_opaque_list_1(%rip), %rdx
	movq	-32(%rbp), %rax
	movq	%rdx, 16(%rax)
	movq	_TIG_iO_D57g_1_pop_1_opaque_list_1(%rip), %rax
	movq	(%rax), %rax
	movq	-32(%rbp), %rdx
	movq	%rdx, 16(%rax)
	movq	_TIG_iO_D57g_1_pop_1_opaque_list_1(%rip), %rax
	movq	-32(%rbp), %rdx
	movq	%rdx, (%rax)
	call	rand@PLT
	movl	%eax, -52(%rbp)
	movl	$24, %edi
	call	malloc@PLT
	movq	%rax, -24(%rbp)
	movq	-24(%rbp), %rax
	movl	-52(%rbp), %edx
	movl	%edx, 8(%rax)
	movq	_TIG_iO_D57g_1_pop_1_opaque_list_1(%rip), %rax
	movq	(%rax), %rdx
	movq	-24(%rbp), %rax
	movq	%rdx, (%rax)
	movq	_TIG_iO_D57g_1_pop_1_opaque_list_1(%rip), %rdx
	movq	-24(%rbp), %rax
	movq	%rdx, 16(%rax)
	movq	_TIG_iO_D57g_1_pop_1_opaque_list_1(%rip), %rax
	movq	(%rax), %rax
	movq	-24(%rbp), %rdx
	movq	%rdx, 16(%rax)
	movq	_TIG_iO_D57g_1_pop_1_opaque_list_1(%rip), %rax
	movq	-24(%rbp), %rdx
	movq	%rdx, (%rax)
	call	rand@PLT
	movl	%eax, -48(%rbp)
	movl	$24, %edi
	call	malloc@PLT
	movq	%rax, -16(%rbp)
	movl	-48(%rbp), %eax
	leal	(%rax,%rax), %edx
	movq	-16(%rbp), %rax
	movl	%edx, 8(%rax)
	movq	_TIG_iO_D57g_1_pop_1_opaque_list_1(%rip), %rax
	movq	(%rax), %rdx
	movq	-16(%rbp), %rax
	movq	%rdx, (%rax)
	movq	_TIG_iO_D57g_1_pop_1_opaque_list_1(%rip), %rdx
	movq	-16(%rbp), %rax
	movq	%rdx, 16(%rax)
	movq	_TIG_iO_D57g_1_pop_1_opaque_list_1(%rip), %rax
	movq	(%rax), %rax
	movq	-16(%rbp), %rdx
	movq	%rdx, 16(%rax)
	movq	_TIG_iO_D57g_1_pop_1_opaque_list_1(%rip), %rax
	movq	-16(%rbp), %rdx
	movq	%rdx, (%rax)
	call	rand@PLT
	movl	%eax, -44(%rbp)
	movl	$24, %edi
	call	malloc@PLT
	movq	%rax, -8(%rbp)
	movl	-44(%rbp), %edx
	movl	%edx, %eax
	addl	%eax, %eax
	addl	%eax, %edx
	movq	-8(%rbp), %rax
	movl	%edx, 8(%rax)
	movq	_TIG_iO_D57g_1_pop_1_opaque_list_1(%rip), %rax
	movq	(%rax), %rdx
	movq	-8(%rbp), %rax
	movq	%rdx, (%rax)
	movq	_TIG_iO_D57g_1_pop_1_opaque_list_1(%rip), %rdx
	movq	-8(%rbp), %rax
	movq	%rdx, 16(%rax)
	movq	_TIG_iO_D57g_1_pop_1_opaque_list_1(%rip), %rax
	movq	(%rax), %rax
	movq	-8(%rbp), %rdx
	movq	%rdx, 16(%rax)
	movq	_TIG_iO_D57g_1_pop_1_opaque_list_1(%rip), %rax
	movq	-8(%rbp), %rdx
	movq	%rdx, (%rax)
	movq	_TIG_iO_D57g_1_pop_1_opaque_list_1(%rip), %rax
	movq	(%rax), %rax
	movq	%rax, _TIG_iO_D57g_1_pop_1_opaque_ptr_1(%rip)
	movq	_TIG_iO_D57g_1_pop_1_opaque_ptr_1(%rip), %rax
	movq	%rax, _TIG_iO_D57g_1_pop_1_opaque_ptr_2(%rip)
	nop
	nop
	movq	-72(%rbp), %rax
	movq	(%rax), %rdi
	call	isempty
	movb	%al, -61(%rbp)
	cmpb	$0, -61(%rbp)
	je	.L21
	movss	.LC0(%rip), %xmm0
	jmp	.L22
.L21:
	movq	_TIG_iO_D57g_1_push_1_opaque_ptr_1(%rip), %rdx
	movq	_TIG_iO_D57g_1_push_1_opaque_ptr_2(%rip), %rax
	cmpq	%rax, %rdx
	je	.L23
	movq	-72(%rbp), %rax
	movq	%rax, %rdi
	call	deletefirst
	movd	%xmm0, %eax
	movl	%eax, -60(%rbp)
.L23:
	movss	-60(%rbp), %xmm0
.L22:
	leave
	.cfi_def_cfa 7, 8
	ret
	.cfi_endproc
.LFE1:
	.size	pop, .-pop
	.section	.rodata
	.align 8
.LC1:
	.string	"Enter the postfix expression :"
.LC2:
	.string	"Evaluated value = %f\n"
	.align 8
.LC3:
	.string	"Enter the postfix expression :\n"
	.text
	.globl	main
	.type	main, @function
main:
.LFB4:
	.cfi_startproc
	endbr64
	pushq	%rbp
	.cfi_def_cfa_offset 16
	.cfi_offset 6, -16
	movq	%rsp, %rbp
	.cfi_def_cfa_register 6
	subq	$144, %rsp
	movl	%edi, -116(%rbp)
	movq	%rsi, -128(%rbp)
	movq	%rdx, -136(%rbp)
	movq	%fs:40, %rax
	movq	%rax, -8(%rbp)
	xorl	%eax, %eax
	movq	$0, _TIG_IZ_D57g_envp(%rip)
	nop
.L25:
	movq	$0, _TIG_IZ_D57g_argv(%rip)
	nop
.L26:
	movl	$0, _TIG_IZ_D57g_argc(%rip)
	nop
	nop
.L27:
.L28:
#APP
# 120 "/usr/include/x86_64-linux-gnu/bits/byteswap.h" 1
	##_ANNOTATION_INITIALREGION_-TIG-IZ-D57g--0
# 0 "" 2
#NO_APP
	movl	-116(%rbp), %eax
	movl	%eax, _TIG_IZ_D57g_argc(%rip)
	movq	-128(%rbp), %rax
	movq	%rax, _TIG_IZ_D57g_argv(%rip)
	movq	-136(%rbp), %rax
	movq	%rax, _TIG_IZ_D57g_envp(%rip)
#APP
# 127 "/usr/include/x86_64-linux-gnu/bits/byteswap.h" 1
	##_ANNOTATION_ATOMICREGION_-TIG-iO-D57g-1-main--21
# 0 "" 2
#NO_APP
	movl	$24, %edi
	call	malloc@PLT
	movq	%rax, -96(%rbp)
	movq	-96(%rbp), %rax
	movq	-96(%rbp), %rdx
	movq	%rdx, (%rax)
	movq	-96(%rbp), %rax
	movq	-96(%rbp), %rdx
	movq	%rdx, 16(%rax)
	movq	-96(%rbp), %rax
	movq	%rax, _TIG_iO_D57g_1_main_1_opaque_list_1(%rip)
	call	rand@PLT
	movl	%eax, -112(%rbp)
	movl	$24, %edi
	call	malloc@PLT
	movq	%rax, -88(%rbp)
	movq	-88(%rbp), %rax
	movl	$0, 8(%rax)
	movq	_TIG_iO_D57g_1_main_1_opaque_list_1(%rip), %rax
	movq	(%rax), %rdx
	movq	-88(%rbp), %rax
	movq	%rdx, (%rax)
	movq	_TIG_iO_D57g_1_main_1_opaque_list_1(%rip), %rdx
	movq	-88(%rbp), %rax
	movq	%rdx, 16(%rax)
	movq	_TIG_iO_D57g_1_main_1_opaque_list_1(%rip), %rax
	movq	(%rax), %rax
	movq	-88(%rbp), %rdx
	movq	%rdx, 16(%rax)
	movq	_TIG_iO_D57g_1_main_1_opaque_list_1(%rip), %rax
	movq	-88(%rbp), %rdx
	movq	%rdx, (%rax)
	call	rand@PLT
	movl	%eax, -108(%rbp)
	movl	$24, %edi
	call	malloc@PLT
	movq	%rax, -80(%rbp)
	movq	-80(%rbp), %rax
	movl	-108(%rbp), %edx
	movl	%edx, 8(%rax)
	movq	_TIG_iO_D57g_1_main_1_opaque_list_1(%rip), %rax
	movq	(%rax), %rdx
	movq	-80(%rbp), %rax
	movq	%rdx, (%rax)
	movq	_TIG_iO_D57g_1_main_1_opaque_list_1(%rip), %rdx
	movq	-80(%rbp), %rax
	movq	%rdx, 16(%rax)
	movq	_TIG_iO_D57g_1_main_1_opaque_list_1(%rip), %rax
	movq	(%rax), %rax
	movq	-80(%rbp), %rdx
	movq	%rdx, 16(%rax)
	movq	_TIG_iO_D57g_1_main_1_opaque_list_1(%rip), %rax
	movq	-80(%rbp), %rdx
	movq	%rdx, (%rax)
	call	rand@PLT
	movl	%eax, -104(%rbp)
	movl	$24, %edi
	call	malloc@PLT
	movq	%rax, -72(%rbp)
	movl	-104(%rbp), %eax
	leal	(%rax,%rax), %edx
	movq	-72(%rbp), %rax
	movl	%edx, 8(%rax)
	movq	_TIG_iO_D57g_1_main_1_opaque_list_1(%rip), %rax
	movq	(%rax), %rdx
	movq	-72(%rbp), %rax
	movq	%rdx, (%rax)
	movq	_TIG_iO_D57g_1_main_1_opaque_list_1(%rip), %rdx
	movq	-72(%rbp), %rax
	movq	%rdx, 16(%rax)
	movq	_TIG_iO_D57g_1_main_1_opaque_list_1(%rip), %rax
	movq	(%rax), %rax
	movq	-72(%rbp), %rdx
	movq	%rdx, 16(%rax)
	movq	_TIG_iO_D57g_1_main_1_opaque_list_1(%rip), %rax
	movq	-72(%rbp), %rdx
	movq	%rdx, (%rax)
	movq	_TIG_iO_D57g_1_main_1_opaque_list_1(%rip), %rax
	movq	(%rax), %rax
	movq	%rax, _TIG_iO_D57g_1_main_1_opaque_ptr_1(%rip)
	movq	_TIG_iO_D57g_1_main_1_opaque_ptr_1(%rip), %rax
	movq	%rax, _TIG_iO_D57g_1_main_1_opaque_ptr_2(%rip)
	movq	_TIG_iO_D57g_1_main_1_opaque_ptr_2(%rip), %rax
	movq	(%rax), %rax
	movq	%rax, _TIG_iO_D57g_1_main_1_opaque_ptr_2(%rip)
	nop
	nop
	movq	_TIG_iO_D57g_1_push_1_opaque_ptr_1(%rip), %rdx
	movq	_TIG_iO_D57g_1_push_1_opaque_ptr_2(%rip), %rax
	cmpq	%rax, %rdx
	je	.L29
	leaq	.LC1(%rip), %rax
	movq	%rax, %rdi
	call	puts@PLT
	leaq	-64(%rbp), %rax
	movq	%rax, %rdi
	movl	$0, %eax
	call	gets@PLT
	leaq	-64(%rbp), %rax
	movq	%rax, %rdi
	call	postfix_evaluation
	movd	%xmm0, %eax
	movl	%eax, -100(%rbp)
	pxor	%xmm1, %xmm1
	cvtss2sd	-100(%rbp), %xmm1
	movq	%xmm1, %rax
	movq	%rax, %xmm0
	leaq	.LC2(%rip), %rax
	movq	%rax, %rdi
	movl	$1, %eax
	call	printf@PLT
	jmp	.L30
.L29:
	leaq	1+.LC3(%rip), %rax
	movq	%rax, %rdi
	movl	$0, %eax
	call	printf@PLT
	leaq	-64(%rbp), %rax
	subq	$1, %rax
	movq	%rax, %rdi
	movl	$0, %eax
	call	gets@PLT
	leaq	-64(%rbp), %rax
	addq	$1, %rax
	movq	%rax, %rdi
	call	postfix_evaluation
	movd	%xmm0, %eax
	movl	%eax, -100(%rbp)
	leaq	-1+.LC2(%rip), %rdx
	movq	.LC4(%rip), %rax
	movq	%rax, %xmm0
	movq	%rdx, %rdi
	movl	$1, %eax
	call	printf@PLT
.L30:
	movl	$0, %eax
	movq	-8(%rbp), %rdx
	subq	%fs:40, %rdx
	je	.L32
	call	__stack_chk_fail@PLT
.L32:
	leave
	.cfi_def_cfa 7, 8
	ret
	.cfi_endproc
.LFE4:
	.size	main, .-main
	.globl	push
	.type	push, @function
push:
.LFB5:
	.cfi_startproc
	endbr64
	pushq	%rbp
	.cfi_def_cfa_offset 16
	.cfi_offset 6, -16
	movq	%rsp, %rbp
	.cfi_def_cfa_register 6
	subq	$80, %rsp
	movq	%rdi, -72(%rbp)
	movss	%xmm0, -76(%rbp)
#APP
# 143 "moitreyacbx_CodingDsaSem2_7.c" 1
	##_ANNOTATION_INITIALREGION_-TIG-iO-D57g-1-push--30
# 0 "" 2
# 147 "moitreyacbx_CodingDsaSem2_7.c" 1
	##_ANNOTATION_ATOMICREGION_-TIG-iO-D57g-1-push--29
# 0 "" 2
#NO_APP
	movl	$24, %edi
	call	malloc@PLT
	movq	%rax, -40(%rbp)
	movq	-40(%rbp), %rax
	movq	-40(%rbp), %rdx
	movq	%rdx, 8(%rax)
	movq	-40(%rbp), %rax
	movq	-40(%rbp), %rdx
	movq	%rdx, (%rax)
	movq	-40(%rbp), %rax
	movq	%rax, _TIG_iO_D57g_1_push_1_opaque_list_1(%rip)
	call	rand@PLT
	movl	%eax, -56(%rbp)
	movl	$24, %edi
	call	malloc@PLT
	movq	%rax, -32(%rbp)
	movq	-32(%rbp), %rax
	movl	$0, 16(%rax)
	movq	_TIG_iO_D57g_1_push_1_opaque_list_1(%rip), %rax
	movq	8(%rax), %rdx
	movq	-32(%rbp), %rax
	movq	%rdx, 8(%rax)
	movq	_TIG_iO_D57g_1_push_1_opaque_list_1(%rip), %rdx
	movq	-32(%rbp), %rax
	movq	%rdx, (%rax)
	movq	_TIG_iO_D57g_1_push_1_opaque_list_1(%rip), %rax
	movq	8(%rax), %rax
	movq	-32(%rbp), %rdx
	movq	%rdx, (%rax)
	movq	_TIG_iO_D57g_1_push_1_opaque_list_1(%rip), %rax
	movq	-32(%rbp), %rdx
	movq	%rdx, 8(%rax)
	call	rand@PLT
	movl	%eax, -52(%rbp)
	movl	$24, %edi
	call	malloc@PLT
	movq	%rax, -24(%rbp)
	movq	-24(%rbp), %rax
	movl	-52(%rbp), %edx
	movl	%edx, 16(%rax)
	movq	_TIG_iO_D57g_1_push_1_opaque_list_1(%rip), %rax
	movq	8(%rax), %rdx
	movq	-24(%rbp), %rax
	movq	%rdx, 8(%rax)
	movq	_TIG_iO_D57g_1_push_1_opaque_list_1(%rip), %rdx
	movq	-24(%rbp), %rax
	movq	%rdx, (%rax)
	movq	_TIG_iO_D57g_1_push_1_opaque_list_1(%rip), %rax
	movq	8(%rax), %rax
	movq	-24(%rbp), %rdx
	movq	%rdx, (%rax)
	movq	_TIG_iO_D57g_1_push_1_opaque_list_1(%rip), %rax
	movq	-24(%rbp), %rdx
	movq	%rdx, 8(%rax)
	call	rand@PLT
	movl	%eax, -48(%rbp)
	movl	$24, %edi
	call	malloc@PLT
	movq	%rax, -16(%rbp)
	movl	-48(%rbp), %eax
	leal	(%rax,%rax), %edx
	movq	-16(%rbp), %rax
	movl	%edx, 16(%rax)
	movq	_TIG_iO_D57g_1_push_1_opaque_list_1(%rip), %rax
	movq	8(%rax), %rdx
	movq	-16(%rbp), %rax
	movq	%rdx, 8(%rax)
	movq	_TIG_iO_D57g_1_push_1_opaque_list_1(%rip), %rdx
	movq	-16(%rbp), %rax
	movq	%rdx, (%rax)
	movq	_TIG_iO_D57g_1_push_1_opaque_list_1(%rip), %rax
	movq	8(%rax), %rax
	movq	-16(%rbp), %rdx
	movq	%rdx, (%rax)
	movq	_TIG_iO_D57g_1_push_1_opaque_list_1(%rip), %rax
	movq	-16(%rbp), %rdx
	movq	%rdx, 8(%rax)
	call	rand@PLT
	movl	%eax, -44(%rbp)
	movl	$24, %edi
	call	malloc@PLT
	movq	%rax, -8(%rbp)
	movl	-44(%rbp), %edx
	movl	%edx, %eax
	addl	%eax, %eax
	addl	%eax, %edx
	movq	-8(%rbp), %rax
	movl	%edx, 16(%rax)
	movq	_TIG_iO_D57g_1_push_1_opaque_list_1(%rip), %rax
	movq	8(%rax), %rdx
	movq	-8(%rbp), %rax
	movq	%rdx, 8(%rax)
	movq	_TIG_iO_D57g_1_push_1_opaque_list_1(%rip), %rdx
	movq	-8(%rbp), %rax
	movq	%rdx, (%rax)
	movq	_TIG_iO_D57g_1_push_1_opaque_list_1(%rip), %rax
	movq	8(%rax), %rax
	movq	-8(%rbp), %rdx
	movq	%rdx, (%rax)
	movq	_TIG_iO_D57g_1_push_1_opaque_list_1(%rip), %rax
	movq	-8(%rbp), %rdx
	movq	%rdx, 8(%rax)
	movq	_TIG_iO_D57g_1_push_1_opaque_list_1(%rip), %rax
	movq	8(%rax), %rax
	movq	%rax, _TIG_iO_D57g_1_push_1_opaque_ptr_1(%rip)
	movq	_TIG_iO_D57g_1_push_1_opaque_ptr_1(%rip), %rax
	movq	%rax, _TIG_iO_D57g_1_push_1_opaque_ptr_2(%rip)
	movq	_TIG_iO_D57g_1_push_1_opaque_ptr_2(%rip), %rax
	movq	8(%rax), %rax
	movq	%rax, _TIG_iO_D57g_1_push_1_opaque_ptr_2(%rip)
	nop
	nop
	movq	-72(%rbp), %rax
	movl	-76(%rbp), %edx
	movd	%edx, %xmm0
	movq	%rax, %rdi
	call	addfirst
	movq	_TIG_iO_D57g_1_push_1_opaque_ptr_1(%rip), %rdx
	movq	_TIG_iO_D57g_1_push_1_opaque_ptr_2(%rip), %rax
	cmpq	%rax, %rdx
	leave
	.cfi_def_cfa 7, 8
	ret
	.cfi_endproc
.LFE5:
	.size	push, .-push
	.globl	deletefirst
	.type	deletefirst, @function
deletefirst:
.LFB10:
	.cfi_startproc
	endbr64
	pushq	%rbp
	.cfi_def_cfa_offset 16
	.cfi_offset 6, -16
	movq	%rsp, %rbp
	.cfi_def_cfa_register 6
	subq	$64, %rsp
	movq	%rdi, -56(%rbp)
#APP
# 73 "/usr/include/x86_64-linux-gnu/bits/byteswap.h" 1
	##_ANNOTATION_INITIALREGION_-TIG-iO-D57g-1-deletefirst--18
# 0 "" 2
# 77 "/usr/include/x86_64-linux-gnu/bits/byteswap.h" 1
	##_ANNOTATION_ATOMICREGION_-TIG-iO-D57g-1-deletefirst--17
# 0 "" 2
#NO_APP
	movl	$24, %edi
	call	malloc@PLT
	movq	%rax, -24(%rbp)
	movq	-24(%rbp), %rax
	movq	-24(%rbp), %rdx
	movq	%rdx, 8(%rax)
	movq	-24(%rbp), %rax
	movq	-24(%rbp), %rdx
	movq	%rdx, (%rax)
	movq	-24(%rbp), %rax
	movq	%rax, _TIG_iO_D57g_1_deletefirst_1_opaque_list_1(%rip)
	call	rand@PLT
	movl	%eax, -40(%rbp)
	movl	$24, %edi
	call	malloc@PLT
	movq	%rax, -16(%rbp)
	movq	-16(%rbp), %rax
	movl	$0, 16(%rax)
	movq	_TIG_iO_D57g_1_deletefirst_1_opaque_list_1(%rip), %rax
	movq	8(%rax), %rdx
	movq	-16(%rbp), %rax
	movq	%rdx, 8(%rax)
	movq	_TIG_iO_D57g_1_deletefirst_1_opaque_list_1(%rip), %rdx
	movq	-16(%rbp), %rax
	movq	%rdx, (%rax)
	movq	_TIG_iO_D57g_1_deletefirst_1_opaque_list_1(%rip), %rax
	movq	8(%rax), %rax
	movq	-16(%rbp), %rdx
	movq	%rdx, (%rax)
	movq	_TIG_iO_D57g_1_deletefirst_1_opaque_list_1(%rip), %rax
	movq	-16(%rbp), %rdx
	movq	%rdx, 8(%rax)
	call	rand@PLT
	movl	%eax, -36(%rbp)
	movl	$24, %edi
	call	malloc@PLT
	movq	%rax, -8(%rbp)
	movq	-8(%rbp), %rax
	movl	-36(%rbp), %edx
	movl	%edx, 16(%rax)
	movq	_TIG_iO_D57g_1_deletefirst_1_opaque_list_1(%rip), %rax
	movq	8(%rax), %rdx
	movq	-8(%rbp), %rax
	movq	%rdx, 8(%rax)
	movq	_TIG_iO_D57g_1_deletefirst_1_opaque_list_1(%rip), %rdx
	movq	-8(%rbp), %rax
	movq	%rdx, (%rax)
	movq	_TIG_iO_D57g_1_deletefirst_1_opaque_list_1(%rip), %rax
	movq	8(%rax), %rax
	movq	-8(%rbp), %rdx
	movq	%rdx, (%rax)
	movq	_TIG_iO_D57g_1_deletefirst_1_opaque_list_1(%rip), %rax
	movq	-8(%rbp), %rdx
	movq	%rdx, 8(%rax)
	movq	_TIG_iO_D57g_1_deletefirst_1_opaque_list_1(%rip), %rax
	movq	8(%rax), %rax
	movq	%rax, _TIG_iO_D57g_1_deletefirst_1_opaque_ptr_1(%rip)
	movq	_TIG_iO_D57g_1_deletefirst_1_opaque_ptr_1(%rip), %rax
	movq	%rax, _TIG_iO_D57g_1_deletefirst_1_opaque_ptr_2(%rip)
	movq	_TIG_iO_D57g_1_deletefirst_1_opaque_ptr_2(%rip), %rax
	movq	8(%rax), %rax
	movq	%rax, _TIG_iO_D57g_1_deletefirst_1_opaque_ptr_2(%rip)
	nop
	nop
	movq	_TIG_iO_D57g_1_push_1_opaque_ptr_1(%rip), %rdx
	movq	_TIG_iO_D57g_1_push_1_opaque_ptr_2(%rip), %rax
	cmpq	%rax, %rdx
	je	.L36
	movq	-56(%rbp), %rax
	movq	(%rax), %rax
	movq	%rax, -32(%rbp)
	movq	-56(%rbp), %rax
	movq	(%rax), %rax
	movq	8(%rax), %rdx
	movq	-56(%rbp), %rax
	movq	%rdx, (%rax)
.L36:
	movq	-32(%rbp), %rax
	movss	(%rax), %xmm0
	leave
	.cfi_def_cfa 7, 8
	ret
	.cfi_endproc
.LFE10:
	.size	deletefirst, .-deletefirst
	.globl	isempty
	.type	isempty, @function
isempty:
.LFB11:
	.cfi_startproc
	endbr64
	pushq	%rbp
	.cfi_def_cfa_offset 16
	.cfi_offset 6, -16
	movq	%rsp, %rbp
	.cfi_def_cfa_register 6
	subq	$48, %rsp
	movq	%rdi, -40(%rbp)
#APP
# 69 "moitreyacbx_CodingDsaSem2_7.c" 1
	##_ANNOTATION_INITIALREGION_-TIG-iO-D57g-1-isempty--20
# 0 "" 2
# 73 "moitreyacbx_CodingDsaSem2_7.c" 1
	##_ANNOTATION_ATOMICREGION_-TIG-iO-D57g-1-isempty--19
# 0 "" 2
#NO_APP
	movl	$24, %edi
	call	malloc@PLT
	movq	%rax, -24(%rbp)
	movq	-24(%rbp), %rax
	movq	-24(%rbp), %rdx
	movq	%rdx, 8(%rax)
	movq	-24(%rbp), %rax
	movq	-24(%rbp), %rdx
	movq	%rdx, 16(%rax)
	movq	-24(%rbp), %rax
	movq	%rax, _TIG_iO_D57g_1_isempty_1_opaque_list_1(%rip)
	call	rand@PLT
	movl	%eax, -32(%rbp)
	movl	$24, %edi
	call	malloc@PLT
	movq	%rax, -16(%rbp)
	movq	-16(%rbp), %rax
	movl	$0, (%rax)
	movq	_TIG_iO_D57g_1_isempty_1_opaque_list_1(%rip), %rax
	movq	8(%rax), %rdx
	movq	-16(%rbp), %rax
	movq	%rdx, 8(%rax)
	movq	_TIG_iO_D57g_1_isempty_1_opaque_list_1(%rip), %rdx
	movq	-16(%rbp), %rax
	movq	%rdx, 16(%rax)
	movq	_TIG_iO_D57g_1_isempty_1_opaque_list_1(%rip), %rax
	movq	8(%rax), %rax
	movq	-16(%rbp), %rdx
	movq	%rdx, 16(%rax)
	movq	_TIG_iO_D57g_1_isempty_1_opaque_list_1(%rip), %rax
	movq	-16(%rbp), %rdx
	movq	%rdx, 8(%rax)
	call	rand@PLT
	movl	%eax, -28(%rbp)
	movl	$24, %edi
	call	malloc@PLT
	movq	%rax, -8(%rbp)
	movq	-8(%rbp), %rax
	movl	-28(%rbp), %edx
	movl	%edx, (%rax)
	movq	_TIG_iO_D57g_1_isempty_1_opaque_list_1(%rip), %rax
	movq	8(%rax), %rdx
	movq	-8(%rbp), %rax
	movq	%rdx, 8(%rax)
	movq	_TIG_iO_D57g_1_isempty_1_opaque_list_1(%rip), %rdx
	movq	-8(%rbp), %rax
	movq	%rdx, 16(%rax)
	movq	_TIG_iO_D57g_1_isempty_1_opaque_list_1(%rip), %rax
	movq	8(%rax), %rax
	movq	-8(%rbp), %rdx
	movq	%rdx, 16(%rax)
	movq	_TIG_iO_D57g_1_isempty_1_opaque_list_1(%rip), %rax
	movq	-8(%rbp), %rdx
	movq	%rdx, 8(%rax)
	movq	_TIG_iO_D57g_1_isempty_1_opaque_list_1(%rip), %rax
	movq	8(%rax), %rax
	movq	%rax, _TIG_iO_D57g_1_isempty_1_opaque_ptr_1(%rip)
	movq	_TIG_iO_D57g_1_isempty_1_opaque_ptr_1(%rip), %rax
	movq	%rax, _TIG_iO_D57g_1_isempty_1_opaque_ptr_2(%rip)
	nop
	nop
	movq	-40(%rbp), %rax
	testq	%rax, %rax
	jne	.L39
	movq	_TIG_iO_D57g_1_push_1_opaque_ptr_1(%rip), %rdx
	movq	_TIG_iO_D57g_1_push_1_opaque_ptr_2(%rip), %rax
	cmpq	%rax, %rdx
	jne	.L40
	movl	$0, %eax
	jmp	.L41
.L40:
	movl	$1, %eax
	jmp	.L41
.L39:
	movl	$0, %eax
.L41:
	leave
	.cfi_def_cfa 7, 8
	ret
	.cfi_endproc
.LFE11:
	.size	isempty, .-isempty
	.globl	peek
	.type	peek, @function
peek:
.LFB12:
	.cfi_startproc
	endbr64
	pushq	%rbp
	.cfi_def_cfa_offset 16
	.cfi_offset 6, -16
	movq	%rsp, %rbp
	.cfi_def_cfa_register 6
	subq	$64, %rsp
	movq	%rdi, -56(%rbp)
#APP
# 45 "moitreyacbx_CodingDsaSem2_7.c" 1
	##_ANNOTATION_INITIALREGION_-TIG-iO-D57g-1-peek--24
# 0 "" 2
# 49 "moitreyacbx_CodingDsaSem2_7.c" 1
	##_ANNOTATION_ATOMICREGION_-TIG-iO-D57g-1-peek--23
# 0 "" 2
#NO_APP
	movl	$24, %edi
	call	malloc@PLT
	movq	%rax, -32(%rbp)
	movq	-32(%rbp), %rax
	movq	-32(%rbp), %rdx
	movq	%rdx, (%rax)
	movq	-32(%rbp), %rax
	movq	-32(%rbp), %rdx
	movq	%rdx, 8(%rax)
	movq	-32(%rbp), %rax
	movq	%rax, _TIG_iO_D57g_1_peek_1_opaque_list_1(%rip)
	call	rand@PLT
	movl	%eax, -44(%rbp)
	movl	$24, %edi
	call	malloc@PLT
	movq	%rax, -24(%rbp)
	movq	-24(%rbp), %rax
	movl	$0, 16(%rax)
	movq	_TIG_iO_D57g_1_peek_1_opaque_list_1(%rip), %rax
	movq	(%rax), %rdx
	movq	-24(%rbp), %rax
	movq	%rdx, (%rax)
	movq	_TIG_iO_D57g_1_peek_1_opaque_list_1(%rip), %rdx
	movq	-24(%rbp), %rax
	movq	%rdx, 8(%rax)
	movq	_TIG_iO_D57g_1_peek_1_opaque_list_1(%rip), %rax
	movq	(%rax), %rax
	movq	-24(%rbp), %rdx
	movq	%rdx, 8(%rax)
	movq	_TIG_iO_D57g_1_peek_1_opaque_list_1(%rip), %rax
	movq	-24(%rbp), %rdx
	movq	%rdx, (%rax)
	call	rand@PLT
	movl	%eax, -40(%rbp)
	movl	$24, %edi
	call	malloc@PLT
	movq	%rax, -16(%rbp)
	movq	-16(%rbp), %rax
	movl	-40(%rbp), %edx
	movl	%edx, 16(%rax)
	movq	_TIG_iO_D57g_1_peek_1_opaque_list_1(%rip), %rax
	movq	(%rax), %rdx
	movq	-16(%rbp), %rax
	movq	%rdx, (%rax)
	movq	_TIG_iO_D57g_1_peek_1_opaque_list_1(%rip), %rdx
	movq	-16(%rbp), %rax
	movq	%rdx, 8(%rax)
	movq	_TIG_iO_D57g_1_peek_1_opaque_list_1(%rip), %rax
	movq	(%rax), %rax
	movq	-16(%rbp), %rdx
	movq	%rdx, 8(%rax)
	movq	_TIG_iO_D57g_1_peek_1_opaque_list_1(%rip), %rax
	movq	-16(%rbp), %rdx
	movq	%rdx, (%rax)
	call	rand@PLT
	movl	%eax, -36(%rbp)
	movl	$24, %edi
	call	malloc@PLT
	movq	%rax, -8(%rbp)
	movl	-36(%rbp), %eax
	leal	(%rax,%rax), %edx
	movq	-8(%rbp), %rax
	movl	%edx, 16(%rax)
	movq	_TIG_iO_D57g_1_peek_1_opaque_list_1(%rip), %rax
	movq	(%rax), %rdx
	movq	-8(%rbp), %rax
	movq	%rdx, (%rax)
	movq	_TIG_iO_D57g_1_peek_1_opaque_list_1(%rip), %rdx
	movq	-8(%rbp), %rax
	movq	%rdx, 8(%rax)
	movq	_TIG_iO_D57g_1_peek_1_opaque_list_1(%rip), %rax
	movq	(%rax), %rax
	movq	-8(%rbp), %rdx
	movq	%rdx, 8(%rax)
	movq	_TIG_iO_D57g_1_peek_1_opaque_list_1(%rip), %rax
	movq	-8(%rbp), %rdx
	movq	%rdx, (%rax)
	movq	_TIG_iO_D57g_1_peek_1_opaque_list_1(%rip), %rax
	movq	(%rax), %rax
	movq	%rax, _TIG_iO_D57g_1_peek_1_opaque_ptr_1(%rip)
	movq	_TIG_iO_D57g_1_peek_1_opaque_ptr_1(%rip), %rax
	movq	%rax, _TIG_iO_D57g_1_peek_1_opaque_ptr_2(%rip)
	movq	_TIG_iO_D57g_1_peek_1_opaque_ptr_2(%rip), %rax
	movq	(%rax), %rax
	movq	%rax, _TIG_iO_D57g_1_peek_1_opaque_ptr_2(%rip)
	nop
	nop
	movq	_TIG_iO_D57g_1_push_1_opaque_ptr_1(%rip), %rdx
	movq	_TIG_iO_D57g_1_push_1_opaque_ptr_2(%rip), %rax
	cmpq	%rax, %rdx
	jne	.L43
#APP
# 86 "moitreyacbx_CodingDsaSem2_7.c" 1
	.byte 0x68,0x74,0x8,0x40,0x30
# 0 "" 2
#NO_APP
	jmp	.L44
.L43:
	movq	-56(%rbp), %rax
	movq	%rax, %rdi
	call	isempty
	movb	%al, -45(%rbp)
.L44:
	cmpb	$0, -45(%rbp)
	je	.L45
	movss	.LC0(%rip), %xmm0
	jmp	.L46
.L45:
	movq	-56(%rbp), %rax
	movss	(%rax), %xmm0
.L46:
	leave
	.cfi_def_cfa 7, 8
	ret
	.cfi_endproc
.LFE12:
	.size	peek, .-peek
	.globl	createnode
	.type	createnode, @function
createnode:
.LFB13:
	.cfi_startproc
	endbr64
	pushq	%rbp
	.cfi_def_cfa_offset 16
	.cfi_offset 6, -16
	movq	%rsp, %rbp
	.cfi_def_cfa_register 6
	subq	$64, %rsp
	movss	%xmm0, -52(%rbp)
#APP
# 92 "moitreyacbx_CodingDsaSem2_7.c" 1
	##_ANNOTATION_INITIALREGION_-TIG-iO-D57g-1-createnode--16
# 0 "" 2
# 96 "moitreyacbx_CodingDsaSem2_7.c" 1
	##_ANNOTATION_ATOMICREGION_-TIG-iO-D57g-1-createnode--15
# 0 "" 2
#NO_APP
	movl	$24, %edi
	call	malloc@PLT
	movq	%rax, -32(%rbp)
	movq	-32(%rbp), %rax
	movq	-32(%rbp), %rdx
	movq	%rdx, 16(%rax)
	movq	-32(%rbp), %rax
	movq	-32(%rbp), %rdx
	movq	%rdx, 8(%rax)
	movq	-32(%rbp), %rax
	movq	%rax, _TIG_iO_D57g_1_createnode_1_opaque_list_1(%rip)
	call	rand@PLT
	movl	%eax, -48(%rbp)
	movl	$24, %edi
	call	malloc@PLT
	movq	%rax, -24(%rbp)
	movq	-24(%rbp), %rax
	movl	$0, (%rax)
	movq	_TIG_iO_D57g_1_createnode_1_opaque_list_1(%rip), %rax
	movq	16(%rax), %rdx
	movq	-24(%rbp), %rax
	movq	%rdx, 16(%rax)
	movq	_TIG_iO_D57g_1_createnode_1_opaque_list_1(%rip), %rdx
	movq	-24(%rbp), %rax
	movq	%rdx, 8(%rax)
	movq	_TIG_iO_D57g_1_createnode_1_opaque_list_1(%rip), %rax
	movq	16(%rax), %rax
	movq	-24(%rbp), %rdx
	movq	%rdx, 8(%rax)
	movq	_TIG_iO_D57g_1_createnode_1_opaque_list_1(%rip), %rax
	movq	-24(%rbp), %rdx
	movq	%rdx, 16(%rax)
	call	rand@PLT
	movl	%eax, -44(%rbp)
	movl	$24, %edi
	call	malloc@PLT
	movq	%rax, -16(%rbp)
	movq	-16(%rbp), %rax
	movl	-44(%rbp), %edx
	movl	%edx, (%rax)
	movq	_TIG_iO_D57g_1_createnode_1_opaque_list_1(%rip), %rax
	movq	16(%rax), %rdx
	movq	-16(%rbp), %rax
	movq	%rdx, 16(%rax)
	movq	_TIG_iO_D57g_1_createnode_1_opaque_list_1(%rip), %rdx
	movq	-16(%rbp), %rax
	movq	%rdx, 8(%rax)
	movq	_TIG_iO_D57g_1_createnode_1_opaque_list_1(%rip), %rax
	movq	16(%rax), %rax
	movq	-16(%rbp), %rdx
	movq	%rdx, 8(%rax)
	movq	_TIG_iO_D57g_1_createnode_1_opaque_list_1(%rip), %rax
	movq	-16(%rbp), %rdx
	movq	%rdx, 16(%rax)
	movq	_TIG_iO_D57g_1_createnode_1_opaque_list_1(%rip), %rax
	movq	16(%rax), %rax
	movq	%rax, _TIG_iO_D57g_1_createnode_1_opaque_ptr_1(%rip)
	movq	_TIG_iO_D57g_1_createnode_1_opaque_ptr_1(%rip), %rax
	movq	%rax, _TIG_iO_D57g_1_createnode_1_opaque_ptr_2(%rip)
	nop
	nop
	movq	_TIG_iO_D57g_1_push_1_opaque_ptr_1(%rip), %rdx
	movq	_TIG_iO_D57g_1_push_1_opaque_ptr_2(%rip), %rax
	cmpq	%rax, %rdx
	je	.L48
	movl	$16, %edi
	call	malloc@PLT
	movq	%rax, -8(%rbp)
	movq	-8(%rbp), %rax
	movq	%rax, -40(%rbp)
	movq	-40(%rbp), %rax
	movss	-52(%rbp), %xmm0
	movss	%xmm0, (%rax)
	movq	-40(%rbp), %rax
	movq	$0, 8(%rax)
	jmp	.L49
.L48:
	movl	$25, %edi
	call	malloc@PLT
	movq	%rax, -8(%rbp)
	movq	-8(%rbp), %rax
	subq	$16, %rax
	movq	%rax, -40(%rbp)
	movss	-52(%rbp), %xmm0
	movss	.LC5(%rip), %xmm1
	subss	%xmm1, %xmm0
	movq	-40(%rbp), %rax
	movss	%xmm0, (%rax)
	movq	-40(%rbp), %rax
	movq	$-16, 8(%rax)
.L49:
	movq	-40(%rbp), %rax
	leave
	.cfi_def_cfa 7, 8
	ret
	.cfi_endproc
.LFE13:
	.size	createnode, .-createnode
	.globl	addfirst
	.type	addfirst, @function
addfirst:
.LFB14:
	.cfi_startproc
	endbr64
	pushq	%rbp
	.cfi_def_cfa_offset 16
	.cfi_offset 6, -16
	movq	%rsp, %rbp
	.cfi_def_cfa_register 6
	subq	$96, %rsp
	movq	%rdi, -88(%rbp)
	movss	%xmm0, -92(%rbp)
#APP
# 54 "moitreyacbx_CodingDsaSem2_7.c" 1
	##_ANNOTATION_INITIALREGION_-TIG-iO-D57g-1-addfirst--14
# 0 "" 2
# 58 "moitreyacbx_CodingDsaSem2_7.c" 1
	##_ANNOTATION_ATOMICREGION_-TIG-iO-D57g-1-addfirst--13
# 0 "" 2
#NO_APP
	movl	$24, %edi
	call	malloc@PLT
	movq	%rax, -56(%rbp)
	movq	-56(%rbp), %rax
	movq	-56(%rbp), %rdx
	movq	%rdx, (%rax)
	movq	-56(%rbp), %rax
	movq	-56(%rbp), %rdx
	movq	%rdx, 8(%rax)
	movq	-56(%rbp), %rax
	movq	%rax, _TIG_iO_D57g_1_addfirst_1_opaque_list_1(%rip)
	call	rand@PLT
	movl	%eax, -72(%rbp)
	movl	$24, %edi
	call	malloc@PLT
	movq	%rax, -48(%rbp)
	movq	-48(%rbp), %rax
	movl	$0, 16(%rax)
	movq	_TIG_iO_D57g_1_addfirst_1_opaque_list_1(%rip), %rax
	movq	(%rax), %rdx
	movq	-48(%rbp), %rax
	movq	%rdx, (%rax)
	movq	_TIG_iO_D57g_1_addfirst_1_opaque_list_1(%rip), %rdx
	movq	-48(%rbp), %rax
	movq	%rdx, 8(%rax)
	movq	_TIG_iO_D57g_1_addfirst_1_opaque_list_1(%rip), %rax
	movq	(%rax), %rax
	movq	-48(%rbp), %rdx
	movq	%rdx, 8(%rax)
	movq	_TIG_iO_D57g_1_addfirst_1_opaque_list_1(%rip), %rax
	movq	-48(%rbp), %rdx
	movq	%rdx, (%rax)
	call	rand@PLT
	movl	%eax, -68(%rbp)
	movl	$24, %edi
	call	malloc@PLT
	movq	%rax, -40(%rbp)
	movq	-40(%rbp), %rax
	movl	-68(%rbp), %edx
	movl	%edx, 16(%rax)
	movq	_TIG_iO_D57g_1_addfirst_1_opaque_list_1(%rip), %rax
	movq	(%rax), %rdx
	movq	-40(%rbp), %rax
	movq	%rdx, (%rax)
	movq	_TIG_iO_D57g_1_addfirst_1_opaque_list_1(%rip), %rdx
	movq	-40(%rbp), %rax
	movq	%rdx, 8(%rax)
	movq	_TIG_iO_D57g_1_addfirst_1_opaque_list_1(%rip), %rax
	movq	(%rax), %rax
	movq	-40(%rbp), %rdx
	movq	%rdx, 8(%rax)
	movq	_TIG_iO_D57g_1_addfirst_1_opaque_list_1(%rip), %rax
	movq	-40(%rbp), %rdx
	movq	%rdx, (%rax)
	call	rand@PLT
	movl	%eax, -64(%rbp)
	movl	$24, %edi
	call	malloc@PLT
	movq	%rax, -32(%rbp)
	movl	-64(%rbp), %eax
	leal	(%rax,%rax), %edx
	movq	-32(%rbp), %rax
	movl	%edx, 16(%rax)
	movq	_TIG_iO_D57g_1_addfirst_1_opaque_list_1(%rip), %rax
	movq	(%rax), %rdx
	movq	-32(%rbp), %rax
	movq	%rdx, (%rax)
	movq	_TIG_iO_D57g_1_addfirst_1_opaque_list_1(%rip), %rdx
	movq	-32(%rbp), %rax
	movq	%rdx, 8(%rax)
	movq	_TIG_iO_D57g_1_addfirst_1_opaque_list_1(%rip), %rax
	movq	(%rax), %rax
	movq	-32(%rbp), %rdx
	movq	%rdx, 8(%rax)
	movq	_TIG_iO_D57g_1_addfirst_1_opaque_list_1(%rip), %rax
	movq	-32(%rbp), %rdx
	movq	%rdx, (%rax)
	call	rand@PLT
	movl	%eax, -60(%rbp)
	movl	$24, %edi
	call	malloc@PLT
	movq	%rax, -24(%rbp)
	movl	-60(%rbp), %edx
	movl	%edx, %eax
	addl	%eax, %eax
	addl	%eax, %edx
	movq	-24(%rbp), %rax
	movl	%edx, 16(%rax)
	movq	_TIG_iO_D57g_1_addfirst_1_opaque_list_1(%rip), %rax
	movq	(%rax), %rdx
	movq	-24(%rbp), %rax
	movq	%rdx, (%rax)
	movq	_TIG_iO_D57g_1_addfirst_1_opaque_list_1(%rip), %rdx
	movq	-24(%rbp), %rax
	movq	%rdx, 8(%rax)
	movq	_TIG_iO_D57g_1_addfirst_1_opaque_list_1(%rip), %rax
	movq	(%rax), %rax
	movq	-24(%rbp), %rdx
	movq	%rdx, 8(%rax)
	movq	_TIG_iO_D57g_1_addfirst_1_opaque_list_1(%rip), %rax
	movq	-24(%rbp), %rdx
	movq	%rdx, (%rax)
	movq	_TIG_iO_D57g_1_addfirst_1_opaque_list_1(%rip), %rax
	movq	(%rax), %rax
	movq	%rax, _TIG_iO_D57g_1_addfirst_1_opaque_ptr_1(%rip)
	movq	_TIG_iO_D57g_1_addfirst_1_opaque_ptr_1(%rip), %rax
	movq	%rax, _TIG_iO_D57g_1_addfirst_1_opaque_ptr_2(%rip)
	movq	_TIG_iO_D57g_1_addfirst_1_opaque_ptr_2(%rip), %rax
	movq	(%rax), %rax
	movq	%rax, _TIG_iO_D57g_1_addfirst_1_opaque_ptr_2(%rip)
	nop
	nop
	movq	_TIG_iO_D57g_1_push_1_opaque_ptr_1(%rip), %rdx
	movq	_TIG_iO_D57g_1_push_1_opaque_ptr_2(%rip), %rax
	cmpq	%rax, %rdx
	je	.L52
	movl	-92(%rbp), %eax
	movd	%eax, %xmm0
	call	createnode
	movq	%rax, -16(%rbp)
	movq	-16(%rbp), %rax
	movq	%rax, -8(%rbp)
	movq	-88(%rbp), %rax
	movq	(%rax), %rdx
	movq	-8(%rbp), %rax
	movq	%rdx, 8(%rax)
	movq	-88(%rbp), %rax
	movq	-8(%rbp), %rdx
	movq	%rdx, (%rax)
	jmp	.L51
.L52:
	movl	-92(%rbp), %eax
	movd	%eax, %xmm0
	call	createnode
	movq	%rax, -16(%rbp)
	movq	-16(%rbp), %rax
	addq	$16, %rax
	movq	%rax, -8(%rbp)
	movq	-88(%rbp), %rax
	movq	(%rax), %rax
	leaq	-16(%rax), %rdx
	movq	-8(%rbp), %rax
	movq	%rdx, 8(%rax)
	movq	-8(%rbp), %rax
	leaq	16(%rax), %rdx
	movq	-88(%rbp), %rax
	movq	%rdx, (%rax)
	nop
.L51:
	leave
	.cfi_def_cfa 7, 8
	ret
	.cfi_endproc
.LFE14:
	.size	addfirst, .-addfirst
	.section	.rodata
	.align 4
.LC0:
	.long	-1082130432
	.align 8
.LC4:
	.long	0
	.long	1075314688
	.align 4
.LC5:
	.long	1082282066
	.ident	"GCC: (Ubuntu 11.4.0-1ubuntu1~22.04) 11.4.0"
	.section	.note.GNU-stack,"",@progbits
	.section	.note.gnu.property,"a"
	.align 8
	.long	1f - 0f
	.long	4f - 1f
	.long	5
0:
	.string	"GNU"
1:
	.align 8
	.long	0xc0000002
	.long	3f - 2f
2:
	.long	0x3
3:
	.align 8
4:
