	.file	"murilocpontes_Trabalho-2-Lab-ICC-biblioteca_main_windows_opaque.c"
	.text
	.globl	_TIG_iO_oZZz_1_verifica_cad_1_opaque_ptr_2
	.bss
	.align 8
	.type	_TIG_iO_oZZz_1_verifica_cad_1_opaque_ptr_2, @object
	.size	_TIG_iO_oZZz_1_verifica_cad_1_opaque_ptr_2, 8
_TIG_iO_oZZz_1_verifica_cad_1_opaque_ptr_2:
	.zero	8
	.globl	_TIG_iO_oZZz_1_menu_1_opaque_ptr_2
	.align 8
	.type	_TIG_iO_oZZz_1_menu_1_opaque_ptr_2, @object
	.size	_TIG_iO_oZZz_1_menu_1_opaque_ptr_2, 8
_TIG_iO_oZZz_1_menu_1_opaque_ptr_2:
	.zero	8
	.globl	_TIG_iO_oZZz_1_menu_1_opaque_list_2
	.align 8
	.type	_TIG_iO_oZZz_1_menu_1_opaque_list_2, @object
	.size	_TIG_iO_oZZz_1_menu_1_opaque_list_2, 8
_TIG_iO_oZZz_1_menu_1_opaque_list_2:
	.zero	8
	.globl	_TIG_iO_oZZz_1___bswap_64_1_opaque_ptr_1
	.align 8
	.type	_TIG_iO_oZZz_1___bswap_64_1_opaque_ptr_1, @object
	.size	_TIG_iO_oZZz_1___bswap_64_1_opaque_ptr_1, 8
_TIG_iO_oZZz_1___bswap_64_1_opaque_ptr_1:
	.zero	8
	.globl	_TIG_iO_oZZz_1_cadastro_1_opaque_ptr_2
	.align 8
	.type	_TIG_iO_oZZz_1_cadastro_1_opaque_ptr_2, @object
	.size	_TIG_iO_oZZz_1_cadastro_1_opaque_ptr_2, 8
_TIG_iO_oZZz_1_cadastro_1_opaque_ptr_2:
	.zero	8
	.globl	_TIG_iO_oZZz_1_salva_cadastro_1_opaque_ptr_1
	.align 8
	.type	_TIG_iO_oZZz_1_salva_cadastro_1_opaque_ptr_1, @object
	.size	_TIG_iO_oZZz_1_salva_cadastro_1_opaque_ptr_1, 8
_TIG_iO_oZZz_1_salva_cadastro_1_opaque_ptr_1:
	.zero	8
	.globl	_TIG_iO_oZZz_1_verifica_emprestimo_1_opaque_list_1
	.align 8
	.type	_TIG_iO_oZZz_1_verifica_emprestimo_1_opaque_list_1, @object
	.size	_TIG_iO_oZZz_1_verifica_emprestimo_1_opaque_list_1, 8
_TIG_iO_oZZz_1_verifica_emprestimo_1_opaque_list_1:
	.zero	8
	.globl	_TIG_iO_oZZz_1_confirma_senha_1_opaque_ptr_1
	.align 8
	.type	_TIG_iO_oZZz_1_confirma_senha_1_opaque_ptr_1, @object
	.size	_TIG_iO_oZZz_1_confirma_senha_1_opaque_ptr_1, 8
_TIG_iO_oZZz_1_confirma_senha_1_opaque_ptr_1:
	.zero	8
	.globl	_TIG_iO_oZZz_1___uint64_identity_1_opaque_ptr_2
	.align 8
	.type	_TIG_iO_oZZz_1___uint64_identity_1_opaque_ptr_2, @object
	.size	_TIG_iO_oZZz_1___uint64_identity_1_opaque_ptr_2, 8
_TIG_iO_oZZz_1___uint64_identity_1_opaque_ptr_2:
	.zero	8
	.globl	_TIG_iO_oZZz_1_verifica_id_1_opaque_ptr_2
	.align 8
	.type	_TIG_iO_oZZz_1_verifica_id_1_opaque_ptr_2, @object
	.size	_TIG_iO_oZZz_1_verifica_id_1_opaque_ptr_2, 8
_TIG_iO_oZZz_1_verifica_id_1_opaque_ptr_2:
	.zero	8
	.globl	_TIG_iO_oZZz_1_novo_emprestimo_1_opaque_ptr_1
	.align 8
	.type	_TIG_iO_oZZz_1_novo_emprestimo_1_opaque_ptr_1, @object
	.size	_TIG_iO_oZZz_1_novo_emprestimo_1_opaque_ptr_1, 8
_TIG_iO_oZZz_1_novo_emprestimo_1_opaque_ptr_1:
	.zero	8
	.globl	_TIG_iO_oZZz_1_imprimir_emprestimo_1_opaque_ptr_2
	.align 8
	.type	_TIG_iO_oZZz_1_imprimir_emprestimo_1_opaque_ptr_2, @object
	.size	_TIG_iO_oZZz_1_imprimir_emprestimo_1_opaque_ptr_2, 8
_TIG_iO_oZZz_1_imprimir_emprestimo_1_opaque_ptr_2:
	.zero	8
	.globl	_TIG_IZ_oZZz_envp
	.align 8
	.type	_TIG_IZ_oZZz_envp, @object
	.size	_TIG_IZ_oZZz_envp, 8
_TIG_IZ_oZZz_envp:
	.zero	8
	.globl	_TIG_iO_oZZz_1___uint64_identity_1_opaque_ptr_1
	.align 8
	.type	_TIG_iO_oZZz_1___uint64_identity_1_opaque_ptr_1, @object
	.size	_TIG_iO_oZZz_1___uint64_identity_1_opaque_ptr_1, 8
_TIG_iO_oZZz_1___uint64_identity_1_opaque_ptr_1:
	.zero	8
	.globl	_TIG_iO_oZZz_1_main_1_opaque_ptr_2
	.align 8
	.type	_TIG_iO_oZZz_1_main_1_opaque_ptr_2, @object
	.size	_TIG_iO_oZZz_1_main_1_opaque_ptr_2, 8
_TIG_iO_oZZz_1_main_1_opaque_ptr_2:
	.zero	8
	.globl	_TIG_iO_oZZz_1_imprimir_cadastro_1_opaque_list_1
	.align 8
	.type	_TIG_iO_oZZz_1_imprimir_cadastro_1_opaque_list_1, @object
	.size	_TIG_iO_oZZz_1_imprimir_cadastro_1_opaque_list_1, 8
_TIG_iO_oZZz_1_imprimir_cadastro_1_opaque_list_1:
	.zero	8
	.globl	_TIG_iO_oZZz_1_salva_cadastro_1_opaque_ptr_2
	.align 8
	.type	_TIG_iO_oZZz_1_salva_cadastro_1_opaque_ptr_2, @object
	.size	_TIG_iO_oZZz_1_salva_cadastro_1_opaque_ptr_2, 8
_TIG_iO_oZZz_1_salva_cadastro_1_opaque_ptr_2:
	.zero	8
	.globl	_TIG_iO_oZZz_1_devolucao_1_opaque_ptr_1
	.align 8
	.type	_TIG_iO_oZZz_1_devolucao_1_opaque_ptr_1, @object
	.size	_TIG_iO_oZZz_1_devolucao_1_opaque_ptr_1, 8
_TIG_iO_oZZz_1_devolucao_1_opaque_ptr_1:
	.zero	8
	.globl	_TIG_iO_oZZz_1_menu_1_opaque_ptr_1
	.align 8
	.type	_TIG_iO_oZZz_1_menu_1_opaque_ptr_1, @object
	.size	_TIG_iO_oZZz_1_menu_1_opaque_ptr_1, 8
_TIG_iO_oZZz_1_menu_1_opaque_ptr_1:
	.zero	8
	.globl	_TIG_iO_oZZz_1_altera_emprestimo_1_opaque_list_2
	.align 8
	.type	_TIG_iO_oZZz_1_altera_emprestimo_1_opaque_list_2, @object
	.size	_TIG_iO_oZZz_1_altera_emprestimo_1_opaque_list_2, 8
_TIG_iO_oZZz_1_altera_emprestimo_1_opaque_list_2:
	.zero	8
	.globl	_TIG_iO_oZZz_1_altera_emprestimo_1_opaque_list_1
	.align 8
	.type	_TIG_iO_oZZz_1_altera_emprestimo_1_opaque_list_1, @object
	.size	_TIG_iO_oZZz_1_altera_emprestimo_1_opaque_list_1, 8
_TIG_iO_oZZz_1_altera_emprestimo_1_opaque_list_1:
	.zero	8
	.globl	_TIG_iO_oZZz_1_confirma_senha_1_opaque_ptr_2
	.align 8
	.type	_TIG_iO_oZZz_1_confirma_senha_1_opaque_ptr_2, @object
	.size	_TIG_iO_oZZz_1_confirma_senha_1_opaque_ptr_2, 8
_TIG_iO_oZZz_1_confirma_senha_1_opaque_ptr_2:
	.zero	8
	.globl	_TIG_iO_oZZz_1___uint64_identity_1_opaque_list_2
	.align 8
	.type	_TIG_iO_oZZz_1___uint64_identity_1_opaque_list_2, @object
	.size	_TIG_iO_oZZz_1___uint64_identity_1_opaque_list_2, 8
_TIG_iO_oZZz_1___uint64_identity_1_opaque_list_2:
	.zero	8
	.globl	_TIG_iO_oZZz_1_salva_cadastro_1_opaque_list_1
	.align 8
	.type	_TIG_iO_oZZz_1_salva_cadastro_1_opaque_list_1, @object
	.size	_TIG_iO_oZZz_1_salva_cadastro_1_opaque_list_1, 8
_TIG_iO_oZZz_1_salva_cadastro_1_opaque_list_1:
	.zero	8
	.globl	_TIG_iO_oZZz_1_verifica_id_1_opaque_list_1
	.align 8
	.type	_TIG_iO_oZZz_1_verifica_id_1_opaque_list_1, @object
	.size	_TIG_iO_oZZz_1_verifica_id_1_opaque_list_1, 8
_TIG_iO_oZZz_1_verifica_id_1_opaque_list_1:
	.zero	8
	.globl	_TIG_iO_oZZz_1_devolucao_1_opaque_ptr_2
	.align 8
	.type	_TIG_iO_oZZz_1_devolucao_1_opaque_ptr_2, @object
	.size	_TIG_iO_oZZz_1_devolucao_1_opaque_ptr_2, 8
_TIG_iO_oZZz_1_devolucao_1_opaque_ptr_2:
	.zero	8
	.globl	_TIG_iO_oZZz_1_devolucao_1_opaque_list_2
	.align 8
	.type	_TIG_iO_oZZz_1_devolucao_1_opaque_list_2, @object
	.size	_TIG_iO_oZZz_1_devolucao_1_opaque_list_2, 8
_TIG_iO_oZZz_1_devolucao_1_opaque_list_2:
	.zero	8
	.globl	_TIG_iO_oZZz_1___uint16_identity_1_opaque_ptr_2
	.align 8
	.type	_TIG_iO_oZZz_1___uint16_identity_1_opaque_ptr_2, @object
	.size	_TIG_iO_oZZz_1___uint16_identity_1_opaque_ptr_2, 8
_TIG_iO_oZZz_1___uint16_identity_1_opaque_ptr_2:
	.zero	8
	.globl	_TIG_iO_oZZz_1___bswap_64_1_opaque_ptr_2
	.align 8
	.type	_TIG_iO_oZZz_1___bswap_64_1_opaque_ptr_2, @object
	.size	_TIG_iO_oZZz_1___bswap_64_1_opaque_ptr_2, 8
_TIG_iO_oZZz_1___bswap_64_1_opaque_ptr_2:
	.zero	8
	.globl	_TIG_iO_oZZz_1___bswap_16_1_opaque_ptr_2
	.align 8
	.type	_TIG_iO_oZZz_1___bswap_16_1_opaque_ptr_2, @object
	.size	_TIG_iO_oZZz_1___bswap_16_1_opaque_ptr_2, 8
_TIG_iO_oZZz_1___bswap_16_1_opaque_ptr_2:
	.zero	8
	.globl	_TIG_iO_oZZz_1___uint32_identity_1_opaque_list_1
	.align 8
	.type	_TIG_iO_oZZz_1___uint32_identity_1_opaque_list_1, @object
	.size	_TIG_iO_oZZz_1___uint32_identity_1_opaque_list_1, 8
_TIG_iO_oZZz_1___uint32_identity_1_opaque_list_1:
	.zero	8
	.globl	_TIG_iO_oZZz_1_main_1_opaque_ptr_1
	.align 8
	.type	_TIG_iO_oZZz_1_main_1_opaque_ptr_1, @object
	.size	_TIG_iO_oZZz_1_main_1_opaque_ptr_1, 8
_TIG_iO_oZZz_1_main_1_opaque_ptr_1:
	.zero	8
	.globl	_TIG_IZ_oZZz_argc
	.align 4
	.type	_TIG_IZ_oZZz_argc, @object
	.size	_TIG_IZ_oZZz_argc, 4
_TIG_IZ_oZZz_argc:
	.zero	4
	.globl	_TIG_iO_oZZz_1_verifica_cad_1_opaque_list_1
	.align 8
	.type	_TIG_iO_oZZz_1_verifica_cad_1_opaque_list_1, @object
	.size	_TIG_iO_oZZz_1_verifica_cad_1_opaque_list_1, 8
_TIG_iO_oZZz_1_verifica_cad_1_opaque_list_1:
	.zero	8
	.globl	_TIG_iO_oZZz_1_salva_cadastro_1_opaque_list_2
	.align 8
	.type	_TIG_iO_oZZz_1_salva_cadastro_1_opaque_list_2, @object
	.size	_TIG_iO_oZZz_1_salva_cadastro_1_opaque_list_2, 8
_TIG_iO_oZZz_1_salva_cadastro_1_opaque_list_2:
	.zero	8
	.globl	_TIG_iO_oZZz_1_confirma_senha_1_opaque_list_1
	.align 8
	.type	_TIG_iO_oZZz_1_confirma_senha_1_opaque_list_1, @object
	.size	_TIG_iO_oZZz_1_confirma_senha_1_opaque_list_1, 8
_TIG_iO_oZZz_1_confirma_senha_1_opaque_list_1:
	.zero	8
	.globl	_TIG_iO_oZZz_1___bswap_16_1_opaque_ptr_1
	.align 8
	.type	_TIG_iO_oZZz_1___bswap_16_1_opaque_ptr_1, @object
	.size	_TIG_iO_oZZz_1___bswap_16_1_opaque_ptr_1, 8
_TIG_iO_oZZz_1___bswap_16_1_opaque_ptr_1:
	.zero	8
	.globl	_TIG_iO_oZZz_1_devolucao_1_opaque_list_1
	.align 8
	.type	_TIG_iO_oZZz_1_devolucao_1_opaque_list_1, @object
	.size	_TIG_iO_oZZz_1_devolucao_1_opaque_list_1, 8
_TIG_iO_oZZz_1_devolucao_1_opaque_list_1:
	.zero	8
	.globl	_TIG_iO_oZZz_1_altera_emprestimo_1_opaque_ptr_2
	.align 8
	.type	_TIG_iO_oZZz_1_altera_emprestimo_1_opaque_ptr_2, @object
	.size	_TIG_iO_oZZz_1_altera_emprestimo_1_opaque_ptr_2, 8
_TIG_iO_oZZz_1_altera_emprestimo_1_opaque_ptr_2:
	.zero	8
	.globl	_TIG_iO_oZZz_1___uint32_identity_1_opaque_list_2
	.align 8
	.type	_TIG_iO_oZZz_1___uint32_identity_1_opaque_list_2, @object
	.size	_TIG_iO_oZZz_1___uint32_identity_1_opaque_list_2, 8
_TIG_iO_oZZz_1___uint32_identity_1_opaque_list_2:
	.zero	8
	.globl	_TIG_iO_oZZz_1_cadastro_1_opaque_ptr_1
	.align 8
	.type	_TIG_iO_oZZz_1_cadastro_1_opaque_ptr_1, @object
	.size	_TIG_iO_oZZz_1_cadastro_1_opaque_ptr_1, 8
_TIG_iO_oZZz_1_cadastro_1_opaque_ptr_1:
	.zero	8
	.globl	_TIG_iO_oZZz_1___uint16_identity_1_opaque_list_1
	.align 8
	.type	_TIG_iO_oZZz_1___uint16_identity_1_opaque_list_1, @object
	.size	_TIG_iO_oZZz_1___uint16_identity_1_opaque_list_1, 8
_TIG_iO_oZZz_1___uint16_identity_1_opaque_list_1:
	.zero	8
	.globl	_TIG_iO_oZZz_1_imprimir_cadastro_1_opaque_ptr_2
	.align 8
	.type	_TIG_iO_oZZz_1_imprimir_cadastro_1_opaque_ptr_2, @object
	.size	_TIG_iO_oZZz_1_imprimir_cadastro_1_opaque_ptr_2, 8
_TIG_iO_oZZz_1_imprimir_cadastro_1_opaque_ptr_2:
	.zero	8
	.globl	_TIG_iO_oZZz_1_verifica_cad_1_opaque_ptr_1
	.align 8
	.type	_TIG_iO_oZZz_1_verifica_cad_1_opaque_ptr_1, @object
	.size	_TIG_iO_oZZz_1_verifica_cad_1_opaque_ptr_1, 8
_TIG_iO_oZZz_1_verifica_cad_1_opaque_ptr_1:
	.zero	8
	.globl	_TIG_iO_oZZz_1_verifica_emprestimo_1_opaque_list_2
	.align 8
	.type	_TIG_iO_oZZz_1_verifica_emprestimo_1_opaque_list_2, @object
	.size	_TIG_iO_oZZz_1_verifica_emprestimo_1_opaque_list_2, 8
_TIG_iO_oZZz_1_verifica_emprestimo_1_opaque_list_2:
	.zero	8
	.globl	_TIG_iO_oZZz_1___bswap_64_1_opaque_list_2
	.align 8
	.type	_TIG_iO_oZZz_1___bswap_64_1_opaque_list_2, @object
	.size	_TIG_iO_oZZz_1___bswap_64_1_opaque_list_2, 8
_TIG_iO_oZZz_1___bswap_64_1_opaque_list_2:
	.zero	8
	.globl	_TIG_iO_oZZz_1___uint32_identity_1_opaque_ptr_1
	.align 8
	.type	_TIG_iO_oZZz_1___uint32_identity_1_opaque_ptr_1, @object
	.size	_TIG_iO_oZZz_1___uint32_identity_1_opaque_ptr_1, 8
_TIG_iO_oZZz_1___uint32_identity_1_opaque_ptr_1:
	.zero	8
	.globl	_TIG_iO_oZZz_1_verifica_cad_1_opaque_list_2
	.align 8
	.type	_TIG_iO_oZZz_1_verifica_cad_1_opaque_list_2, @object
	.size	_TIG_iO_oZZz_1_verifica_cad_1_opaque_list_2, 8
_TIG_iO_oZZz_1_verifica_cad_1_opaque_list_2:
	.zero	8
	.globl	_TIG_iO_oZZz_1___bswap_16_1_opaque_list_1
	.align 8
	.type	_TIG_iO_oZZz_1___bswap_16_1_opaque_list_1, @object
	.size	_TIG_iO_oZZz_1___bswap_16_1_opaque_list_1, 8
_TIG_iO_oZZz_1___bswap_16_1_opaque_list_1:
	.zero	8
	.globl	_TIG_iO_oZZz_1_imprimir_emprestimo_1_opaque_ptr_1
	.align 8
	.type	_TIG_iO_oZZz_1_imprimir_emprestimo_1_opaque_ptr_1, @object
	.size	_TIG_iO_oZZz_1_imprimir_emprestimo_1_opaque_ptr_1, 8
_TIG_iO_oZZz_1_imprimir_emprestimo_1_opaque_ptr_1:
	.zero	8
	.globl	_TIG_iO_oZZz_1_imprimir_emprestimo_1_opaque_list_1
	.align 8
	.type	_TIG_iO_oZZz_1_imprimir_emprestimo_1_opaque_list_1, @object
	.size	_TIG_iO_oZZz_1_imprimir_emprestimo_1_opaque_list_1, 8
_TIG_iO_oZZz_1_imprimir_emprestimo_1_opaque_list_1:
	.zero	8
	.globl	_TIG_iO_oZZz_1___bswap_32_1_opaque_list_1
	.align 8
	.type	_TIG_iO_oZZz_1___bswap_32_1_opaque_list_1, @object
	.size	_TIG_iO_oZZz_1___bswap_32_1_opaque_list_1, 8
_TIG_iO_oZZz_1___bswap_32_1_opaque_list_1:
	.zero	8
	.globl	_TIG_iO_oZZz_1___uint64_identity_1_opaque_list_1
	.align 8
	.type	_TIG_iO_oZZz_1___uint64_identity_1_opaque_list_1, @object
	.size	_TIG_iO_oZZz_1___uint64_identity_1_opaque_list_1, 8
_TIG_iO_oZZz_1___uint64_identity_1_opaque_list_1:
	.zero	8
	.globl	_TIG_iO_oZZz_1_main_1_opaque_list_1
	.align 8
	.type	_TIG_iO_oZZz_1_main_1_opaque_list_1, @object
	.size	_TIG_iO_oZZz_1_main_1_opaque_list_1, 8
_TIG_iO_oZZz_1_main_1_opaque_list_1:
	.zero	8
	.globl	_TIG_iO_oZZz_1_cadastro_1_opaque_list_1
	.align 8
	.type	_TIG_iO_oZZz_1_cadastro_1_opaque_list_1, @object
	.size	_TIG_iO_oZZz_1_cadastro_1_opaque_list_1, 8
_TIG_iO_oZZz_1_cadastro_1_opaque_list_1:
	.zero	8
	.globl	_TIG_iO_oZZz_1___uint16_identity_1_opaque_list_2
	.align 8
	.type	_TIG_iO_oZZz_1___uint16_identity_1_opaque_list_2, @object
	.size	_TIG_iO_oZZz_1___uint16_identity_1_opaque_list_2, 8
_TIG_iO_oZZz_1___uint16_identity_1_opaque_list_2:
	.zero	8
	.globl	_TIG_iO_oZZz_1_novo_emprestimo_1_opaque_list_2
	.align 8
	.type	_TIG_iO_oZZz_1_novo_emprestimo_1_opaque_list_2, @object
	.size	_TIG_iO_oZZz_1_novo_emprestimo_1_opaque_list_2, 8
_TIG_iO_oZZz_1_novo_emprestimo_1_opaque_list_2:
	.zero	8
	.globl	_TIG_iO_oZZz_1___bswap_32_1_opaque_ptr_1
	.align 8
	.type	_TIG_iO_oZZz_1___bswap_32_1_opaque_ptr_1, @object
	.size	_TIG_iO_oZZz_1___bswap_32_1_opaque_ptr_1, 8
_TIG_iO_oZZz_1___bswap_32_1_opaque_ptr_1:
	.zero	8
	.globl	_TIG_iO_oZZz_1_cadastro_1_opaque_list_2
	.align 8
	.type	_TIG_iO_oZZz_1_cadastro_1_opaque_list_2, @object
	.size	_TIG_iO_oZZz_1_cadastro_1_opaque_list_2, 8
_TIG_iO_oZZz_1_cadastro_1_opaque_list_2:
	.zero	8
	.globl	_TIG_iO_oZZz_1_imprimir_cadastro_1_opaque_list_2
	.align 8
	.type	_TIG_iO_oZZz_1_imprimir_cadastro_1_opaque_list_2, @object
	.size	_TIG_iO_oZZz_1_imprimir_cadastro_1_opaque_list_2, 8
_TIG_iO_oZZz_1_imprimir_cadastro_1_opaque_list_2:
	.zero	8
	.globl	_TIG_iO_oZZz_1_novo_emprestimo_1_opaque_list_1
	.align 8
	.type	_TIG_iO_oZZz_1_novo_emprestimo_1_opaque_list_1, @object
	.size	_TIG_iO_oZZz_1_novo_emprestimo_1_opaque_list_1, 8
_TIG_iO_oZZz_1_novo_emprestimo_1_opaque_list_1:
	.zero	8
	.globl	_TIG_iO_oZZz_1_menu_1_opaque_list_1
	.align 8
	.type	_TIG_iO_oZZz_1_menu_1_opaque_list_1, @object
	.size	_TIG_iO_oZZz_1_menu_1_opaque_list_1, 8
_TIG_iO_oZZz_1_menu_1_opaque_list_1:
	.zero	8
	.globl	_TIG_iO_oZZz_1___bswap_32_1_opaque_ptr_2
	.align 8
	.type	_TIG_iO_oZZz_1___bswap_32_1_opaque_ptr_2, @object
	.size	_TIG_iO_oZZz_1___bswap_32_1_opaque_ptr_2, 8
_TIG_iO_oZZz_1___bswap_32_1_opaque_ptr_2:
	.zero	8
	.globl	_TIG_iO_oZZz_1_novo_emprestimo_1_opaque_ptr_2
	.align 8
	.type	_TIG_iO_oZZz_1_novo_emprestimo_1_opaque_ptr_2, @object
	.size	_TIG_iO_oZZz_1_novo_emprestimo_1_opaque_ptr_2, 8
_TIG_iO_oZZz_1_novo_emprestimo_1_opaque_ptr_2:
	.zero	8
	.globl	_TIG_iO_oZZz_1_verifica_emprestimo_1_opaque_ptr_2
	.align 8
	.type	_TIG_iO_oZZz_1_verifica_emprestimo_1_opaque_ptr_2, @object
	.size	_TIG_iO_oZZz_1_verifica_emprestimo_1_opaque_ptr_2, 8
_TIG_iO_oZZz_1_verifica_emprestimo_1_opaque_ptr_2:
	.zero	8
	.globl	_TIG_iO_oZZz_1_verifica_emprestimo_1_opaque_ptr_1
	.align 8
	.type	_TIG_iO_oZZz_1_verifica_emprestimo_1_opaque_ptr_1, @object
	.size	_TIG_iO_oZZz_1_verifica_emprestimo_1_opaque_ptr_1, 8
_TIG_iO_oZZz_1_verifica_emprestimo_1_opaque_ptr_1:
	.zero	8
	.globl	_TIG_iO_oZZz_1___uint16_identity_1_opaque_ptr_1
	.align 8
	.type	_TIG_iO_oZZz_1___uint16_identity_1_opaque_ptr_1, @object
	.size	_TIG_iO_oZZz_1___uint16_identity_1_opaque_ptr_1, 8
_TIG_iO_oZZz_1___uint16_identity_1_opaque_ptr_1:
	.zero	8
	.globl	_TIG_iO_oZZz_1_imprimir_cadastro_1_opaque_ptr_1
	.align 8
	.type	_TIG_iO_oZZz_1_imprimir_cadastro_1_opaque_ptr_1, @object
	.size	_TIG_iO_oZZz_1_imprimir_cadastro_1_opaque_ptr_1, 8
_TIG_iO_oZZz_1_imprimir_cadastro_1_opaque_ptr_1:
	.zero	8
	.globl	_TIG_iO_oZZz_1_altera_emprestimo_1_opaque_ptr_1
	.align 8
	.type	_TIG_iO_oZZz_1_altera_emprestimo_1_opaque_ptr_1, @object
	.size	_TIG_iO_oZZz_1_altera_emprestimo_1_opaque_ptr_1, 8
_TIG_iO_oZZz_1_altera_emprestimo_1_opaque_ptr_1:
	.zero	8
	.globl	_TIG_iO_oZZz_1_main_1_opaque_list_2
	.align 8
	.type	_TIG_iO_oZZz_1_main_1_opaque_list_2, @object
	.size	_TIG_iO_oZZz_1_main_1_opaque_list_2, 8
_TIG_iO_oZZz_1_main_1_opaque_list_2:
	.zero	8
	.globl	_TIG_iO_oZZz_1___bswap_64_1_opaque_list_1
	.align 8
	.type	_TIG_iO_oZZz_1___bswap_64_1_opaque_list_1, @object
	.size	_TIG_iO_oZZz_1___bswap_64_1_opaque_list_1, 8
_TIG_iO_oZZz_1___bswap_64_1_opaque_list_1:
	.zero	8
	.globl	_TIG_iO_oZZz_1___uint32_identity_1_opaque_ptr_2
	.align 8
	.type	_TIG_iO_oZZz_1___uint32_identity_1_opaque_ptr_2, @object
	.size	_TIG_iO_oZZz_1___uint32_identity_1_opaque_ptr_2, 8
_TIG_iO_oZZz_1___uint32_identity_1_opaque_ptr_2:
	.zero	8
	.globl	_TIG_iO_oZZz_1_verifica_id_1_opaque_list_2
	.align 8
	.type	_TIG_iO_oZZz_1_verifica_id_1_opaque_list_2, @object
	.size	_TIG_iO_oZZz_1_verifica_id_1_opaque_list_2, 8
_TIG_iO_oZZz_1_verifica_id_1_opaque_list_2:
	.zero	8
	.globl	_TIG_iO_oZZz_1_confirma_senha_1_opaque_list_2
	.align 8
	.type	_TIG_iO_oZZz_1_confirma_senha_1_opaque_list_2, @object
	.size	_TIG_iO_oZZz_1_confirma_senha_1_opaque_list_2, 8
_TIG_iO_oZZz_1_confirma_senha_1_opaque_list_2:
	.zero	8
	.globl	_TIG_iO_oZZz_1___bswap_32_1_opaque_list_2
	.align 8
	.type	_TIG_iO_oZZz_1___bswap_32_1_opaque_list_2, @object
	.size	_TIG_iO_oZZz_1___bswap_32_1_opaque_list_2, 8
_TIG_iO_oZZz_1___bswap_32_1_opaque_list_2:
	.zero	8
	.globl	_TIG_iO_oZZz_1_imprimir_emprestimo_1_opaque_list_2
	.align 8
	.type	_TIG_iO_oZZz_1_imprimir_emprestimo_1_opaque_list_2, @object
	.size	_TIG_iO_oZZz_1_imprimir_emprestimo_1_opaque_list_2, 8
_TIG_iO_oZZz_1_imprimir_emprestimo_1_opaque_list_2:
	.zero	8
	.globl	_TIG_iO_oZZz_1___bswap_16_1_opaque_list_2
	.align 8
	.type	_TIG_iO_oZZz_1___bswap_16_1_opaque_list_2, @object
	.size	_TIG_iO_oZZz_1___bswap_16_1_opaque_list_2, 8
_TIG_iO_oZZz_1___bswap_16_1_opaque_list_2:
	.zero	8
	.globl	_TIG_iO_oZZz_1_verifica_id_1_opaque_ptr_1
	.align 8
	.type	_TIG_iO_oZZz_1_verifica_id_1_opaque_ptr_1, @object
	.size	_TIG_iO_oZZz_1_verifica_id_1_opaque_ptr_1, 8
_TIG_iO_oZZz_1_verifica_id_1_opaque_ptr_1:
	.zero	8
	.globl	_TIG_IZ_oZZz_argv
	.align 8
	.type	_TIG_IZ_oZZz_argv, @object
	.size	_TIG_IZ_oZZz_argv, 8
_TIG_IZ_oZZz_argv:
	.zero	8
	.section	.rodata
.LC0:
	.string	"Nome: "
	.align 8
.LC1:
	.string	"Ja existe um cadastro nesse nome"
.LC2:
	.string	"Numero de cadastro: %d\n"
	.align 8
.LC3:
	.string	"Senha numerica [pelo menos 4 algarismos]: "
	.align 8
.LC4:
	.string	"Digite uma senha de pelo menos 4 algarismos"
.LC5:
	.string	"Senha numerica: "
.LC6:
	.string	"Digite a senha novamente: "
.LC7:
	.string	"Data de nascimento:"
.LC8:
	.string	"Dia: "
.LC9:
	.string	"Mes: "
.LC10:
	.string	"Ano: "
.LC11:
	.string	"Endereco:"
.LC12:
	.string	"Rua: "
.LC13:
	.string	"Numero: "
.LC14:
	.string	"Complemento: "
.LC15:
	.string	"Bairro: "
.LC16:
	.string	"Cidade: "
.LC17:
	.string	"Estado: "
	.text
	.globl	cadastro
	.type	cadastro, @function
cadastro:
.LFB0:
	.cfi_startproc
	endbr64
	pushq	%rbp
	.cfi_def_cfa_offset 16
	.cfi_offset 6, -16
	movq	%rsp, %rbp
	.cfi_def_cfa_register 6
	subq	$144, %rsp
	movq	%rdi, -120(%rbp)
	movl	%esi, -124(%rbp)
	movq	%rdx, -136(%rbp)
	movq	%fs:40, %rax
	movq	%rax, -8(%rbp)
	xorl	%eax, %eax
#APP
# 80 "/usr/include/stdlib.h" 1
	##_ANNOTATION_INITIALREGION_-TIG-iO-oZZz-1-cadastro--16
# 0 "" 2
# 84 "/usr/include/stdlib.h" 1
	##_ANNOTATION_ATOMICREGION_-TIG-iO-oZZz-1-cadastro--15
# 0 "" 2
#NO_APP
	movl	$24, %edi
	call	malloc@PLT
	movq	%rax, -88(%rbp)
	movq	-88(%rbp), %rax
	movq	-88(%rbp), %rdx
	movq	%rdx, 16(%rax)
	movq	-88(%rbp), %rax
	movq	-88(%rbp), %rdx
	movq	%rdx, 8(%rax)
	movq	-88(%rbp), %rax
	movq	%rax, _TIG_iO_oZZz_1_cadastro_1_opaque_list_1(%rip)
	call	rand@PLT
	movl	%eax, -104(%rbp)
	movl	$24, %edi
	call	malloc@PLT
	movq	%rax, -80(%rbp)
	movq	-80(%rbp), %rax
	movl	$0, (%rax)
	movq	_TIG_iO_oZZz_1_cadastro_1_opaque_list_1(%rip), %rax
	movq	16(%rax), %rdx
	movq	-80(%rbp), %rax
	movq	%rdx, 16(%rax)
	movq	_TIG_iO_oZZz_1_cadastro_1_opaque_list_1(%rip), %rdx
	movq	-80(%rbp), %rax
	movq	%rdx, 8(%rax)
	movq	_TIG_iO_oZZz_1_cadastro_1_opaque_list_1(%rip), %rax
	movq	16(%rax), %rax
	movq	-80(%rbp), %rdx
	movq	%rdx, 8(%rax)
	movq	_TIG_iO_oZZz_1_cadastro_1_opaque_list_1(%rip), %rax
	movq	-80(%rbp), %rdx
	movq	%rdx, 16(%rax)
	call	rand@PLT
	movl	%eax, -100(%rbp)
	movl	$24, %edi
	call	malloc@PLT
	movq	%rax, -72(%rbp)
	movq	-72(%rbp), %rax
	movl	-100(%rbp), %edx
	movl	%edx, (%rax)
	movq	_TIG_iO_oZZz_1_cadastro_1_opaque_list_1(%rip), %rax
	movq	16(%rax), %rdx
	movq	-72(%rbp), %rax
	movq	%rdx, 16(%rax)
	movq	_TIG_iO_oZZz_1_cadastro_1_opaque_list_1(%rip), %rdx
	movq	-72(%rbp), %rax
	movq	%rdx, 8(%rax)
	movq	_TIG_iO_oZZz_1_cadastro_1_opaque_list_1(%rip), %rax
	movq	16(%rax), %rax
	movq	-72(%rbp), %rdx
	movq	%rdx, 8(%rax)
	movq	_TIG_iO_oZZz_1_cadastro_1_opaque_list_1(%rip), %rax
	movq	-72(%rbp), %rdx
	movq	%rdx, 16(%rax)
	movq	_TIG_iO_oZZz_1_cadastro_1_opaque_list_1(%rip), %rax
	movq	16(%rax), %rax
	movq	%rax, _TIG_iO_oZZz_1_cadastro_1_opaque_ptr_1(%rip)
	movq	_TIG_iO_oZZz_1_cadastro_1_opaque_ptr_1(%rip), %rax
	movq	%rax, _TIG_iO_oZZz_1_cadastro_1_opaque_ptr_2(%rip)
	nop
	nop
	leaq	.LC0(%rip), %rax
	movq	%rax, %rdi
	movl	$0, %eax
	call	printf@PLT
	movq	stdin(%rip), %rax
	movq	%rax, %rdi
	call	fflush@PLT
	movq	stdin(%rip), %rdx
	leaq	-64(%rbp), %rax
	movl	$50, %esi
	movq	%rax, %rdi
	call	fgets@PLT
	movq	-136(%rbp), %rcx
	leaq	-64(%rbp), %rdx
	movl	-124(%rbp), %esi
	movq	-120(%rbp), %rax
	movq	%rax, %rdi
	call	verifica_cad
	movl	%eax, -96(%rbp)
	movl	-96(%rbp), %eax
	movl	%eax, -92(%rbp)
	cmpl	$0, -92(%rbp)
	je	.L2
	cmpl	$-1, -92(%rbp)
	jne	.L3
	movl	$-1, %eax
	jmp	.L11
.L3:
	leaq	.LC1(%rip), %rax
	movq	%rax, %rdi
	call	puts@PLT
	movl	$1, %eax
	jmp	.L11
.L2:
	movq	-120(%rbp), %rax
	leaq	-64(%rbp), %rdx
	movq	%rdx, %rsi
	movq	%rax, %rdi
	call	strcpy@PLT
	movl	-124(%rbp), %eax
	leal	100000(%rax), %edx
	movq	-120(%rbp), %rax
	movl	%edx, 52(%rax)
	movq	-120(%rbp), %rax
	movl	52(%rax), %eax
	movl	%eax, %esi
	leaq	.LC2(%rip), %rax
	movq	%rax, %rdi
	movl	$0, %eax
	call	printf@PLT
.L9:
	leaq	.LC3(%rip), %rax
	movq	%rax, %rdi
	movl	$0, %eax
	call	printf@PLT
	movq	stdin(%rip), %rax
	movq	%rax, %rdi
	call	fflush@PLT
	movq	stdin(%rip), %rdx
	leaq	-64(%rbp), %rax
	movl	$10, %esi
	movq	%rax, %rdi
	call	fgets@PLT
	leaq	-64(%rbp), %rax
	movq	%rax, %rdi
	call	atoi@PLT
	movl	%eax, -108(%rbp)
	jmp	.L5
.L6:
	leaq	.LC4(%rip), %rax
	movq	%rax, %rdi
	call	puts@PLT
	leaq	.LC5(%rip), %rax
	movq	%rax, %rdi
	movl	$0, %eax
	call	printf@PLT
	movq	stdin(%rip), %rax
	movq	%rax, %rdi
	call	fflush@PLT
	movq	stdin(%rip), %rdx
	leaq	-64(%rbp), %rax
	movl	$10, %esi
	movq	%rax, %rdi
	call	fgets@PLT
	leaq	-64(%rbp), %rax
	movq	%rax, %rdi
	call	atoi@PLT
	movl	%eax, -108(%rbp)
.L5:
	cmpl	$999, -108(%rbp)
	jle	.L6
	leaq	.LC6(%rip), %rax
	movq	%rax, %rdi
	movl	$0, %eax
	call	printf@PLT
	movq	stdin(%rip), %rax
	movq	%rax, %rdi
	call	fflush@PLT
	movq	stdin(%rip), %rdx
	leaq	-64(%rbp), %rax
	movl	$10, %esi
	movq	%rax, %rdi
	call	fgets@PLT
	leaq	-64(%rbp), %rax
	movq	%rax, %rdi
	call	atoi@PLT
	movq	-120(%rbp), %rdx
	movl	%eax, 56(%rdx)
	movq	-120(%rbp), %rax
	movl	56(%rax), %eax
	cmpl	%eax, -108(%rbp)
	je	.L14
	jmp	.L9
.L14:
	nop
	leaq	.LC7(%rip), %rax
	movq	%rax, %rdi
	call	puts@PLT
	leaq	.LC8(%rip), %rax
	movq	%rax, %rdi
	movl	$0, %eax
	call	printf@PLT
	movq	stdin(%rip), %rax
	movq	%rax, %rdi
	call	fflush@PLT
	movq	stdin(%rip), %rdx
	leaq	-64(%rbp), %rax
	movl	$5, %esi
	movq	%rax, %rdi
	call	fgets@PLT
	leaq	-64(%rbp), %rax
	movq	%rax, %rdi
	call	atoi@PLT
	movq	-120(%rbp), %rdx
	movl	%eax, 60(%rdx)
	leaq	.LC9(%rip), %rax
	movq	%rax, %rdi
	movl	$0, %eax
	call	printf@PLT
	movq	stdin(%rip), %rax
	movq	%rax, %rdi
	call	fflush@PLT
	movq	stdin(%rip), %rdx
	leaq	-64(%rbp), %rax
	movl	$5, %esi
	movq	%rax, %rdi
	call	fgets@PLT
	leaq	-64(%rbp), %rax
	movq	%rax, %rdi
	call	atoi@PLT
	movq	-120(%rbp), %rdx
	movl	%eax, 64(%rdx)
	leaq	.LC10(%rip), %rax
	movq	%rax, %rdi
	movl	$0, %eax
	call	printf@PLT
	movq	stdin(%rip), %rax
	movq	%rax, %rdi
	call	fflush@PLT
	movq	stdin(%rip), %rdx
	leaq	-64(%rbp), %rax
	movl	$5, %esi
	movq	%rax, %rdi
	call	fgets@PLT
	leaq	-64(%rbp), %rax
	movq	%rax, %rdi
	call	atoi@PLT
	movq	-120(%rbp), %rdx
	movl	%eax, 68(%rdx)
	leaq	.LC11(%rip), %rax
	movq	%rax, %rdi
	call	puts@PLT
	movq	stdin(%rip), %rax
	movq	%rax, %rdi
	call	fflush@PLT
	leaq	.LC12(%rip), %rax
	movq	%rax, %rdi
	movl	$0, %eax
	call	printf@PLT
	movq	stdin(%rip), %rax
	movq	%rax, %rdi
	call	fflush@PLT
	movq	stdin(%rip), %rdx
	leaq	-64(%rbp), %rax
	movl	$50, %esi
	movq	%rax, %rdi
	call	fgets@PLT
	movq	-120(%rbp), %rax
	leaq	72(%rax), %rdx
	leaq	-64(%rbp), %rax
	movq	%rax, %rsi
	movq	%rdx, %rdi
	call	strcpy@PLT
	leaq	.LC13(%rip), %rax
	movq	%rax, %rdi
	movl	$0, %eax
	call	printf@PLT
	movq	stdin(%rip), %rax
	movq	%rax, %rdi
	call	fflush@PLT
	movq	stdin(%rip), %rdx
	leaq	-64(%rbp), %rax
	movl	$5, %esi
	movq	%rax, %rdi
	call	fgets@PLT
	leaq	-64(%rbp), %rax
	movq	%rax, %rdi
	call	atoi@PLT
	movq	-120(%rbp), %rdx
	movl	%eax, 112(%rdx)
	leaq	.LC14(%rip), %rax
	movq	%rax, %rdi
	movl	$0, %eax
	call	printf@PLT
	movq	stdin(%rip), %rax
	movq	%rax, %rdi
	call	fflush@PLT
	movq	stdin(%rip), %rdx
	leaq	-64(%rbp), %rax
	movl	$50, %esi
	movq	%rax, %rdi
	call	fgets@PLT
	movq	-120(%rbp), %rax
	leaq	116(%rax), %rdx
	leaq	-64(%rbp), %rax
	movq	%rax, %rsi
	movq	%rdx, %rdi
	call	strcpy@PLT
	leaq	.LC15(%rip), %rax
	movq	%rax, %rdi
	movl	$0, %eax
	call	printf@PLT
	movq	stdin(%rip), %rax
	movq	%rax, %rdi
	call	fflush@PLT
	movq	stdin(%rip), %rdx
	leaq	-64(%rbp), %rax
	movl	$50, %esi
	movq	%rax, %rdi
	call	fgets@PLT
	movq	-120(%rbp), %rax
	leaq	136(%rax), %rdx
	leaq	-64(%rbp), %rax
	movq	%rax, %rsi
	movq	%rdx, %rdi
	call	strcpy@PLT
	leaq	.LC16(%rip), %rax
	movq	%rax, %rdi
	movl	$0, %eax
	call	printf@PLT
	movq	stdin(%rip), %rax
	movq	%rax, %rdi
	call	fflush@PLT
	movq	stdin(%rip), %rdx
	leaq	-64(%rbp), %rax
	movl	$50, %esi
	movq	%rax, %rdi
	call	fgets@PLT
	movq	-120(%rbp), %rax
	leaq	176(%rax), %rdx
	leaq	-64(%rbp), %rax
	movq	%rax, %rsi
	movq	%rdx, %rdi
	call	strcpy@PLT
	leaq	.LC17(%rip), %rax
	movq	%rax, %rdi
	movl	$0, %eax
	call	printf@PLT
	movq	stdin(%rip), %rax
	movq	%rax, %rdi
	call	fflush@PLT
	movq	stdin(%rip), %rdx
	leaq	-64(%rbp), %rax
	movl	$50, %esi
	movq	%rax, %rdi
	call	fgets@PLT
	movq	-120(%rbp), %rax
	leaq	206(%rax), %rdx
	leaq	-64(%rbp), %rax
	movq	%rax, %rsi
	movq	%rdx, %rdi
	call	strcpy@PLT
	movq	_TIG_iO_oZZz_1_verifica_id_1_opaque_ptr_1(%rip), %rdx
	movq	_TIG_iO_oZZz_1_verifica_id_1_opaque_ptr_2(%rip), %rax
	cmpq	%rax, %rdx
	je	.L10
	movl	$0, %eax
	jmp	.L11
.L10:
	movl	$0, %eax
.L11:
	movq	-8(%rbp), %rdx
	subq	%fs:40, %rdx
	je	.L12
	call	__stack_chk_fail@PLT
.L12:
	leave
	.cfi_def_cfa 7, 8
	ret
	.cfi_endproc
.LFE0:
	.size	cadastro, .-cadastro
	.section	.rodata
.LC18:
	.string	"r+b"
	.align 8
.LC19:
	.string	"Erro, nao foi possivel abrir o arquivo"
.LC20:
	.string	"Digite o nome: "
	.align 8
.LC21:
	.string	"Digite a quantidade de livros: "
.LC22:
	.string	"%d"
.LC23:
	.string	"Livro %d atrasado\n"
	.align 8
.LC24:
	.string	"Nao pode realizar emprestimos devido aos atrasos"
	.align 8
.LC25:
	.string	"Erro: quantidade acima da permitida"
	.align 8
.LC26:
	.string	"Digite a quantidade de livros (max %d): "
.LC27:
	.string	"Digite o nome do livro %d: "
	.align 8
.LC28:
	.string	"Digite o nome do autor do livro %d: "
.LC29:
	.string	"Escolha o livro devolvido:"
	.align 8
.LC30:
	.string	"%d. Nome: %s   Autor: %s(%d/%d/%d)\n"
	.text
	.globl	altera_emprestimo
	.type	altera_emprestimo, @function
altera_emprestimo:
.LFB1:
	.cfi_startproc
	endbr64
	pushq	%rbp
	.cfi_def_cfa_offset 16
	.cfi_offset 6, -16
	movq	%rsp, %rbp
	.cfi_def_cfa_register 6
	subq	$1360, %rsp
	movl	%edi, -1332(%rbp)
	movl	%esi, -1336(%rbp)
	movl	%edx, -1340(%rbp)
	movq	%rcx, -1352(%rbp)
	movq	%r8, -1360(%rbp)
	movl	%r9d, -1344(%rbp)
	movq	%fs:40, %rax
	movq	%rax, -8(%rbp)
	xorl	%eax, %eax
#APP
# 222 "murilocpontes_Trabalho-2-Lab-ICC-biblioteca_main_windows.c" 1
	##_ANNOTATION_INITIALREGION_-TIG-iO-oZZz-1-altera-emprestimo--14
# 0 "" 2
# 226 "murilocpontes_Trabalho-2-Lab-ICC-biblioteca_main_windows.c" 1
	##_ANNOTATION_ATOMICREGION_-TIG-iO-oZZz-1-altera-emprestimo--13
# 0 "" 2
#NO_APP
	movl	$24, %edi
	call	malloc@PLT
	movq	%rax, -1272(%rbp)
	movq	-1272(%rbp), %rax
	movq	-1272(%rbp), %rdx
	movq	%rdx, (%rax)
	movq	-1272(%rbp), %rax
	movq	-1272(%rbp), %rdx
	movq	%rdx, 8(%rax)
	movq	-1272(%rbp), %rax
	movq	%rax, _TIG_iO_oZZz_1_altera_emprestimo_1_opaque_list_1(%rip)
	call	rand@PLT
	movl	%eax, -1292(%rbp)
	movl	$24, %edi
	call	malloc@PLT
	movq	%rax, -1264(%rbp)
	movq	-1264(%rbp), %rax
	movl	$0, 16(%rax)
	movq	_TIG_iO_oZZz_1_altera_emprestimo_1_opaque_list_1(%rip), %rax
	movq	(%rax), %rdx
	movq	-1264(%rbp), %rax
	movq	%rdx, (%rax)
	movq	_TIG_iO_oZZz_1_altera_emprestimo_1_opaque_list_1(%rip), %rdx
	movq	-1264(%rbp), %rax
	movq	%rdx, 8(%rax)
	movq	_TIG_iO_oZZz_1_altera_emprestimo_1_opaque_list_1(%rip), %rax
	movq	(%rax), %rax
	movq	-1264(%rbp), %rdx
	movq	%rdx, 8(%rax)
	movq	_TIG_iO_oZZz_1_altera_emprestimo_1_opaque_list_1(%rip), %rax
	movq	-1264(%rbp), %rdx
	movq	%rdx, (%rax)
	call	rand@PLT
	movl	%eax, -1288(%rbp)
	movl	$24, %edi
	call	malloc@PLT
	movq	%rax, -1256(%rbp)
	movq	-1256(%rbp), %rax
	movl	-1288(%rbp), %edx
	movl	%edx, 16(%rax)
	movq	_TIG_iO_oZZz_1_altera_emprestimo_1_opaque_list_1(%rip), %rax
	movq	(%rax), %rdx
	movq	-1256(%rbp), %rax
	movq	%rdx, (%rax)
	movq	_TIG_iO_oZZz_1_altera_emprestimo_1_opaque_list_1(%rip), %rdx
	movq	-1256(%rbp), %rax
	movq	%rdx, 8(%rax)
	movq	_TIG_iO_oZZz_1_altera_emprestimo_1_opaque_list_1(%rip), %rax
	movq	(%rax), %rax
	movq	-1256(%rbp), %rdx
	movq	%rdx, 8(%rax)
	movq	_TIG_iO_oZZz_1_altera_emprestimo_1_opaque_list_1(%rip), %rax
	movq	-1256(%rbp), %rdx
	movq	%rdx, (%rax)
	call	rand@PLT
	movl	%eax, -1284(%rbp)
	movl	$24, %edi
	call	malloc@PLT
	movq	%rax, -1248(%rbp)
	movl	-1284(%rbp), %eax
	leal	(%rax,%rax), %edx
	movq	-1248(%rbp), %rax
	movl	%edx, 16(%rax)
	movq	_TIG_iO_oZZz_1_altera_emprestimo_1_opaque_list_1(%rip), %rax
	movq	(%rax), %rdx
	movq	-1248(%rbp), %rax
	movq	%rdx, (%rax)
	movq	_TIG_iO_oZZz_1_altera_emprestimo_1_opaque_list_1(%rip), %rdx
	movq	-1248(%rbp), %rax
	movq	%rdx, 8(%rax)
	movq	_TIG_iO_oZZz_1_altera_emprestimo_1_opaque_list_1(%rip), %rax
	movq	(%rax), %rax
	movq	-1248(%rbp), %rdx
	movq	%rdx, 8(%rax)
	movq	_TIG_iO_oZZz_1_altera_emprestimo_1_opaque_list_1(%rip), %rax
	movq	-1248(%rbp), %rdx
	movq	%rdx, (%rax)
	call	rand@PLT
	movl	%eax, -1280(%rbp)
	movl	$24, %edi
	call	malloc@PLT
	movq	%rax, -1240(%rbp)
	movl	-1280(%rbp), %edx
	movl	%edx, %eax
	addl	%eax, %eax
	addl	%eax, %edx
	movq	-1240(%rbp), %rax
	movl	%edx, 16(%rax)
	movq	_TIG_iO_oZZz_1_altera_emprestimo_1_opaque_list_1(%rip), %rax
	movq	(%rax), %rdx
	movq	-1240(%rbp), %rax
	movq	%rdx, (%rax)
	movq	_TIG_iO_oZZz_1_altera_emprestimo_1_opaque_list_1(%rip), %rdx
	movq	-1240(%rbp), %rax
	movq	%rdx, 8(%rax)
	movq	_TIG_iO_oZZz_1_altera_emprestimo_1_opaque_list_1(%rip), %rax
	movq	(%rax), %rax
	movq	-1240(%rbp), %rdx
	movq	%rdx, 8(%rax)
	movq	_TIG_iO_oZZz_1_altera_emprestimo_1_opaque_list_1(%rip), %rax
	movq	-1240(%rbp), %rdx
	movq	%rdx, (%rax)
	movq	_TIG_iO_oZZz_1_altera_emprestimo_1_opaque_list_1(%rip), %rax
	movq	(%rax), %rax
	movq	%rax, _TIG_iO_oZZz_1_altera_emprestimo_1_opaque_ptr_1(%rip)
	movq	_TIG_iO_oZZz_1_altera_emprestimo_1_opaque_ptr_1(%rip), %rax
	movq	%rax, _TIG_iO_oZZz_1_altera_emprestimo_1_opaque_ptr_2(%rip)
	movq	_TIG_iO_oZZz_1_altera_emprestimo_1_opaque_ptr_2(%rip), %rax
	movq	(%rax), %rax
	movq	%rax, _TIG_iO_oZZz_1_altera_emprestimo_1_opaque_ptr_2(%rip)
	nop
	nop
	movb	$36, -1318(%rbp)
	movq	-1352(%rbp), %rax
	leaq	.LC18(%rip), %rdx
	movq	%rdx, %rsi
	movq	%rax, %rdi
	call	fopen@PLT
	movq	%rax, -1232(%rbp)
	movq	-1232(%rbp), %rax
	movq	%rax, -1224(%rbp)
	movl	$4, %esi
	movl	$5, %edi
	call	calloc@PLT
	movq	%rax, -1216(%rbp)
	movq	-1216(%rbp), %rax
	movq	%rax, -1208(%rbp)
	cmpq	$0, -1224(%rbp)
	jne	.L16
	leaq	.LC19(%rip), %rax
	movq	%rax, %rdi
	call	puts@PLT
	jmp	.L15
.L16:
	leaq	.LC20(%rip), %rax
	movq	%rax, %rdi
	movl	$0, %eax
	call	printf@PLT
	movq	stdin(%rip), %rax
	movq	%rax, %rdi
	call	fflush@PLT
	movq	stdin(%rip), %rdx
	leaq	-64(%rbp), %rax
	movl	$50, %esi
	movq	%rax, %rdi
	call	fgets@PLT
	movq	-1208(%rbp), %rax
	movl	(%rax), %eax
	leaq	-64(%rbp), %rdx
	movq	-1360(%rbp), %rsi
	movl	$2, %ecx
	movl	%eax, %edi
	call	confirma_senha
	cmpl	$1, -1344(%rbp)
	jne	.L18
	leaq	.LC21(%rip), %rax
	movq	%rax, %rdi
	movl	$0, %eax
	call	printf@PLT
	movq	stdin(%rip), %rax
	movq	%rax, %rdi
	call	fflush@PLT
	leaq	-1316(%rbp), %rax
	movq	%rax, %rsi
	leaq	.LC22(%rip), %rax
	movq	%rax, %rdi
	movl	$0, %eax
	call	__isoc99_scanf@PLT
.L18:
	movq	stdin(%rip), %rax
	movq	%rax, %rdi
	call	fflush@PLT
.L51:
	movq	-1224(%rbp), %rdx
	leaq	-768(%rbp), %rax
	movq	%rdx, %rcx
	movl	$50, %edx
	movl	$1, %esi
	movq	%rax, %rdi
	call	fread@PLT
	leaq	-768(%rbp), %rdx
	leaq	-64(%rbp), %rax
	movq	%rdx, %rsi
	movq	%rax, %rdi
	call	strcmp@PLT
	movl	%eax, -1276(%rbp)
	cmpl	$0, -1276(%rbp)
	jne	.L19
	movq	-1224(%rbp), %rax
	leaq	-768(%rbp), %rdx
	leaq	52(%rdx), %rdi
	movq	%rax, %rcx
	movl	$1, %edx
	movl	$4, %esi
	call	fread@PLT
	movq	-1224(%rbp), %rax
	leaq	-768(%rbp), %rdx
	leaq	56(%rdx), %rdi
	movq	%rax, %rcx
	movl	$1, %edx
	movl	$4, %esi
	call	fread@PLT
	cmpl	$1, -1344(%rbp)
	jne	.L20
	movl	$0, -1300(%rbp)
	movl	$0, -1296(%rbp)
	jmp	.L21
.L25:
	movq	-1224(%rbp), %rax
	movl	$1, %edx
	movl	$12, %esi
	movq	%rax, %rdi
	call	fseek@PLT
	leaq	-768(%rbp), %rdx
	movl	-1296(%rbp), %eax
	cltq
	addq	$28, %rax
	salq	$2, %rax
	addq	%rdx, %rax
	leaq	8(%rax), %rdi
	movq	-1224(%rbp), %rax
	movq	%rax, %rcx
	movl	$1, %edx
	movl	$4, %esi
	call	fread@PLT
	leaq	-768(%rbp), %rdx
	movl	-1296(%rbp), %eax
	cltq
	addq	$32, %rax
	salq	$2, %rax
	addq	%rdx, %rax
	leaq	12(%rax), %rdi
	movq	-1224(%rbp), %rax
	movq	%rax, %rcx
	movl	$1, %edx
	movl	$4, %esi
	call	fread@PLT
	leaq	-768(%rbp), %rdx
	movl	-1296(%rbp), %eax
	cltq
	addq	$40, %rax
	salq	$2, %rax
	leaq	(%rdx,%rax), %rdi
	movq	-1224(%rbp), %rax
	movq	%rax, %rcx
	movl	$1, %edx
	movl	$4, %esi
	call	fread@PLT
	leaq	-768(%rbp), %rcx
	movl	-1296(%rbp), %eax
	movslq	%eax, %rdx
	movq	%rdx, %rax
	salq	$2, %rax
	addq	%rdx, %rax
	leaq	0(,%rax,4), %rdx
	addq	%rdx, %rax
	addq	%rax, %rax
	addq	$176, %rax
	addq	%rcx, %rax
	leaq	4(%rax), %rdi
	movq	-1224(%rbp), %rax
	movq	%rax, %rcx
	movl	$50, %edx
	movl	$1, %esi
	call	fread@PLT
	movq	-1224(%rbp), %rax
	movl	$1, %edx
	movl	$50, %esi
	movq	%rax, %rdi
	call	fseek@PLT
	movl	-1296(%rbp), %eax
	cltq
	addq	$40, %rax
	movl	-768(%rbp,%rax,4), %edx
	movl	-1340(%rbp), %eax
	cmpl	%eax, %edx
	jge	.L22
	movl	-1296(%rbp), %eax
	addl	$1, %eax
	movl	%eax, %esi
	leaq	.LC23(%rip), %rax
	movq	%rax, %rdi
	movl	$0, %eax
	call	printf@PLT
	movl	-1300(%rbp), %eax
	addl	$1, %eax
	movl	%eax, -1300(%rbp)
.L22:
	movl	-1296(%rbp), %eax
	cltq
	addq	$40, %rax
	movl	-768(%rbp,%rax,4), %edx
	movl	-1340(%rbp), %eax
	cmpl	%eax, %edx
	jne	.L23
	movl	-1296(%rbp), %eax
	cltq
	addq	$32, %rax
	movl	-756(%rbp,%rax,4), %edx
	movl	-1336(%rbp), %eax
	cmpl	%eax, %edx
	jge	.L24
	movl	-1296(%rbp), %eax
	addl	$1, %eax
	movl	%eax, %esi
	leaq	.LC23(%rip), %rax
	movq	%rax, %rdi
	movl	$0, %eax
	call	printf@PLT
	movl	-1300(%rbp), %eax
	addl	$1, %eax
	movl	%eax, -1300(%rbp)
.L24:
	movl	-1296(%rbp), %eax
	cltq
	addq	$32, %rax
	movl	-756(%rbp,%rax,4), %edx
	movl	-1336(%rbp), %eax
	cmpl	%eax, %edx
	jne	.L23
	movl	-1296(%rbp), %eax
	cltq
	addq	$28, %rax
	movl	-760(%rbp,%rax,4), %edx
	movl	-1332(%rbp), %eax
	cmpl	%eax, %edx
	jge	.L23
	movl	-1296(%rbp), %eax
	addl	$1, %eax
	movl	%eax, %esi
	leaq	.LC23(%rip), %rax
	movq	%rax, %rdi
	movl	$0, %eax
	call	printf@PLT
	movl	-1300(%rbp), %eax
	addl	$1, %eax
	movl	%eax, -1300(%rbp)
.L23:
	movq	-1224(%rbp), %rax
	movl	$1, %edx
	movl	$50, %esi
	movq	%rax, %rdi
	call	fseek@PLT
	addl	$1, -1296(%rbp)
.L21:
	movl	-712(%rbp), %eax
	cmpl	%eax, -1296(%rbp)
	jl	.L25
	movl	-1300(%rbp), %eax
	testl	%eax, %eax
	je	.L26
	leaq	.LC24(%rip), %rax
	movq	%rax, %rdi
	call	puts@PLT
	jmp	.L27
.L26:
	movl	-712(%rbp), %edx
	movl	-1316(%rbp), %eax
	addl	%edx, %eax
	cmpl	$5, %eax
	jle	.L28
	cmpl	$1, -1344(%rbp)
	je	.L29
	jmp	.L30
.L28:
	movq	_TIG_iO_oZZz_1_verifica_id_1_opaque_ptr_1(%rip), %rdx
	movq	_TIG_iO_oZZz_1_verifica_id_1_opaque_ptr_2(%rip), %rax
	cmpq	%rax, %rdx
	je	.L54
	jmp	.L30
.L29:
	leaq	.LC25(%rip), %rax
	movq	%rax, %rdi
	call	puts@PLT
	movl	-712(%rbp), %edx
	movl	$5, %eax
	subl	%edx, %eax
	movl	%eax, %esi
	leaq	.LC26(%rip), %rax
	movq	%rax, %rdi
	movl	$0, %eax
	call	printf@PLT
	leaq	-1316(%rbp), %rax
	movq	%rax, %rsi
	leaq	.LC22(%rip), %rax
	movq	%rax, %rdi
	movl	$0, %eax
	call	__isoc99_scanf@PLT
	jmp	.L26
.L30:
	movl	$0, -1296(%rbp)
	jmp	.L33
.L34:
	movq	stdin(%rip), %rax
	movq	%rax, %rdi
	call	fflush@PLT
	movl	-1296(%rbp), %eax
	addl	$1, %eax
	movl	%eax, %esi
	leaq	.LC27(%rip), %rax
	movq	%rax, %rdi
	movl	$0, %eax
	call	printf@PLT
	movq	stdin(%rip), %rax
	movq	%rax, %rdi
	call	fflush@PLT
	movq	stdin(%rip), %rdx
	leaq	-1184(%rbp), %rsi
	movl	-1296(%rbp), %eax
	movslq	%eax, %rcx
	movq	%rcx, %rax
	salq	$2, %rax
	addq	%rcx, %rax
	leaq	0(,%rax,4), %rcx
	addq	%rcx, %rax
	addq	%rax, %rax
	addq	%rsi, %rax
	movl	$50, %esi
	movq	%rax, %rdi
	call	fgets@PLT
	movl	-1296(%rbp), %eax
	addl	$1, %eax
	movl	%eax, %esi
	leaq	.LC28(%rip), %rax
	movq	%rax, %rdi
	movl	$0, %eax
	call	printf@PLT
	movq	stdin(%rip), %rax
	movq	%rax, %rdi
	call	fflush@PLT
	movq	stdin(%rip), %rdx
	leaq	-976(%rbp), %rsi
	movl	-1296(%rbp), %eax
	movslq	%eax, %rcx
	movq	%rcx, %rax
	salq	$2, %rax
	addq	%rcx, %rax
	leaq	0(,%rax,4), %rcx
	addq	%rcx, %rax
	addq	%rax, %rax
	addq	%rsi, %rax
	movl	$50, %esi
	movq	%rax, %rdi
	call	fgets@PLT
	addl	$1, -1296(%rbp)
.L33:
	movl	-1316(%rbp), %eax
	cmpl	%eax, -1296(%rbp)
	jl	.L34
	movl	-1340(%rbp), %edx
	movl	-1336(%rbp), %esi
	movl	-1332(%rbp), %eax
	leaq	-1304(%rbp), %r8
	leaq	-1308(%rbp), %rdi
	leaq	-1312(%rbp), %rcx
	movq	%r8, %r9
	movq	%rdi, %r8
	movl	%eax, %edi
	call	devolucao
	movl	-712(%rbp), %eax
	movl	%eax, -1296(%rbp)
	jmp	.L35
.L36:
	movl	-1312(%rbp), %eax
	movl	-1296(%rbp), %edx
	movslq	%edx, %rdx
	addq	$28, %rdx
	movl	%eax, -760(%rbp,%rdx,4)
	movl	-1308(%rbp), %eax
	movl	-1296(%rbp), %edx
	movslq	%edx, %rdx
	addq	$32, %rdx
	movl	%eax, -756(%rbp,%rdx,4)
	movl	-1304(%rbp), %eax
	movl	-1296(%rbp), %edx
	movslq	%edx, %rdx
	addq	$40, %rdx
	movl	%eax, -768(%rbp,%rdx,4)
	addl	$1, -1296(%rbp)
.L35:
	cmpl	$4, -1296(%rbp)
	jle	.L36
	movl	-712(%rbp), %eax
	cmpl	$4, %eax
	jg	.L37
	movl	$0, -1296(%rbp)
	jmp	.L38
.L39:
	movq	-1224(%rbp), %rdx
	leaq	-1332(%rbp), %rax
	movq	%rdx, %rcx
	movl	$1, %edx
	movl	$4, %esi
	movq	%rax, %rdi
	call	fwrite@PLT
	movq	-1224(%rbp), %rdx
	leaq	-1336(%rbp), %rax
	movq	%rdx, %rcx
	movl	$1, %edx
	movl	$4, %esi
	movq	%rax, %rdi
	call	fwrite@PLT
	movq	-1224(%rbp), %rdx
	leaq	-1340(%rbp), %rax
	movq	%rdx, %rcx
	movl	$1, %edx
	movl	$4, %esi
	movq	%rax, %rdi
	call	fwrite@PLT
	movl	-712(%rbp), %edx
	movl	-1296(%rbp), %eax
	addl	%edx, %eax
	leaq	-768(%rbp), %rdx
	cltq
	addq	$28, %rax
	salq	$2, %rax
	addq	%rdx, %rax
	leaq	8(%rax), %rdi
	movq	-1224(%rbp), %rax
	movq	%rax, %rcx
	movl	$1, %edx
	movl	$4, %esi
	call	fwrite@PLT
	movl	-712(%rbp), %edx
	movl	-1296(%rbp), %eax
	addl	%edx, %eax
	leaq	-768(%rbp), %rdx
	cltq
	addq	$32, %rax
	salq	$2, %rax
	addq	%rdx, %rax
	leaq	12(%rax), %rdi
	movq	-1224(%rbp), %rax
	movq	%rax, %rcx
	movl	$1, %edx
	movl	$4, %esi
	call	fwrite@PLT
	movl	-712(%rbp), %edx
	movl	-1296(%rbp), %eax
	addl	%edx, %eax
	leaq	-768(%rbp), %rdx
	cltq
	addq	$40, %rax
	salq	$2, %rax
	leaq	(%rdx,%rax), %rdi
	movq	-1224(%rbp), %rax
	movq	%rax, %rcx
	movl	$1, %edx
	movl	$4, %esi
	call	fwrite@PLT
	leaq	-1184(%rbp), %rcx
	movl	-1296(%rbp), %eax
	movslq	%eax, %rdx
	movq	%rdx, %rax
	salq	$2, %rax
	addq	%rdx, %rax
	leaq	0(,%rax,4), %rdx
	addq	%rdx, %rax
	addq	%rax, %rax
	leaq	(%rcx,%rax), %rdi
	movq	-1224(%rbp), %rax
	movq	%rax, %rcx
	movl	$50, %edx
	movl	$1, %esi
	call	fwrite@PLT
	leaq	-976(%rbp), %rcx
	movl	-1296(%rbp), %eax
	movslq	%eax, %rdx
	movq	%rdx, %rax
	salq	$2, %rax
	addq	%rdx, %rax
	leaq	0(,%rax,4), %rdx
	addq	%rdx, %rax
	addq	%rax, %rax
	leaq	(%rcx,%rax), %rdi
	movq	-1224(%rbp), %rax
	movq	%rax, %rcx
	movl	$50, %edx
	movl	$1, %esi
	call	fwrite@PLT
	addl	$1, -1296(%rbp)
.L38:
	movl	-1316(%rbp), %eax
	cmpl	%eax, -1296(%rbp)
	jl	.L39
	jmp	.L40
.L37:
	movl	-712(%rbp), %eax
	negl	%eax
	cltq
	imulq	$524, %rax, %rax
	movq	%rax, %rcx
	movq	-1224(%rbp), %rax
	movl	$1, %edx
	movq	%rcx, %rsi
	movq	%rax, %rdi
	call	fseek@PLT
	movq	-1224(%rbp), %rax
	movl	$1, %edx
	movl	$24, %esi
	movq	%rax, %rdi
	call	fseek@PLT
	movl	$0, -1296(%rbp)
	jmp	.L41
.L43:
	movq	-1224(%rbp), %rdx
	leaq	-1317(%rbp), %rax
	movq	%rdx, %rcx
	movl	$1, %edx
	movl	$1, %esi
	movq	%rax, %rdi
	call	fread@PLT
	movq	-1224(%rbp), %rax
	movl	$1, %edx
	movq	$-1, %rsi
	movq	%rax, %rdi
	call	fseek@PLT
	movzbl	-1317(%rbp), %edx
	movzbl	-1318(%rbp), %eax
	cmpb	%al, %dl
	jne	.L42
	movq	-1224(%rbp), %rax
	movq	%rax, %rdi
	call	ftell@PLT
	movq	%rax, -1192(%rbp)
	movl	-1296(%rbp), %eax
	cltq
	leaq	0(,%rax,4), %rdx
	movq	-1208(%rbp), %rax
	addq	%rdx, %rax
	movq	-1192(%rbp), %rdx
	movl	%edx, (%rax)
.L42:
	movq	-1224(%rbp), %rax
	movl	$1, %edx
	movl	$74, %esi
	movq	%rax, %rdi
	call	fseek@PLT
	addl	$1, -1296(%rbp)
.L41:
	cmpl	$4, -1296(%rbp)
	jle	.L43
	movl	$0, -1296(%rbp)
	jmp	.L44
.L46:
	movl	-1296(%rbp), %eax
	cltq
	leaq	0(,%rax,4), %rdx
	movq	-1208(%rbp), %rax
	addq	%rdx, %rax
	movl	(%rax), %eax
	testl	%eax, %eax
	je	.L45
	movl	-1296(%rbp), %eax
	cltq
	leaq	0(,%rax,4), %rdx
	movq	-1208(%rbp), %rax
	addq	%rdx, %rax
	movl	(%rax), %eax
	movslq	%eax, %rcx
	movq	-1224(%rbp), %rax
	movl	$0, %edx
	movq	%rcx, %rsi
	movq	%rax, %rdi
	call	fseek@PLT
	movq	-1224(%rbp), %rax
	movl	$1, %edx
	movq	$-24, %rsi
	movq	%rax, %rdi
	call	fseek@PLT
	movq	-1224(%rbp), %rdx
	leaq	-1332(%rbp), %rax
	movq	%rdx, %rcx
	movl	$1, %edx
	movl	$4, %esi
	movq	%rax, %rdi
	call	fwrite@PLT
	movq	-1224(%rbp), %rdx
	leaq	-1336(%rbp), %rax
	movq	%rdx, %rcx
	movl	$1, %edx
	movl	$4, %esi
	movq	%rax, %rdi
	call	fwrite@PLT
	movq	-1224(%rbp), %rdx
	leaq	-1340(%rbp), %rax
	movq	%rdx, %rcx
	movl	$1, %edx
	movl	$4, %esi
	movq	%rax, %rdi
	call	fwrite@PLT
	movl	-712(%rbp), %edx
	movl	-1296(%rbp), %eax
	addl	%edx, %eax
	leaq	-768(%rbp), %rdx
	cltq
	addq	$28, %rax
	salq	$2, %rax
	addq	%rdx, %rax
	leaq	8(%rax), %rdi
	movq	-1224(%rbp), %rax
	movq	%rax, %rcx
	movl	$1, %edx
	movl	$4, %esi
	call	fwrite@PLT
	movl	-712(%rbp), %edx
	movl	-1296(%rbp), %eax
	addl	%edx, %eax
	leaq	-768(%rbp), %rdx
	cltq
	addq	$32, %rax
	salq	$2, %rax
	addq	%rdx, %rax
	leaq	12(%rax), %rdi
	movq	-1224(%rbp), %rax
	movq	%rax, %rcx
	movl	$1, %edx
	movl	$4, %esi
	call	fwrite@PLT
	movl	-712(%rbp), %edx
	movl	-1296(%rbp), %eax
	addl	%edx, %eax
	leaq	-768(%rbp), %rdx
	cltq
	addq	$40, %rax
	salq	$2, %rax
	leaq	(%rdx,%rax), %rdi
	movq	-1224(%rbp), %rax
	movq	%rax, %rcx
	movl	$1, %edx
	movl	$4, %esi
	call	fwrite@PLT
	leaq	-1184(%rbp), %rcx
	movl	-1296(%rbp), %eax
	movslq	%eax, %rdx
	movq	%rdx, %rax
	salq	$2, %rax
	addq	%rdx, %rax
	leaq	0(,%rax,4), %rdx
	addq	%rdx, %rax
	addq	%rax, %rax
	leaq	(%rcx,%rax), %rdi
	movq	-1224(%rbp), %rax
	movq	%rax, %rcx
	movl	$50, %edx
	movl	$1, %esi
	call	fwrite@PLT
	leaq	-976(%rbp), %rcx
	movl	-1296(%rbp), %eax
	movslq	%eax, %rdx
	movq	%rdx, %rax
	salq	$2, %rax
	addq	%rdx, %rax
	leaq	0(,%rax,4), %rdx
	addq	%rdx, %rax
	addq	%rax, %rax
	leaq	(%rcx,%rax), %rdi
	movq	-1224(%rbp), %rax
	movq	%rax, %rcx
	movl	$50, %edx
	movl	$1, %esi
	call	fwrite@PLT
.L45:
	addl	$1, -1296(%rbp)
.L44:
	cmpl	$4, -1296(%rbp)
	jle	.L46
.L40:
	movl	-712(%rbp), %edx
	movl	-1316(%rbp), %eax
	addl	%edx, %eax
	movl	%eax, -712(%rbp)
	movl	-712(%rbp), %eax
	negl	%eax
	cltq
	imulq	$524, %rax, %rax
	movq	%rax, %rcx
	movq	-1224(%rbp), %rax
	movl	$1, %edx
	movq	%rcx, %rsi
	movq	%rax, %rdi
	call	fseek@PLT
	movq	-1224(%rbp), %rax
	movl	$1, %edx
	movq	$-4, %rsi
	movq	%rax, %rdi
	call	fseek@PLT
	movq	-1224(%rbp), %rax
	leaq	-768(%rbp), %rdx
	leaq	56(%rdx), %rdi
	movq	%rax, %rcx
	movl	$1, %edx
	movl	$4, %esi
	call	fwrite@PLT
	jmp	.L51
.L20:
	leaq	.LC29(%rip), %rax
	movq	%rax, %rdi
	call	puts@PLT
	movl	$0, -1296(%rbp)
	jmp	.L48
.L49:
	movq	-1224(%rbp), %rax
	movl	$1, %edx
	movl	$12, %esi
	movq	%rax, %rdi
	call	fseek@PLT
	leaq	-768(%rbp), %rdx
	movl	-1296(%rbp), %eax
	cltq
	addq	$28, %rax
	salq	$2, %rax
	addq	%rdx, %rax
	leaq	8(%rax), %rdi
	movq	-1224(%rbp), %rax
	movq	%rax, %rcx
	movl	$1, %edx
	movl	$4, %esi
	call	fread@PLT
	leaq	-768(%rbp), %rdx
	movl	-1296(%rbp), %eax
	cltq
	addq	$32, %rax
	salq	$2, %rax
	addq	%rdx, %rax
	leaq	12(%rax), %rdi
	movq	-1224(%rbp), %rax
	movq	%rax, %rcx
	movl	$1, %edx
	movl	$4, %esi
	call	fread@PLT
	leaq	-768(%rbp), %rdx
	movl	-1296(%rbp), %eax
	cltq
	addq	$40, %rax
	salq	$2, %rax
	leaq	(%rdx,%rax), %rdi
	movq	-1224(%rbp), %rax
	movq	%rax, %rcx
	movl	$1, %edx
	movl	$4, %esi
	call	fread@PLT
	leaq	-768(%rbp), %rcx
	movl	-1296(%rbp), %eax
	movslq	%eax, %rdx
	movq	%rdx, %rax
	salq	$2, %rax
	addq	%rdx, %rax
	leaq	0(,%rax,4), %rdx
	addq	%rdx, %rax
	addq	%rax, %rax
	addq	$176, %rax
	addq	%rcx, %rax
	leaq	4(%rax), %rdi
	movq	-1224(%rbp), %rax
	movq	%rax, %rcx
	movl	$50, %edx
	movl	$1, %esi
	call	fread@PLT
	leaq	-768(%rbp), %rcx
	movl	-1296(%rbp), %eax
	movslq	%eax, %rdx
	movq	%rdx, %rax
	salq	$2, %rax
	addq	%rdx, %rax
	leaq	0(,%rax,4), %rdx
	addq	%rdx, %rax
	addq	%rax, %rax
	addq	$416, %rax
	addq	%rcx, %rax
	leaq	14(%rax), %rdi
	movq	-1224(%rbp), %rax
	movq	%rax, %rcx
	movl	$50, %edx
	movl	$1, %esi
	call	fread@PLT
	movl	-1296(%rbp), %eax
	cltq
	addq	$40, %rax
	movl	-768(%rbp,%rax,4), %esi
	movl	-1296(%rbp), %eax
	cltq
	addq	$32, %rax
	movl	-756(%rbp,%rax,4), %r8d
	movl	-1296(%rbp), %eax
	cltq
	addq	$28, %rax
	movl	-760(%rbp,%rax,4), %edi
	leaq	-768(%rbp), %rcx
	movl	-1296(%rbp), %eax
	movslq	%eax, %rdx
	movq	%rdx, %rax
	salq	$2, %rax
	addq	%rdx, %rax
	leaq	0(,%rax,4), %rdx
	addq	%rdx, %rax
	addq	%rax, %rax
	addq	$416, %rax
	addq	%rcx, %rax
	leaq	14(%rax), %rcx
	leaq	-768(%rbp), %r9
	movl	-1296(%rbp), %eax
	movslq	%eax, %rdx
	movq	%rdx, %rax
	salq	$2, %rax
	addq	%rdx, %rax
	leaq	0(,%rax,4), %rdx
	addq	%rdx, %rax
	addq	%rax, %rax
	addq	$176, %rax
	addq	%r9, %rax
	leaq	4(%rax), %rdx
	movl	-1296(%rbp), %eax
	addl	$1, %eax
	subq	$8, %rsp
	pushq	%rsi
	movl	%r8d, %r9d
	movl	%edi, %r8d
	movl	%eax, %esi
	leaq	.LC30(%rip), %rax
	movq	%rax, %rdi
	movl	$0, %eax
	call	printf@PLT
	addq	$16, %rsp
	addl	$1, -1296(%rbp)
.L48:
	movl	-712(%rbp), %eax
	cmpl	%eax, -1296(%rbp)
	jl	.L49
	movq	stdin(%rip), %rax
	movq	%rax, %rdi
	call	fflush@PLT
	movq	stdin(%rip), %rdx
	leaq	-74(%rbp), %rax
	movl	$5, %esi
	movq	%rax, %rdi
	call	fgets@PLT
	leaq	-74(%rbp), %rax
	movq	%rax, %rdi
	call	atoi@PLT
	movl	%eax, -1300(%rbp)
	movl	-712(%rbp), %eax
	negl	%eax
	movslq	%eax, %rdx
	movq	%rdx, %rax
	salq	$5, %rax
	subq	%rdx, %rax
	salq	$2, %rax
	movq	%rax, %rcx
	movq	-1224(%rbp), %rax
	movl	$1, %edx
	movq	%rcx, %rsi
	movq	%rax, %rdi
	call	fseek@PLT
	movq	-1224(%rbp), %rax
	movl	$1, %edx
	movq	$-4, %rsi
	movq	%rax, %rdi
	call	fseek@PLT
	movl	-712(%rbp), %eax
	subl	$1, %eax
	movl	%eax, -712(%rbp)
	movq	-1224(%rbp), %rax
	leaq	-768(%rbp), %rdx
	leaq	56(%rdx), %rdi
	movq	%rax, %rcx
	movl	$1, %edx
	movl	$4, %esi
	call	fwrite@PLT
	movl	-1300(%rbp), %eax
	subl	$1, %eax
	movslq	%eax, %rdx
	movq	%rdx, %rax
	salq	$5, %rax
	subq	%rdx, %rax
	salq	$2, %rax
	movq	%rax, %rcx
	movq	-1224(%rbp), %rax
	movl	$1, %edx
	movq	%rcx, %rsi
	movq	%rax, %rdi
	call	fseek@PLT
	movq	-1224(%rbp), %rax
	movl	$1, %edx
	movl	$24, %esi
	movq	%rax, %rdi
	call	fseek@PLT
	movq	-1224(%rbp), %rdx
	leaq	-1318(%rbp), %rax
	movq	%rdx, %rcx
	movl	$1, %edx
	movl	$1, %esi
	movq	%rax, %rdi
	call	fwrite@PLT
	movq	-1224(%rbp), %rax
	movl	$1, %edx
	movq	$-1, %rsi
	movq	%rax, %rdi
	call	fseek@PLT
	jmp	.L51
.L19:
	movq	-1224(%rbp), %rax
	movl	$1, %edx
	movl	$628, %esi
	movq	%rax, %rdi
	call	fseek@PLT
	movq	-1224(%rbp), %rdx
	leaq	-1300(%rbp), %rax
	movq	%rdx, %rcx
	movl	$1, %edx
	movl	$1, %esi
	movq	%rax, %rdi
	call	fread@PLT
	movq	%rax, -1200(%rbp)
	cmpq	$0, -1200(%rbp)
	je	.L55
	movq	-1224(%rbp), %rax
	movl	$1, %edx
	movq	$-1, %rsi
	movq	%rax, %rdi
	call	fseek@PLT
	jmp	.L51
.L55:
	nop
.L27:
	movq	-1224(%rbp), %rax
	movq	%rax, %rdi
	call	fclose@PLT
	jmp	.L15
.L54:
	nop
.L15:
	movq	-8(%rbp), %rax
	subq	%fs:40, %rax
	je	.L53
	call	__stack_chk_fail@PLT
.L53:
	leave
	.cfi_def_cfa 7, 8
	ret
	.cfi_endproc
.LFE1:
	.size	altera_emprestimo, .-altera_emprestimo
	.section	.rodata
.LC31:
	.string	"rb"
	.text
	.globl	verifica_id
	.type	verifica_id, @function
verifica_id:
.LFB2:
	.cfi_startproc
	endbr64
	pushq	%rbp
	.cfi_def_cfa_offset 16
	.cfi_offset 6, -16
	movq	%rsp, %rbp
	.cfi_def_cfa_register 6
	subq	$96, %rsp
	movq	%rdi, -88(%rbp)
	movq	%fs:40, %rax
	movq	%rax, -8(%rbp)
	xorl	%eax, %eax
#APP
# 579 "murilocpontes_Trabalho-2-Lab-ICC-biblioteca_main_windows.c" 1
	##_ANNOTATION_INITIALREGION_-TIG-iO-oZZz-1-verifica-id--38
# 0 "" 2
# 583 "murilocpontes_Trabalho-2-Lab-ICC-biblioteca_main_windows.c" 1
	##_ANNOTATION_ATOMICREGION_-TIG-iO-oZZz-1-verifica-id--37
# 0 "" 2
#NO_APP
	movl	$24, %edi
	call	malloc@PLT
	movq	%rax, -56(%rbp)
	movq	-56(%rbp), %rax
	movq	-56(%rbp), %rdx
	movq	%rdx, (%rax)
	movq	-56(%rbp), %rax
	movq	-56(%rbp), %rdx
	movq	%rdx, 16(%rax)
	movq	-56(%rbp), %rax
	movq	%rax, _TIG_iO_oZZz_1_verifica_id_1_opaque_list_1(%rip)
	call	rand@PLT
	movl	%eax, -64(%rbp)
	movl	$24, %edi
	call	malloc@PLT
	movq	%rax, -48(%rbp)
	movq	-48(%rbp), %rax
	movl	$0, 8(%rax)
	movq	_TIG_iO_oZZz_1_verifica_id_1_opaque_list_1(%rip), %rax
	movq	(%rax), %rdx
	movq	-48(%rbp), %rax
	movq	%rdx, (%rax)
	movq	_TIG_iO_oZZz_1_verifica_id_1_opaque_list_1(%rip), %rdx
	movq	-48(%rbp), %rax
	movq	%rdx, 16(%rax)
	movq	_TIG_iO_oZZz_1_verifica_id_1_opaque_list_1(%rip), %rax
	movq	(%rax), %rax
	movq	-48(%rbp), %rdx
	movq	%rdx, 16(%rax)
	movq	_TIG_iO_oZZz_1_verifica_id_1_opaque_list_1(%rip), %rax
	movq	-48(%rbp), %rdx
	movq	%rdx, (%rax)
	call	rand@PLT
	movl	%eax, -60(%rbp)
	movl	$24, %edi
	call	malloc@PLT
	movq	%rax, -40(%rbp)
	movq	-40(%rbp), %rax
	movl	-60(%rbp), %edx
	movl	%edx, 8(%rax)
	movq	_TIG_iO_oZZz_1_verifica_id_1_opaque_list_1(%rip), %rax
	movq	(%rax), %rdx
	movq	-40(%rbp), %rax
	movq	%rdx, (%rax)
	movq	_TIG_iO_oZZz_1_verifica_id_1_opaque_list_1(%rip), %rdx
	movq	-40(%rbp), %rax
	movq	%rdx, 16(%rax)
	movq	_TIG_iO_oZZz_1_verifica_id_1_opaque_list_1(%rip), %rax
	movq	(%rax), %rax
	movq	-40(%rbp), %rdx
	movq	%rdx, 16(%rax)
	movq	_TIG_iO_oZZz_1_verifica_id_1_opaque_list_1(%rip), %rax
	movq	-40(%rbp), %rdx
	movq	%rdx, (%rax)
	movq	_TIG_iO_oZZz_1_verifica_id_1_opaque_list_1(%rip), %rax
	movq	(%rax), %rax
	movq	%rax, _TIG_iO_oZZz_1_verifica_id_1_opaque_ptr_1(%rip)
	movq	_TIG_iO_oZZz_1_verifica_id_1_opaque_ptr_1(%rip), %rax
	movq	%rax, _TIG_iO_oZZz_1_verifica_id_1_opaque_ptr_2(%rip)
	movq	_TIG_iO_oZZz_1_verifica_id_1_opaque_ptr_2(%rip), %rax
	movq	(%rax), %rax
	movq	%rax, _TIG_iO_oZZz_1_verifica_id_1_opaque_ptr_2(%rip)
	nop
	nop
	movq	-88(%rbp), %rax
	leaq	.LC31(%rip), %rdx
	movq	%rdx, %rsi
	movq	%rax, %rdi
	call	fopen@PLT
	movq	%rax, -32(%rbp)
	movq	-32(%rbp), %rax
	movq	%rax, -24(%rbp)
	movq	-24(%rbp), %rdx
	leaq	-69(%rbp), %rax
	movq	%rdx, %rcx
	movl	$1, %edx
	movl	$1, %esi
	movq	%rax, %rdi
	call	fread@PLT
	movq	%rax, -16(%rbp)
	cmpq	$0, -16(%rbp)
	jne	.L57
	movl	$0, %eax
	jmp	.L60
.L57:
	movq	_TIG_iO_oZZz_1_verifica_id_1_opaque_ptr_1(%rip), %rdx
	movq	_TIG_iO_oZZz_1_verifica_id_1_opaque_ptr_2(%rip), %rax
	cmpq	%rax, %rdx
	jne	.L59
	movq	-88(%rbp), %rdx
	movl	-64(%rbp), %eax
	movq	%rdx, %rcx
	movl	$0, %edx
	movl	%eax, %esi
	movl	$0, %edi
	call	verifica_cad
	movl	%eax, -60(%rbp)
.L59:
	movq	-24(%rbp), %rax
	movl	$2, %edx
	movq	$-174, %rsi
	movq	%rax, %rdi
	call	fseek@PLT
	movq	-24(%rbp), %rdx
	leaq	-68(%rbp), %rax
	movq	%rdx, %rcx
	movl	$1, %edx
	movl	$4, %esi
	movq	%rax, %rdi
	call	fread@PLT
	movl	-68(%rbp), %eax
	subl	$99999, %eax
.L60:
	movq	-8(%rbp), %rdx
	subq	%fs:40, %rdx
	je	.L61
	call	__stack_chk_fail@PLT
.L61:
	leave
	.cfi_def_cfa 7, 8
	ret
	.cfi_endproc
.LFE2:
	.size	verifica_id, .-verifica_id
	.globl	verifica_cad
	.type	verifica_cad, @function
verifica_cad:
.LFB3:
	.cfi_startproc
	endbr64
	pushq	%rbp
	.cfi_def_cfa_offset 16
	.cfi_offset 6, -16
	movq	%rsp, %rbp
	.cfi_def_cfa_register 6
	addq	$-128, %rsp
	movq	%rdi, -104(%rbp)
	movl	%esi, -108(%rbp)
	movq	%rdx, -120(%rbp)
	movq	%rcx, -128(%rbp)
	movq	%fs:40, %rax
	movq	%rax, -8(%rbp)
	xorl	%eax, %eax
#APP
# 689 "murilocpontes_Trabalho-2-Lab-ICC-biblioteca_main_windows.c" 1
	##_ANNOTATION_INITIALREGION_-TIG-iO-oZZz-1-verifica-cad--34
# 0 "" 2
# 693 "murilocpontes_Trabalho-2-Lab-ICC-biblioteca_main_windows.c" 1
	##_ANNOTATION_ATOMICREGION_-TIG-iO-oZZz-1-verifica-cad--33
# 0 "" 2
#NO_APP
	movl	$24, %edi
	call	malloc@PLT
	movq	%rax, -64(%rbp)
	movq	-64(%rbp), %rax
	movq	-64(%rbp), %rdx
	movq	%rdx, (%rax)
	movq	-64(%rbp), %rax
	movq	-64(%rbp), %rdx
	movq	%rdx, 8(%rax)
	movq	-64(%rbp), %rax
	movq	%rax, _TIG_iO_oZZz_1_verifica_cad_1_opaque_list_1(%rip)
	call	rand@PLT
	movl	%eax, -80(%rbp)
	movl	$24, %edi
	call	malloc@PLT
	movq	%rax, -56(%rbp)
	movq	-56(%rbp), %rax
	movl	$0, 16(%rax)
	movq	_TIG_iO_oZZz_1_verifica_cad_1_opaque_list_1(%rip), %rax
	movq	(%rax), %rdx
	movq	-56(%rbp), %rax
	movq	%rdx, (%rax)
	movq	_TIG_iO_oZZz_1_verifica_cad_1_opaque_list_1(%rip), %rdx
	movq	-56(%rbp), %rax
	movq	%rdx, 8(%rax)
	movq	_TIG_iO_oZZz_1_verifica_cad_1_opaque_list_1(%rip), %rax
	movq	(%rax), %rax
	movq	-56(%rbp), %rdx
	movq	%rdx, 8(%rax)
	movq	_TIG_iO_oZZz_1_verifica_cad_1_opaque_list_1(%rip), %rax
	movq	-56(%rbp), %rdx
	movq	%rdx, (%rax)
	call	rand@PLT
	movl	%eax, -76(%rbp)
	movl	$24, %edi
	call	malloc@PLT
	movq	%rax, -48(%rbp)
	movq	-48(%rbp), %rax
	movl	-76(%rbp), %edx
	movl	%edx, 16(%rax)
	movq	_TIG_iO_oZZz_1_verifica_cad_1_opaque_list_1(%rip), %rax
	movq	(%rax), %rdx
	movq	-48(%rbp), %rax
	movq	%rdx, (%rax)
	movq	_TIG_iO_oZZz_1_verifica_cad_1_opaque_list_1(%rip), %rdx
	movq	-48(%rbp), %rax
	movq	%rdx, 8(%rax)
	movq	_TIG_iO_oZZz_1_verifica_cad_1_opaque_list_1(%rip), %rax
	movq	(%rax), %rax
	movq	-48(%rbp), %rdx
	movq	%rdx, 8(%rax)
	movq	_TIG_iO_oZZz_1_verifica_cad_1_opaque_list_1(%rip), %rax
	movq	-48(%rbp), %rdx
	movq	%rdx, (%rax)
	movq	_TIG_iO_oZZz_1_verifica_cad_1_opaque_list_1(%rip), %rax
	movq	(%rax), %rax
	movq	%rax, _TIG_iO_oZZz_1_verifica_cad_1_opaque_ptr_1(%rip)
	movq	_TIG_iO_oZZz_1_verifica_cad_1_opaque_ptr_1(%rip), %rax
	movq	%rax, _TIG_iO_oZZz_1_verifica_cad_1_opaque_ptr_2(%rip)
	nop
	nop
	movq	-128(%rbp), %rax
	leaq	.LC18(%rip), %rdx
	movq	%rdx, %rsi
	movq	%rax, %rdi
	call	fopen@PLT
	movq	%rax, -40(%rbp)
	movq	-40(%rbp), %rax
	movq	%rax, -32(%rbp)
	cmpq	$0, -32(%rbp)
	jne	.L63
	leaq	.LC19(%rip), %rax
	movq	%rax, %rdi
	call	puts@PLT
	movq	_TIG_iO_oZZz_1_verifica_id_1_opaque_ptr_1(%rip), %rdx
	movq	_TIG_iO_oZZz_1_verifica_id_1_opaque_ptr_2(%rip), %rax
	cmpq	%rax, %rdx
	jne	.L64
	movq	-128(%rbp), %rdx
	movq	-104(%rbp), %rax
	movq	%rdx, %rsi
	movq	%rax, %rdi
	call	salva_cadastro
.L64:
	movl	$-1, %eax
	jmp	.L69
.L63:
	movq	-104(%rbp), %rax
	movq	-32(%rbp), %rdx
	movq	%rdx, %rcx
	movl	$50, %edx
	movl	$1, %esi
	movq	%rax, %rdi
	call	fread@PLT
	movq	-104(%rbp), %rdx
	movq	-120(%rbp), %rax
	movq	%rdx, %rsi
	movq	%rax, %rdi
	call	strcmp@PLT
	movl	%eax, -72(%rbp)
	cmpl	$0, -72(%rbp)
	jne	.L66
	movq	-32(%rbp), %rax
	movq	%rax, %rdi
	call	ftell@PLT
	movq	%rax, -16(%rbp)
	movq	-16(%rbp), %rax
	movl	%eax, -68(%rbp)
	movq	-32(%rbp), %rax
	movq	%rax, %rdi
	call	fclose@PLT
	movl	-68(%rbp), %eax
	jmp	.L69
.L66:
	movq	-32(%rbp), %rax
	movl	$1, %edx
	movl	$174, %esi
	movq	%rax, %rdi
	call	fseek@PLT
	movq	-32(%rbp), %rdx
	leaq	-84(%rbp), %rax
	movq	%rdx, %rcx
	movl	$1, %edx
	movl	$1, %esi
	movq	%rax, %rdi
	call	fread@PLT
	movq	%rax, -24(%rbp)
	cmpq	$0, -24(%rbp)
	je	.L72
	movq	-32(%rbp), %rax
	movl	$1, %edx
	movq	$-1, %rsi
	movq	%rax, %rdi
	call	fseek@PLT
	jmp	.L63
.L72:
	nop
	movq	-32(%rbp), %rax
	movq	%rax, %rdi
	call	fclose@PLT
	movl	$0, %eax
.L69:
	movq	-8(%rbp), %rdx
	subq	%fs:40, %rdx
	je	.L70
	call	__stack_chk_fail@PLT
.L70:
	leave
	.cfi_def_cfa 7, 8
	ret
	.cfi_endproc
.LFE3:
	.size	verifica_cad, .-verifica_cad
	.section	.rodata
	.align 8
.LC32:
	.string	"Erro ao abrir o arquivo de cad"
.LC33:
	.string	"ab"
	.align 8
.LC34:
	.string	"Erro ao abrir o arquivo de empr"
	.align 8
.LC35:
	.string	"Digite a quantidade de livros a serem emprestados: "
	.align 8
.LC36:
	.string	"Erro: quantidade de livros acima da permitida"
.LC37:
	.string	"Digite o nome do autor: "
	.text
	.globl	novo_emprestimo
	.type	novo_emprestimo, @function
novo_emprestimo:
.LFB4:
	.cfi_startproc
	endbr64
	pushq	%rbp
	.cfi_def_cfa_offset 16
	.cfi_offset 6, -16
	movq	%rsp, %rbp
	.cfi_def_cfa_register 6
	subq	$816, %rsp
	movl	%edi, -788(%rbp)
	movl	%esi, -792(%rbp)
	movl	%edx, -796(%rbp)
	movl	%ecx, -800(%rbp)
	movq	%r8, -808(%rbp)
	movq	%r9, -816(%rbp)
	movq	%fs:40, %rax
	movq	%rax, -8(%rbp)
	xorl	%eax, %eax
#APP
# 109 "murilocpontes_Trabalho-2-Lab-ICC-biblioteca_main_windows.c" 1
	##_ANNOTATION_INITIALREGION_-TIG-iO-oZZz-1-novo-emprestimo--30
# 0 "" 2
# 113 "murilocpontes_Trabalho-2-Lab-ICC-biblioteca_main_windows.c" 1
	##_ANNOTATION_ATOMICREGION_-TIG-iO-oZZz-1-novo-emprestimo--29
# 0 "" 2
#NO_APP
	movl	$24, %edi
	call	malloc@PLT
	movq	%rax, -744(%rbp)
	movq	-744(%rbp), %rax
	movq	-744(%rbp), %rdx
	movq	%rdx, 8(%rax)
	movq	-744(%rbp), %rax
	movq	-744(%rbp), %rdx
	movq	%rdx, (%rax)
	movq	-744(%rbp), %rax
	movq	%rax, _TIG_iO_oZZz_1_novo_emprestimo_1_opaque_list_1(%rip)
	call	rand@PLT
	movl	%eax, -760(%rbp)
	movl	$24, %edi
	call	malloc@PLT
	movq	%rax, -736(%rbp)
	movq	-736(%rbp), %rax
	movl	$0, 16(%rax)
	movq	_TIG_iO_oZZz_1_novo_emprestimo_1_opaque_list_1(%rip), %rax
	movq	8(%rax), %rdx
	movq	-736(%rbp), %rax
	movq	%rdx, 8(%rax)
	movq	_TIG_iO_oZZz_1_novo_emprestimo_1_opaque_list_1(%rip), %rdx
	movq	-736(%rbp), %rax
	movq	%rdx, (%rax)
	movq	_TIG_iO_oZZz_1_novo_emprestimo_1_opaque_list_1(%rip), %rax
	movq	8(%rax), %rax
	movq	-736(%rbp), %rdx
	movq	%rdx, (%rax)
	movq	_TIG_iO_oZZz_1_novo_emprestimo_1_opaque_list_1(%rip), %rax
	movq	-736(%rbp), %rdx
	movq	%rdx, 8(%rax)
	call	rand@PLT
	movl	%eax, -756(%rbp)
	movl	$24, %edi
	call	malloc@PLT
	movq	%rax, -728(%rbp)
	movq	-728(%rbp), %rax
	movl	-756(%rbp), %edx
	movl	%edx, 16(%rax)
	movq	_TIG_iO_oZZz_1_novo_emprestimo_1_opaque_list_1(%rip), %rax
	movq	8(%rax), %rdx
	movq	-728(%rbp), %rax
	movq	%rdx, 8(%rax)
	movq	_TIG_iO_oZZz_1_novo_emprestimo_1_opaque_list_1(%rip), %rdx
	movq	-728(%rbp), %rax
	movq	%rdx, (%rax)
	movq	_TIG_iO_oZZz_1_novo_emprestimo_1_opaque_list_1(%rip), %rax
	movq	8(%rax), %rax
	movq	-728(%rbp), %rdx
	movq	%rdx, (%rax)
	movq	_TIG_iO_oZZz_1_novo_emprestimo_1_opaque_list_1(%rip), %rax
	movq	-728(%rbp), %rdx
	movq	%rdx, 8(%rax)
	call	rand@PLT
	movl	%eax, -752(%rbp)
	movl	$24, %edi
	call	malloc@PLT
	movq	%rax, -720(%rbp)
	movl	-752(%rbp), %eax
	leal	(%rax,%rax), %edx
	movq	-720(%rbp), %rax
	movl	%edx, 16(%rax)
	movq	_TIG_iO_oZZz_1_novo_emprestimo_1_opaque_list_1(%rip), %rax
	movq	8(%rax), %rdx
	movq	-720(%rbp), %rax
	movq	%rdx, 8(%rax)
	movq	_TIG_iO_oZZz_1_novo_emprestimo_1_opaque_list_1(%rip), %rdx
	movq	-720(%rbp), %rax
	movq	%rdx, (%rax)
	movq	_TIG_iO_oZZz_1_novo_emprestimo_1_opaque_list_1(%rip), %rax
	movq	8(%rax), %rax
	movq	-720(%rbp), %rdx
	movq	%rdx, (%rax)
	movq	_TIG_iO_oZZz_1_novo_emprestimo_1_opaque_list_1(%rip), %rax
	movq	-720(%rbp), %rdx
	movq	%rdx, 8(%rax)
	call	rand@PLT
	movl	%eax, -748(%rbp)
	movl	$24, %edi
	call	malloc@PLT
	movq	%rax, -712(%rbp)
	movl	-748(%rbp), %edx
	movl	%edx, %eax
	addl	%eax, %eax
	addl	%eax, %edx
	movq	-712(%rbp), %rax
	movl	%edx, 16(%rax)
	movq	_TIG_iO_oZZz_1_novo_emprestimo_1_opaque_list_1(%rip), %rax
	movq	8(%rax), %rdx
	movq	-712(%rbp), %rax
	movq	%rdx, 8(%rax)
	movq	_TIG_iO_oZZz_1_novo_emprestimo_1_opaque_list_1(%rip), %rdx
	movq	-712(%rbp), %rax
	movq	%rdx, (%rax)
	movq	_TIG_iO_oZZz_1_novo_emprestimo_1_opaque_list_1(%rip), %rax
	movq	8(%rax), %rax
	movq	-712(%rbp), %rdx
	movq	%rdx, (%rax)
	movq	_TIG_iO_oZZz_1_novo_emprestimo_1_opaque_list_1(%rip), %rax
	movq	-712(%rbp), %rdx
	movq	%rdx, 8(%rax)
	movq	_TIG_iO_oZZz_1_novo_emprestimo_1_opaque_list_1(%rip), %rax
	movq	8(%rax), %rax
	movq	%rax, _TIG_iO_oZZz_1_novo_emprestimo_1_opaque_ptr_1(%rip)
	movq	_TIG_iO_oZZz_1_novo_emprestimo_1_opaque_ptr_1(%rip), %rax
	movq	%rax, _TIG_iO_oZZz_1_novo_emprestimo_1_opaque_ptr_2(%rip)
	movq	_TIG_iO_oZZz_1_novo_emprestimo_1_opaque_ptr_2(%rip), %rax
	movq	8(%rax), %rax
	movq	%rax, _TIG_iO_oZZz_1_novo_emprestimo_1_opaque_ptr_2(%rip)
	nop
	nop
	movq	-808(%rbp), %rax
	leaq	.LC31(%rip), %rdx
	movq	%rdx, %rsi
	movq	%rax, %rdi
	call	fopen@PLT
	movq	%rax, -704(%rbp)
	movq	-704(%rbp), %rax
	movq	%rax, -696(%rbp)
	cmpq	$0, -696(%rbp)
	jne	.L74
	leaq	.LC32(%rip), %rax
	movq	%rax, %rdi
	call	puts@PLT
	jmp	.L75
.L74:
	movl	-788(%rbp), %eax
	subl	$50, %eax
	movslq	%eax, %rcx
	movq	-696(%rbp), %rax
	movl	$0, %edx
	movq	%rcx, %rsi
	movq	%rax, %rdi
	call	fseek@PLT
	movq	-696(%rbp), %rdx
	leaq	-688(%rbp), %rax
	movq	%rdx, %rcx
	movl	$1, %edx
	movl	$50, %esi
	movq	%rax, %rdi
	call	fread@PLT
	movq	-696(%rbp), %rax
	leaq	-688(%rbp), %rdx
	leaq	52(%rdx), %rdi
	movq	%rax, %rcx
	movl	$1, %edx
	movl	$4, %esi
	call	fread@PLT
.L75:
	movq	-696(%rbp), %rax
	movq	%rax, %rdi
	call	fclose@PLT
	movq	-816(%rbp), %rax
	leaq	.LC33(%rip), %rdx
	movq	%rdx, %rsi
	movq	%rax, %rdi
	call	fopen@PLT
	movq	%rax, -696(%rbp)
	cmpq	$0, -696(%rbp)
	jne	.L76
	leaq	.LC34(%rip), %rax
	movq	%rax, %rdi
	call	puts@PLT
	jmp	.L77
.L76:
	leaq	.LC35(%rip), %rax
	movq	%rax, %rdi
	movl	$0, %eax
	call	printf@PLT
	leaq	-688(%rbp), %rax
	addq	$56, %rax
	movq	%rax, %rsi
	leaq	.LC22(%rip), %rax
	movq	%rax, %rdi
	movl	$0, %eax
	call	__isoc99_scanf@PLT
	movq	stdin(%rip), %rax
	movq	%rax, %rdi
	call	fflush@PLT
	jmp	.L78
.L79:
	leaq	.LC36(%rip), %rax
	movq	%rax, %rdi
	call	puts@PLT
	leaq	.LC35(%rip), %rax
	movq	%rax, %rdi
	movl	$0, %eax
	call	printf@PLT
	leaq	-688(%rbp), %rax
	addq	$56, %rax
	movq	%rax, %rsi
	leaq	.LC22(%rip), %rax
	movq	%rax, %rdi
	movl	$0, %eax
	call	__isoc99_scanf@PLT
.L78:
	movl	-632(%rbp), %eax
	cmpl	$5, %eax
	jg	.L79
	movl	$0, -764(%rbp)
	jmp	.L80
.L81:
	movl	-764(%rbp), %eax
	addl	$1, %eax
	movl	%eax, %esi
	leaq	.LC27(%rip), %rax
	movq	%rax, %rdi
	movl	$0, %eax
	call	printf@PLT
	movq	stdin(%rip), %rax
	movq	%rax, %rdi
	call	fflush@PLT
	movq	stdin(%rip), %rdx
	leaq	-688(%rbp), %rsi
	movl	-764(%rbp), %eax
	movslq	%eax, %rcx
	movq	%rcx, %rax
	salq	$2, %rax
	addq	%rcx, %rax
	leaq	0(,%rax,4), %rcx
	addq	%rcx, %rax
	addq	%rax, %rax
	addq	$176, %rax
	addq	%rsi, %rax
	addq	$4, %rax
	movl	$50, %esi
	movq	%rax, %rdi
	call	fgets@PLT
	leaq	.LC37(%rip), %rax
	movq	%rax, %rdi
	movl	$0, %eax
	call	printf@PLT
	movq	stdin(%rip), %rax
	movq	%rax, %rdi
	call	fflush@PLT
	movq	stdin(%rip), %rdx
	leaq	-688(%rbp), %rsi
	movl	-764(%rbp), %eax
	movslq	%eax, %rcx
	movq	%rcx, %rax
	salq	$2, %rax
	addq	%rcx, %rax
	leaq	0(,%rax,4), %rcx
	addq	%rcx, %rax
	addq	%rax, %rax
	addq	$416, %rax
	addq	%rsi, %rax
	addq	$14, %rax
	movl	$50, %esi
	movq	%rax, %rdi
	call	fgets@PLT
	addl	$1, -764(%rbp)
.L80:
	movl	-632(%rbp), %eax
	cmpl	%eax, -764(%rbp)
	jl	.L81
	movq	_TIG_iO_oZZz_1_verifica_id_1_opaque_ptr_1(%rip), %rdx
	movq	_TIG_iO_oZZz_1_verifica_id_1_opaque_ptr_2(%rip), %rax
	cmpq	%rax, %rdx
	jne	.L82
#APP
# 357 "murilocpontes_Trabalho-2-Lab-ICC-biblioteca_main_windows.c" 1
	.byte 0x88,0x5e,0x9e,0x13
# 0 "" 2
#NO_APP
	jmp	.L84
.L82:
	movq	-696(%rbp), %rdx
	leaq	-688(%rbp), %rax
	movq	%rdx, %rcx
	movl	$1, %edx
	movl	$50, %esi
	movq	%rax, %rdi
	call	fwrite@PLT
	movq	-696(%rbp), %rax
	leaq	-688(%rbp), %rdx
	leaq	52(%rdx), %rdi
	movq	%rax, %rcx
	movl	$1, %edx
	movl	$4, %esi
	call	fwrite@PLT
	movq	-696(%rbp), %rax
	leaq	-688(%rbp), %rdx
	leaq	56(%rdx), %rdi
	movq	%rax, %rcx
	movl	$1, %edx
	movl	$4, %esi
	call	fwrite@PLT
	movl	-800(%rbp), %edx
	movl	-796(%rbp), %esi
	movl	-792(%rbp), %eax
	leaq	-768(%rbp), %r8
	leaq	-772(%rbp), %rdi
	leaq	-776(%rbp), %rcx
	movq	%r8, %r9
	movq	%rdi, %r8
	movl	%eax, %edi
	call	devolucao
	movl	$0, -764(%rbp)
	jmp	.L84
.L85:
	movl	-776(%rbp), %eax
	movl	-764(%rbp), %edx
	movslq	%edx, %rdx
	addq	$28, %rdx
	movl	%eax, -680(%rbp,%rdx,4)
	movl	-772(%rbp), %eax
	movl	-764(%rbp), %edx
	movslq	%edx, %rdx
	addq	$32, %rdx
	movl	%eax, -676(%rbp,%rdx,4)
	movl	-768(%rbp), %eax
	movl	-764(%rbp), %edx
	movslq	%edx, %rdx
	addq	$40, %rdx
	movl	%eax, -688(%rbp,%rdx,4)
	addl	$1, -764(%rbp)
.L84:
	movl	-632(%rbp), %eax
	cmpl	%eax, -764(%rbp)
	jl	.L85
	movl	$0, -764(%rbp)
	jmp	.L86
.L87:
	movq	-696(%rbp), %rdx
	leaq	-792(%rbp), %rax
	movq	%rdx, %rcx
	movl	$1, %edx
	movl	$4, %esi
	movq	%rax, %rdi
	call	fwrite@PLT
	movq	-696(%rbp), %rdx
	leaq	-796(%rbp), %rax
	movq	%rdx, %rcx
	movl	$1, %edx
	movl	$4, %esi
	movq	%rax, %rdi
	call	fwrite@PLT
	movq	-696(%rbp), %rdx
	leaq	-800(%rbp), %rax
	movq	%rdx, %rcx
	movl	$1, %edx
	movl	$4, %esi
	movq	%rax, %rdi
	call	fwrite@PLT
	leaq	-688(%rbp), %rdx
	movl	-764(%rbp), %eax
	cltq
	addq	$28, %rax
	salq	$2, %rax
	addq	%rdx, %rax
	leaq	8(%rax), %rdi
	movq	-696(%rbp), %rax
	movq	%rax, %rcx
	movl	$1, %edx
	movl	$4, %esi
	call	fwrite@PLT
	leaq	-688(%rbp), %rdx
	movl	-764(%rbp), %eax
	cltq
	addq	$32, %rax
	salq	$2, %rax
	addq	%rdx, %rax
	leaq	12(%rax), %rdi
	movq	-696(%rbp), %rax
	movq	%rax, %rcx
	movl	$1, %edx
	movl	$4, %esi
	call	fwrite@PLT
	leaq	-688(%rbp), %rdx
	movl	-764(%rbp), %eax
	cltq
	addq	$40, %rax
	salq	$2, %rax
	leaq	(%rdx,%rax), %rdi
	movq	-696(%rbp), %rax
	movq	%rax, %rcx
	movl	$1, %edx
	movl	$4, %esi
	call	fwrite@PLT
	leaq	-688(%rbp), %rcx
	movl	-764(%rbp), %eax
	movslq	%eax, %rdx
	movq	%rdx, %rax
	salq	$2, %rax
	addq	%rdx, %rax
	leaq	0(,%rax,4), %rdx
	addq	%rdx, %rax
	addq	%rax, %rax
	addq	$176, %rax
	addq	%rcx, %rax
	leaq	4(%rax), %rdi
	movq	-696(%rbp), %rax
	movq	%rax, %rcx
	movl	$1, %edx
	movl	$50, %esi
	call	fwrite@PLT
	leaq	-688(%rbp), %rcx
	movl	-764(%rbp), %eax
	movslq	%eax, %rdx
	movq	%rdx, %rax
	salq	$2, %rax
	addq	%rdx, %rax
	leaq	0(,%rax,4), %rdx
	addq	%rdx, %rax
	addq	%rax, %rax
	addq	$416, %rax
	addq	%rcx, %rax
	leaq	14(%rax), %rdi
	movq	-696(%rbp), %rax
	movq	%rax, %rcx
	movl	$1, %edx
	movl	$50, %esi
	call	fwrite@PLT
	addl	$1, -764(%rbp)
.L86:
	cmpl	$4, -764(%rbp)
	jle	.L87
.L77:
	movq	-696(%rbp), %rax
	movq	%rax, %rdi
	call	fclose@PLT
	nop
	movq	-8(%rbp), %rax
	subq	%fs:40, %rax
	je	.L89
	call	__stack_chk_fail@PLT
.L89:
	leave
	.cfi_def_cfa 7, 8
	ret
	.cfi_endproc
.LFE4:
	.size	novo_emprestimo, .-novo_emprestimo
	.globl	salva_cadastro
	.type	salva_cadastro, @function
salva_cadastro:
.LFB5:
	.cfi_startproc
	endbr64
	pushq	%rbp
	.cfi_def_cfa_offset 16
	.cfi_offset 6, -16
	movq	%rsp, %rbp
	.cfi_def_cfa_register 6
	subq	$64, %rsp
	movq	%rdi, -56(%rbp)
	movq	%rsi, -64(%rbp)
#APP
# 408 "murilocpontes_Trabalho-2-Lab-ICC-biblioteca_main_windows.c" 1
	##_ANNOTATION_INITIALREGION_-TIG-iO-oZZz-1-salva-cadastro--32
# 0 "" 2
# 412 "murilocpontes_Trabalho-2-Lab-ICC-biblioteca_main_windows.c" 1
	##_ANNOTATION_ATOMICREGION_-TIG-iO-oZZz-1-salva-cadastro--31
# 0 "" 2
#NO_APP
	movl	$24, %edi
	call	malloc@PLT
	movq	%rax, -40(%rbp)
	movq	-40(%rbp), %rax
	movq	-40(%rbp), %rdx
	movq	%rdx, 16(%rax)
	movq	-40(%rbp), %rax
	movq	-40(%rbp), %rdx
	movq	%rdx, (%rax)
	movq	-40(%rbp), %rax
	movq	%rax, _TIG_iO_oZZz_1_salva_cadastro_1_opaque_list_1(%rip)
	call	rand@PLT
	movl	%eax, -48(%rbp)
	movl	$24, %edi
	call	malloc@PLT
	movq	%rax, -32(%rbp)
	movq	-32(%rbp), %rax
	movl	$0, 8(%rax)
	movq	_TIG_iO_oZZz_1_salva_cadastro_1_opaque_list_1(%rip), %rax
	movq	16(%rax), %rdx
	movq	-32(%rbp), %rax
	movq	%rdx, 16(%rax)
	movq	_TIG_iO_oZZz_1_salva_cadastro_1_opaque_list_1(%rip), %rdx
	movq	-32(%rbp), %rax
	movq	%rdx, (%rax)
	movq	_TIG_iO_oZZz_1_salva_cadastro_1_opaque_list_1(%rip), %rax
	movq	16(%rax), %rax
	movq	-32(%rbp), %rdx
	movq	%rdx, (%rax)
	movq	_TIG_iO_oZZz_1_salva_cadastro_1_opaque_list_1(%rip), %rax
	movq	-32(%rbp), %rdx
	movq	%rdx, 16(%rax)
	call	rand@PLT
	movl	%eax, -44(%rbp)
	movl	$24, %edi
	call	malloc@PLT
	movq	%rax, -24(%rbp)
	movq	-24(%rbp), %rax
	movl	-44(%rbp), %edx
	movl	%edx, 8(%rax)
	movq	_TIG_iO_oZZz_1_salva_cadastro_1_opaque_list_1(%rip), %rax
	movq	16(%rax), %rdx
	movq	-24(%rbp), %rax
	movq	%rdx, 16(%rax)
	movq	_TIG_iO_oZZz_1_salva_cadastro_1_opaque_list_1(%rip), %rdx
	movq	-24(%rbp), %rax
	movq	%rdx, (%rax)
	movq	_TIG_iO_oZZz_1_salva_cadastro_1_opaque_list_1(%rip), %rax
	movq	16(%rax), %rax
	movq	-24(%rbp), %rdx
	movq	%rdx, (%rax)
	movq	_TIG_iO_oZZz_1_salva_cadastro_1_opaque_list_1(%rip), %rax
	movq	-24(%rbp), %rdx
	movq	%rdx, 16(%rax)
	movq	_TIG_iO_oZZz_1_salva_cadastro_1_opaque_list_1(%rip), %rax
	movq	16(%rax), %rax
	movq	%rax, _TIG_iO_oZZz_1_salva_cadastro_1_opaque_ptr_1(%rip)
	movq	_TIG_iO_oZZz_1_salva_cadastro_1_opaque_ptr_1(%rip), %rax
	movq	%rax, _TIG_iO_oZZz_1_salva_cadastro_1_opaque_ptr_2(%rip)
	nop
	nop
	movq	-64(%rbp), %rax
	leaq	.LC33(%rip), %rdx
	movq	%rdx, %rsi
	movq	%rax, %rdi
	call	fopen@PLT
	movq	%rax, -16(%rbp)
	movq	-16(%rbp), %rax
	movq	%rax, -8(%rbp)
	cmpq	$0, -8(%rbp)
	jne	.L91
	movq	_TIG_iO_oZZz_1_verifica_id_1_opaque_ptr_1(%rip), %rdx
	movq	_TIG_iO_oZZz_1_verifica_id_1_opaque_ptr_2(%rip), %rax
	cmpq	%rax, %rdx
	je	.L92
	leaq	.LC19(%rip), %rax
	movq	%rax, %rdi
	call	puts@PLT
	jmp	.L92
.L91:
	movq	-56(%rbp), %rax
	movq	-8(%rbp), %rdx
	movq	%rdx, %rcx
	movl	$50, %edx
	movl	$1, %esi
	movq	%rax, %rdi
	call	fwrite@PLT
	movq	-56(%rbp), %rax
	leaq	52(%rax), %rdi
	movq	-8(%rbp), %rax
	movq	%rax, %rcx
	movl	$1, %edx
	movl	$4, %esi
	call	fwrite@PLT
	movq	-56(%rbp), %rax
	leaq	56(%rax), %rdi
	movq	-8(%rbp), %rax
	movq	%rax, %rcx
	movl	$1, %edx
	movl	$4, %esi
	call	fwrite@PLT
	movq	-56(%rbp), %rax
	leaq	60(%rax), %rdi
	movq	-8(%rbp), %rax
	movq	%rax, %rcx
	movl	$1, %edx
	movl	$4, %esi
	call	fwrite@PLT
	movq	-56(%rbp), %rax
	leaq	64(%rax), %rdi
	movq	-8(%rbp), %rax
	movq	%rax, %rcx
	movl	$1, %edx
	movl	$4, %esi
	call	fwrite@PLT
	movq	-56(%rbp), %rax
	leaq	68(%rax), %rdi
	movq	-8(%rbp), %rax
	movq	%rax, %rcx
	movl	$1, %edx
	movl	$4, %esi
	call	fwrite@PLT
	movq	-56(%rbp), %rax
	leaq	72(%rax), %rdi
	movq	-8(%rbp), %rax
	movq	%rax, %rcx
	movl	$40, %edx
	movl	$1, %esi
	call	fwrite@PLT
	movq	-56(%rbp), %rax
	leaq	112(%rax), %rdi
	movq	-8(%rbp), %rax
	movq	%rax, %rcx
	movl	$1, %edx
	movl	$4, %esi
	call	fwrite@PLT
	movq	-56(%rbp), %rax
	leaq	116(%rax), %rdi
	movq	-8(%rbp), %rax
	movq	%rax, %rcx
	movl	$20, %edx
	movl	$1, %esi
	call	fwrite@PLT
	movq	-56(%rbp), %rax
	leaq	136(%rax), %rdi
	movq	-8(%rbp), %rax
	movq	%rax, %rcx
	movl	$40, %edx
	movl	$1, %esi
	call	fwrite@PLT
	movq	-56(%rbp), %rax
	leaq	176(%rax), %rdi
	movq	-8(%rbp), %rax
	movq	%rax, %rcx
	movl	$30, %edx
	movl	$1, %esi
	call	fwrite@PLT
	movq	-56(%rbp), %rax
	leaq	206(%rax), %rdi
	movq	-8(%rbp), %rax
	movq	%rax, %rcx
	movl	$20, %edx
	movl	$1, %esi
	call	fwrite@PLT
.L92:
	movq	-8(%rbp), %rax
	movq	%rax, %rdi
	call	fclose@PLT
	nop
	leave
	.cfi_def_cfa 7, 8
	ret
	.cfi_endproc
.LFE5:
	.size	salva_cadastro, .-salva_cadastro
	.section	.rodata
.LC38:
	.string	"Cadastro.bin"
.LC39:
	.string	"Emprestimo.bin"
	.align 8
.LC40:
	.string	"Erro, nao foi possivel abrir o arquivo de cadastro"
	.align 8
.LC41:
	.string	"Erro, nao foi possivel abrir o arquivo de emprestimo"
.LC42:
	.string	"Data de hoje"
	.align 8
.LC43:
	.string	"Nao existe cadastro nesse nome"
	.text
	.globl	main
	.type	main, @function
main:
.LFB7:
	.cfi_startproc
	endbr64
	pushq	%rbp
	.cfi_def_cfa_offset 16
	.cfi_offset 6, -16
	movq	%rsp, %rbp
	.cfi_def_cfa_register 6
	pushq	%rbx
	subq	$472, %rsp
	.cfi_offset 3, -24
	movl	%edi, -452(%rbp)
	movq	%rsi, -464(%rbp)
	movq	%rdx, -472(%rbp)
	movq	%fs:40, %rax
	movq	%rax, -24(%rbp)
	xorl	%eax, %eax
	movq	$0, _TIG_IZ_oZZz_envp(%rip)
	nop
.L95:
	movq	$0, _TIG_IZ_oZZz_argv(%rip)
	nop
.L96:
	movl	$0, _TIG_IZ_oZZz_argc(%rip)
	nop
	nop
.L97:
.L98:
#APP
# 137 "/usr/include/x86_64-linux-gnu/bits/byteswap.h" 1
	##_ANNOTATION_INITIALREGION_-TIG-IZ-oZZz--0
# 0 "" 2
#NO_APP
	movl	-452(%rbp), %eax
	movl	%eax, _TIG_IZ_oZZz_argc(%rip)
	movq	-464(%rbp), %rax
	movq	%rax, _TIG_IZ_oZZz_argv(%rip)
	movq	-472(%rbp), %rax
	movq	%rax, _TIG_IZ_oZZz_envp(%rip)
#APP
# 144 "/usr/include/x86_64-linux-gnu/bits/byteswap.h" 1
	##_ANNOTATION_ATOMICREGION_-TIG-iO-oZZz-1-main--25
# 0 "" 2
#NO_APP
	movl	$24, %edi
	call	malloc@PLT
	movq	%rax, -392(%rbp)
	movq	-392(%rbp), %rax
	movq	-392(%rbp), %rdx
	movq	%rdx, (%rax)
	movq	-392(%rbp), %rax
	movq	-392(%rbp), %rdx
	movq	%rdx, 16(%rax)
	movq	-392(%rbp), %rax
	movq	%rax, _TIG_iO_oZZz_1_main_1_opaque_list_1(%rip)
	call	rand@PLT
	movl	%eax, -444(%rbp)
	movl	$24, %edi
	call	malloc@PLT
	movq	%rax, -384(%rbp)
	movq	-384(%rbp), %rax
	movl	$0, 8(%rax)
	movq	_TIG_iO_oZZz_1_main_1_opaque_list_1(%rip), %rax
	movq	(%rax), %rdx
	movq	-384(%rbp), %rax
	movq	%rdx, (%rax)
	movq	_TIG_iO_oZZz_1_main_1_opaque_list_1(%rip), %rdx
	movq	-384(%rbp), %rax
	movq	%rdx, 16(%rax)
	movq	_TIG_iO_oZZz_1_main_1_opaque_list_1(%rip), %rax
	movq	(%rax), %rax
	movq	-384(%rbp), %rdx
	movq	%rdx, 16(%rax)
	movq	_TIG_iO_oZZz_1_main_1_opaque_list_1(%rip), %rax
	movq	-384(%rbp), %rdx
	movq	%rdx, (%rax)
	call	rand@PLT
	movl	%eax, -440(%rbp)
	movl	$24, %edi
	call	malloc@PLT
	movq	%rax, -376(%rbp)
	movq	-376(%rbp), %rax
	movl	-440(%rbp), %edx
	movl	%edx, 8(%rax)
	movq	_TIG_iO_oZZz_1_main_1_opaque_list_1(%rip), %rax
	movq	(%rax), %rdx
	movq	-376(%rbp), %rax
	movq	%rdx, (%rax)
	movq	_TIG_iO_oZZz_1_main_1_opaque_list_1(%rip), %rdx
	movq	-376(%rbp), %rax
	movq	%rdx, 16(%rax)
	movq	_TIG_iO_oZZz_1_main_1_opaque_list_1(%rip), %rax
	movq	(%rax), %rax
	movq	-376(%rbp), %rdx
	movq	%rdx, 16(%rax)
	movq	_TIG_iO_oZZz_1_main_1_opaque_list_1(%rip), %rax
	movq	-376(%rbp), %rdx
	movq	%rdx, (%rax)
	call	rand@PLT
	movl	%eax, -436(%rbp)
	movl	$24, %edi
	call	malloc@PLT
	movq	%rax, -368(%rbp)
	movl	-436(%rbp), %eax
	leal	(%rax,%rax), %edx
	movq	-368(%rbp), %rax
	movl	%edx, 8(%rax)
	movq	_TIG_iO_oZZz_1_main_1_opaque_list_1(%rip), %rax
	movq	(%rax), %rdx
	movq	-368(%rbp), %rax
	movq	%rdx, (%rax)
	movq	_TIG_iO_oZZz_1_main_1_opaque_list_1(%rip), %rdx
	movq	-368(%rbp), %rax
	movq	%rdx, 16(%rax)
	movq	_TIG_iO_oZZz_1_main_1_opaque_list_1(%rip), %rax
	movq	(%rax), %rax
	movq	-368(%rbp), %rdx
	movq	%rdx, 16(%rax)
	movq	_TIG_iO_oZZz_1_main_1_opaque_list_1(%rip), %rax
	movq	-368(%rbp), %rdx
	movq	%rdx, (%rax)
	call	rand@PLT
	movl	%eax, -432(%rbp)
	movl	$24, %edi
	call	malloc@PLT
	movq	%rax, -360(%rbp)
	movl	-432(%rbp), %edx
	movl	%edx, %eax
	addl	%eax, %eax
	addl	%eax, %edx
	movq	-360(%rbp), %rax
	movl	%edx, 8(%rax)
	movq	_TIG_iO_oZZz_1_main_1_opaque_list_1(%rip), %rax
	movq	(%rax), %rdx
	movq	-360(%rbp), %rax
	movq	%rdx, (%rax)
	movq	_TIG_iO_oZZz_1_main_1_opaque_list_1(%rip), %rdx
	movq	-360(%rbp), %rax
	movq	%rdx, 16(%rax)
	movq	_TIG_iO_oZZz_1_main_1_opaque_list_1(%rip), %rax
	movq	(%rax), %rax
	movq	-360(%rbp), %rdx
	movq	%rdx, 16(%rax)
	movq	_TIG_iO_oZZz_1_main_1_opaque_list_1(%rip), %rax
	movq	-360(%rbp), %rdx
	movq	%rdx, (%rax)
	movq	_TIG_iO_oZZz_1_main_1_opaque_list_1(%rip), %rax
	movq	(%rax), %rax
	movq	%rax, _TIG_iO_oZZz_1_main_1_opaque_ptr_1(%rip)
	movq	_TIG_iO_oZZz_1_main_1_opaque_ptr_1(%rip), %rax
	movq	%rax, _TIG_iO_oZZz_1_main_1_opaque_ptr_2(%rip)
	nop
	nop
	leaq	.LC38(%rip), %rax
	movq	%rax, -352(%rbp)
	leaq	.LC39(%rip), %rax
	movq	%rax, -344(%rbp)
	movl	$0, -448(%rbp)
	movq	-352(%rbp), %rax
	leaq	.LC33(%rip), %rdx
	movq	%rdx, %rsi
	movq	%rax, %rdi
	call	fopen@PLT
	movq	%rax, -336(%rbp)
	movq	-336(%rbp), %rax
	movq	%rax, -328(%rbp)
	cmpq	$0, -328(%rbp)
	jne	.L99
	leaq	.LC40(%rip), %rax
	movq	%rax, %rdi
	call	puts@PLT
	movl	$-1, %eax
	jmp	.L119
.L99:
	movq	-328(%rbp), %rax
	movq	%rax, %rdi
	call	fclose@PLT
	movq	-344(%rbp), %rax
	leaq	.LC33(%rip), %rdx
	movq	%rdx, %rsi
	movq	%rax, %rdi
	call	fopen@PLT
	movq	%rax, -328(%rbp)
	cmpq	$0, -328(%rbp)
	jne	.L101
	leaq	.LC41(%rip), %rax
	movq	%rax, %rdi
	call	puts@PLT
	movl	$-1, %eax
	jmp	.L119
.L101:
	movq	-328(%rbp), %rax
	movq	%rax, %rdi
	call	fclose@PLT
	movq	-352(%rbp), %rax
	movq	%rax, %rdi
	call	verifica_id
	movl	%eax, -448(%rbp)
	leaq	.LC42(%rip), %rax
	movq	%rax, %rdi
	call	puts@PLT
	leaq	.LC8(%rip), %rax
	movq	%rax, %rdi
	movl	$0, %eax
	call	printf@PLT
	movq	stdin(%rip), %rax
	movq	%rax, %rdi
	call	fflush@PLT
	movq	stdin(%rip), %rdx
	leaq	-85(%rbp), %rax
	movl	$5, %esi
	movq	%rax, %rdi
	call	fgets@PLT
	leaq	-85(%rbp), %rax
	movq	%rax, %rdi
	call	atoi@PLT
	movl	%eax, -428(%rbp)
	leaq	.LC9(%rip), %rax
	movq	%rax, %rdi
	movl	$0, %eax
	call	printf@PLT
	movq	stdin(%rip), %rax
	movq	%rax, %rdi
	call	fflush@PLT
	movq	stdin(%rip), %rdx
	leaq	-85(%rbp), %rax
	movl	$5, %esi
	movq	%rax, %rdi
	call	fgets@PLT
	leaq	-85(%rbp), %rax
	movq	%rax, %rdi
	call	atoi@PLT
	movl	%eax, -424(%rbp)
	leaq	.LC10(%rip), %rax
	movq	%rax, %rdi
	movl	$0, %eax
	call	printf@PLT
	movq	stdin(%rip), %rax
	movq	%rax, %rdi
	call	fflush@PLT
	movq	stdin(%rip), %rdx
	leaq	-85(%rbp), %rax
	movl	$5, %esi
	movq	%rax, %rdi
	call	fgets@PLT
	leaq	-85(%rbp), %rax
	movq	%rax, %rdi
	call	atoi@PLT
	movl	%eax, -420(%rbp)
.L118:
	call	menu
	movl	%eax, -416(%rbp)
	cmpl	$5, -416(%rbp)
	ja	.L121
	movl	-416(%rbp), %eax
	leaq	0(,%rax,4), %rdx
	leaq	.L104(%rip), %rax
	movl	(%rdx,%rax), %eax
	cltq
	leaq	.L104(%rip), %rdx
	addq	%rdx, %rax
	notrack jmp	*%rax
	.section	.rodata
	.align 4
	.align 4
.L104:
	.long	.L121-.L104
	.long	.L108-.L104
	.long	.L107-.L104
	.long	.L106-.L104
	.long	.L105-.L104
	.long	.L103-.L104
	.text
.L108:
	movq	-352(%rbp), %rdx
	movl	-448(%rbp), %ecx
	leaq	-320(%rbp), %rax
	movl	%ecx, %esi
	movq	%rax, %rdi
	call	cadastro
	movl	%eax, -396(%rbp)
	cmpl	$0, -396(%rbp)
	jne	.L122
	movq	-352(%rbp), %rdx
	leaq	-320(%rbp), %rax
	movq	%rdx, %rsi
	movq	%rax, %rdi
	call	salva_cadastro
	addl	$1, -448(%rbp)
	jmp	.L122
.L107:
	leaq	.LC0(%rip), %rax
	movq	%rax, %rdi
	movl	$0, %eax
	call	printf@PLT
	movq	stdin(%rip), %rax
	movq	%rax, %rdi
	call	fflush@PLT
	movq	stdin(%rip), %rdx
	leaq	-80(%rbp), %rax
	movl	$50, %esi
	movq	%rax, %rdi
	call	fgets@PLT
	movq	-352(%rbp), %rcx
	leaq	-80(%rbp), %rdx
	movl	-448(%rbp), %esi
	leaq	-320(%rbp), %rax
	movq	%rax, %rdi
	call	verifica_cad
	movl	%eax, -412(%rbp)
	movq	_TIG_iO_oZZz_1_verifica_id_1_opaque_ptr_1(%rip), %rdx
	movq	_TIG_iO_oZZz_1_verifica_id_1_opaque_ptr_2(%rip), %rax
	cmpq	%rax, %rdx
	je	.L111
	cmpl	$0, -412(%rbp)
	je	.L123
	cmpl	$-1, -412(%rbp)
	je	.L124
	movq	-352(%rbp), %rsi
	movl	-412(%rbp), %eax
	movl	$1, %ecx
	movl	$0, %edx
	movl	%eax, %edi
	call	confirma_senha
	movl	%eax, -408(%rbp)
	cmpl	$0, -408(%rbp)
	je	.L125
	movq	-344(%rbp), %rdx
	leaq	-80(%rbp), %rax
	movq	%rdx, %rsi
	movq	%rax, %rdi
	call	verifica_emprestimo
	movl	%eax, -404(%rbp)
	cmpl	$0, -404(%rbp)
	jne	.L115
	movq	-344(%rbp), %r9
	movq	-352(%rbp), %r8
	movl	-420(%rbp), %r10d
	movl	-424(%rbp), %edx
	movl	-428(%rbp), %esi
	movl	-412(%rbp), %edi
	subq	$8, %rsp
	subq	$232, %rsp
	movq	%rsp, %rax
	movq	-320(%rbp), %rcx
	movq	-312(%rbp), %rbx
	movq	%rcx, (%rax)
	movq	%rbx, 8(%rax)
	movq	-304(%rbp), %rcx
	movq	-296(%rbp), %rbx
	movq	%rcx, 16(%rax)
	movq	%rbx, 24(%rax)
	movq	-288(%rbp), %rcx
	movq	-280(%rbp), %rbx
	movq	%rcx, 32(%rax)
	movq	%rbx, 40(%rax)
	movq	-272(%rbp), %rcx
	movq	-264(%rbp), %rbx
	movq	%rcx, 48(%rax)
	movq	%rbx, 56(%rax)
	movq	-256(%rbp), %rcx
	movq	-248(%rbp), %rbx
	movq	%rcx, 64(%rax)
	movq	%rbx, 72(%rax)
	movq	-240(%rbp), %rcx
	movq	-232(%rbp), %rbx
	movq	%rcx, 80(%rax)
	movq	%rbx, 88(%rax)
	movq	-224(%rbp), %rcx
	movq	-216(%rbp), %rbx
	movq	%rcx, 96(%rax)
	movq	%rbx, 104(%rax)
	movq	-208(%rbp), %rcx
	movq	-200(%rbp), %rbx
	movq	%rcx, 112(%rax)
	movq	%rbx, 120(%rax)
	movq	-192(%rbp), %rcx
	movq	-184(%rbp), %rbx
	movq	%rcx, 128(%rax)
	movq	%rbx, 136(%rax)
	movq	-176(%rbp), %rcx
	movq	-168(%rbp), %rbx
	movq	%rcx, 144(%rax)
	movq	%rbx, 152(%rax)
	movq	-160(%rbp), %rcx
	movq	-152(%rbp), %rbx
	movq	%rcx, 160(%rax)
	movq	%rbx, 168(%rax)
	movq	-144(%rbp), %rcx
	movq	-136(%rbp), %rbx
	movq	%rcx, 176(%rax)
	movq	%rbx, 184(%rax)
	movq	-128(%rbp), %rcx
	movq	-120(%rbp), %rbx
	movq	%rcx, 192(%rax)
	movq	%rbx, 200(%rax)
	movq	-112(%rbp), %rcx
	movq	-104(%rbp), %rbx
	movq	%rcx, 208(%rax)
	movq	%rbx, 216(%rax)
	movl	-96(%rbp), %ecx
	movl	%ecx, 224(%rax)
	movl	%r10d, %ecx
	call	novo_emprestimo
	addq	$240, %rsp
	jmp	.L110
.L115:
	movq	-344(%rbp), %rdx
	leaq	-80(%rbp), %rax
	movq	%rdx, %rsi
	movq	%rax, %rdi
	call	verifica_emprestimo
	movl	%eax, -400(%rbp)
	cmpl	$1, -400(%rbp)
	jne	.L126
	movq	-352(%rbp), %rdi
	movq	-344(%rbp), %rcx
	movl	-420(%rbp), %edx
	movl	-424(%rbp), %esi
	movl	-428(%rbp), %eax
	movl	$1, %r9d
	movq	%rdi, %r8
	movl	%eax, %edi
	call	altera_emprestimo
	jmp	.L110
.L123:
	nop
	jmp	.L112
.L124:
	nop
.L112:
	cmpl	$0, -412(%rbp)
	jne	.L106
	leaq	.LC43(%rip), %rax
	movq	%rax, %rdi
	call	puts@PLT
	jmp	.L110
.L111:
#APP
# 744 "murilocpontes_Trabalho-2-Lab-ICC-biblioteca_main_windows.c" 1
	.byte 0x59
# 0 "" 2
#NO_APP
.L106:
	movq	-344(%rbp), %rdx
	movq	-352(%rbp), %rax
	movq	%rdx, %rsi
	movq	%rax, %rdi
	call	imprimir_cadastro
	jmp	.L110
.L105:
	movq	-352(%rbp), %rdi
	movq	-344(%rbp), %rcx
	movl	-420(%rbp), %edx
	movl	-424(%rbp), %esi
	movl	-428(%rbp), %eax
	movl	$2, %r9d
	movq	%rdi, %r8
	movl	%eax, %edi
	call	altera_emprestimo
	jmp	.L110
.L103:
	movl	$0, %eax
	jmp	.L119
.L122:
	nop
	jmp	.L117
.L125:
	nop
	jmp	.L117
.L126:
	nop
.L110:
	jmp	.L117
.L121:
	nop
.L117:
	jmp	.L118
.L119:
	movq	-24(%rbp), %rdx
	subq	%fs:40, %rdx
	je	.L120
	call	__stack_chk_fail@PLT
.L120:
	movq	-8(%rbp), %rbx
	leave
	.cfi_def_cfa 7, 8
	ret
	.cfi_endproc
.LFE7:
	.size	main, .-main
	.section	.rodata
.LC44:
	.string	"Erro ao abrir o arquivo"
.LC45:
	.string	"Quantidade de livros: %d\n"
	.align 8
.LC46:
	.string	"Livro %d:Data de emprestimo: %d/%d/%d\n"
	.align 8
.LC47:
	.string	"Livro %d:Data de devolucao: %d/%d/%d\n"
.LC48:
	.string	"Livro %d: %sAutor %s\n"
	.text
	.globl	imprimir_emprestimo
	.type	imprimir_emprestimo, @function
imprimir_emprestimo:
.LFB8:
	.cfi_startproc
	endbr64
	pushq	%rbp
	.cfi_def_cfa_offset 16
	.cfi_offset 6, -16
	movq	%rsp, %rbp
	.cfi_def_cfa_register 6
	subq	$784, %rsp
	movq	%rdi, -776(%rbp)
	movq	%rsi, -784(%rbp)
	movq	%fs:40, %rax
	movq	%rax, -8(%rbp)
	xorl	%eax, %eax
#APP
# 782 "murilocpontes_Trabalho-2-Lab-ICC-biblioteca_main_windows.c" 1
	##_ANNOTATION_INITIALREGION_-TIG-iO-oZZz-1-imprimir-emprestimo--24
# 0 "" 2
# 786 "murilocpontes_Trabalho-2-Lab-ICC-biblioteca_main_windows.c" 1
	##_ANNOTATION_ATOMICREGION_-TIG-iO-oZZz-1-imprimir-emprestimo--23
# 0 "" 2
#NO_APP
	movl	$24, %edi
	call	malloc@PLT
	movq	%rax, -744(%rbp)
	movq	-744(%rbp), %rax
	movq	-744(%rbp), %rdx
	movq	%rdx, (%rax)
	movq	-744(%rbp), %rax
	movq	-744(%rbp), %rdx
	movq	%rdx, 8(%rax)
	movq	-744(%rbp), %rax
	movq	%rax, _TIG_iO_oZZz_1_imprimir_emprestimo_1_opaque_list_1(%rip)
	call	rand@PLT
	movl	%eax, -760(%rbp)
	movl	$24, %edi
	call	malloc@PLT
	movq	%rax, -736(%rbp)
	movq	-736(%rbp), %rax
	movl	$0, 16(%rax)
	movq	_TIG_iO_oZZz_1_imprimir_emprestimo_1_opaque_list_1(%rip), %rax
	movq	(%rax), %rdx
	movq	-736(%rbp), %rax
	movq	%rdx, (%rax)
	movq	_TIG_iO_oZZz_1_imprimir_emprestimo_1_opaque_list_1(%rip), %rdx
	movq	-736(%rbp), %rax
	movq	%rdx, 8(%rax)
	movq	_TIG_iO_oZZz_1_imprimir_emprestimo_1_opaque_list_1(%rip), %rax
	movq	(%rax), %rax
	movq	-736(%rbp), %rdx
	movq	%rdx, 8(%rax)
	movq	_TIG_iO_oZZz_1_imprimir_emprestimo_1_opaque_list_1(%rip), %rax
	movq	-736(%rbp), %rdx
	movq	%rdx, (%rax)
	call	rand@PLT
	movl	%eax, -756(%rbp)
	movl	$24, %edi
	call	malloc@PLT
	movq	%rax, -728(%rbp)
	movq	-728(%rbp), %rax
	movl	-756(%rbp), %edx
	movl	%edx, 16(%rax)
	movq	_TIG_iO_oZZz_1_imprimir_emprestimo_1_opaque_list_1(%rip), %rax
	movq	(%rax), %rdx
	movq	-728(%rbp), %rax
	movq	%rdx, (%rax)
	movq	_TIG_iO_oZZz_1_imprimir_emprestimo_1_opaque_list_1(%rip), %rdx
	movq	-728(%rbp), %rax
	movq	%rdx, 8(%rax)
	movq	_TIG_iO_oZZz_1_imprimir_emprestimo_1_opaque_list_1(%rip), %rax
	movq	(%rax), %rax
	movq	-728(%rbp), %rdx
	movq	%rdx, 8(%rax)
	movq	_TIG_iO_oZZz_1_imprimir_emprestimo_1_opaque_list_1(%rip), %rax
	movq	-728(%rbp), %rdx
	movq	%rdx, (%rax)
	call	rand@PLT
	movl	%eax, -752(%rbp)
	movl	$24, %edi
	call	malloc@PLT
	movq	%rax, -720(%rbp)
	movl	-752(%rbp), %eax
	leal	(%rax,%rax), %edx
	movq	-720(%rbp), %rax
	movl	%edx, 16(%rax)
	movq	_TIG_iO_oZZz_1_imprimir_emprestimo_1_opaque_list_1(%rip), %rax
	movq	(%rax), %rdx
	movq	-720(%rbp), %rax
	movq	%rdx, (%rax)
	movq	_TIG_iO_oZZz_1_imprimir_emprestimo_1_opaque_list_1(%rip), %rdx
	movq	-720(%rbp), %rax
	movq	%rdx, 8(%rax)
	movq	_TIG_iO_oZZz_1_imprimir_emprestimo_1_opaque_list_1(%rip), %rax
	movq	(%rax), %rax
	movq	-720(%rbp), %rdx
	movq	%rdx, 8(%rax)
	movq	_TIG_iO_oZZz_1_imprimir_emprestimo_1_opaque_list_1(%rip), %rax
	movq	-720(%rbp), %rdx
	movq	%rdx, (%rax)
	movq	_TIG_iO_oZZz_1_imprimir_emprestimo_1_opaque_list_1(%rip), %rax
	movq	(%rax), %rax
	movq	%rax, _TIG_iO_oZZz_1_imprimir_emprestimo_1_opaque_ptr_1(%rip)
	movq	_TIG_iO_oZZz_1_imprimir_emprestimo_1_opaque_ptr_1(%rip), %rax
	movq	%rax, _TIG_iO_oZZz_1_imprimir_emprestimo_1_opaque_ptr_2(%rip)
	movq	_TIG_iO_oZZz_1_imprimir_emprestimo_1_opaque_ptr_2(%rip), %rax
	movq	(%rax), %rax
	movq	%rax, _TIG_iO_oZZz_1_imprimir_emprestimo_1_opaque_ptr_2(%rip)
	nop
	nop
	movq	-784(%rbp), %rax
	leaq	.LC18(%rip), %rdx
	movq	%rdx, %rsi
	movq	%rax, %rdi
	call	fopen@PLT
	movq	%rax, -712(%rbp)
	movq	-712(%rbp), %rax
	movq	%rax, -704(%rbp)
	cmpq	$0, -704(%rbp)
	jne	.L128
	leaq	.LC44(%rip), %rax
	movq	%rax, %rdi
	call	puts@PLT
	jmp	.L127
.L128:
	movq	-704(%rbp), %rdx
	leaq	-688(%rbp), %rax
	movq	%rdx, %rcx
	movl	$1, %edx
	movl	$50, %esi
	movq	%rax, %rdi
	call	fread@PLT
	leaq	-688(%rbp), %rdx
	movq	-776(%rbp), %rax
	movq	%rdx, %rsi
	movq	%rax, %rdi
	call	strcmp@PLT
	movl	%eax, -748(%rbp)
	cmpl	$0, -748(%rbp)
	jne	.L130
	movq	-704(%rbp), %rax
	leaq	-688(%rbp), %rdx
	leaq	52(%rdx), %rdi
	movq	%rax, %rcx
	movl	$1, %edx
	movl	$4, %esi
	call	fread@PLT
	movq	-704(%rbp), %rax
	leaq	-688(%rbp), %rdx
	leaq	56(%rdx), %rdi
	movq	%rax, %rcx
	movl	$1, %edx
	movl	$4, %esi
	call	fread@PLT
	movl	$0, -764(%rbp)
	jmp	.L131
.L134:
	leaq	-688(%rbp), %rdx
	movl	-764(%rbp), %eax
	cltq
	addq	$12, %rax
	salq	$2, %rax
	addq	%rdx, %rax
	leaq	12(%rax), %rdi
	movq	-704(%rbp), %rax
	movq	%rax, %rcx
	movl	$1, %edx
	movl	$4, %esi
	call	fread@PLT
	leaq	-688(%rbp), %rdx
	movl	-764(%rbp), %eax
	cltq
	addq	$20, %rax
	salq	$2, %rax
	leaq	(%rdx,%rax), %rdi
	movq	-704(%rbp), %rax
	movq	%rax, %rcx
	movl	$1, %edx
	movl	$4, %esi
	call	fread@PLT
	leaq	-688(%rbp), %rdx
	movl	-764(%rbp), %eax
	cltq
	addq	$24, %rax
	salq	$2, %rax
	addq	%rdx, %rax
	leaq	4(%rax), %rdi
	movq	-704(%rbp), %rax
	movq	%rax, %rcx
	movl	$1, %edx
	movl	$4, %esi
	call	fread@PLT
	leaq	-688(%rbp), %rdx
	movl	-764(%rbp), %eax
	cltq
	addq	$28, %rax
	salq	$2, %rax
	addq	%rdx, %rax
	leaq	8(%rax), %rdi
	movq	-704(%rbp), %rax
	movq	%rax, %rcx
	movl	$1, %edx
	movl	$4, %esi
	call	fread@PLT
	leaq	-688(%rbp), %rdx
	movl	-764(%rbp), %eax
	cltq
	addq	$32, %rax
	salq	$2, %rax
	addq	%rdx, %rax
	leaq	12(%rax), %rdi
	movq	-704(%rbp), %rax
	movq	%rax, %rcx
	movl	$1, %edx
	movl	$4, %esi
	call	fread@PLT
	leaq	-688(%rbp), %rdx
	movl	-764(%rbp), %eax
	cltq
	addq	$40, %rax
	salq	$2, %rax
	leaq	(%rdx,%rax), %rdi
	movq	-704(%rbp), %rax
	movq	%rax, %rcx
	movl	$1, %edx
	movl	$4, %esi
	call	fread@PLT
	leaq	-688(%rbp), %rcx
	movl	-764(%rbp), %eax
	movslq	%eax, %rdx
	movq	%rdx, %rax
	salq	$2, %rax
	addq	%rdx, %rax
	leaq	0(,%rax,4), %rdx
	addq	%rdx, %rax
	addq	%rax, %rax
	addq	$176, %rax
	addq	%rcx, %rax
	leaq	4(%rax), %rdi
	movq	-704(%rbp), %rax
	movq	%rax, %rcx
	movl	$50, %edx
	movl	$1, %esi
	call	fread@PLT
	leaq	-688(%rbp), %rcx
	movl	-764(%rbp), %eax
	movslq	%eax, %rdx
	movq	%rdx, %rax
	salq	$2, %rax
	addq	%rdx, %rax
	leaq	0(,%rax,4), %rdx
	addq	%rdx, %rax
	addq	%rax, %rax
	addq	$416, %rax
	addq	%rcx, %rax
	leaq	14(%rax), %rdi
	movq	-704(%rbp), %rax
	movq	%rax, %rcx
	movl	$50, %edx
	movl	$1, %esi
	call	fread@PLT
	movl	-764(%rbp), %eax
	movslq	%eax, %rdx
	movq	%rdx, %rax
	salq	$2, %rax
	addq	%rdx, %rax
	leaq	0(,%rax,4), %rdx
	addq	%rdx, %rax
	addq	%rax, %rax
	addq	%rbp, %rax
	subq	$508, %rax
	movzbl	(%rax), %eax
	cmpb	$36, %al
	jne	.L140
	movq	_TIG_iO_oZZz_1_verifica_id_1_opaque_ptr_1(%rip), %rdx
	movq	_TIG_iO_oZZz_1_verifica_id_1_opaque_ptr_2(%rip), %rax
	cmpq	%rax, %rdx
	jne	.L133
	movl	-748(%rbp), %eax
	movl	$0, %edx
	movl	$0, %esi
	movl	%eax, %edi
	call	main
	movl	%eax, -756(%rbp)
.L133:
	subl	$1, -764(%rbp)
	jmp	.L132
.L140:
	nop
.L132:
	addl	$1, -764(%rbp)
.L131:
	movl	-632(%rbp), %eax
	cmpl	%eax, -764(%rbp)
	jl	.L134
	movl	-632(%rbp), %eax
	movl	%eax, %esi
	leaq	.LC45(%rip), %rax
	movq	%rax, %rdi
	movl	$0, %eax
	call	printf@PLT
	movl	$0, -764(%rbp)
	jmp	.L135
.L136:
	movl	-764(%rbp), %eax
	cltq
	addq	$24, %rax
	movl	-684(%rbp,%rax,4), %edi
	movl	-764(%rbp), %eax
	cltq
	addq	$20, %rax
	movl	-688(%rbp,%rax,4), %edx
	movl	-764(%rbp), %eax
	cltq
	addq	$12, %rax
	movl	-676(%rbp,%rax,4), %eax
	movl	-764(%rbp), %ecx
	leal	1(%rcx), %esi
	movl	%edi, %r8d
	movl	%edx, %ecx
	movl	%eax, %edx
	leaq	.LC46(%rip), %rax
	movq	%rax, %rdi
	movl	$0, %eax
	call	printf@PLT
	movl	-764(%rbp), %eax
	cltq
	addq	$40, %rax
	movl	-688(%rbp,%rax,4), %edi
	movl	-764(%rbp), %eax
	cltq
	addq	$32, %rax
	movl	-676(%rbp,%rax,4), %edx
	movl	-764(%rbp), %eax
	cltq
	addq	$28, %rax
	movl	-680(%rbp,%rax,4), %eax
	movl	-764(%rbp), %ecx
	leal	1(%rcx), %esi
	movl	%edi, %r8d
	movl	%edx, %ecx
	movl	%eax, %edx
	leaq	.LC47(%rip), %rax
	movq	%rax, %rdi
	movl	$0, %eax
	call	printf@PLT
	leaq	-688(%rbp), %rcx
	movl	-764(%rbp), %eax
	movslq	%eax, %rdx
	movq	%rdx, %rax
	salq	$2, %rax
	addq	%rdx, %rax
	leaq	0(,%rax,4), %rdx
	addq	%rdx, %rax
	addq	%rax, %rax
	addq	$416, %rax
	addq	%rcx, %rax
	leaq	14(%rax), %rcx
	leaq	-688(%rbp), %rsi
	movl	-764(%rbp), %eax
	movslq	%eax, %rdx
	movq	%rdx, %rax
	salq	$2, %rax
	addq	%rdx, %rax
	leaq	0(,%rax,4), %rdx
	addq	%rdx, %rax
	addq	%rax, %rax
	addq	$176, %rax
	addq	%rsi, %rax
	leaq	4(%rax), %rdx
	movl	-764(%rbp), %eax
	addl	$1, %eax
	movl	%eax, %esi
	leaq	.LC48(%rip), %rax
	movq	%rax, %rdi
	movl	$0, %eax
	call	printf@PLT
	addl	$1, -764(%rbp)
.L135:
	movl	-632(%rbp), %eax
	cmpl	%eax, -764(%rbp)
	jl	.L136
	jmp	.L129
.L130:
	movq	-704(%rbp), %rax
	movl	$1, %edx
	movl	$628, %esi
	movq	%rax, %rdi
	call	fseek@PLT
	movq	-704(%rbp), %rdx
	leaq	-765(%rbp), %rax
	movq	%rdx, %rcx
	movl	$1, %edx
	movl	$1, %esi
	movq	%rax, %rdi
	call	fread@PLT
	movq	%rax, -696(%rbp)
	cmpq	$0, -696(%rbp)
	jne	.L137
	movq	-704(%rbp), %rax
	movq	%rax, %rdi
	call	fclose@PLT
	jmp	.L129
.L137:
	movq	-704(%rbp), %rax
	movl	$1, %edx
	movq	$-1, %rsi
	movq	%rax, %rdi
	call	fseek@PLT
	jmp	.L128
.L129:
	nop
.L127:
	movq	-8(%rbp), %rax
	subq	%fs:40, %rax
	je	.L139
	call	__stack_chk_fail@PLT
.L139:
	leave
	.cfi_def_cfa 7, 8
	ret
	.cfi_endproc
.LFE8:
	.size	imprimir_emprestimo, .-imprimir_emprestimo
	.section	.rodata
	.align 8
.LC49:
	.string	"Erro ao abrir o arquivo de emprestimo"
	.text
	.globl	verifica_emprestimo
	.type	verifica_emprestimo, @function
verifica_emprestimo:
.LFB10:
	.cfi_startproc
	endbr64
	pushq	%rbp
	.cfi_def_cfa_offset 16
	.cfi_offset 6, -16
	movq	%rsp, %rbp
	.cfi_def_cfa_register 6
	subq	$768, %rsp
	movq	%rdi, -760(%rbp)
	movq	%rsi, -768(%rbp)
	movq	%fs:40, %rax
	movq	%rax, -8(%rbp)
	xorl	%eax, %eax
#APP
# 74 "/usr/include/x86_64-linux-gnu/bits/byteswap.h" 1
	##_ANNOTATION_INITIALREGION_-TIG-iO-oZZz-1-verifica-emprestimo--36
# 0 "" 2
# 78 "/usr/include/x86_64-linux-gnu/bits/byteswap.h" 1
	##_ANNOTATION_ATOMICREGION_-TIG-iO-oZZz-1-verifica-emprestimo--35
# 0 "" 2
#NO_APP
	movl	$24, %edi
	call	malloc@PLT
	movq	%rax, -736(%rbp)
	movq	-736(%rbp), %rax
	movq	-736(%rbp), %rdx
	movq	%rdx, 8(%rax)
	movq	-736(%rbp), %rax
	movq	-736(%rbp), %rdx
	movq	%rdx, 16(%rax)
	movq	-736(%rbp), %rax
	movq	%rax, _TIG_iO_oZZz_1_verifica_emprestimo_1_opaque_list_1(%rip)
	call	rand@PLT
	movl	%eax, -748(%rbp)
	movl	$24, %edi
	call	malloc@PLT
	movq	%rax, -728(%rbp)
	movq	-728(%rbp), %rax
	movl	$0, (%rax)
	movq	_TIG_iO_oZZz_1_verifica_emprestimo_1_opaque_list_1(%rip), %rax
	movq	8(%rax), %rdx
	movq	-728(%rbp), %rax
	movq	%rdx, 8(%rax)
	movq	_TIG_iO_oZZz_1_verifica_emprestimo_1_opaque_list_1(%rip), %rdx
	movq	-728(%rbp), %rax
	movq	%rdx, 16(%rax)
	movq	_TIG_iO_oZZz_1_verifica_emprestimo_1_opaque_list_1(%rip), %rax
	movq	8(%rax), %rax
	movq	-728(%rbp), %rdx
	movq	%rdx, 16(%rax)
	movq	_TIG_iO_oZZz_1_verifica_emprestimo_1_opaque_list_1(%rip), %rax
	movq	-728(%rbp), %rdx
	movq	%rdx, 8(%rax)
	call	rand@PLT
	movl	%eax, -744(%rbp)
	movl	$24, %edi
	call	malloc@PLT
	movq	%rax, -720(%rbp)
	movq	-720(%rbp), %rax
	movl	-744(%rbp), %edx
	movl	%edx, (%rax)
	movq	_TIG_iO_oZZz_1_verifica_emprestimo_1_opaque_list_1(%rip), %rax
	movq	8(%rax), %rdx
	movq	-720(%rbp), %rax
	movq	%rdx, 8(%rax)
	movq	_TIG_iO_oZZz_1_verifica_emprestimo_1_opaque_list_1(%rip), %rdx
	movq	-720(%rbp), %rax
	movq	%rdx, 16(%rax)
	movq	_TIG_iO_oZZz_1_verifica_emprestimo_1_opaque_list_1(%rip), %rax
	movq	8(%rax), %rax
	movq	-720(%rbp), %rdx
	movq	%rdx, 16(%rax)
	movq	_TIG_iO_oZZz_1_verifica_emprestimo_1_opaque_list_1(%rip), %rax
	movq	-720(%rbp), %rdx
	movq	%rdx, 8(%rax)
	movq	_TIG_iO_oZZz_1_verifica_emprestimo_1_opaque_list_1(%rip), %rax
	movq	8(%rax), %rax
	movq	%rax, _TIG_iO_oZZz_1_verifica_emprestimo_1_opaque_ptr_1(%rip)
	movq	_TIG_iO_oZZz_1_verifica_emprestimo_1_opaque_ptr_1(%rip), %rax
	movq	%rax, _TIG_iO_oZZz_1_verifica_emprestimo_1_opaque_ptr_2(%rip)
	nop
	nop
	movq	-768(%rbp), %rax
	leaq	.LC31(%rip), %rdx
	movq	%rdx, %rsi
	movq	%rax, %rdi
	call	fopen@PLT
	movq	%rax, -712(%rbp)
	movq	-712(%rbp), %rax
	movq	%rax, -704(%rbp)
	cmpq	$0, -704(%rbp)
	jne	.L142
	leaq	.LC49(%rip), %rax
	movq	%rax, %rdi
	call	puts@PLT
	movl	$-1, %eax
	jmp	.L146
.L142:
	movq	-704(%rbp), %rdx
	leaq	-688(%rbp), %rax
	movq	%rdx, %rcx
	movl	$50, %edx
	movl	$1, %esi
	movq	%rax, %rdi
	call	fread@PLT
	leaq	-688(%rbp), %rdx
	movq	-760(%rbp), %rax
	movq	%rdx, %rsi
	movq	%rax, %rdi
	call	strcmp@PLT
	movl	%eax, -740(%rbp)
	cmpl	$0, -740(%rbp)
	jne	.L144
	movq	-704(%rbp), %rax
	movq	%rax, %rdi
	call	fclose@PLT
	movl	$1, %eax
	jmp	.L146
.L144:
	movq	-704(%rbp), %rax
	movl	$1, %edx
	movl	$628, %esi
	movq	%rax, %rdi
	call	fseek@PLT
	movq	-704(%rbp), %rdx
	leaq	-752(%rbp), %rax
	movq	%rdx, %rcx
	movl	$1, %edx
	movl	$1, %esi
	movq	%rax, %rdi
	call	fread@PLT
	movq	%rax, -696(%rbp)
	cmpq	$0, -696(%rbp)
	jne	.L145
	movl	$0, %eax
	jmp	.L146
.L145:
	movq	-704(%rbp), %rax
	movl	$1, %edx
	movq	$-1, %rsi
	movq	%rax, %rdi
	call	fseek@PLT
	jmp	.L142
.L146:
	movq	-8(%rbp), %rdx
	subq	%fs:40, %rdx
	je	.L147
	call	__stack_chk_fail@PLT
.L147:
	leave
	.cfi_def_cfa 7, 8
	ret
	.cfi_endproc
.LFE10:
	.size	verifica_emprestimo, .-verifica_emprestimo
	.section	.rodata
	.align 8
.LC50:
	.string	"Digite o nome a ser procurado: "
.LC51:
	.string	"Nome: %s\n"
.LC52:
	.string	"Data de nascimento: %d/%d/%d\n"
.LC53:
	.string	"Rua %s numero %d, %s"
.LC54:
	.string	"Bairro: %s\n"
.LC55:
	.string	"Cidade: %s\n"
.LC56:
	.string	"Estado: %s\n"
	.text
	.globl	imprimir_cadastro
	.type	imprimir_cadastro, @function
imprimir_cadastro:
.LFB11:
	.cfi_startproc
	endbr64
	pushq	%rbp
	.cfi_def_cfa_offset 16
	.cfi_offset 6, -16
	movq	%rsp, %rbp
	.cfi_def_cfa_register 6
	subq	$400, %rsp
	movq	%rdi, -392(%rbp)
	movq	%rsi, -400(%rbp)
	movq	%fs:40, %rax
	movq	%rax, -8(%rbp)
	xorl	%eax, %eax
#APP
# 351 "murilocpontes_Trabalho-2-Lab-ICC-biblioteca_main_windows.c" 1
	##_ANNOTATION_INITIALREGION_-TIG-iO-oZZz-1-imprimir-cadastro--22
# 0 "" 2
# 355 "murilocpontes_Trabalho-2-Lab-ICC-biblioteca_main_windows.c" 1
	##_ANNOTATION_ATOMICREGION_-TIG-iO-oZZz-1-imprimir-cadastro--21
# 0 "" 2
#NO_APP
	movl	$24, %edi
	call	malloc@PLT
	movq	%rax, -360(%rbp)
	movq	-360(%rbp), %rax
	movq	-360(%rbp), %rdx
	movq	%rdx, (%rax)
	movq	-360(%rbp), %rax
	movq	-360(%rbp), %rdx
	movq	%rdx, 16(%rax)
	movq	-360(%rbp), %rax
	movq	%rax, _TIG_iO_oZZz_1_imprimir_cadastro_1_opaque_list_1(%rip)
	call	rand@PLT
	movl	%eax, -376(%rbp)
	movl	$24, %edi
	call	malloc@PLT
	movq	%rax, -352(%rbp)
	movq	-352(%rbp), %rax
	movl	$0, 8(%rax)
	movq	_TIG_iO_oZZz_1_imprimir_cadastro_1_opaque_list_1(%rip), %rax
	movq	(%rax), %rdx
	movq	-352(%rbp), %rax
	movq	%rdx, (%rax)
	movq	_TIG_iO_oZZz_1_imprimir_cadastro_1_opaque_list_1(%rip), %rdx
	movq	-352(%rbp), %rax
	movq	%rdx, 16(%rax)
	movq	_TIG_iO_oZZz_1_imprimir_cadastro_1_opaque_list_1(%rip), %rax
	movq	(%rax), %rax
	movq	-352(%rbp), %rdx
	movq	%rdx, 16(%rax)
	movq	_TIG_iO_oZZz_1_imprimir_cadastro_1_opaque_list_1(%rip), %rax
	movq	-352(%rbp), %rdx
	movq	%rdx, (%rax)
	call	rand@PLT
	movl	%eax, -372(%rbp)
	movl	$24, %edi
	call	malloc@PLT
	movq	%rax, -344(%rbp)
	movq	-344(%rbp), %rax
	movl	-372(%rbp), %edx
	movl	%edx, 8(%rax)
	movq	_TIG_iO_oZZz_1_imprimir_cadastro_1_opaque_list_1(%rip), %rax
	movq	(%rax), %rdx
	movq	-344(%rbp), %rax
	movq	%rdx, (%rax)
	movq	_TIG_iO_oZZz_1_imprimir_cadastro_1_opaque_list_1(%rip), %rdx
	movq	-344(%rbp), %rax
	movq	%rdx, 16(%rax)
	movq	_TIG_iO_oZZz_1_imprimir_cadastro_1_opaque_list_1(%rip), %rax
	movq	(%rax), %rax
	movq	-344(%rbp), %rdx
	movq	%rdx, 16(%rax)
	movq	_TIG_iO_oZZz_1_imprimir_cadastro_1_opaque_list_1(%rip), %rax
	movq	-344(%rbp), %rdx
	movq	%rdx, (%rax)
	call	rand@PLT
	movl	%eax, -368(%rbp)
	movl	$24, %edi
	call	malloc@PLT
	movq	%rax, -336(%rbp)
	movl	-368(%rbp), %eax
	leal	(%rax,%rax), %edx
	movq	-336(%rbp), %rax
	movl	%edx, 8(%rax)
	movq	_TIG_iO_oZZz_1_imprimir_cadastro_1_opaque_list_1(%rip), %rax
	movq	(%rax), %rdx
	movq	-336(%rbp), %rax
	movq	%rdx, (%rax)
	movq	_TIG_iO_oZZz_1_imprimir_cadastro_1_opaque_list_1(%rip), %rdx
	movq	-336(%rbp), %rax
	movq	%rdx, 16(%rax)
	movq	_TIG_iO_oZZz_1_imprimir_cadastro_1_opaque_list_1(%rip), %rax
	movq	(%rax), %rax
	movq	-336(%rbp), %rdx
	movq	%rdx, 16(%rax)
	movq	_TIG_iO_oZZz_1_imprimir_cadastro_1_opaque_list_1(%rip), %rax
	movq	-336(%rbp), %rdx
	movq	%rdx, (%rax)
	movq	_TIG_iO_oZZz_1_imprimir_cadastro_1_opaque_list_1(%rip), %rax
	movq	(%rax), %rax
	movq	%rax, _TIG_iO_oZZz_1_imprimir_cadastro_1_opaque_ptr_1(%rip)
	movq	_TIG_iO_oZZz_1_imprimir_cadastro_1_opaque_ptr_1(%rip), %rax
	movq	%rax, _TIG_iO_oZZz_1_imprimir_cadastro_1_opaque_ptr_2(%rip)
	movq	_TIG_iO_oZZz_1_imprimir_cadastro_1_opaque_ptr_2(%rip), %rax
	movq	(%rax), %rax
	movq	%rax, _TIG_iO_oZZz_1_imprimir_cadastro_1_opaque_ptr_2(%rip)
	nop
	nop
	movq	-392(%rbp), %rax
	leaq	.LC31(%rip), %rdx
	movq	%rdx, %rsi
	movq	%rax, %rdi
	call	fopen@PLT
	movq	%rax, -328(%rbp)
	movq	-328(%rbp), %rax
	movq	%rax, -320(%rbp)
	cmpq	$0, -320(%rbp)
	jne	.L149
	leaq	.LC44(%rip), %rax
	movq	%rax, %rdi
	call	puts@PLT
	jmp	.L156
.L149:
	leaq	.LC50(%rip), %rax
	movq	%rax, %rdi
	movl	$0, %eax
	call	printf@PLT
	movq	stdin(%rip), %rax
	movq	%rax, %rdi
	call	fflush@PLT
	movq	stdin(%rip), %rdx
	leaq	-64(%rbp), %rax
	movl	$50, %esi
	movq	%rax, %rdi
	call	fgets@PLT
	movq	_TIG_iO_oZZz_1_verifica_id_1_opaque_ptr_1(%rip), %rdx
	movq	_TIG_iO_oZZz_1_verifica_id_1_opaque_ptr_2(%rip), %rax
	cmpq	%rax, %rdx
	je	.L156
.L153:
	movq	-320(%rbp), %rdx
	leaq	-304(%rbp), %rax
	movq	%rdx, %rcx
	movl	$1, %edx
	movl	$50, %esi
	movq	%rax, %rdi
	call	fread@PLT
	leaq	-304(%rbp), %rdx
	leaq	-64(%rbp), %rax
	movq	%rdx, %rsi
	movq	%rax, %rdi
	call	strcmp@PLT
	movl	%eax, -364(%rbp)
	cmpl	$0, -364(%rbp)
	jne	.L151
	movq	-320(%rbp), %rax
	leaq	-304(%rbp), %rdx
	leaq	52(%rdx), %rdi
	movq	%rax, %rcx
	movl	$1, %edx
	movl	$4, %esi
	call	fread@PLT
	movq	-320(%rbp), %rax
	movl	$1, %edx
	movl	$4, %esi
	movq	%rax, %rdi
	call	fseek@PLT
	movq	-320(%rbp), %rax
	leaq	-304(%rbp), %rdx
	leaq	60(%rdx), %rdi
	movq	%rax, %rcx
	movl	$1, %edx
	movl	$4, %esi
	call	fread@PLT
	movq	-320(%rbp), %rax
	leaq	-304(%rbp), %rdx
	leaq	64(%rdx), %rdi
	movq	%rax, %rcx
	movl	$1, %edx
	movl	$4, %esi
	call	fread@PLT
	movq	-320(%rbp), %rax
	leaq	-304(%rbp), %rdx
	leaq	68(%rdx), %rdi
	movq	%rax, %rcx
	movl	$1, %edx
	movl	$4, %esi
	call	fread@PLT
	movq	-320(%rbp), %rax
	leaq	-304(%rbp), %rdx
	leaq	72(%rdx), %rdi
	movq	%rax, %rcx
	movl	$40, %edx
	movl	$1, %esi
	call	fread@PLT
	movq	-320(%rbp), %rax
	leaq	-304(%rbp), %rdx
	leaq	112(%rdx), %rdi
	movq	%rax, %rcx
	movl	$1, %edx
	movl	$4, %esi
	call	fread@PLT
	movq	-320(%rbp), %rax
	leaq	-304(%rbp), %rdx
	leaq	116(%rdx), %rdi
	movq	%rax, %rcx
	movl	$1, %edx
	movl	$20, %esi
	call	fread@PLT
	movq	-320(%rbp), %rax
	leaq	-304(%rbp), %rdx
	leaq	136(%rdx), %rdi
	movq	%rax, %rcx
	movl	$40, %edx
	movl	$1, %esi
	call	fread@PLT
	movq	-320(%rbp), %rax
	leaq	-304(%rbp), %rdx
	leaq	176(%rdx), %rdi
	movq	%rax, %rcx
	movl	$30, %edx
	movl	$1, %esi
	call	fread@PLT
	movq	-320(%rbp), %rax
	leaq	-304(%rbp), %rdx
	leaq	206(%rdx), %rdi
	movq	%rax, %rcx
	movl	$20, %edx
	movl	$1, %esi
	call	fread@PLT
	leaq	-304(%rbp), %rax
	movq	%rax, %rsi
	leaq	.LC51(%rip), %rax
	movq	%rax, %rdi
	movl	$0, %eax
	call	printf@PLT
	movl	-252(%rbp), %eax
	movl	%eax, %esi
	leaq	.LC2(%rip), %rax
	movq	%rax, %rdi
	movl	$0, %eax
	call	printf@PLT
	movl	-236(%rbp), %ecx
	movl	-240(%rbp), %edx
	movl	-244(%rbp), %eax
	movl	%eax, %esi
	leaq	.LC52(%rip), %rax
	movq	%rax, %rdi
	movl	$0, %eax
	call	printf@PLT
	movl	-192(%rbp), %eax
	leaq	-304(%rbp), %rdx
	addq	$116, %rdx
	leaq	-304(%rbp), %rcx
	leaq	72(%rcx), %rsi
	movq	%rdx, %rcx
	movl	%eax, %edx
	leaq	.LC53(%rip), %rax
	movq	%rax, %rdi
	movl	$0, %eax
	call	printf@PLT
	leaq	-304(%rbp), %rax
	addq	$136, %rax
	movq	%rax, %rsi
	leaq	.LC54(%rip), %rax
	movq	%rax, %rdi
	movl	$0, %eax
	call	printf@PLT
	leaq	-304(%rbp), %rax
	addq	$176, %rax
	movq	%rax, %rsi
	leaq	.LC55(%rip), %rax
	movq	%rax, %rdi
	movl	$0, %eax
	call	printf@PLT
	leaq	-304(%rbp), %rax
	addq	$206, %rax
	movq	%rax, %rsi
	leaq	.LC56(%rip), %rax
	movq	%rax, %rdi
	movl	$0, %eax
	call	printf@PLT
	movq	-320(%rbp), %rax
	movq	%rax, %rdi
	call	fclose@PLT
	movq	-400(%rbp), %rdx
	leaq	-304(%rbp), %rax
	movq	%rdx, %rsi
	movq	%rax, %rdi
	call	imprimir_emprestimo
	jmp	.L150
.L151:
	movq	-320(%rbp), %rax
	movl	$1, %edx
	movl	$174, %esi
	movq	%rax, %rdi
	call	fseek@PLT
	movq	-320(%rbp), %rdx
	leaq	-377(%rbp), %rax
	movq	%rdx, %rcx
	movl	$1, %edx
	movl	$1, %esi
	movq	%rax, %rdi
	call	fread@PLT
	movq	%rax, -312(%rbp)
	cmpq	$0, -312(%rbp)
	je	.L157
	movq	-320(%rbp), %rax
	movl	$1, %edx
	movq	$-1, %rsi
	movq	%rax, %rdi
	call	fseek@PLT
	jmp	.L153
.L157:
	nop
.L150:
	nop
.L156:
	nop
	movq	-8(%rbp), %rax
	subq	%fs:40, %rax
	je	.L155
	call	__stack_chk_fail@PLT
.L155:
	leave
	.cfi_def_cfa 7, 8
	ret
	.cfi_endproc
.LFE11:
	.size	imprimir_cadastro, .-imprimir_cadastro
	.section	.rodata
.LC57:
	.string	"\n\tBIBLIOTECA"
.LC58:
	.string	"\t>>Menu<<"
.LC59:
	.string	"1. Novo cadastro"
.LC60:
	.string	"2. Emprestimo"
.LC61:
	.string	"3. Busca de historico"
.LC62:
	.string	"4. Devolver Livro"
.LC63:
	.string	"5. Sair"
.LC64:
	.string	"Digite sua opcao: "
	.text
	.globl	menu
	.type	menu, @function
menu:
.LFB12:
	.cfi_startproc
	endbr64
	pushq	%rbp
	.cfi_def_cfa_offset 16
	.cfi_offset 6, -16
	movq	%rsp, %rbp
	.cfi_def_cfa_register 6
	subq	$64, %rsp
	movq	%fs:40, %rax
	movq	%rax, -8(%rbp)
	xorl	%eax, %eax
#APP
# 675 "murilocpontes_Trabalho-2-Lab-ICC-biblioteca_main_windows.c" 1
	##_ANNOTATION_INITIALREGION_-TIG-iO-oZZz-1-menu--28
# 0 "" 2
# 679 "murilocpontes_Trabalho-2-Lab-ICC-biblioteca_main_windows.c" 1
	##_ANNOTATION_ATOMICREGION_-TIG-iO-oZZz-1-menu--27
# 0 "" 2
#NO_APP
	movl	$24, %edi
	call	malloc@PLT
	movq	%rax, -40(%rbp)
	movq	-40(%rbp), %rax
	movq	-40(%rbp), %rdx
	movq	%rdx, 16(%rax)
	movq	-40(%rbp), %rax
	movq	-40(%rbp), %rdx
	movq	%rdx, 8(%rax)
	movq	-40(%rbp), %rax
	movq	%rax, _TIG_iO_oZZz_1_menu_1_opaque_list_1(%rip)
	call	rand@PLT
	movl	%eax, -48(%rbp)
	movl	$24, %edi
	call	malloc@PLT
	movq	%rax, -32(%rbp)
	movq	-32(%rbp), %rax
	movl	$0, (%rax)
	movq	_TIG_iO_oZZz_1_menu_1_opaque_list_1(%rip), %rax
	movq	16(%rax), %rdx
	movq	-32(%rbp), %rax
	movq	%rdx, 16(%rax)
	movq	_TIG_iO_oZZz_1_menu_1_opaque_list_1(%rip), %rdx
	movq	-32(%rbp), %rax
	movq	%rdx, 8(%rax)
	movq	_TIG_iO_oZZz_1_menu_1_opaque_list_1(%rip), %rax
	movq	16(%rax), %rax
	movq	-32(%rbp), %rdx
	movq	%rdx, 8(%rax)
	movq	_TIG_iO_oZZz_1_menu_1_opaque_list_1(%rip), %rax
	movq	-32(%rbp), %rdx
	movq	%rdx, 16(%rax)
	call	rand@PLT
	movl	%eax, -44(%rbp)
	movl	$24, %edi
	call	malloc@PLT
	movq	%rax, -24(%rbp)
	movq	-24(%rbp), %rax
	movl	-44(%rbp), %edx
	movl	%edx, (%rax)
	movq	_TIG_iO_oZZz_1_menu_1_opaque_list_1(%rip), %rax
	movq	16(%rax), %rdx
	movq	-24(%rbp), %rax
	movq	%rdx, 16(%rax)
	movq	_TIG_iO_oZZz_1_menu_1_opaque_list_1(%rip), %rdx
	movq	-24(%rbp), %rax
	movq	%rdx, 8(%rax)
	movq	_TIG_iO_oZZz_1_menu_1_opaque_list_1(%rip), %rax
	movq	16(%rax), %rax
	movq	-24(%rbp), %rdx
	movq	%rdx, 8(%rax)
	movq	_TIG_iO_oZZz_1_menu_1_opaque_list_1(%rip), %rax
	movq	-24(%rbp), %rdx
	movq	%rdx, 16(%rax)
	movq	_TIG_iO_oZZz_1_menu_1_opaque_list_1(%rip), %rax
	movq	16(%rax), %rax
	movq	%rax, _TIG_iO_oZZz_1_menu_1_opaque_ptr_1(%rip)
	movq	_TIG_iO_oZZz_1_menu_1_opaque_ptr_1(%rip), %rax
	movq	%rax, _TIG_iO_oZZz_1_menu_1_opaque_ptr_2(%rip)
	nop
	nop
	leaq	.LC57(%rip), %rax
	movq	%rax, %rdi
	call	puts@PLT
	leaq	.LC58(%rip), %rax
	movq	%rax, %rdi
	call	puts@PLT
	leaq	.LC59(%rip), %rax
	movq	%rax, %rdi
	call	puts@PLT
	leaq	.LC60(%rip), %rax
	movq	%rax, %rdi
	call	puts@PLT
	leaq	.LC61(%rip), %rax
	movq	%rax, %rdi
	call	puts@PLT
	leaq	.LC62(%rip), %rax
	movq	%rax, %rdi
	call	puts@PLT
	leaq	.LC63(%rip), %rax
	movq	%rax, %rdi
	call	puts@PLT
.L166:
	leaq	.LC64(%rip), %rax
	movq	%rax, %rdi
	call	puts@PLT
	movq	stdin(%rip), %rax
	movq	%rax, %rdi
	call	fflush@PLT
	movq	stdin(%rip), %rdx
	leaq	-11(%rbp), %rax
	movl	$3, %esi
	movq	%rax, %rdi
	call	fgets@PLT
	movzbl	-11(%rbp), %eax
	cmpb	$49, %al
	jne	.L159
	movq	_TIG_iO_oZZz_1_verifica_id_1_opaque_ptr_1(%rip), %rdx
	movq	_TIG_iO_oZZz_1_verifica_id_1_opaque_ptr_2(%rip), %rax
	cmpq	%rax, %rdx
	je	.L160
	leaq	-11(%rbp), %rax
	movq	%rax, %rdi
	call	atoi@PLT
	movl	%eax, -52(%rbp)
.L160:
	movl	-52(%rbp), %eax
	jmp	.L167
.L159:
	movzbl	-11(%rbp), %eax
	cmpb	$50, %al
	jne	.L162
	leaq	-11(%rbp), %rax
	movq	%rax, %rdi
	call	atoi@PLT
	movl	%eax, -52(%rbp)
	movl	-52(%rbp), %eax
	jmp	.L167
.L162:
	movzbl	-11(%rbp), %eax
	cmpb	$51, %al
	jne	.L163
	leaq	-11(%rbp), %rax
	movq	%rax, %rdi
	call	atoi@PLT
	movl	%eax, -52(%rbp)
	movl	-52(%rbp), %eax
	jmp	.L167
.L163:
	movzbl	-11(%rbp), %eax
	cmpb	$52, %al
	jne	.L164
	leaq	-11(%rbp), %rax
	movq	%rax, %rdi
	call	atoi@PLT
	movl	%eax, -52(%rbp)
	movl	-52(%rbp), %eax
	jmp	.L167
.L164:
	movzbl	-11(%rbp), %eax
	cmpb	$53, %al
	jne	.L166
	leaq	-11(%rbp), %rax
	movq	%rax, %rdi
	call	atoi@PLT
	movl	%eax, -52(%rbp)
	movl	-52(%rbp), %eax
.L167:
	movq	-8(%rbp), %rdx
	subq	%fs:40, %rdx
	je	.L168
	call	__stack_chk_fail@PLT
.L168:
	leave
	.cfi_def_cfa 7, 8
	ret
	.cfi_endproc
.LFE12:
	.size	menu, .-menu
	.section	.rodata
	.align 8
.LC65:
	.string	"Confirme sua senha (digite 0 para sair): "
.LC66:
	.string	"Senha incorreta"
	.text
	.globl	confirma_senha
	.type	confirma_senha, @function
confirma_senha:
.LFB13:
	.cfi_startproc
	endbr64
	pushq	%rbp
	.cfi_def_cfa_offset 16
	.cfi_offset 6, -16
	movq	%rsp, %rbp
	.cfi_def_cfa_register 6
	subq	$176, %rsp
	movl	%edi, -148(%rbp)
	movq	%rsi, -160(%rbp)
	movq	%rdx, -168(%rbp)
	movl	%ecx, -152(%rbp)
	movq	%fs:40, %rax
	movq	%rax, -8(%rbp)
	xorl	%eax, %eax
#APP
# 79 "murilocpontes_Trabalho-2-Lab-ICC-biblioteca_main_windows.c" 1
	##_ANNOTATION_INITIALREGION_-TIG-iO-oZZz-1-confirma-senha--18
# 0 "" 2
# 83 "murilocpontes_Trabalho-2-Lab-ICC-biblioteca_main_windows.c" 1
	##_ANNOTATION_ATOMICREGION_-TIG-iO-oZZz-1-confirma-senha--17
# 0 "" 2
#NO_APP
	movl	$24, %edi
	call	malloc@PLT
	movq	%rax, -112(%rbp)
	movq	-112(%rbp), %rax
	movq	-112(%rbp), %rdx
	movq	%rdx, 8(%rax)
	movq	-112(%rbp), %rax
	movq	-112(%rbp), %rdx
	movq	%rdx, (%rax)
	movq	-112(%rbp), %rax
	movq	%rax, _TIG_iO_oZZz_1_confirma_senha_1_opaque_list_1(%rip)
	call	rand@PLT
	movl	%eax, -128(%rbp)
	movl	$24, %edi
	call	malloc@PLT
	movq	%rax, -104(%rbp)
	movq	-104(%rbp), %rax
	movl	$0, 16(%rax)
	movq	_TIG_iO_oZZz_1_confirma_senha_1_opaque_list_1(%rip), %rax
	movq	8(%rax), %rdx
	movq	-104(%rbp), %rax
	movq	%rdx, 8(%rax)
	movq	_TIG_iO_oZZz_1_confirma_senha_1_opaque_list_1(%rip), %rdx
	movq	-104(%rbp), %rax
	movq	%rdx, (%rax)
	movq	_TIG_iO_oZZz_1_confirma_senha_1_opaque_list_1(%rip), %rax
	movq	8(%rax), %rax
	movq	-104(%rbp), %rdx
	movq	%rdx, (%rax)
	movq	_TIG_iO_oZZz_1_confirma_senha_1_opaque_list_1(%rip), %rax
	movq	-104(%rbp), %rdx
	movq	%rdx, 8(%rax)
	call	rand@PLT
	movl	%eax, -124(%rbp)
	movl	$24, %edi
	call	malloc@PLT
	movq	%rax, -96(%rbp)
	movq	-96(%rbp), %rax
	movl	-124(%rbp), %edx
	movl	%edx, 16(%rax)
	movq	_TIG_iO_oZZz_1_confirma_senha_1_opaque_list_1(%rip), %rax
	movq	8(%rax), %rdx
	movq	-96(%rbp), %rax
	movq	%rdx, 8(%rax)
	movq	_TIG_iO_oZZz_1_confirma_senha_1_opaque_list_1(%rip), %rdx
	movq	-96(%rbp), %rax
	movq	%rdx, (%rax)
	movq	_TIG_iO_oZZz_1_confirma_senha_1_opaque_list_1(%rip), %rax
	movq	8(%rax), %rax
	movq	-96(%rbp), %rdx
	movq	%rdx, (%rax)
	movq	_TIG_iO_oZZz_1_confirma_senha_1_opaque_list_1(%rip), %rax
	movq	-96(%rbp), %rdx
	movq	%rdx, 8(%rax)
	movq	_TIG_iO_oZZz_1_confirma_senha_1_opaque_list_1(%rip), %rax
	movq	8(%rax), %rax
	movq	%rax, _TIG_iO_oZZz_1_confirma_senha_1_opaque_ptr_1(%rip)
	movq	_TIG_iO_oZZz_1_confirma_senha_1_opaque_ptr_1(%rip), %rax
	movq	%rax, _TIG_iO_oZZz_1_confirma_senha_1_opaque_ptr_2(%rip)
	movq	_TIG_iO_oZZz_1_confirma_senha_1_opaque_ptr_2(%rip), %rax
	movq	8(%rax), %rax
	movq	%rax, _TIG_iO_oZZz_1_confirma_senha_1_opaque_ptr_2(%rip)
	nop
	nop
	movq	-160(%rbp), %rax
	leaq	.LC31(%rip), %rdx
	movq	%rdx, %rsi
	movq	%rax, %rdi
	call	fopen@PLT
	movq	%rax, -88(%rbp)
	movq	-88(%rbp), %rax
	movq	%rax, -80(%rbp)
	cmpq	$0, -80(%rbp)
	jne	.L170
	leaq	.LC19(%rip), %rax
	movq	%rax, %rdi
	call	puts@PLT
	movq	_TIG_iO_oZZz_1_verifica_id_1_opaque_ptr_1(%rip), %rdx
	movq	_TIG_iO_oZZz_1_verifica_id_1_opaque_ptr_2(%rip), %rax
	cmpq	%rax, %rdx
	je	.L184
	jmp	.L187
.L170:
	cmpl	$1, -152(%rbp)
	jne	.L172
	movl	-148(%rbp), %eax
	cltq
	addq	$4, %rax
	movq	%rax, %rcx
	movq	-80(%rbp), %rax
	movl	$0, %edx
	movq	%rcx, %rsi
	movq	%rax, %rdi
	call	fseek@PLT
	movq	-80(%rbp), %rdx
	leaq	-132(%rbp), %rax
	movq	%rdx, %rcx
	movl	$1, %edx
	movl	$4, %esi
	movq	%rax, %rdi
	call	fread@PLT
.L176:
	leaq	.LC65(%rip), %rax
	movq	%rax, %rdi
	movl	$0, %eax
	call	printf@PLT
	movq	stdin(%rip), %rax
	movq	%rax, %rdi
	call	fflush@PLT
	movq	stdin(%rip), %rdx
	leaq	-64(%rbp), %rax
	movl	$10, %esi
	movq	%rax, %rdi
	call	fgets@PLT
	leaq	-64(%rbp), %rax
	movq	%rax, %rdi
	call	atoi@PLT
	movl	%eax, -116(%rbp)
	movl	-132(%rbp), %eax
	cmpl	%eax, -116(%rbp)
	jne	.L173
	movq	-80(%rbp), %rax
	movq	%rax, %rdi
	call	fclose@PLT
	movl	$1, %eax
	jmp	.L169
.L173:
	cmpl	$0, -116(%rbp)
	jne	.L175
	movq	-80(%rbp), %rax
	movq	%rax, %rdi
	call	fclose@PLT
	movl	$0, %eax
	jmp	.L169
.L175:
	leaq	.LC66(%rip), %rax
	movq	%rax, %rdi
	call	puts@PLT
	jmp	.L176
.L172:
	cmpl	$2, -152(%rbp)
	jne	.L177
.L183:
	movq	-80(%rbp), %rdx
	leaq	-64(%rbp), %rax
	movq	%rdx, %rcx
	movl	$50, %edx
	movl	$1, %esi
	movq	%rax, %rdi
	call	fread@PLT
	movq	-168(%rbp), %rdx
	leaq	-64(%rbp), %rax
	movq	%rdx, %rsi
	movq	%rax, %rdi
	call	strcmp@PLT
	movl	%eax, -120(%rbp)
	cmpl	$0, -120(%rbp)
	jne	.L178
	movq	-80(%rbp), %rax
	movl	$1, %edx
	movl	$4, %esi
	movq	%rax, %rdi
	call	fseek@PLT
	movq	-80(%rbp), %rdx
	leaq	-132(%rbp), %rax
	movq	%rdx, %rcx
	movl	$1, %edx
	movl	$4, %esi
	movq	%rax, %rdi
	call	fread@PLT
.L181:
	leaq	.LC65(%rip), %rax
	movq	%rax, %rdi
	movl	$0, %eax
	call	printf@PLT
	movq	stdin(%rip), %rax
	movq	%rax, %rdi
	call	fflush@PLT
	movq	stdin(%rip), %rdx
	leaq	-64(%rbp), %rax
	movl	$10, %esi
	movq	%rax, %rdi
	call	fgets@PLT
	leaq	-64(%rbp), %rax
	movq	%rax, %rdi
	call	atoi@PLT
	movl	%eax, -116(%rbp)
	movl	-132(%rbp), %eax
	cmpl	%eax, -116(%rbp)
	jne	.L179
	movq	-80(%rbp), %rax
	movq	%rax, %rdi
	call	fclose@PLT
	movl	$1, %eax
	jmp	.L169
.L179:
	cmpl	$0, -116(%rbp)
	jne	.L180
	movq	-80(%rbp), %rax
	movq	%rax, %rdi
	call	fclose@PLT
	movl	$0, %eax
	jmp	.L169
.L180:
	leaq	.LC66(%rip), %rax
	movq	%rax, %rdi
	call	puts@PLT
	jmp	.L181
.L178:
	movq	-80(%rbp), %rax
	movl	$1, %edx
	movl	$174, %esi
	movq	%rax, %rdi
	call	fseek@PLT
	movq	-80(%rbp), %rdx
	leaq	-64(%rbp), %rax
	movq	%rdx, %rcx
	movl	$1, %edx
	movl	$1, %esi
	movq	%rax, %rdi
	call	fread@PLT
	movq	%rax, -72(%rbp)
	cmpq	$0, -72(%rbp)
	je	.L188
	movq	-80(%rbp), %rax
	movl	$1, %edx
	movq	$-1, %rsi
	movq	%rax, %rdi
	call	fseek@PLT
	jmp	.L183
.L188:
	nop
.L177:
	movq	-80(%rbp), %rax
	movq	%rax, %rdi
	call	fclose@PLT
	movl	$0, %eax
	jmp	.L169
.L187:
	movl	$0, %eax
	jmp	.L169
.L184:
#APP
# 267 "murilocpontes_Trabalho-2-Lab-ICC-biblioteca_main_windows.c" 1
	.byte 0x40
# 0 "" 2
#NO_APP
.L169:
	movq	-8(%rbp), %rdx
	subq	%fs:40, %rdx
	je	.L186
	call	__stack_chk_fail@PLT
.L186:
	leave
	.cfi_def_cfa 7, 8
	ret
	.cfi_endproc
.LFE13:
	.size	confirma_senha, .-confirma_senha
	.globl	devolucao
	.type	devolucao, @function
devolucao:
.LFB16:
	.cfi_startproc
	endbr64
	pushq	%rbp
	.cfi_def_cfa_offset 16
	.cfi_offset 6, -16
	movq	%rsp, %rbp
	.cfi_def_cfa_register 6
	subq	$96, %rsp
	movl	%edi, -52(%rbp)
	movl	%esi, -56(%rbp)
	movl	%edx, -60(%rbp)
	movq	%rcx, -72(%rbp)
	movq	%r8, -80(%rbp)
	movq	%r9, -88(%rbp)
#APP
# 64 "/usr/include/x86_64-linux-gnu/bits/uintn-identity.h" 1
	##_ANNOTATION_INITIALREGION_-TIG-iO-oZZz-1-devolucao--20
# 0 "" 2
# 68 "/usr/include/x86_64-linux-gnu/bits/uintn-identity.h" 1
	##_ANNOTATION_ATOMICREGION_-TIG-iO-oZZz-1-devolucao--19
# 0 "" 2
#NO_APP
	movl	$24, %edi
	call	malloc@PLT
	movq	%rax, -24(%rbp)
	movq	-24(%rbp), %rax
	movq	-24(%rbp), %rdx
	movq	%rdx, 8(%rax)
	movq	-24(%rbp), %rax
	movq	-24(%rbp), %rdx
	movq	%rdx, 16(%rax)
	movq	-24(%rbp), %rax
	movq	%rax, _TIG_iO_oZZz_1_devolucao_1_opaque_list_1(%rip)
	call	rand@PLT
	movl	%eax, -40(%rbp)
	movl	$24, %edi
	call	malloc@PLT
	movq	%rax, -16(%rbp)
	movq	-16(%rbp), %rax
	movl	$0, (%rax)
	movq	_TIG_iO_oZZz_1_devolucao_1_opaque_list_1(%rip), %rax
	movq	8(%rax), %rdx
	movq	-16(%rbp), %rax
	movq	%rdx, 8(%rax)
	movq	_TIG_iO_oZZz_1_devolucao_1_opaque_list_1(%rip), %rdx
	movq	-16(%rbp), %rax
	movq	%rdx, 16(%rax)
	movq	_TIG_iO_oZZz_1_devolucao_1_opaque_list_1(%rip), %rax
	movq	8(%rax), %rax
	movq	-16(%rbp), %rdx
	movq	%rdx, 16(%rax)
	movq	_TIG_iO_oZZz_1_devolucao_1_opaque_list_1(%rip), %rax
	movq	-16(%rbp), %rdx
	movq	%rdx, 8(%rax)
	call	rand@PLT
	movl	%eax, -36(%rbp)
	movl	$24, %edi
	call	malloc@PLT
	movq	%rax, -8(%rbp)
	movq	-8(%rbp), %rax
	movl	-36(%rbp), %edx
	movl	%edx, (%rax)
	movq	_TIG_iO_oZZz_1_devolucao_1_opaque_list_1(%rip), %rax
	movq	8(%rax), %rdx
	movq	-8(%rbp), %rax
	movq	%rdx, 8(%rax)
	movq	_TIG_iO_oZZz_1_devolucao_1_opaque_list_1(%rip), %rdx
	movq	-8(%rbp), %rax
	movq	%rdx, 16(%rax)
	movq	_TIG_iO_oZZz_1_devolucao_1_opaque_list_1(%rip), %rax
	movq	8(%rax), %rax
	movq	-8(%rbp), %rdx
	movq	%rdx, 16(%rax)
	movq	_TIG_iO_oZZz_1_devolucao_1_opaque_list_1(%rip), %rax
	movq	-8(%rbp), %rdx
	movq	%rdx, 8(%rax)
	movq	_TIG_iO_oZZz_1_devolucao_1_opaque_list_1(%rip), %rax
	movq	8(%rax), %rax
	movq	%rax, _TIG_iO_oZZz_1_devolucao_1_opaque_ptr_1(%rip)
	movq	_TIG_iO_oZZz_1_devolucao_1_opaque_ptr_1(%rip), %rax
	movq	%rax, _TIG_iO_oZZz_1_devolucao_1_opaque_ptr_2(%rip)
	nop
	nop
	movl	$31, -44(%rbp)
	movl	-56(%rbp), %eax
	cmpl	$11, %eax
	seta	%dl
	testb	%dl, %dl
	jne	.L190
	movl	$1, %edx
	movl	%eax, %ecx
	salq	%cl, %rdx
	movq	%rdx, %rax
	movq	%rax, %rdx
	andl	$2640, %edx
	testq	%rdx, %rdx
	setne	%dl
	testb	%dl, %dl
	jne	.L191
	andl	$4, %eax
	testq	%rax, %rax
	setne	%al
	testb	%al, %al
	je	.L190
	subl	$3, -44(%rbp)
	movq	_TIG_iO_oZZz_1_verifica_id_1_opaque_ptr_1(%rip), %rdx
	movq	_TIG_iO_oZZz_1_verifica_id_1_opaque_ptr_2(%rip), %rax
	cmpq	%rax, %rdx
	jne	.L197
#APP
# 274 "murilocpontes_Trabalho-2-Lab-ICC-biblioteca_main_windows.c" 1
	.byte 0x48
# 0 "" 2
#NO_APP
.L191:
	subl	$1, -44(%rbp)
	jmp	.L190
.L197:
	nop
.L190:
	movl	-52(%rbp), %eax
	addl	$13, %eax
	cmpl	%eax, -44(%rbp)
	jg	.L193
	cmpl	$12, -56(%rbp)
	jne	.L194
	movl	-60(%rbp), %eax
	movl	%eax, -28(%rbp)
	addl	$1, -60(%rbp)
	movq	-88(%rbp), %rax
	movl	-28(%rbp), %edx
	movl	%edx, (%rax)
	movq	-80(%rbp), %rax
	movl	$1, (%rax)
	movl	-52(%rbp), %eax
	addl	$14, %eax
	subl	-44(%rbp), %eax
	movl	%eax, %edx
	movq	-72(%rbp), %rax
	movl	%edx, (%rax)
	jmp	.L189
.L194:
	movq	-88(%rbp), %rax
	movl	-60(%rbp), %edx
	movl	%edx, (%rax)
	movl	-56(%rbp), %eax
	movl	%eax, -32(%rbp)
	addl	$1, -56(%rbp)
	movq	-80(%rbp), %rax
	movl	-32(%rbp), %edx
	movl	%edx, (%rax)
	movl	-52(%rbp), %eax
	addl	$14, %eax
	subl	-44(%rbp), %eax
	movl	%eax, %edx
	movq	-72(%rbp), %rax
	movl	%edx, (%rax)
	jmp	.L189
.L193:
	movq	-88(%rbp), %rax
	movl	-60(%rbp), %edx
	movl	%edx, (%rax)
	movq	-80(%rbp), %rax
	movl	-56(%rbp), %edx
	movl	%edx, (%rax)
	movl	-52(%rbp), %eax
	leal	14(%rax), %edx
	movq	-72(%rbp), %rax
	movl	%edx, (%rax)
	nop
.L189:
	leave
	.cfi_def_cfa 7, 8
	ret
	.cfi_endproc
.LFE16:
	.size	devolucao, .-devolucao
	.ident	"GCC: (Ubuntu 11.4.0-1ubuntu1~22.04) 11.4.0"
	.section	.note.GNU-stack,"",@progbits
	.section	.note.gnu.property,"a"
	.align 8
	.long	1f - 0f
	.long	4f - 1f
	.long	5
0:
	.string	"GNU"
1:
	.align 8
	.long	0xc0000002
	.long	3f - 2f
2:
	.long	0x3
3:
	.align 8
4:
