	.file	"ok999p_C-Programming_a_opaque.c"
	.text
	.globl	_TIG_iO_r7vn_1___uint64_identity_1_opaque_list_1
	.bss
	.align 8
	.type	_TIG_iO_r7vn_1___uint64_identity_1_opaque_list_1, @object
	.size	_TIG_iO_r7vn_1___uint64_identity_1_opaque_list_1, 8
_TIG_iO_r7vn_1___uint64_identity_1_opaque_list_1:
	.zero	8
	.globl	_TIG_iO_r7vn_1_isEmpty_1_opaque_ptr_1
	.align 8
	.type	_TIG_iO_r7vn_1_isEmpty_1_opaque_ptr_1, @object
	.size	_TIG_iO_r7vn_1_isEmpty_1_opaque_ptr_1, 8
_TIG_iO_r7vn_1_isEmpty_1_opaque_ptr_1:
	.zero	8
	.globl	_TIG_iO_r7vn_1_pop_1_opaque_list_1
	.align 8
	.type	_TIG_iO_r7vn_1_pop_1_opaque_list_1, @object
	.size	_TIG_iO_r7vn_1_pop_1_opaque_list_1, 8
_TIG_iO_r7vn_1_pop_1_opaque_list_1:
	.zero	8
	.globl	_TIG_iO_r7vn_1_pop_1_opaque_list_2
	.align 8
	.type	_TIG_iO_r7vn_1_pop_1_opaque_list_2, @object
	.size	_TIG_iO_r7vn_1_pop_1_opaque_list_2, 8
_TIG_iO_r7vn_1_pop_1_opaque_list_2:
	.zero	8
	.globl	_TIG_iO_r7vn_1___uint64_identity_1_opaque_list_2
	.align 8
	.type	_TIG_iO_r7vn_1___uint64_identity_1_opaque_list_2, @object
	.size	_TIG_iO_r7vn_1___uint64_identity_1_opaque_list_2, 8
_TIG_iO_r7vn_1___uint64_identity_1_opaque_list_2:
	.zero	8
	.globl	_TIG_iO_r7vn_1___bswap_16_1_opaque_ptr_2
	.align 8
	.type	_TIG_iO_r7vn_1___bswap_16_1_opaque_ptr_2, @object
	.size	_TIG_iO_r7vn_1___bswap_16_1_opaque_ptr_2, 8
_TIG_iO_r7vn_1___bswap_16_1_opaque_ptr_2:
	.zero	8
	.globl	_TIG_iO_r7vn_1___uint16_identity_1_opaque_ptr_2
	.align 8
	.type	_TIG_iO_r7vn_1___uint16_identity_1_opaque_ptr_2, @object
	.size	_TIG_iO_r7vn_1___uint16_identity_1_opaque_ptr_2, 8
_TIG_iO_r7vn_1___uint16_identity_1_opaque_ptr_2:
	.zero	8
	.globl	_TIG_iO_r7vn_1___uint16_identity_1_opaque_ptr_1
	.align 8
	.type	_TIG_iO_r7vn_1___uint16_identity_1_opaque_ptr_1, @object
	.size	_TIG_iO_r7vn_1___uint16_identity_1_opaque_ptr_1, 8
_TIG_iO_r7vn_1___uint16_identity_1_opaque_ptr_1:
	.zero	8
	.globl	_TIG_iO_r7vn_1_main_1_opaque_ptr_2
	.align 8
	.type	_TIG_iO_r7vn_1_main_1_opaque_ptr_2, @object
	.size	_TIG_iO_r7vn_1_main_1_opaque_ptr_2, 8
_TIG_iO_r7vn_1_main_1_opaque_ptr_2:
	.zero	8
	.globl	_TIG_iO_r7vn_1_peek_1_opaque_ptr_2
	.align 8
	.type	_TIG_iO_r7vn_1_peek_1_opaque_ptr_2, @object
	.size	_TIG_iO_r7vn_1_peek_1_opaque_ptr_2, 8
_TIG_iO_r7vn_1_peek_1_opaque_ptr_2:
	.zero	8
	.globl	_TIG_iO_r7vn_1_create_1_opaque_ptr_2
	.align 8
	.type	_TIG_iO_r7vn_1_create_1_opaque_ptr_2, @object
	.size	_TIG_iO_r7vn_1_create_1_opaque_ptr_2, 8
_TIG_iO_r7vn_1_create_1_opaque_ptr_2:
	.zero	8
	.globl	_TIG_iO_r7vn_1___uint32_identity_1_opaque_ptr_2
	.align 8
	.type	_TIG_iO_r7vn_1___uint32_identity_1_opaque_ptr_2, @object
	.size	_TIG_iO_r7vn_1___uint32_identity_1_opaque_ptr_2, 8
_TIG_iO_r7vn_1___uint32_identity_1_opaque_ptr_2:
	.zero	8
	.globl	_TIG_iO_r7vn_1_peek_1_opaque_list_2
	.align 8
	.type	_TIG_iO_r7vn_1_peek_1_opaque_list_2, @object
	.size	_TIG_iO_r7vn_1_peek_1_opaque_list_2, 8
_TIG_iO_r7vn_1_peek_1_opaque_list_2:
	.zero	8
	.globl	_TIG_IZ_r7vn_envp
	.align 8
	.type	_TIG_IZ_r7vn_envp, @object
	.size	_TIG_IZ_r7vn_envp, 8
_TIG_IZ_r7vn_envp:
	.zero	8
	.globl	_TIG_iO_r7vn_1___uint32_identity_1_opaque_ptr_1
	.align 8
	.type	_TIG_iO_r7vn_1___uint32_identity_1_opaque_ptr_1, @object
	.size	_TIG_iO_r7vn_1___uint32_identity_1_opaque_ptr_1, 8
_TIG_iO_r7vn_1___uint32_identity_1_opaque_ptr_1:
	.zero	8
	.globl	_TIG_iO_r7vn_1___uint64_identity_1_opaque_ptr_1
	.align 8
	.type	_TIG_iO_r7vn_1___uint64_identity_1_opaque_ptr_1, @object
	.size	_TIG_iO_r7vn_1___uint64_identity_1_opaque_ptr_1, 8
_TIG_iO_r7vn_1___uint64_identity_1_opaque_ptr_1:
	.zero	8
	.globl	_TIG_iO_r7vn_1_peek_1_opaque_list_1
	.align 8
	.type	_TIG_iO_r7vn_1_peek_1_opaque_list_1, @object
	.size	_TIG_iO_r7vn_1_peek_1_opaque_list_1, 8
_TIG_iO_r7vn_1_peek_1_opaque_list_1:
	.zero	8
	.globl	_TIG_iO_r7vn_1___bswap_64_1_opaque_list_1
	.align 8
	.type	_TIG_iO_r7vn_1___bswap_64_1_opaque_list_1, @object
	.size	_TIG_iO_r7vn_1___bswap_64_1_opaque_list_1, 8
_TIG_iO_r7vn_1___bswap_64_1_opaque_list_1:
	.zero	8
	.globl	_TIG_iO_r7vn_1_create_1_opaque_list_1
	.align 8
	.type	_TIG_iO_r7vn_1_create_1_opaque_list_1, @object
	.size	_TIG_iO_r7vn_1_create_1_opaque_list_1, 8
_TIG_iO_r7vn_1_create_1_opaque_list_1:
	.zero	8
	.globl	_TIG_iO_r7vn_1_push_1_opaque_list_1
	.align 8
	.type	_TIG_iO_r7vn_1_push_1_opaque_list_1, @object
	.size	_TIG_iO_r7vn_1_push_1_opaque_list_1, 8
_TIG_iO_r7vn_1_push_1_opaque_list_1:
	.zero	8
	.globl	_TIG_iO_r7vn_1_isEmpty_1_opaque_list_2
	.align 8
	.type	_TIG_iO_r7vn_1_isEmpty_1_opaque_list_2, @object
	.size	_TIG_iO_r7vn_1_isEmpty_1_opaque_list_2, 8
_TIG_iO_r7vn_1_isEmpty_1_opaque_list_2:
	.zero	8
	.globl	_TIG_iO_r7vn_1___uint32_identity_1_opaque_list_1
	.align 8
	.type	_TIG_iO_r7vn_1___uint32_identity_1_opaque_list_1, @object
	.size	_TIG_iO_r7vn_1___uint32_identity_1_opaque_list_1, 8
_TIG_iO_r7vn_1___uint32_identity_1_opaque_list_1:
	.zero	8
	.globl	_TIG_iO_r7vn_1___bswap_64_1_opaque_ptr_2
	.align 8
	.type	_TIG_iO_r7vn_1___bswap_64_1_opaque_ptr_2, @object
	.size	_TIG_iO_r7vn_1___bswap_64_1_opaque_ptr_2, 8
_TIG_iO_r7vn_1___bswap_64_1_opaque_ptr_2:
	.zero	8
	.globl	_TIG_iO_r7vn_1_push_1_opaque_list_2
	.align 8
	.type	_TIG_iO_r7vn_1_push_1_opaque_list_2, @object
	.size	_TIG_iO_r7vn_1_push_1_opaque_list_2, 8
_TIG_iO_r7vn_1_push_1_opaque_list_2:
	.zero	8
	.globl	_TIG_iO_r7vn_1___bswap_32_1_opaque_list_2
	.align 8
	.type	_TIG_iO_r7vn_1___bswap_32_1_opaque_list_2, @object
	.size	_TIG_iO_r7vn_1___bswap_32_1_opaque_list_2, 8
_TIG_iO_r7vn_1___bswap_32_1_opaque_list_2:
	.zero	8
	.globl	_TIG_iO_r7vn_1___bswap_16_1_opaque_list_2
	.align 8
	.type	_TIG_iO_r7vn_1___bswap_16_1_opaque_list_2, @object
	.size	_TIG_iO_r7vn_1___bswap_16_1_opaque_list_2, 8
_TIG_iO_r7vn_1___bswap_16_1_opaque_list_2:
	.zero	8
	.globl	_TIG_iO_r7vn_1___bswap_32_1_opaque_list_1
	.align 8
	.type	_TIG_iO_r7vn_1___bswap_32_1_opaque_list_1, @object
	.size	_TIG_iO_r7vn_1___bswap_32_1_opaque_list_1, 8
_TIG_iO_r7vn_1___bswap_32_1_opaque_list_1:
	.zero	8
	.globl	_TIG_iO_r7vn_1___bswap_16_1_opaque_list_1
	.align 8
	.type	_TIG_iO_r7vn_1___bswap_16_1_opaque_list_1, @object
	.size	_TIG_iO_r7vn_1___bswap_16_1_opaque_list_1, 8
_TIG_iO_r7vn_1___bswap_16_1_opaque_list_1:
	.zero	8
	.globl	_TIG_iO_r7vn_1___uint16_identity_1_opaque_list_1
	.align 8
	.type	_TIG_iO_r7vn_1___uint16_identity_1_opaque_list_1, @object
	.size	_TIG_iO_r7vn_1___uint16_identity_1_opaque_list_1, 8
_TIG_iO_r7vn_1___uint16_identity_1_opaque_list_1:
	.zero	8
	.globl	_TIG_iO_r7vn_1___uint64_identity_1_opaque_ptr_2
	.align 8
	.type	_TIG_iO_r7vn_1___uint64_identity_1_opaque_ptr_2, @object
	.size	_TIG_iO_r7vn_1___uint64_identity_1_opaque_ptr_2, 8
_TIG_iO_r7vn_1___uint64_identity_1_opaque_ptr_2:
	.zero	8
	.globl	_TIG_iO_r7vn_1_isEmpty_1_opaque_list_1
	.align 8
	.type	_TIG_iO_r7vn_1_isEmpty_1_opaque_list_1, @object
	.size	_TIG_iO_r7vn_1_isEmpty_1_opaque_list_1, 8
_TIG_iO_r7vn_1_isEmpty_1_opaque_list_1:
	.zero	8
	.globl	_TIG_iO_r7vn_1_push_1_opaque_ptr_2
	.align 8
	.type	_TIG_iO_r7vn_1_push_1_opaque_ptr_2, @object
	.size	_TIG_iO_r7vn_1_push_1_opaque_ptr_2, 8
_TIG_iO_r7vn_1_push_1_opaque_ptr_2:
	.zero	8
	.globl	temp
	.align 8
	.type	temp, @object
	.size	temp, 8
temp:
	.zero	8
	.globl	_TIG_iO_r7vn_1___bswap_32_1_opaque_ptr_1
	.align 8
	.type	_TIG_iO_r7vn_1___bswap_32_1_opaque_ptr_1, @object
	.size	_TIG_iO_r7vn_1___bswap_32_1_opaque_ptr_1, 8
_TIG_iO_r7vn_1___bswap_32_1_opaque_ptr_1:
	.zero	8
	.globl	capacity
	.align 4
	.type	capacity, @object
	.size	capacity, 4
capacity:
	.zero	4
	.globl	_TIG_iO_r7vn_1___bswap_64_1_opaque_list_2
	.align 8
	.type	_TIG_iO_r7vn_1___bswap_64_1_opaque_list_2, @object
	.size	_TIG_iO_r7vn_1___bswap_64_1_opaque_list_2, 8
_TIG_iO_r7vn_1___bswap_64_1_opaque_list_2:
	.zero	8
	.globl	_TIG_iO_r7vn_1_pop_1_opaque_ptr_2
	.align 8
	.type	_TIG_iO_r7vn_1_pop_1_opaque_ptr_2, @object
	.size	_TIG_iO_r7vn_1_pop_1_opaque_ptr_2, 8
_TIG_iO_r7vn_1_pop_1_opaque_ptr_2:
	.zero	8
	.globl	_TIG_iO_r7vn_1___bswap_16_1_opaque_ptr_1
	.align 8
	.type	_TIG_iO_r7vn_1___bswap_16_1_opaque_ptr_1, @object
	.size	_TIG_iO_r7vn_1___bswap_16_1_opaque_ptr_1, 8
_TIG_iO_r7vn_1___bswap_16_1_opaque_ptr_1:
	.zero	8
	.globl	_TIG_iO_r7vn_1_pop_1_opaque_ptr_1
	.align 8
	.type	_TIG_iO_r7vn_1_pop_1_opaque_ptr_1, @object
	.size	_TIG_iO_r7vn_1_pop_1_opaque_ptr_1, 8
_TIG_iO_r7vn_1_pop_1_opaque_ptr_1:
	.zero	8
	.globl	_TIG_iO_r7vn_1___bswap_64_1_opaque_ptr_1
	.align 8
	.type	_TIG_iO_r7vn_1___bswap_64_1_opaque_ptr_1, @object
	.size	_TIG_iO_r7vn_1___bswap_64_1_opaque_ptr_1, 8
_TIG_iO_r7vn_1___bswap_64_1_opaque_ptr_1:
	.zero	8
	.globl	head
	.align 8
	.type	head, @object
	.size	head, 8
head:
	.zero	8
	.globl	_TIG_iO_r7vn_1___uint16_identity_1_opaque_list_2
	.align 8
	.type	_TIG_iO_r7vn_1___uint16_identity_1_opaque_list_2, @object
	.size	_TIG_iO_r7vn_1___uint16_identity_1_opaque_list_2, 8
_TIG_iO_r7vn_1___uint16_identity_1_opaque_list_2:
	.zero	8
	.globl	_TIG_iO_r7vn_1_peek_1_opaque_ptr_1
	.align 8
	.type	_TIG_iO_r7vn_1_peek_1_opaque_ptr_1, @object
	.size	_TIG_iO_r7vn_1_peek_1_opaque_ptr_1, 8
_TIG_iO_r7vn_1_peek_1_opaque_ptr_1:
	.zero	8
	.globl	_TIG_iO_r7vn_1_main_1_opaque_ptr_1
	.align 8
	.type	_TIG_iO_r7vn_1_main_1_opaque_ptr_1, @object
	.size	_TIG_iO_r7vn_1_main_1_opaque_ptr_1, 8
_TIG_iO_r7vn_1_main_1_opaque_ptr_1:
	.zero	8
	.globl	_TIG_iO_r7vn_1_push_1_opaque_ptr_1
	.align 8
	.type	_TIG_iO_r7vn_1_push_1_opaque_ptr_1, @object
	.size	_TIG_iO_r7vn_1_push_1_opaque_ptr_1, 8
_TIG_iO_r7vn_1_push_1_opaque_ptr_1:
	.zero	8
	.globl	_TIG_iO_r7vn_1_main_1_opaque_list_1
	.align 8
	.type	_TIG_iO_r7vn_1_main_1_opaque_list_1, @object
	.size	_TIG_iO_r7vn_1_main_1_opaque_list_1, 8
_TIG_iO_r7vn_1_main_1_opaque_list_1:
	.zero	8
	.globl	_TIG_iO_r7vn_1_main_1_opaque_list_2
	.align 8
	.type	_TIG_iO_r7vn_1_main_1_opaque_list_2, @object
	.size	_TIG_iO_r7vn_1_main_1_opaque_list_2, 8
_TIG_iO_r7vn_1_main_1_opaque_list_2:
	.zero	8
	.globl	new
	.align 8
	.type	new, @object
	.size	new, 8
new:
	.zero	8
	.globl	_TIG_IZ_r7vn_argv
	.align 8
	.type	_TIG_IZ_r7vn_argv, @object
	.size	_TIG_IZ_r7vn_argv, 8
_TIG_IZ_r7vn_argv:
	.zero	8
	.globl	_TIG_iO_r7vn_1___bswap_32_1_opaque_ptr_2
	.align 8
	.type	_TIG_iO_r7vn_1___bswap_32_1_opaque_ptr_2, @object
	.size	_TIG_iO_r7vn_1___bswap_32_1_opaque_ptr_2, 8
_TIG_iO_r7vn_1___bswap_32_1_opaque_ptr_2:
	.zero	8
	.globl	_TIG_iO_r7vn_1_create_1_opaque_list_2
	.align 8
	.type	_TIG_iO_r7vn_1_create_1_opaque_list_2, @object
	.size	_TIG_iO_r7vn_1_create_1_opaque_list_2, 8
_TIG_iO_r7vn_1_create_1_opaque_list_2:
	.zero	8
	.globl	_TIG_IZ_r7vn_argc
	.align 4
	.type	_TIG_IZ_r7vn_argc, @object
	.size	_TIG_IZ_r7vn_argc, 4
_TIG_IZ_r7vn_argc:
	.zero	4
	.globl	_TIG_iO_r7vn_1_create_1_opaque_ptr_1
	.align 8
	.type	_TIG_iO_r7vn_1_create_1_opaque_ptr_1, @object
	.size	_TIG_iO_r7vn_1_create_1_opaque_ptr_1, 8
_TIG_iO_r7vn_1_create_1_opaque_ptr_1:
	.zero	8
	.globl	_TIG_iO_r7vn_1_isEmpty_1_opaque_ptr_2
	.align 8
	.type	_TIG_iO_r7vn_1_isEmpty_1_opaque_ptr_2, @object
	.size	_TIG_iO_r7vn_1_isEmpty_1_opaque_ptr_2, 8
_TIG_iO_r7vn_1_isEmpty_1_opaque_ptr_2:
	.zero	8
	.globl	size
	.align 4
	.type	size, @object
	.size	size, 4
size:
	.zero	4
	.globl	_TIG_iO_r7vn_1___uint32_identity_1_opaque_list_2
	.align 8
	.type	_TIG_iO_r7vn_1___uint32_identity_1_opaque_list_2, @object
	.size	_TIG_iO_r7vn_1___uint32_identity_1_opaque_list_2, 8
_TIG_iO_r7vn_1___uint32_identity_1_opaque_list_2:
	.zero	8
	.section	.rodata
.LC0:
	.string	"Data: "
.LC1:
	.string	"%d"
	.text
	.globl	push
	.type	push, @function
push:
.LFB2:
	.cfi_startproc
	endbr64
	pushq	%rbp
	.cfi_def_cfa_offset 16
	.cfi_offset 6, -16
	movq	%rsp, %rbp
	.cfi_def_cfa_register 6
	subq	$64, %rsp
	movq	%fs:40, %rax
	movq	%rax, -8(%rbp)
	xorl	%eax, %eax
#APP
# 70 "/usr/include/x86_64-linux-gnu/bits/uintn-identity.h" 1
	##_ANNOTATION_INITIALREGION_-TIG-iO-r7vn-1-push--24
# 0 "" 2
# 74 "/usr/include/x86_64-linux-gnu/bits/uintn-identity.h" 1
	##_ANNOTATION_ATOMICREGION_-TIG-iO-r7vn-1-push--23
# 0 "" 2
#NO_APP
	movl	$24, %edi
	call	malloc@PLT
	movq	%rax, -40(%rbp)
	movq	-40(%rbp), %rax
	movq	-40(%rbp), %rdx
	movq	%rdx, (%rax)
	movq	-40(%rbp), %rax
	movq	-40(%rbp), %rdx
	movq	%rdx, 8(%rax)
	movq	-40(%rbp), %rax
	movq	%rax, _TIG_iO_r7vn_1_push_1_opaque_list_1(%rip)
	call	rand@PLT
	movl	%eax, -52(%rbp)
	movl	$24, %edi
	call	malloc@PLT
	movq	%rax, -32(%rbp)
	movq	-32(%rbp), %rax
	movl	$0, 16(%rax)
	movq	_TIG_iO_r7vn_1_push_1_opaque_list_1(%rip), %rax
	movq	(%rax), %rdx
	movq	-32(%rbp), %rax
	movq	%rdx, (%rax)
	movq	_TIG_iO_r7vn_1_push_1_opaque_list_1(%rip), %rdx
	movq	-32(%rbp), %rax
	movq	%rdx, 8(%rax)
	movq	_TIG_iO_r7vn_1_push_1_opaque_list_1(%rip), %rax
	movq	(%rax), %rax
	movq	-32(%rbp), %rdx
	movq	%rdx, 8(%rax)
	movq	_TIG_iO_r7vn_1_push_1_opaque_list_1(%rip), %rax
	movq	-32(%rbp), %rdx
	movq	%rdx, (%rax)
	call	rand@PLT
	movl	%eax, -48(%rbp)
	movl	$24, %edi
	call	malloc@PLT
	movq	%rax, -24(%rbp)
	movq	-24(%rbp), %rax
	movl	-48(%rbp), %edx
	movl	%edx, 16(%rax)
	movq	_TIG_iO_r7vn_1_push_1_opaque_list_1(%rip), %rax
	movq	(%rax), %rdx
	movq	-24(%rbp), %rax
	movq	%rdx, (%rax)
	movq	_TIG_iO_r7vn_1_push_1_opaque_list_1(%rip), %rdx
	movq	-24(%rbp), %rax
	movq	%rdx, 8(%rax)
	movq	_TIG_iO_r7vn_1_push_1_opaque_list_1(%rip), %rax
	movq	(%rax), %rax
	movq	-24(%rbp), %rdx
	movq	%rdx, 8(%rax)
	movq	_TIG_iO_r7vn_1_push_1_opaque_list_1(%rip), %rax
	movq	-24(%rbp), %rdx
	movq	%rdx, (%rax)
	call	rand@PLT
	movl	%eax, -44(%rbp)
	movl	$24, %edi
	call	malloc@PLT
	movq	%rax, -16(%rbp)
	movl	-44(%rbp), %eax
	leal	(%rax,%rax), %edx
	movq	-16(%rbp), %rax
	movl	%edx, 16(%rax)
	movq	_TIG_iO_r7vn_1_push_1_opaque_list_1(%rip), %rax
	movq	(%rax), %rdx
	movq	-16(%rbp), %rax
	movq	%rdx, (%rax)
	movq	_TIG_iO_r7vn_1_push_1_opaque_list_1(%rip), %rdx
	movq	-16(%rbp), %rax
	movq	%rdx, 8(%rax)
	movq	_TIG_iO_r7vn_1_push_1_opaque_list_1(%rip), %rax
	movq	(%rax), %rax
	movq	-16(%rbp), %rdx
	movq	%rdx, 8(%rax)
	movq	_TIG_iO_r7vn_1_push_1_opaque_list_1(%rip), %rax
	movq	-16(%rbp), %rdx
	movq	%rdx, (%rax)
	movq	_TIG_iO_r7vn_1_push_1_opaque_list_1(%rip), %rax
	movq	(%rax), %rax
	movq	%rax, _TIG_iO_r7vn_1_push_1_opaque_ptr_1(%rip)
	movq	_TIG_iO_r7vn_1_push_1_opaque_ptr_1(%rip), %rax
	movq	%rax, _TIG_iO_r7vn_1_push_1_opaque_ptr_2(%rip)
	movq	_TIG_iO_r7vn_1_push_1_opaque_ptr_2(%rip), %rax
	movq	(%rax), %rax
	movq	%rax, _TIG_iO_r7vn_1_push_1_opaque_ptr_2(%rip)
	nop
	nop
	movq	_TIG_iO_r7vn_1_push_1_opaque_ptr_1(%rip), %rdx
	movq	_TIG_iO_r7vn_1_push_1_opaque_ptr_2(%rip), %rax
	cmpq	%rax, %rdx
	je	.L2
	movl	capacity(%rip), %eax
	movl	size(%rip), %edx
	cmpl	%edx, %eax
	je	.L6
	leaq	.LC0(%rip), %rax
	movq	%rax, %rdi
	movl	$0, %eax
	call	printf@PLT
	leaq	-56(%rbp), %rax
	movq	%rax, %rsi
	leaq	.LC1(%rip), %rax
	movq	%rax, %rdi
	movl	$0, %eax
	call	__isoc99_scanf@PLT
	movl	-56(%rbp), %eax
	movl	%eax, %edi
	call	create
	movl	size(%rip), %eax
	addl	$1, %eax
	movl	%eax, size(%rip)
	jmp	.L6
.L2:
	movl	capacity(%rip), %eax
	movl	size(%rip), %edx
	cmpl	%edx, %eax
	setne	%al
	movzbl	%al, %eax
	cmpl	%eax, -44(%rbp)
	je	.L6
	leaq	-1+.LC0(%rip), %rax
	movq	%rax, %rdi
	movl	$0, %eax
	call	printf@PLT
	leaq	-56(%rbp), %rax
	addq	$4, %rax
	leaq	1+.LC1(%rip), %rdx
	movq	%rax, %rsi
	movq	%rdx, %rdi
	movl	$0, %eax
	call	__isoc99_scanf@PLT
	movl	-56(%rbp), %eax
	cltd
	idivl	-44(%rbp)
	movl	%eax, %edi
	call	create
	movl	-52(%rbp), %eax
	movl	%eax, size(%rip)
	nop
.L6:
	nop
	movq	-8(%rbp), %rax
	subq	%fs:40, %rax
	je	.L5
	call	__stack_chk_fail@PLT
.L5:
	leave
	.cfi_def_cfa 7, 8
	ret
	.cfi_endproc
.LFE2:
	.size	push, .-push
	.globl	pop
	.type	pop, @function
pop:
.LFB3:
	.cfi_startproc
	endbr64
	pushq	%rbp
	.cfi_def_cfa_offset 16
	.cfi_offset 6, -16
	movq	%rsp, %rbp
	.cfi_def_cfa_register 6
	subq	$48, %rsp
#APP
# 52 "ok999p_C-Programming_a.c" 1
	##_ANNOTATION_INITIALREGION_-TIG-iO-r7vn-1-pop--22
# 0 "" 2
# 56 "ok999p_C-Programming_a.c" 1
	##_ANNOTATION_ATOMICREGION_-TIG-iO-r7vn-1-pop--21
# 0 "" 2
#NO_APP
	movl	$24, %edi
	call	malloc@PLT
	movq	%rax, -32(%rbp)
	movq	-32(%rbp), %rax
	movq	-32(%rbp), %rdx
	movq	%rdx, (%rax)
	movq	-32(%rbp), %rax
	movq	-32(%rbp), %rdx
	movq	%rdx, 16(%rax)
	movq	-32(%rbp), %rax
	movq	%rax, _TIG_iO_r7vn_1_pop_1_opaque_list_1(%rip)
	call	rand@PLT
	movl	%eax, -44(%rbp)
	movl	$24, %edi
	call	malloc@PLT
	movq	%rax, -24(%rbp)
	movq	-24(%rbp), %rax
	movl	$0, 8(%rax)
	movq	_TIG_iO_r7vn_1_pop_1_opaque_list_1(%rip), %rax
	movq	(%rax), %rdx
	movq	-24(%rbp), %rax
	movq	%rdx, (%rax)
	movq	_TIG_iO_r7vn_1_pop_1_opaque_list_1(%rip), %rdx
	movq	-24(%rbp), %rax
	movq	%rdx, 16(%rax)
	movq	_TIG_iO_r7vn_1_pop_1_opaque_list_1(%rip), %rax
	movq	(%rax), %rax
	movq	-24(%rbp), %rdx
	movq	%rdx, 16(%rax)
	movq	_TIG_iO_r7vn_1_pop_1_opaque_list_1(%rip), %rax
	movq	-24(%rbp), %rdx
	movq	%rdx, (%rax)
	call	rand@PLT
	movl	%eax, -40(%rbp)
	movl	$24, %edi
	call	malloc@PLT
	movq	%rax, -16(%rbp)
	movq	-16(%rbp), %rax
	movl	-40(%rbp), %edx
	movl	%edx, 8(%rax)
	movq	_TIG_iO_r7vn_1_pop_1_opaque_list_1(%rip), %rax
	movq	(%rax), %rdx
	movq	-16(%rbp), %rax
	movq	%rdx, (%rax)
	movq	_TIG_iO_r7vn_1_pop_1_opaque_list_1(%rip), %rdx
	movq	-16(%rbp), %rax
	movq	%rdx, 16(%rax)
	movq	_TIG_iO_r7vn_1_pop_1_opaque_list_1(%rip), %rax
	movq	(%rax), %rax
	movq	-16(%rbp), %rdx
	movq	%rdx, 16(%rax)
	movq	_TIG_iO_r7vn_1_pop_1_opaque_list_1(%rip), %rax
	movq	-16(%rbp), %rdx
	movq	%rdx, (%rax)
	call	rand@PLT
	movl	%eax, -36(%rbp)
	movl	$24, %edi
	call	malloc@PLT
	movq	%rax, -8(%rbp)
	movl	-36(%rbp), %eax
	leal	(%rax,%rax), %edx
	movq	-8(%rbp), %rax
	movl	%edx, 8(%rax)
	movq	_TIG_iO_r7vn_1_pop_1_opaque_list_1(%rip), %rax
	movq	(%rax), %rdx
	movq	-8(%rbp), %rax
	movq	%rdx, (%rax)
	movq	_TIG_iO_r7vn_1_pop_1_opaque_list_1(%rip), %rdx
	movq	-8(%rbp), %rax
	movq	%rdx, 16(%rax)
	movq	_TIG_iO_r7vn_1_pop_1_opaque_list_1(%rip), %rax
	movq	(%rax), %rax
	movq	-8(%rbp), %rdx
	movq	%rdx, 16(%rax)
	movq	_TIG_iO_r7vn_1_pop_1_opaque_list_1(%rip), %rax
	movq	-8(%rbp), %rdx
	movq	%rdx, (%rax)
	movq	_TIG_iO_r7vn_1_pop_1_opaque_list_1(%rip), %rax
	movq	(%rax), %rax
	movq	%rax, _TIG_iO_r7vn_1_pop_1_opaque_ptr_1(%rip)
	movq	_TIG_iO_r7vn_1_pop_1_opaque_ptr_1(%rip), %rax
	movq	%rax, _TIG_iO_r7vn_1_pop_1_opaque_ptr_2(%rip)
	movq	_TIG_iO_r7vn_1_pop_1_opaque_ptr_2(%rip), %rax
	movq	(%rax), %rax
	movq	%rax, _TIG_iO_r7vn_1_pop_1_opaque_ptr_2(%rip)
	nop
	nop
	movq	_TIG_iO_r7vn_1_push_1_opaque_ptr_1(%rip), %rdx
	movq	_TIG_iO_r7vn_1_push_1_opaque_ptr_2(%rip), %rax
	cmpq	%rax, %rdx
	nop
	leave
	.cfi_def_cfa 7, 8
	ret
	.cfi_endproc
.LFE3:
	.size	pop, .-pop
	.globl	isEmpty
	.type	isEmpty, @function
isEmpty:
.LFB4:
	.cfi_startproc
	endbr64
	pushq	%rbp
	.cfi_def_cfa_offset 16
	.cfi_offset 6, -16
	movq	%rsp, %rbp
	.cfi_def_cfa_register 6
	subq	$32, %rsp
#APP
# 56 "ok999p_C-Programming_a.c" 1
	##_ANNOTATION_INITIALREGION_-TIG-iO-r7vn-1-isEmpty--16
# 0 "" 2
# 60 "ok999p_C-Programming_a.c" 1
	##_ANNOTATION_ATOMICREGION_-TIG-iO-r7vn-1-isEmpty--15
# 0 "" 2
#NO_APP
	movl	$24, %edi
	call	malloc@PLT
	movq	%rax, -24(%rbp)
	movq	-24(%rbp), %rax
	movq	-24(%rbp), %rdx
	movq	%rdx, 16(%rax)
	movq	-24(%rbp), %rax
	movq	-24(%rbp), %rdx
	movq	%rdx, 8(%rax)
	movq	-24(%rbp), %rax
	movq	%rax, _TIG_iO_r7vn_1_isEmpty_1_opaque_list_1(%rip)
	call	rand@PLT
	movl	%eax, -32(%rbp)
	movl	$24, %edi
	call	malloc@PLT
	movq	%rax, -16(%rbp)
	movq	-16(%rbp), %rax
	movl	$0, (%rax)
	movq	_TIG_iO_r7vn_1_isEmpty_1_opaque_list_1(%rip), %rax
	movq	16(%rax), %rdx
	movq	-16(%rbp), %rax
	movq	%rdx, 16(%rax)
	movq	_TIG_iO_r7vn_1_isEmpty_1_opaque_list_1(%rip), %rdx
	movq	-16(%rbp), %rax
	movq	%rdx, 8(%rax)
	movq	_TIG_iO_r7vn_1_isEmpty_1_opaque_list_1(%rip), %rax
	movq	16(%rax), %rax
	movq	-16(%rbp), %rdx
	movq	%rdx, 8(%rax)
	movq	_TIG_iO_r7vn_1_isEmpty_1_opaque_list_1(%rip), %rax
	movq	-16(%rbp), %rdx
	movq	%rdx, 16(%rax)
	call	rand@PLT
	movl	%eax, -28(%rbp)
	movl	$24, %edi
	call	malloc@PLT
	movq	%rax, -8(%rbp)
	movq	-8(%rbp), %rax
	movl	-28(%rbp), %edx
	movl	%edx, (%rax)
	movq	_TIG_iO_r7vn_1_isEmpty_1_opaque_list_1(%rip), %rax
	movq	16(%rax), %rdx
	movq	-8(%rbp), %rax
	movq	%rdx, 16(%rax)
	movq	_TIG_iO_r7vn_1_isEmpty_1_opaque_list_1(%rip), %rdx
	movq	-8(%rbp), %rax
	movq	%rdx, 8(%rax)
	movq	_TIG_iO_r7vn_1_isEmpty_1_opaque_list_1(%rip), %rax
	movq	16(%rax), %rax
	movq	-8(%rbp), %rdx
	movq	%rdx, 8(%rax)
	movq	_TIG_iO_r7vn_1_isEmpty_1_opaque_list_1(%rip), %rax
	movq	-8(%rbp), %rdx
	movq	%rdx, 16(%rax)
	movq	_TIG_iO_r7vn_1_isEmpty_1_opaque_list_1(%rip), %rax
	movq	16(%rax), %rax
	movq	%rax, _TIG_iO_r7vn_1_isEmpty_1_opaque_ptr_1(%rip)
	movq	_TIG_iO_r7vn_1_isEmpty_1_opaque_ptr_1(%rip), %rax
	movq	%rax, _TIG_iO_r7vn_1_isEmpty_1_opaque_ptr_2(%rip)
	nop
	nop
	movq	_TIG_iO_r7vn_1_push_1_opaque_ptr_1(%rip), %rdx
	movq	_TIG_iO_r7vn_1_push_1_opaque_ptr_2(%rip), %rax
	cmpq	%rax, %rdx
	je	.L11
	movl	$0, %eax
	jmp	.L10
.L11:
#APP
# 49 "ok999p_C-Programming_a.c" 1
	.byte 0xbd,0x21,0xdf,0xb5,0x94,0x8,0x6d
# 0 "" 2
#NO_APP
.L10:
	leave
	.cfi_def_cfa 7, 8
	ret
	.cfi_endproc
.LFE4:
	.size	isEmpty, .-isEmpty
	.section	.rodata
.LC2:
	.string	"Enter capacity: "
	.text
	.globl	main
	.type	main, @function
main:
.LFB6:
	.cfi_startproc
	endbr64
	pushq	%rbp
	.cfi_def_cfa_offset 16
	.cfi_offset 6, -16
	movq	%rsp, %rbp
	.cfi_def_cfa_register 6
	subq	$96, %rsp
	movl	%edi, -68(%rbp)
	movq	%rsi, -80(%rbp)
	movq	%rdx, -88(%rbp)
	movq	%fs:40, %rax
	movq	%rax, -8(%rbp)
	xorl	%eax, %eax
	movl	$0, size(%rip)
	nop
.L14:
	movl	$0, capacity(%rip)
	nop
.L15:
	movq	$0, temp(%rip)
	nop
.L16:
	movq	$0, head(%rip)
	nop
.L17:
	movq	$0, new(%rip)
	nop
.L18:
	movq	$0, _TIG_IZ_r7vn_envp(%rip)
	nop
.L19:
	movq	$0, _TIG_IZ_r7vn_argv(%rip)
	nop
.L20:
	movl	$0, _TIG_IZ_r7vn_argc(%rip)
	nop
	nop
.L21:
.L22:
#APP
# 118 "/usr/include/x86_64-linux-gnu/bits/byteswap.h" 1
	##_ANNOTATION_INITIALREGION_-TIG-IZ-r7vn--0
# 0 "" 2
#NO_APP
	movl	-68(%rbp), %eax
	movl	%eax, _TIG_IZ_r7vn_argc(%rip)
	movq	-80(%rbp), %rax
	movq	%rax, _TIG_IZ_r7vn_argv(%rip)
	movq	-88(%rbp), %rax
	movq	%rax, _TIG_IZ_r7vn_envp(%rip)
#APP
# 125 "/usr/include/x86_64-linux-gnu/bits/byteswap.h" 1
	##_ANNOTATION_ATOMICREGION_-TIG-iO-r7vn-1-main--17
# 0 "" 2
#NO_APP
	movl	$24, %edi
	call	malloc@PLT
	movq	%rax, -32(%rbp)
	movq	-32(%rbp), %rax
	movq	-32(%rbp), %rdx
	movq	%rdx, 8(%rax)
	movq	-32(%rbp), %rax
	movq	-32(%rbp), %rdx
	movq	%rdx, (%rax)
	movq	-32(%rbp), %rax
	movq	%rax, _TIG_iO_r7vn_1_main_1_opaque_list_1(%rip)
	call	rand@PLT
	movl	%eax, -44(%rbp)
	movl	$24, %edi
	call	malloc@PLT
	movq	%rax, -24(%rbp)
	movq	-24(%rbp), %rax
	movl	$0, 16(%rax)
	movq	_TIG_iO_r7vn_1_main_1_opaque_list_1(%rip), %rax
	movq	8(%rax), %rdx
	movq	-24(%rbp), %rax
	movq	%rdx, 8(%rax)
	movq	_TIG_iO_r7vn_1_main_1_opaque_list_1(%rip), %rdx
	movq	-24(%rbp), %rax
	movq	%rdx, (%rax)
	movq	_TIG_iO_r7vn_1_main_1_opaque_list_1(%rip), %rax
	movq	8(%rax), %rax
	movq	-24(%rbp), %rdx
	movq	%rdx, (%rax)
	movq	_TIG_iO_r7vn_1_main_1_opaque_list_1(%rip), %rax
	movq	-24(%rbp), %rdx
	movq	%rdx, 8(%rax)
	call	rand@PLT
	movl	%eax, -40(%rbp)
	movl	$24, %edi
	call	malloc@PLT
	movq	%rax, -16(%rbp)
	movq	-16(%rbp), %rax
	movl	-40(%rbp), %edx
	movl	%edx, 16(%rax)
	movq	_TIG_iO_r7vn_1_main_1_opaque_list_1(%rip), %rax
	movq	8(%rax), %rdx
	movq	-16(%rbp), %rax
	movq	%rdx, 8(%rax)
	movq	_TIG_iO_r7vn_1_main_1_opaque_list_1(%rip), %rdx
	movq	-16(%rbp), %rax
	movq	%rdx, (%rax)
	movq	_TIG_iO_r7vn_1_main_1_opaque_list_1(%rip), %rax
	movq	8(%rax), %rax
	movq	-16(%rbp), %rdx
	movq	%rdx, (%rax)
	movq	_TIG_iO_r7vn_1_main_1_opaque_list_1(%rip), %rax
	movq	-16(%rbp), %rdx
	movq	%rdx, 8(%rax)
	movq	_TIG_iO_r7vn_1_main_1_opaque_list_1(%rip), %rax
	movq	8(%rax), %rax
	movq	%rax, _TIG_iO_r7vn_1_main_1_opaque_ptr_1(%rip)
	movq	_TIG_iO_r7vn_1_main_1_opaque_ptr_1(%rip), %rax
	movq	%rax, _TIG_iO_r7vn_1_main_1_opaque_ptr_2(%rip)
	movq	_TIG_iO_r7vn_1_main_1_opaque_ptr_2(%rip), %rax
	movq	8(%rax), %rax
	movq	%rax, _TIG_iO_r7vn_1_main_1_opaque_ptr_2(%rip)
	nop
	nop
	movq	_TIG_iO_r7vn_1_push_1_opaque_ptr_1(%rip), %rdx
	movq	_TIG_iO_r7vn_1_push_1_opaque_ptr_2(%rip), %rax
	cmpq	%rax, %rdx
	jne	.L23
	call	isEmpty
	movl	%eax, -40(%rbp)
.L23:
	leaq	.LC2(%rip), %rax
	movq	%rax, %rdi
	movl	$0, %eax
	call	printf@PLT
	leaq	-52(%rbp), %rax
	movq	%rax, %rsi
	leaq	.LC1(%rip), %rax
	movq	%rax, %rdi
	movl	$0, %eax
	call	__isoc99_scanf@PLT
	movl	-52(%rbp), %eax
	movl	%eax, -36(%rbp)
.L28:
	movl	$52, %edi
	call	putchar@PLT
	leaq	-48(%rbp), %rax
	movq	%rax, %rsi
	leaq	.LC1(%rip), %rax
	movq	%rax, %rdi
	movl	$0, %eax
	call	__isoc99_scanf@PLT
	movl	-48(%rbp), %eax
	cmpl	$1, %eax
	je	.L24
	cmpl	$2, %eax
	je	.L25
	jmp	.L27
.L24:
	call	push
	jmp	.L27
.L25:
	call	peek
	nop
.L27:
	jmp	.L28
	.cfi_endproc
.LFE6:
	.size	main, .-main
	.globl	create
	.type	create, @function
create:
.LFB10:
	.cfi_startproc
	endbr64
	pushq	%rbp
	.cfi_def_cfa_offset 16
	.cfi_offset 6, -16
	movq	%rsp, %rbp
	.cfi_def_cfa_register 6
	subq	$80, %rsp
	movl	%edi, -68(%rbp)
#APP
# 57 "/usr/include/x86_64-linux-gnu/bits/uintn-identity.h" 1
	##_ANNOTATION_INITIALREGION_-TIG-iO-r7vn-1-create--14
# 0 "" 2
# 61 "/usr/include/x86_64-linux-gnu/bits/uintn-identity.h" 1
	##_ANNOTATION_ATOMICREGION_-TIG-iO-r7vn-1-create--13
# 0 "" 2
#NO_APP
	movl	$24, %edi
	call	malloc@PLT
	movq	%rax, -48(%rbp)
	movq	-48(%rbp), %rax
	movq	-48(%rbp), %rdx
	movq	%rdx, (%rax)
	movq	-48(%rbp), %rax
	movq	-48(%rbp), %rdx
	movq	%rdx, 8(%rax)
	movq	-48(%rbp), %rax
	movq	%rax, _TIG_iO_r7vn_1_create_1_opaque_list_1(%rip)
	call	rand@PLT
	movl	%eax, -64(%rbp)
	movl	$24, %edi
	call	malloc@PLT
	movq	%rax, -40(%rbp)
	movq	-40(%rbp), %rax
	movl	$0, 16(%rax)
	movq	_TIG_iO_r7vn_1_create_1_opaque_list_1(%rip), %rax
	movq	(%rax), %rdx
	movq	-40(%rbp), %rax
	movq	%rdx, (%rax)
	movq	_TIG_iO_r7vn_1_create_1_opaque_list_1(%rip), %rdx
	movq	-40(%rbp), %rax
	movq	%rdx, 8(%rax)
	movq	_TIG_iO_r7vn_1_create_1_opaque_list_1(%rip), %rax
	movq	(%rax), %rax
	movq	-40(%rbp), %rdx
	movq	%rdx, 8(%rax)
	movq	_TIG_iO_r7vn_1_create_1_opaque_list_1(%rip), %rax
	movq	-40(%rbp), %rdx
	movq	%rdx, (%rax)
	call	rand@PLT
	movl	%eax, -60(%rbp)
	movl	$24, %edi
	call	malloc@PLT
	movq	%rax, -32(%rbp)
	movq	-32(%rbp), %rax
	movl	-60(%rbp), %edx
	movl	%edx, 16(%rax)
	movq	_TIG_iO_r7vn_1_create_1_opaque_list_1(%rip), %rax
	movq	(%rax), %rdx
	movq	-32(%rbp), %rax
	movq	%rdx, (%rax)
	movq	_TIG_iO_r7vn_1_create_1_opaque_list_1(%rip), %rdx
	movq	-32(%rbp), %rax
	movq	%rdx, 8(%rax)
	movq	_TIG_iO_r7vn_1_create_1_opaque_list_1(%rip), %rax
	movq	(%rax), %rax
	movq	-32(%rbp), %rdx
	movq	%rdx, 8(%rax)
	movq	_TIG_iO_r7vn_1_create_1_opaque_list_1(%rip), %rax
	movq	-32(%rbp), %rdx
	movq	%rdx, (%rax)
	call	rand@PLT
	movl	%eax, -56(%rbp)
	movl	$24, %edi
	call	malloc@PLT
	movq	%rax, -24(%rbp)
	movl	-56(%rbp), %eax
	leal	(%rax,%rax), %edx
	movq	-24(%rbp), %rax
	movl	%edx, 16(%rax)
	movq	_TIG_iO_r7vn_1_create_1_opaque_list_1(%rip), %rax
	movq	(%rax), %rdx
	movq	-24(%rbp), %rax
	movq	%rdx, (%rax)
	movq	_TIG_iO_r7vn_1_create_1_opaque_list_1(%rip), %rdx
	movq	-24(%rbp), %rax
	movq	%rdx, 8(%rax)
	movq	_TIG_iO_r7vn_1_create_1_opaque_list_1(%rip), %rax
	movq	(%rax), %rax
	movq	-24(%rbp), %rdx
	movq	%rdx, 8(%rax)
	movq	_TIG_iO_r7vn_1_create_1_opaque_list_1(%rip), %rax
	movq	-24(%rbp), %rdx
	movq	%rdx, (%rax)
	call	rand@PLT
	movl	%eax, -52(%rbp)
	movl	$24, %edi
	call	malloc@PLT
	movq	%rax, -16(%rbp)
	movl	-52(%rbp), %edx
	movl	%edx, %eax
	addl	%eax, %eax
	addl	%eax, %edx
	movq	-16(%rbp), %rax
	movl	%edx, 16(%rax)
	movq	_TIG_iO_r7vn_1_create_1_opaque_list_1(%rip), %rax
	movq	(%rax), %rdx
	movq	-16(%rbp), %rax
	movq	%rdx, (%rax)
	movq	_TIG_iO_r7vn_1_create_1_opaque_list_1(%rip), %rdx
	movq	-16(%rbp), %rax
	movq	%rdx, 8(%rax)
	movq	_TIG_iO_r7vn_1_create_1_opaque_list_1(%rip), %rax
	movq	(%rax), %rax
	movq	-16(%rbp), %rdx
	movq	%rdx, 8(%rax)
	movq	_TIG_iO_r7vn_1_create_1_opaque_list_1(%rip), %rax
	movq	-16(%rbp), %rdx
	movq	%rdx, (%rax)
	movq	_TIG_iO_r7vn_1_create_1_opaque_list_1(%rip), %rax
	movq	(%rax), %rax
	movq	%rax, _TIG_iO_r7vn_1_create_1_opaque_ptr_1(%rip)
	movq	_TIG_iO_r7vn_1_create_1_opaque_ptr_1(%rip), %rax
	movq	%rax, _TIG_iO_r7vn_1_create_1_opaque_ptr_2(%rip)
	movq	_TIG_iO_r7vn_1_create_1_opaque_ptr_2(%rip), %rax
	movq	(%rax), %rax
	movq	%rax, _TIG_iO_r7vn_1_create_1_opaque_ptr_2(%rip)
	nop
	nop
	movl	$16, %edi
	call	malloc@PLT
	movq	%rax, -8(%rbp)
	movq	-8(%rbp), %rax
	movq	%rax, new(%rip)
	movq	new(%rip), %rax
	movl	-68(%rbp), %edx
	movl	%edx, (%rax)
	movq	new(%rip), %rax
	movq	$0, 8(%rax)
	movq	head(%rip), %rax
	testq	%rax, %rax
	jne	.L31
	movq	_TIG_iO_r7vn_1_push_1_opaque_ptr_1(%rip), %rdx
	movq	_TIG_iO_r7vn_1_push_1_opaque_ptr_2(%rip), %rax
	cmpq	%rax, %rdx
	jne	.L32
	call	isEmpty
	movl	%eax, -52(%rbp)
.L32:
	movq	new(%rip), %rax
	movq	%rax, head(%rip)
	jmp	.L33
.L31:
	movq	new(%rip), %rax
	movq	head(%rip), %rdx
	movq	%rdx, 8(%rax)
.L33:
	movq	new(%rip), %rax
	movq	%rax, head(%rip)
	nop
	leave
	.cfi_def_cfa 7, 8
	ret
	.cfi_endproc
.LFE10:
	.size	create, .-create
	.globl	peek
	.type	peek, @function
peek:
.LFB11:
	.cfi_startproc
	endbr64
	pushq	%rbp
	.cfi_def_cfa_offset 16
	.cfi_offset 6, -16
	movq	%rsp, %rbp
	.cfi_def_cfa_register 6
	subq	$32, %rsp
#APP
# 40 "ok999p_C-Programming_a.c" 1
	##_ANNOTATION_INITIALREGION_-TIG-iO-r7vn-1-peek--20
# 0 "" 2
# 44 "ok999p_C-Programming_a.c" 1
	##_ANNOTATION_ATOMICREGION_-TIG-iO-r7vn-1-peek--19
# 0 "" 2
#NO_APP
	movl	$24, %edi
	call	malloc@PLT
	movq	%rax, -24(%rbp)
	movq	-24(%rbp), %rax
	movq	-24(%rbp), %rdx
	movq	%rdx, 8(%rax)
	movq	-24(%rbp), %rax
	movq	-24(%rbp), %rdx
	movq	%rdx, 16(%rax)
	movq	-24(%rbp), %rax
	movq	%rax, _TIG_iO_r7vn_1_peek_1_opaque_list_1(%rip)
	call	rand@PLT
	movl	%eax, -32(%rbp)
	movl	$24, %edi
	call	malloc@PLT
	movq	%rax, -16(%rbp)
	movq	-16(%rbp), %rax
	movl	$0, (%rax)
	movq	_TIG_iO_r7vn_1_peek_1_opaque_list_1(%rip), %rax
	movq	8(%rax), %rdx
	movq	-16(%rbp), %rax
	movq	%rdx, 8(%rax)
	movq	_TIG_iO_r7vn_1_peek_1_opaque_list_1(%rip), %rdx
	movq	-16(%rbp), %rax
	movq	%rdx, 16(%rax)
	movq	_TIG_iO_r7vn_1_peek_1_opaque_list_1(%rip), %rax
	movq	8(%rax), %rax
	movq	-16(%rbp), %rdx
	movq	%rdx, 16(%rax)
	movq	_TIG_iO_r7vn_1_peek_1_opaque_list_1(%rip), %rax
	movq	-16(%rbp), %rdx
	movq	%rdx, 8(%rax)
	call	rand@PLT
	movl	%eax, -28(%rbp)
	movl	$24, %edi
	call	malloc@PLT
	movq	%rax, -8(%rbp)
	movq	-8(%rbp), %rax
	movl	-28(%rbp), %edx
	movl	%edx, (%rax)
	movq	_TIG_iO_r7vn_1_peek_1_opaque_list_1(%rip), %rax
	movq	8(%rax), %rdx
	movq	-8(%rbp), %rax
	movq	%rdx, 8(%rax)
	movq	_TIG_iO_r7vn_1_peek_1_opaque_list_1(%rip), %rdx
	movq	-8(%rbp), %rax
	movq	%rdx, 16(%rax)
	movq	_TIG_iO_r7vn_1_peek_1_opaque_list_1(%rip), %rax
	movq	8(%rax), %rax
	movq	-8(%rbp), %rdx
	movq	%rdx, 16(%rax)
	movq	_TIG_iO_r7vn_1_peek_1_opaque_list_1(%rip), %rax
	movq	-8(%rbp), %rdx
	movq	%rdx, 8(%rax)
	movq	_TIG_iO_r7vn_1_peek_1_opaque_list_1(%rip), %rax
	movq	8(%rax), %rax
	movq	%rax, _TIG_iO_r7vn_1_peek_1_opaque_ptr_1(%rip)
	movq	_TIG_iO_r7vn_1_peek_1_opaque_ptr_1(%rip), %rax
	movq	%rax, _TIG_iO_r7vn_1_peek_1_opaque_ptr_2(%rip)
	nop
	nop
	movq	head(%rip), %rax
	movl	(%rax), %eax
	movl	%eax, %esi
	leaq	.LC1(%rip), %rax
	movq	%rax, %rdi
	movl	$0, %eax
	call	printf@PLT
	movq	_TIG_iO_r7vn_1_push_1_opaque_ptr_1(%rip), %rdx
	movq	_TIG_iO_r7vn_1_push_1_opaque_ptr_2(%rip), %rax
	cmpq	%rax, %rdx
	jne	.L36
#APP
# 44 "ok999p_C-Programming_a.c" 1
	.byte 0x7e,0x60
# 0 "" 2
#NO_APP
	jmp	.L35
.L36:
	movl	$0, %eax
.L35:
	leave
	.cfi_def_cfa 7, 8
	ret
	.cfi_endproc
.LFE11:
	.size	peek, .-peek
	.ident	"GCC: (Ubuntu 11.4.0-1ubuntu1~22.04) 11.4.0"
	.section	.note.GNU-stack,"",@progbits
	.section	.note.gnu.property,"a"
	.align 8
	.long	1f - 0f
	.long	4f - 1f
	.long	5
0:
	.string	"GNU"
1:
	.align 8
	.long	0xc0000002
	.long	3f - 2f
2:
	.long	0x3
3:
	.align 8
4:
