	.file	"pieceofhell_UNI_ADA_opaque.c"
	.text
	.globl	_TIG_iO_cTlq_1___uint32_identity_1_opaque_list_2
	.bss
	.align 8
	.type	_TIG_iO_cTlq_1___uint32_identity_1_opaque_list_2, @object
	.size	_TIG_iO_cTlq_1___uint32_identity_1_opaque_list_2, 8
_TIG_iO_cTlq_1___uint32_identity_1_opaque_list_2:
	.zero	8
	.globl	_TIG_IZ_cTlq_argc
	.align 4
	.type	_TIG_IZ_cTlq_argc, @object
	.size	_TIG_IZ_cTlq_argc, 4
_TIG_IZ_cTlq_argc:
	.zero	4
	.globl	_TIG_iO_cTlq_1_main_1_opaque_ptr_2
	.align 8
	.type	_TIG_iO_cTlq_1_main_1_opaque_ptr_2, @object
	.size	_TIG_iO_cTlq_1_main_1_opaque_ptr_2, 8
_TIG_iO_cTlq_1_main_1_opaque_ptr_2:
	.zero	8
	.globl	_TIG_iO_cTlq_1___bswap_32_1_opaque_list_1
	.align 8
	.type	_TIG_iO_cTlq_1___bswap_32_1_opaque_list_1, @object
	.size	_TIG_iO_cTlq_1___bswap_32_1_opaque_list_1, 8
_TIG_iO_cTlq_1___bswap_32_1_opaque_list_1:
	.zero	8
	.globl	_TIG_iO_cTlq_1___uint16_identity_1_opaque_ptr_2
	.align 8
	.type	_TIG_iO_cTlq_1___uint16_identity_1_opaque_ptr_2, @object
	.size	_TIG_iO_cTlq_1___uint16_identity_1_opaque_ptr_2, 8
_TIG_iO_cTlq_1___uint16_identity_1_opaque_ptr_2:
	.zero	8
	.globl	_TIG_iO_cTlq_1___uint64_identity_1_opaque_list_1
	.align 8
	.type	_TIG_iO_cTlq_1___uint64_identity_1_opaque_list_1, @object
	.size	_TIG_iO_cTlq_1___uint64_identity_1_opaque_list_1, 8
_TIG_iO_cTlq_1___uint64_identity_1_opaque_list_1:
	.zero	8
	.globl	_TIG_iO_cTlq_1_main_1_opaque_list_1
	.align 8
	.type	_TIG_iO_cTlq_1_main_1_opaque_list_1, @object
	.size	_TIG_iO_cTlq_1_main_1_opaque_list_1, 8
_TIG_iO_cTlq_1_main_1_opaque_list_1:
	.zero	8
	.globl	_TIG_iO_cTlq_1_misterio_1_opaque_list_2
	.align 8
	.type	_TIG_iO_cTlq_1_misterio_1_opaque_list_2, @object
	.size	_TIG_iO_cTlq_1_misterio_1_opaque_list_2, 8
_TIG_iO_cTlq_1_misterio_1_opaque_list_2:
	.zero	8
	.globl	_TIG_iO_cTlq_1___bswap_64_1_opaque_list_2
	.align 8
	.type	_TIG_iO_cTlq_1___bswap_64_1_opaque_list_2, @object
	.size	_TIG_iO_cTlq_1___bswap_64_1_opaque_list_2, 8
_TIG_iO_cTlq_1___bswap_64_1_opaque_list_2:
	.zero	8
	.globl	_TIG_iO_cTlq_1___uint32_identity_1_opaque_ptr_1
	.align 8
	.type	_TIG_iO_cTlq_1___uint32_identity_1_opaque_ptr_1, @object
	.size	_TIG_iO_cTlq_1___uint32_identity_1_opaque_ptr_1, 8
_TIG_iO_cTlq_1___uint32_identity_1_opaque_ptr_1:
	.zero	8
	.globl	_TIG_iO_cTlq_1___bswap_64_1_opaque_ptr_1
	.align 8
	.type	_TIG_iO_cTlq_1___bswap_64_1_opaque_ptr_1, @object
	.size	_TIG_iO_cTlq_1___bswap_64_1_opaque_ptr_1, 8
_TIG_iO_cTlq_1___bswap_64_1_opaque_ptr_1:
	.zero	8
	.globl	_TIG_iO_cTlq_1___bswap_32_1_opaque_ptr_2
	.align 8
	.type	_TIG_iO_cTlq_1___bswap_32_1_opaque_ptr_2, @object
	.size	_TIG_iO_cTlq_1___bswap_32_1_opaque_ptr_2, 8
_TIG_iO_cTlq_1___bswap_32_1_opaque_ptr_2:
	.zero	8
	.globl	_TIG_iO_cTlq_1_misterio_1_opaque_ptr_1
	.align 8
	.type	_TIG_iO_cTlq_1_misterio_1_opaque_ptr_1, @object
	.size	_TIG_iO_cTlq_1_misterio_1_opaque_ptr_1, 8
_TIG_iO_cTlq_1_misterio_1_opaque_ptr_1:
	.zero	8
	.globl	_TIG_iO_cTlq_1___bswap_16_1_opaque_ptr_2
	.align 8
	.type	_TIG_iO_cTlq_1___bswap_16_1_opaque_ptr_2, @object
	.size	_TIG_iO_cTlq_1___bswap_16_1_opaque_ptr_2, 8
_TIG_iO_cTlq_1___bswap_16_1_opaque_ptr_2:
	.zero	8
	.globl	_TIG_iO_cTlq_1___uint64_identity_1_opaque_ptr_2
	.align 8
	.type	_TIG_iO_cTlq_1___uint64_identity_1_opaque_ptr_2, @object
	.size	_TIG_iO_cTlq_1___uint64_identity_1_opaque_ptr_2, 8
_TIG_iO_cTlq_1___uint64_identity_1_opaque_ptr_2:
	.zero	8
	.globl	_TIG_iO_cTlq_1___uint16_identity_1_opaque_list_1
	.align 8
	.type	_TIG_iO_cTlq_1___uint16_identity_1_opaque_list_1, @object
	.size	_TIG_iO_cTlq_1___uint16_identity_1_opaque_list_1, 8
_TIG_iO_cTlq_1___uint16_identity_1_opaque_list_1:
	.zero	8
	.globl	_TIG_iO_cTlq_1___uint16_identity_1_opaque_list_2
	.align 8
	.type	_TIG_iO_cTlq_1___uint16_identity_1_opaque_list_2, @object
	.size	_TIG_iO_cTlq_1___uint16_identity_1_opaque_list_2, 8
_TIG_iO_cTlq_1___uint16_identity_1_opaque_list_2:
	.zero	8
	.globl	_TIG_iO_cTlq_1_misterio_1_opaque_ptr_2
	.align 8
	.type	_TIG_iO_cTlq_1_misterio_1_opaque_ptr_2, @object
	.size	_TIG_iO_cTlq_1_misterio_1_opaque_ptr_2, 8
_TIG_iO_cTlq_1_misterio_1_opaque_ptr_2:
	.zero	8
	.globl	_TIG_iO_cTlq_1___uint64_identity_1_opaque_list_2
	.align 8
	.type	_TIG_iO_cTlq_1___uint64_identity_1_opaque_list_2, @object
	.size	_TIG_iO_cTlq_1___uint64_identity_1_opaque_list_2, 8
_TIG_iO_cTlq_1___uint64_identity_1_opaque_list_2:
	.zero	8
	.globl	_TIG_iO_cTlq_1_main_1_opaque_list_2
	.align 8
	.type	_TIG_iO_cTlq_1_main_1_opaque_list_2, @object
	.size	_TIG_iO_cTlq_1_main_1_opaque_list_2, 8
_TIG_iO_cTlq_1_main_1_opaque_list_2:
	.zero	8
	.globl	_TIG_iO_cTlq_1___bswap_16_1_opaque_ptr_1
	.align 8
	.type	_TIG_iO_cTlq_1___bswap_16_1_opaque_ptr_1, @object
	.size	_TIG_iO_cTlq_1___bswap_16_1_opaque_ptr_1, 8
_TIG_iO_cTlq_1___bswap_16_1_opaque_ptr_1:
	.zero	8
	.globl	_TIG_IZ_cTlq_argv
	.align 8
	.type	_TIG_IZ_cTlq_argv, @object
	.size	_TIG_IZ_cTlq_argv, 8
_TIG_IZ_cTlq_argv:
	.zero	8
	.globl	_TIG_iO_cTlq_1___uint32_identity_1_opaque_list_1
	.align 8
	.type	_TIG_iO_cTlq_1___uint32_identity_1_opaque_list_1, @object
	.size	_TIG_iO_cTlq_1___uint32_identity_1_opaque_list_1, 8
_TIG_iO_cTlq_1___uint32_identity_1_opaque_list_1:
	.zero	8
	.globl	_TIG_iO_cTlq_1___bswap_32_1_opaque_list_2
	.align 8
	.type	_TIG_iO_cTlq_1___bswap_32_1_opaque_list_2, @object
	.size	_TIG_iO_cTlq_1___bswap_32_1_opaque_list_2, 8
_TIG_iO_cTlq_1___bswap_32_1_opaque_list_2:
	.zero	8
	.globl	_TIG_IZ_cTlq_envp
	.align 8
	.type	_TIG_IZ_cTlq_envp, @object
	.size	_TIG_IZ_cTlq_envp, 8
_TIG_IZ_cTlq_envp:
	.zero	8
	.globl	_TIG_iO_cTlq_1___bswap_64_1_opaque_list_1
	.align 8
	.type	_TIG_iO_cTlq_1___bswap_64_1_opaque_list_1, @object
	.size	_TIG_iO_cTlq_1___bswap_64_1_opaque_list_1, 8
_TIG_iO_cTlq_1___bswap_64_1_opaque_list_1:
	.zero	8
	.globl	_TIG_iO_cTlq_1_main_1_opaque_ptr_1
	.align 8
	.type	_TIG_iO_cTlq_1_main_1_opaque_ptr_1, @object
	.size	_TIG_iO_cTlq_1_main_1_opaque_ptr_1, 8
_TIG_iO_cTlq_1_main_1_opaque_ptr_1:
	.zero	8
	.globl	_TIG_iO_cTlq_1_misterio_1_opaque_list_1
	.align 8
	.type	_TIG_iO_cTlq_1_misterio_1_opaque_list_1, @object
	.size	_TIG_iO_cTlq_1_misterio_1_opaque_list_1, 8
_TIG_iO_cTlq_1_misterio_1_opaque_list_1:
	.zero	8
	.globl	_TIG_iO_cTlq_1___bswap_32_1_opaque_ptr_1
	.align 8
	.type	_TIG_iO_cTlq_1___bswap_32_1_opaque_ptr_1, @object
	.size	_TIG_iO_cTlq_1___bswap_32_1_opaque_ptr_1, 8
_TIG_iO_cTlq_1___bswap_32_1_opaque_ptr_1:
	.zero	8
	.globl	_TIG_iO_cTlq_1___uint64_identity_1_opaque_ptr_1
	.align 8
	.type	_TIG_iO_cTlq_1___uint64_identity_1_opaque_ptr_1, @object
	.size	_TIG_iO_cTlq_1___uint64_identity_1_opaque_ptr_1, 8
_TIG_iO_cTlq_1___uint64_identity_1_opaque_ptr_1:
	.zero	8
	.globl	_TIG_iO_cTlq_1___bswap_64_1_opaque_ptr_2
	.align 8
	.type	_TIG_iO_cTlq_1___bswap_64_1_opaque_ptr_2, @object
	.size	_TIG_iO_cTlq_1___bswap_64_1_opaque_ptr_2, 8
_TIG_iO_cTlq_1___bswap_64_1_opaque_ptr_2:
	.zero	8
	.globl	_TIG_iO_cTlq_1___uint16_identity_1_opaque_ptr_1
	.align 8
	.type	_TIG_iO_cTlq_1___uint16_identity_1_opaque_ptr_1, @object
	.size	_TIG_iO_cTlq_1___uint16_identity_1_opaque_ptr_1, 8
_TIG_iO_cTlq_1___uint16_identity_1_opaque_ptr_1:
	.zero	8
	.globl	_TIG_iO_cTlq_1___bswap_16_1_opaque_list_1
	.align 8
	.type	_TIG_iO_cTlq_1___bswap_16_1_opaque_list_1, @object
	.size	_TIG_iO_cTlq_1___bswap_16_1_opaque_list_1, 8
_TIG_iO_cTlq_1___bswap_16_1_opaque_list_1:
	.zero	8
	.globl	_TIG_iO_cTlq_1___bswap_16_1_opaque_list_2
	.align 8
	.type	_TIG_iO_cTlq_1___bswap_16_1_opaque_list_2, @object
	.size	_TIG_iO_cTlq_1___bswap_16_1_opaque_list_2, 8
_TIG_iO_cTlq_1___bswap_16_1_opaque_list_2:
	.zero	8
	.globl	_TIG_iO_cTlq_1___uint32_identity_1_opaque_ptr_2
	.align 8
	.type	_TIG_iO_cTlq_1___uint32_identity_1_opaque_ptr_2, @object
	.size	_TIG_iO_cTlq_1___uint32_identity_1_opaque_ptr_2, 8
_TIG_iO_cTlq_1___uint32_identity_1_opaque_ptr_2:
	.zero	8
	.section	.rodata
.LC0:
	.string	"Ol\303\241 Mundo!"
.LC1:
	.string	"%d\n"
	.text
	.globl	main
	.type	main, @function
main:
.LFB1:
	.cfi_startproc
	endbr64
	pushq	%rbp
	.cfi_def_cfa_offset 16
	.cfi_offset 6, -16
	movq	%rsp, %rbp
	.cfi_def_cfa_register 6
	subq	$112, %rsp
	movl	%edi, -84(%rbp)
	movq	%rsi, -96(%rbp)
	movq	%rdx, -104(%rbp)
	movq	$0, _TIG_IZ_cTlq_envp(%rip)
	nop
.L2:
	movq	$0, _TIG_IZ_cTlq_argv(%rip)
	nop
.L3:
	movl	$0, _TIG_IZ_cTlq_argc(%rip)
	nop
	nop
.L4:
.L5:
#APP
# 92 "/usr/include/x86_64-linux-gnu/bits/byteswap.h" 1
	##_ANNOTATION_INITIALREGION_-TIG-IZ-cTlq--0
# 0 "" 2
#NO_APP
	movl	-84(%rbp), %eax
	movl	%eax, _TIG_IZ_cTlq_argc(%rip)
	movq	-96(%rbp), %rax
	movq	%rax, _TIG_IZ_cTlq_argv(%rip)
	movq	-104(%rbp), %rax
	movq	%rax, _TIG_IZ_cTlq_envp(%rip)
#APP
# 99 "/usr/include/x86_64-linux-gnu/bits/byteswap.h" 1
	##_ANNOTATION_ATOMICREGION_-TIG-iO-cTlq-1-main--13
# 0 "" 2
#NO_APP
	movl	$24, %edi
	call	malloc@PLT
	movq	%rax, -40(%rbp)
	movq	-40(%rbp), %rax
	movq	-40(%rbp), %rdx
	movq	%rdx, (%rax)
	movq	-40(%rbp), %rax
	movq	-40(%rbp), %rdx
	movq	%rdx, 8(%rax)
	movq	-40(%rbp), %rax
	movq	%rax, _TIG_iO_cTlq_1_main_1_opaque_list_1(%rip)
	call	rand@PLT
	movl	%eax, -80(%rbp)
	movl	$24, %edi
	call	malloc@PLT
	movq	%rax, -32(%rbp)
	movq	-32(%rbp), %rax
	movl	$0, 16(%rax)
	movq	_TIG_iO_cTlq_1_main_1_opaque_list_1(%rip), %rax
	movq	(%rax), %rdx
	movq	-32(%rbp), %rax
	movq	%rdx, (%rax)
	movq	_TIG_iO_cTlq_1_main_1_opaque_list_1(%rip), %rdx
	movq	-32(%rbp), %rax
	movq	%rdx, 8(%rax)
	movq	_TIG_iO_cTlq_1_main_1_opaque_list_1(%rip), %rax
	movq	(%rax), %rax
	movq	-32(%rbp), %rdx
	movq	%rdx, 8(%rax)
	movq	_TIG_iO_cTlq_1_main_1_opaque_list_1(%rip), %rax
	movq	-32(%rbp), %rdx
	movq	%rdx, (%rax)
	call	rand@PLT
	movl	%eax, -76(%rbp)
	movl	$24, %edi
	call	malloc@PLT
	movq	%rax, -24(%rbp)
	movq	-24(%rbp), %rax
	movl	-76(%rbp), %edx
	movl	%edx, 16(%rax)
	movq	_TIG_iO_cTlq_1_main_1_opaque_list_1(%rip), %rax
	movq	(%rax), %rdx
	movq	-24(%rbp), %rax
	movq	%rdx, (%rax)
	movq	_TIG_iO_cTlq_1_main_1_opaque_list_1(%rip), %rdx
	movq	-24(%rbp), %rax
	movq	%rdx, 8(%rax)
	movq	_TIG_iO_cTlq_1_main_1_opaque_list_1(%rip), %rax
	movq	(%rax), %rax
	movq	-24(%rbp), %rdx
	movq	%rdx, 8(%rax)
	movq	_TIG_iO_cTlq_1_main_1_opaque_list_1(%rip), %rax
	movq	-24(%rbp), %rdx
	movq	%rdx, (%rax)
	call	rand@PLT
	movl	%eax, -72(%rbp)
	movl	$24, %edi
	call	malloc@PLT
	movq	%rax, -16(%rbp)
	movl	-72(%rbp), %eax
	leal	(%rax,%rax), %edx
	movq	-16(%rbp), %rax
	movl	%edx, 16(%rax)
	movq	_TIG_iO_cTlq_1_main_1_opaque_list_1(%rip), %rax
	movq	(%rax), %rdx
	movq	-16(%rbp), %rax
	movq	%rdx, (%rax)
	movq	_TIG_iO_cTlq_1_main_1_opaque_list_1(%rip), %rdx
	movq	-16(%rbp), %rax
	movq	%rdx, 8(%rax)
	movq	_TIG_iO_cTlq_1_main_1_opaque_list_1(%rip), %rax
	movq	(%rax), %rax
	movq	-16(%rbp), %rdx
	movq	%rdx, 8(%rax)
	movq	_TIG_iO_cTlq_1_main_1_opaque_list_1(%rip), %rax
	movq	-16(%rbp), %rdx
	movq	%rdx, (%rax)
	call	rand@PLT
	movl	%eax, -68(%rbp)
	movl	$24, %edi
	call	malloc@PLT
	movq	%rax, -8(%rbp)
	movl	-68(%rbp), %edx
	movl	%edx, %eax
	addl	%eax, %eax
	addl	%eax, %edx
	movq	-8(%rbp), %rax
	movl	%edx, 16(%rax)
	movq	_TIG_iO_cTlq_1_main_1_opaque_list_1(%rip), %rax
	movq	(%rax), %rdx
	movq	-8(%rbp), %rax
	movq	%rdx, (%rax)
	movq	_TIG_iO_cTlq_1_main_1_opaque_list_1(%rip), %rdx
	movq	-8(%rbp), %rax
	movq	%rdx, 8(%rax)
	movq	_TIG_iO_cTlq_1_main_1_opaque_list_1(%rip), %rax
	movq	(%rax), %rax
	movq	-8(%rbp), %rdx
	movq	%rdx, 8(%rax)
	movq	_TIG_iO_cTlq_1_main_1_opaque_list_1(%rip), %rax
	movq	-8(%rbp), %rdx
	movq	%rdx, (%rax)
	movq	_TIG_iO_cTlq_1_main_1_opaque_list_1(%rip), %rax
	movq	(%rax), %rax
	movq	%rax, _TIG_iO_cTlq_1_main_1_opaque_ptr_1(%rip)
	movq	_TIG_iO_cTlq_1_main_1_opaque_ptr_1(%rip), %rax
	movq	%rax, _TIG_iO_cTlq_1_main_1_opaque_ptr_2(%rip)
	movq	_TIG_iO_cTlq_1_main_1_opaque_ptr_2(%rip), %rax
	movq	(%rax), %rax
	movq	%rax, _TIG_iO_cTlq_1_main_1_opaque_ptr_2(%rip)
	nop
	nop
	movl	$4, -64(%rbp)
	movl	$6, -60(%rbp)
	movl	$9, -56(%rbp)
	movl	$0, -52(%rbp)
	movl	$1, -48(%rbp)
	movl	-56(%rbp), %edx
	movslq	%edx, %rax
	imulq	$1431655766, %rax, %rax
	shrq	$32, %rax
	movl	%edx, %ecx
	sarl	$31, %ecx
	subl	%ecx, %eax
	movl	%eax, %ecx
	addl	%ecx, %ecx
	addl	%eax, %ecx
	movl	%edx, %eax
	subl	%ecx, %eax
	testl	%eax, %eax
	je	.L6
	leaq	.LC0(%rip), %rax
	movq	%rax, %rdi
	movl	$0, %eax
	call	printf@PLT
.L6:
	movq	_TIG_iO_cTlq_1_misterio_1_opaque_ptr_1(%rip), %rdx
	movq	_TIG_iO_cTlq_1_misterio_1_opaque_ptr_2(%rip), %rax
	cmpq	%rax, %rdx
	jne	.L7
	movl	$3, %edi
	call	misterio
	movl	%eax, -44(%rbp)
	movl	-44(%rbp), %eax
	movl	%eax, %esi
	leaq	.LC1(%rip), %rax
	movq	%rax, %rdi
	movl	$0, %eax
	call	printf@PLT
.L7:
	movl	$0, %eax
	leave
	.cfi_def_cfa 7, 8
	ret
	.cfi_endproc
.LFE1:
	.size	main, .-main
	.globl	misterio
	.type	misterio, @function
misterio:
.LFB7:
	.cfi_startproc
	endbr64
	pushq	%rbp
	.cfi_def_cfa_offset 16
	.cfi_offset 6, -16
	movq	%rsp, %rbp
	.cfi_def_cfa_register 6
	subq	$64, %rsp
	movl	%edi, -52(%rbp)
#APP
# 54 "/usr/include/x86_64-linux-gnu/bits/uintn-identity.h" 1
	##_ANNOTATION_INITIALREGION_-TIG-iO-cTlq-1-misterio--16
# 0 "" 2
# 58 "/usr/include/x86_64-linux-gnu/bits/uintn-identity.h" 1
	##_ANNOTATION_ATOMICREGION_-TIG-iO-cTlq-1-misterio--15
# 0 "" 2
#NO_APP
	movl	$24, %edi
	call	malloc@PLT
	movq	%rax, -24(%rbp)
	movq	-24(%rbp), %rax
	movq	-24(%rbp), %rdx
	movq	%rdx, 16(%rax)
	movq	-24(%rbp), %rax
	movq	-24(%rbp), %rdx
	movq	%rdx, 8(%rax)
	movq	-24(%rbp), %rax
	movq	%rax, _TIG_iO_cTlq_1_misterio_1_opaque_list_1(%rip)
	call	rand@PLT
	movl	%eax, -32(%rbp)
	movl	$24, %edi
	call	malloc@PLT
	movq	%rax, -16(%rbp)
	movq	-16(%rbp), %rax
	movl	$0, (%rax)
	movq	_TIG_iO_cTlq_1_misterio_1_opaque_list_1(%rip), %rax
	movq	16(%rax), %rdx
	movq	-16(%rbp), %rax
	movq	%rdx, 16(%rax)
	movq	_TIG_iO_cTlq_1_misterio_1_opaque_list_1(%rip), %rdx
	movq	-16(%rbp), %rax
	movq	%rdx, 8(%rax)
	movq	_TIG_iO_cTlq_1_misterio_1_opaque_list_1(%rip), %rax
	movq	16(%rax), %rax
	movq	-16(%rbp), %rdx
	movq	%rdx, 8(%rax)
	movq	_TIG_iO_cTlq_1_misterio_1_opaque_list_1(%rip), %rax
	movq	-16(%rbp), %rdx
	movq	%rdx, 16(%rax)
	call	rand@PLT
	movl	%eax, -28(%rbp)
	movl	$24, %edi
	call	malloc@PLT
	movq	%rax, -8(%rbp)
	movq	-8(%rbp), %rax
	movl	-28(%rbp), %edx
	movl	%edx, (%rax)
	movq	_TIG_iO_cTlq_1_misterio_1_opaque_list_1(%rip), %rax
	movq	16(%rax), %rdx
	movq	-8(%rbp), %rax
	movq	%rdx, 16(%rax)
	movq	_TIG_iO_cTlq_1_misterio_1_opaque_list_1(%rip), %rdx
	movq	-8(%rbp), %rax
	movq	%rdx, 8(%rax)
	movq	_TIG_iO_cTlq_1_misterio_1_opaque_list_1(%rip), %rax
	movq	16(%rax), %rax
	movq	-8(%rbp), %rdx
	movq	%rdx, 8(%rax)
	movq	_TIG_iO_cTlq_1_misterio_1_opaque_list_1(%rip), %rax
	movq	-8(%rbp), %rdx
	movq	%rdx, 16(%rax)
	movq	_TIG_iO_cTlq_1_misterio_1_opaque_list_1(%rip), %rax
	movq	16(%rax), %rax
	movq	%rax, _TIG_iO_cTlq_1_misterio_1_opaque_ptr_1(%rip)
	movq	_TIG_iO_cTlq_1_misterio_1_opaque_ptr_1(%rip), %rax
	movq	%rax, _TIG_iO_cTlq_1_misterio_1_opaque_ptr_2(%rip)
	nop
	nop
	cmpl	$3, -52(%rbp)
	je	.L10
	cmpl	$3, -52(%rbp)
	jg	.L11
	cmpl	$2, -52(%rbp)
	je	.L12
	cmpl	$2, -52(%rbp)
	jg	.L11
	cmpl	$0, -52(%rbp)
	je	.L13
	cmpl	$1, -52(%rbp)
	je	.L14
	jmp	.L11
.L13:
	movl	-52(%rbp), %eax
	jmp	.L15
.L14:
	movl	-52(%rbp), %eax
	imull	%eax, %eax
	movl	%eax, -52(%rbp)
	jmp	.L16
.L12:
	sall	-52(%rbp)
	jmp	.L16
.L10:
	movl	-52(%rbp), %edx
	movl	%edx, %eax
	addl	%eax, %eax
	addl	%edx, %eax
	movl	%eax, -52(%rbp)
	jmp	.L16
.L11:
	sall	$2, -52(%rbp)
.L16:
	movq	_TIG_iO_cTlq_1_misterio_1_opaque_ptr_1(%rip), %rdx
	movq	_TIG_iO_cTlq_1_misterio_1_opaque_ptr_2(%rip), %rax
	cmpq	%rax, %rdx
	jne	.L17
	movl	-52(%rbp), %eax
	cltd
	shrl	$30, %edx
	addl	%edx, %eax
	andl	$3, %eax
	subl	%edx, %eax
	movl	%eax, %edi
	call	misterio
	movl	%eax, -36(%rbp)
.L17:
	movl	-36(%rbp), %eax
.L15:
	leave
	.cfi_def_cfa 7, 8
	ret
	.cfi_endproc
.LFE7:
	.size	misterio, .-misterio
	.ident	"GCC: (Ubuntu 11.4.0-1ubuntu1~22.04) 11.4.0"
	.section	.note.GNU-stack,"",@progbits
	.section	.note.gnu.property,"a"
	.align 8
	.long	1f - 0f
	.long	4f - 1f
	.long	5
0:
	.string	"GNU"
1:
	.align 8
	.long	0xc0000002
	.long	3f - 2f
2:
	.long	0x3
3:
	.align 8
4:
