	.file	"shashankhs-05_ds_q_opaque.c"
	.text
	.globl	_TIG_iO_GJeD_1___uint32_identity_1_opaque_ptr_2
	.bss
	.align 8
	.type	_TIG_iO_GJeD_1___uint32_identity_1_opaque_ptr_2, @object
	.size	_TIG_iO_GJeD_1___uint32_identity_1_opaque_ptr_2, 8
_TIG_iO_GJeD_1___uint32_identity_1_opaque_ptr_2:
	.zero	8
	.globl	_TIG_iO_GJeD_1___bswap_64_1_opaque_list_2
	.align 8
	.type	_TIG_iO_GJeD_1___bswap_64_1_opaque_list_2, @object
	.size	_TIG_iO_GJeD_1___bswap_64_1_opaque_list_2, 8
_TIG_iO_GJeD_1___bswap_64_1_opaque_list_2:
	.zero	8
	.globl	_TIG_iO_GJeD_1___bswap_16_1_opaque_ptr_1
	.align 8
	.type	_TIG_iO_GJeD_1___bswap_16_1_opaque_ptr_1, @object
	.size	_TIG_iO_GJeD_1___bswap_16_1_opaque_ptr_1, 8
_TIG_iO_GJeD_1___bswap_16_1_opaque_ptr_1:
	.zero	8
	.globl	_TIG_iO_GJeD_1_main_1_opaque_list_2
	.align 8
	.type	_TIG_iO_GJeD_1_main_1_opaque_list_2, @object
	.size	_TIG_iO_GJeD_1_main_1_opaque_list_2, 8
_TIG_iO_GJeD_1_main_1_opaque_list_2:
	.zero	8
	.globl	_TIG_iO_GJeD_1_display_1_opaque_ptr_1
	.align 8
	.type	_TIG_iO_GJeD_1_display_1_opaque_ptr_1, @object
	.size	_TIG_iO_GJeD_1_display_1_opaque_ptr_1, 8
_TIG_iO_GJeD_1_display_1_opaque_ptr_1:
	.zero	8
	.globl	_TIG_iO_GJeD_1_insert_1_opaque_list_2
	.align 8
	.type	_TIG_iO_GJeD_1_insert_1_opaque_list_2, @object
	.size	_TIG_iO_GJeD_1_insert_1_opaque_list_2, 8
_TIG_iO_GJeD_1_insert_1_opaque_list_2:
	.zero	8
	.globl	_TIG_iO_GJeD_1___uint64_identity_1_opaque_ptr_1
	.align 8
	.type	_TIG_iO_GJeD_1___uint64_identity_1_opaque_ptr_1, @object
	.size	_TIG_iO_GJeD_1___uint64_identity_1_opaque_ptr_1, 8
_TIG_iO_GJeD_1___uint64_identity_1_opaque_ptr_1:
	.zero	8
	.globl	_TIG_iO_GJeD_1___bswap_16_1_opaque_list_2
	.align 8
	.type	_TIG_iO_GJeD_1___bswap_16_1_opaque_list_2, @object
	.size	_TIG_iO_GJeD_1___bswap_16_1_opaque_list_2, 8
_TIG_iO_GJeD_1___bswap_16_1_opaque_list_2:
	.zero	8
	.globl	_TIG_IZ_GJeD_argv
	.align 8
	.type	_TIG_IZ_GJeD_argv, @object
	.size	_TIG_IZ_GJeD_argv, 8
_TIG_IZ_GJeD_argv:
	.zero	8
	.globl	rear
	.align 4
	.type	rear, @object
	.size	rear, 4
rear:
	.zero	4
	.globl	_TIG_iO_GJeD_1___bswap_32_1_opaque_ptr_1
	.align 8
	.type	_TIG_iO_GJeD_1___bswap_32_1_opaque_ptr_1, @object
	.size	_TIG_iO_GJeD_1___bswap_32_1_opaque_ptr_1, 8
_TIG_iO_GJeD_1___bswap_32_1_opaque_ptr_1:
	.zero	8
	.globl	_TIG_iO_GJeD_1_display_1_opaque_list_1
	.align 8
	.type	_TIG_iO_GJeD_1_display_1_opaque_list_1, @object
	.size	_TIG_iO_GJeD_1_display_1_opaque_list_1, 8
_TIG_iO_GJeD_1_display_1_opaque_list_1:
	.zero	8
	.globl	_TIG_iO_GJeD_1___uint16_identity_1_opaque_ptr_1
	.align 8
	.type	_TIG_iO_GJeD_1___uint16_identity_1_opaque_ptr_1, @object
	.size	_TIG_iO_GJeD_1___uint16_identity_1_opaque_ptr_1, 8
_TIG_iO_GJeD_1___uint16_identity_1_opaque_ptr_1:
	.zero	8
	.globl	_TIG_iO_GJeD_1___uint32_identity_1_opaque_ptr_1
	.align 8
	.type	_TIG_iO_GJeD_1___uint32_identity_1_opaque_ptr_1, @object
	.size	_TIG_iO_GJeD_1___uint32_identity_1_opaque_ptr_1, 8
_TIG_iO_GJeD_1___uint32_identity_1_opaque_ptr_1:
	.zero	8
	.globl	_TIG_iO_GJeD_1_delete_1_opaque_ptr_2
	.align 8
	.type	_TIG_iO_GJeD_1_delete_1_opaque_ptr_2, @object
	.size	_TIG_iO_GJeD_1_delete_1_opaque_ptr_2, 8
_TIG_iO_GJeD_1_delete_1_opaque_ptr_2:
	.zero	8
	.globl	_TIG_iO_GJeD_1___uint16_identity_1_opaque_list_2
	.align 8
	.type	_TIG_iO_GJeD_1___uint16_identity_1_opaque_list_2, @object
	.size	_TIG_iO_GJeD_1___uint16_identity_1_opaque_list_2, 8
_TIG_iO_GJeD_1___uint16_identity_1_opaque_list_2:
	.zero	8
	.globl	_TIG_iO_GJeD_1___bswap_16_1_opaque_ptr_2
	.align 8
	.type	_TIG_iO_GJeD_1___bswap_16_1_opaque_ptr_2, @object
	.size	_TIG_iO_GJeD_1___bswap_16_1_opaque_ptr_2, 8
_TIG_iO_GJeD_1___bswap_16_1_opaque_ptr_2:
	.zero	8
	.globl	_TIG_iO_GJeD_1___bswap_32_1_opaque_list_1
	.align 8
	.type	_TIG_iO_GJeD_1___bswap_32_1_opaque_list_1, @object
	.size	_TIG_iO_GJeD_1___bswap_32_1_opaque_list_1, 8
_TIG_iO_GJeD_1___bswap_32_1_opaque_list_1:
	.zero	8
	.globl	_TIG_iO_GJeD_1_delete_1_opaque_list_1
	.align 8
	.type	_TIG_iO_GJeD_1_delete_1_opaque_list_1, @object
	.size	_TIG_iO_GJeD_1_delete_1_opaque_list_1, 8
_TIG_iO_GJeD_1_delete_1_opaque_list_1:
	.zero	8
	.globl	_TIG_iO_GJeD_1___bswap_32_1_opaque_list_2
	.align 8
	.type	_TIG_iO_GJeD_1___bswap_32_1_opaque_list_2, @object
	.size	_TIG_iO_GJeD_1___bswap_32_1_opaque_list_2, 8
_TIG_iO_GJeD_1___bswap_32_1_opaque_list_2:
	.zero	8
	.globl	_TIG_iO_GJeD_1___uint16_identity_1_opaque_list_1
	.align 8
	.type	_TIG_iO_GJeD_1___uint16_identity_1_opaque_list_1, @object
	.size	_TIG_iO_GJeD_1___uint16_identity_1_opaque_list_1, 8
_TIG_iO_GJeD_1___uint16_identity_1_opaque_list_1:
	.zero	8
	.globl	_TIG_iO_GJeD_1_delete_1_opaque_ptr_1
	.align 8
	.type	_TIG_iO_GJeD_1_delete_1_opaque_ptr_1, @object
	.size	_TIG_iO_GJeD_1_delete_1_opaque_ptr_1, 8
_TIG_iO_GJeD_1_delete_1_opaque_ptr_1:
	.zero	8
	.globl	_TIG_iO_GJeD_1_insert_1_opaque_ptr_1
	.align 8
	.type	_TIG_iO_GJeD_1_insert_1_opaque_ptr_1, @object
	.size	_TIG_iO_GJeD_1_insert_1_opaque_ptr_1, 8
_TIG_iO_GJeD_1_insert_1_opaque_ptr_1:
	.zero	8
	.globl	_TIG_iO_GJeD_1___bswap_64_1_opaque_ptr_1
	.align 8
	.type	_TIG_iO_GJeD_1___bswap_64_1_opaque_ptr_1, @object
	.size	_TIG_iO_GJeD_1___bswap_64_1_opaque_ptr_1, 8
_TIG_iO_GJeD_1___bswap_64_1_opaque_ptr_1:
	.zero	8
	.globl	_TIG_iO_GJeD_1_main_1_opaque_list_1
	.align 8
	.type	_TIG_iO_GJeD_1_main_1_opaque_list_1, @object
	.size	_TIG_iO_GJeD_1_main_1_opaque_list_1, 8
_TIG_iO_GJeD_1_main_1_opaque_list_1:
	.zero	8
	.globl	_TIG_iO_GJeD_1___bswap_64_1_opaque_ptr_2
	.align 8
	.type	_TIG_iO_GJeD_1___bswap_64_1_opaque_ptr_2, @object
	.size	_TIG_iO_GJeD_1___bswap_64_1_opaque_ptr_2, 8
_TIG_iO_GJeD_1___bswap_64_1_opaque_ptr_2:
	.zero	8
	.globl	_TIG_iO_GJeD_1___uint64_identity_1_opaque_ptr_2
	.align 8
	.type	_TIG_iO_GJeD_1___uint64_identity_1_opaque_ptr_2, @object
	.size	_TIG_iO_GJeD_1___uint64_identity_1_opaque_ptr_2, 8
_TIG_iO_GJeD_1___uint64_identity_1_opaque_ptr_2:
	.zero	8
	.globl	_TIG_iO_GJeD_1___uint16_identity_1_opaque_ptr_2
	.align 8
	.type	_TIG_iO_GJeD_1___uint16_identity_1_opaque_ptr_2, @object
	.size	_TIG_iO_GJeD_1___uint16_identity_1_opaque_ptr_2, 8
_TIG_iO_GJeD_1___uint16_identity_1_opaque_ptr_2:
	.zero	8
	.globl	_TIG_iO_GJeD_1_main_1_opaque_ptr_2
	.align 8
	.type	_TIG_iO_GJeD_1_main_1_opaque_ptr_2, @object
	.size	_TIG_iO_GJeD_1_main_1_opaque_ptr_2, 8
_TIG_iO_GJeD_1_main_1_opaque_ptr_2:
	.zero	8
	.globl	_TIG_iO_GJeD_1_main_1_opaque_ptr_1
	.align 8
	.type	_TIG_iO_GJeD_1_main_1_opaque_ptr_1, @object
	.size	_TIG_iO_GJeD_1_main_1_opaque_ptr_1, 8
_TIG_iO_GJeD_1_main_1_opaque_ptr_1:
	.zero	8
	.globl	_TIG_iO_GJeD_1___bswap_16_1_opaque_list_1
	.align 8
	.type	_TIG_iO_GJeD_1___bswap_16_1_opaque_list_1, @object
	.size	_TIG_iO_GJeD_1___bswap_16_1_opaque_list_1, 8
_TIG_iO_GJeD_1___bswap_16_1_opaque_list_1:
	.zero	8
	.globl	_TIG_iO_GJeD_1_insert_1_opaque_ptr_2
	.align 8
	.type	_TIG_iO_GJeD_1_insert_1_opaque_ptr_2, @object
	.size	_TIG_iO_GJeD_1_insert_1_opaque_ptr_2, 8
_TIG_iO_GJeD_1_insert_1_opaque_ptr_2:
	.zero	8
	.globl	_TIG_iO_GJeD_1___uint64_identity_1_opaque_list_1
	.align 8
	.type	_TIG_iO_GJeD_1___uint64_identity_1_opaque_list_1, @object
	.size	_TIG_iO_GJeD_1___uint64_identity_1_opaque_list_1, 8
_TIG_iO_GJeD_1___uint64_identity_1_opaque_list_1:
	.zero	8
	.globl	_TIG_iO_GJeD_1_delete_1_opaque_list_2
	.align 8
	.type	_TIG_iO_GJeD_1_delete_1_opaque_list_2, @object
	.size	_TIG_iO_GJeD_1_delete_1_opaque_list_2, 8
_TIG_iO_GJeD_1_delete_1_opaque_list_2:
	.zero	8
	.globl	_TIG_iO_GJeD_1___bswap_32_1_opaque_ptr_2
	.align 8
	.type	_TIG_iO_GJeD_1___bswap_32_1_opaque_ptr_2, @object
	.size	_TIG_iO_GJeD_1___bswap_32_1_opaque_ptr_2, 8
_TIG_iO_GJeD_1___bswap_32_1_opaque_ptr_2:
	.zero	8
	.globl	_TIG_iO_GJeD_1___bswap_64_1_opaque_list_1
	.align 8
	.type	_TIG_iO_GJeD_1___bswap_64_1_opaque_list_1, @object
	.size	_TIG_iO_GJeD_1___bswap_64_1_opaque_list_1, 8
_TIG_iO_GJeD_1___bswap_64_1_opaque_list_1:
	.zero	8
	.globl	front
	.align 4
	.type	front, @object
	.size	front, 4
front:
	.zero	4
	.globl	_TIG_iO_GJeD_1_display_1_opaque_list_2
	.align 8
	.type	_TIG_iO_GJeD_1_display_1_opaque_list_2, @object
	.size	_TIG_iO_GJeD_1_display_1_opaque_list_2, 8
_TIG_iO_GJeD_1_display_1_opaque_list_2:
	.zero	8
	.globl	_TIG_iO_GJeD_1_insert_1_opaque_list_1
	.align 8
	.type	_TIG_iO_GJeD_1_insert_1_opaque_list_1, @object
	.size	_TIG_iO_GJeD_1_insert_1_opaque_list_1, 8
_TIG_iO_GJeD_1_insert_1_opaque_list_1:
	.zero	8
	.globl	_TIG_iO_GJeD_1_display_1_opaque_ptr_2
	.align 8
	.type	_TIG_iO_GJeD_1_display_1_opaque_ptr_2, @object
	.size	_TIG_iO_GJeD_1_display_1_opaque_ptr_2, 8
_TIG_iO_GJeD_1_display_1_opaque_ptr_2:
	.zero	8
	.globl	_TIG_iO_GJeD_1___uint64_identity_1_opaque_list_2
	.align 8
	.type	_TIG_iO_GJeD_1___uint64_identity_1_opaque_list_2, @object
	.size	_TIG_iO_GJeD_1___uint64_identity_1_opaque_list_2, 8
_TIG_iO_GJeD_1___uint64_identity_1_opaque_list_2:
	.zero	8
	.globl	_TIG_IZ_GJeD_argc
	.align 4
	.type	_TIG_IZ_GJeD_argc, @object
	.size	_TIG_IZ_GJeD_argc, 4
_TIG_IZ_GJeD_argc:
	.zero	4
	.globl	_TIG_IZ_GJeD_envp
	.align 8
	.type	_TIG_IZ_GJeD_envp, @object
	.size	_TIG_IZ_GJeD_envp, 8
_TIG_IZ_GJeD_envp:
	.zero	8
	.globl	_TIG_iO_GJeD_1___uint32_identity_1_opaque_list_1
	.align 8
	.type	_TIG_iO_GJeD_1___uint32_identity_1_opaque_list_1, @object
	.size	_TIG_iO_GJeD_1___uint32_identity_1_opaque_list_1, 8
_TIG_iO_GJeD_1___uint32_identity_1_opaque_list_1:
	.zero	8
	.globl	a
	.align 8
	.type	a, @object
	.size	a, 12
a:
	.zero	12
	.globl	_TIG_iO_GJeD_1___uint32_identity_1_opaque_list_2
	.align 8
	.type	_TIG_iO_GJeD_1___uint32_identity_1_opaque_list_2, @object
	.size	_TIG_iO_GJeD_1___uint32_identity_1_opaque_list_2, 8
_TIG_iO_GJeD_1___uint32_identity_1_opaque_list_2:
	.zero	8
	.section	.rodata
	.align 8
.LC0:
	.string	"\nEnter choice\n1.Insert\n2.Delete\n3.Display\n4.Exit"
.LC1:
	.string	"%d"
.LC2:
	.string	"Invalid"
	.text
	.globl	main
	.type	main, @function
main:
.LFB0:
	.cfi_startproc
	endbr64
	pushq	%rbp
	.cfi_def_cfa_offset 16
	.cfi_offset 6, -16
	movq	%rsp, %rbp
	.cfi_def_cfa_register 6
	subq	$80, %rsp
	movl	%edi, -52(%rbp)
	movq	%rsi, -64(%rbp)
	movq	%rdx, -72(%rbp)
	movq	%fs:40, %rax
	movq	%rax, -8(%rbp)
	xorl	%eax, %eax
	movl	$0, front(%rip)
	nop
.L2:
	movl	$-1, rear(%rip)
	nop
.L3:
	movl	$0, -44(%rbp)
	jmp	.L4
.L5:
	movl	-44(%rbp), %eax
	cltq
	leaq	0(,%rax,4), %rdx
	leaq	a(%rip), %rax
	movl	$0, (%rdx,%rax)
	addl	$1, -44(%rbp)
.L4:
	cmpl	$2, -44(%rbp)
	jle	.L5
	nop
.L6:
	movq	$0, _TIG_IZ_GJeD_envp(%rip)
	nop
.L7:
	movq	$0, _TIG_IZ_GJeD_argv(%rip)
	nop
.L8:
	movl	$0, _TIG_IZ_GJeD_argc(%rip)
	nop
	nop
.L9:
.L10:
#APP
# 130 "/usr/include/stdlib.h" 1
	##_ANNOTATION_INITIALREGION_-TIG-IZ-GJeD--0
# 0 "" 2
#NO_APP
	movl	-52(%rbp), %eax
	movl	%eax, _TIG_IZ_GJeD_argc(%rip)
	movq	-64(%rbp), %rax
	movq	%rax, _TIG_IZ_GJeD_argv(%rip)
	movq	-72(%rbp), %rax
	movq	%rax, _TIG_IZ_GJeD_envp(%rip)
#APP
# 137 "/usr/include/stdlib.h" 1
	##_ANNOTATION_ATOMICREGION_-TIG-iO-GJeD-1-main--19
# 0 "" 2
#NO_APP
	movl	$24, %edi
	call	malloc@PLT
	movq	%rax, -32(%rbp)
	movq	-32(%rbp), %rax
	movq	-32(%rbp), %rdx
	movq	%rdx, 8(%rax)
	movq	-32(%rbp), %rax
	movq	-32(%rbp), %rdx
	movq	%rdx, 16(%rax)
	movq	-32(%rbp), %rax
	movq	%rax, _TIG_iO_GJeD_1_main_1_opaque_list_1(%rip)
	call	rand@PLT
	movl	%eax, -40(%rbp)
	movl	$24, %edi
	call	malloc@PLT
	movq	%rax, -24(%rbp)
	movq	-24(%rbp), %rax
	movl	$0, (%rax)
	movq	_TIG_iO_GJeD_1_main_1_opaque_list_1(%rip), %rax
	movq	8(%rax), %rdx
	movq	-24(%rbp), %rax
	movq	%rdx, 8(%rax)
	movq	_TIG_iO_GJeD_1_main_1_opaque_list_1(%rip), %rdx
	movq	-24(%rbp), %rax
	movq	%rdx, 16(%rax)
	movq	_TIG_iO_GJeD_1_main_1_opaque_list_1(%rip), %rax
	movq	8(%rax), %rax
	movq	-24(%rbp), %rdx
	movq	%rdx, 16(%rax)
	movq	_TIG_iO_GJeD_1_main_1_opaque_list_1(%rip), %rax
	movq	-24(%rbp), %rdx
	movq	%rdx, 8(%rax)
	call	rand@PLT
	movl	%eax, -36(%rbp)
	movl	$24, %edi
	call	malloc@PLT
	movq	%rax, -16(%rbp)
	movq	-16(%rbp), %rax
	movl	-36(%rbp), %edx
	movl	%edx, (%rax)
	movq	_TIG_iO_GJeD_1_main_1_opaque_list_1(%rip), %rax
	movq	8(%rax), %rdx
	movq	-16(%rbp), %rax
	movq	%rdx, 8(%rax)
	movq	_TIG_iO_GJeD_1_main_1_opaque_list_1(%rip), %rdx
	movq	-16(%rbp), %rax
	movq	%rdx, 16(%rax)
	movq	_TIG_iO_GJeD_1_main_1_opaque_list_1(%rip), %rax
	movq	8(%rax), %rax
	movq	-16(%rbp), %rdx
	movq	%rdx, 16(%rax)
	movq	_TIG_iO_GJeD_1_main_1_opaque_list_1(%rip), %rax
	movq	-16(%rbp), %rdx
	movq	%rdx, 8(%rax)
	movq	_TIG_iO_GJeD_1_main_1_opaque_list_1(%rip), %rax
	movq	8(%rax), %rax
	movq	%rax, _TIG_iO_GJeD_1_main_1_opaque_ptr_1(%rip)
	movq	_TIG_iO_GJeD_1_main_1_opaque_ptr_1(%rip), %rax
	movq	%rax, _TIG_iO_GJeD_1_main_1_opaque_ptr_2(%rip)
	nop
	nop
.L17:
	leaq	.LC0(%rip), %rax
	movq	%rax, %rdi
	movl	$0, %eax
	call	printf@PLT
	leaq	-48(%rbp), %rax
	movq	%rax, %rsi
	leaq	.LC1(%rip), %rax
	movq	%rax, %rdi
	movl	$0, %eax
	call	__isoc99_scanf@PLT
	movl	-48(%rbp), %eax
	cmpl	$4, %eax
	je	.L11
	cmpl	$4, %eax
	jg	.L12
	cmpl	$3, %eax
	je	.L13
	cmpl	$3, %eax
	jg	.L12
	cmpl	$1, %eax
	je	.L14
	cmpl	$2, %eax
	je	.L15
	jmp	.L12
.L14:
	call	insert
	jmp	.L16
.L15:
	call	delete
	jmp	.L16
.L13:
	call	display
	movq	_TIG_iO_GJeD_1_main_1_opaque_ptr_1(%rip), %rdx
	movq	_TIG_iO_GJeD_1_main_1_opaque_ptr_2(%rip), %rax
	cmpq	%rax, %rdx
	je	.L19
.L11:
	movl	$0, %edi
	call	exit@PLT
.L12:
	leaq	.LC2(%rip), %rax
	movq	%rax, %rdi
	movl	$0, %eax
	call	printf@PLT
	jmp	.L17
.L19:
	nop
.L16:
	jmp	.L17
	.cfi_endproc
.LFE0:
	.size	main, .-main
	.section	.rodata
.LC3:
	.string	"\nUnderflow"
.LC4:
	.string	"The elements are: "
.LC5:
	.string	"%d\t"
	.text
	.globl	display
	.type	display, @function
display:
.LFB3:
	.cfi_startproc
	endbr64
	pushq	%rbp
	.cfi_def_cfa_offset 16
	.cfi_offset 6, -16
	movq	%rsp, %rbp
	.cfi_def_cfa_register 6
	subq	$48, %rsp
#APP
# 53 "/usr/include/x86_64-linux-gnu/bits/uintn-identity.h" 1
	##_ANNOTATION_INITIALREGION_-TIG-iO-GJeD-1-display--16
# 0 "" 2
# 57 "/usr/include/x86_64-linux-gnu/bits/uintn-identity.h" 1
	##_ANNOTATION_ATOMICREGION_-TIG-iO-GJeD-1-display--15
# 0 "" 2
#NO_APP
	movl	$24, %edi
	call	malloc@PLT
	movq	%rax, -24(%rbp)
	movq	-24(%rbp), %rax
	movq	-24(%rbp), %rdx
	movq	%rdx, 16(%rax)
	movq	-24(%rbp), %rax
	movq	-24(%rbp), %rdx
	movq	%rdx, 8(%rax)
	movq	-24(%rbp), %rax
	movq	%rax, _TIG_iO_GJeD_1_display_1_opaque_list_1(%rip)
	call	rand@PLT
	movl	%eax, -32(%rbp)
	movl	$24, %edi
	call	malloc@PLT
	movq	%rax, -16(%rbp)
	movq	-16(%rbp), %rax
	movl	$0, (%rax)
	movq	_TIG_iO_GJeD_1_display_1_opaque_list_1(%rip), %rax
	movq	16(%rax), %rdx
	movq	-16(%rbp), %rax
	movq	%rdx, 16(%rax)
	movq	_TIG_iO_GJeD_1_display_1_opaque_list_1(%rip), %rdx
	movq	-16(%rbp), %rax
	movq	%rdx, 8(%rax)
	movq	_TIG_iO_GJeD_1_display_1_opaque_list_1(%rip), %rax
	movq	16(%rax), %rax
	movq	-16(%rbp), %rdx
	movq	%rdx, 8(%rax)
	movq	_TIG_iO_GJeD_1_display_1_opaque_list_1(%rip), %rax
	movq	-16(%rbp), %rdx
	movq	%rdx, 16(%rax)
	call	rand@PLT
	movl	%eax, -28(%rbp)
	movl	$24, %edi
	call	malloc@PLT
	movq	%rax, -8(%rbp)
	movq	-8(%rbp), %rax
	movl	-28(%rbp), %edx
	movl	%edx, (%rax)
	movq	_TIG_iO_GJeD_1_display_1_opaque_list_1(%rip), %rax
	movq	16(%rax), %rdx
	movq	-8(%rbp), %rax
	movq	%rdx, 16(%rax)
	movq	_TIG_iO_GJeD_1_display_1_opaque_list_1(%rip), %rdx
	movq	-8(%rbp), %rax
	movq	%rdx, 8(%rax)
	movq	_TIG_iO_GJeD_1_display_1_opaque_list_1(%rip), %rax
	movq	16(%rax), %rax
	movq	-8(%rbp), %rdx
	movq	%rdx, 8(%rax)
	movq	_TIG_iO_GJeD_1_display_1_opaque_list_1(%rip), %rax
	movq	-8(%rbp), %rdx
	movq	%rdx, 16(%rax)
	movq	_TIG_iO_GJeD_1_display_1_opaque_list_1(%rip), %rax
	movq	16(%rax), %rax
	movq	%rax, _TIG_iO_GJeD_1_display_1_opaque_ptr_1(%rip)
	movq	_TIG_iO_GJeD_1_display_1_opaque_ptr_1(%rip), %rax
	movq	%rax, _TIG_iO_GJeD_1_display_1_opaque_ptr_2(%rip)
	nop
	nop
	movl	rear(%rip), %eax
	cmpl	$-1, %eax
	jne	.L21
	leaq	.LC3(%rip), %rax
	movq	%rax, %rdi
	movl	$0, %eax
	call	printf@PLT
	jmp	.L22
.L21:
	movl	front(%rip), %eax
	cmpl	$3, %eax
	jne	.L23
	leaq	.LC3(%rip), %rax
	movq	%rax, %rdi
	movl	$0, %eax
	call	printf@PLT
	jmp	.L22
.L23:
	leaq	.LC4(%rip), %rax
	movq	%rax, %rdi
	movl	$0, %eax
	call	printf@PLT
.L22:
	movl	front(%rip), %eax
	movl	%eax, -36(%rbp)
	movq	_TIG_iO_GJeD_1_main_1_opaque_ptr_1(%rip), %rdx
	movq	_TIG_iO_GJeD_1_main_1_opaque_ptr_2(%rip), %rax
	cmpq	%rax, %rdx
	je	.L26
#APP
# 32 "shashankhs-05_ds_q.c" 1
	.byte 0x0,0x0,0x0,0x0,0x45,0x31
# 0 "" 2
#NO_APP
	jmp	.L20
.L27:
	movl	-36(%rbp), %eax
	cltq
	leaq	0(,%rax,4), %rdx
	leaq	a(%rip), %rax
	movl	(%rdx,%rax), %eax
	movl	%eax, %esi
	leaq	.LC5(%rip), %rax
	movq	%rax, %rdi
	movl	$0, %eax
	call	printf@PLT
	addl	$1, -36(%rbp)
.L26:
	movl	rear(%rip), %eax
	cmpl	%eax, -36(%rbp)
	jle	.L27
	nop
.L20:
	leave
	.cfi_def_cfa 7, 8
	ret
	.cfi_endproc
.LFE3:
	.size	display, .-display
	.section	.rodata
.LC6:
	.string	"\nDeleted element=%d"
	.text
	.globl	delete
	.type	delete, @function
delete:
.LFB7:
	.cfi_startproc
	endbr64
	pushq	%rbp
	.cfi_def_cfa_offset 16
	.cfi_offset 6, -16
	movq	%rsp, %rbp
	.cfi_def_cfa_register 6
	subq	$64, %rsp
#APP
# 96 "/usr/include/x86_64-linux-gnu/bits/byteswap.h" 1
	##_ANNOTATION_INITIALREGION_-TIG-iO-GJeD-1-delete--14
# 0 "" 2
# 100 "/usr/include/x86_64-linux-gnu/bits/byteswap.h" 1
	##_ANNOTATION_ATOMICREGION_-TIG-iO-GJeD-1-delete--13
# 0 "" 2
#NO_APP
	movl	$24, %edi
	call	malloc@PLT
	movq	%rax, -40(%rbp)
	movq	-40(%rbp), %rax
	movq	-40(%rbp), %rdx
	movq	%rdx, (%rax)
	movq	-40(%rbp), %rax
	movq	-40(%rbp), %rdx
	movq	%rdx, 8(%rax)
	movq	-40(%rbp), %rax
	movq	%rax, _TIG_iO_GJeD_1_delete_1_opaque_list_1(%rip)
	call	rand@PLT
	movl	%eax, -60(%rbp)
	movl	$24, %edi
	call	malloc@PLT
	movq	%rax, -32(%rbp)
	movq	-32(%rbp), %rax
	movl	$0, 16(%rax)
	movq	_TIG_iO_GJeD_1_delete_1_opaque_list_1(%rip), %rax
	movq	(%rax), %rdx
	movq	-32(%rbp), %rax
	movq	%rdx, (%rax)
	movq	_TIG_iO_GJeD_1_delete_1_opaque_list_1(%rip), %rdx
	movq	-32(%rbp), %rax
	movq	%rdx, 8(%rax)
	movq	_TIG_iO_GJeD_1_delete_1_opaque_list_1(%rip), %rax
	movq	(%rax), %rax
	movq	-32(%rbp), %rdx
	movq	%rdx, 8(%rax)
	movq	_TIG_iO_GJeD_1_delete_1_opaque_list_1(%rip), %rax
	movq	-32(%rbp), %rdx
	movq	%rdx, (%rax)
	call	rand@PLT
	movl	%eax, -56(%rbp)
	movl	$24, %edi
	call	malloc@PLT
	movq	%rax, -24(%rbp)
	movq	-24(%rbp), %rax
	movl	-56(%rbp), %edx
	movl	%edx, 16(%rax)
	movq	_TIG_iO_GJeD_1_delete_1_opaque_list_1(%rip), %rax
	movq	(%rax), %rdx
	movq	-24(%rbp), %rax
	movq	%rdx, (%rax)
	movq	_TIG_iO_GJeD_1_delete_1_opaque_list_1(%rip), %rdx
	movq	-24(%rbp), %rax
	movq	%rdx, 8(%rax)
	movq	_TIG_iO_GJeD_1_delete_1_opaque_list_1(%rip), %rax
	movq	(%rax), %rax
	movq	-24(%rbp), %rdx
	movq	%rdx, 8(%rax)
	movq	_TIG_iO_GJeD_1_delete_1_opaque_list_1(%rip), %rax
	movq	-24(%rbp), %rdx
	movq	%rdx, (%rax)
	call	rand@PLT
	movl	%eax, -52(%rbp)
	movl	$24, %edi
	call	malloc@PLT
	movq	%rax, -16(%rbp)
	movl	-52(%rbp), %eax
	leal	(%rax,%rax), %edx
	movq	-16(%rbp), %rax
	movl	%edx, 16(%rax)
	movq	_TIG_iO_GJeD_1_delete_1_opaque_list_1(%rip), %rax
	movq	(%rax), %rdx
	movq	-16(%rbp), %rax
	movq	%rdx, (%rax)
	movq	_TIG_iO_GJeD_1_delete_1_opaque_list_1(%rip), %rdx
	movq	-16(%rbp), %rax
	movq	%rdx, 8(%rax)
	movq	_TIG_iO_GJeD_1_delete_1_opaque_list_1(%rip), %rax
	movq	(%rax), %rax
	movq	-16(%rbp), %rdx
	movq	%rdx, 8(%rax)
	movq	_TIG_iO_GJeD_1_delete_1_opaque_list_1(%rip), %rax
	movq	-16(%rbp), %rdx
	movq	%rdx, (%rax)
	call	rand@PLT
	movl	%eax, -48(%rbp)
	movl	$24, %edi
	call	malloc@PLT
	movq	%rax, -8(%rbp)
	movl	-48(%rbp), %edx
	movl	%edx, %eax
	addl	%eax, %eax
	addl	%eax, %edx
	movq	-8(%rbp), %rax
	movl	%edx, 16(%rax)
	movq	_TIG_iO_GJeD_1_delete_1_opaque_list_1(%rip), %rax
	movq	(%rax), %rdx
	movq	-8(%rbp), %rax
	movq	%rdx, (%rax)
	movq	_TIG_iO_GJeD_1_delete_1_opaque_list_1(%rip), %rdx
	movq	-8(%rbp), %rax
	movq	%rdx, 8(%rax)
	movq	_TIG_iO_GJeD_1_delete_1_opaque_list_1(%rip), %rax
	movq	(%rax), %rax
	movq	-8(%rbp), %rdx
	movq	%rdx, 8(%rax)
	movq	_TIG_iO_GJeD_1_delete_1_opaque_list_1(%rip), %rax
	movq	-8(%rbp), %rdx
	movq	%rdx, (%rax)
	movq	_TIG_iO_GJeD_1_delete_1_opaque_list_1(%rip), %rax
	movq	(%rax), %rax
	movq	%rax, _TIG_iO_GJeD_1_delete_1_opaque_ptr_1(%rip)
	movq	_TIG_iO_GJeD_1_delete_1_opaque_ptr_1(%rip), %rax
	movq	%rax, _TIG_iO_GJeD_1_delete_1_opaque_ptr_2(%rip)
	movq	_TIG_iO_GJeD_1_delete_1_opaque_ptr_2(%rip), %rax
	movq	(%rax), %rax
	movq	%rax, _TIG_iO_GJeD_1_delete_1_opaque_ptr_2(%rip)
	nop
	nop
	movl	rear(%rip), %eax
	cmpl	$-1, %eax
	jne	.L30
	leaq	.LC3(%rip), %rax
	movq	%rax, %rdi
	movl	$0, %eax
	call	printf@PLT
	jmp	.L34
.L30:
	movq	_TIG_iO_GJeD_1_main_1_opaque_ptr_1(%rip), %rdx
	movq	_TIG_iO_GJeD_1_main_1_opaque_ptr_2(%rip), %rax
	cmpq	%rax, %rdx
	jne	.L34
	movl	front(%rip), %eax
	cmpl	$3, %eax
	jne	.L32
	leaq	.LC3(%rip), %rax
	movq	%rax, %rdi
	movl	$0, %eax
	call	printf@PLT
	jmp	.L34
.L32:
	movl	front(%rip), %eax
	movl	%eax, -44(%rbp)
	movl	front(%rip), %eax
	addl	$1, %eax
	movl	%eax, front(%rip)
	movl	-44(%rbp), %eax
	cltq
	leaq	0(,%rax,4), %rdx
	leaq	a(%rip), %rax
	movl	(%rdx,%rax), %eax
	movl	%eax, %esi
	leaq	.LC6(%rip), %rax
	movq	%rax, %rdi
	movl	$0, %eax
	call	printf@PLT
	nop
.L34:
	nop
	leave
	.cfi_def_cfa 7, 8
	ret
	.cfi_endproc
.LFE7:
	.size	delete, .-delete
	.section	.rodata
.LC7:
	.string	"Overflow"
	.align 8
.LC8:
	.string	"\nEnter element to be inserted:"
	.text
	.globl	insert
	.type	insert, @function
insert:
.LFB9:
	.cfi_startproc
	endbr64
	pushq	%rbp
	.cfi_def_cfa_offset 16
	.cfi_offset 6, -16
	movq	%rsp, %rbp
	.cfi_def_cfa_register 6
	subq	$32, %rsp
#APP
# 58 "/usr/include/x86_64-linux-gnu/bits/uintn-identity.h" 1
	##_ANNOTATION_INITIALREGION_-TIG-iO-GJeD-1-insert--18
# 0 "" 2
# 62 "/usr/include/x86_64-linux-gnu/bits/uintn-identity.h" 1
	##_ANNOTATION_ATOMICREGION_-TIG-iO-GJeD-1-insert--17
# 0 "" 2
#NO_APP
	movl	$24, %edi
	call	malloc@PLT
	movq	%rax, -24(%rbp)
	movq	-24(%rbp), %rax
	movq	-24(%rbp), %rdx
	movq	%rdx, 8(%rax)
	movq	-24(%rbp), %rax
	movq	-24(%rbp), %rdx
	movq	%rdx, (%rax)
	movq	-24(%rbp), %rax
	movq	%rax, _TIG_iO_GJeD_1_insert_1_opaque_list_1(%rip)
	call	rand@PLT
	movl	%eax, -32(%rbp)
	movl	$24, %edi
	call	malloc@PLT
	movq	%rax, -16(%rbp)
	movq	-16(%rbp), %rax
	movl	$0, 16(%rax)
	movq	_TIG_iO_GJeD_1_insert_1_opaque_list_1(%rip), %rax
	movq	8(%rax), %rdx
	movq	-16(%rbp), %rax
	movq	%rdx, 8(%rax)
	movq	_TIG_iO_GJeD_1_insert_1_opaque_list_1(%rip), %rdx
	movq	-16(%rbp), %rax
	movq	%rdx, (%rax)
	movq	_TIG_iO_GJeD_1_insert_1_opaque_list_1(%rip), %rax
	movq	8(%rax), %rax
	movq	-16(%rbp), %rdx
	movq	%rdx, (%rax)
	movq	_TIG_iO_GJeD_1_insert_1_opaque_list_1(%rip), %rax
	movq	-16(%rbp), %rdx
	movq	%rdx, 8(%rax)
	call	rand@PLT
	movl	%eax, -28(%rbp)
	movl	$24, %edi
	call	malloc@PLT
	movq	%rax, -8(%rbp)
	movq	-8(%rbp), %rax
	movl	-28(%rbp), %edx
	movl	%edx, 16(%rax)
	movq	_TIG_iO_GJeD_1_insert_1_opaque_list_1(%rip), %rax
	movq	8(%rax), %rdx
	movq	-8(%rbp), %rax
	movq	%rdx, 8(%rax)
	movq	_TIG_iO_GJeD_1_insert_1_opaque_list_1(%rip), %rdx
	movq	-8(%rbp), %rax
	movq	%rdx, (%rax)
	movq	_TIG_iO_GJeD_1_insert_1_opaque_list_1(%rip), %rax
	movq	8(%rax), %rax
	movq	-8(%rbp), %rdx
	movq	%rdx, (%rax)
	movq	_TIG_iO_GJeD_1_insert_1_opaque_list_1(%rip), %rax
	movq	-8(%rbp), %rdx
	movq	%rdx, 8(%rax)
	movq	_TIG_iO_GJeD_1_insert_1_opaque_list_1(%rip), %rax
	movq	8(%rax), %rax
	movq	%rax, _TIG_iO_GJeD_1_insert_1_opaque_ptr_1(%rip)
	movq	_TIG_iO_GJeD_1_insert_1_opaque_ptr_1(%rip), %rax
	movq	%rax, _TIG_iO_GJeD_1_insert_1_opaque_ptr_2(%rip)
	movq	_TIG_iO_GJeD_1_insert_1_opaque_ptr_2(%rip), %rax
	movq	8(%rax), %rax
	movq	%rax, _TIG_iO_GJeD_1_insert_1_opaque_ptr_2(%rip)
	nop
	nop
	movl	rear(%rip), %eax
	cmpl	$2, %eax
	jne	.L36
	leaq	.LC7(%rip), %rax
	movq	%rax, %rdi
	movl	$0, %eax
	call	printf@PLT
	jmp	.L39
.L36:
	movq	_TIG_iO_GJeD_1_main_1_opaque_ptr_1(%rip), %rdx
	movq	_TIG_iO_GJeD_1_main_1_opaque_ptr_2(%rip), %rax
	cmpq	%rax, %rdx
	jne	.L39
	leaq	.LC8(%rip), %rax
	movq	%rax, %rdi
	movl	$0, %eax
	call	printf@PLT
	movl	rear(%rip), %eax
	addl	$1, %eax
	movl	%eax, rear(%rip)
	movl	rear(%rip), %eax
	cltq
	leaq	0(,%rax,4), %rdx
	leaq	a(%rip), %rax
	addq	%rdx, %rax
	movq	%rax, %rsi
	leaq	.LC1(%rip), %rax
	movq	%rax, %rdi
	movl	$0, %eax
	call	__isoc99_scanf@PLT
	nop
.L39:
	nop
	leave
	.cfi_def_cfa 7, 8
	ret
	.cfi_endproc
.LFE9:
	.size	insert, .-insert
	.ident	"GCC: (Ubuntu 11.4.0-1ubuntu1~22.04) 11.4.0"
	.section	.note.GNU-stack,"",@progbits
	.section	.note.gnu.property,"a"
	.align 8
	.long	1f - 0f
	.long	4f - 1f
	.long	5
0:
	.string	"GNU"
1:
	.align 8
	.long	0xc0000002
	.long	3f - 2f
2:
	.long	0x3
3:
	.align 8
4:
