	.file	"shioimm_til_fsnav0_opaque.c"
	.text
	.globl	_TIG_iO_iMZ0_1___bswap_16_1_opaque_list_1
	.bss
	.align 8
	.type	_TIG_iO_iMZ0_1___bswap_16_1_opaque_list_1, @object
	.size	_TIG_iO_iMZ0_1___bswap_16_1_opaque_list_1, 8
_TIG_iO_iMZ0_1___bswap_16_1_opaque_list_1:
	.zero	8
	.globl	_TIG_iO_iMZ0_1___uint16_identity_1_opaque_list_2
	.align 8
	.type	_TIG_iO_iMZ0_1___uint16_identity_1_opaque_list_2, @object
	.size	_TIG_iO_iMZ0_1___uint16_identity_1_opaque_list_2, 8
_TIG_iO_iMZ0_1___uint16_identity_1_opaque_list_2:
	.zero	8
	.globl	_TIG_iO_iMZ0_1_main_1_opaque_ptr_2
	.align 8
	.type	_TIG_iO_iMZ0_1_main_1_opaque_ptr_2, @object
	.size	_TIG_iO_iMZ0_1_main_1_opaque_ptr_2, 8
_TIG_iO_iMZ0_1_main_1_opaque_ptr_2:
	.zero	8
	.globl	_TIG_iO_iMZ0_1_godown_1_opaque_list_2
	.align 8
	.type	_TIG_iO_iMZ0_1_godown_1_opaque_list_2, @object
	.size	_TIG_iO_iMZ0_1_godown_1_opaque_list_2, 8
_TIG_iO_iMZ0_1_godown_1_opaque_list_2:
	.zero	8
	.globl	_TIG_iO_iMZ0_1___uint16_identity_1_opaque_list_1
	.align 8
	.type	_TIG_iO_iMZ0_1___uint16_identity_1_opaque_list_1, @object
	.size	_TIG_iO_iMZ0_1___uint16_identity_1_opaque_list_1, 8
_TIG_iO_iMZ0_1___uint16_identity_1_opaque_list_1:
	.zero	8
	.globl	_TIG_iO_iMZ0_1_showlist_1_opaque_list_2
	.align 8
	.type	_TIG_iO_iMZ0_1_showlist_1_opaque_list_2, @object
	.size	_TIG_iO_iMZ0_1_showlist_1_opaque_list_2, 8
_TIG_iO_iMZ0_1_showlist_1_opaque_list_2:
	.zero	8
	.globl	_TIG_iO_iMZ0_1_showlist_1_opaque_ptr_1
	.align 8
	.type	_TIG_iO_iMZ0_1_showlist_1_opaque_ptr_1, @object
	.size	_TIG_iO_iMZ0_1_showlist_1_opaque_ptr_1, 8
_TIG_iO_iMZ0_1_showlist_1_opaque_ptr_1:
	.zero	8
	.globl	_TIG_iO_iMZ0_1_showlist_1_opaque_ptr_2
	.align 8
	.type	_TIG_iO_iMZ0_1_showlist_1_opaque_ptr_2, @object
	.size	_TIG_iO_iMZ0_1_showlist_1_opaque_ptr_2, 8
_TIG_iO_iMZ0_1_showlist_1_opaque_ptr_2:
	.zero	8
	.globl	termcur
	.align 32
	.type	termcur, @object
	.size	termcur, 60
termcur:
	.zero	60
	.globl	_TIG_iO_iMZ0_1___uint32_identity_1_opaque_ptr_2
	.align 8
	.type	_TIG_iO_iMZ0_1___uint32_identity_1_opaque_ptr_2, @object
	.size	_TIG_iO_iMZ0_1___uint32_identity_1_opaque_ptr_2, 8
_TIG_iO_iMZ0_1___uint32_identity_1_opaque_ptr_2:
	.zero	8
	.globl	_TIG_iO_iMZ0_1_showcwd_1_opaque_ptr_1
	.align 8
	.type	_TIG_iO_iMZ0_1_showcwd_1_opaque_ptr_1, @object
	.size	_TIG_iO_iMZ0_1_showcwd_1_opaque_ptr_1, 8
_TIG_iO_iMZ0_1_showcwd_1_opaque_ptr_1:
	.zero	8
	.globl	_TIG_iO_iMZ0_1___bswap_64_1_opaque_ptr_1
	.align 8
	.type	_TIG_iO_iMZ0_1___bswap_64_1_opaque_ptr_1, @object
	.size	_TIG_iO_iMZ0_1___bswap_64_1_opaque_ptr_1, 8
_TIG_iO_iMZ0_1___bswap_64_1_opaque_ptr_1:
	.zero	8
	.globl	_TIG_IZ_iMZ0_argv
	.align 8
	.type	_TIG_IZ_iMZ0_argv, @object
	.size	_TIG_IZ_iMZ0_argv, 8
_TIG_IZ_iMZ0_argv:
	.zero	8
	.globl	_TIG_IZ_iMZ0_envp
	.align 8
	.type	_TIG_IZ_iMZ0_envp, @object
	.size	_TIG_IZ_iMZ0_envp, 8
_TIG_IZ_iMZ0_envp:
	.zero	8
	.globl	_TIG_iO_iMZ0_1_godown_1_opaque_list_1
	.align 8
	.type	_TIG_iO_iMZ0_1_godown_1_opaque_list_1, @object
	.size	_TIG_iO_iMZ0_1_godown_1_opaque_list_1, 8
_TIG_iO_iMZ0_1_godown_1_opaque_list_1:
	.zero	8
	.globl	_TIG_iO_iMZ0_1___uint64_identity_1_opaque_ptr_1
	.align 8
	.type	_TIG_iO_iMZ0_1___uint64_identity_1_opaque_ptr_1, @object
	.size	_TIG_iO_iMZ0_1___uint64_identity_1_opaque_ptr_1, 8
_TIG_iO_iMZ0_1___uint64_identity_1_opaque_ptr_1:
	.zero	8
	.globl	_TIG_iO_iMZ0_1_showcwd_1_opaque_list_1
	.align 8
	.type	_TIG_iO_iMZ0_1_showcwd_1_opaque_list_1, @object
	.size	_TIG_iO_iMZ0_1_showcwd_1_opaque_list_1, 8
_TIG_iO_iMZ0_1_showcwd_1_opaque_list_1:
	.zero	8
	.globl	_TIG_iO_iMZ0_1___bswap_16_1_opaque_list_2
	.align 8
	.type	_TIG_iO_iMZ0_1___bswap_16_1_opaque_list_2, @object
	.size	_TIG_iO_iMZ0_1___bswap_16_1_opaque_list_2, 8
_TIG_iO_iMZ0_1___bswap_16_1_opaque_list_2:
	.zero	8
	.globl	_TIG_iO_iMZ0_1_goup_1_opaque_ptr_1
	.align 8
	.type	_TIG_iO_iMZ0_1_goup_1_opaque_ptr_1, @object
	.size	_TIG_iO_iMZ0_1_goup_1_opaque_ptr_1, 8
_TIG_iO_iMZ0_1_goup_1_opaque_ptr_1:
	.zero	8
	.globl	_TIG_iO_iMZ0_1___uint16_identity_1_opaque_ptr_1
	.align 8
	.type	_TIG_iO_iMZ0_1___uint16_identity_1_opaque_ptr_1, @object
	.size	_TIG_iO_iMZ0_1___uint16_identity_1_opaque_ptr_1, 8
_TIG_iO_iMZ0_1___uint16_identity_1_opaque_ptr_1:
	.zero	8
	.globl	_TIG_iO_iMZ0_1_main_1_opaque_list_2
	.align 8
	.type	_TIG_iO_iMZ0_1_main_1_opaque_list_2, @object
	.size	_TIG_iO_iMZ0_1_main_1_opaque_list_2, 8
_TIG_iO_iMZ0_1_main_1_opaque_list_2:
	.zero	8
	.globl	_TIG_iO_iMZ0_1___uint64_identity_1_opaque_ptr_2
	.align 8
	.type	_TIG_iO_iMZ0_1___uint64_identity_1_opaque_ptr_2, @object
	.size	_TIG_iO_iMZ0_1___uint64_identity_1_opaque_ptr_2, 8
_TIG_iO_iMZ0_1___uint64_identity_1_opaque_ptr_2:
	.zero	8
	.globl	_TIG_iO_iMZ0_1___bswap_32_1_opaque_ptr_2
	.align 8
	.type	_TIG_iO_iMZ0_1___bswap_32_1_opaque_ptr_2, @object
	.size	_TIG_iO_iMZ0_1___bswap_32_1_opaque_ptr_2, 8
_TIG_iO_iMZ0_1___bswap_32_1_opaque_ptr_2:
	.zero	8
	.globl	_TIG_iO_iMZ0_1_godown_1_opaque_ptr_2
	.align 8
	.type	_TIG_iO_iMZ0_1_godown_1_opaque_ptr_2, @object
	.size	_TIG_iO_iMZ0_1_godown_1_opaque_ptr_2, 8
_TIG_iO_iMZ0_1_godown_1_opaque_ptr_2:
	.zero	8
	.globl	_TIG_iO_iMZ0_1___uint32_identity_1_opaque_ptr_1
	.align 8
	.type	_TIG_iO_iMZ0_1___uint32_identity_1_opaque_ptr_1, @object
	.size	_TIG_iO_iMZ0_1___uint32_identity_1_opaque_ptr_1, 8
_TIG_iO_iMZ0_1___uint32_identity_1_opaque_ptr_1:
	.zero	8
	.globl	_TIG_iO_iMZ0_1_godown_1_opaque_ptr_1
	.align 8
	.type	_TIG_iO_iMZ0_1_godown_1_opaque_ptr_1, @object
	.size	_TIG_iO_iMZ0_1_godown_1_opaque_ptr_1, 8
_TIG_iO_iMZ0_1_godown_1_opaque_ptr_1:
	.zero	8
	.globl	_TIG_iO_iMZ0_1___bswap_64_1_opaque_list_1
	.align 8
	.type	_TIG_iO_iMZ0_1___bswap_64_1_opaque_list_1, @object
	.size	_TIG_iO_iMZ0_1___bswap_64_1_opaque_list_1, 8
_TIG_iO_iMZ0_1___bswap_64_1_opaque_list_1:
	.zero	8
	.globl	_TIG_iO_iMZ0_1_showcwd_1_opaque_list_2
	.align 8
	.type	_TIG_iO_iMZ0_1_showcwd_1_opaque_list_2, @object
	.size	_TIG_iO_iMZ0_1_showcwd_1_opaque_list_2, 8
_TIG_iO_iMZ0_1_showcwd_1_opaque_list_2:
	.zero	8
	.globl	_TIG_iO_iMZ0_1_goup_1_opaque_list_1
	.align 8
	.type	_TIG_iO_iMZ0_1_goup_1_opaque_list_1, @object
	.size	_TIG_iO_iMZ0_1_goup_1_opaque_list_1, 8
_TIG_iO_iMZ0_1_goup_1_opaque_list_1:
	.zero	8
	.globl	_TIG_iO_iMZ0_1___bswap_16_1_opaque_ptr_2
	.align 8
	.type	_TIG_iO_iMZ0_1___bswap_16_1_opaque_ptr_2, @object
	.size	_TIG_iO_iMZ0_1___bswap_16_1_opaque_ptr_2, 8
_TIG_iO_iMZ0_1___bswap_16_1_opaque_ptr_2:
	.zero	8
	.globl	_TIG_iO_iMZ0_1___bswap_64_1_opaque_ptr_2
	.align 8
	.type	_TIG_iO_iMZ0_1___bswap_64_1_opaque_ptr_2, @object
	.size	_TIG_iO_iMZ0_1___bswap_64_1_opaque_ptr_2, 8
_TIG_iO_iMZ0_1___bswap_64_1_opaque_ptr_2:
	.zero	8
	.globl	_TIG_iO_iMZ0_1_showlist_1_opaque_list_1
	.align 8
	.type	_TIG_iO_iMZ0_1_showlist_1_opaque_list_1, @object
	.size	_TIG_iO_iMZ0_1_showlist_1_opaque_list_1, 8
_TIG_iO_iMZ0_1_showlist_1_opaque_list_1:
	.zero	8
	.globl	_TIG_iO_iMZ0_1___bswap_32_1_opaque_list_2
	.align 8
	.type	_TIG_iO_iMZ0_1___bswap_32_1_opaque_list_2, @object
	.size	_TIG_iO_iMZ0_1___bswap_32_1_opaque_list_2, 8
_TIG_iO_iMZ0_1___bswap_32_1_opaque_list_2:
	.zero	8
	.globl	termsave
	.align 32
	.type	termsave, @object
	.size	termsave, 60
termsave:
	.zero	60
	.globl	_TIG_iO_iMZ0_1___bswap_16_1_opaque_ptr_1
	.align 8
	.type	_TIG_iO_iMZ0_1___bswap_16_1_opaque_ptr_1, @object
	.size	_TIG_iO_iMZ0_1___bswap_16_1_opaque_ptr_1, 8
_TIG_iO_iMZ0_1___bswap_16_1_opaque_ptr_1:
	.zero	8
	.globl	_TIG_iO_iMZ0_1_main_1_opaque_list_1
	.align 8
	.type	_TIG_iO_iMZ0_1_main_1_opaque_list_1, @object
	.size	_TIG_iO_iMZ0_1_main_1_opaque_list_1, 8
_TIG_iO_iMZ0_1_main_1_opaque_list_1:
	.zero	8
	.globl	_TIG_iO_iMZ0_1_goup_1_opaque_ptr_2
	.align 8
	.type	_TIG_iO_iMZ0_1_goup_1_opaque_ptr_2, @object
	.size	_TIG_iO_iMZ0_1_goup_1_opaque_ptr_2, 8
_TIG_iO_iMZ0_1_goup_1_opaque_ptr_2:
	.zero	8
	.globl	_TIG_iO_iMZ0_1_goup_1_opaque_list_2
	.align 8
	.type	_TIG_iO_iMZ0_1_goup_1_opaque_list_2, @object
	.size	_TIG_iO_iMZ0_1_goup_1_opaque_list_2, 8
_TIG_iO_iMZ0_1_goup_1_opaque_list_2:
	.zero	8
	.globl	_TIG_iO_iMZ0_1_restoreterm_1_opaque_ptr_2
	.align 8
	.type	_TIG_iO_iMZ0_1_restoreterm_1_opaque_ptr_2, @object
	.size	_TIG_iO_iMZ0_1_restoreterm_1_opaque_ptr_2, 8
_TIG_iO_iMZ0_1_restoreterm_1_opaque_ptr_2:
	.zero	8
	.globl	_TIG_iO_iMZ0_1___uint64_identity_1_opaque_list_1
	.align 8
	.type	_TIG_iO_iMZ0_1___uint64_identity_1_opaque_list_1, @object
	.size	_TIG_iO_iMZ0_1___uint64_identity_1_opaque_list_1, 8
_TIG_iO_iMZ0_1___uint64_identity_1_opaque_list_1:
	.zero	8
	.globl	_TIG_iO_iMZ0_1___uint32_identity_1_opaque_list_2
	.align 8
	.type	_TIG_iO_iMZ0_1___uint32_identity_1_opaque_list_2, @object
	.size	_TIG_iO_iMZ0_1___uint32_identity_1_opaque_list_2, 8
_TIG_iO_iMZ0_1___uint32_identity_1_opaque_list_2:
	.zero	8
	.globl	_TIG_iO_iMZ0_1_restoreterm_1_opaque_list_1
	.align 8
	.type	_TIG_iO_iMZ0_1_restoreterm_1_opaque_list_1, @object
	.size	_TIG_iO_iMZ0_1_restoreterm_1_opaque_list_1, 8
_TIG_iO_iMZ0_1_restoreterm_1_opaque_list_1:
	.zero	8
	.globl	_TIG_iO_iMZ0_1_restoreterm_1_opaque_list_2
	.align 8
	.type	_TIG_iO_iMZ0_1_restoreterm_1_opaque_list_2, @object
	.size	_TIG_iO_iMZ0_1_restoreterm_1_opaque_list_2, 8
_TIG_iO_iMZ0_1_restoreterm_1_opaque_list_2:
	.zero	8
	.globl	_TIG_iO_iMZ0_1_restoreterm_1_opaque_ptr_1
	.align 8
	.type	_TIG_iO_iMZ0_1_restoreterm_1_opaque_ptr_1, @object
	.size	_TIG_iO_iMZ0_1_restoreterm_1_opaque_ptr_1, 8
_TIG_iO_iMZ0_1_restoreterm_1_opaque_ptr_1:
	.zero	8
	.globl	_TIG_iO_iMZ0_1___bswap_32_1_opaque_ptr_1
	.align 8
	.type	_TIG_iO_iMZ0_1___bswap_32_1_opaque_ptr_1, @object
	.size	_TIG_iO_iMZ0_1___bswap_32_1_opaque_ptr_1, 8
_TIG_iO_iMZ0_1___bswap_32_1_opaque_ptr_1:
	.zero	8
	.globl	_TIG_iO_iMZ0_1___bswap_32_1_opaque_list_1
	.align 8
	.type	_TIG_iO_iMZ0_1___bswap_32_1_opaque_list_1, @object
	.size	_TIG_iO_iMZ0_1___bswap_32_1_opaque_list_1, 8
_TIG_iO_iMZ0_1___bswap_32_1_opaque_list_1:
	.zero	8
	.globl	_TIG_iO_iMZ0_1___bswap_64_1_opaque_list_2
	.align 8
	.type	_TIG_iO_iMZ0_1___bswap_64_1_opaque_list_2, @object
	.size	_TIG_iO_iMZ0_1___bswap_64_1_opaque_list_2, 8
_TIG_iO_iMZ0_1___bswap_64_1_opaque_list_2:
	.zero	8
	.globl	_TIG_IZ_iMZ0_argc
	.align 4
	.type	_TIG_IZ_iMZ0_argc, @object
	.size	_TIG_IZ_iMZ0_argc, 4
_TIG_IZ_iMZ0_argc:
	.zero	4
	.globl	_TIG_iO_iMZ0_1___uint64_identity_1_opaque_list_2
	.align 8
	.type	_TIG_iO_iMZ0_1___uint64_identity_1_opaque_list_2, @object
	.size	_TIG_iO_iMZ0_1___uint64_identity_1_opaque_list_2, 8
_TIG_iO_iMZ0_1___uint64_identity_1_opaque_list_2:
	.zero	8
	.globl	_TIG_iO_iMZ0_1___uint32_identity_1_opaque_list_1
	.align 8
	.type	_TIG_iO_iMZ0_1___uint32_identity_1_opaque_list_1, @object
	.size	_TIG_iO_iMZ0_1___uint32_identity_1_opaque_list_1, 8
_TIG_iO_iMZ0_1___uint32_identity_1_opaque_list_1:
	.zero	8
	.globl	_TIG_iO_iMZ0_1_main_1_opaque_ptr_1
	.align 8
	.type	_TIG_iO_iMZ0_1_main_1_opaque_ptr_1, @object
	.size	_TIG_iO_iMZ0_1_main_1_opaque_ptr_1, 8
_TIG_iO_iMZ0_1_main_1_opaque_ptr_1:
	.zero	8
	.globl	_TIG_iO_iMZ0_1___uint16_identity_1_opaque_ptr_2
	.align 8
	.type	_TIG_iO_iMZ0_1___uint16_identity_1_opaque_ptr_2, @object
	.size	_TIG_iO_iMZ0_1___uint16_identity_1_opaque_ptr_2, 8
_TIG_iO_iMZ0_1___uint16_identity_1_opaque_ptr_2:
	.zero	8
	.globl	_TIG_iO_iMZ0_1_showcwd_1_opaque_ptr_2
	.align 8
	.type	_TIG_iO_iMZ0_1_showcwd_1_opaque_ptr_2, @object
	.size	_TIG_iO_iMZ0_1_showcwd_1_opaque_ptr_2, 8
_TIG_iO_iMZ0_1_showcwd_1_opaque_ptr_2:
	.zero	8
	.section	.rodata
.LC0:
	.string	"atexit"
.LC1:
	.string	"unknown command '%c'\n"
	.text
	.globl	main
	.type	main, @function
main:
.LFB2:
	.cfi_startproc
	endbr64
	pushq	%rbp
	.cfi_def_cfa_offset 16
	.cfi_offset 6, -16
	movq	%rsp, %rbp
	.cfi_def_cfa_register 6
	subq	$80, %rsp
	movl	%edi, -52(%rbp)
	movq	%rsi, -64(%rbp)
	movq	%rdx, -72(%rbp)
	movl	$0, termcur(%rip)
	movl	$0, 4+termcur(%rip)
	movl	$0, 8+termcur(%rip)
	movl	$0, 12+termcur(%rip)
	movb	$0, 16+termcur(%rip)
	movb	$0, 17+termcur(%rip)
	movb	$0, 18+termcur(%rip)
	movb	$0, 19+termcur(%rip)
	movb	$0, 20+termcur(%rip)
	movb	$0, 21+termcur(%rip)
	movb	$0, 22+termcur(%rip)
	movb	$0, 23+termcur(%rip)
	movb	$0, 24+termcur(%rip)
	movb	$0, 25+termcur(%rip)
	movb	$0, 26+termcur(%rip)
	movb	$0, 27+termcur(%rip)
	movb	$0, 28+termcur(%rip)
	movb	$0, 29+termcur(%rip)
	movb	$0, 30+termcur(%rip)
	movb	$0, 31+termcur(%rip)
	movb	$0, 32+termcur(%rip)
	movb	$0, 33+termcur(%rip)
	movb	$0, 34+termcur(%rip)
	movb	$0, 35+termcur(%rip)
	movb	$0, 36+termcur(%rip)
	movb	$0, 37+termcur(%rip)
	movb	$0, 38+termcur(%rip)
	movb	$0, 39+termcur(%rip)
	movb	$0, 40+termcur(%rip)
	movb	$0, 41+termcur(%rip)
	movb	$0, 42+termcur(%rip)
	movb	$0, 43+termcur(%rip)
	movb	$0, 44+termcur(%rip)
	movb	$0, 45+termcur(%rip)
	movb	$0, 46+termcur(%rip)
	movb	$0, 47+termcur(%rip)
	movb	$0, 48+termcur(%rip)
	movl	$0, 52+termcur(%rip)
	movl	$0, 56+termcur(%rip)
	nop
.L2:
	movl	$0, termsave(%rip)
	movl	$0, 4+termsave(%rip)
	movl	$0, 8+termsave(%rip)
	movl	$0, 12+termsave(%rip)
	movb	$0, 16+termsave(%rip)
	movb	$0, 17+termsave(%rip)
	movb	$0, 18+termsave(%rip)
	movb	$0, 19+termsave(%rip)
	movb	$0, 20+termsave(%rip)
	movb	$0, 21+termsave(%rip)
	movb	$0, 22+termsave(%rip)
	movb	$0, 23+termsave(%rip)
	movb	$0, 24+termsave(%rip)
	movb	$0, 25+termsave(%rip)
	movb	$0, 26+termsave(%rip)
	movb	$0, 27+termsave(%rip)
	movb	$0, 28+termsave(%rip)
	movb	$0, 29+termsave(%rip)
	movb	$0, 30+termsave(%rip)
	movb	$0, 31+termsave(%rip)
	movb	$0, 32+termsave(%rip)
	movb	$0, 33+termsave(%rip)
	movb	$0, 34+termsave(%rip)
	movb	$0, 35+termsave(%rip)
	movb	$0, 36+termsave(%rip)
	movb	$0, 37+termsave(%rip)
	movb	$0, 38+termsave(%rip)
	movb	$0, 39+termsave(%rip)
	movb	$0, 40+termsave(%rip)
	movb	$0, 41+termsave(%rip)
	movb	$0, 42+termsave(%rip)
	movb	$0, 43+termsave(%rip)
	movb	$0, 44+termsave(%rip)
	movb	$0, 45+termsave(%rip)
	movb	$0, 46+termsave(%rip)
	movb	$0, 47+termsave(%rip)
	movb	$0, 48+termsave(%rip)
	movl	$0, 52+termsave(%rip)
	movl	$0, 56+termsave(%rip)
	nop
.L3:
	movq	$0, _TIG_IZ_iMZ0_envp(%rip)
	nop
.L4:
	movq	$0, _TIG_IZ_iMZ0_argv(%rip)
	nop
.L5:
	movl	$0, _TIG_IZ_iMZ0_argc(%rip)
	nop
	nop
.L6:
.L7:
#APP
# 171 "/usr/include/x86_64-linux-gnu/bits/uintn-identity.h" 1
	##_ANNOTATION_INITIALREGION_-TIG-IZ-iMZ0--0
# 0 "" 2
#NO_APP
	movl	-52(%rbp), %eax
	movl	%eax, _TIG_IZ_iMZ0_argc(%rip)
	movq	-64(%rbp), %rax
	movq	%rax, _TIG_IZ_iMZ0_argv(%rip)
	movq	-72(%rbp), %rax
	movq	%rax, _TIG_IZ_iMZ0_envp(%rip)
#APP
# 178 "/usr/include/x86_64-linux-gnu/bits/uintn-identity.h" 1
	##_ANNOTATION_ATOMICREGION_-TIG-iO-iMZ0-1-main--17
# 0 "" 2
#NO_APP
	movl	$24, %edi
	call	malloc@PLT
	movq	%rax, -24(%rbp)
	movq	-24(%rbp), %rax
	movq	-24(%rbp), %rdx
	movq	%rdx, 8(%rax)
	movq	-24(%rbp), %rax
	movq	-24(%rbp), %rdx
	movq	%rdx, (%rax)
	movq	-24(%rbp), %rax
	movq	%rax, _TIG_iO_iMZ0_1_main_1_opaque_list_1(%rip)
	call	rand@PLT
	movl	%eax, -40(%rbp)
	movl	$24, %edi
	call	malloc@PLT
	movq	%rax, -16(%rbp)
	movq	-16(%rbp), %rax
	movl	$0, 16(%rax)
	movq	_TIG_iO_iMZ0_1_main_1_opaque_list_1(%rip), %rax
	movq	8(%rax), %rdx
	movq	-16(%rbp), %rax
	movq	%rdx, 8(%rax)
	movq	_TIG_iO_iMZ0_1_main_1_opaque_list_1(%rip), %rdx
	movq	-16(%rbp), %rax
	movq	%rdx, (%rax)
	movq	_TIG_iO_iMZ0_1_main_1_opaque_list_1(%rip), %rax
	movq	8(%rax), %rax
	movq	-16(%rbp), %rdx
	movq	%rdx, (%rax)
	movq	_TIG_iO_iMZ0_1_main_1_opaque_list_1(%rip), %rax
	movq	-16(%rbp), %rdx
	movq	%rdx, 8(%rax)
	call	rand@PLT
	movl	%eax, -36(%rbp)
	movl	$24, %edi
	call	malloc@PLT
	movq	%rax, -8(%rbp)
	movq	-8(%rbp), %rax
	movl	-36(%rbp), %edx
	movl	%edx, 16(%rax)
	movq	_TIG_iO_iMZ0_1_main_1_opaque_list_1(%rip), %rax
	movq	8(%rax), %rdx
	movq	-8(%rbp), %rax
	movq	%rdx, 8(%rax)
	movq	_TIG_iO_iMZ0_1_main_1_opaque_list_1(%rip), %rdx
	movq	-8(%rbp), %rax
	movq	%rdx, (%rax)
	movq	_TIG_iO_iMZ0_1_main_1_opaque_list_1(%rip), %rax
	movq	8(%rax), %rax
	movq	-8(%rbp), %rdx
	movq	%rdx, (%rax)
	movq	_TIG_iO_iMZ0_1_main_1_opaque_list_1(%rip), %rax
	movq	-8(%rbp), %rdx
	movq	%rdx, 8(%rax)
	movq	_TIG_iO_iMZ0_1_main_1_opaque_list_1(%rip), %rax
	movq	8(%rax), %rax
	movq	%rax, _TIG_iO_iMZ0_1_main_1_opaque_ptr_1(%rip)
	movq	_TIG_iO_iMZ0_1_main_1_opaque_ptr_1(%rip), %rax
	movq	%rax, _TIG_iO_iMZ0_1_main_1_opaque_ptr_2(%rip)
	movq	_TIG_iO_iMZ0_1_main_1_opaque_ptr_2(%rip), %rax
	movq	8(%rax), %rax
	movq	%rax, _TIG_iO_iMZ0_1_main_1_opaque_ptr_2(%rip)
	nop
	nop
	leaq	termsave(%rip), %rax
	movq	%rax, %rsi
	movl	$0, %edi
	call	tcgetattr@PLT
	movq	termsave(%rip), %rax
	movq	8+termsave(%rip), %rdx
	movq	%rax, termcur(%rip)
	movq	%rdx, 8+termcur(%rip)
	movq	16+termsave(%rip), %rax
	movq	24+termsave(%rip), %rdx
	movq	%rax, 16+termcur(%rip)
	movq	%rdx, 24+termcur(%rip)
	movq	32+termsave(%rip), %rax
	movq	40+termsave(%rip), %rdx
	movq	%rax, 32+termcur(%rip)
	movq	%rdx, 40+termcur(%rip)
	movq	48+termsave(%rip), %rax
	movq	%rax, 48+termcur(%rip)
	movl	56+termsave(%rip), %eax
	movl	%eax, 56+termcur(%rip)
	leaq	restoreterm(%rip), %rax
	movq	%rax, %rdi
	call	atexit@PLT
	movl	%eax, -32(%rbp)
	cmpl	$0, -32(%rbp)
	je	.L8
	movq	_TIG_iO_iMZ0_1_showlist_1_opaque_ptr_1(%rip), %rdx
	movq	_TIG_iO_iMZ0_1_showlist_1_opaque_ptr_2(%rip), %rax
	cmpq	%rax, %rdx
	jne	.L9
	call	restoreterm
.L9:
	leaq	.LC0(%rip), %rax
	movq	%rax, %rdi
	call	perror@PLT
	movl	$1, %edi
	call	exit@PLT
.L8:
	movl	12+termcur(%rip), %eax
	andl	$-11, %eax
	movl	%eax, 12+termcur(%rip)
	movb	$1, 23+termcur(%rip)
	movb	$0, 22+termcur(%rip)
	leaq	termcur(%rip), %rax
	movq	%rax, %rdx
	movl	$0, %esi
	movl	$0, %edi
	call	tcsetattr@PLT
	movq	stdin(%rip), %rax
	movl	$0, %esi
	movq	%rax, %rdi
	call	setbuf@PLT
.L17:
	call	getchar@PLT
	movl	%eax, -28(%rbp)
	cmpl	$117, -28(%rbp)
	je	.L10
	cmpl	$117, -28(%rbp)
	jg	.L11
	cmpl	$113, -28(%rbp)
	je	.L12
	cmpl	$113, -28(%rbp)
	jg	.L11
	cmpl	$108, -28(%rbp)
	je	.L13
	cmpl	$108, -28(%rbp)
	jg	.L11
	cmpl	$63, -28(%rbp)
	je	.L14
	cmpl	$100, -28(%rbp)
	je	.L15
	jmp	.L11
.L13:
	call	showlist
	jmp	.L16
.L10:
	call	goup
	call	showcwd
	jmp	.L16
.L15:
	call	godown
	call	showcwd
	jmp	.L16
.L14:
	call	showcwd
	jmp	.L16
.L12:
	movl	$0, %edi
	call	exit@PLT
.L11:
	movq	stderr(%rip), %rax
	movl	-28(%rbp), %edx
	leaq	.LC1(%rip), %rcx
	movq	%rcx, %rsi
	movq	%rax, %rdi
	movl	$0, %eax
	call	fprintf@PLT
	nop
.L16:
	jmp	.L17
	.cfi_endproc
.LFE2:
	.size	main, .-main
	.section	.rodata
.LC2:
	.string	"."
.LC3:
	.string	"cannot open directory.\n"
.LC4:
	.string	"\nreaddir"
	.text
	.globl	showlist
	.type	showlist, @function
showlist:
.LFB3:
	.cfi_startproc
	endbr64
	pushq	%rbp
	.cfi_def_cfa_offset 16
	.cfi_offset 6, -16
	movq	%rsp, %rbp
	.cfi_def_cfa_register 6
	subq	$80, %rsp
#APP
# 150 "shioimm_til_fsnav0.c" 1
	##_ANNOTATION_INITIALREGION_-TIG-iO-iMZ0-1-showlist--24
# 0 "" 2
# 154 "shioimm_til_fsnav0.c" 1
	##_ANNOTATION_ATOMICREGION_-TIG-iO-iMZ0-1-showlist--23
# 0 "" 2
#NO_APP
	movl	$24, %edi
	call	malloc@PLT
	movq	%rax, -64(%rbp)
	movq	-64(%rbp), %rax
	movq	-64(%rbp), %rdx
	movq	%rdx, (%rax)
	movq	-64(%rbp), %rax
	movq	-64(%rbp), %rdx
	movq	%rdx, 8(%rax)
	movq	-64(%rbp), %rax
	movq	%rax, _TIG_iO_iMZ0_1_showlist_1_opaque_list_1(%rip)
	call	rand@PLT
	movl	%eax, -76(%rbp)
	movl	$24, %edi
	call	malloc@PLT
	movq	%rax, -56(%rbp)
	movq	-56(%rbp), %rax
	movl	$0, 16(%rax)
	movq	_TIG_iO_iMZ0_1_showlist_1_opaque_list_1(%rip), %rax
	movq	(%rax), %rdx
	movq	-56(%rbp), %rax
	movq	%rdx, (%rax)
	movq	_TIG_iO_iMZ0_1_showlist_1_opaque_list_1(%rip), %rdx
	movq	-56(%rbp), %rax
	movq	%rdx, 8(%rax)
	movq	_TIG_iO_iMZ0_1_showlist_1_opaque_list_1(%rip), %rax
	movq	(%rax), %rax
	movq	-56(%rbp), %rdx
	movq	%rdx, 8(%rax)
	movq	_TIG_iO_iMZ0_1_showlist_1_opaque_list_1(%rip), %rax
	movq	-56(%rbp), %rdx
	movq	%rdx, (%rax)
	call	rand@PLT
	movl	%eax, -72(%rbp)
	movl	$24, %edi
	call	malloc@PLT
	movq	%rax, -48(%rbp)
	movq	-48(%rbp), %rax
	movl	-72(%rbp), %edx
	movl	%edx, 16(%rax)
	movq	_TIG_iO_iMZ0_1_showlist_1_opaque_list_1(%rip), %rax
	movq	(%rax), %rdx
	movq	-48(%rbp), %rax
	movq	%rdx, (%rax)
	movq	_TIG_iO_iMZ0_1_showlist_1_opaque_list_1(%rip), %rdx
	movq	-48(%rbp), %rax
	movq	%rdx, 8(%rax)
	movq	_TIG_iO_iMZ0_1_showlist_1_opaque_list_1(%rip), %rax
	movq	(%rax), %rax
	movq	-48(%rbp), %rdx
	movq	%rdx, 8(%rax)
	movq	_TIG_iO_iMZ0_1_showlist_1_opaque_list_1(%rip), %rax
	movq	-48(%rbp), %rdx
	movq	%rdx, (%rax)
	call	rand@PLT
	movl	%eax, -68(%rbp)
	movl	$24, %edi
	call	malloc@PLT
	movq	%rax, -40(%rbp)
	movl	-68(%rbp), %eax
	leal	(%rax,%rax), %edx
	movq	-40(%rbp), %rax
	movl	%edx, 16(%rax)
	movq	_TIG_iO_iMZ0_1_showlist_1_opaque_list_1(%rip), %rax
	movq	(%rax), %rdx
	movq	-40(%rbp), %rax
	movq	%rdx, (%rax)
	movq	_TIG_iO_iMZ0_1_showlist_1_opaque_list_1(%rip), %rdx
	movq	-40(%rbp), %rax
	movq	%rdx, 8(%rax)
	movq	_TIG_iO_iMZ0_1_showlist_1_opaque_list_1(%rip), %rax
	movq	(%rax), %rax
	movq	-40(%rbp), %rdx
	movq	%rdx, 8(%rax)
	movq	_TIG_iO_iMZ0_1_showlist_1_opaque_list_1(%rip), %rax
	movq	-40(%rbp), %rdx
	movq	%rdx, (%rax)
	movq	_TIG_iO_iMZ0_1_showlist_1_opaque_list_1(%rip), %rax
	movq	(%rax), %rax
	movq	%rax, _TIG_iO_iMZ0_1_showlist_1_opaque_ptr_1(%rip)
	movq	_TIG_iO_iMZ0_1_showlist_1_opaque_ptr_1(%rip), %rax
	movq	%rax, _TIG_iO_iMZ0_1_showlist_1_opaque_ptr_2(%rip)
	movq	_TIG_iO_iMZ0_1_showlist_1_opaque_ptr_2(%rip), %rax
	movq	(%rax), %rax
	movq	%rax, _TIG_iO_iMZ0_1_showlist_1_opaque_ptr_2(%rip)
	nop
	nop
	leaq	.LC2(%rip), %rax
	movq	%rax, %rdi
	call	opendir@PLT
	movq	%rax, -32(%rbp)
	cmpq	$0, -32(%rbp)
	jne	.L19
	movq	stderr(%rip), %rax
	movq	%rax, %rcx
	movl	$23, %edx
	movl	$1, %esi
	leaq	.LC3(%rip), %rax
	movq	%rax, %rdi
	call	fwrite@PLT
	jmp	.L18
.L19:
	call	__errno_location@PLT
	movq	%rax, -24(%rbp)
	movq	-24(%rbp), %rax
	movl	$0, (%rax)
.L23:
	movq	-32(%rbp), %rax
	movq	%rax, %rdi
	call	readdir@PLT
	movq	%rax, -16(%rbp)
	cmpq	$0, -16(%rbp)
	je	.L30
	movq	-16(%rbp), %rax
	addq	$19, %rax
	movq	%rax, %rdi
	call	puts@PLT
	jmp	.L23
.L30:
	nop
	call	__errno_location@PLT
	movq	%rax, -8(%rbp)
	movq	_TIG_iO_iMZ0_1_showlist_1_opaque_ptr_1(%rip), %rdx
	movq	_TIG_iO_iMZ0_1_showlist_1_opaque_ptr_2(%rip), %rax
	cmpq	%rax, %rdx
	jne	.L24
	jmp	.L25
.L26:
	movl	-68(%rbp), %eax
	orl	$10, %eax
	movl	%eax, %edi
	call	putchar@PLT
.L25:
	movq	-8(%rbp), %rax
	movl	(%rax), %eax
	testl	%eax, %eax
	sete	%al
	movzbl	%al, %eax
	cmpl	%eax, -72(%rbp)
	je	.L26
	jmp	.L27
.L24:
	movq	-8(%rbp), %rax
	movl	(%rax), %eax
	testl	%eax, %eax
	jne	.L28
	movl	$10, %edi
	call	putchar@PLT
	jmp	.L27
.L28:
	leaq	.LC4(%rip), %rax
	movq	%rax, %rdi
	call	perror@PLT
.L27:
	movq	-32(%rbp), %rax
	movq	%rax, %rdi
	call	closedir@PLT
	nop
.L18:
	leave
	.cfi_def_cfa 7, 8
	ret
	.cfi_endproc
.LFE3:
	.size	showlist, .-showlist
	.section	.rodata
.LC5:
	.string	".."
	.text
	.globl	goup
	.type	goup, @function
goup:
.LFB4:
	.cfi_startproc
	endbr64
	pushq	%rbp
	.cfi_def_cfa_offset 16
	.cfi_offset 6, -16
	movq	%rsp, %rbp
	.cfi_def_cfa_register 6
	subq	$32, %rsp
#APP
# 65 "shioimm_til_fsnav0.c" 1
	##_ANNOTATION_INITIALREGION_-TIG-iO-iMZ0-1-goup--16
# 0 "" 2
# 69 "shioimm_til_fsnav0.c" 1
	##_ANNOTATION_ATOMICREGION_-TIG-iO-iMZ0-1-goup--15
# 0 "" 2
#NO_APP
	movl	$24, %edi
	call	malloc@PLT
	movq	%rax, -24(%rbp)
	movq	-24(%rbp), %rax
	movq	-24(%rbp), %rdx
	movq	%rdx, 16(%rax)
	movq	-24(%rbp), %rax
	movq	-24(%rbp), %rdx
	movq	%rdx, 8(%rax)
	movq	-24(%rbp), %rax
	movq	%rax, _TIG_iO_iMZ0_1_goup_1_opaque_list_1(%rip)
	call	rand@PLT
	movl	%eax, -32(%rbp)
	movl	$24, %edi
	call	malloc@PLT
	movq	%rax, -16(%rbp)
	movq	-16(%rbp), %rax
	movl	$0, (%rax)
	movq	_TIG_iO_iMZ0_1_goup_1_opaque_list_1(%rip), %rax
	movq	16(%rax), %rdx
	movq	-16(%rbp), %rax
	movq	%rdx, 16(%rax)
	movq	_TIG_iO_iMZ0_1_goup_1_opaque_list_1(%rip), %rdx
	movq	-16(%rbp), %rax
	movq	%rdx, 8(%rax)
	movq	_TIG_iO_iMZ0_1_goup_1_opaque_list_1(%rip), %rax
	movq	16(%rax), %rax
	movq	-16(%rbp), %rdx
	movq	%rdx, 8(%rax)
	movq	_TIG_iO_iMZ0_1_goup_1_opaque_list_1(%rip), %rax
	movq	-16(%rbp), %rdx
	movq	%rdx, 16(%rax)
	call	rand@PLT
	movl	%eax, -28(%rbp)
	movl	$24, %edi
	call	malloc@PLT
	movq	%rax, -8(%rbp)
	movq	-8(%rbp), %rax
	movl	-28(%rbp), %edx
	movl	%edx, (%rax)
	movq	_TIG_iO_iMZ0_1_goup_1_opaque_list_1(%rip), %rax
	movq	16(%rax), %rdx
	movq	-8(%rbp), %rax
	movq	%rdx, 16(%rax)
	movq	_TIG_iO_iMZ0_1_goup_1_opaque_list_1(%rip), %rdx
	movq	-8(%rbp), %rax
	movq	%rdx, 8(%rax)
	movq	_TIG_iO_iMZ0_1_goup_1_opaque_list_1(%rip), %rax
	movq	16(%rax), %rax
	movq	-8(%rbp), %rdx
	movq	%rdx, 8(%rax)
	movq	_TIG_iO_iMZ0_1_goup_1_opaque_list_1(%rip), %rax
	movq	-8(%rbp), %rdx
	movq	%rdx, 16(%rax)
	movq	_TIG_iO_iMZ0_1_goup_1_opaque_list_1(%rip), %rax
	movq	16(%rax), %rax
	movq	%rax, _TIG_iO_iMZ0_1_goup_1_opaque_ptr_1(%rip)
	movq	_TIG_iO_iMZ0_1_goup_1_opaque_ptr_1(%rip), %rax
	movq	%rax, _TIG_iO_iMZ0_1_goup_1_opaque_ptr_2(%rip)
	nop
	nop
	leaq	.LC5(%rip), %rax
	movq	%rax, %rdi
	call	chdir@PLT
	movq	_TIG_iO_iMZ0_1_showlist_1_opaque_ptr_1(%rip), %rdx
	movq	_TIG_iO_iMZ0_1_showlist_1_opaque_ptr_2(%rip), %rax
	cmpq	%rax, %rdx
	nop
	leave
	.cfi_def_cfa 7, 8
	ret
	.cfi_endproc
.LFE4:
	.size	goup, .-goup
	.globl	restoreterm
	.type	restoreterm, @function
restoreterm:
.LFB9:
	.cfi_startproc
	endbr64
	pushq	%rbp
	.cfi_def_cfa_offset 16
	.cfi_offset 6, -16
	movq	%rsp, %rbp
	.cfi_def_cfa_register 6
	subq	$32, %rsp
#APP
# 91 "/usr/include/x86_64-linux-gnu/bits/byteswap.h" 1
	##_ANNOTATION_INITIALREGION_-TIG-iO-iMZ0-1-restoreterm--20
# 0 "" 2
# 95 "/usr/include/x86_64-linux-gnu/bits/byteswap.h" 1
	##_ANNOTATION_ATOMICREGION_-TIG-iO-iMZ0-1-restoreterm--19
# 0 "" 2
#NO_APP
	movl	$24, %edi
	call	malloc@PLT
	movq	%rax, -24(%rbp)
	movq	-24(%rbp), %rax
	movq	-24(%rbp), %rdx
	movq	%rdx, 8(%rax)
	movq	-24(%rbp), %rax
	movq	-24(%rbp), %rdx
	movq	%rdx, 16(%rax)
	movq	-24(%rbp), %rax
	movq	%rax, _TIG_iO_iMZ0_1_restoreterm_1_opaque_list_1(%rip)
	call	rand@PLT
	movl	%eax, -32(%rbp)
	movl	$24, %edi
	call	malloc@PLT
	movq	%rax, -16(%rbp)
	movq	-16(%rbp), %rax
	movl	$0, (%rax)
	movq	_TIG_iO_iMZ0_1_restoreterm_1_opaque_list_1(%rip), %rax
	movq	8(%rax), %rdx
	movq	-16(%rbp), %rax
	movq	%rdx, 8(%rax)
	movq	_TIG_iO_iMZ0_1_restoreterm_1_opaque_list_1(%rip), %rdx
	movq	-16(%rbp), %rax
	movq	%rdx, 16(%rax)
	movq	_TIG_iO_iMZ0_1_restoreterm_1_opaque_list_1(%rip), %rax
	movq	8(%rax), %rax
	movq	-16(%rbp), %rdx
	movq	%rdx, 16(%rax)
	movq	_TIG_iO_iMZ0_1_restoreterm_1_opaque_list_1(%rip), %rax
	movq	-16(%rbp), %rdx
	movq	%rdx, 8(%rax)
	call	rand@PLT
	movl	%eax, -28(%rbp)
	movl	$24, %edi
	call	malloc@PLT
	movq	%rax, -8(%rbp)
	movq	-8(%rbp), %rax
	movl	-28(%rbp), %edx
	movl	%edx, (%rax)
	movq	_TIG_iO_iMZ0_1_restoreterm_1_opaque_list_1(%rip), %rax
	movq	8(%rax), %rdx
	movq	-8(%rbp), %rax
	movq	%rdx, 8(%rax)
	movq	_TIG_iO_iMZ0_1_restoreterm_1_opaque_list_1(%rip), %rdx
	movq	-8(%rbp), %rax
	movq	%rdx, 16(%rax)
	movq	_TIG_iO_iMZ0_1_restoreterm_1_opaque_list_1(%rip), %rax
	movq	8(%rax), %rax
	movq	-8(%rbp), %rdx
	movq	%rdx, 16(%rax)
	movq	_TIG_iO_iMZ0_1_restoreterm_1_opaque_list_1(%rip), %rax
	movq	-8(%rbp), %rdx
	movq	%rdx, 8(%rax)
	movq	_TIG_iO_iMZ0_1_restoreterm_1_opaque_list_1(%rip), %rax
	movq	8(%rax), %rax
	movq	%rax, _TIG_iO_iMZ0_1_restoreterm_1_opaque_ptr_1(%rip)
	movq	_TIG_iO_iMZ0_1_restoreterm_1_opaque_ptr_1(%rip), %rax
	movq	%rax, _TIG_iO_iMZ0_1_restoreterm_1_opaque_ptr_2(%rip)
	nop
	nop
	movq	_TIG_iO_iMZ0_1_showlist_1_opaque_ptr_1(%rip), %rdx
	movq	_TIG_iO_iMZ0_1_showlist_1_opaque_ptr_2(%rip), %rax
	cmpq	%rax, %rdx
	jne	.L35
	leaq	60+termsave(%rip), %rax
	movq	%rax, %rdx
	movl	$6, %esi
	movl	$10, %edi
	call	tcsetattr@PLT
	jmp	.L34
.L35:
	leaq	termsave(%rip), %rax
	movq	%rax, %rdx
	movl	$0, %esi
	movl	$0, %edi
	call	tcsetattr@PLT
	nop
.L34:
	leave
	.cfi_def_cfa 7, 8
	ret
	.cfi_endproc
.LFE9:
	.size	restoreterm, .-restoreterm
	.section	.rodata
.LC6:
	.string	"directory? "
.LC7:
	.string	"chdir"
	.text
	.globl	godown
	.type	godown, @function
godown:
.LFB10:
	.cfi_startproc
	endbr64
	pushq	%rbp
	.cfi_def_cfa_offset 16
	.cfi_offset 6, -16
	movq	%rsp, %rbp
	.cfi_def_cfa_register 6
	subq	$4096, %rsp
	orq	$0, (%rsp)
	subq	$96, %rsp
	movq	%fs:40, %rax
	movq	%rax, -8(%rbp)
	xorl	%eax, %eax
#APP
# 47 "shioimm_til_fsnav0.c" 1
	##_ANNOTATION_INITIALREGION_-TIG-iO-iMZ0-1-godown--14
# 0 "" 2
# 51 "shioimm_til_fsnav0.c" 1
	##_ANNOTATION_ATOMICREGION_-TIG-iO-iMZ0-1-godown--13
# 0 "" 2
#NO_APP
	movl	$24, %edi
	call	malloc@PLT
	movq	%rax, -4160(%rbp)
	movq	-4160(%rbp), %rax
	movq	-4160(%rbp), %rdx
	movq	%rdx, (%rax)
	movq	-4160(%rbp), %rax
	movq	-4160(%rbp), %rdx
	movq	%rdx, 8(%rax)
	movq	-4160(%rbp), %rax
	movq	%rax, _TIG_iO_iMZ0_1_godown_1_opaque_list_1(%rip)
	call	rand@PLT
	movl	%eax, -4180(%rbp)
	movl	$24, %edi
	call	malloc@PLT
	movq	%rax, -4152(%rbp)
	movq	-4152(%rbp), %rax
	movl	$0, 16(%rax)
	movq	_TIG_iO_iMZ0_1_godown_1_opaque_list_1(%rip), %rax
	movq	(%rax), %rdx
	movq	-4152(%rbp), %rax
	movq	%rdx, (%rax)
	movq	_TIG_iO_iMZ0_1_godown_1_opaque_list_1(%rip), %rdx
	movq	-4152(%rbp), %rax
	movq	%rdx, 8(%rax)
	movq	_TIG_iO_iMZ0_1_godown_1_opaque_list_1(%rip), %rax
	movq	(%rax), %rax
	movq	-4152(%rbp), %rdx
	movq	%rdx, 8(%rax)
	movq	_TIG_iO_iMZ0_1_godown_1_opaque_list_1(%rip), %rax
	movq	-4152(%rbp), %rdx
	movq	%rdx, (%rax)
	call	rand@PLT
	movl	%eax, -4176(%rbp)
	movl	$24, %edi
	call	malloc@PLT
	movq	%rax, -4144(%rbp)
	movq	-4144(%rbp), %rax
	movl	-4176(%rbp), %edx
	movl	%edx, 16(%rax)
	movq	_TIG_iO_iMZ0_1_godown_1_opaque_list_1(%rip), %rax
	movq	(%rax), %rdx
	movq	-4144(%rbp), %rax
	movq	%rdx, (%rax)
	movq	_TIG_iO_iMZ0_1_godown_1_opaque_list_1(%rip), %rdx
	movq	-4144(%rbp), %rax
	movq	%rdx, 8(%rax)
	movq	_TIG_iO_iMZ0_1_godown_1_opaque_list_1(%rip), %rax
	movq	(%rax), %rax
	movq	-4144(%rbp), %rdx
	movq	%rdx, 8(%rax)
	movq	_TIG_iO_iMZ0_1_godown_1_opaque_list_1(%rip), %rax
	movq	-4144(%rbp), %rdx
	movq	%rdx, (%rax)
	call	rand@PLT
	movl	%eax, -4172(%rbp)
	movl	$24, %edi
	call	malloc@PLT
	movq	%rax, -4136(%rbp)
	movl	-4172(%rbp), %eax
	leal	(%rax,%rax), %edx
	movq	-4136(%rbp), %rax
	movl	%edx, 16(%rax)
	movq	_TIG_iO_iMZ0_1_godown_1_opaque_list_1(%rip), %rax
	movq	(%rax), %rdx
	movq	-4136(%rbp), %rax
	movq	%rdx, (%rax)
	movq	_TIG_iO_iMZ0_1_godown_1_opaque_list_1(%rip), %rdx
	movq	-4136(%rbp), %rax
	movq	%rdx, 8(%rax)
	movq	_TIG_iO_iMZ0_1_godown_1_opaque_list_1(%rip), %rax
	movq	(%rax), %rax
	movq	-4136(%rbp), %rdx
	movq	%rdx, 8(%rax)
	movq	_TIG_iO_iMZ0_1_godown_1_opaque_list_1(%rip), %rax
	movq	-4136(%rbp), %rdx
	movq	%rdx, (%rax)
	call	rand@PLT
	movl	%eax, -4168(%rbp)
	movl	$24, %edi
	call	malloc@PLT
	movq	%rax, -4128(%rbp)
	movl	-4168(%rbp), %edx
	movl	%edx, %eax
	addl	%eax, %eax
	addl	%eax, %edx
	movq	-4128(%rbp), %rax
	movl	%edx, 16(%rax)
	movq	_TIG_iO_iMZ0_1_godown_1_opaque_list_1(%rip), %rax
	movq	(%rax), %rdx
	movq	-4128(%rbp), %rax
	movq	%rdx, (%rax)
	movq	_TIG_iO_iMZ0_1_godown_1_opaque_list_1(%rip), %rdx
	movq	-4128(%rbp), %rax
	movq	%rdx, 8(%rax)
	movq	_TIG_iO_iMZ0_1_godown_1_opaque_list_1(%rip), %rax
	movq	(%rax), %rax
	movq	-4128(%rbp), %rdx
	movq	%rdx, 8(%rax)
	movq	_TIG_iO_iMZ0_1_godown_1_opaque_list_1(%rip), %rax
	movq	-4128(%rbp), %rdx
	movq	%rdx, (%rax)
	movq	_TIG_iO_iMZ0_1_godown_1_opaque_list_1(%rip), %rax
	movq	(%rax), %rax
	movq	%rax, _TIG_iO_iMZ0_1_godown_1_opaque_ptr_1(%rip)
	movq	_TIG_iO_iMZ0_1_godown_1_opaque_ptr_1(%rip), %rax
	movq	%rax, _TIG_iO_iMZ0_1_godown_1_opaque_ptr_2(%rip)
	movq	_TIG_iO_iMZ0_1_godown_1_opaque_ptr_2(%rip), %rax
	movq	(%rax), %rax
	movq	%rax, _TIG_iO_iMZ0_1_godown_1_opaque_ptr_2(%rip)
	nop
	nop
	leaq	termsave(%rip), %rax
	movq	%rax, %rdx
	movl	$0, %esi
	movl	$0, %edi
	call	tcsetattr@PLT
	movq	stderr(%rip), %rax
	movq	%rax, %rcx
	movl	$11, %edx
	movl	$1, %esi
	leaq	.LC6(%rip), %rax
	movq	%rax, %rdi
	call	fwrite@PLT
	movq	stdin(%rip), %rdx
	leaq	-4112(%rbp), %rax
	movl	$4097, %esi
	movq	%rax, %rdi
	call	fgets@PLT
	leaq	-4112(%rbp), %rax
	movl	$10, %esi
	movq	%rax, %rdi
	call	strchr@PLT
	movq	%rax, -4120(%rbp)
	cmpq	$0, -4120(%rbp)
	je	.L39
	movq	-4120(%rbp), %rax
	movb	$0, (%rax)
.L39:
	leaq	-4112(%rbp), %rax
	movq	%rax, %rdi
	call	chdir@PLT
	movl	%eax, -4164(%rbp)
	cmpl	$0, -4164(%rbp)
	je	.L40
	movq	_TIG_iO_iMZ0_1_showlist_1_opaque_ptr_1(%rip), %rdx
	movq	_TIG_iO_iMZ0_1_showlist_1_opaque_ptr_2(%rip), %rax
	cmpq	%rax, %rdx
	jne	.L41
#APP
# 80 "shioimm_til_fsnav0.c" 1
	.byte 0x1,0xc7,0x85,0xb4,0xff,0xff,0x0,0x0
# 0 "" 2
#NO_APP
	jmp	.L40
.L41:
	leaq	.LC7(%rip), %rax
	movq	%rax, %rdi
	call	perror@PLT
.L40:
	leaq	termcur(%rip), %rax
	movq	%rax, %rdx
	movl	$0, %esi
	movl	$0, %edi
	call	tcsetattr@PLT
	nop
	movq	-8(%rbp), %rax
	subq	%fs:40, %rax
	je	.L43
	call	__stack_chk_fail@PLT
.L43:
	leave
	.cfi_def_cfa 7, 8
	ret
	.cfi_endproc
.LFE10:
	.size	godown, .-godown
	.section	.rodata
.LC8:
	.string	"%s\n"
	.text
	.globl	showcwd
	.type	showcwd, @function
showcwd:
.LFB11:
	.cfi_startproc
	endbr64
	pushq	%rbp
	.cfi_def_cfa_offset 16
	.cfi_offset 6, -16
	movq	%rsp, %rbp
	.cfi_def_cfa_register 6
	subq	$4096, %rsp
	orq	$0, (%rsp)
	subq	$64, %rsp
	movq	%fs:40, %rax
	movq	%rax, -8(%rbp)
	xorl	%eax, %eax
#APP
# 101 "shioimm_til_fsnav0.c" 1
	##_ANNOTATION_INITIALREGION_-TIG-iO-iMZ0-1-showcwd--22
# 0 "" 2
# 105 "shioimm_til_fsnav0.c" 1
	##_ANNOTATION_ATOMICREGION_-TIG-iO-iMZ0-1-showcwd--21
# 0 "" 2
#NO_APP
	movl	$24, %edi
	call	malloc@PLT
	movq	%rax, -4144(%rbp)
	movq	-4144(%rbp), %rax
	movq	-4144(%rbp), %rdx
	movq	%rdx, (%rax)
	movq	-4144(%rbp), %rax
	movq	-4144(%rbp), %rdx
	movq	%rdx, 16(%rax)
	movq	-4144(%rbp), %rax
	movq	%rax, _TIG_iO_iMZ0_1_showcwd_1_opaque_list_1(%rip)
	call	rand@PLT
	movl	%eax, -4156(%rbp)
	movl	$24, %edi
	call	malloc@PLT
	movq	%rax, -4136(%rbp)
	movq	-4136(%rbp), %rax
	movl	$0, 8(%rax)
	movq	_TIG_iO_iMZ0_1_showcwd_1_opaque_list_1(%rip), %rax
	movq	(%rax), %rdx
	movq	-4136(%rbp), %rax
	movq	%rdx, (%rax)
	movq	_TIG_iO_iMZ0_1_showcwd_1_opaque_list_1(%rip), %rdx
	movq	-4136(%rbp), %rax
	movq	%rdx, 16(%rax)
	movq	_TIG_iO_iMZ0_1_showcwd_1_opaque_list_1(%rip), %rax
	movq	(%rax), %rax
	movq	-4136(%rbp), %rdx
	movq	%rdx, 16(%rax)
	movq	_TIG_iO_iMZ0_1_showcwd_1_opaque_list_1(%rip), %rax
	movq	-4136(%rbp), %rdx
	movq	%rdx, (%rax)
	call	rand@PLT
	movl	%eax, -4152(%rbp)
	movl	$24, %edi
	call	malloc@PLT
	movq	%rax, -4128(%rbp)
	movq	-4128(%rbp), %rax
	movl	-4152(%rbp), %edx
	movl	%edx, 8(%rax)
	movq	_TIG_iO_iMZ0_1_showcwd_1_opaque_list_1(%rip), %rax
	movq	(%rax), %rdx
	movq	-4128(%rbp), %rax
	movq	%rdx, (%rax)
	movq	_TIG_iO_iMZ0_1_showcwd_1_opaque_list_1(%rip), %rdx
	movq	-4128(%rbp), %rax
	movq	%rdx, 16(%rax)
	movq	_TIG_iO_iMZ0_1_showcwd_1_opaque_list_1(%rip), %rax
	movq	(%rax), %rax
	movq	-4128(%rbp), %rdx
	movq	%rdx, 16(%rax)
	movq	_TIG_iO_iMZ0_1_showcwd_1_opaque_list_1(%rip), %rax
	movq	-4128(%rbp), %rdx
	movq	%rdx, (%rax)
	call	rand@PLT
	movl	%eax, -4148(%rbp)
	movl	$24, %edi
	call	malloc@PLT
	movq	%rax, -4120(%rbp)
	movl	-4148(%rbp), %eax
	leal	(%rax,%rax), %edx
	movq	-4120(%rbp), %rax
	movl	%edx, 8(%rax)
	movq	_TIG_iO_iMZ0_1_showcwd_1_opaque_list_1(%rip), %rax
	movq	(%rax), %rdx
	movq	-4120(%rbp), %rax
	movq	%rdx, (%rax)
	movq	_TIG_iO_iMZ0_1_showcwd_1_opaque_list_1(%rip), %rdx
	movq	-4120(%rbp), %rax
	movq	%rdx, 16(%rax)
	movq	_TIG_iO_iMZ0_1_showcwd_1_opaque_list_1(%rip), %rax
	movq	(%rax), %rax
	movq	-4120(%rbp), %rdx
	movq	%rdx, 16(%rax)
	movq	_TIG_iO_iMZ0_1_showcwd_1_opaque_list_1(%rip), %rax
	movq	-4120(%rbp), %rdx
	movq	%rdx, (%rax)
	movq	_TIG_iO_iMZ0_1_showcwd_1_opaque_list_1(%rip), %rax
	movq	(%rax), %rax
	movq	%rax, _TIG_iO_iMZ0_1_showcwd_1_opaque_ptr_1(%rip)
	movq	_TIG_iO_iMZ0_1_showcwd_1_opaque_ptr_1(%rip), %rax
	movq	%rax, _TIG_iO_iMZ0_1_showcwd_1_opaque_ptr_2(%rip)
	movq	_TIG_iO_iMZ0_1_showcwd_1_opaque_ptr_2(%rip), %rax
	movq	(%rax), %rax
	movq	%rax, _TIG_iO_iMZ0_1_showcwd_1_opaque_ptr_2(%rip)
	nop
	nop
	movq	_TIG_iO_iMZ0_1_showlist_1_opaque_ptr_1(%rip), %rdx
	movq	_TIG_iO_iMZ0_1_showlist_1_opaque_ptr_2(%rip), %rax
	cmpq	%rax, %rdx
	jne	.L45
	leaq	-4112(%rbp), %rax
	subq	$1, %rax
	movl	$4105, %esi
	movq	%rax, %rdi
	call	getcwd@PLT
	leaq	-4112(%rbp), %rax
	addq	$1, %rax
	leaq	-1+.LC8(%rip), %rdx
	movq	%rax, %rsi
	movq	%rdx, %rdi
	movl	$0, %eax
	call	printf@PLT
	jmp	.L44
.L45:
	leaq	-4112(%rbp), %rax
	movl	$4097, %esi
	movq	%rax, %rdi
	call	getcwd@PLT
	leaq	-4112(%rbp), %rax
	movq	%rax, %rdi
	call	puts@PLT
	nop
.L44:
	movq	-8(%rbp), %rax
	subq	%fs:40, %rax
	je	.L48
	call	__stack_chk_fail@PLT
.L48:
	leave
	.cfi_def_cfa 7, 8
	ret
	.cfi_endproc
.LFE11:
	.size	showcwd, .-showcwd
	.ident	"GCC: (Ubuntu 11.4.0-1ubuntu1~22.04) 11.4.0"
	.section	.note.GNU-stack,"",@progbits
	.section	.note.gnu.property,"a"
	.align 8
	.long	1f - 0f
	.long	4f - 1f
	.long	5
0:
	.string	"GNU"
1:
	.align 8
	.long	0xc0000002
	.long	3f - 2f
2:
	.long	0x3
3:
	.align 8
4:
