	.file	"StomperHK_trabalho-final-lp_main_opaque.c"
	.text
	.globl	_TIG_iO_26YZ_1_carregar_dados_1_opaque_list_2
	.bss
	.align 8
	.type	_TIG_iO_26YZ_1_carregar_dados_1_opaque_list_2, @object
	.size	_TIG_iO_26YZ_1_carregar_dados_1_opaque_list_2, 8
_TIG_iO_26YZ_1_carregar_dados_1_opaque_list_2:
	.zero	8
	.globl	_TIG_iO_26YZ_1_verificar_conta_existente_1_opaque_list_2
	.align 8
	.type	_TIG_iO_26YZ_1_verificar_conta_existente_1_opaque_list_2, @object
	.size	_TIG_iO_26YZ_1_verificar_conta_existente_1_opaque_list_2, 8
_TIG_iO_26YZ_1_verificar_conta_existente_1_opaque_list_2:
	.zero	8
	.globl	_TIG_iO_26YZ_1_verificar_pagador_existente_1_opaque_ptr_1
	.align 8
	.type	_TIG_iO_26YZ_1_verificar_pagador_existente_1_opaque_ptr_1, @object
	.size	_TIG_iO_26YZ_1_verificar_pagador_existente_1_opaque_ptr_1, 8
_TIG_iO_26YZ_1_verificar_pagador_existente_1_opaque_ptr_1:
	.zero	8
	.globl	_TIG_iO_26YZ_1_salvar_dados_1_opaque_ptr_1
	.align 8
	.type	_TIG_iO_26YZ_1_salvar_dados_1_opaque_ptr_1, @object
	.size	_TIG_iO_26YZ_1_salvar_dados_1_opaque_ptr_1, 8
_TIG_iO_26YZ_1_salvar_dados_1_opaque_ptr_1:
	.zero	8
	.globl	_TIG_iO_26YZ_1___bswap_64_1_opaque_ptr_2
	.align 8
	.type	_TIG_iO_26YZ_1___bswap_64_1_opaque_ptr_2, @object
	.size	_TIG_iO_26YZ_1___bswap_64_1_opaque_ptr_2, 8
_TIG_iO_26YZ_1___bswap_64_1_opaque_ptr_2:
	.zero	8
	.globl	_TIG_iO_26YZ_1_cadastrar_conta_1_opaque_ptr_1
	.align 8
	.type	_TIG_iO_26YZ_1_cadastrar_conta_1_opaque_ptr_1, @object
	.size	_TIG_iO_26YZ_1_cadastrar_conta_1_opaque_ptr_1, 8
_TIG_iO_26YZ_1_cadastrar_conta_1_opaque_ptr_1:
	.zero	8
	.globl	_TIG_iO_26YZ_1_verificar_pagador_existente_1_opaque_list_1
	.align 8
	.type	_TIG_iO_26YZ_1_verificar_pagador_existente_1_opaque_list_1, @object
	.size	_TIG_iO_26YZ_1_verificar_pagador_existente_1_opaque_list_1, 8
_TIG_iO_26YZ_1_verificar_pagador_existente_1_opaque_list_1:
	.zero	8
	.globl	_TIG_iO_26YZ_1___uint16_identity_1_opaque_ptr_1
	.align 8
	.type	_TIG_iO_26YZ_1___uint16_identity_1_opaque_ptr_1, @object
	.size	_TIG_iO_26YZ_1___uint16_identity_1_opaque_ptr_1, 8
_TIG_iO_26YZ_1___uint16_identity_1_opaque_ptr_1:
	.zero	8
	.globl	_TIG_iO_26YZ_1_buscar_conta_por_id_1_opaque_ptr_2
	.align 8
	.type	_TIG_iO_26YZ_1_buscar_conta_por_id_1_opaque_ptr_2, @object
	.size	_TIG_iO_26YZ_1_buscar_conta_por_id_1_opaque_ptr_2, 8
_TIG_iO_26YZ_1_buscar_conta_por_id_1_opaque_ptr_2:
	.zero	8
	.globl	_TIG_iO_26YZ_1_carregar_dados_1_opaque_ptr_2
	.align 8
	.type	_TIG_iO_26YZ_1_carregar_dados_1_opaque_ptr_2, @object
	.size	_TIG_iO_26YZ_1_carregar_dados_1_opaque_ptr_2, 8
_TIG_iO_26YZ_1_carregar_dados_1_opaque_ptr_2:
	.zero	8
	.globl	_TIG_iO_26YZ_1___bswap_64_1_opaque_list_2
	.align 8
	.type	_TIG_iO_26YZ_1___bswap_64_1_opaque_list_2, @object
	.size	_TIG_iO_26YZ_1___bswap_64_1_opaque_list_2, 8
_TIG_iO_26YZ_1___bswap_64_1_opaque_list_2:
	.zero	8
	.globl	_TIG_IZ_26YZ_argv
	.align 8
	.type	_TIG_IZ_26YZ_argv, @object
	.size	_TIG_IZ_26YZ_argv, 8
_TIG_IZ_26YZ_argv:
	.zero	8
	.globl	_TIG_iO_26YZ_1_main_1_opaque_ptr_2
	.align 8
	.type	_TIG_iO_26YZ_1_main_1_opaque_ptr_2, @object
	.size	_TIG_iO_26YZ_1_main_1_opaque_ptr_2, 8
_TIG_iO_26YZ_1_main_1_opaque_ptr_2:
	.zero	8
	.globl	_TIG_iO_26YZ_1_verificar_conta_existente_1_opaque_ptr_2
	.align 8
	.type	_TIG_iO_26YZ_1_verificar_conta_existente_1_opaque_ptr_2, @object
	.size	_TIG_iO_26YZ_1_verificar_conta_existente_1_opaque_ptr_2, 8
_TIG_iO_26YZ_1_verificar_conta_existente_1_opaque_ptr_2:
	.zero	8
	.globl	_TIG_IZ_26YZ_argc
	.align 4
	.type	_TIG_IZ_26YZ_argc, @object
	.size	_TIG_IZ_26YZ_argc, 4
_TIG_IZ_26YZ_argc:
	.zero	4
	.globl	_TIG_iO_26YZ_1___uint16_identity_1_opaque_list_1
	.align 8
	.type	_TIG_iO_26YZ_1___uint16_identity_1_opaque_list_1, @object
	.size	_TIG_iO_26YZ_1___uint16_identity_1_opaque_list_1, 8
_TIG_iO_26YZ_1___uint16_identity_1_opaque_list_1:
	.zero	8
	.globl	_TIG_iO_26YZ_1_carregar_dados_1_opaque_ptr_1
	.align 8
	.type	_TIG_iO_26YZ_1_carregar_dados_1_opaque_ptr_1, @object
	.size	_TIG_iO_26YZ_1_carregar_dados_1_opaque_ptr_1, 8
_TIG_iO_26YZ_1_carregar_dados_1_opaque_ptr_1:
	.zero	8
	.globl	_TIG_IZ_26YZ_envp
	.align 8
	.type	_TIG_IZ_26YZ_envp, @object
	.size	_TIG_IZ_26YZ_envp, 8
_TIG_IZ_26YZ_envp:
	.zero	8
	.globl	_TIG_iO_26YZ_1_listar_contas_1_opaque_ptr_1
	.align 8
	.type	_TIG_iO_26YZ_1_listar_contas_1_opaque_ptr_1, @object
	.size	_TIG_iO_26YZ_1_listar_contas_1_opaque_ptr_1, 8
_TIG_iO_26YZ_1_listar_contas_1_opaque_ptr_1:
	.zero	8
	.globl	_TIG_iO_26YZ_1_buscar_pagador_por_id_1_opaque_list_2
	.align 8
	.type	_TIG_iO_26YZ_1_buscar_pagador_por_id_1_opaque_list_2, @object
	.size	_TIG_iO_26YZ_1_buscar_pagador_por_id_1_opaque_list_2, 8
_TIG_iO_26YZ_1_buscar_pagador_por_id_1_opaque_list_2:
	.zero	8
	.globl	_TIG_iO_26YZ_1_verificar_conta_existente_1_opaque_ptr_1
	.align 8
	.type	_TIG_iO_26YZ_1_verificar_conta_existente_1_opaque_ptr_1, @object
	.size	_TIG_iO_26YZ_1_verificar_conta_existente_1_opaque_ptr_1, 8
_TIG_iO_26YZ_1_verificar_conta_existente_1_opaque_ptr_1:
	.zero	8
	.globl	_TIG_iO_26YZ_1_carregar_dados_1_opaque_list_1
	.align 8
	.type	_TIG_iO_26YZ_1_carregar_dados_1_opaque_list_1, @object
	.size	_TIG_iO_26YZ_1_carregar_dados_1_opaque_list_1, 8
_TIG_iO_26YZ_1_carregar_dados_1_opaque_list_1:
	.zero	8
	.globl	_TIG_iO_26YZ_1_salvar_dados_1_opaque_ptr_2
	.align 8
	.type	_TIG_iO_26YZ_1_salvar_dados_1_opaque_ptr_2, @object
	.size	_TIG_iO_26YZ_1_salvar_dados_1_opaque_ptr_2, 8
_TIG_iO_26YZ_1_salvar_dados_1_opaque_ptr_2:
	.zero	8
	.globl	_TIG_iO_26YZ_1_buscar_pagador_por_id_1_opaque_list_1
	.align 8
	.type	_TIG_iO_26YZ_1_buscar_pagador_por_id_1_opaque_list_1, @object
	.size	_TIG_iO_26YZ_1_buscar_pagador_por_id_1_opaque_list_1, 8
_TIG_iO_26YZ_1_buscar_pagador_por_id_1_opaque_list_1:
	.zero	8
	.globl	_TIG_iO_26YZ_1_buscar_pagador_por_id_1_opaque_ptr_1
	.align 8
	.type	_TIG_iO_26YZ_1_buscar_pagador_por_id_1_opaque_ptr_1, @object
	.size	_TIG_iO_26YZ_1_buscar_pagador_por_id_1_opaque_ptr_1, 8
_TIG_iO_26YZ_1_buscar_pagador_por_id_1_opaque_ptr_1:
	.zero	8
	.globl	_TIG_iO_26YZ_1___uint32_identity_1_opaque_list_2
	.align 8
	.type	_TIG_iO_26YZ_1___uint32_identity_1_opaque_list_2, @object
	.size	_TIG_iO_26YZ_1___uint32_identity_1_opaque_list_2, 8
_TIG_iO_26YZ_1___uint32_identity_1_opaque_list_2:
	.zero	8
	.globl	_TIG_iO_26YZ_1_listar_pagadores_1_opaque_ptr_2
	.align 8
	.type	_TIG_iO_26YZ_1_listar_pagadores_1_opaque_ptr_2, @object
	.size	_TIG_iO_26YZ_1_listar_pagadores_1_opaque_ptr_2, 8
_TIG_iO_26YZ_1_listar_pagadores_1_opaque_ptr_2:
	.zero	8
	.globl	_TIG_iO_26YZ_1___bswap_32_1_opaque_list_2
	.align 8
	.type	_TIG_iO_26YZ_1___bswap_32_1_opaque_list_2, @object
	.size	_TIG_iO_26YZ_1___bswap_32_1_opaque_list_2, 8
_TIG_iO_26YZ_1___bswap_32_1_opaque_list_2:
	.zero	8
	.globl	_TIG_iO_26YZ_1_salvar_dados_1_opaque_list_2
	.align 8
	.type	_TIG_iO_26YZ_1_salvar_dados_1_opaque_list_2, @object
	.size	_TIG_iO_26YZ_1_salvar_dados_1_opaque_list_2, 8
_TIG_iO_26YZ_1_salvar_dados_1_opaque_list_2:
	.zero	8
	.globl	_TIG_iO_26YZ_1_buscar_pagador_por_id_1_opaque_ptr_2
	.align 8
	.type	_TIG_iO_26YZ_1_buscar_pagador_por_id_1_opaque_ptr_2, @object
	.size	_TIG_iO_26YZ_1_buscar_pagador_por_id_1_opaque_ptr_2, 8
_TIG_iO_26YZ_1_buscar_pagador_por_id_1_opaque_ptr_2:
	.zero	8
	.globl	_TIG_iO_26YZ_1___bswap_32_1_opaque_list_1
	.align 8
	.type	_TIG_iO_26YZ_1___bswap_32_1_opaque_list_1, @object
	.size	_TIG_iO_26YZ_1___bswap_32_1_opaque_list_1, 8
_TIG_iO_26YZ_1___bswap_32_1_opaque_list_1:
	.zero	8
	.globl	_TIG_iO_26YZ_1_cadastrar_pagador_1_opaque_list_1
	.align 8
	.type	_TIG_iO_26YZ_1_cadastrar_pagador_1_opaque_list_1, @object
	.size	_TIG_iO_26YZ_1_cadastrar_pagador_1_opaque_list_1, 8
_TIG_iO_26YZ_1_cadastrar_pagador_1_opaque_list_1:
	.zero	8
	.globl	_TIG_iO_26YZ_1_verificar_conta_existente_1_opaque_list_1
	.align 8
	.type	_TIG_iO_26YZ_1_verificar_conta_existente_1_opaque_list_1, @object
	.size	_TIG_iO_26YZ_1_verificar_conta_existente_1_opaque_list_1, 8
_TIG_iO_26YZ_1_verificar_conta_existente_1_opaque_list_1:
	.zero	8
	.globl	_TIG_iO_26YZ_1___uint16_identity_1_opaque_list_2
	.align 8
	.type	_TIG_iO_26YZ_1___uint16_identity_1_opaque_list_2, @object
	.size	_TIG_iO_26YZ_1___uint16_identity_1_opaque_list_2, 8
_TIG_iO_26YZ_1___uint16_identity_1_opaque_list_2:
	.zero	8
	.globl	_TIG_iO_26YZ_1_salvar_dados_1_opaque_list_1
	.align 8
	.type	_TIG_iO_26YZ_1_salvar_dados_1_opaque_list_1, @object
	.size	_TIG_iO_26YZ_1_salvar_dados_1_opaque_list_1, 8
_TIG_iO_26YZ_1_salvar_dados_1_opaque_list_1:
	.zero	8
	.globl	_TIG_iO_26YZ_1_cadastrar_pagador_1_opaque_ptr_2
	.align 8
	.type	_TIG_iO_26YZ_1_cadastrar_pagador_1_opaque_ptr_2, @object
	.size	_TIG_iO_26YZ_1_cadastrar_pagador_1_opaque_ptr_2, 8
_TIG_iO_26YZ_1_cadastrar_pagador_1_opaque_ptr_2:
	.zero	8
	.globl	_TIG_iO_26YZ_1_menu_1_opaque_ptr_2
	.align 8
	.type	_TIG_iO_26YZ_1_menu_1_opaque_ptr_2, @object
	.size	_TIG_iO_26YZ_1_menu_1_opaque_ptr_2, 8
_TIG_iO_26YZ_1_menu_1_opaque_ptr_2:
	.zero	8
	.globl	_TIG_iO_26YZ_1___uint64_identity_1_opaque_list_2
	.align 8
	.type	_TIG_iO_26YZ_1___uint64_identity_1_opaque_list_2, @object
	.size	_TIG_iO_26YZ_1___uint64_identity_1_opaque_list_2, 8
_TIG_iO_26YZ_1___uint64_identity_1_opaque_list_2:
	.zero	8
	.globl	_TIG_iO_26YZ_1_verificar_pagador_existente_1_opaque_ptr_2
	.align 8
	.type	_TIG_iO_26YZ_1_verificar_pagador_existente_1_opaque_ptr_2, @object
	.size	_TIG_iO_26YZ_1_verificar_pagador_existente_1_opaque_ptr_2, 8
_TIG_iO_26YZ_1_verificar_pagador_existente_1_opaque_ptr_2:
	.zero	8
	.globl	_TIG_iO_26YZ_1___uint64_identity_1_opaque_ptr_1
	.align 8
	.type	_TIG_iO_26YZ_1___uint64_identity_1_opaque_ptr_1, @object
	.size	_TIG_iO_26YZ_1___uint64_identity_1_opaque_ptr_1, 8
_TIG_iO_26YZ_1___uint64_identity_1_opaque_ptr_1:
	.zero	8
	.globl	_TIG_iO_26YZ_1_menu_1_opaque_ptr_1
	.align 8
	.type	_TIG_iO_26YZ_1_menu_1_opaque_ptr_1, @object
	.size	_TIG_iO_26YZ_1_menu_1_opaque_ptr_1, 8
_TIG_iO_26YZ_1_menu_1_opaque_ptr_1:
	.zero	8
	.globl	_TIG_iO_26YZ_1___bswap_16_1_opaque_ptr_2
	.align 8
	.type	_TIG_iO_26YZ_1___bswap_16_1_opaque_ptr_2, @object
	.size	_TIG_iO_26YZ_1___bswap_16_1_opaque_ptr_2, 8
_TIG_iO_26YZ_1___bswap_16_1_opaque_ptr_2:
	.zero	8
	.globl	_TIG_iO_26YZ_1___uint16_identity_1_opaque_ptr_2
	.align 8
	.type	_TIG_iO_26YZ_1___uint16_identity_1_opaque_ptr_2, @object
	.size	_TIG_iO_26YZ_1___uint16_identity_1_opaque_ptr_2, 8
_TIG_iO_26YZ_1___uint16_identity_1_opaque_ptr_2:
	.zero	8
	.globl	_TIG_iO_26YZ_1_buscar_conta_por_id_1_opaque_ptr_1
	.align 8
	.type	_TIG_iO_26YZ_1_buscar_conta_por_id_1_opaque_ptr_1, @object
	.size	_TIG_iO_26YZ_1_buscar_conta_por_id_1_opaque_ptr_1, 8
_TIG_iO_26YZ_1_buscar_conta_por_id_1_opaque_ptr_1:
	.zero	8
	.globl	_TIG_iO_26YZ_1___uint64_identity_1_opaque_ptr_2
	.align 8
	.type	_TIG_iO_26YZ_1___uint64_identity_1_opaque_ptr_2, @object
	.size	_TIG_iO_26YZ_1___uint64_identity_1_opaque_ptr_2, 8
_TIG_iO_26YZ_1___uint64_identity_1_opaque_ptr_2:
	.zero	8
	.globl	_TIG_iO_26YZ_1_listar_contas_1_opaque_list_2
	.align 8
	.type	_TIG_iO_26YZ_1_listar_contas_1_opaque_list_2, @object
	.size	_TIG_iO_26YZ_1_listar_contas_1_opaque_list_2, 8
_TIG_iO_26YZ_1_listar_contas_1_opaque_list_2:
	.zero	8
	.globl	_TIG_iO_26YZ_1___uint32_identity_1_opaque_list_1
	.align 8
	.type	_TIG_iO_26YZ_1___uint32_identity_1_opaque_list_1, @object
	.size	_TIG_iO_26YZ_1___uint32_identity_1_opaque_list_1, 8
_TIG_iO_26YZ_1___uint32_identity_1_opaque_list_1:
	.zero	8
	.globl	_TIG_iO_26YZ_1_cadastrar_conta_1_opaque_ptr_2
	.align 8
	.type	_TIG_iO_26YZ_1_cadastrar_conta_1_opaque_ptr_2, @object
	.size	_TIG_iO_26YZ_1_cadastrar_conta_1_opaque_ptr_2, 8
_TIG_iO_26YZ_1_cadastrar_conta_1_opaque_ptr_2:
	.zero	8
	.globl	_TIG_iO_26YZ_1___uint32_identity_1_opaque_ptr_2
	.align 8
	.type	_TIG_iO_26YZ_1___uint32_identity_1_opaque_ptr_2, @object
	.size	_TIG_iO_26YZ_1___uint32_identity_1_opaque_ptr_2, 8
_TIG_iO_26YZ_1___uint32_identity_1_opaque_ptr_2:
	.zero	8
	.globl	_TIG_iO_26YZ_1_main_1_opaque_list_2
	.align 8
	.type	_TIG_iO_26YZ_1_main_1_opaque_list_2, @object
	.size	_TIG_iO_26YZ_1_main_1_opaque_list_2, 8
_TIG_iO_26YZ_1_main_1_opaque_list_2:
	.zero	8
	.globl	_TIG_iO_26YZ_1___uint32_identity_1_opaque_ptr_1
	.align 8
	.type	_TIG_iO_26YZ_1___uint32_identity_1_opaque_ptr_1, @object
	.size	_TIG_iO_26YZ_1___uint32_identity_1_opaque_ptr_1, 8
_TIG_iO_26YZ_1___uint32_identity_1_opaque_ptr_1:
	.zero	8
	.globl	_TIG_iO_26YZ_1___bswap_16_1_opaque_list_1
	.align 8
	.type	_TIG_iO_26YZ_1___bswap_16_1_opaque_list_1, @object
	.size	_TIG_iO_26YZ_1___bswap_16_1_opaque_list_1, 8
_TIG_iO_26YZ_1___bswap_16_1_opaque_list_1:
	.zero	8
	.globl	_TIG_iO_26YZ_1_cadastrar_conta_1_opaque_list_1
	.align 8
	.type	_TIG_iO_26YZ_1_cadastrar_conta_1_opaque_list_1, @object
	.size	_TIG_iO_26YZ_1_cadastrar_conta_1_opaque_list_1, 8
_TIG_iO_26YZ_1_cadastrar_conta_1_opaque_list_1:
	.zero	8
	.globl	_TIG_iO_26YZ_1_menu_1_opaque_list_2
	.align 8
	.type	_TIG_iO_26YZ_1_menu_1_opaque_list_2, @object
	.size	_TIG_iO_26YZ_1_menu_1_opaque_list_2, 8
_TIG_iO_26YZ_1_menu_1_opaque_list_2:
	.zero	8
	.globl	_TIG_iO_26YZ_1_listar_pagadores_1_opaque_list_1
	.align 8
	.type	_TIG_iO_26YZ_1_listar_pagadores_1_opaque_list_1, @object
	.size	_TIG_iO_26YZ_1_listar_pagadores_1_opaque_list_1, 8
_TIG_iO_26YZ_1_listar_pagadores_1_opaque_list_1:
	.zero	8
	.globl	_TIG_iO_26YZ_1_cadastrar_pagador_1_opaque_list_2
	.align 8
	.type	_TIG_iO_26YZ_1_cadastrar_pagador_1_opaque_list_2, @object
	.size	_TIG_iO_26YZ_1_cadastrar_pagador_1_opaque_list_2, 8
_TIG_iO_26YZ_1_cadastrar_pagador_1_opaque_list_2:
	.zero	8
	.globl	_TIG_iO_26YZ_1_menu_1_opaque_list_1
	.align 8
	.type	_TIG_iO_26YZ_1_menu_1_opaque_list_1, @object
	.size	_TIG_iO_26YZ_1_menu_1_opaque_list_1, 8
_TIG_iO_26YZ_1_menu_1_opaque_list_1:
	.zero	8
	.globl	_TIG_iO_26YZ_1_cadastrar_conta_1_opaque_list_2
	.align 8
	.type	_TIG_iO_26YZ_1_cadastrar_conta_1_opaque_list_2, @object
	.size	_TIG_iO_26YZ_1_cadastrar_conta_1_opaque_list_2, 8
_TIG_iO_26YZ_1_cadastrar_conta_1_opaque_list_2:
	.zero	8
	.globl	_TIG_iO_26YZ_1___bswap_32_1_opaque_ptr_1
	.align 8
	.type	_TIG_iO_26YZ_1___bswap_32_1_opaque_ptr_1, @object
	.size	_TIG_iO_26YZ_1___bswap_32_1_opaque_ptr_1, 8
_TIG_iO_26YZ_1___bswap_32_1_opaque_ptr_1:
	.zero	8
	.globl	_TIG_iO_26YZ_1_listar_pagadores_1_opaque_list_2
	.align 8
	.type	_TIG_iO_26YZ_1_listar_pagadores_1_opaque_list_2, @object
	.size	_TIG_iO_26YZ_1_listar_pagadores_1_opaque_list_2, 8
_TIG_iO_26YZ_1_listar_pagadores_1_opaque_list_2:
	.zero	8
	.globl	_TIG_iO_26YZ_1___bswap_64_1_opaque_ptr_1
	.align 8
	.type	_TIG_iO_26YZ_1___bswap_64_1_opaque_ptr_1, @object
	.size	_TIG_iO_26YZ_1___bswap_64_1_opaque_ptr_1, 8
_TIG_iO_26YZ_1___bswap_64_1_opaque_ptr_1:
	.zero	8
	.globl	_TIG_iO_26YZ_1_verificar_pagador_existente_1_opaque_list_2
	.align 8
	.type	_TIG_iO_26YZ_1_verificar_pagador_existente_1_opaque_list_2, @object
	.size	_TIG_iO_26YZ_1_verificar_pagador_existente_1_opaque_list_2, 8
_TIG_iO_26YZ_1_verificar_pagador_existente_1_opaque_list_2:
	.zero	8
	.globl	_TIG_iO_26YZ_1_buscar_conta_por_id_1_opaque_list_1
	.align 8
	.type	_TIG_iO_26YZ_1_buscar_conta_por_id_1_opaque_list_1, @object
	.size	_TIG_iO_26YZ_1_buscar_conta_por_id_1_opaque_list_1, 8
_TIG_iO_26YZ_1_buscar_conta_por_id_1_opaque_list_1:
	.zero	8
	.globl	_TIG_iO_26YZ_1_main_1_opaque_ptr_1
	.align 8
	.type	_TIG_iO_26YZ_1_main_1_opaque_ptr_1, @object
	.size	_TIG_iO_26YZ_1_main_1_opaque_ptr_1, 8
_TIG_iO_26YZ_1_main_1_opaque_ptr_1:
	.zero	8
	.globl	_TIG_iO_26YZ_1_listar_contas_1_opaque_list_1
	.align 8
	.type	_TIG_iO_26YZ_1_listar_contas_1_opaque_list_1, @object
	.size	_TIG_iO_26YZ_1_listar_contas_1_opaque_list_1, 8
_TIG_iO_26YZ_1_listar_contas_1_opaque_list_1:
	.zero	8
	.globl	_TIG_iO_26YZ_1___bswap_64_1_opaque_list_1
	.align 8
	.type	_TIG_iO_26YZ_1___bswap_64_1_opaque_list_1, @object
	.size	_TIG_iO_26YZ_1___bswap_64_1_opaque_list_1, 8
_TIG_iO_26YZ_1___bswap_64_1_opaque_list_1:
	.zero	8
	.globl	_TIG_iO_26YZ_1___bswap_16_1_opaque_ptr_1
	.align 8
	.type	_TIG_iO_26YZ_1___bswap_16_1_opaque_ptr_1, @object
	.size	_TIG_iO_26YZ_1___bswap_16_1_opaque_ptr_1, 8
_TIG_iO_26YZ_1___bswap_16_1_opaque_ptr_1:
	.zero	8
	.globl	_TIG_iO_26YZ_1_cadastrar_pagador_1_opaque_ptr_1
	.align 8
	.type	_TIG_iO_26YZ_1_cadastrar_pagador_1_opaque_ptr_1, @object
	.size	_TIG_iO_26YZ_1_cadastrar_pagador_1_opaque_ptr_1, 8
_TIG_iO_26YZ_1_cadastrar_pagador_1_opaque_ptr_1:
	.zero	8
	.globl	_TIG_iO_26YZ_1_listar_pagadores_1_opaque_ptr_1
	.align 8
	.type	_TIG_iO_26YZ_1_listar_pagadores_1_opaque_ptr_1, @object
	.size	_TIG_iO_26YZ_1_listar_pagadores_1_opaque_ptr_1, 8
_TIG_iO_26YZ_1_listar_pagadores_1_opaque_ptr_1:
	.zero	8
	.globl	_TIG_iO_26YZ_1___bswap_16_1_opaque_list_2
	.align 8
	.type	_TIG_iO_26YZ_1___bswap_16_1_opaque_list_2, @object
	.size	_TIG_iO_26YZ_1___bswap_16_1_opaque_list_2, 8
_TIG_iO_26YZ_1___bswap_16_1_opaque_list_2:
	.zero	8
	.globl	_TIG_iO_26YZ_1___bswap_32_1_opaque_ptr_2
	.align 8
	.type	_TIG_iO_26YZ_1___bswap_32_1_opaque_ptr_2, @object
	.size	_TIG_iO_26YZ_1___bswap_32_1_opaque_ptr_2, 8
_TIG_iO_26YZ_1___bswap_32_1_opaque_ptr_2:
	.zero	8
	.globl	_TIG_iO_26YZ_1_listar_contas_1_opaque_ptr_2
	.align 8
	.type	_TIG_iO_26YZ_1_listar_contas_1_opaque_ptr_2, @object
	.size	_TIG_iO_26YZ_1_listar_contas_1_opaque_ptr_2, 8
_TIG_iO_26YZ_1_listar_contas_1_opaque_ptr_2:
	.zero	8
	.globl	_TIG_iO_26YZ_1_main_1_opaque_list_1
	.align 8
	.type	_TIG_iO_26YZ_1_main_1_opaque_list_1, @object
	.size	_TIG_iO_26YZ_1_main_1_opaque_list_1, 8
_TIG_iO_26YZ_1_main_1_opaque_list_1:
	.zero	8
	.globl	_TIG_iO_26YZ_1___uint64_identity_1_opaque_list_1
	.align 8
	.type	_TIG_iO_26YZ_1___uint64_identity_1_opaque_list_1, @object
	.size	_TIG_iO_26YZ_1___uint64_identity_1_opaque_list_1, 8
_TIG_iO_26YZ_1___uint64_identity_1_opaque_list_1:
	.zero	8
	.globl	_TIG_iO_26YZ_1_buscar_conta_por_id_1_opaque_list_2
	.align 8
	.type	_TIG_iO_26YZ_1_buscar_conta_por_id_1_opaque_list_2, @object
	.size	_TIG_iO_26YZ_1_buscar_conta_por_id_1_opaque_list_2, 8
_TIG_iO_26YZ_1_buscar_conta_por_id_1_opaque_list_2:
	.zero	8
	.section	.rodata
.LC0:
	.string	"r"
.LC1:
	.string	"pagadores.txt"
.LC2:
	.string	"contas.txt"
	.align 8
.LC3:
	.string	"Erro ao abrir arquivo de pagadores"
.LC4:
	.string	"%d|%49[^|]|%19[^|]|%14[^\n]\n"
	.align 8
.LC5:
	.string	"Erro ao abrir arquivo de contas"
.LC6:
	.string	"%d|%f|%19[^|]|%9[^|]|%d\n"
.LC7:
	.string	"Pagadores carregados: %d\n"
.LC8:
	.string	"Contas carregadas: %d\n"
	.text
	.globl	carregar_dados
	.type	carregar_dados, @function
carregar_dados:
.LFB0:
	.cfi_startproc
	endbr64
	pushq	%rbp
	.cfi_def_cfa_offset 16
	.cfi_offset 6, -16
	movq	%rsp, %rbp
	.cfi_def_cfa_register 6
	subq	$144, %rsp
	movq	%rdi, -104(%rbp)
	movq	%rsi, -112(%rbp)
	movl	%edx, -116(%rbp)
	movq	%rcx, -128(%rbp)
	movq	%r8, -136(%rbp)
	movl	%r9d, -120(%rbp)
#APP
# 85 "/usr/include/stdlib.h" 1
	##_ANNOTATION_INITIALREGION_-TIG-iO-26YZ-1-carregar-dados--22
# 0 "" 2
# 89 "/usr/include/stdlib.h" 1
	##_ANNOTATION_ATOMICREGION_-TIG-iO-26YZ-1-carregar-dados--21
# 0 "" 2
#NO_APP
	movl	$24, %edi
	call	malloc@PLT
	movq	%rax, -64(%rbp)
	movq	-64(%rbp), %rax
	movq	-64(%rbp), %rdx
	movq	%rdx, (%rax)
	movq	-64(%rbp), %rax
	movq	-64(%rbp), %rdx
	movq	%rdx, 16(%rax)
	movq	-64(%rbp), %rax
	movq	%rax, _TIG_iO_26YZ_1_carregar_dados_1_opaque_list_1(%rip)
	call	rand@PLT
	movl	%eax, -84(%rbp)
	movl	$24, %edi
	call	malloc@PLT
	movq	%rax, -56(%rbp)
	movq	-56(%rbp), %rax
	movl	$0, 8(%rax)
	movq	_TIG_iO_26YZ_1_carregar_dados_1_opaque_list_1(%rip), %rax
	movq	(%rax), %rdx
	movq	-56(%rbp), %rax
	movq	%rdx, (%rax)
	movq	_TIG_iO_26YZ_1_carregar_dados_1_opaque_list_1(%rip), %rdx
	movq	-56(%rbp), %rax
	movq	%rdx, 16(%rax)
	movq	_TIG_iO_26YZ_1_carregar_dados_1_opaque_list_1(%rip), %rax
	movq	(%rax), %rax
	movq	-56(%rbp), %rdx
	movq	%rdx, 16(%rax)
	movq	_TIG_iO_26YZ_1_carregar_dados_1_opaque_list_1(%rip), %rax
	movq	-56(%rbp), %rdx
	movq	%rdx, (%rax)
	call	rand@PLT
	movl	%eax, -80(%rbp)
	movl	$24, %edi
	call	malloc@PLT
	movq	%rax, -48(%rbp)
	movq	-48(%rbp), %rax
	movl	-80(%rbp), %edx
	movl	%edx, 8(%rax)
	movq	_TIG_iO_26YZ_1_carregar_dados_1_opaque_list_1(%rip), %rax
	movq	(%rax), %rdx
	movq	-48(%rbp), %rax
	movq	%rdx, (%rax)
	movq	_TIG_iO_26YZ_1_carregar_dados_1_opaque_list_1(%rip), %rdx
	movq	-48(%rbp), %rax
	movq	%rdx, 16(%rax)
	movq	_TIG_iO_26YZ_1_carregar_dados_1_opaque_list_1(%rip), %rax
	movq	(%rax), %rax
	movq	-48(%rbp), %rdx
	movq	%rdx, 16(%rax)
	movq	_TIG_iO_26YZ_1_carregar_dados_1_opaque_list_1(%rip), %rax
	movq	-48(%rbp), %rdx
	movq	%rdx, (%rax)
	call	rand@PLT
	movl	%eax, -76(%rbp)
	movl	$24, %edi
	call	malloc@PLT
	movq	%rax, -40(%rbp)
	movl	-76(%rbp), %eax
	leal	(%rax,%rax), %edx
	movq	-40(%rbp), %rax
	movl	%edx, 8(%rax)
	movq	_TIG_iO_26YZ_1_carregar_dados_1_opaque_list_1(%rip), %rax
	movq	(%rax), %rdx
	movq	-40(%rbp), %rax
	movq	%rdx, (%rax)
	movq	_TIG_iO_26YZ_1_carregar_dados_1_opaque_list_1(%rip), %rdx
	movq	-40(%rbp), %rax
	movq	%rdx, 16(%rax)
	movq	_TIG_iO_26YZ_1_carregar_dados_1_opaque_list_1(%rip), %rax
	movq	(%rax), %rax
	movq	-40(%rbp), %rdx
	movq	%rdx, 16(%rax)
	movq	_TIG_iO_26YZ_1_carregar_dados_1_opaque_list_1(%rip), %rax
	movq	-40(%rbp), %rdx
	movq	%rdx, (%rax)
	movq	_TIG_iO_26YZ_1_carregar_dados_1_opaque_list_1(%rip), %rax
	movq	(%rax), %rax
	movq	%rax, _TIG_iO_26YZ_1_carregar_dados_1_opaque_ptr_1(%rip)
	movq	_TIG_iO_26YZ_1_carregar_dados_1_opaque_ptr_1(%rip), %rax
	movq	%rax, _TIG_iO_26YZ_1_carregar_dados_1_opaque_ptr_2(%rip)
	movq	_TIG_iO_26YZ_1_carregar_dados_1_opaque_ptr_2(%rip), %rax
	movq	(%rax), %rax
	movq	%rax, _TIG_iO_26YZ_1_carregar_dados_1_opaque_ptr_2(%rip)
	nop
	nop
	leaq	.LC0(%rip), %rax
	movq	%rax, %rsi
	leaq	.LC1(%rip), %rax
	movq	%rax, %rdi
	call	fopen@PLT
	movq	%rax, -32(%rbp)
	movq	-32(%rbp), %rax
	movq	%rax, -24(%rbp)
	leaq	.LC0(%rip), %rax
	movq	%rax, %rsi
	leaq	.LC2(%rip), %rax
	movq	%rax, %rdi
	call	fopen@PLT
	movq	%rax, -16(%rbp)
	movq	-16(%rbp), %rax
	movq	%rax, -8(%rbp)
	cmpq	$0, -24(%rbp)
	jne	.L2
	leaq	.LC3(%rip), %rax
	movq	%rax, %rdi
	call	perror@PLT
	jmp	.L3
.L2:
	movq	-112(%rbp), %rax
	movl	$0, (%rax)
.L7:
	movq	-112(%rbp), %rax
	movl	(%rax), %eax
	cmpl	%eax, -116(%rbp)
	jle	.L16
	movq	-112(%rbp), %rax
	movl	(%rax), %eax
	cltq
	imulq	$92, %rax, %rdx
	movq	-104(%rbp), %rax
	addq	%rdx, %rax
	leaq	74(%rax), %rsi
	movq	-112(%rbp), %rax
	movl	(%rax), %eax
	cltq
	imulq	$92, %rax, %rdx
	movq	-104(%rbp), %rax
	addq	%rdx, %rax
	leaq	54(%rax), %rcx
	movq	-112(%rbp), %rax
	movl	(%rax), %eax
	cltq
	imulq	$92, %rax, %rdx
	movq	-104(%rbp), %rax
	addq	%rdx, %rax
	leaq	4(%rax), %rdx
	movq	-112(%rbp), %rax
	movl	(%rax), %eax
	cltq
	imulq	$92, %rax, %rdi
	movq	-104(%rbp), %rax
	addq	%rdi, %rax
	movq	%rax, %rdi
	movq	-24(%rbp), %rax
	movq	%rsi, %r9
	movq	%rcx, %r8
	movq	%rdx, %rcx
	movq	%rdi, %rdx
	leaq	.LC4(%rip), %rsi
	movq	%rax, %rdi
	movl	$0, %eax
	call	__isoc99_fscanf@PLT
	movl	%eax, -72(%rbp)
	cmpl	$4, -72(%rbp)
	jne	.L17
	movq	-112(%rbp), %rax
	movl	(%rax), %eax
	leal	1(%rax), %edx
	movq	-112(%rbp), %rax
	movl	%edx, (%rax)
	jmp	.L7
.L16:
	nop
	jmp	.L6
.L17:
	nop
.L6:
	movq	-24(%rbp), %rax
	movq	%rax, %rdi
	call	fclose@PLT
.L3:
	cmpq	$0, -8(%rbp)
	jne	.L8
	leaq	.LC5(%rip), %rax
	movq	%rax, %rdi
	call	perror@PLT
	jmp	.L9
.L8:
	movq	-136(%rbp), %rax
	movl	$0, (%rax)
.L13:
	movq	-136(%rbp), %rax
	movl	(%rax), %eax
	cmpl	%eax, -120(%rbp)
	jle	.L18
	movq	-136(%rbp), %rax
	movl	(%rax), %eax
	movslq	%eax, %rdx
	movq	%rdx, %rax
	salq	$2, %rax
	addq	%rdx, %rax
	addq	%rax, %rax
	addq	%rdx, %rax
	salq	$2, %rax
	movq	%rax, %rdx
	movq	-128(%rbp), %rax
	addq	%rdx, %rax
	leaq	40(%rax), %rsi
	movq	-136(%rbp), %rax
	movl	(%rax), %eax
	movslq	%eax, %rdx
	movq	%rdx, %rax
	salq	$2, %rax
	addq	%rdx, %rax
	addq	%rax, %rax
	addq	%rdx, %rax
	salq	$2, %rax
	movq	%rax, %rdx
	movq	-128(%rbp), %rax
	addq	%rdx, %rax
	leaq	28(%rax), %r8
	movq	-136(%rbp), %rax
	movl	(%rax), %eax
	movslq	%eax, %rdx
	movq	%rdx, %rax
	salq	$2, %rax
	addq	%rdx, %rax
	addq	%rax, %rax
	addq	%rdx, %rax
	salq	$2, %rax
	movq	%rax, %rdx
	movq	-128(%rbp), %rax
	addq	%rdx, %rax
	leaq	8(%rax), %rdi
	movq	-136(%rbp), %rax
	movl	(%rax), %eax
	movslq	%eax, %rdx
	movq	%rdx, %rax
	salq	$2, %rax
	addq	%rdx, %rax
	addq	%rax, %rax
	addq	%rdx, %rax
	salq	$2, %rax
	movq	%rax, %rdx
	movq	-128(%rbp), %rax
	addq	%rdx, %rax
	leaq	4(%rax), %rcx
	movq	-136(%rbp), %rax
	movl	(%rax), %eax
	movslq	%eax, %rdx
	movq	%rdx, %rax
	salq	$2, %rax
	addq	%rdx, %rax
	addq	%rax, %rax
	addq	%rdx, %rax
	salq	$2, %rax
	movq	%rax, %rdx
	movq	-128(%rbp), %rax
	addq	%rdx, %rax
	movq	%rax, %rdx
	movq	-8(%rbp), %rax
	subq	$8, %rsp
	pushq	%rsi
	movq	%r8, %r9
	movq	%rdi, %r8
	leaq	.LC6(%rip), %rsi
	movq	%rax, %rdi
	movl	$0, %eax
	call	__isoc99_fscanf@PLT
	addq	$16, %rsp
	movl	%eax, -68(%rbp)
	cmpl	$5, -68(%rbp)
	jne	.L19
	movq	-136(%rbp), %rax
	movl	(%rax), %eax
	leal	1(%rax), %edx
	movq	-136(%rbp), %rax
	movl	%edx, (%rax)
	jmp	.L13
.L18:
	nop
	jmp	.L12
.L19:
	nop
.L12:
	movq	-8(%rbp), %rax
	movq	%rax, %rdi
	call	fclose@PLT
.L9:
	movq	-112(%rbp), %rax
	movl	(%rax), %eax
	movl	%eax, %esi
	leaq	.LC7(%rip), %rax
	movq	%rax, %rdi
	movl	$0, %eax
	call	printf@PLT
	movq	-136(%rbp), %rax
	movl	(%rax), %eax
	movl	%eax, %esi
	leaq	.LC8(%rip), %rax
	movq	%rax, %rdi
	movl	$0, %eax
	call	printf@PLT
	movq	_TIG_iO_26YZ_1_verificar_pagador_existente_1_opaque_ptr_1(%rip), %rdx
	movq	_TIG_iO_26YZ_1_verificar_pagador_existente_1_opaque_ptr_2(%rip), %rax
	cmpq	%rax, %rdx
	je	.L20
	movq	-112(%rbp), %rdx
	movq	-104(%rbp), %rax
	movq	%rdx, %rsi
	movq	%rax, %rdi
	call	cadastrar_pagador
	nop
.L20:
	nop
	leave
	.cfi_def_cfa 7, 8
	ret
	.cfi_endproc
.LFE0:
	.size	carregar_dados, .-carregar_dados
	.section	.rodata
	.align 8
.LC9:
	.string	"Digite o ID do pagador que deseja buscar: "
.LC10:
	.string	"%d"
.LC11:
	.string	"\nPagador encontrado!"
	.align 8
.LC12:
	.string	"ID: %d | Nome: %s | CPF/CNPJ: %s | Telefone: %s\n"
	.align 8
.LC13:
	.string	"\nErro: Nenhum pagador encontrado com o ID %d.\n"
	.text
	.globl	buscar_pagador_por_id
	.type	buscar_pagador_por_id, @function
buscar_pagador_por_id:
.LFB1:
	.cfi_startproc
	endbr64
	pushq	%rbp
	.cfi_def_cfa_offset 16
	.cfi_offset 6, -16
	movq	%rsp, %rbp
	.cfi_def_cfa_register 6
	subq	$64, %rsp
	movq	%rdi, -56(%rbp)
	movl	%esi, -60(%rbp)
	movq	%fs:40, %rax
	movq	%rax, -8(%rbp)
	xorl	%eax, %eax
#APP
# 236 "StomperHK_trabalho-final-lp_main.c" 1
	##_ANNOTATION_INITIALREGION_-TIG-iO-26YZ-1-buscar-pagador-por-id--16
# 0 "" 2
# 240 "StomperHK_trabalho-final-lp_main.c" 1
	##_ANNOTATION_ATOMICREGION_-TIG-iO-26YZ-1-buscar-pagador-por-id--15
# 0 "" 2
#NO_APP
	movl	$24, %edi
	call	malloc@PLT
	movq	%rax, -32(%rbp)
	movq	-32(%rbp), %rax
	movq	-32(%rbp), %rdx
	movq	%rdx, 16(%rax)
	movq	-32(%rbp), %rax
	movq	-32(%rbp), %rdx
	movq	%rdx, 8(%rax)
	movq	-32(%rbp), %rax
	movq	%rax, _TIG_iO_26YZ_1_buscar_pagador_por_id_1_opaque_list_1(%rip)
	call	rand@PLT
	movl	%eax, -40(%rbp)
	movl	$24, %edi
	call	malloc@PLT
	movq	%rax, -24(%rbp)
	movq	-24(%rbp), %rax
	movl	$0, (%rax)
	movq	_TIG_iO_26YZ_1_buscar_pagador_por_id_1_opaque_list_1(%rip), %rax
	movq	16(%rax), %rdx
	movq	-24(%rbp), %rax
	movq	%rdx, 16(%rax)
	movq	_TIG_iO_26YZ_1_buscar_pagador_por_id_1_opaque_list_1(%rip), %rdx
	movq	-24(%rbp), %rax
	movq	%rdx, 8(%rax)
	movq	_TIG_iO_26YZ_1_buscar_pagador_por_id_1_opaque_list_1(%rip), %rax
	movq	16(%rax), %rax
	movq	-24(%rbp), %rdx
	movq	%rdx, 8(%rax)
	movq	_TIG_iO_26YZ_1_buscar_pagador_por_id_1_opaque_list_1(%rip), %rax
	movq	-24(%rbp), %rdx
	movq	%rdx, 16(%rax)
	call	rand@PLT
	movl	%eax, -36(%rbp)
	movl	$24, %edi
	call	malloc@PLT
	movq	%rax, -16(%rbp)
	movq	-16(%rbp), %rax
	movl	-36(%rbp), %edx
	movl	%edx, (%rax)
	movq	_TIG_iO_26YZ_1_buscar_pagador_por_id_1_opaque_list_1(%rip), %rax
	movq	16(%rax), %rdx
	movq	-16(%rbp), %rax
	movq	%rdx, 16(%rax)
	movq	_TIG_iO_26YZ_1_buscar_pagador_por_id_1_opaque_list_1(%rip), %rdx
	movq	-16(%rbp), %rax
	movq	%rdx, 8(%rax)
	movq	_TIG_iO_26YZ_1_buscar_pagador_por_id_1_opaque_list_1(%rip), %rax
	movq	16(%rax), %rax
	movq	-16(%rbp), %rdx
	movq	%rdx, 8(%rax)
	movq	_TIG_iO_26YZ_1_buscar_pagador_por_id_1_opaque_list_1(%rip), %rax
	movq	-16(%rbp), %rdx
	movq	%rdx, 16(%rax)
	movq	_TIG_iO_26YZ_1_buscar_pagador_por_id_1_opaque_list_1(%rip), %rax
	movq	16(%rax), %rax
	movq	%rax, _TIG_iO_26YZ_1_buscar_pagador_por_id_1_opaque_ptr_1(%rip)
	movq	_TIG_iO_26YZ_1_buscar_pagador_por_id_1_opaque_ptr_1(%rip), %rax
	movq	%rax, _TIG_iO_26YZ_1_buscar_pagador_por_id_1_opaque_ptr_2(%rip)
	nop
	nop
	movq	_TIG_iO_26YZ_1_verificar_pagador_existente_1_opaque_ptr_1(%rip), %rdx
	movq	_TIG_iO_26YZ_1_verificar_pagador_existente_1_opaque_ptr_2(%rip), %rax
	cmpq	%rax, %rdx
	je	.L22
	leaq	-1+.LC9(%rip), %rax
	movq	%rax, %rdi
	movl	$0, %eax
	call	printf@PLT
	leaq	-48(%rbp), %rax
	subq	$4, %rax
	leaq	1+.LC10(%rip), %rdx
	movq	%rax, %rsi
	movq	%rdx, %rdi
	movl	$0, %eax
	call	__isoc99_scanf@PLT
	movl	-60(%rbp), %eax
	movl	%eax, -44(%rbp)
	jmp	.L24
.L22:
	leaq	.LC9(%rip), %rax
	movq	%rax, %rdi
	movl	$0, %eax
	call	printf@PLT
	leaq	-48(%rbp), %rax
	movq	%rax, %rsi
	leaq	.LC10(%rip), %rax
	movq	%rax, %rdi
	movl	$0, %eax
	call	__isoc99_scanf@PLT
	movl	$0, -44(%rbp)
	jmp	.L24
.L27:
	movl	-44(%rbp), %eax
	cltq
	imulq	$92, %rax, %rdx
	movq	-56(%rbp), %rax
	addq	%rdx, %rax
	movl	(%rax), %edx
	movl	-48(%rbp), %eax
	cmpl	%eax, %edx
	jne	.L25
	leaq	.LC11(%rip), %rax
	movq	%rax, %rdi
	call	puts@PLT
	movl	-44(%rbp), %eax
	cltq
	imulq	$92, %rax, %rdx
	movq	-56(%rbp), %rax
	addq	%rdx, %rax
	leaq	74(%rax), %rsi
	movl	-44(%rbp), %eax
	cltq
	imulq	$92, %rax, %rdx
	movq	-56(%rbp), %rax
	addq	%rdx, %rax
	leaq	54(%rax), %rcx
	movl	-44(%rbp), %eax
	cltq
	imulq	$92, %rax, %rdx
	movq	-56(%rbp), %rax
	addq	%rdx, %rax
	leaq	4(%rax), %rdx
	movl	-44(%rbp), %eax
	cltq
	imulq	$92, %rax, %rdi
	movq	-56(%rbp), %rax
	addq	%rdi, %rax
	movl	(%rax), %eax
	movq	%rsi, %r8
	movl	%eax, %esi
	leaq	.LC12(%rip), %rax
	movq	%rax, %rdi
	movl	$0, %eax
	call	printf@PLT
	jmp	.L21
.L25:
	addl	$1, -44(%rbp)
.L24:
	movl	-44(%rbp), %eax
	cmpl	-60(%rbp), %eax
	jl	.L27
	movl	-48(%rbp), %eax
	movl	%eax, %esi
	leaq	.LC13(%rip), %rax
	movq	%rax, %rdi
	movl	$0, %eax
	call	printf@PLT
	nop
.L21:
	movq	-8(%rbp), %rax
	subq	%fs:40, %rax
	je	.L29
	call	__stack_chk_fail@PLT
.L29:
	leave
	.cfi_def_cfa 7, 8
	ret
	.cfi_endproc
.LFE1:
	.size	buscar_pagador_por_id, .-buscar_pagador_por_id
	.section	.rodata
	.align 8
.LC14:
	.string	"Digite o ID da conta que deseja buscar: "
.LC15:
	.string	"\nConta encontrada!"
	.align 8
.LC16:
	.string	"ID Conta: %d | Valor: %.2f | Status: %s | Vencimento: %s | Pagador: %s (ID: %d)\n"
	.align 8
.LC17:
	.string	"\nErro: Nenhuma conta encontrada com o ID %d.\n"
	.text
	.globl	buscar_conta_por_id
	.type	buscar_conta_por_id, @function
buscar_conta_por_id:
.LFB3:
	.cfi_startproc
	endbr64
	pushq	%rbp
	.cfi_def_cfa_offset 16
	.cfi_offset 6, -16
	movq	%rsp, %rbp
	.cfi_def_cfa_register 6
	subq	$176, %rsp
	movq	%rdi, -152(%rbp)
	movl	%esi, -156(%rbp)
	movq	%rdx, -168(%rbp)
	movl	%ecx, -160(%rbp)
	movq	%fs:40, %rax
	movq	%rax, -8(%rbp)
	xorl	%eax, %eax
#APP
# 64 "/usr/include/x86_64-linux-gnu/bits/byteswap.h" 1
	##_ANNOTATION_INITIALREGION_-TIG-iO-26YZ-1-buscar-conta-por-id--14
# 0 "" 2
# 68 "/usr/include/x86_64-linux-gnu/bits/byteswap.h" 1
	##_ANNOTATION_ATOMICREGION_-TIG-iO-26YZ-1-buscar-conta-por-id--13
# 0 "" 2
#NO_APP
	movl	$24, %edi
	call	malloc@PLT
	movq	%rax, -104(%rbp)
	movq	-104(%rbp), %rax
	movq	-104(%rbp), %rdx
	movq	%rdx, (%rax)
	movq	-104(%rbp), %rax
	movq	-104(%rbp), %rdx
	movq	%rdx, 8(%rax)
	movq	-104(%rbp), %rax
	movq	%rax, _TIG_iO_26YZ_1_buscar_conta_por_id_1_opaque_list_1(%rip)
	call	rand@PLT
	movl	%eax, -120(%rbp)
	movl	$24, %edi
	call	malloc@PLT
	movq	%rax, -96(%rbp)
	movq	-96(%rbp), %rax
	movl	$0, 16(%rax)
	movq	_TIG_iO_26YZ_1_buscar_conta_por_id_1_opaque_list_1(%rip), %rax
	movq	(%rax), %rdx
	movq	-96(%rbp), %rax
	movq	%rdx, (%rax)
	movq	_TIG_iO_26YZ_1_buscar_conta_por_id_1_opaque_list_1(%rip), %rdx
	movq	-96(%rbp), %rax
	movq	%rdx, 8(%rax)
	movq	_TIG_iO_26YZ_1_buscar_conta_por_id_1_opaque_list_1(%rip), %rax
	movq	(%rax), %rax
	movq	-96(%rbp), %rdx
	movq	%rdx, 8(%rax)
	movq	_TIG_iO_26YZ_1_buscar_conta_por_id_1_opaque_list_1(%rip), %rax
	movq	-96(%rbp), %rdx
	movq	%rdx, (%rax)
	call	rand@PLT
	movl	%eax, -116(%rbp)
	movl	$24, %edi
	call	malloc@PLT
	movq	%rax, -88(%rbp)
	movq	-88(%rbp), %rax
	movl	-116(%rbp), %edx
	movl	%edx, 16(%rax)
	movq	_TIG_iO_26YZ_1_buscar_conta_por_id_1_opaque_list_1(%rip), %rax
	movq	(%rax), %rdx
	movq	-88(%rbp), %rax
	movq	%rdx, (%rax)
	movq	_TIG_iO_26YZ_1_buscar_conta_por_id_1_opaque_list_1(%rip), %rdx
	movq	-88(%rbp), %rax
	movq	%rdx, 8(%rax)
	movq	_TIG_iO_26YZ_1_buscar_conta_por_id_1_opaque_list_1(%rip), %rax
	movq	(%rax), %rax
	movq	-88(%rbp), %rdx
	movq	%rdx, 8(%rax)
	movq	_TIG_iO_26YZ_1_buscar_conta_por_id_1_opaque_list_1(%rip), %rax
	movq	-88(%rbp), %rdx
	movq	%rdx, (%rax)
	call	rand@PLT
	movl	%eax, -112(%rbp)
	movl	$24, %edi
	call	malloc@PLT
	movq	%rax, -80(%rbp)
	movl	-112(%rbp), %eax
	leal	(%rax,%rax), %edx
	movq	-80(%rbp), %rax
	movl	%edx, 16(%rax)
	movq	_TIG_iO_26YZ_1_buscar_conta_por_id_1_opaque_list_1(%rip), %rax
	movq	(%rax), %rdx
	movq	-80(%rbp), %rax
	movq	%rdx, (%rax)
	movq	_TIG_iO_26YZ_1_buscar_conta_por_id_1_opaque_list_1(%rip), %rdx
	movq	-80(%rbp), %rax
	movq	%rdx, 8(%rax)
	movq	_TIG_iO_26YZ_1_buscar_conta_por_id_1_opaque_list_1(%rip), %rax
	movq	(%rax), %rax
	movq	-80(%rbp), %rdx
	movq	%rdx, 8(%rax)
	movq	_TIG_iO_26YZ_1_buscar_conta_por_id_1_opaque_list_1(%rip), %rax
	movq	-80(%rbp), %rdx
	movq	%rdx, (%rax)
	call	rand@PLT
	movl	%eax, -108(%rbp)
	movl	$24, %edi
	call	malloc@PLT
	movq	%rax, -72(%rbp)
	movl	-108(%rbp), %edx
	movl	%edx, %eax
	addl	%eax, %eax
	addl	%eax, %edx
	movq	-72(%rbp), %rax
	movl	%edx, 16(%rax)
	movq	_TIG_iO_26YZ_1_buscar_conta_por_id_1_opaque_list_1(%rip), %rax
	movq	(%rax), %rdx
	movq	-72(%rbp), %rax
	movq	%rdx, (%rax)
	movq	_TIG_iO_26YZ_1_buscar_conta_por_id_1_opaque_list_1(%rip), %rdx
	movq	-72(%rbp), %rax
	movq	%rdx, 8(%rax)
	movq	_TIG_iO_26YZ_1_buscar_conta_por_id_1_opaque_list_1(%rip), %rax
	movq	(%rax), %rax
	movq	-72(%rbp), %rdx
	movq	%rdx, 8(%rax)
	movq	_TIG_iO_26YZ_1_buscar_conta_por_id_1_opaque_list_1(%rip), %rax
	movq	-72(%rbp), %rdx
	movq	%rdx, (%rax)
	movq	_TIG_iO_26YZ_1_buscar_conta_por_id_1_opaque_list_1(%rip), %rax
	movq	(%rax), %rax
	movq	%rax, _TIG_iO_26YZ_1_buscar_conta_por_id_1_opaque_ptr_1(%rip)
	movq	_TIG_iO_26YZ_1_buscar_conta_por_id_1_opaque_ptr_1(%rip), %rax
	movq	%rax, _TIG_iO_26YZ_1_buscar_conta_por_id_1_opaque_ptr_2(%rip)
	movq	_TIG_iO_26YZ_1_buscar_conta_por_id_1_opaque_ptr_2(%rip), %rax
	movq	(%rax), %rax
	movq	%rax, _TIG_iO_26YZ_1_buscar_conta_por_id_1_opaque_ptr_2(%rip)
	nop
	nop
	leaq	.LC14(%rip), %rax
	movq	%rax, %rdi
	movl	$0, %eax
	call	printf@PLT
	leaq	-136(%rbp), %rax
	movq	%rax, %rsi
	leaq	.LC10(%rip), %rax
	movq	%rax, %rdi
	movl	$0, %eax
	call	__isoc99_scanf@PLT
	movl	$0, -132(%rbp)
	jmp	.L31
.L41:
	movl	-132(%rbp), %eax
	movslq	%eax, %rdx
	movq	%rdx, %rax
	salq	$2, %rax
	addq	%rdx, %rax
	addq	%rax, %rax
	addq	%rdx, %rax
	salq	$2, %rax
	movq	%rax, %rdx
	movq	-152(%rbp), %rax
	addq	%rdx, %rax
	movl	(%rax), %edx
	movl	-136(%rbp), %eax
	cmpl	%eax, %edx
	jne	.L32
	movb	$68, -64(%rbp)
	movb	$101, -63(%rbp)
	movb	$115, -62(%rbp)
	movb	$99, -61(%rbp)
	movb	$111, -60(%rbp)
	movb	$110, -59(%rbp)
	movb	$104, -58(%rbp)
	movb	$101, -57(%rbp)
	movb	$99, -56(%rbp)
	movb	$105, -55(%rbp)
	movb	$100, -54(%rbp)
	movb	$111, -53(%rbp)
	movb	$0, -52(%rbp)
	movl	$13, -128(%rbp)
	jmp	.L33
.L35:
	movq	_TIG_iO_26YZ_1_verificar_pagador_existente_1_opaque_ptr_1(%rip), %rdx
	movq	_TIG_iO_26YZ_1_verificar_pagador_existente_1_opaque_ptr_2(%rip), %rax
	cmpq	%rax, %rdx
	je	.L34
	movl	-112(%rbp), %edx
	movl	-108(%rbp), %ecx
	movq	-168(%rbp), %rax
	movl	%ecx, %esi
	movq	%rax, %rdi
	call	verificar_pagador_existente
	movl	%eax, -116(%rbp)
.L34:
	movl	-128(%rbp), %eax
	movb	$0, -64(%rbp,%rax)
	addl	$1, -128(%rbp)
.L33:
	cmpl	$49, -128(%rbp)
	jbe	.L35
	movl	$0, -124(%rbp)
	jmp	.L36
.L39:
	movl	-124(%rbp), %eax
	cltq
	imulq	$92, %rax, %rdx
	movq	-168(%rbp), %rax
	addq	%rdx, %rax
	movl	(%rax), %ecx
	movl	-132(%rbp), %eax
	movslq	%eax, %rdx
	movq	%rdx, %rax
	salq	$2, %rax
	addq	%rdx, %rax
	addq	%rax, %rax
	addq	%rdx, %rax
	salq	$2, %rax
	movq	%rax, %rdx
	movq	-152(%rbp), %rax
	addq	%rdx, %rax
	movl	40(%rax), %eax
	cmpl	%eax, %ecx
	jne	.L37
	movl	-124(%rbp), %eax
	cltq
	imulq	$92, %rax, %rdx
	movq	-168(%rbp), %rax
	addq	%rdx, %rax
	leaq	4(%rax), %rdx
	leaq	-64(%rbp), %rax
	movq	%rdx, %rsi
	movq	%rax, %rdi
	call	strcpy@PLT
	jmp	.L38
.L37:
	addl	$1, -124(%rbp)
.L36:
	movl	-124(%rbp), %eax
	cmpl	-160(%rbp), %eax
	jl	.L39
.L38:
	leaq	.LC15(%rip), %rax
	movq	%rax, %rdi
	call	puts@PLT
	movl	-132(%rbp), %eax
	movslq	%eax, %rdx
	movq	%rdx, %rax
	salq	$2, %rax
	addq	%rdx, %rax
	addq	%rax, %rax
	addq	%rdx, %rax
	salq	$2, %rax
	movq	%rax, %rdx
	movq	-152(%rbp), %rax
	addq	%rdx, %rax
	movl	40(%rax), %r8d
	movl	-132(%rbp), %eax
	movslq	%eax, %rdx
	movq	%rdx, %rax
	salq	$2, %rax
	addq	%rdx, %rax
	addq	%rax, %rax
	addq	%rdx, %rax
	salq	$2, %rax
	movq	%rax, %rdx
	movq	-152(%rbp), %rax
	addq	%rdx, %rax
	leaq	28(%rax), %rcx
	movl	-132(%rbp), %eax
	movslq	%eax, %rdx
	movq	%rdx, %rax
	salq	$2, %rax
	addq	%rdx, %rax
	addq	%rax, %rax
	addq	%rdx, %rax
	salq	$2, %rax
	movq	%rax, %rdx
	movq	-152(%rbp), %rax
	addq	%rdx, %rax
	leaq	8(%rax), %rdi
	movl	-132(%rbp), %eax
	movslq	%eax, %rdx
	movq	%rdx, %rax
	salq	$2, %rax
	addq	%rdx, %rax
	addq	%rax, %rax
	addq	%rdx, %rax
	salq	$2, %rax
	movq	%rax, %rdx
	movq	-152(%rbp), %rax
	addq	%rdx, %rax
	movss	4(%rax), %xmm0
	pxor	%xmm1, %xmm1
	cvtss2sd	%xmm0, %xmm1
	movq	%xmm1, %rsi
	movl	-132(%rbp), %eax
	movslq	%eax, %rdx
	movq	%rdx, %rax
	salq	$2, %rax
	addq	%rdx, %rax
	addq	%rax, %rax
	addq	%rdx, %rax
	salq	$2, %rax
	movq	%rax, %rdx
	movq	-152(%rbp), %rax
	addq	%rdx, %rax
	movl	(%rax), %eax
	leaq	-64(%rbp), %rdx
	movl	%r8d, %r9d
	movq	%rdx, %r8
	movq	%rdi, %rdx
	movq	%rsi, %xmm0
	movl	%eax, %esi
	leaq	.LC16(%rip), %rax
	movq	%rax, %rdi
	movl	$1, %eax
	call	printf@PLT
	jmp	.L30
.L32:
	addl	$1, -132(%rbp)
.L31:
	movl	-132(%rbp), %eax
	cmpl	-156(%rbp), %eax
	jl	.L41
	movl	-136(%rbp), %eax
	movl	%eax, %esi
	leaq	.LC17(%rip), %rax
	movq	%rax, %rdi
	movl	$0, %eax
	call	printf@PLT
	nop
.L30:
	movq	-8(%rbp), %rax
	subq	%fs:40, %rax
	je	.L43
	call	__stack_chk_fail@PLT
.L43:
	leave
	.cfi_def_cfa 7, 8
	ret
	.cfi_endproc
.LFE3:
	.size	buscar_conta_por_id, .-buscar_conta_por_id
	.globl	verificar_pagador_existente
	.type	verificar_pagador_existente, @function
verificar_pagador_existente:
.LFB5:
	.cfi_startproc
	endbr64
	pushq	%rbp
	.cfi_def_cfa_offset 16
	.cfi_offset 6, -16
	movq	%rsp, %rbp
	.cfi_def_cfa_register 6
	subq	$64, %rsp
	movq	%rdi, -56(%rbp)
	movl	%esi, -60(%rbp)
	movl	%edx, -64(%rbp)
#APP
# 69 "/usr/include/x86_64-linux-gnu/bits/byteswap.h" 1
	##_ANNOTATION_INITIALREGION_-TIG-iO-26YZ-1-verificar-pagador-existente--36
# 0 "" 2
# 73 "/usr/include/x86_64-linux-gnu/bits/byteswap.h" 1
	##_ANNOTATION_ATOMICREGION_-TIG-iO-26YZ-1-verificar-pagador-existente--35
# 0 "" 2
#NO_APP
	movl	$24, %edi
	call	malloc@PLT
	movq	%rax, -24(%rbp)
	movq	-24(%rbp), %rax
	movq	-24(%rbp), %rdx
	movq	%rdx, 8(%rax)
	movq	-24(%rbp), %rax
	movq	-24(%rbp), %rdx
	movq	%rdx, 16(%rax)
	movq	-24(%rbp), %rax
	movq	%rax, _TIG_iO_26YZ_1_verificar_pagador_existente_1_opaque_list_1(%rip)
	call	rand@PLT
	movl	%eax, -32(%rbp)
	movl	$24, %edi
	call	malloc@PLT
	movq	%rax, -16(%rbp)
	movq	-16(%rbp), %rax
	movl	$0, (%rax)
	movq	_TIG_iO_26YZ_1_verificar_pagador_existente_1_opaque_list_1(%rip), %rax
	movq	8(%rax), %rdx
	movq	-16(%rbp), %rax
	movq	%rdx, 8(%rax)
	movq	_TIG_iO_26YZ_1_verificar_pagador_existente_1_opaque_list_1(%rip), %rdx
	movq	-16(%rbp), %rax
	movq	%rdx, 16(%rax)
	movq	_TIG_iO_26YZ_1_verificar_pagador_existente_1_opaque_list_1(%rip), %rax
	movq	8(%rax), %rax
	movq	-16(%rbp), %rdx
	movq	%rdx, 16(%rax)
	movq	_TIG_iO_26YZ_1_verificar_pagador_existente_1_opaque_list_1(%rip), %rax
	movq	-16(%rbp), %rdx
	movq	%rdx, 8(%rax)
	call	rand@PLT
	movl	%eax, -28(%rbp)
	movl	$24, %edi
	call	malloc@PLT
	movq	%rax, -8(%rbp)
	movq	-8(%rbp), %rax
	movl	-28(%rbp), %edx
	movl	%edx, (%rax)
	movq	_TIG_iO_26YZ_1_verificar_pagador_existente_1_opaque_list_1(%rip), %rax
	movq	8(%rax), %rdx
	movq	-8(%rbp), %rax
	movq	%rdx, 8(%rax)
	movq	_TIG_iO_26YZ_1_verificar_pagador_existente_1_opaque_list_1(%rip), %rdx
	movq	-8(%rbp), %rax
	movq	%rdx, 16(%rax)
	movq	_TIG_iO_26YZ_1_verificar_pagador_existente_1_opaque_list_1(%rip), %rax
	movq	8(%rax), %rax
	movq	-8(%rbp), %rdx
	movq	%rdx, 16(%rax)
	movq	_TIG_iO_26YZ_1_verificar_pagador_existente_1_opaque_list_1(%rip), %rax
	movq	-8(%rbp), %rdx
	movq	%rdx, 8(%rax)
	movq	_TIG_iO_26YZ_1_verificar_pagador_existente_1_opaque_list_1(%rip), %rax
	movq	8(%rax), %rax
	movq	%rax, _TIG_iO_26YZ_1_verificar_pagador_existente_1_opaque_ptr_1(%rip)
	movq	_TIG_iO_26YZ_1_verificar_pagador_existente_1_opaque_ptr_1(%rip), %rax
	movq	%rax, _TIG_iO_26YZ_1_verificar_pagador_existente_1_opaque_ptr_2(%rip)
	nop
	nop
	movl	$0, -36(%rbp)
	jmp	.L45
.L49:
	movl	-36(%rbp), %eax
	cltq
	imulq	$92, %rax, %rdx
	movq	-56(%rbp), %rax
	addq	%rdx, %rax
	movl	(%rax), %eax
	cmpl	%eax, -64(%rbp)
	jne	.L46
	movq	_TIG_iO_26YZ_1_verificar_pagador_existente_1_opaque_ptr_1(%rip), %rdx
	movq	_TIG_iO_26YZ_1_verificar_pagador_existente_1_opaque_ptr_2(%rip), %rax
	cmpq	%rax, %rdx
	je	.L47
#APP
# 72 "StomperHK_trabalho-final-lp_main.c" 1
	.byte 0x14,0xb6,0x2c,0x7b,0x40,0x95
# 0 "" 2
#NO_APP
	jmp	.L46
.L47:
	movl	$1, %eax
	jmp	.L48
.L46:
	addl	$1, -36(%rbp)
.L45:
	movl	-36(%rbp), %eax
	cmpl	-60(%rbp), %eax
	jl	.L49
	movl	$0, %eax
.L48:
	leave
	.cfi_def_cfa 7, 8
	ret
	.cfi_endproc
.LFE5:
	.size	verificar_pagador_existente, .-verificar_pagador_existente
	.section	.rodata
.LC18:
	.string	"w"
	.align 8
.LC19:
	.string	"Erro ao abrir os arquivos para salvar os dados!"
	.align 8
.LC20:
	.string	"ID: %d|Nome:%s|CPF/CNJP: %s|TEL: %s\n"
	.align 8
.LC21:
	.string	"ID: %d|VALOR: %.2f| STATUS: %s| VALIDADE: %s| ID (Padagor):%d\n"
.LC22:
	.string	"Dados salvos com sucesso!"
	.text
	.globl	salvar_dados
	.type	salvar_dados, @function
salvar_dados:
.LFB6:
	.cfi_startproc
	endbr64
	pushq	%rbp
	.cfi_def_cfa_offset 16
	.cfi_offset 6, -16
	movq	%rsp, %rbp
	.cfi_def_cfa_register 6
	subq	$112, %rsp
	movq	%rdi, -88(%rbp)
	movl	%esi, -92(%rbp)
	movq	%rdx, -104(%rbp)
	movl	%ecx, -96(%rbp)
#APP
# 95 "StomperHK_trabalho-final-lp_main.c" 1
	##_ANNOTATION_INITIALREGION_-TIG-iO-26YZ-1-salvar-dados--32
# 0 "" 2
# 99 "StomperHK_trabalho-final-lp_main.c" 1
	##_ANNOTATION_ATOMICREGION_-TIG-iO-26YZ-1-salvar-dados--31
# 0 "" 2
#NO_APP
	movl	$24, %edi
	call	malloc@PLT
	movq	%rax, -56(%rbp)
	movq	-56(%rbp), %rax
	movq	-56(%rbp), %rdx
	movq	%rdx, 16(%rax)
	movq	-56(%rbp), %rax
	movq	-56(%rbp), %rdx
	movq	%rdx, (%rax)
	movq	-56(%rbp), %rax
	movq	%rax, _TIG_iO_26YZ_1_salvar_dados_1_opaque_list_1(%rip)
	call	rand@PLT
	movl	%eax, -64(%rbp)
	movl	$24, %edi
	call	malloc@PLT
	movq	%rax, -48(%rbp)
	movq	-48(%rbp), %rax
	movl	$0, 8(%rax)
	movq	_TIG_iO_26YZ_1_salvar_dados_1_opaque_list_1(%rip), %rax
	movq	16(%rax), %rdx
	movq	-48(%rbp), %rax
	movq	%rdx, 16(%rax)
	movq	_TIG_iO_26YZ_1_salvar_dados_1_opaque_list_1(%rip), %rdx
	movq	-48(%rbp), %rax
	movq	%rdx, (%rax)
	movq	_TIG_iO_26YZ_1_salvar_dados_1_opaque_list_1(%rip), %rax
	movq	16(%rax), %rax
	movq	-48(%rbp), %rdx
	movq	%rdx, (%rax)
	movq	_TIG_iO_26YZ_1_salvar_dados_1_opaque_list_1(%rip), %rax
	movq	-48(%rbp), %rdx
	movq	%rdx, 16(%rax)
	call	rand@PLT
	movl	%eax, -60(%rbp)
	movl	$24, %edi
	call	malloc@PLT
	movq	%rax, -40(%rbp)
	movq	-40(%rbp), %rax
	movl	-60(%rbp), %edx
	movl	%edx, 8(%rax)
	movq	_TIG_iO_26YZ_1_salvar_dados_1_opaque_list_1(%rip), %rax
	movq	16(%rax), %rdx
	movq	-40(%rbp), %rax
	movq	%rdx, 16(%rax)
	movq	_TIG_iO_26YZ_1_salvar_dados_1_opaque_list_1(%rip), %rdx
	movq	-40(%rbp), %rax
	movq	%rdx, (%rax)
	movq	_TIG_iO_26YZ_1_salvar_dados_1_opaque_list_1(%rip), %rax
	movq	16(%rax), %rax
	movq	-40(%rbp), %rdx
	movq	%rdx, (%rax)
	movq	_TIG_iO_26YZ_1_salvar_dados_1_opaque_list_1(%rip), %rax
	movq	-40(%rbp), %rdx
	movq	%rdx, 16(%rax)
	movq	_TIG_iO_26YZ_1_salvar_dados_1_opaque_list_1(%rip), %rax
	movq	16(%rax), %rax
	movq	%rax, _TIG_iO_26YZ_1_salvar_dados_1_opaque_ptr_1(%rip)
	movq	_TIG_iO_26YZ_1_salvar_dados_1_opaque_ptr_1(%rip), %rax
	movq	%rax, _TIG_iO_26YZ_1_salvar_dados_1_opaque_ptr_2(%rip)
	nop
	nop
	leaq	.LC18(%rip), %rax
	movq	%rax, %rsi
	leaq	.LC1(%rip), %rax
	movq	%rax, %rdi
	call	fopen@PLT
	movq	%rax, -32(%rbp)
	movq	-32(%rbp), %rax
	movq	%rax, -24(%rbp)
	leaq	.LC18(%rip), %rax
	movq	%rax, %rsi
	leaq	.LC2(%rip), %rax
	movq	%rax, %rdi
	call	fopen@PLT
	movq	%rax, -16(%rbp)
	movq	-16(%rbp), %rax
	movq	%rax, -8(%rbp)
	cmpq	$0, -24(%rbp)
	jne	.L51
	leaq	.LC19(%rip), %rax
	movq	%rax, %rdi
	call	puts@PLT
	jmp	.L50
.L51:
	cmpq	$0, -8(%rbp)
	jne	.L53
	leaq	.LC19(%rip), %rax
	movq	%rax, %rdi
	call	puts@PLT
	jmp	.L50
.L53:
	movq	_TIG_iO_26YZ_1_verificar_pagador_existente_1_opaque_ptr_1(%rip), %rdx
	movq	_TIG_iO_26YZ_1_verificar_pagador_existente_1_opaque_ptr_2(%rip), %rax
	cmpq	%rax, %rdx
	je	.L54
	movl	-64(%rbp), %esi
	movq	-104(%rbp), %rcx
	movl	-64(%rbp), %edx
	movq	-88(%rbp), %rax
	movl	%esi, %r9d
	movl	$0, %r8d
	movl	$0, %esi
	movq	%rax, %rdi
	call	carregar_dados
.L54:
	movl	$0, -72(%rbp)
	jmp	.L55
.L56:
	movl	-72(%rbp), %eax
	cltq
	imulq	$92, %rax, %rdx
	movq	-88(%rbp), %rax
	addq	%rdx, %rax
	leaq	74(%rax), %rdi
	movl	-72(%rbp), %eax
	cltq
	imulq	$92, %rax, %rdx
	movq	-88(%rbp), %rax
	addq	%rdx, %rax
	leaq	54(%rax), %rsi
	movl	-72(%rbp), %eax
	cltq
	imulq	$92, %rax, %rdx
	movq	-88(%rbp), %rax
	addq	%rdx, %rax
	leaq	4(%rax), %rcx
	movl	-72(%rbp), %eax
	cltq
	imulq	$92, %rax, %rdx
	movq	-88(%rbp), %rax
	addq	%rdx, %rax
	movl	(%rax), %edx
	movq	-24(%rbp), %rax
	movq	%rdi, %r9
	movq	%rsi, %r8
	leaq	.LC20(%rip), %rsi
	movq	%rax, %rdi
	movl	$0, %eax
	call	fprintf@PLT
	addl	$1, -72(%rbp)
.L55:
	movl	-72(%rbp), %eax
	cmpl	-92(%rbp), %eax
	jl	.L56
	movl	$0, -68(%rbp)
	jmp	.L57
.L58:
	movl	-68(%rbp), %eax
	movslq	%eax, %rdx
	movq	%rdx, %rax
	salq	$2, %rax
	addq	%rdx, %rax
	addq	%rax, %rax
	addq	%rdx, %rax
	salq	$2, %rax
	movq	%rax, %rdx
	movq	-104(%rbp), %rax
	addq	%rdx, %rax
	movl	40(%rax), %edi
	movl	-68(%rbp), %eax
	movslq	%eax, %rdx
	movq	%rdx, %rax
	salq	$2, %rax
	addq	%rdx, %rax
	addq	%rax, %rax
	addq	%rdx, %rax
	salq	$2, %rax
	movq	%rax, %rdx
	movq	-104(%rbp), %rax
	addq	%rdx, %rax
	leaq	28(%rax), %r8
	movl	-68(%rbp), %eax
	movslq	%eax, %rdx
	movq	%rdx, %rax
	salq	$2, %rax
	addq	%rdx, %rax
	addq	%rax, %rax
	addq	%rdx, %rax
	salq	$2, %rax
	movq	%rax, %rdx
	movq	-104(%rbp), %rax
	addq	%rdx, %rax
	leaq	8(%rax), %rcx
	movl	-68(%rbp), %eax
	movslq	%eax, %rdx
	movq	%rdx, %rax
	salq	$2, %rax
	addq	%rdx, %rax
	addq	%rax, %rax
	addq	%rdx, %rax
	salq	$2, %rax
	movq	%rax, %rdx
	movq	-104(%rbp), %rax
	addq	%rdx, %rax
	movss	4(%rax), %xmm0
	pxor	%xmm1, %xmm1
	cvtss2sd	%xmm0, %xmm1
	movq	%xmm1, %rsi
	movl	-68(%rbp), %eax
	movslq	%eax, %rdx
	movq	%rdx, %rax
	salq	$2, %rax
	addq	%rdx, %rax
	addq	%rax, %rax
	addq	%rdx, %rax
	salq	$2, %rax
	movq	%rax, %rdx
	movq	-104(%rbp), %rax
	addq	%rdx, %rax
	movl	(%rax), %edx
	movq	-8(%rbp), %rax
	movl	%edi, %r9d
	movq	%rsi, %xmm0
	leaq	.LC21(%rip), %rsi
	movq	%rax, %rdi
	movl	$1, %eax
	call	fprintf@PLT
	addl	$1, -68(%rbp)
.L57:
	movl	-68(%rbp), %eax
	cmpl	-96(%rbp), %eax
	jl	.L58
	movq	-24(%rbp), %rax
	movq	%rax, %rdi
	call	fclose@PLT
	movq	-8(%rbp), %rax
	movq	%rax, %rdi
	call	fclose@PLT
	leaq	.LC22(%rip), %rax
	movq	%rax, %rdi
	call	puts@PLT
	nop
.L50:
	leave
	.cfi_def_cfa 7, 8
	ret
	.cfi_endproc
.LFE6:
	.size	salvar_dados, .-salvar_dados
	.globl	verificar_conta_existente
	.type	verificar_conta_existente, @function
verificar_conta_existente:
.LFB10:
	.cfi_startproc
	endbr64
	pushq	%rbp
	.cfi_def_cfa_offset 16
	.cfi_offset 6, -16
	movq	%rsp, %rbp
	.cfi_def_cfa_register 6
	subq	$64, %rsp
	movq	%rdi, -56(%rbp)
	movl	%esi, -60(%rbp)
	movl	%edx, -64(%rbp)
#APP
# 66 "/usr/include/x86_64-linux-gnu/bits/uintn-identity.h" 1
	##_ANNOTATION_INITIALREGION_-TIG-iO-26YZ-1-verificar-conta-existente--34
# 0 "" 2
# 70 "/usr/include/x86_64-linux-gnu/bits/uintn-identity.h" 1
	##_ANNOTATION_ATOMICREGION_-TIG-iO-26YZ-1-verificar-conta-existente--33
# 0 "" 2
#NO_APP
	movl	$24, %edi
	call	malloc@PLT
	movq	%rax, -24(%rbp)
	movq	-24(%rbp), %rax
	movq	-24(%rbp), %rdx
	movq	%rdx, (%rax)
	movq	-24(%rbp), %rax
	movq	-24(%rbp), %rdx
	movq	%rdx, 8(%rax)
	movq	-24(%rbp), %rax
	movq	%rax, _TIG_iO_26YZ_1_verificar_conta_existente_1_opaque_list_1(%rip)
	call	rand@PLT
	movl	%eax, -32(%rbp)
	movl	$24, %edi
	call	malloc@PLT
	movq	%rax, -16(%rbp)
	movq	-16(%rbp), %rax
	movl	$0, 16(%rax)
	movq	_TIG_iO_26YZ_1_verificar_conta_existente_1_opaque_list_1(%rip), %rax
	movq	(%rax), %rdx
	movq	-16(%rbp), %rax
	movq	%rdx, (%rax)
	movq	_TIG_iO_26YZ_1_verificar_conta_existente_1_opaque_list_1(%rip), %rdx
	movq	-16(%rbp), %rax
	movq	%rdx, 8(%rax)
	movq	_TIG_iO_26YZ_1_verificar_conta_existente_1_opaque_list_1(%rip), %rax
	movq	(%rax), %rax
	movq	-16(%rbp), %rdx
	movq	%rdx, 8(%rax)
	movq	_TIG_iO_26YZ_1_verificar_conta_existente_1_opaque_list_1(%rip), %rax
	movq	-16(%rbp), %rdx
	movq	%rdx, (%rax)
	call	rand@PLT
	movl	%eax, -28(%rbp)
	movl	$24, %edi
	call	malloc@PLT
	movq	%rax, -8(%rbp)
	movq	-8(%rbp), %rax
	movl	-28(%rbp), %edx
	movl	%edx, 16(%rax)
	movq	_TIG_iO_26YZ_1_verificar_conta_existente_1_opaque_list_1(%rip), %rax
	movq	(%rax), %rdx
	movq	-8(%rbp), %rax
	movq	%rdx, (%rax)
	movq	_TIG_iO_26YZ_1_verificar_conta_existente_1_opaque_list_1(%rip), %rdx
	movq	-8(%rbp), %rax
	movq	%rdx, 8(%rax)
	movq	_TIG_iO_26YZ_1_verificar_conta_existente_1_opaque_list_1(%rip), %rax
	movq	(%rax), %rax
	movq	-8(%rbp), %rdx
	movq	%rdx, 8(%rax)
	movq	_TIG_iO_26YZ_1_verificar_conta_existente_1_opaque_list_1(%rip), %rax
	movq	-8(%rbp), %rdx
	movq	%rdx, (%rax)
	movq	_TIG_iO_26YZ_1_verificar_conta_existente_1_opaque_list_1(%rip), %rax
	movq	(%rax), %rax
	movq	%rax, _TIG_iO_26YZ_1_verificar_conta_existente_1_opaque_ptr_1(%rip)
	movq	_TIG_iO_26YZ_1_verificar_conta_existente_1_opaque_ptr_1(%rip), %rax
	movq	%rax, _TIG_iO_26YZ_1_verificar_conta_existente_1_opaque_ptr_2(%rip)
	nop
	nop
	movl	$0, -36(%rbp)
	jmp	.L60
.L64:
	movl	-36(%rbp), %eax
	movslq	%eax, %rdx
	movq	%rdx, %rax
	salq	$2, %rax
	addq	%rdx, %rax
	addq	%rax, %rax
	addq	%rdx, %rax
	salq	$2, %rax
	movq	%rax, %rdx
	movq	-56(%rbp), %rax
	addq	%rdx, %rax
	movl	(%rax), %eax
	cmpl	%eax, -64(%rbp)
	jne	.L61
	movq	_TIG_iO_26YZ_1_verificar_pagador_existente_1_opaque_ptr_1(%rip), %rdx
	movq	_TIG_iO_26YZ_1_verificar_pagador_existente_1_opaque_ptr_2(%rip), %rax
	cmpq	%rax, %rdx
	jne	.L62
	movl	$1, %eax
	jmp	.L63
.L62:
#APP
# 82 "StomperHK_trabalho-final-lp_main.c" 1
	.byte 0x48,0x8b,0x56,0x60,0xb8,0x1
# 0 "" 2
#NO_APP
.L61:
	addl	$1, -36(%rbp)
.L60:
	movl	-36(%rbp), %eax
	cmpl	-60(%rbp), %eax
	jl	.L64
	movl	$0, %eax
.L63:
	leave
	.cfi_def_cfa 7, 8
	ret
	.cfi_endproc
.LFE10:
	.size	verificar_conta_existente, .-verificar_conta_existente
	.section	.rodata
	.align 8
.LC23:
	.string	"Limite m\303\241ximo de pagadores atingido!"
.LC24:
	.string	"Digite o ID do pagador: "
	.align 8
.LC25:
	.string	"Erro: J\303\241 existe um pagador com esse ID."
.LC26:
	.string	"Digite o nome do pagador: "
.LC27:
	.string	" %[^\n]"
	.align 8
.LC28:
	.string	"Digite o CPF/CNPJ do pagador: "
.LC29:
	.string	"%s"
	.align 8
.LC30:
	.string	"Digite o telefone do pagador: "
	.align 8
.LC31:
	.string	"Pagador cadastrado com sucesso!"
	.text
	.globl	cadastrar_pagador
	.type	cadastrar_pagador, @function
cadastrar_pagador:
.LFB11:
	.cfi_startproc
	endbr64
	pushq	%rbp
	.cfi_def_cfa_offset 16
	.cfi_offset 6, -16
	movq	%rsp, %rbp
	.cfi_def_cfa_register 6
	pushq	%rbx
	subq	$184, %rsp
	.cfi_offset 3, -24
	movq	%rdi, -184(%rbp)
	movq	%rsi, -192(%rbp)
	movq	%fs:40, %rax
	movq	%rax, -24(%rbp)
	xorl	%eax, %eax
#APP
# 101 "StomperHK_trabalho-final-lp_main.c" 1
	##_ANNOTATION_INITIALREGION_-TIG-iO-26YZ-1-cadastrar-pagador--20
# 0 "" 2
# 105 "StomperHK_trabalho-final-lp_main.c" 1
	##_ANNOTATION_ATOMICREGION_-TIG-iO-26YZ-1-cadastrar-pagador--19
# 0 "" 2
#NO_APP
	movl	$24, %edi
	call	malloc@PLT
	movq	%rax, -152(%rbp)
	movq	-152(%rbp), %rax
	movq	-152(%rbp), %rdx
	movq	%rdx, 8(%rax)
	movq	-152(%rbp), %rax
	movq	-152(%rbp), %rdx
	movq	%rdx, 16(%rax)
	movq	-152(%rbp), %rax
	movq	%rax, _TIG_iO_26YZ_1_cadastrar_pagador_1_opaque_list_1(%rip)
	call	rand@PLT
	movl	%eax, -164(%rbp)
	movl	$24, %edi
	call	malloc@PLT
	movq	%rax, -144(%rbp)
	movq	-144(%rbp), %rax
	movl	$0, (%rax)
	movq	_TIG_iO_26YZ_1_cadastrar_pagador_1_opaque_list_1(%rip), %rax
	movq	8(%rax), %rdx
	movq	-144(%rbp), %rax
	movq	%rdx, 8(%rax)
	movq	_TIG_iO_26YZ_1_cadastrar_pagador_1_opaque_list_1(%rip), %rdx
	movq	-144(%rbp), %rax
	movq	%rdx, 16(%rax)
	movq	_TIG_iO_26YZ_1_cadastrar_pagador_1_opaque_list_1(%rip), %rax
	movq	8(%rax), %rax
	movq	-144(%rbp), %rdx
	movq	%rdx, 16(%rax)
	movq	_TIG_iO_26YZ_1_cadastrar_pagador_1_opaque_list_1(%rip), %rax
	movq	-144(%rbp), %rdx
	movq	%rdx, 8(%rax)
	call	rand@PLT
	movl	%eax, -160(%rbp)
	movl	$24, %edi
	call	malloc@PLT
	movq	%rax, -136(%rbp)
	movq	-136(%rbp), %rax
	movl	-160(%rbp), %edx
	movl	%edx, (%rax)
	movq	_TIG_iO_26YZ_1_cadastrar_pagador_1_opaque_list_1(%rip), %rax
	movq	8(%rax), %rdx
	movq	-136(%rbp), %rax
	movq	%rdx, 8(%rax)
	movq	_TIG_iO_26YZ_1_cadastrar_pagador_1_opaque_list_1(%rip), %rdx
	movq	-136(%rbp), %rax
	movq	%rdx, 16(%rax)
	movq	_TIG_iO_26YZ_1_cadastrar_pagador_1_opaque_list_1(%rip), %rax
	movq	8(%rax), %rax
	movq	-136(%rbp), %rdx
	movq	%rdx, 16(%rax)
	movq	_TIG_iO_26YZ_1_cadastrar_pagador_1_opaque_list_1(%rip), %rax
	movq	-136(%rbp), %rdx
	movq	%rdx, 8(%rax)
	movq	_TIG_iO_26YZ_1_cadastrar_pagador_1_opaque_list_1(%rip), %rax
	movq	8(%rax), %rax
	movq	%rax, _TIG_iO_26YZ_1_cadastrar_pagador_1_opaque_ptr_1(%rip)
	movq	_TIG_iO_26YZ_1_cadastrar_pagador_1_opaque_ptr_1(%rip), %rax
	movq	%rax, _TIG_iO_26YZ_1_cadastrar_pagador_1_opaque_ptr_2(%rip)
	nop
	nop
	movq	-192(%rbp), %rax
	movl	(%rax), %eax
	cmpl	$99, %eax
	jle	.L66
	leaq	.LC23(%rip), %rax
	movq	%rax, %rdi
	call	puts@PLT
	jmp	.L65
.L66:
	leaq	.LC24(%rip), %rax
	movq	%rax, %rdi
	movl	$0, %eax
	call	printf@PLT
	leaq	-128(%rbp), %rax
	movq	%rax, %rsi
	leaq	.LC10(%rip), %rax
	movq	%rax, %rdi
	movl	$0, %eax
	call	__isoc99_scanf@PLT
	movl	-128(%rbp), %edx
	movq	-192(%rbp), %rax
	movl	(%rax), %ecx
	movq	-184(%rbp), %rax
	movl	%ecx, %esi
	movq	%rax, %rdi
	call	verificar_pagador_existente
	movl	%eax, -156(%rbp)
	cmpl	$0, -156(%rbp)
	je	.L68
	leaq	.LC25(%rip), %rax
	movq	%rax, %rdi
	call	puts@PLT
	jmp	.L65
.L68:
	leaq	.LC26(%rip), %rax
	movq	%rax, %rdi
	movl	$0, %eax
	call	printf@PLT
	leaq	-128(%rbp), %rax
	addq	$4, %rax
	movq	%rax, %rsi
	leaq	.LC27(%rip), %rax
	movq	%rax, %rdi
	movl	$0, %eax
	call	__isoc99_scanf@PLT
	leaq	.LC28(%rip), %rax
	movq	%rax, %rdi
	movl	$0, %eax
	call	printf@PLT
	leaq	-128(%rbp), %rax
	addq	$54, %rax
	movq	%rax, %rsi
	leaq	.LC29(%rip), %rax
	movq	%rax, %rdi
	movl	$0, %eax
	call	__isoc99_scanf@PLT
	leaq	.LC30(%rip), %rax
	movq	%rax, %rdi
	movl	$0, %eax
	call	printf@PLT
	leaq	-128(%rbp), %rax
	addq	$74, %rax
	movq	%rax, %rsi
	leaq	.LC29(%rip), %rax
	movq	%rax, %rdi
	movl	$0, %eax
	call	__isoc99_scanf@PLT
	movq	-192(%rbp), %rax
	movl	(%rax), %eax
	cltq
	imulq	$92, %rax, %rdx
	movq	-184(%rbp), %rax
	addq	%rdx, %rax
	movq	-128(%rbp), %rcx
	movq	-120(%rbp), %rbx
	movq	%rcx, (%rax)
	movq	%rbx, 8(%rax)
	movq	-112(%rbp), %rcx
	movq	-104(%rbp), %rbx
	movq	%rcx, 16(%rax)
	movq	%rbx, 24(%rax)
	movq	-96(%rbp), %rcx
	movq	-88(%rbp), %rbx
	movq	%rcx, 32(%rax)
	movq	%rbx, 40(%rax)
	movq	-80(%rbp), %rcx
	movq	-72(%rbp), %rbx
	movq	%rcx, 48(%rax)
	movq	%rbx, 56(%rax)
	movq	-64(%rbp), %rcx
	movq	-56(%rbp), %rbx
	movq	%rcx, 64(%rax)
	movq	%rbx, 72(%rax)
	movq	-48(%rbp), %rdx
	movq	%rdx, 80(%rax)
	movl	-40(%rbp), %edx
	movl	%edx, 88(%rax)
	movq	-192(%rbp), %rax
	movl	(%rax), %eax
	leal	1(%rax), %edx
	movq	-192(%rbp), %rax
	movl	%edx, (%rax)
	leaq	.LC31(%rip), %rax
	movq	%rax, %rdi
	call	puts@PLT
	movq	_TIG_iO_26YZ_1_verificar_pagador_existente_1_opaque_ptr_1(%rip), %rdx
	movq	_TIG_iO_26YZ_1_verificar_pagador_existente_1_opaque_ptr_2(%rip), %rax
	cmpq	%rax, %rdx
.L65:
	movq	-24(%rbp), %rax
	subq	%fs:40, %rax
	je	.L71
	call	__stack_chk_fail@PLT
.L71:
	movq	-8(%rbp), %rbx
	leave
	.cfi_def_cfa 7, 8
	ret
	.cfi_endproc
.LFE11:
	.size	cadastrar_pagador, .-cadastrar_pagador
	.section	.rodata
.LC32:
	.string	"\nPagadores cadastrados:"
	.text
	.globl	listar_pagadores
	.type	listar_pagadores, @function
listar_pagadores:
.LFB12:
	.cfi_startproc
	endbr64
	pushq	%rbp
	.cfi_def_cfa_offset 16
	.cfi_offset 6, -16
	movq	%rsp, %rbp
	.cfi_def_cfa_register 6
	subq	$80, %rsp
	movq	%rdi, -72(%rbp)
	movl	%esi, -76(%rbp)
#APP
# 135 "StomperHK_trabalho-final-lp_main.c" 1
	##_ANNOTATION_INITIALREGION_-TIG-iO-26YZ-1-listar-pagadores--26
# 0 "" 2
# 139 "StomperHK_trabalho-final-lp_main.c" 1
	##_ANNOTATION_ATOMICREGION_-TIG-iO-26YZ-1-listar-pagadores--25
# 0 "" 2
#NO_APP
	movl	$24, %edi
	call	malloc@PLT
	movq	%rax, -40(%rbp)
	movq	-40(%rbp), %rax
	movq	-40(%rbp), %rdx
	movq	%rdx, (%rax)
	movq	-40(%rbp), %rax
	movq	-40(%rbp), %rdx
	movq	%rdx, 16(%rax)
	movq	-40(%rbp), %rax
	movq	%rax, _TIG_iO_26YZ_1_listar_pagadores_1_opaque_list_1(%rip)
	call	rand@PLT
	movl	%eax, -56(%rbp)
	movl	$24, %edi
	call	malloc@PLT
	movq	%rax, -32(%rbp)
	movq	-32(%rbp), %rax
	movl	$0, 8(%rax)
	movq	_TIG_iO_26YZ_1_listar_pagadores_1_opaque_list_1(%rip), %rax
	movq	(%rax), %rdx
	movq	-32(%rbp), %rax
	movq	%rdx, (%rax)
	movq	_TIG_iO_26YZ_1_listar_pagadores_1_opaque_list_1(%rip), %rdx
	movq	-32(%rbp), %rax
	movq	%rdx, 16(%rax)
	movq	_TIG_iO_26YZ_1_listar_pagadores_1_opaque_list_1(%rip), %rax
	movq	(%rax), %rax
	movq	-32(%rbp), %rdx
	movq	%rdx, 16(%rax)
	movq	_TIG_iO_26YZ_1_listar_pagadores_1_opaque_list_1(%rip), %rax
	movq	-32(%rbp), %rdx
	movq	%rdx, (%rax)
	call	rand@PLT
	movl	%eax, -52(%rbp)
	movl	$24, %edi
	call	malloc@PLT
	movq	%rax, -24(%rbp)
	movq	-24(%rbp), %rax
	movl	-52(%rbp), %edx
	movl	%edx, 8(%rax)
	movq	_TIG_iO_26YZ_1_listar_pagadores_1_opaque_list_1(%rip), %rax
	movq	(%rax), %rdx
	movq	-24(%rbp), %rax
	movq	%rdx, (%rax)
	movq	_TIG_iO_26YZ_1_listar_pagadores_1_opaque_list_1(%rip), %rdx
	movq	-24(%rbp), %rax
	movq	%rdx, 16(%rax)
	movq	_TIG_iO_26YZ_1_listar_pagadores_1_opaque_list_1(%rip), %rax
	movq	(%rax), %rax
	movq	-24(%rbp), %rdx
	movq	%rdx, 16(%rax)
	movq	_TIG_iO_26YZ_1_listar_pagadores_1_opaque_list_1(%rip), %rax
	movq	-24(%rbp), %rdx
	movq	%rdx, (%rax)
	call	rand@PLT
	movl	%eax, -48(%rbp)
	movl	$24, %edi
	call	malloc@PLT
	movq	%rax, -16(%rbp)
	movl	-48(%rbp), %eax
	leal	(%rax,%rax), %edx
	movq	-16(%rbp), %rax
	movl	%edx, 8(%rax)
	movq	_TIG_iO_26YZ_1_listar_pagadores_1_opaque_list_1(%rip), %rax
	movq	(%rax), %rdx
	movq	-16(%rbp), %rax
	movq	%rdx, (%rax)
	movq	_TIG_iO_26YZ_1_listar_pagadores_1_opaque_list_1(%rip), %rdx
	movq	-16(%rbp), %rax
	movq	%rdx, 16(%rax)
	movq	_TIG_iO_26YZ_1_listar_pagadores_1_opaque_list_1(%rip), %rax
	movq	(%rax), %rax
	movq	-16(%rbp), %rdx
	movq	%rdx, 16(%rax)
	movq	_TIG_iO_26YZ_1_listar_pagadores_1_opaque_list_1(%rip), %rax
	movq	-16(%rbp), %rdx
	movq	%rdx, (%rax)
	call	rand@PLT
	movl	%eax, -44(%rbp)
	movl	$24, %edi
	call	malloc@PLT
	movq	%rax, -8(%rbp)
	movl	-44(%rbp), %edx
	movl	%edx, %eax
	addl	%eax, %eax
	addl	%eax, %edx
	movq	-8(%rbp), %rax
	movl	%edx, 8(%rax)
	movq	_TIG_iO_26YZ_1_listar_pagadores_1_opaque_list_1(%rip), %rax
	movq	(%rax), %rdx
	movq	-8(%rbp), %rax
	movq	%rdx, (%rax)
	movq	_TIG_iO_26YZ_1_listar_pagadores_1_opaque_list_1(%rip), %rdx
	movq	-8(%rbp), %rax
	movq	%rdx, 16(%rax)
	movq	_TIG_iO_26YZ_1_listar_pagadores_1_opaque_list_1(%rip), %rax
	movq	(%rax), %rax
	movq	-8(%rbp), %rdx
	movq	%rdx, 16(%rax)
	movq	_TIG_iO_26YZ_1_listar_pagadores_1_opaque_list_1(%rip), %rax
	movq	-8(%rbp), %rdx
	movq	%rdx, (%rax)
	movq	_TIG_iO_26YZ_1_listar_pagadores_1_opaque_list_1(%rip), %rax
	movq	(%rax), %rax
	movq	%rax, _TIG_iO_26YZ_1_listar_pagadores_1_opaque_ptr_1(%rip)
	movq	_TIG_iO_26YZ_1_listar_pagadores_1_opaque_ptr_1(%rip), %rax
	movq	%rax, _TIG_iO_26YZ_1_listar_pagadores_1_opaque_ptr_2(%rip)
	nop
	nop
	leaq	.LC32(%rip), %rax
	movq	%rax, %rdi
	call	puts@PLT
	movl	$0, -60(%rbp)
	jmp	.L73
.L74:
	movl	-60(%rbp), %eax
	cltq
	imulq	$92, %rax, %rdx
	movq	-72(%rbp), %rax
	addq	%rdx, %rax
	leaq	74(%rax), %rsi
	movl	-60(%rbp), %eax
	cltq
	imulq	$92, %rax, %rdx
	movq	-72(%rbp), %rax
	addq	%rdx, %rax
	leaq	54(%rax), %rcx
	movl	-60(%rbp), %eax
	cltq
	imulq	$92, %rax, %rdx
	movq	-72(%rbp), %rax
	addq	%rdx, %rax
	leaq	4(%rax), %rdx
	movl	-60(%rbp), %eax
	cltq
	imulq	$92, %rax, %rdi
	movq	-72(%rbp), %rax
	addq	%rdi, %rax
	movl	(%rax), %eax
	movq	%rsi, %r8
	movl	%eax, %esi
	leaq	.LC12(%rip), %rax
	movq	%rax, %rdi
	movl	$0, %eax
	call	printf@PLT
	addl	$1, -60(%rbp)
.L73:
	movl	-60(%rbp), %eax
	cmpl	-76(%rbp), %eax
	jl	.L74
	movq	_TIG_iO_26YZ_1_verificar_pagador_existente_1_opaque_ptr_1(%rip), %rdx
	movq	_TIG_iO_26YZ_1_verificar_pagador_existente_1_opaque_ptr_2(%rip), %rax
	cmpq	%rax, %rdx
	leave
	.cfi_def_cfa 7, 8
	ret
	.cfi_endproc
.LFE12:
	.size	listar_pagadores, .-listar_pagadores
	.section	.rodata
.LC33:
	.string	"\nContas cadastradas:"
	.text
	.globl	listar_contas
	.type	listar_contas, @function
listar_contas:
.LFB13:
	.cfi_startproc
	endbr64
	pushq	%rbp
	.cfi_def_cfa_offset 16
	.cfi_offset 6, -16
	movq	%rsp, %rbp
	.cfi_def_cfa_register 6
	subq	$160, %rsp
	movq	%rdi, -136(%rbp)
	movl	%esi, -140(%rbp)
	movq	%rdx, -152(%rbp)
	movl	%ecx, -144(%rbp)
	movq	%fs:40, %rax
	movq	%rax, -8(%rbp)
	xorl	%eax, %eax
#APP
# 250 "StomperHK_trabalho-final-lp_main.c" 1
	##_ANNOTATION_INITIALREGION_-TIG-iO-26YZ-1-listar-contas--24
# 0 "" 2
# 254 "StomperHK_trabalho-final-lp_main.c" 1
	##_ANNOTATION_ATOMICREGION_-TIG-iO-26YZ-1-listar-contas--23
# 0 "" 2
#NO_APP
	movl	$24, %edi
	call	malloc@PLT
	movq	%rax, -96(%rbp)
	movq	-96(%rbp), %rax
	movq	-96(%rbp), %rdx
	movq	%rdx, (%rax)
	movq	-96(%rbp), %rax
	movq	-96(%rbp), %rdx
	movq	%rdx, 8(%rax)
	movq	-96(%rbp), %rax
	movq	%rax, _TIG_iO_26YZ_1_listar_contas_1_opaque_list_1(%rip)
	call	rand@PLT
	movl	%eax, -108(%rbp)
	movl	$24, %edi
	call	malloc@PLT
	movq	%rax, -88(%rbp)
	movq	-88(%rbp), %rax
	movl	$0, 16(%rax)
	movq	_TIG_iO_26YZ_1_listar_contas_1_opaque_list_1(%rip), %rax
	movq	(%rax), %rdx
	movq	-88(%rbp), %rax
	movq	%rdx, (%rax)
	movq	_TIG_iO_26YZ_1_listar_contas_1_opaque_list_1(%rip), %rdx
	movq	-88(%rbp), %rax
	movq	%rdx, 8(%rax)
	movq	_TIG_iO_26YZ_1_listar_contas_1_opaque_list_1(%rip), %rax
	movq	(%rax), %rax
	movq	-88(%rbp), %rdx
	movq	%rdx, 8(%rax)
	movq	_TIG_iO_26YZ_1_listar_contas_1_opaque_list_1(%rip), %rax
	movq	-88(%rbp), %rdx
	movq	%rdx, (%rax)
	call	rand@PLT
	movl	%eax, -104(%rbp)
	movl	$24, %edi
	call	malloc@PLT
	movq	%rax, -80(%rbp)
	movq	-80(%rbp), %rax
	movl	-104(%rbp), %edx
	movl	%edx, 16(%rax)
	movq	_TIG_iO_26YZ_1_listar_contas_1_opaque_list_1(%rip), %rax
	movq	(%rax), %rdx
	movq	-80(%rbp), %rax
	movq	%rdx, (%rax)
	movq	_TIG_iO_26YZ_1_listar_contas_1_opaque_list_1(%rip), %rdx
	movq	-80(%rbp), %rax
	movq	%rdx, 8(%rax)
	movq	_TIG_iO_26YZ_1_listar_contas_1_opaque_list_1(%rip), %rax
	movq	(%rax), %rax
	movq	-80(%rbp), %rdx
	movq	%rdx, 8(%rax)
	movq	_TIG_iO_26YZ_1_listar_contas_1_opaque_list_1(%rip), %rax
	movq	-80(%rbp), %rdx
	movq	%rdx, (%rax)
	call	rand@PLT
	movl	%eax, -100(%rbp)
	movl	$24, %edi
	call	malloc@PLT
	movq	%rax, -72(%rbp)
	movl	-100(%rbp), %eax
	leal	(%rax,%rax), %edx
	movq	-72(%rbp), %rax
	movl	%edx, 16(%rax)
	movq	_TIG_iO_26YZ_1_listar_contas_1_opaque_list_1(%rip), %rax
	movq	(%rax), %rdx
	movq	-72(%rbp), %rax
	movq	%rdx, (%rax)
	movq	_TIG_iO_26YZ_1_listar_contas_1_opaque_list_1(%rip), %rdx
	movq	-72(%rbp), %rax
	movq	%rdx, 8(%rax)
	movq	_TIG_iO_26YZ_1_listar_contas_1_opaque_list_1(%rip), %rax
	movq	(%rax), %rax
	movq	-72(%rbp), %rdx
	movq	%rdx, 8(%rax)
	movq	_TIG_iO_26YZ_1_listar_contas_1_opaque_list_1(%rip), %rax
	movq	-72(%rbp), %rdx
	movq	%rdx, (%rax)
	movq	_TIG_iO_26YZ_1_listar_contas_1_opaque_list_1(%rip), %rax
	movq	(%rax), %rax
	movq	%rax, _TIG_iO_26YZ_1_listar_contas_1_opaque_ptr_1(%rip)
	movq	_TIG_iO_26YZ_1_listar_contas_1_opaque_ptr_1(%rip), %rax
	movq	%rax, _TIG_iO_26YZ_1_listar_contas_1_opaque_ptr_2(%rip)
	movq	_TIG_iO_26YZ_1_listar_contas_1_opaque_ptr_2(%rip), %rax
	movq	(%rax), %rax
	movq	%rax, _TIG_iO_26YZ_1_listar_contas_1_opaque_ptr_2(%rip)
	nop
	nop
	leaq	.LC33(%rip), %rax
	movq	%rax, %rdi
	call	puts@PLT
	movl	$0, -120(%rbp)
	movq	_TIG_iO_26YZ_1_verificar_pagador_existente_1_opaque_ptr_1(%rip), %rdx
	movq	_TIG_iO_26YZ_1_verificar_pagador_existente_1_opaque_ptr_2(%rip), %rax
	cmpq	%rax, %rdx
	je	.L79
#APP
# 234 "StomperHK_trabalho-final-lp_main.c" 1
	.byte 0x48,0x8d,0x35,0x2e,0x34,0x0,0x0,0xe8
# 0 "" 2
#NO_APP
	jmp	.L76
.L86:
	movb	$68, -64(%rbp)
	movb	$101, -63(%rbp)
	movb	$115, -62(%rbp)
	movb	$99, -61(%rbp)
	movb	$111, -60(%rbp)
	movb	$110, -59(%rbp)
	movb	$104, -58(%rbp)
	movb	$101, -57(%rbp)
	movb	$99, -56(%rbp)
	movb	$105, -55(%rbp)
	movb	$100, -54(%rbp)
	movb	$111, -53(%rbp)
	movb	$0, -52(%rbp)
	movl	$13, -116(%rbp)
	jmp	.L80
.L81:
	movl	-116(%rbp), %eax
	movb	$0, -64(%rbp,%rax)
	addl	$1, -116(%rbp)
.L80:
	cmpl	$49, -116(%rbp)
	jbe	.L81
	movl	$0, -112(%rbp)
	jmp	.L82
.L85:
	movl	-112(%rbp), %eax
	cltq
	imulq	$92, %rax, %rdx
	movq	-152(%rbp), %rax
	addq	%rdx, %rax
	movl	(%rax), %ecx
	movl	-120(%rbp), %eax
	movslq	%eax, %rdx
	movq	%rdx, %rax
	salq	$2, %rax
	addq	%rdx, %rax
	addq	%rax, %rax
	addq	%rdx, %rax
	salq	$2, %rax
	movq	%rax, %rdx
	movq	-136(%rbp), %rax
	addq	%rdx, %rax
	movl	40(%rax), %eax
	cmpl	%eax, %ecx
	jne	.L83
	movl	-112(%rbp), %eax
	cltq
	imulq	$92, %rax, %rdx
	movq	-152(%rbp), %rax
	addq	%rdx, %rax
	leaq	4(%rax), %rdx
	leaq	-64(%rbp), %rax
	movq	%rdx, %rsi
	movq	%rax, %rdi
	call	strcpy@PLT
	jmp	.L84
.L83:
	addl	$1, -112(%rbp)
.L82:
	movl	-112(%rbp), %eax
	cmpl	-144(%rbp), %eax
	jl	.L85
.L84:
	movl	-120(%rbp), %eax
	movslq	%eax, %rdx
	movq	%rdx, %rax
	salq	$2, %rax
	addq	%rdx, %rax
	addq	%rax, %rax
	addq	%rdx, %rax
	salq	$2, %rax
	movq	%rax, %rdx
	movq	-136(%rbp), %rax
	addq	%rdx, %rax
	movl	40(%rax), %r8d
	movl	-120(%rbp), %eax
	movslq	%eax, %rdx
	movq	%rdx, %rax
	salq	$2, %rax
	addq	%rdx, %rax
	addq	%rax, %rax
	addq	%rdx, %rax
	salq	$2, %rax
	movq	%rax, %rdx
	movq	-136(%rbp), %rax
	addq	%rdx, %rax
	leaq	28(%rax), %rcx
	movl	-120(%rbp), %eax
	movslq	%eax, %rdx
	movq	%rdx, %rax
	salq	$2, %rax
	addq	%rdx, %rax
	addq	%rax, %rax
	addq	%rdx, %rax
	salq	$2, %rax
	movq	%rax, %rdx
	movq	-136(%rbp), %rax
	addq	%rdx, %rax
	leaq	8(%rax), %rdi
	movl	-120(%rbp), %eax
	movslq	%eax, %rdx
	movq	%rdx, %rax
	salq	$2, %rax
	addq	%rdx, %rax
	addq	%rax, %rax
	addq	%rdx, %rax
	salq	$2, %rax
	movq	%rax, %rdx
	movq	-136(%rbp), %rax
	addq	%rdx, %rax
	movss	4(%rax), %xmm0
	pxor	%xmm1, %xmm1
	cvtss2sd	%xmm0, %xmm1
	movq	%xmm1, %rsi
	movl	-120(%rbp), %eax
	movslq	%eax, %rdx
	movq	%rdx, %rax
	salq	$2, %rax
	addq	%rdx, %rax
	addq	%rax, %rax
	addq	%rdx, %rax
	salq	$2, %rax
	movq	%rax, %rdx
	movq	-136(%rbp), %rax
	addq	%rdx, %rax
	movl	(%rax), %eax
	leaq	-64(%rbp), %rdx
	movl	%r8d, %r9d
	movq	%rdx, %r8
	movq	%rdi, %rdx
	movq	%rsi, %xmm0
	movl	%eax, %esi
	leaq	.LC16(%rip), %rax
	movq	%rax, %rdi
	movl	$1, %eax
	call	printf@PLT
	addl	$1, -120(%rbp)
.L79:
	movl	-120(%rbp), %eax
	cmpl	-140(%rbp), %eax
	jl	.L86
	nop
.L76:
	movq	-8(%rbp), %rax
	subq	%fs:40, %rax
	je	.L88
	call	__stack_chk_fail@PLT
.L88:
	leave
	.cfi_def_cfa 7, 8
	ret
	.cfi_endproc
.LFE13:
	.size	listar_contas, .-listar_contas
	.section	.rodata
	.align 8
.LC34:
	.string	"Limite m\303\241ximo de contas atingido!"
.LC35:
	.string	"Digite o ID da conta: "
	.align 8
.LC36:
	.string	"Erro: J\303\241 existe uma conta com esse ID."
.LC37:
	.string	"Digite o valor da conta: "
.LC38:
	.string	"%f"
	.align 8
.LC39:
	.string	"Digite o status da conta (Pago/Pendente): "
	.align 8
.LC40:
	.string	"Digite a data de vencimento (YYYY-MM-DD): "
	.align 8
.LC41:
	.string	"Digite o ID do pagador associado: "
	.align 8
.LC42:
	.string	"Erro: Pagador com ID %d n\303\243o encontrado.\n"
.LC43:
	.string	"Conta cadastrada com sucesso!"
	.text
	.globl	cadastrar_conta
	.type	cadastrar_conta, @function
cadastrar_conta:
.LFB14:
	.cfi_startproc
	endbr64
	pushq	%rbp
	.cfi_def_cfa_offset 16
	.cfi_offset 6, -16
	movq	%rsp, %rbp
	.cfi_def_cfa_register 6
	pushq	%rbx
	subq	$152, %rsp
	.cfi_offset 3, -24
	movq	%rdi, -136(%rbp)
	movq	%rsi, -144(%rbp)
	movq	%rdx, -152(%rbp)
	movl	%ecx, -156(%rbp)
	movq	%fs:40, %rax
	movq	%rax, -24(%rbp)
	xorl	%eax, %eax
#APP
# 264 "StomperHK_trabalho-final-lp_main.c" 1
	##_ANNOTATION_INITIALREGION_-TIG-iO-26YZ-1-cadastrar-conta--18
# 0 "" 2
# 268 "StomperHK_trabalho-final-lp_main.c" 1
	##_ANNOTATION_ATOMICREGION_-TIG-iO-26YZ-1-cadastrar-conta--17
# 0 "" 2
#NO_APP
	movl	$24, %edi
	call	malloc@PLT
	movq	%rax, -104(%rbp)
	movq	-104(%rbp), %rax
	movq	-104(%rbp), %rdx
	movq	%rdx, 8(%rax)
	movq	-104(%rbp), %rax
	movq	-104(%rbp), %rdx
	movq	%rdx, (%rax)
	movq	-104(%rbp), %rax
	movq	%rax, _TIG_iO_26YZ_1_cadastrar_conta_1_opaque_list_1(%rip)
	call	rand@PLT
	movl	%eax, -120(%rbp)
	movl	$24, %edi
	call	malloc@PLT
	movq	%rax, -96(%rbp)
	movq	-96(%rbp), %rax
	movl	$0, 16(%rax)
	movq	_TIG_iO_26YZ_1_cadastrar_conta_1_opaque_list_1(%rip), %rax
	movq	8(%rax), %rdx
	movq	-96(%rbp), %rax
	movq	%rdx, 8(%rax)
	movq	_TIG_iO_26YZ_1_cadastrar_conta_1_opaque_list_1(%rip), %rdx
	movq	-96(%rbp), %rax
	movq	%rdx, (%rax)
	movq	_TIG_iO_26YZ_1_cadastrar_conta_1_opaque_list_1(%rip), %rax
	movq	8(%rax), %rax
	movq	-96(%rbp), %rdx
	movq	%rdx, (%rax)
	movq	_TIG_iO_26YZ_1_cadastrar_conta_1_opaque_list_1(%rip), %rax
	movq	-96(%rbp), %rdx
	movq	%rdx, 8(%rax)
	call	rand@PLT
	movl	%eax, -116(%rbp)
	movl	$24, %edi
	call	malloc@PLT
	movq	%rax, -88(%rbp)
	movq	-88(%rbp), %rax
	movl	-116(%rbp), %edx
	movl	%edx, 16(%rax)
	movq	_TIG_iO_26YZ_1_cadastrar_conta_1_opaque_list_1(%rip), %rax
	movq	8(%rax), %rdx
	movq	-88(%rbp), %rax
	movq	%rdx, 8(%rax)
	movq	_TIG_iO_26YZ_1_cadastrar_conta_1_opaque_list_1(%rip), %rdx
	movq	-88(%rbp), %rax
	movq	%rdx, (%rax)
	movq	_TIG_iO_26YZ_1_cadastrar_conta_1_opaque_list_1(%rip), %rax
	movq	8(%rax), %rax
	movq	-88(%rbp), %rdx
	movq	%rdx, (%rax)
	movq	_TIG_iO_26YZ_1_cadastrar_conta_1_opaque_list_1(%rip), %rax
	movq	-88(%rbp), %rdx
	movq	%rdx, 8(%rax)
	movq	_TIG_iO_26YZ_1_cadastrar_conta_1_opaque_list_1(%rip), %rax
	movq	8(%rax), %rax
	movq	%rax, _TIG_iO_26YZ_1_cadastrar_conta_1_opaque_ptr_1(%rip)
	movq	_TIG_iO_26YZ_1_cadastrar_conta_1_opaque_ptr_1(%rip), %rax
	movq	%rax, _TIG_iO_26YZ_1_cadastrar_conta_1_opaque_ptr_2(%rip)
	movq	_TIG_iO_26YZ_1_cadastrar_conta_1_opaque_ptr_2(%rip), %rax
	movq	8(%rax), %rax
	movq	%rax, _TIG_iO_26YZ_1_cadastrar_conta_1_opaque_ptr_2(%rip)
	nop
	nop
	movq	-144(%rbp), %rax
	movl	(%rax), %eax
	cmpl	$99, %eax
	jle	.L90
	leaq	.LC34(%rip), %rax
	movq	%rax, %rdi
	call	puts@PLT
	jmp	.L89
.L90:
	leaq	.LC35(%rip), %rax
	movq	%rax, %rdi
	movl	$0, %eax
	call	printf@PLT
	leaq	-80(%rbp), %rax
	movq	%rax, %rsi
	leaq	.LC10(%rip), %rax
	movq	%rax, %rdi
	movl	$0, %eax
	call	__isoc99_scanf@PLT
	movl	-80(%rbp), %edx
	movq	-144(%rbp), %rax
	movl	(%rax), %ecx
	movq	-136(%rbp), %rax
	movl	%ecx, %esi
	movq	%rax, %rdi
	call	verificar_conta_existente
	movl	%eax, -112(%rbp)
	cmpl	$0, -112(%rbp)
	je	.L92
	leaq	.LC36(%rip), %rax
	movq	%rax, %rdi
	call	puts@PLT
	jmp	.L89
.L92:
	leaq	.LC37(%rip), %rax
	movq	%rax, %rdi
	movl	$0, %eax
	call	printf@PLT
	leaq	-80(%rbp), %rax
	addq	$4, %rax
	movq	%rax, %rsi
	leaq	.LC38(%rip), %rax
	movq	%rax, %rdi
	movl	$0, %eax
	call	__isoc99_scanf@PLT
	leaq	.LC39(%rip), %rax
	movq	%rax, %rdi
	movl	$0, %eax
	call	printf@PLT
	leaq	-80(%rbp), %rax
	addq	$8, %rax
	movq	%rax, %rsi
	leaq	.LC29(%rip), %rax
	movq	%rax, %rdi
	movl	$0, %eax
	call	__isoc99_scanf@PLT
	leaq	.LC40(%rip), %rax
	movq	%rax, %rdi
	movl	$0, %eax
	call	printf@PLT
	leaq	-80(%rbp), %rax
	addq	$28, %rax
	movq	%rax, %rsi
	leaq	.LC29(%rip), %rax
	movq	%rax, %rdi
	movl	$0, %eax
	call	__isoc99_scanf@PLT
	leaq	.LC41(%rip), %rax
	movq	%rax, %rdi
	movl	$0, %eax
	call	printf@PLT
	leaq	-80(%rbp), %rax
	addq	$40, %rax
	movq	%rax, %rsi
	leaq	.LC10(%rip), %rax
	movq	%rax, %rdi
	movl	$0, %eax
	call	__isoc99_scanf@PLT
	movl	-40(%rbp), %edx
	movl	-156(%rbp), %ecx
	movq	-152(%rbp), %rax
	movl	%ecx, %esi
	movq	%rax, %rdi
	call	verificar_pagador_existente
	movl	%eax, -108(%rbp)
	cmpl	$0, -108(%rbp)
	jne	.L93
	movl	-40(%rbp), %eax
	movl	%eax, %esi
	leaq	.LC42(%rip), %rax
	movq	%rax, %rdi
	movl	$0, %eax
	call	printf@PLT
	jmp	.L89
.L93:
	movq	_TIG_iO_26YZ_1_verificar_pagador_existente_1_opaque_ptr_1(%rip), %rdx
	movq	_TIG_iO_26YZ_1_verificar_pagador_existente_1_opaque_ptr_2(%rip), %rax
	cmpq	%rax, %rdx
	jne	.L97
	movq	-144(%rbp), %rax
	movl	(%rax), %eax
	movslq	%eax, %rdx
	movq	%rdx, %rax
	salq	$2, %rax
	addq	%rdx, %rax
	addq	%rax, %rax
	addq	%rdx, %rax
	salq	$2, %rax
	movq	%rax, %rdx
	movq	-136(%rbp), %rax
	addq	%rdx, %rax
	movq	-80(%rbp), %rcx
	movq	-72(%rbp), %rbx
	movq	%rcx, (%rax)
	movq	%rbx, 8(%rax)
	movq	-64(%rbp), %rcx
	movq	-56(%rbp), %rbx
	movq	%rcx, 16(%rax)
	movq	%rbx, 24(%rax)
	movq	-48(%rbp), %rdx
	movq	%rdx, 32(%rax)
	movl	-40(%rbp), %edx
	movl	%edx, 40(%rax)
	movq	-144(%rbp), %rax
	movl	(%rax), %eax
	leal	1(%rax), %edx
	movq	-144(%rbp), %rax
	movl	%edx, (%rax)
	leaq	.LC43(%rip), %rax
	movq	%rax, %rdi
	call	puts@PLT
.L97:
	nop
.L89:
	movq	-24(%rbp), %rax
	subq	%fs:40, %rax
	je	.L96
	call	__stack_chk_fail@PLT
.L96:
	movq	-8(%rbp), %rbx
	leave
	.cfi_def_cfa 7, 8
	ret
	.cfi_endproc
.LFE14:
	.size	cadastrar_conta, .-cadastrar_conta
	.section	.rodata
	.align 8
.LC44:
	.string	"\nGerenciamento de Contas e Pagadores"
.LC45:
	.string	"1. Cadastrar Pagador"
.LC46:
	.string	"2. Cadastrar Conta"
.LC47:
	.string	"3. Listar Pagadores"
.LC48:
	.string	"4. Listar Contas"
.LC49:
	.string	"5. Buscar Pagador por ID"
.LC50:
	.string	"6. Buscar Conta por ID"
.LC51:
	.string	"7. Sair"
.LC52:
	.string	"Escolha uma op\303\247\303\243o: "
	.text
	.globl	menu
	.type	menu, @function
menu:
.LFB15:
	.cfi_startproc
	endbr64
	pushq	%rbp
	.cfi_def_cfa_offset 16
	.cfi_offset 6, -16
	movq	%rsp, %rbp
	.cfi_def_cfa_register 6
	subq	$64, %rsp
#APP
# 167 "StomperHK_trabalho-final-lp_main.c" 1
	##_ANNOTATION_INITIALREGION_-TIG-iO-26YZ-1-menu--30
# 0 "" 2
# 171 "StomperHK_trabalho-final-lp_main.c" 1
	##_ANNOTATION_ATOMICREGION_-TIG-iO-26YZ-1-menu--29
# 0 "" 2
#NO_APP
	movl	$24, %edi
	call	malloc@PLT
	movq	%rax, -40(%rbp)
	movq	-40(%rbp), %rax
	movq	-40(%rbp), %rdx
	movq	%rdx, 8(%rax)
	movq	-40(%rbp), %rax
	movq	-40(%rbp), %rdx
	movq	%rdx, (%rax)
	movq	-40(%rbp), %rax
	movq	%rax, _TIG_iO_26YZ_1_menu_1_opaque_list_1(%rip)
	call	rand@PLT
	movl	%eax, -56(%rbp)
	movl	$24, %edi
	call	malloc@PLT
	movq	%rax, -32(%rbp)
	movq	-32(%rbp), %rax
	movl	$0, 16(%rax)
	movq	_TIG_iO_26YZ_1_menu_1_opaque_list_1(%rip), %rax
	movq	8(%rax), %rdx
	movq	-32(%rbp), %rax
	movq	%rdx, 8(%rax)
	movq	_TIG_iO_26YZ_1_menu_1_opaque_list_1(%rip), %rdx
	movq	-32(%rbp), %rax
	movq	%rdx, (%rax)
	movq	_TIG_iO_26YZ_1_menu_1_opaque_list_1(%rip), %rax
	movq	8(%rax), %rax
	movq	-32(%rbp), %rdx
	movq	%rdx, (%rax)
	movq	_TIG_iO_26YZ_1_menu_1_opaque_list_1(%rip), %rax
	movq	-32(%rbp), %rdx
	movq	%rdx, 8(%rax)
	call	rand@PLT
	movl	%eax, -52(%rbp)
	movl	$24, %edi
	call	malloc@PLT
	movq	%rax, -24(%rbp)
	movq	-24(%rbp), %rax
	movl	-52(%rbp), %edx
	movl	%edx, 16(%rax)
	movq	_TIG_iO_26YZ_1_menu_1_opaque_list_1(%rip), %rax
	movq	8(%rax), %rdx
	movq	-24(%rbp), %rax
	movq	%rdx, 8(%rax)
	movq	_TIG_iO_26YZ_1_menu_1_opaque_list_1(%rip), %rdx
	movq	-24(%rbp), %rax
	movq	%rdx, (%rax)
	movq	_TIG_iO_26YZ_1_menu_1_opaque_list_1(%rip), %rax
	movq	8(%rax), %rax
	movq	-24(%rbp), %rdx
	movq	%rdx, (%rax)
	movq	_TIG_iO_26YZ_1_menu_1_opaque_list_1(%rip), %rax
	movq	-24(%rbp), %rdx
	movq	%rdx, 8(%rax)
	call	rand@PLT
	movl	%eax, -48(%rbp)
	movl	$24, %edi
	call	malloc@PLT
	movq	%rax, -16(%rbp)
	movl	-48(%rbp), %eax
	leal	(%rax,%rax), %edx
	movq	-16(%rbp), %rax
	movl	%edx, 16(%rax)
	movq	_TIG_iO_26YZ_1_menu_1_opaque_list_1(%rip), %rax
	movq	8(%rax), %rdx
	movq	-16(%rbp), %rax
	movq	%rdx, 8(%rax)
	movq	_TIG_iO_26YZ_1_menu_1_opaque_list_1(%rip), %rdx
	movq	-16(%rbp), %rax
	movq	%rdx, (%rax)
	movq	_TIG_iO_26YZ_1_menu_1_opaque_list_1(%rip), %rax
	movq	8(%rax), %rax
	movq	-16(%rbp), %rdx
	movq	%rdx, (%rax)
	movq	_TIG_iO_26YZ_1_menu_1_opaque_list_1(%rip), %rax
	movq	-16(%rbp), %rdx
	movq	%rdx, 8(%rax)
	call	rand@PLT
	movl	%eax, -44(%rbp)
	movl	$24, %edi
	call	malloc@PLT
	movq	%rax, -8(%rbp)
	movl	-44(%rbp), %edx
	movl	%edx, %eax
	addl	%eax, %eax
	addl	%eax, %edx
	movq	-8(%rbp), %rax
	movl	%edx, 16(%rax)
	movq	_TIG_iO_26YZ_1_menu_1_opaque_list_1(%rip), %rax
	movq	8(%rax), %rdx
	movq	-8(%rbp), %rax
	movq	%rdx, 8(%rax)
	movq	_TIG_iO_26YZ_1_menu_1_opaque_list_1(%rip), %rdx
	movq	-8(%rbp), %rax
	movq	%rdx, (%rax)
	movq	_TIG_iO_26YZ_1_menu_1_opaque_list_1(%rip), %rax
	movq	8(%rax), %rax
	movq	-8(%rbp), %rdx
	movq	%rdx, (%rax)
	movq	_TIG_iO_26YZ_1_menu_1_opaque_list_1(%rip), %rax
	movq	-8(%rbp), %rdx
	movq	%rdx, 8(%rax)
	movq	_TIG_iO_26YZ_1_menu_1_opaque_list_1(%rip), %rax
	movq	8(%rax), %rax
	movq	%rax, _TIG_iO_26YZ_1_menu_1_opaque_ptr_1(%rip)
	movq	_TIG_iO_26YZ_1_menu_1_opaque_ptr_1(%rip), %rax
	movq	%rax, _TIG_iO_26YZ_1_menu_1_opaque_ptr_2(%rip)
	movq	_TIG_iO_26YZ_1_menu_1_opaque_ptr_2(%rip), %rax
	movq	8(%rax), %rax
	movq	%rax, _TIG_iO_26YZ_1_menu_1_opaque_ptr_2(%rip)
	nop
	nop
	leaq	.LC44(%rip), %rax
	movq	%rax, %rdi
	call	puts@PLT
	leaq	.LC45(%rip), %rax
	movq	%rax, %rdi
	call	puts@PLT
	leaq	.LC46(%rip), %rax
	movq	%rax, %rdi
	call	puts@PLT
	leaq	.LC47(%rip), %rax
	movq	%rax, %rdi
	call	puts@PLT
	leaq	.LC48(%rip), %rax
	movq	%rax, %rdi
	call	puts@PLT
	leaq	.LC49(%rip), %rax
	movq	%rax, %rdi
	call	puts@PLT
	leaq	.LC50(%rip), %rax
	movq	%rax, %rdi
	call	puts@PLT
	leaq	.LC51(%rip), %rax
	movq	%rax, %rdi
	call	puts@PLT
	leaq	.LC52(%rip), %rax
	movq	%rax, %rdi
	movl	$0, %eax
	call	printf@PLT
	movq	_TIG_iO_26YZ_1_verificar_pagador_existente_1_opaque_ptr_1(%rip), %rdx
	movq	_TIG_iO_26YZ_1_verificar_pagador_existente_1_opaque_ptr_2(%rip), %rax
	cmpq	%rax, %rdx
	nop
	leave
	.cfi_def_cfa 7, 8
	ret
	.cfi_endproc
.LFE15:
	.size	menu, .-menu
	.section	.rodata
.LC53:
	.string	"Saindo do programa..."
	.align 8
.LC54:
	.string	"Op\303\247\303\243o inv\303\241lida! Tente novamente."
	.text
	.globl	main
	.type	main, @function
main:
.LFB17:
	.cfi_startproc
	endbr64
	pushq	%rbp
	.cfi_def_cfa_offset 16
	.cfi_offset 6, -16
	movq	%rsp, %rbp
	.cfi_def_cfa_register 6
	subq	$4096, %rsp
	orq	$0, (%rsp)
	subq	$4096, %rsp
	orq	$0, (%rsp)
	subq	$4096, %rsp
	orq	$0, (%rsp)
	subq	$1408, %rsp
	movl	%edi, -13668(%rbp)
	movq	%rsi, -13680(%rbp)
	movq	%rdx, -13688(%rbp)
	movq	%fs:40, %rax
	movq	%rax, -8(%rbp)
	xorl	%eax, %eax
	movq	$0, _TIG_IZ_26YZ_envp(%rip)
	nop
.L102:
	movq	$0, _TIG_IZ_26YZ_argv(%rip)
	nop
.L103:
	movl	$0, _TIG_IZ_26YZ_argc(%rip)
	nop
	nop
.L104:
.L105:
#APP
# 125 "/usr/include/x86_64-linux-gnu/bits/byteswap.h" 1
	##_ANNOTATION_INITIALREGION_-TIG-IZ-26YZ--0
# 0 "" 2
#NO_APP
	movl	-13668(%rbp), %eax
	movl	%eax, _TIG_IZ_26YZ_argc(%rip)
	movq	-13680(%rbp), %rax
	movq	%rax, _TIG_IZ_26YZ_argv(%rip)
	movq	-13688(%rbp), %rax
	movq	%rax, _TIG_IZ_26YZ_envp(%rip)
#APP
# 132 "/usr/include/x86_64-linux-gnu/bits/byteswap.h" 1
	##_ANNOTATION_ATOMICREGION_-TIG-iO-26YZ-1-main--27
# 0 "" 2
#NO_APP
	movl	$24, %edi
	call	malloc@PLT
	movq	%rax, -13640(%rbp)
	movq	-13640(%rbp), %rax
	movq	-13640(%rbp), %rdx
	movq	%rdx, 16(%rax)
	movq	-13640(%rbp), %rax
	movq	-13640(%rbp), %rdx
	movq	%rdx, 8(%rax)
	movq	-13640(%rbp), %rax
	movq	%rax, _TIG_iO_26YZ_1_main_1_opaque_list_1(%rip)
	call	rand@PLT
	movl	%eax, -13648(%rbp)
	movl	$24, %edi
	call	malloc@PLT
	movq	%rax, -13632(%rbp)
	movq	-13632(%rbp), %rax
	movl	$0, (%rax)
	movq	_TIG_iO_26YZ_1_main_1_opaque_list_1(%rip), %rax
	movq	16(%rax), %rdx
	movq	-13632(%rbp), %rax
	movq	%rdx, 16(%rax)
	movq	_TIG_iO_26YZ_1_main_1_opaque_list_1(%rip), %rdx
	movq	-13632(%rbp), %rax
	movq	%rdx, 8(%rax)
	movq	_TIG_iO_26YZ_1_main_1_opaque_list_1(%rip), %rax
	movq	16(%rax), %rax
	movq	-13632(%rbp), %rdx
	movq	%rdx, 8(%rax)
	movq	_TIG_iO_26YZ_1_main_1_opaque_list_1(%rip), %rax
	movq	-13632(%rbp), %rdx
	movq	%rdx, 16(%rax)
	call	rand@PLT
	movl	%eax, -13644(%rbp)
	movl	$24, %edi
	call	malloc@PLT
	movq	%rax, -13624(%rbp)
	movq	-13624(%rbp), %rax
	movl	-13644(%rbp), %edx
	movl	%edx, (%rax)
	movq	_TIG_iO_26YZ_1_main_1_opaque_list_1(%rip), %rax
	movq	16(%rax), %rdx
	movq	-13624(%rbp), %rax
	movq	%rdx, 16(%rax)
	movq	_TIG_iO_26YZ_1_main_1_opaque_list_1(%rip), %rdx
	movq	-13624(%rbp), %rax
	movq	%rdx, 8(%rax)
	movq	_TIG_iO_26YZ_1_main_1_opaque_list_1(%rip), %rax
	movq	16(%rax), %rax
	movq	-13624(%rbp), %rdx
	movq	%rdx, 8(%rax)
	movq	_TIG_iO_26YZ_1_main_1_opaque_list_1(%rip), %rax
	movq	-13624(%rbp), %rdx
	movq	%rdx, 16(%rax)
	movq	_TIG_iO_26YZ_1_main_1_opaque_list_1(%rip), %rax
	movq	16(%rax), %rax
	movq	%rax, _TIG_iO_26YZ_1_main_1_opaque_ptr_1(%rip)
	movq	_TIG_iO_26YZ_1_main_1_opaque_ptr_1(%rip), %rax
	movq	%rax, _TIG_iO_26YZ_1_main_1_opaque_ptr_2(%rip)
	nop
	nop
	movl	$0, -13660(%rbp)
	movl	$0, -13656(%rbp)
	leaq	-13660(%rbp), %rcx
	leaq	-13616(%rbp), %rdx
	leaq	-13656(%rbp), %rsi
	leaq	-9216(%rbp), %rax
	movl	$100, %r9d
	movq	%rcx, %r8
	movq	%rdx, %rcx
	movl	$100, %edx
	movq	%rax, %rdi
	call	carregar_dados
.L118:
	call	menu
	leaq	-13652(%rbp), %rax
	movq	%rax, %rsi
	leaq	.LC10(%rip), %rax
	movq	%rax, %rdi
	movl	$0, %eax
	call	__isoc99_scanf@PLT
	movl	-13652(%rbp), %eax
	cmpl	$7, %eax
	ja	.L106
	movl	%eax, %eax
	leaq	0(,%rax,4), %rdx
	leaq	.L108(%rip), %rax
	movl	(%rdx,%rax), %eax
	cltq
	leaq	.L108(%rip), %rdx
	addq	%rdx, %rax
	notrack jmp	*%rax
	.section	.rodata
	.align 4
	.align 4
.L108:
	.long	.L106-.L108
	.long	.L114-.L108
	.long	.L113-.L108
	.long	.L112-.L108
	.long	.L111-.L108
	.long	.L110-.L108
	.long	.L109-.L108
	.long	.L107-.L108
	.text
.L114:
	leaq	-13656(%rbp), %rdx
	leaq	-9216(%rbp), %rax
	movq	%rdx, %rsi
	movq	%rax, %rdi
	call	cadastrar_pagador
	jmp	.L115
.L113:
	movl	-13656(%rbp), %ecx
	leaq	-9216(%rbp), %rdx
	leaq	-13660(%rbp), %rsi
	leaq	-13616(%rbp), %rax
	movq	%rax, %rdi
	call	cadastrar_conta
	jmp	.L115
.L112:
	movl	-13656(%rbp), %edx
	leaq	-9216(%rbp), %rax
	movl	%edx, %esi
	movq	%rax, %rdi
	call	listar_pagadores
	jmp	.L115
.L111:
	movl	-13656(%rbp), %ecx
	movl	-13660(%rbp), %esi
	leaq	-9216(%rbp), %rdx
	leaq	-13616(%rbp), %rax
	movq	%rax, %rdi
	call	listar_contas
	jmp	.L115
.L110:
	movl	-13656(%rbp), %edx
	leaq	-9216(%rbp), %rax
	movl	%edx, %esi
	movq	%rax, %rdi
	call	buscar_pagador_por_id
	jmp	.L115
.L109:
	movl	-13656(%rbp), %ecx
	movl	-13660(%rbp), %esi
	leaq	-9216(%rbp), %rdx
	leaq	-13616(%rbp), %rax
	movq	%rax, %rdi
	call	buscar_conta_por_id
	jmp	.L115
.L107:
	leaq	.LC53(%rip), %rax
	movq	%rax, %rdi
	call	puts@PLT
	movl	-13660(%rbp), %ecx
	movl	-13656(%rbp), %esi
	leaq	-13616(%rbp), %rdx
	leaq	-9216(%rbp), %rax
	movq	%rax, %rdi
	call	salvar_dados
	jmp	.L115
.L106:
	leaq	.LC54(%rip), %rax
	movq	%rax, %rdi
	call	puts@PLT
.L115:
	movq	_TIG_iO_26YZ_1_verificar_pagador_existente_1_opaque_ptr_1(%rip), %rdx
	movq	_TIG_iO_26YZ_1_verificar_pagador_existente_1_opaque_ptr_2(%rip), %rax
	cmpq	%rax, %rdx
	jne	.L118
	movl	-13652(%rbp), %eax
	cmpl	$7, %eax
	je	.L122
	jmp	.L118
.L122:
	nop
	movl	$0, %eax
	movq	-8(%rbp), %rdx
	subq	%fs:40, %rdx
	je	.L120
	call	__stack_chk_fail@PLT
.L120:
	leave
	.cfi_def_cfa 7, 8
	ret
	.cfi_endproc
.LFE17:
	.size	main, .-main
	.ident	"GCC: (Ubuntu 11.4.0-1ubuntu1~22.04) 11.4.0"
	.section	.note.GNU-stack,"",@progbits
	.section	.note.gnu.property,"a"
	.align 8
	.long	1f - 0f
	.long	4f - 1f
	.long	5
0:
	.string	"GNU"
1:
	.align 8
	.long	0xc0000002
	.long	3f - 2f
2:
	.long	0x3
3:
	.align 8
4:
