	.file	"Surajwaghmare35_C-Lang_Notes_opaque.c"
	.text
	.globl	_TIG_iO_GVnC_1___uint16_identity_1_opaque_list_2
	.bss
	.align 8
	.type	_TIG_iO_GVnC_1___uint16_identity_1_opaque_list_2, @object
	.size	_TIG_iO_GVnC_1___uint16_identity_1_opaque_list_2, 8
_TIG_iO_GVnC_1___uint16_identity_1_opaque_list_2:
	.zero	8
	.globl	_TIG_iO_GVnC_1___bswap_32_1_opaque_list_1
	.align 8
	.type	_TIG_iO_GVnC_1___bswap_32_1_opaque_list_1, @object
	.size	_TIG_iO_GVnC_1___bswap_32_1_opaque_list_1, 8
_TIG_iO_GVnC_1___bswap_32_1_opaque_list_1:
	.zero	8
	.globl	_TIG_iO_GVnC_1_reverse_1_opaque_ptr_1
	.align 8
	.type	_TIG_iO_GVnC_1_reverse_1_opaque_ptr_1, @object
	.size	_TIG_iO_GVnC_1_reverse_1_opaque_ptr_1, 8
_TIG_iO_GVnC_1_reverse_1_opaque_ptr_1:
	.zero	8
	.globl	_TIG_iO_GVnC_1_input_1_opaque_ptr_1
	.align 8
	.type	_TIG_iO_GVnC_1_input_1_opaque_ptr_1, @object
	.size	_TIG_iO_GVnC_1_input_1_opaque_ptr_1, 8
_TIG_iO_GVnC_1_input_1_opaque_ptr_1:
	.zero	8
	.globl	_TIG_iO_GVnC_1___uint64_identity_1_opaque_list_1
	.align 8
	.type	_TIG_iO_GVnC_1___uint64_identity_1_opaque_list_1, @object
	.size	_TIG_iO_GVnC_1___uint64_identity_1_opaque_list_1, 8
_TIG_iO_GVnC_1___uint64_identity_1_opaque_list_1:
	.zero	8
	.globl	_TIG_iO_GVnC_1___uint32_identity_1_opaque_ptr_1
	.align 8
	.type	_TIG_iO_GVnC_1___uint32_identity_1_opaque_ptr_1, @object
	.size	_TIG_iO_GVnC_1___uint32_identity_1_opaque_ptr_1, 8
_TIG_iO_GVnC_1___uint32_identity_1_opaque_ptr_1:
	.zero	8
	.globl	_TIG_iO_GVnC_1_Nnatural_1_opaque_ptr_2
	.align 8
	.type	_TIG_iO_GVnC_1_Nnatural_1_opaque_ptr_2, @object
	.size	_TIG_iO_GVnC_1_Nnatural_1_opaque_ptr_2, 8
_TIG_iO_GVnC_1_Nnatural_1_opaque_ptr_2:
	.zero	8
	.globl	_TIG_iO_GVnC_1___bswap_32_1_opaque_ptr_2
	.align 8
	.type	_TIG_iO_GVnC_1___bswap_32_1_opaque_ptr_2, @object
	.size	_TIG_iO_GVnC_1___bswap_32_1_opaque_ptr_2, 8
_TIG_iO_GVnC_1___bswap_32_1_opaque_ptr_2:
	.zero	8
	.globl	_TIG_iO_GVnC_1_add_1_opaque_list_1
	.align 8
	.type	_TIG_iO_GVnC_1_add_1_opaque_list_1, @object
	.size	_TIG_iO_GVnC_1_add_1_opaque_list_1, 8
_TIG_iO_GVnC_1_add_1_opaque_list_1:
	.zero	8
	.globl	_TIG_iO_GVnC_1_main_1_opaque_ptr_2
	.align 8
	.type	_TIG_iO_GVnC_1_main_1_opaque_ptr_2, @object
	.size	_TIG_iO_GVnC_1_main_1_opaque_ptr_2, 8
_TIG_iO_GVnC_1_main_1_opaque_ptr_2:
	.zero	8
	.globl	_TIG_iO_GVnC_1_add_1_opaque_ptr_2
	.align 8
	.type	_TIG_iO_GVnC_1_add_1_opaque_ptr_2, @object
	.size	_TIG_iO_GVnC_1_add_1_opaque_ptr_2, 8
_TIG_iO_GVnC_1_add_1_opaque_ptr_2:
	.zero	8
	.globl	_TIG_iO_GVnC_1___bswap_16_1_opaque_ptr_2
	.align 8
	.type	_TIG_iO_GVnC_1___bswap_16_1_opaque_ptr_2, @object
	.size	_TIG_iO_GVnC_1___bswap_16_1_opaque_ptr_2, 8
_TIG_iO_GVnC_1___bswap_16_1_opaque_ptr_2:
	.zero	8
	.globl	_TIG_iO_GVnC_1___uint64_identity_1_opaque_ptr_1
	.align 8
	.type	_TIG_iO_GVnC_1___uint64_identity_1_opaque_ptr_1, @object
	.size	_TIG_iO_GVnC_1___uint64_identity_1_opaque_ptr_1, 8
_TIG_iO_GVnC_1___uint64_identity_1_opaque_ptr_1:
	.zero	8
	.globl	_TIG_iO_GVnC_1___bswap_64_1_opaque_list_1
	.align 8
	.type	_TIG_iO_GVnC_1___bswap_64_1_opaque_list_1, @object
	.size	_TIG_iO_GVnC_1___bswap_64_1_opaque_list_1, 8
_TIG_iO_GVnC_1___bswap_64_1_opaque_list_1:
	.zero	8
	.globl	_TIG_iO_GVnC_1_sort_1_opaque_list_1
	.align 8
	.type	_TIG_iO_GVnC_1_sort_1_opaque_list_1, @object
	.size	_TIG_iO_GVnC_1_sort_1_opaque_list_1, 8
_TIG_iO_GVnC_1_sort_1_opaque_list_1:
	.zero	8
	.globl	_TIG_iO_GVnC_1_main_1_opaque_list_2
	.align 8
	.type	_TIG_iO_GVnC_1_main_1_opaque_list_2, @object
	.size	_TIG_iO_GVnC_1_main_1_opaque_list_2, 8
_TIG_iO_GVnC_1_main_1_opaque_list_2:
	.zero	8
	.globl	_TIG_iO_GVnC_1_Nnatural_1_opaque_ptr_1
	.align 8
	.type	_TIG_iO_GVnC_1_Nnatural_1_opaque_ptr_1, @object
	.size	_TIG_iO_GVnC_1_Nnatural_1_opaque_ptr_1, 8
_TIG_iO_GVnC_1_Nnatural_1_opaque_ptr_1:
	.zero	8
	.globl	_TIG_iO_GVnC_1_isEven_1_opaque_list_2
	.align 8
	.type	_TIG_iO_GVnC_1_isEven_1_opaque_list_2, @object
	.size	_TIG_iO_GVnC_1_isEven_1_opaque_list_2, 8
_TIG_iO_GVnC_1_isEven_1_opaque_list_2:
	.zero	8
	.globl	_TIG_iO_GVnC_1_Nnatural_1_opaque_list_2
	.align 8
	.type	_TIG_iO_GVnC_1_Nnatural_1_opaque_list_2, @object
	.size	_TIG_iO_GVnC_1_Nnatural_1_opaque_list_2, 8
_TIG_iO_GVnC_1_Nnatural_1_opaque_list_2:
	.zero	8
	.globl	_TIG_iO_GVnC_1_display_1_opaque_ptr_2
	.align 8
	.type	_TIG_iO_GVnC_1_display_1_opaque_ptr_2, @object
	.size	_TIG_iO_GVnC_1_display_1_opaque_ptr_2, 8
_TIG_iO_GVnC_1_display_1_opaque_ptr_2:
	.zero	8
	.globl	_TIG_iO_GVnC_1___uint16_identity_1_opaque_ptr_2
	.align 8
	.type	_TIG_iO_GVnC_1___uint16_identity_1_opaque_ptr_2, @object
	.size	_TIG_iO_GVnC_1___uint16_identity_1_opaque_ptr_2, 8
_TIG_iO_GVnC_1___uint16_identity_1_opaque_ptr_2:
	.zero	8
	.globl	_TIG_iO_GVnC_1_struct_display_1_opaque_ptr_2
	.align 8
	.type	_TIG_iO_GVnC_1_struct_display_1_opaque_ptr_2, @object
	.size	_TIG_iO_GVnC_1_struct_display_1_opaque_ptr_2, 8
_TIG_iO_GVnC_1_struct_display_1_opaque_ptr_2:
	.zero	8
	.globl	d2
	.align 8
	.type	d2, @object
	.size	d2, 12
d2:
	.zero	12
	.globl	_TIG_iO_GVnC_1_length_1_opaque_ptr_2
	.align 8
	.type	_TIG_iO_GVnC_1_length_1_opaque_ptr_2, @object
	.size	_TIG_iO_GVnC_1_length_1_opaque_ptr_2, 8
_TIG_iO_GVnC_1_length_1_opaque_ptr_2:
	.zero	8
	.globl	_TIG_iO_GVnC_1_add_1_opaque_list_2
	.align 8
	.type	_TIG_iO_GVnC_1_add_1_opaque_list_2, @object
	.size	_TIG_iO_GVnC_1_add_1_opaque_list_2, 8
_TIG_iO_GVnC_1_add_1_opaque_list_2:
	.zero	8
	.globl	_TIG_iO_GVnC_1_struct_display_1_opaque_ptr_1
	.align 8
	.type	_TIG_iO_GVnC_1_struct_display_1_opaque_ptr_1, @object
	.size	_TIG_iO_GVnC_1_struct_display_1_opaque_ptr_1, 8
_TIG_iO_GVnC_1_struct_display_1_opaque_ptr_1:
	.zero	8
	.globl	_TIG_iO_GVnC_1_struct_input_1_opaque_list_1
	.align 8
	.type	_TIG_iO_GVnC_1_struct_input_1_opaque_list_1, @object
	.size	_TIG_iO_GVnC_1_struct_input_1_opaque_list_1, 8
_TIG_iO_GVnC_1_struct_input_1_opaque_list_1:
	.zero	8
	.globl	_TIG_iO_GVnC_1_struct_input_1_opaque_list_2
	.align 8
	.type	_TIG_iO_GVnC_1_struct_input_1_opaque_list_2, @object
	.size	_TIG_iO_GVnC_1_struct_input_1_opaque_list_2, 8
_TIG_iO_GVnC_1_struct_input_1_opaque_list_2:
	.zero	8
	.globl	_TIG_iO_GVnC_1___uint32_identity_1_opaque_list_1
	.align 8
	.type	_TIG_iO_GVnC_1___uint32_identity_1_opaque_list_1, @object
	.size	_TIG_iO_GVnC_1___uint32_identity_1_opaque_list_1, 8
_TIG_iO_GVnC_1___uint32_identity_1_opaque_list_1:
	.zero	8
	.globl	_TIG_iO_GVnC_1___bswap_16_1_opaque_list_2
	.align 8
	.type	_TIG_iO_GVnC_1___bswap_16_1_opaque_list_2, @object
	.size	_TIG_iO_GVnC_1___bswap_16_1_opaque_list_2, 8
_TIG_iO_GVnC_1___bswap_16_1_opaque_list_2:
	.zero	8
	.globl	_TIG_iO_GVnC_1___bswap_64_1_opaque_ptr_1
	.align 8
	.type	_TIG_iO_GVnC_1___bswap_64_1_opaque_ptr_1, @object
	.size	_TIG_iO_GVnC_1___bswap_64_1_opaque_ptr_1, 8
_TIG_iO_GVnC_1___bswap_64_1_opaque_ptr_1:
	.zero	8
	.globl	_TIG_iO_GVnC_1_isEven_1_opaque_ptr_2
	.align 8
	.type	_TIG_iO_GVnC_1_isEven_1_opaque_ptr_2, @object
	.size	_TIG_iO_GVnC_1_isEven_1_opaque_ptr_2, 8
_TIG_iO_GVnC_1_isEven_1_opaque_ptr_2:
	.zero	8
	.globl	_TIG_iO_GVnC_1___bswap_64_1_opaque_ptr_2
	.align 8
	.type	_TIG_iO_GVnC_1___bswap_64_1_opaque_ptr_2, @object
	.size	_TIG_iO_GVnC_1___bswap_64_1_opaque_ptr_2, 8
_TIG_iO_GVnC_1___bswap_64_1_opaque_ptr_2:
	.zero	8
	.globl	_TIG_iO_GVnC_1_main_1_opaque_ptr_1
	.align 8
	.type	_TIG_iO_GVnC_1_main_1_opaque_ptr_1, @object
	.size	_TIG_iO_GVnC_1_main_1_opaque_ptr_1, 8
_TIG_iO_GVnC_1_main_1_opaque_ptr_1:
	.zero	8
	.globl	_TIG_iO_GVnC_1___uint64_identity_1_opaque_list_2
	.align 8
	.type	_TIG_iO_GVnC_1___uint64_identity_1_opaque_list_2, @object
	.size	_TIG_iO_GVnC_1___uint64_identity_1_opaque_list_2, 8
_TIG_iO_GVnC_1___uint64_identity_1_opaque_list_2:
	.zero	8
	.globl	_TIG_iO_GVnC_1_struct_input_1_opaque_ptr_2
	.align 8
	.type	_TIG_iO_GVnC_1_struct_input_1_opaque_ptr_2, @object
	.size	_TIG_iO_GVnC_1_struct_input_1_opaque_ptr_2, 8
_TIG_iO_GVnC_1_struct_input_1_opaque_ptr_2:
	.zero	8
	.globl	_TIG_iO_GVnC_1_sort_1_opaque_ptr_2
	.align 8
	.type	_TIG_iO_GVnC_1_sort_1_opaque_ptr_2, @object
	.size	_TIG_iO_GVnC_1_sort_1_opaque_ptr_2, 8
_TIG_iO_GVnC_1_sort_1_opaque_ptr_2:
	.zero	8
	.globl	_TIG_iO_GVnC_1_length_1_opaque_ptr_1
	.align 8
	.type	_TIG_iO_GVnC_1_length_1_opaque_ptr_1, @object
	.size	_TIG_iO_GVnC_1_length_1_opaque_ptr_1, 8
_TIG_iO_GVnC_1_length_1_opaque_ptr_1:
	.zero	8
	.globl	_TIG_iO_GVnC_1_input_1_opaque_list_1
	.align 8
	.type	_TIG_iO_GVnC_1_input_1_opaque_list_1, @object
	.size	_TIG_iO_GVnC_1_input_1_opaque_list_1, 8
_TIG_iO_GVnC_1_input_1_opaque_list_1:
	.zero	8
	.globl	_TIG_iO_GVnC_1_length_1_opaque_list_2
	.align 8
	.type	_TIG_iO_GVnC_1_length_1_opaque_list_2, @object
	.size	_TIG_iO_GVnC_1_length_1_opaque_list_2, 8
_TIG_iO_GVnC_1_length_1_opaque_list_2:
	.zero	8
	.globl	_TIG_iO_GVnC_1_main_1_opaque_list_1
	.align 8
	.type	_TIG_iO_GVnC_1_main_1_opaque_list_1, @object
	.size	_TIG_iO_GVnC_1_main_1_opaque_list_1, 8
_TIG_iO_GVnC_1_main_1_opaque_list_1:
	.zero	8
	.globl	_TIG_iO_GVnC_1_sort_1_opaque_list_2
	.align 8
	.type	_TIG_iO_GVnC_1_sort_1_opaque_list_2, @object
	.size	_TIG_iO_GVnC_1_sort_1_opaque_list_2, 8
_TIG_iO_GVnC_1_sort_1_opaque_list_2:
	.zero	8
	.globl	_TIG_iO_GVnC_1_swap_1_opaque_list_2
	.align 8
	.type	_TIG_iO_GVnC_1_swap_1_opaque_list_2, @object
	.size	_TIG_iO_GVnC_1_swap_1_opaque_list_2, 8
_TIG_iO_GVnC_1_swap_1_opaque_list_2:
	.zero	8
	.globl	_TIG_iO_GVnC_1_swap_1_opaque_list_1
	.align 8
	.type	_TIG_iO_GVnC_1_swap_1_opaque_list_1, @object
	.size	_TIG_iO_GVnC_1_swap_1_opaque_list_1, 8
_TIG_iO_GVnC_1_swap_1_opaque_list_1:
	.zero	8
	.globl	_TIG_iO_GVnC_1___uint32_identity_1_opaque_list_2
	.align 8
	.type	_TIG_iO_GVnC_1___uint32_identity_1_opaque_list_2, @object
	.size	_TIG_iO_GVnC_1___uint32_identity_1_opaque_list_2, 8
_TIG_iO_GVnC_1___uint32_identity_1_opaque_list_2:
	.zero	8
	.globl	_TIG_iO_GVnC_1_display_1_opaque_list_1
	.align 8
	.type	_TIG_iO_GVnC_1_display_1_opaque_list_1, @object
	.size	_TIG_iO_GVnC_1_display_1_opaque_list_1, 8
_TIG_iO_GVnC_1_display_1_opaque_list_1:
	.zero	8
	.globl	_TIG_iO_GVnC_1_struct_display_1_opaque_list_1
	.align 8
	.type	_TIG_iO_GVnC_1_struct_display_1_opaque_list_1, @object
	.size	_TIG_iO_GVnC_1_struct_display_1_opaque_list_1, 8
_TIG_iO_GVnC_1_struct_display_1_opaque_list_1:
	.zero	8
	.globl	_TIG_iO_GVnC_1_reverse_1_opaque_list_1
	.align 8
	.type	_TIG_iO_GVnC_1_reverse_1_opaque_list_1, @object
	.size	_TIG_iO_GVnC_1_reverse_1_opaque_list_1, 8
_TIG_iO_GVnC_1_reverse_1_opaque_list_1:
	.zero	8
	.globl	_TIG_IZ_GVnC_argv
	.align 8
	.type	_TIG_IZ_GVnC_argv, @object
	.size	_TIG_IZ_GVnC_argv, 8
_TIG_IZ_GVnC_argv:
	.zero	8
	.globl	_TIG_iO_GVnC_1_input_1_opaque_ptr_2
	.align 8
	.type	_TIG_iO_GVnC_1_input_1_opaque_ptr_2, @object
	.size	_TIG_iO_GVnC_1_input_1_opaque_ptr_2, 8
_TIG_iO_GVnC_1_input_1_opaque_ptr_2:
	.zero	8
	.globl	_TIG_IZ_GVnC_envp
	.align 8
	.type	_TIG_IZ_GVnC_envp, @object
	.size	_TIG_IZ_GVnC_envp, 8
_TIG_IZ_GVnC_envp:
	.zero	8
	.globl	_TIG_iO_GVnC_1___uint32_identity_1_opaque_ptr_2
	.align 8
	.type	_TIG_iO_GVnC_1___uint32_identity_1_opaque_ptr_2, @object
	.size	_TIG_iO_GVnC_1___uint32_identity_1_opaque_ptr_2, 8
_TIG_iO_GVnC_1___uint32_identity_1_opaque_ptr_2:
	.zero	8
	.globl	_TIG_iO_GVnC_1_swap_1_opaque_ptr_1
	.align 8
	.type	_TIG_iO_GVnC_1_swap_1_opaque_ptr_1, @object
	.size	_TIG_iO_GVnC_1_swap_1_opaque_ptr_1, 8
_TIG_iO_GVnC_1_swap_1_opaque_ptr_1:
	.zero	8
	.globl	_TIG_iO_GVnC_1___bswap_16_1_opaque_ptr_1
	.align 8
	.type	_TIG_iO_GVnC_1___bswap_16_1_opaque_ptr_1, @object
	.size	_TIG_iO_GVnC_1___bswap_16_1_opaque_ptr_1, 8
_TIG_iO_GVnC_1___bswap_16_1_opaque_ptr_1:
	.zero	8
	.globl	_TIG_iO_GVnC_1_isEven_1_opaque_ptr_1
	.align 8
	.type	_TIG_iO_GVnC_1_isEven_1_opaque_ptr_1, @object
	.size	_TIG_iO_GVnC_1_isEven_1_opaque_ptr_1, 8
_TIG_iO_GVnC_1_isEven_1_opaque_ptr_1:
	.zero	8
	.globl	_TIG_iO_GVnC_1_swap_1_opaque_ptr_2
	.align 8
	.type	_TIG_iO_GVnC_1_swap_1_opaque_ptr_2, @object
	.size	_TIG_iO_GVnC_1_swap_1_opaque_ptr_2, 8
_TIG_iO_GVnC_1_swap_1_opaque_ptr_2:
	.zero	8
	.globl	_TIG_IZ_GVnC_argc
	.align 4
	.type	_TIG_IZ_GVnC_argc, @object
	.size	_TIG_IZ_GVnC_argc, 4
_TIG_IZ_GVnC_argc:
	.zero	4
	.globl	_TIG_iO_GVnC_1_display_1_opaque_ptr_1
	.align 8
	.type	_TIG_iO_GVnC_1_display_1_opaque_ptr_1, @object
	.size	_TIG_iO_GVnC_1_display_1_opaque_ptr_1, 8
_TIG_iO_GVnC_1_display_1_opaque_ptr_1:
	.zero	8
	.globl	_TIG_iO_GVnC_1___uint64_identity_1_opaque_ptr_2
	.align 8
	.type	_TIG_iO_GVnC_1___uint64_identity_1_opaque_ptr_2, @object
	.size	_TIG_iO_GVnC_1___uint64_identity_1_opaque_ptr_2, 8
_TIG_iO_GVnC_1___uint64_identity_1_opaque_ptr_2:
	.zero	8
	.globl	_TIG_iO_GVnC_1_input_1_opaque_list_2
	.align 8
	.type	_TIG_iO_GVnC_1_input_1_opaque_list_2, @object
	.size	_TIG_iO_GVnC_1_input_1_opaque_list_2, 8
_TIG_iO_GVnC_1_input_1_opaque_list_2:
	.zero	8
	.globl	_TIG_iO_GVnC_1_add_1_opaque_ptr_1
	.align 8
	.type	_TIG_iO_GVnC_1_add_1_opaque_ptr_1, @object
	.size	_TIG_iO_GVnC_1_add_1_opaque_ptr_1, 8
_TIG_iO_GVnC_1_add_1_opaque_ptr_1:
	.zero	8
	.globl	_TIG_iO_GVnC_1___uint16_identity_1_opaque_ptr_1
	.align 8
	.type	_TIG_iO_GVnC_1___uint16_identity_1_opaque_ptr_1, @object
	.size	_TIG_iO_GVnC_1___uint16_identity_1_opaque_ptr_1, 8
_TIG_iO_GVnC_1___uint16_identity_1_opaque_ptr_1:
	.zero	8
	.globl	_TIG_iO_GVnC_1_sort_1_opaque_ptr_1
	.align 8
	.type	_TIG_iO_GVnC_1_sort_1_opaque_ptr_1, @object
	.size	_TIG_iO_GVnC_1_sort_1_opaque_ptr_1, 8
_TIG_iO_GVnC_1_sort_1_opaque_ptr_1:
	.zero	8
	.globl	_TIG_iO_GVnC_1_display_1_opaque_list_2
	.align 8
	.type	_TIG_iO_GVnC_1_display_1_opaque_list_2, @object
	.size	_TIG_iO_GVnC_1_display_1_opaque_list_2, 8
_TIG_iO_GVnC_1_display_1_opaque_list_2:
	.zero	8
	.globl	_TIG_iO_GVnC_1_struct_display_1_opaque_list_2
	.align 8
	.type	_TIG_iO_GVnC_1_struct_display_1_opaque_list_2, @object
	.size	_TIG_iO_GVnC_1_struct_display_1_opaque_list_2, 8
_TIG_iO_GVnC_1_struct_display_1_opaque_list_2:
	.zero	8
	.globl	_TIG_iO_GVnC_1___uint16_identity_1_opaque_list_1
	.align 8
	.type	_TIG_iO_GVnC_1___uint16_identity_1_opaque_list_1, @object
	.size	_TIG_iO_GVnC_1___uint16_identity_1_opaque_list_1, 8
_TIG_iO_GVnC_1___uint16_identity_1_opaque_list_1:
	.zero	8
	.globl	_TIG_iO_GVnC_1___bswap_32_1_opaque_ptr_1
	.align 8
	.type	_TIG_iO_GVnC_1___bswap_32_1_opaque_ptr_1, @object
	.size	_TIG_iO_GVnC_1___bswap_32_1_opaque_ptr_1, 8
_TIG_iO_GVnC_1___bswap_32_1_opaque_ptr_1:
	.zero	8
	.globl	_TIG_iO_GVnC_1_reverse_1_opaque_list_2
	.align 8
	.type	_TIG_iO_GVnC_1_reverse_1_opaque_list_2, @object
	.size	_TIG_iO_GVnC_1_reverse_1_opaque_list_2, 8
_TIG_iO_GVnC_1_reverse_1_opaque_list_2:
	.zero	8
	.globl	_TIG_iO_GVnC_1_struct_input_1_opaque_ptr_1
	.align 8
	.type	_TIG_iO_GVnC_1_struct_input_1_opaque_ptr_1, @object
	.size	_TIG_iO_GVnC_1_struct_input_1_opaque_ptr_1, 8
_TIG_iO_GVnC_1_struct_input_1_opaque_ptr_1:
	.zero	8
	.globl	_TIG_iO_GVnC_1___bswap_64_1_opaque_list_2
	.align 8
	.type	_TIG_iO_GVnC_1___bswap_64_1_opaque_list_2, @object
	.size	_TIG_iO_GVnC_1___bswap_64_1_opaque_list_2, 8
_TIG_iO_GVnC_1___bswap_64_1_opaque_list_2:
	.zero	8
	.globl	_TIG_iO_GVnC_1_reverse_1_opaque_ptr_2
	.align 8
	.type	_TIG_iO_GVnC_1_reverse_1_opaque_ptr_2, @object
	.size	_TIG_iO_GVnC_1_reverse_1_opaque_ptr_2, 8
_TIG_iO_GVnC_1_reverse_1_opaque_ptr_2:
	.zero	8
	.globl	_TIG_iO_GVnC_1___bswap_32_1_opaque_list_2
	.align 8
	.type	_TIG_iO_GVnC_1___bswap_32_1_opaque_list_2, @object
	.size	_TIG_iO_GVnC_1___bswap_32_1_opaque_list_2, 8
_TIG_iO_GVnC_1___bswap_32_1_opaque_list_2:
	.zero	8
	.globl	_TIG_iO_GVnC_1_isEven_1_opaque_list_1
	.align 8
	.type	_TIG_iO_GVnC_1_isEven_1_opaque_list_1, @object
	.size	_TIG_iO_GVnC_1_isEven_1_opaque_list_1, 8
_TIG_iO_GVnC_1_isEven_1_opaque_list_1:
	.zero	8
	.globl	_TIG_iO_GVnC_1_Nnatural_1_opaque_list_1
	.align 8
	.type	_TIG_iO_GVnC_1_Nnatural_1_opaque_list_1, @object
	.size	_TIG_iO_GVnC_1_Nnatural_1_opaque_list_1, 8
_TIG_iO_GVnC_1_Nnatural_1_opaque_list_1:
	.zero	8
	.globl	_TIG_iO_GVnC_1___bswap_16_1_opaque_list_1
	.align 8
	.type	_TIG_iO_GVnC_1___bswap_16_1_opaque_list_1, @object
	.size	_TIG_iO_GVnC_1___bswap_16_1_opaque_list_1, 8
_TIG_iO_GVnC_1___bswap_16_1_opaque_list_1:
	.zero	8
	.globl	_TIG_iO_GVnC_1_length_1_opaque_list_1
	.align 8
	.type	_TIG_iO_GVnC_1_length_1_opaque_list_1, @object
	.size	_TIG_iO_GVnC_1_length_1_opaque_list_1, 8
_TIG_iO_GVnC_1_length_1_opaque_list_1:
	.zero	8
	.text
	.globl	length
	.type	length, @function
length:
.LFB0:
	.cfi_startproc
	endbr64
	pushq	%rbp
	.cfi_def_cfa_offset 16
	.cfi_offset 6, -16
	movq	%rsp, %rbp
	.cfi_def_cfa_register 6
	pushq	%rbx
	subq	$120, %rsp
	.cfi_offset 3, -24
	movq	%rdi, -120(%rbp)
	movq	%fs:40, %rax
	movq	%rax, -24(%rbp)
	xorl	%eax, %eax
#APP
# 80 "/usr/include/stdlib.h" 1
	##_ANNOTATION_INITIALREGION_-TIG-iO-GVnC-1-length--24
# 0 "" 2
# 84 "/usr/include/stdlib.h" 1
	##_ANNOTATION_ATOMICREGION_-TIG-iO-GVnC-1-length--23
# 0 "" 2
#NO_APP
	movl	$24, %edi
	call	malloc@PLT
	movq	%rax, -96(%rbp)
	movq	-96(%rbp), %rax
	movq	-96(%rbp), %rdx
	movq	%rdx, (%rax)
	movq	-96(%rbp), %rax
	movq	-96(%rbp), %rdx
	movq	%rdx, 8(%rax)
	movq	-96(%rbp), %rax
	movq	%rax, _TIG_iO_GVnC_1_length_1_opaque_list_1(%rip)
	call	rand@PLT
	movl	%eax, -108(%rbp)
	movl	$24, %edi
	call	malloc@PLT
	movq	%rax, -88(%rbp)
	movq	-88(%rbp), %rax
	movl	$0, 16(%rax)
	movq	_TIG_iO_GVnC_1_length_1_opaque_list_1(%rip), %rax
	movq	(%rax), %rdx
	movq	-88(%rbp), %rax
	movq	%rdx, (%rax)
	movq	_TIG_iO_GVnC_1_length_1_opaque_list_1(%rip), %rdx
	movq	-88(%rbp), %rax
	movq	%rdx, 8(%rax)
	movq	_TIG_iO_GVnC_1_length_1_opaque_list_1(%rip), %rax
	movq	(%rax), %rax
	movq	-88(%rbp), %rdx
	movq	%rdx, 8(%rax)
	movq	_TIG_iO_GVnC_1_length_1_opaque_list_1(%rip), %rax
	movq	-88(%rbp), %rdx
	movq	%rdx, (%rax)
	call	rand@PLT
	movl	%eax, -104(%rbp)
	movl	$24, %edi
	call	malloc@PLT
	movq	%rax, -80(%rbp)
	movq	-80(%rbp), %rax
	movl	-104(%rbp), %edx
	movl	%edx, 16(%rax)
	movq	_TIG_iO_GVnC_1_length_1_opaque_list_1(%rip), %rax
	movq	(%rax), %rdx
	movq	-80(%rbp), %rax
	movq	%rdx, (%rax)
	movq	_TIG_iO_GVnC_1_length_1_opaque_list_1(%rip), %rdx
	movq	-80(%rbp), %rax
	movq	%rdx, 8(%rax)
	movq	_TIG_iO_GVnC_1_length_1_opaque_list_1(%rip), %rax
	movq	(%rax), %rax
	movq	-80(%rbp), %rdx
	movq	%rdx, 8(%rax)
	movq	_TIG_iO_GVnC_1_length_1_opaque_list_1(%rip), %rax
	movq	-80(%rbp), %rdx
	movq	%rdx, (%rax)
	call	rand@PLT
	movl	%eax, -100(%rbp)
	movl	$24, %edi
	call	malloc@PLT
	movq	%rax, -72(%rbp)
	movl	-100(%rbp), %eax
	leal	(%rax,%rax), %edx
	movq	-72(%rbp), %rax
	movl	%edx, 16(%rax)
	movq	_TIG_iO_GVnC_1_length_1_opaque_list_1(%rip), %rax
	movq	(%rax), %rdx
	movq	-72(%rbp), %rax
	movq	%rdx, (%rax)
	movq	_TIG_iO_GVnC_1_length_1_opaque_list_1(%rip), %rdx
	movq	-72(%rbp), %rax
	movq	%rdx, 8(%rax)
	movq	_TIG_iO_GVnC_1_length_1_opaque_list_1(%rip), %rax
	movq	(%rax), %rax
	movq	-72(%rbp), %rdx
	movq	%rdx, 8(%rax)
	movq	_TIG_iO_GVnC_1_length_1_opaque_list_1(%rip), %rax
	movq	-72(%rbp), %rdx
	movq	%rdx, (%rax)
	movq	_TIG_iO_GVnC_1_length_1_opaque_list_1(%rip), %rax
	movq	(%rax), %rax
	movq	%rax, _TIG_iO_GVnC_1_length_1_opaque_ptr_1(%rip)
	movq	_TIG_iO_GVnC_1_length_1_opaque_ptr_1(%rip), %rax
	movq	%rax, _TIG_iO_GVnC_1_length_1_opaque_ptr_2(%rip)
	movq	_TIG_iO_GVnC_1_length_1_opaque_ptr_2(%rip), %rax
	movq	(%rax), %rax
	movq	%rax, _TIG_iO_GVnC_1_length_1_opaque_ptr_2(%rip)
	nop
	nop
	movq	_TIG_iO_GVnC_1_swap_1_opaque_ptr_1(%rip), %rdx
	movq	_TIG_iO_GVnC_1_swap_1_opaque_ptr_2(%rip), %rax
	cmpq	%rax, %rdx
	je	.L2
	subq	$32, %rsp
	movq	%rsp, %rax
	movq	-64(%rbp), %rcx
	movq	-56(%rbp), %rbx
	movq	%rcx, (%rax)
	movq	%rbx, 8(%rax)
	movq	-48(%rbp), %rdx
	movq	%rdx, 16(%rax)
	movl	-40(%rbp), %edx
	movl	%edx, 24(%rax)
	call	struct_display
	addq	$32, %rsp
.L2:
	movl	$0, -112(%rbp)
	jmp	.L3
.L4:
	addl	$1, -112(%rbp)
.L3:
	movl	-112(%rbp), %eax
	movslq	%eax, %rdx
	movq	-120(%rbp), %rax
	addq	%rdx, %rax
	movzbl	(%rax), %eax
	testb	%al, %al
	jne	.L4
	movl	-112(%rbp), %eax
	movq	-24(%rbp), %rdx
	subq	%fs:40, %rdx
	je	.L6
	call	__stack_chk_fail@PLT
.L6:
	movq	-8(%rbp), %rbx
	leave
	.cfi_def_cfa 7, 8
	ret
	.cfi_endproc
.LFE0:
	.size	length, .-length
	.section	.rodata
.LC0:
	.string	"%d "
	.text
	.globl	display
	.type	display, @function
display:
.LFB1:
	.cfi_startproc
	endbr64
	pushq	%rbp
	.cfi_def_cfa_offset 16
	.cfi_offset 6, -16
	movq	%rsp, %rbp
	.cfi_def_cfa_register 6
	subq	$64, %rsp
	movq	%rdi, -56(%rbp)
#APP
# 493 "Surajwaghmare35_C-Lang_Notes.c" 1
	##_ANNOTATION_INITIALREGION_-TIG-iO-GVnC-1-display--18
# 0 "" 2
# 497 "Surajwaghmare35_C-Lang_Notes.c" 1
	##_ANNOTATION_ATOMICREGION_-TIG-iO-GVnC-1-display--17
# 0 "" 2
#NO_APP
	movl	$24, %edi
	call	malloc@PLT
	movq	%rax, -24(%rbp)
	movq	-24(%rbp), %rax
	movq	-24(%rbp), %rdx
	movq	%rdx, 8(%rax)
	movq	-24(%rbp), %rax
	movq	-24(%rbp), %rdx
	movq	%rdx, (%rax)
	movq	-24(%rbp), %rax
	movq	%rax, _TIG_iO_GVnC_1_display_1_opaque_list_1(%rip)
	call	rand@PLT
	movl	%eax, -32(%rbp)
	movl	$24, %edi
	call	malloc@PLT
	movq	%rax, -16(%rbp)
	movq	-16(%rbp), %rax
	movl	$0, 16(%rax)
	movq	_TIG_iO_GVnC_1_display_1_opaque_list_1(%rip), %rax
	movq	8(%rax), %rdx
	movq	-16(%rbp), %rax
	movq	%rdx, 8(%rax)
	movq	_TIG_iO_GVnC_1_display_1_opaque_list_1(%rip), %rdx
	movq	-16(%rbp), %rax
	movq	%rdx, (%rax)
	movq	_TIG_iO_GVnC_1_display_1_opaque_list_1(%rip), %rax
	movq	8(%rax), %rax
	movq	-16(%rbp), %rdx
	movq	%rdx, (%rax)
	movq	_TIG_iO_GVnC_1_display_1_opaque_list_1(%rip), %rax
	movq	-16(%rbp), %rdx
	movq	%rdx, 8(%rax)
	call	rand@PLT
	movl	%eax, -28(%rbp)
	movl	$24, %edi
	call	malloc@PLT
	movq	%rax, -8(%rbp)
	movq	-8(%rbp), %rax
	movl	-28(%rbp), %edx
	movl	%edx, 16(%rax)
	movq	_TIG_iO_GVnC_1_display_1_opaque_list_1(%rip), %rax
	movq	8(%rax), %rdx
	movq	-8(%rbp), %rax
	movq	%rdx, 8(%rax)
	movq	_TIG_iO_GVnC_1_display_1_opaque_list_1(%rip), %rdx
	movq	-8(%rbp), %rax
	movq	%rdx, (%rax)
	movq	_TIG_iO_GVnC_1_display_1_opaque_list_1(%rip), %rax
	movq	8(%rax), %rax
	movq	-8(%rbp), %rdx
	movq	%rdx, (%rax)
	movq	_TIG_iO_GVnC_1_display_1_opaque_list_1(%rip), %rax
	movq	-8(%rbp), %rdx
	movq	%rdx, 8(%rax)
	movq	_TIG_iO_GVnC_1_display_1_opaque_list_1(%rip), %rax
	movq	8(%rax), %rax
	movq	%rax, _TIG_iO_GVnC_1_display_1_opaque_ptr_1(%rip)
	movq	_TIG_iO_GVnC_1_display_1_opaque_ptr_1(%rip), %rax
	movq	%rax, _TIG_iO_GVnC_1_display_1_opaque_ptr_2(%rip)
	movq	_TIG_iO_GVnC_1_display_1_opaque_ptr_2(%rip), %rax
	movq	8(%rax), %rax
	movq	%rax, _TIG_iO_GVnC_1_display_1_opaque_ptr_2(%rip)
	nop
	nop
	movl	$0, -36(%rbp)
.L10:
	cmpl	$4, -36(%rbp)
	jle	.L8
	movq	_TIG_iO_GVnC_1_swap_1_opaque_ptr_1(%rip), %rdx
	movq	_TIG_iO_GVnC_1_swap_1_opaque_ptr_2(%rip), %rax
	cmpq	%rax, %rdx
	je	.L13
.L8:
	movl	-36(%rbp), %eax
	cltq
	leaq	0(,%rax,4), %rdx
	movq	-56(%rbp), %rax
	addq	%rdx, %rax
	movl	(%rax), %eax
	movl	%eax, %esi
	leaq	.LC0(%rip), %rax
	movq	%rax, %rdi
	movl	$0, %eax
	call	printf@PLT
	addl	$1, -36(%rbp)
	jmp	.L10
.L13:
	nop
	nop
	leave
	.cfi_def_cfa 7, 8
	ret
	.cfi_endproc
.LFE1:
	.size	display, .-display
	.section	.rodata
	.align 8
.LC1:
	.string	"\nEnter a no. to print N Narural: "
.LC2:
	.string	"%d"
.LC3:
	.string	"\nN narural no. of %d is: "
	.text
	.globl	Nnatural
	.type	Nnatural, @function
Nnatural:
.LFB2:
	.cfi_startproc
	endbr64
	pushq	%rbp
	.cfi_def_cfa_offset 16
	.cfi_offset 6, -16
	movq	%rsp, %rbp
	.cfi_def_cfa_register 6
	subq	$48, %rsp
	movq	%fs:40, %rax
	movq	%rax, -8(%rbp)
	xorl	%eax, %eax
#APP
# 471 "Surajwaghmare35_C-Lang_Notes.c" 1
	##_ANNOTATION_INITIALREGION_-TIG-iO-GVnC-1-Nnatural--2
# 0 "" 2
# 475 "Surajwaghmare35_C-Lang_Notes.c" 1
	##_ANNOTATION_ATOMICREGION_-TIG-iO-GVnC-1-Nnatural--1
# 0 "" 2
#NO_APP
	movl	$24, %edi
	call	malloc@PLT
	movq	%rax, -32(%rbp)
	movq	-32(%rbp), %rax
	movq	-32(%rbp), %rdx
	movq	%rdx, 8(%rax)
	movq	-32(%rbp), %rax
	movq	-32(%rbp), %rdx
	movq	%rdx, (%rax)
	movq	-32(%rbp), %rax
	movq	%rax, _TIG_iO_GVnC_1_Nnatural_1_opaque_list_1(%rip)
	call	rand@PLT
	movl	%eax, -40(%rbp)
	movl	$24, %edi
	call	malloc@PLT
	movq	%rax, -24(%rbp)
	movq	-24(%rbp), %rax
	movl	$0, 16(%rax)
	movq	_TIG_iO_GVnC_1_Nnatural_1_opaque_list_1(%rip), %rax
	movq	8(%rax), %rdx
	movq	-24(%rbp), %rax
	movq	%rdx, 8(%rax)
	movq	_TIG_iO_GVnC_1_Nnatural_1_opaque_list_1(%rip), %rdx
	movq	-24(%rbp), %rax
	movq	%rdx, (%rax)
	movq	_TIG_iO_GVnC_1_Nnatural_1_opaque_list_1(%rip), %rax
	movq	8(%rax), %rax
	movq	-24(%rbp), %rdx
	movq	%rdx, (%rax)
	movq	_TIG_iO_GVnC_1_Nnatural_1_opaque_list_1(%rip), %rax
	movq	-24(%rbp), %rdx
	movq	%rdx, 8(%rax)
	call	rand@PLT
	movl	%eax, -36(%rbp)
	movl	$24, %edi
	call	malloc@PLT
	movq	%rax, -16(%rbp)
	movq	-16(%rbp), %rax
	movl	-36(%rbp), %edx
	movl	%edx, 16(%rax)
	movq	_TIG_iO_GVnC_1_Nnatural_1_opaque_list_1(%rip), %rax
	movq	8(%rax), %rdx
	movq	-16(%rbp), %rax
	movq	%rdx, 8(%rax)
	movq	_TIG_iO_GVnC_1_Nnatural_1_opaque_list_1(%rip), %rdx
	movq	-16(%rbp), %rax
	movq	%rdx, (%rax)
	movq	_TIG_iO_GVnC_1_Nnatural_1_opaque_list_1(%rip), %rax
	movq	8(%rax), %rax
	movq	-16(%rbp), %rdx
	movq	%rdx, (%rax)
	movq	_TIG_iO_GVnC_1_Nnatural_1_opaque_list_1(%rip), %rax
	movq	-16(%rbp), %rdx
	movq	%rdx, 8(%rax)
	movq	_TIG_iO_GVnC_1_Nnatural_1_opaque_list_1(%rip), %rax
	movq	8(%rax), %rax
	movq	%rax, _TIG_iO_GVnC_1_Nnatural_1_opaque_ptr_1(%rip)
	movq	_TIG_iO_GVnC_1_Nnatural_1_opaque_ptr_1(%rip), %rax
	movq	%rax, _TIG_iO_GVnC_1_Nnatural_1_opaque_ptr_2(%rip)
	nop
	nop
	leaq	.LC1(%rip), %rax
	movq	%rax, %rdi
	movl	$0, %eax
	call	printf@PLT
	leaq	-48(%rbp), %rax
	movq	%rax, %rsi
	leaq	.LC2(%rip), %rax
	movq	%rax, %rdi
	movl	$0, %eax
	call	__isoc99_scanf@PLT
	movl	-48(%rbp), %eax
	movl	%eax, %esi
	leaq	.LC3(%rip), %rax
	movq	%rax, %rdi
	movl	$0, %eax
	call	printf@PLT
	movl	$1, -44(%rbp)
	jmp	.L15
.L17:
	movq	_TIG_iO_GVnC_1_swap_1_opaque_ptr_1(%rip), %rdx
	movq	_TIG_iO_GVnC_1_swap_1_opaque_ptr_2(%rip), %rax
	cmpq	%rax, %rdx
	jne	.L16
	movl	-44(%rbp), %eax
	movl	%eax, %esi
	leaq	.LC0(%rip), %rax
	movq	%rax, %rdi
	movl	$0, %eax
	call	printf@PLT
	addl	$1, -44(%rbp)
	jmp	.L15
.L16:
	leaq	-1+.LC0(%rip), %rdx
	movl	-40(%rbp), %eax
	movl	%eax, %esi
	movq	%rdx, %rdi
	movl	$0, %eax
	call	printf@PLT
.L15:
	movl	-48(%rbp), %eax
	cmpl	%eax, -44(%rbp)
	jle	.L17
	nop
	movq	-8(%rbp), %rax
	subq	%fs:40, %rax
	je	.L19
	call	__stack_chk_fail@PLT
.L19:
	leave
	.cfi_def_cfa 7, 8
	ret
	.cfi_endproc
.LFE2:
	.size	Nnatural, .-Nnatural
	.section	.rodata
	.align 8
.LC4:
	.string	"\nEnter a No. to check odd or even: "
.LC5:
	.string	"\nNo. %d is even."
.LC6:
	.string	"\nNo. %d is odd."
	.text
	.globl	isEven
	.type	isEven, @function
isEven:
.LFB3:
	.cfi_startproc
	endbr64
	pushq	%rbp
	.cfi_def_cfa_offset 16
	.cfi_offset 6, -16
	movq	%rsp, %rbp
	.cfi_def_cfa_register 6
	subq	$64, %rsp
	movq	%fs:40, %rax
	movq	%rax, -8(%rbp)
	xorl	%eax, %eax
#APP
# 381 "Surajwaghmare35_C-Lang_Notes.c" 1
	##_ANNOTATION_INITIALREGION_-TIG-iO-GVnC-1-isEven--22
# 0 "" 2
# 385 "Surajwaghmare35_C-Lang_Notes.c" 1
	##_ANNOTATION_ATOMICREGION_-TIG-iO-GVnC-1-isEven--21
# 0 "" 2
#NO_APP
	movl	$24, %edi
	call	malloc@PLT
	movq	%rax, -40(%rbp)
	movq	-40(%rbp), %rax
	movq	-40(%rbp), %rdx
	movq	%rdx, (%rax)
	movq	-40(%rbp), %rax
	movq	-40(%rbp), %rdx
	movq	%rdx, 16(%rax)
	movq	-40(%rbp), %rax
	movq	%rax, _TIG_iO_GVnC_1_isEven_1_opaque_list_1(%rip)
	call	rand@PLT
	movl	%eax, -52(%rbp)
	movl	$24, %edi
	call	malloc@PLT
	movq	%rax, -32(%rbp)
	movq	-32(%rbp), %rax
	movl	$0, 8(%rax)
	movq	_TIG_iO_GVnC_1_isEven_1_opaque_list_1(%rip), %rax
	movq	(%rax), %rdx
	movq	-32(%rbp), %rax
	movq	%rdx, (%rax)
	movq	_TIG_iO_GVnC_1_isEven_1_opaque_list_1(%rip), %rdx
	movq	-32(%rbp), %rax
	movq	%rdx, 16(%rax)
	movq	_TIG_iO_GVnC_1_isEven_1_opaque_list_1(%rip), %rax
	movq	(%rax), %rax
	movq	-32(%rbp), %rdx
	movq	%rdx, 16(%rax)
	movq	_TIG_iO_GVnC_1_isEven_1_opaque_list_1(%rip), %rax
	movq	-32(%rbp), %rdx
	movq	%rdx, (%rax)
	call	rand@PLT
	movl	%eax, -48(%rbp)
	movl	$24, %edi
	call	malloc@PLT
	movq	%rax, -24(%rbp)
	movq	-24(%rbp), %rax
	movl	-48(%rbp), %edx
	movl	%edx, 8(%rax)
	movq	_TIG_iO_GVnC_1_isEven_1_opaque_list_1(%rip), %rax
	movq	(%rax), %rdx
	movq	-24(%rbp), %rax
	movq	%rdx, (%rax)
	movq	_TIG_iO_GVnC_1_isEven_1_opaque_list_1(%rip), %rdx
	movq	-24(%rbp), %rax
	movq	%rdx, 16(%rax)
	movq	_TIG_iO_GVnC_1_isEven_1_opaque_list_1(%rip), %rax
	movq	(%rax), %rax
	movq	-24(%rbp), %rdx
	movq	%rdx, 16(%rax)
	movq	_TIG_iO_GVnC_1_isEven_1_opaque_list_1(%rip), %rax
	movq	-24(%rbp), %rdx
	movq	%rdx, (%rax)
	call	rand@PLT
	movl	%eax, -44(%rbp)
	movl	$24, %edi
	call	malloc@PLT
	movq	%rax, -16(%rbp)
	movl	-44(%rbp), %eax
	leal	(%rax,%rax), %edx
	movq	-16(%rbp), %rax
	movl	%edx, 8(%rax)
	movq	_TIG_iO_GVnC_1_isEven_1_opaque_list_1(%rip), %rax
	movq	(%rax), %rdx
	movq	-16(%rbp), %rax
	movq	%rdx, (%rax)
	movq	_TIG_iO_GVnC_1_isEven_1_opaque_list_1(%rip), %rdx
	movq	-16(%rbp), %rax
	movq	%rdx, 16(%rax)
	movq	_TIG_iO_GVnC_1_isEven_1_opaque_list_1(%rip), %rax
	movq	(%rax), %rax
	movq	-16(%rbp), %rdx
	movq	%rdx, 16(%rax)
	movq	_TIG_iO_GVnC_1_isEven_1_opaque_list_1(%rip), %rax
	movq	-16(%rbp), %rdx
	movq	%rdx, (%rax)
	movq	_TIG_iO_GVnC_1_isEven_1_opaque_list_1(%rip), %rax
	movq	(%rax), %rax
	movq	%rax, _TIG_iO_GVnC_1_isEven_1_opaque_ptr_1(%rip)
	movq	_TIG_iO_GVnC_1_isEven_1_opaque_ptr_1(%rip), %rax
	movq	%rax, _TIG_iO_GVnC_1_isEven_1_opaque_ptr_2(%rip)
	movq	_TIG_iO_GVnC_1_isEven_1_opaque_ptr_2(%rip), %rax
	movq	(%rax), %rax
	movq	%rax, _TIG_iO_GVnC_1_isEven_1_opaque_ptr_2(%rip)
	nop
	nop
	leaq	.LC4(%rip), %rax
	movq	%rax, %rdi
	movl	$0, %eax
	call	printf@PLT
	leaq	-56(%rbp), %rax
	movq	%rax, %rsi
	leaq	.LC2(%rip), %rax
	movq	%rax, %rdi
	movl	$0, %eax
	call	__isoc99_scanf@PLT
	movq	_TIG_iO_GVnC_1_swap_1_opaque_ptr_1(%rip), %rdx
	movq	_TIG_iO_GVnC_1_swap_1_opaque_ptr_2(%rip), %rax
	cmpq	%rax, %rdx
	je	.L21
	movl	-48(%rbp), %edx
	movl	-48(%rbp), %eax
	movl	%edx, %esi
	movl	%eax, %edi
	call	add
	movl	%eax, -52(%rbp)
.L21:
	movl	-56(%rbp), %eax
	andl	$1, %eax
	testl	%eax, %eax
	jne	.L22
	movl	-56(%rbp), %eax
	movl	%eax, %esi
	leaq	.LC5(%rip), %rax
	movq	%rax, %rdi
	movl	$0, %eax
	call	printf@PLT
	jmp	.L20
.L22:
	movl	-56(%rbp), %eax
	movl	%eax, %esi
	leaq	.LC6(%rip), %rax
	movq	%rax, %rdi
	movl	$0, %eax
	call	printf@PLT
	nop
.L20:
	movq	-8(%rbp), %rax
	subq	%fs:40, %rax
	je	.L25
	call	__stack_chk_fail@PLT
.L25:
	leave
	.cfi_def_cfa 7, 8
	ret
	.cfi_endproc
.LFE3:
	.size	isEven, .-isEven
	.globl	swap
	.type	swap, @function
swap:
.LFB4:
	.cfi_startproc
	endbr64
	pushq	%rbp
	.cfi_def_cfa_offset 16
	.cfi_offset 6, -16
	movq	%rsp, %rbp
	.cfi_def_cfa_register 6
	subq	$64, %rsp
	movq	%rdi, -56(%rbp)
	movq	%rsi, -64(%rbp)
#APP
# 369 "Surajwaghmare35_C-Lang_Notes.c" 1
	##_ANNOTATION_INITIALREGION_-TIG-iO-GVnC-1-swap--36
# 0 "" 2
# 373 "Surajwaghmare35_C-Lang_Notes.c" 1
	##_ANNOTATION_ATOMICREGION_-TIG-iO-GVnC-1-swap--35
# 0 "" 2
#NO_APP
	movl	$24, %edi
	call	malloc@PLT
	movq	%rax, -24(%rbp)
	movq	-24(%rbp), %rax
	movq	-24(%rbp), %rdx
	movq	%rdx, 8(%rax)
	movq	-24(%rbp), %rax
	movq	-24(%rbp), %rdx
	movq	%rdx, 16(%rax)
	movq	-24(%rbp), %rax
	movq	%rax, _TIG_iO_GVnC_1_swap_1_opaque_list_1(%rip)
	call	rand@PLT
	movl	%eax, -36(%rbp)
	movl	$24, %edi
	call	malloc@PLT
	movq	%rax, -16(%rbp)
	movq	-16(%rbp), %rax
	movl	$0, (%rax)
	movq	_TIG_iO_GVnC_1_swap_1_opaque_list_1(%rip), %rax
	movq	8(%rax), %rdx
	movq	-16(%rbp), %rax
	movq	%rdx, 8(%rax)
	movq	_TIG_iO_GVnC_1_swap_1_opaque_list_1(%rip), %rdx
	movq	-16(%rbp), %rax
	movq	%rdx, 16(%rax)
	movq	_TIG_iO_GVnC_1_swap_1_opaque_list_1(%rip), %rax
	movq	8(%rax), %rax
	movq	-16(%rbp), %rdx
	movq	%rdx, 16(%rax)
	movq	_TIG_iO_GVnC_1_swap_1_opaque_list_1(%rip), %rax
	movq	-16(%rbp), %rdx
	movq	%rdx, 8(%rax)
	call	rand@PLT
	movl	%eax, -32(%rbp)
	movl	$24, %edi
	call	malloc@PLT
	movq	%rax, -8(%rbp)
	movq	-8(%rbp), %rax
	movl	-32(%rbp), %edx
	movl	%edx, (%rax)
	movq	_TIG_iO_GVnC_1_swap_1_opaque_list_1(%rip), %rax
	movq	8(%rax), %rdx
	movq	-8(%rbp), %rax
	movq	%rdx, 8(%rax)
	movq	_TIG_iO_GVnC_1_swap_1_opaque_list_1(%rip), %rdx
	movq	-8(%rbp), %rax
	movq	%rdx, 16(%rax)
	movq	_TIG_iO_GVnC_1_swap_1_opaque_list_1(%rip), %rax
	movq	8(%rax), %rax
	movq	-8(%rbp), %rdx
	movq	%rdx, 16(%rax)
	movq	_TIG_iO_GVnC_1_swap_1_opaque_list_1(%rip), %rax
	movq	-8(%rbp), %rdx
	movq	%rdx, 8(%rax)
	movq	_TIG_iO_GVnC_1_swap_1_opaque_list_1(%rip), %rax
	movq	8(%rax), %rax
	movq	%rax, _TIG_iO_GVnC_1_swap_1_opaque_ptr_1(%rip)
	movq	_TIG_iO_GVnC_1_swap_1_opaque_ptr_1(%rip), %rax
	movq	%rax, _TIG_iO_GVnC_1_swap_1_opaque_ptr_2(%rip)
	nop
	nop
	movq	_TIG_iO_GVnC_1_swap_1_opaque_ptr_1(%rip), %rdx
	movq	_TIG_iO_GVnC_1_swap_1_opaque_ptr_2(%rip), %rax
	cmpq	%rax, %rdx
	je	.L27
	movq	-56(%rbp), %rax
	movl	(%rax), %eax
	movslq	%eax, %rdx
	imulq	$715827883, %rdx, %rdx
	shrq	$32, %rdx
	sarl	$31, %eax
	movl	%eax, %ecx
	movl	%edx, %eax
	subl	%ecx, %eax
	movl	%eax, -28(%rbp)
	movq	-56(%rbp), %rax
	movl	-32(%rbp), %edx
	movl	%edx, (%rax)
	movq	-64(%rbp), %rax
	movl	$5, (%rax)
	jmp	.L26
.L27:
	movq	-56(%rbp), %rax
	movl	(%rax), %eax
	movl	%eax, -28(%rbp)
	movq	-64(%rbp), %rax
	movl	(%rax), %edx
	movq	-56(%rbp), %rax
	movl	%edx, (%rax)
	movq	-64(%rbp), %rax
	movl	-28(%rbp), %edx
	movl	%edx, (%rax)
	nop
.L26:
	leave
	.cfi_def_cfa 7, 8
	ret
	.cfi_endproc
.LFE4:
	.size	swap, .-swap
	.section	.rodata
	.align 8
.LC7:
	.string	"\nEnter BookID, Title & Price: "
.LC8:
	.string	"%d %s %f"
	.text
	.globl	struct_input
	.type	struct_input, @function
struct_input:
.LFB5:
	.cfi_startproc
	endbr64
	pushq	%rbp
	.cfi_def_cfa_offset 16
	.cfi_offset 6, -16
	movq	%rsp, %rbp
	.cfi_def_cfa_register 6
	pushq	%rbx
	subq	$104, %rsp
	.cfi_offset 3, -24
	movq	%rdi, -104(%rbp)
	movq	%fs:40, %rax
	movq	%rax, -24(%rbp)
	xorl	%eax, %eax
#APP
# 454 "Surajwaghmare35_C-Lang_Notes.c" 1
	##_ANNOTATION_INITIALREGION_-TIG-iO-GVnC-1-struct-input--34
# 0 "" 2
# 458 "Surajwaghmare35_C-Lang_Notes.c" 1
	##_ANNOTATION_ATOMICREGION_-TIG-iO-GVnC-1-struct-input--33
# 0 "" 2
#NO_APP
	movl	$24, %edi
	call	malloc@PLT
	movq	%rax, -88(%rbp)
	movq	-88(%rbp), %rax
	movq	-88(%rbp), %rdx
	movq	%rdx, (%rax)
	movq	-88(%rbp), %rax
	movq	-88(%rbp), %rdx
	movq	%rdx, 8(%rax)
	movq	-88(%rbp), %rax
	movq	%rax, _TIG_iO_GVnC_1_struct_input_1_opaque_list_1(%rip)
	call	rand@PLT
	movl	%eax, -96(%rbp)
	movl	$24, %edi
	call	malloc@PLT
	movq	%rax, -80(%rbp)
	movq	-80(%rbp), %rax
	movl	$0, 16(%rax)
	movq	_TIG_iO_GVnC_1_struct_input_1_opaque_list_1(%rip), %rax
	movq	(%rax), %rdx
	movq	-80(%rbp), %rax
	movq	%rdx, (%rax)
	movq	_TIG_iO_GVnC_1_struct_input_1_opaque_list_1(%rip), %rdx
	movq	-80(%rbp), %rax
	movq	%rdx, 8(%rax)
	movq	_TIG_iO_GVnC_1_struct_input_1_opaque_list_1(%rip), %rax
	movq	(%rax), %rax
	movq	-80(%rbp), %rdx
	movq	%rdx, 8(%rax)
	movq	_TIG_iO_GVnC_1_struct_input_1_opaque_list_1(%rip), %rax
	movq	-80(%rbp), %rdx
	movq	%rdx, (%rax)
	call	rand@PLT
	movl	%eax, -92(%rbp)
	movl	$24, %edi
	call	malloc@PLT
	movq	%rax, -72(%rbp)
	movq	-72(%rbp), %rax
	movl	-92(%rbp), %edx
	movl	%edx, 16(%rax)
	movq	_TIG_iO_GVnC_1_struct_input_1_opaque_list_1(%rip), %rax
	movq	(%rax), %rdx
	movq	-72(%rbp), %rax
	movq	%rdx, (%rax)
	movq	_TIG_iO_GVnC_1_struct_input_1_opaque_list_1(%rip), %rdx
	movq	-72(%rbp), %rax
	movq	%rdx, 8(%rax)
	movq	_TIG_iO_GVnC_1_struct_input_1_opaque_list_1(%rip), %rax
	movq	(%rax), %rax
	movq	-72(%rbp), %rdx
	movq	%rdx, 8(%rax)
	movq	_TIG_iO_GVnC_1_struct_input_1_opaque_list_1(%rip), %rax
	movq	-72(%rbp), %rdx
	movq	%rdx, (%rax)
	movq	_TIG_iO_GVnC_1_struct_input_1_opaque_list_1(%rip), %rax
	movq	(%rax), %rax
	movq	%rax, _TIG_iO_GVnC_1_struct_input_1_opaque_ptr_1(%rip)
	movq	_TIG_iO_GVnC_1_struct_input_1_opaque_ptr_1(%rip), %rax
	movq	%rax, _TIG_iO_GVnC_1_struct_input_1_opaque_ptr_2(%rip)
	nop
	nop
	movq	_TIG_iO_GVnC_1_swap_1_opaque_ptr_1(%rip), %rdx
	movq	_TIG_iO_GVnC_1_swap_1_opaque_ptr_2(%rip), %rax
	cmpq	%rax, %rdx
	jne	.L31
	leaq	.LC7(%rip), %rax
	movq	%rax, %rdi
	movl	$0, %eax
	call	printf@PLT
	leaq	-64(%rbp), %rax
	leaq	24(%rax), %rcx
	leaq	-64(%rbp), %rax
	leaq	4(%rax), %rdx
	leaq	-64(%rbp), %rax
	movq	%rax, %rsi
	leaq	.LC8(%rip), %rax
	movq	%rax, %rdi
	movl	$0, %eax
	call	__isoc99_scanf@PLT
	movq	stdin(%rip), %rax
	movq	%rax, %rdi
	call	fflush@PLT
.L31:
	movq	-104(%rbp), %rax
	movq	-64(%rbp), %rcx
	movq	-56(%rbp), %rbx
	movq	%rcx, (%rax)
	movq	%rbx, 8(%rax)
	movq	-48(%rbp), %rdx
	movq	%rdx, 16(%rax)
	movl	-40(%rbp), %edx
	movl	%edx, 24(%rax)
	movq	-24(%rbp), %rax
	subq	%fs:40, %rax
	je	.L33
	call	__stack_chk_fail@PLT
.L33:
	movq	-104(%rbp), %rax
	movq	-8(%rbp), %rbx
	leave
	.cfi_def_cfa 7, 8
	ret
	.cfi_endproc
.LFE5:
	.size	struct_input, .-struct_input
	.globl	reverse
	.type	reverse, @function
reverse:
.LFB8:
	.cfi_startproc
	endbr64
	pushq	%rbp
	.cfi_def_cfa_offset 16
	.cfi_offset 6, -16
	movq	%rsp, %rbp
	.cfi_def_cfa_register 6
	subq	$112, %rsp
	movq	%rdi, -104(%rbp)
	movq	%fs:40, %rax
	movq	%rax, -8(%rbp)
	xorl	%eax, %eax
#APP
# 69 "/usr/include/x86_64-linux-gnu/bits/uintn-identity.h" 1
	##_ANNOTATION_INITIALREGION_-TIG-iO-GVnC-1-reverse--28
# 0 "" 2
# 73 "/usr/include/x86_64-linux-gnu/bits/uintn-identity.h" 1
	##_ANNOTATION_ATOMICREGION_-TIG-iO-GVnC-1-reverse--27
# 0 "" 2
#NO_APP
	movl	$24, %edi
	call	malloc@PLT
	movq	%rax, -72(%rbp)
	movq	-72(%rbp), %rax
	movq	-72(%rbp), %rdx
	movq	%rdx, 16(%rax)
	movq	-72(%rbp), %rax
	movq	-72(%rbp), %rdx
	movq	%rdx, 8(%rax)
	movq	-72(%rbp), %rax
	movq	%rax, _TIG_iO_GVnC_1_reverse_1_opaque_list_1(%rip)
	call	rand@PLT
	movl	%eax, -80(%rbp)
	movl	$24, %edi
	call	malloc@PLT
	movq	%rax, -64(%rbp)
	movq	-64(%rbp), %rax
	movl	$0, (%rax)
	movq	_TIG_iO_GVnC_1_reverse_1_opaque_list_1(%rip), %rax
	movq	16(%rax), %rdx
	movq	-64(%rbp), %rax
	movq	%rdx, 16(%rax)
	movq	_TIG_iO_GVnC_1_reverse_1_opaque_list_1(%rip), %rdx
	movq	-64(%rbp), %rax
	movq	%rdx, 8(%rax)
	movq	_TIG_iO_GVnC_1_reverse_1_opaque_list_1(%rip), %rax
	movq	16(%rax), %rax
	movq	-64(%rbp), %rdx
	movq	%rdx, 8(%rax)
	movq	_TIG_iO_GVnC_1_reverse_1_opaque_list_1(%rip), %rax
	movq	-64(%rbp), %rdx
	movq	%rdx, 16(%rax)
	call	rand@PLT
	movl	%eax, -76(%rbp)
	movl	$24, %edi
	call	malloc@PLT
	movq	%rax, -56(%rbp)
	movq	-56(%rbp), %rax
	movl	-76(%rbp), %edx
	movl	%edx, (%rax)
	movq	_TIG_iO_GVnC_1_reverse_1_opaque_list_1(%rip), %rax
	movq	16(%rax), %rdx
	movq	-56(%rbp), %rax
	movq	%rdx, 16(%rax)
	movq	_TIG_iO_GVnC_1_reverse_1_opaque_list_1(%rip), %rdx
	movq	-56(%rbp), %rax
	movq	%rdx, 8(%rax)
	movq	_TIG_iO_GVnC_1_reverse_1_opaque_list_1(%rip), %rax
	movq	16(%rax), %rax
	movq	-56(%rbp), %rdx
	movq	%rdx, 8(%rax)
	movq	_TIG_iO_GVnC_1_reverse_1_opaque_list_1(%rip), %rax
	movq	-56(%rbp), %rdx
	movq	%rdx, 16(%rax)
	movq	_TIG_iO_GVnC_1_reverse_1_opaque_list_1(%rip), %rax
	movq	16(%rax), %rax
	movq	%rax, _TIG_iO_GVnC_1_reverse_1_opaque_ptr_1(%rip)
	movq	_TIG_iO_GVnC_1_reverse_1_opaque_ptr_1(%rip), %rax
	movq	%rax, _TIG_iO_GVnC_1_reverse_1_opaque_ptr_2(%rip)
	nop
	nop
	movl	$0, -88(%rbp)
	jmp	.L35
.L36:
	addl	$1, -88(%rbp)
.L35:
	movl	-88(%rbp), %eax
	movslq	%eax, %rdx
	movq	-104(%rbp), %rax
	addq	%rdx, %rax
	movzbl	(%rax), %eax
	testb	%al, %al
	jne	.L36
	movl	$0, -84(%rbp)
	jmp	.L37
.L38:
	movl	-84(%rbp), %eax
	movslq	%eax, %rdx
	movq	-104(%rbp), %rax
	addq	%rdx, %rax
	movzbl	(%rax), %eax
	movb	%al, -89(%rbp)
	movl	-88(%rbp), %eax
	cltq
	movl	-84(%rbp), %edx
	movslq	%edx, %rdx
	subq	%rdx, %rax
	leaq	-1(%rax), %rdx
	movq	-104(%rbp), %rax
	addq	%rdx, %rax
	movl	-84(%rbp), %edx
	movslq	%edx, %rcx
	movq	-104(%rbp), %rdx
	addq	%rcx, %rdx
	movzbl	(%rax), %eax
	movb	%al, (%rdx)
	movl	-88(%rbp), %eax
	cltq
	movl	-84(%rbp), %edx
	movslq	%edx, %rdx
	subq	%rdx, %rax
	leaq	-1(%rax), %rdx
	movq	-104(%rbp), %rax
	addq	%rax, %rdx
	movzbl	-89(%rbp), %eax
	movb	%al, (%rdx)
	addl	$1, -84(%rbp)
.L37:
	movl	-88(%rbp), %eax
	movl	%eax, %edx
	shrl	$31, %edx
	addl	%edx, %eax
	sarl	%eax
	cmpl	%eax, -84(%rbp)
	jl	.L38
	movq	_TIG_iO_GVnC_1_swap_1_opaque_ptr_1(%rip), %rdx
	movq	_TIG_iO_GVnC_1_swap_1_opaque_ptr_2(%rip), %rax
	cmpq	%rax, %rdx
	je	.L39
	leaq	-48(%rbp), %rax
	movq	%rax, %rdi
	call	struct_input
.L39:
	movq	-104(%rbp), %rax
	movq	-8(%rbp), %rdx
	subq	%fs:40, %rdx
	je	.L41
	call	__stack_chk_fail@PLT
.L41:
	leave
	.cfi_def_cfa 7, 8
	ret
	.cfi_endproc
.LFE8:
	.size	reverse, .-reverse
	.section	.rodata
.LC9:
	.string	"Enter today's date: "
.LC10:
	.string	"%d/%d/%d"
.LC11:
	.string	"Date: %d/%d/%d\n"
.LC12:
	.string	"\nValue of ~a is: %d\n"
	.align 8
.LC13:
	.string	"\nEnter a number to chech max: "
.LC14:
	.string	"%d %d"
.LC15:
	.string	"max no. is: %d\n"
.LC16:
	.string	"\nSurajGW"
	.align 8
.LC17:
	.string	"\n\n1. Addition.\n2. Odd-Even.\n3. Print N Natural No.\n4. Array-Sum.\n5. String.\n6. Swap\n7. Sort\n8. StrLen & StrRev.\n9. Exit."
.LC18:
	.string	"\nEnter your choice number: "
.LC19:
	.string	"\nEnter Two No. to Add: "
.LC20:
	.string	"\nSum of %d & %d is: %d"
.LC21:
	.string	"Enter 10 No: "
	.align 8
.LC23:
	.string	"Sum of above is: %d and Avg is: %f\n"
	.align 8
.LC24:
	.string	"\nEnter 9 Number to fill 1st 3*3 matrix: "
	.align 8
.LC25:
	.string	"Enter 9 Number to fill 2nd 3*3 matrix: "
.LC26:
	.string	" %d"
.LC27:
	.string	"\nEnter ur name: "
.LC28:
	.string	"%s"
.LC29:
	.string	"Entet two No, to swap: "
.LC30:
	.string	"%d%d"
.LC31:
	.string	"Swap Values is: b=%d & c=%d\n"
.LC32:
	.string	"Suraj"
.LC33:
	.string	"Length of sting is: %d\n"
.LC34:
	.string	"\nInvalid Choice"
	.text
	.globl	main
	.type	main, @function
main:
.LFB11:
	.cfi_startproc
	endbr64
	pushq	%rbp
	.cfi_def_cfa_offset 16
	.cfi_offset 6, -16
	movq	%rsp, %rbp
	.cfi_def_cfa_register 6
	pushq	%rbx
	subq	$472, %rsp
	.cfi_offset 3, -24
	movl	%edi, -452(%rbp)
	movq	%rsi, -464(%rbp)
	movq	%rdx, -472(%rbp)
	movq	%fs:40, %rax
	movq	%rax, -24(%rbp)
	xorl	%eax, %eax
	movl	$0, d2(%rip)
	movl	$0, 4+d2(%rip)
	movl	$0, 8+d2(%rip)
	nop
.L43:
	movq	$0, _TIG_IZ_GVnC_envp(%rip)
	nop
.L44:
	movq	$0, _TIG_IZ_GVnC_argv(%rip)
	nop
.L45:
	movl	$0, _TIG_IZ_GVnC_argc(%rip)
	nop
	nop
.L46:
.L47:
#APP
# 118 "/usr/include/x86_64-linux-gnu/bits/uintn-identity.h" 1
	##_ANNOTATION_INITIALREGION_-TIG-IZ-GVnC--0
# 0 "" 2
#NO_APP
	movl	-452(%rbp), %eax
	movl	%eax, _TIG_IZ_GVnC_argc(%rip)
	movq	-464(%rbp), %rax
	movq	%rax, _TIG_IZ_GVnC_argv(%rip)
	movq	-472(%rbp), %rax
	movq	%rax, _TIG_IZ_GVnC_envp(%rip)
#APP
# 125 "/usr/include/x86_64-linux-gnu/bits/uintn-identity.h" 1
	##_ANNOTATION_ATOMICREGION_-TIG-iO-GVnC-1-main--25
# 0 "" 2
#NO_APP
	movl	$24, %edi
	call	malloc@PLT
	movq	%rax, -368(%rbp)
	movq	-368(%rbp), %rax
	movq	-368(%rbp), %rdx
	movq	%rdx, (%rax)
	movq	-368(%rbp), %rax
	movq	-368(%rbp), %rdx
	movq	%rdx, 16(%rax)
	movq	-368(%rbp), %rax
	movq	%rax, _TIG_iO_GVnC_1_main_1_opaque_list_1(%rip)
	call	rand@PLT
	movl	%eax, -404(%rbp)
	movl	$24, %edi
	call	malloc@PLT
	movq	%rax, -360(%rbp)
	movq	-360(%rbp), %rax
	movl	$0, 8(%rax)
	movq	_TIG_iO_GVnC_1_main_1_opaque_list_1(%rip), %rax
	movq	(%rax), %rdx
	movq	-360(%rbp), %rax
	movq	%rdx, (%rax)
	movq	_TIG_iO_GVnC_1_main_1_opaque_list_1(%rip), %rdx
	movq	-360(%rbp), %rax
	movq	%rdx, 16(%rax)
	movq	_TIG_iO_GVnC_1_main_1_opaque_list_1(%rip), %rax
	movq	(%rax), %rax
	movq	-360(%rbp), %rdx
	movq	%rdx, 16(%rax)
	movq	_TIG_iO_GVnC_1_main_1_opaque_list_1(%rip), %rax
	movq	-360(%rbp), %rdx
	movq	%rdx, (%rax)
	call	rand@PLT
	movl	%eax, -400(%rbp)
	movl	$24, %edi
	call	malloc@PLT
	movq	%rax, -352(%rbp)
	movq	-352(%rbp), %rax
	movl	-400(%rbp), %edx
	movl	%edx, 8(%rax)
	movq	_TIG_iO_GVnC_1_main_1_opaque_list_1(%rip), %rax
	movq	(%rax), %rdx
	movq	-352(%rbp), %rax
	movq	%rdx, (%rax)
	movq	_TIG_iO_GVnC_1_main_1_opaque_list_1(%rip), %rdx
	movq	-352(%rbp), %rax
	movq	%rdx, 16(%rax)
	movq	_TIG_iO_GVnC_1_main_1_opaque_list_1(%rip), %rax
	movq	(%rax), %rax
	movq	-352(%rbp), %rdx
	movq	%rdx, 16(%rax)
	movq	_TIG_iO_GVnC_1_main_1_opaque_list_1(%rip), %rax
	movq	-352(%rbp), %rdx
	movq	%rdx, (%rax)
	call	rand@PLT
	movl	%eax, -396(%rbp)
	movl	$24, %edi
	call	malloc@PLT
	movq	%rax, -344(%rbp)
	movl	-396(%rbp), %eax
	leal	(%rax,%rax), %edx
	movq	-344(%rbp), %rax
	movl	%edx, 8(%rax)
	movq	_TIG_iO_GVnC_1_main_1_opaque_list_1(%rip), %rax
	movq	(%rax), %rdx
	movq	-344(%rbp), %rax
	movq	%rdx, (%rax)
	movq	_TIG_iO_GVnC_1_main_1_opaque_list_1(%rip), %rdx
	movq	-344(%rbp), %rax
	movq	%rdx, 16(%rax)
	movq	_TIG_iO_GVnC_1_main_1_opaque_list_1(%rip), %rax
	movq	(%rax), %rax
	movq	-344(%rbp), %rdx
	movq	%rdx, 16(%rax)
	movq	_TIG_iO_GVnC_1_main_1_opaque_list_1(%rip), %rax
	movq	-344(%rbp), %rdx
	movq	%rdx, (%rax)
	call	rand@PLT
	movl	%eax, -392(%rbp)
	movl	$24, %edi
	call	malloc@PLT
	movq	%rax, -336(%rbp)
	movl	-392(%rbp), %edx
	movl	%edx, %eax
	addl	%eax, %eax
	addl	%eax, %edx
	movq	-336(%rbp), %rax
	movl	%edx, 8(%rax)
	movq	_TIG_iO_GVnC_1_main_1_opaque_list_1(%rip), %rax
	movq	(%rax), %rdx
	movq	-336(%rbp), %rax
	movq	%rdx, (%rax)
	movq	_TIG_iO_GVnC_1_main_1_opaque_list_1(%rip), %rdx
	movq	-336(%rbp), %rax
	movq	%rdx, 16(%rax)
	movq	_TIG_iO_GVnC_1_main_1_opaque_list_1(%rip), %rax
	movq	(%rax), %rax
	movq	-336(%rbp), %rdx
	movq	%rdx, 16(%rax)
	movq	_TIG_iO_GVnC_1_main_1_opaque_list_1(%rip), %rax
	movq	-336(%rbp), %rdx
	movq	%rdx, (%rax)
	movq	_TIG_iO_GVnC_1_main_1_opaque_list_1(%rip), %rax
	movq	(%rax), %rax
	movq	%rax, _TIG_iO_GVnC_1_main_1_opaque_ptr_1(%rip)
	movq	_TIG_iO_GVnC_1_main_1_opaque_ptr_1(%rip), %rax
	movq	%rax, _TIG_iO_GVnC_1_main_1_opaque_ptr_2(%rip)
	nop
	nop
	movl	$-6, -388(%rbp)
	movl	$1, -384(%rbp)
	movl	$1, -416(%rbp)
	movb	$83, -44(%rbp)
	movb	$85, -43(%rbp)
	movb	$82, -42(%rbp)
	movb	$65, -41(%rbp)
	movb	$74, -40(%rbp)
	movb	$0, -39(%rbp)
	movl	$6, -412(%rbp)
	jmp	.L48
.L49:
	movl	-412(%rbp), %eax
	movb	$0, -44(%rbp,%rax)
	addl	$1, -412(%rbp)
.L48:
	cmpl	$9, -412(%rbp)
	jbe	.L49
	movl	$15, -328(%rbp)
	movl	$9, -324(%rbp)
	movl	$2024, -320(%rbp)
	leaq	.LC9(%rip), %rax
	movq	%rax, %rdi
	movl	$0, %eax
	call	printf@PLT
	leaq	-316(%rbp), %rax
	leaq	8(%rax), %rcx
	leaq	-316(%rbp), %rax
	leaq	4(%rax), %rdx
	leaq	-316(%rbp), %rax
	movq	%rax, %rsi
	leaq	.LC10(%rip), %rax
	movq	%rax, %rdi
	movl	$0, %eax
	call	__isoc99_scanf@PLT
	movl	-308(%rbp), %ecx
	movl	-312(%rbp), %edx
	movl	-316(%rbp), %eax
	movl	%eax, %esi
	leaq	.LC11(%rip), %rax
	movq	%rax, %rdi
	movl	$0, %eax
	call	printf@PLT
	leaq	-272(%rbp), %rax
	movq	%rax, %rdi
	call	struct_input
	subq	$32, %rsp
	movq	%rsp, %rax
	movq	-272(%rbp), %rcx
	movq	-264(%rbp), %rbx
	movq	%rcx, (%rax)
	movq	%rbx, 8(%rax)
	movq	-256(%rbp), %rdx
	movq	%rdx, 16(%rax)
	movl	-248(%rbp), %edx
	movl	%edx, 24(%rax)
	call	struct_display
	addq	$32, %rsp
	movl	-388(%rbp), %eax
	movl	%eax, %esi
	leaq	.LC12(%rip), %rax
	movq	%rax, %rdi
	movl	$0, %eax
	call	printf@PLT
	leaq	.LC13(%rip), %rax
	movq	%rax, %rdi
	movl	$0, %eax
	call	printf@PLT
	leaq	-432(%rbp), %rdx
	leaq	-436(%rbp), %rax
	movq	%rax, %rsi
	leaq	.LC14(%rip), %rax
	movq	%rax, %rdi
	movl	$0, %eax
	call	__isoc99_scanf@PLT
	movl	-436(%rbp), %edx
	movl	-432(%rbp), %eax
	cmpl	%eax, %edx
	jle	.L50
	movl	-436(%rbp), %eax
	movl	%eax, -408(%rbp)
	jmp	.L51
.L50:
	movl	-432(%rbp), %eax
	movl	%eax, -408(%rbp)
.L51:
	movl	-408(%rbp), %eax
	movl	%eax, %esi
	leaq	.LC15(%rip), %rax
	movq	%rax, %rdi
	movl	$0, %eax
	call	printf@PLT
	movl	$1, -424(%rbp)
	jmp	.L52
.L53:
	leaq	.LC16(%rip), %rax
	movq	%rax, %rdi
	movl	$0, %eax
	call	printf@PLT
	addl	$1, -424(%rbp)
.L52:
	cmpl	$5, -424(%rbp)
	jle	.L53
.L83:
	leaq	.LC17(%rip), %rax
	movq	%rax, %rdi
	movl	$0, %eax
	call	printf@PLT
	leaq	.LC18(%rip), %rax
	movq	%rax, %rdi
	movl	$0, %eax
	call	printf@PLT
	leaq	-428(%rbp), %rax
	movq	%rax, %rsi
	leaq	.LC2(%rip), %rax
	movq	%rax, %rdi
	movl	$0, %eax
	call	__isoc99_scanf@PLT
	movl	-428(%rbp), %eax
	cmpl	$9, %eax
	ja	.L54
	movl	%eax, %eax
	leaq	0(,%rax,4), %rdx
	leaq	.L56(%rip), %rax
	movl	(%rdx,%rax), %eax
	cltq
	leaq	.L56(%rip), %rdx
	addq	%rdx, %rax
	notrack jmp	*%rax
	.section	.rodata
	.align 4
	.align 4
.L56:
	.long	.L54-.L56
	.long	.L64-.L56
	.long	.L63-.L56
	.long	.L62-.L56
	.long	.L61-.L56
	.long	.L60-.L56
	.long	.L59-.L56
	.long	.L58-.L56
	.long	.L57-.L56
	.long	.L55-.L56
	.text
.L64:
	leaq	.LC19(%rip), %rax
	movq	%rax, %rdi
	movl	$0, %eax
	call	printf@PLT
	leaq	-432(%rbp), %rdx
	leaq	-436(%rbp), %rax
	movq	%rax, %rsi
	leaq	.LC14(%rip), %rax
	movq	%rax, %rdi
	movl	$0, %eax
	call	__isoc99_scanf@PLT
	movl	-432(%rbp), %edx
	movl	-436(%rbp), %eax
	movl	%edx, %esi
	movl	%eax, %edi
	call	add
	movl	%eax, -372(%rbp)
	movl	-432(%rbp), %edx
	movl	-436(%rbp), %eax
	movl	-372(%rbp), %ecx
	movl	%eax, %esi
	leaq	.LC20(%rip), %rax
	movq	%rax, %rdi
	movl	$0, %eax
	call	printf@PLT
	jmp	.L65
.L63:
	call	isEven
	jmp	.L65
.L62:
	call	Nnatural
	jmp	.L65
.L61:
	leaq	.LC21(%rip), %rax
	movq	%rax, %rdi
	movl	$0, %eax
	call	printf@PLT
	movl	$0, -424(%rbp)
	jmp	.L66
.L67:
	leaq	-96(%rbp), %rdx
	movl	-424(%rbp), %eax
	cltq
	salq	$2, %rax
	addq	%rdx, %rax
	movq	%rax, %rsi
	leaq	.LC2(%rip), %rax
	movq	%rax, %rdi
	movl	$0, %eax
	call	__isoc99_scanf@PLT
	movl	-424(%rbp), %eax
	cltq
	movl	-96(%rbp,%rax,4), %eax
	addl	%eax, -416(%rbp)
	addl	$1, -424(%rbp)
.L66:
	cmpl	$9, -424(%rbp)
	jle	.L67
	pxor	%xmm0, %xmm0
	cvtsi2sdl	-416(%rbp), %xmm0
	movsd	.LC22(%rip), %xmm1
	divsd	%xmm1, %xmm0
	movq	%xmm0, %rdx
	movl	-416(%rbp), %eax
	movq	%rdx, %xmm0
	movl	%eax, %esi
	leaq	.LC23(%rip), %rax
	movq	%rax, %rdi
	movl	$1, %eax
	call	printf@PLT
	leaq	.LC24(%rip), %rax
	movq	%rax, %rdi
	call	puts@PLT
	movl	$0, -424(%rbp)
	jmp	.L68
.L71:
	movl	$0, -420(%rbp)
	jmp	.L69
.L70:
	leaq	-240(%rbp), %rcx
	movl	-420(%rbp), %eax
	movslq	%eax, %rsi
	movl	-424(%rbp), %eax
	movslq	%eax, %rdx
	movq	%rdx, %rax
	addq	%rax, %rax
	addq	%rdx, %rax
	addq	%rsi, %rax
	salq	$2, %rax
	addq	%rcx, %rax
	movq	%rax, %rsi
	leaq	.LC2(%rip), %rax
	movq	%rax, %rdi
	movl	$0, %eax
	call	__isoc99_scanf@PLT
	addl	$1, -420(%rbp)
.L69:
	cmpl	$2, -420(%rbp)
	jle	.L70
	addl	$1, -424(%rbp)
.L68:
	cmpl	$2, -424(%rbp)
	jle	.L71
	leaq	.LC25(%rip), %rax
	movq	%rax, %rdi
	call	puts@PLT
	movl	$0, -424(%rbp)
	jmp	.L72
.L75:
	movl	$0, -420(%rbp)
	jmp	.L73
.L74:
	leaq	-192(%rbp), %rcx
	movl	-420(%rbp), %eax
	movslq	%eax, %rsi
	movl	-424(%rbp), %eax
	movslq	%eax, %rdx
	movq	%rdx, %rax
	addq	%rax, %rax
	addq	%rdx, %rax
	addq	%rsi, %rax
	salq	$2, %rax
	addq	%rcx, %rax
	movq	%rax, %rsi
	leaq	.LC2(%rip), %rax
	movq	%rax, %rdi
	movl	$0, %eax
	call	__isoc99_scanf@PLT
	addl	$1, -420(%rbp)
.L73:
	cmpl	$2, -420(%rbp)
	jle	.L74
	addl	$1, -424(%rbp)
.L72:
	cmpl	$2, -424(%rbp)
	jle	.L75
	movl	$0, -424(%rbp)
	jmp	.L76
.L79:
	movl	$0, -420(%rbp)
	jmp	.L77
.L78:
	movl	-420(%rbp), %eax
	movslq	%eax, %rcx
	movl	-424(%rbp), %eax
	movslq	%eax, %rdx
	movq	%rdx, %rax
	addq	%rax, %rax
	addq	%rdx, %rax
	addq	%rcx, %rax
	movl	-240(%rbp,%rax,4), %ecx
	movl	-420(%rbp), %eax
	movslq	%eax, %rsi
	movl	-424(%rbp), %eax
	movslq	%eax, %rdx
	movq	%rdx, %rax
	addq	%rax, %rax
	addq	%rdx, %rax
	addq	%rsi, %rax
	movl	-192(%rbp,%rax,4), %eax
	addl	%ecx, %eax
	movl	%eax, -376(%rbp)
	movl	-420(%rbp), %eax
	movslq	%eax, %rcx
	movl	-424(%rbp), %eax
	movslq	%eax, %rdx
	movq	%rdx, %rax
	addq	%rax, %rax
	addq	%rdx, %rax
	leaq	(%rax,%rcx), %rdx
	movl	-376(%rbp), %eax
	movl	%eax, -144(%rbp,%rdx,4)
	movl	-376(%rbp), %eax
	movl	%eax, %esi
	leaq	.LC26(%rip), %rax
	movq	%rax, %rdi
	movl	$0, %eax
	call	printf@PLT
	addl	$1, -420(%rbp)
.L77:
	cmpl	$2, -420(%rbp)
	jle	.L78
	movl	$10, %edi
	call	putchar@PLT
	addl	$1, -424(%rbp)
.L76:
	cmpl	$2, -424(%rbp)
	jle	.L79
	movq	_TIG_iO_GVnC_1_swap_1_opaque_ptr_1(%rip), %rdx
	movq	_TIG_iO_GVnC_1_swap_1_opaque_ptr_2(%rip), %rax
	cmpq	%rax, %rdx
	je	.L85
	call	Nnatural
	jmp	.L85
.L60:
	movl	$0, -424(%rbp)
	jmp	.L81
.L82:
	movl	-424(%rbp), %eax
	cltq
	movzbl	-44(%rbp,%rax), %eax
	movsbl	%al, %eax
	movl	%eax, %edi
	call	putchar@PLT
	addl	$1, -424(%rbp)
.L81:
	movl	-424(%rbp), %eax
	cltq
	movzbl	-44(%rbp,%rax), %eax
	testb	%al, %al
	jne	.L82
	leaq	.LC27(%rip), %rax
	movq	%rax, %rdi
	movl	$0, %eax
	call	printf@PLT
	leaq	-34(%rbp), %rax
	movq	%rax, %rsi
	leaq	.LC28(%rip), %rax
	movq	%rax, %rdi
	movl	$0, %eax
	call	__isoc99_scanf@PLT
	leaq	-34(%rbp), %rax
	movq	%rax, %rdi
	call	puts@PLT
	jmp	.L65
.L59:
	leaq	.LC29(%rip), %rax
	movq	%rax, %rdi
	call	puts@PLT
	leaq	-432(%rbp), %rdx
	leaq	-436(%rbp), %rax
	movq	%rax, %rsi
	leaq	.LC30(%rip), %rax
	movq	%rax, %rdi
	movl	$0, %eax
	call	__isoc99_scanf@PLT
	leaq	-432(%rbp), %rdx
	leaq	-436(%rbp), %rax
	movq	%rdx, %rsi
	movq	%rax, %rdi
	call	swap
	movl	-432(%rbp), %edx
	movl	-436(%rbp), %eax
	movl	%eax, %esi
	leaq	.LC31(%rip), %rax
	movq	%rax, %rdi
	movl	$0, %eax
	call	printf@PLT
	jmp	.L65
.L58:
	leaq	-304(%rbp), %rax
	movq	%rax, %rdi
	call	input
	leaq	-304(%rbp), %rax
	movq	%rax, %rdi
	call	display
	leaq	-304(%rbp), %rax
	movq	%rax, %rdi
	call	sort
	leaq	-304(%rbp), %rax
	movq	%rax, %rdi
	call	display
	jmp	.L65
.L57:
	leaq	.LC32(%rip), %rax
	movq	%rax, %rdi
	call	length
	movl	%eax, -380(%rbp)
	movl	-380(%rbp), %eax
	movl	%eax, %esi
	leaq	.LC33(%rip), %rax
	movq	%rax, %rdi
	movl	$0, %eax
	call	printf@PLT
	jmp	.L65
.L55:
	movl	$0, %edi
	call	exit@PLT
.L54:
	leaq	.LC34(%rip), %rax
	movq	%rax, %rdi
	call	puts@PLT
	jmp	.L65
.L85:
	nop
.L65:
	jmp	.L83
	.cfi_endproc
.LFE11:
	.size	main, .-main
	.section	.rodata
.LC35:
	.string	"\nEnter five No. to Sort: "
	.text
	.globl	input
	.type	input, @function
input:
.LFB13:
	.cfi_startproc
	endbr64
	pushq	%rbp
	.cfi_def_cfa_offset 16
	.cfi_offset 6, -16
	movq	%rsp, %rbp
	.cfi_def_cfa_register 6
	subq	$64, %rsp
	movq	%rdi, -56(%rbp)
#APP
# 59 "/usr/include/x86_64-linux-gnu/bits/uintn-identity.h" 1
	##_ANNOTATION_INITIALREGION_-TIG-iO-GVnC-1-input--20
# 0 "" 2
# 63 "/usr/include/x86_64-linux-gnu/bits/uintn-identity.h" 1
	##_ANNOTATION_ATOMICREGION_-TIG-iO-GVnC-1-input--19
# 0 "" 2
#NO_APP
	movl	$24, %edi
	call	malloc@PLT
	movq	%rax, -24(%rbp)
	movq	-24(%rbp), %rax
	movq	-24(%rbp), %rdx
	movq	%rdx, 8(%rax)
	movq	-24(%rbp), %rax
	movq	-24(%rbp), %rdx
	movq	%rdx, 16(%rax)
	movq	-24(%rbp), %rax
	movq	%rax, _TIG_iO_GVnC_1_input_1_opaque_list_1(%rip)
	call	rand@PLT
	movl	%eax, -32(%rbp)
	movl	$24, %edi
	call	malloc@PLT
	movq	%rax, -16(%rbp)
	movq	-16(%rbp), %rax
	movl	$0, (%rax)
	movq	_TIG_iO_GVnC_1_input_1_opaque_list_1(%rip), %rax
	movq	8(%rax), %rdx
	movq	-16(%rbp), %rax
	movq	%rdx, 8(%rax)
	movq	_TIG_iO_GVnC_1_input_1_opaque_list_1(%rip), %rdx
	movq	-16(%rbp), %rax
	movq	%rdx, 16(%rax)
	movq	_TIG_iO_GVnC_1_input_1_opaque_list_1(%rip), %rax
	movq	8(%rax), %rax
	movq	-16(%rbp), %rdx
	movq	%rdx, 16(%rax)
	movq	_TIG_iO_GVnC_1_input_1_opaque_list_1(%rip), %rax
	movq	-16(%rbp), %rdx
	movq	%rdx, 8(%rax)
	call	rand@PLT
	movl	%eax, -28(%rbp)
	movl	$24, %edi
	call	malloc@PLT
	movq	%rax, -8(%rbp)
	movq	-8(%rbp), %rax
	movl	-28(%rbp), %edx
	movl	%edx, (%rax)
	movq	_TIG_iO_GVnC_1_input_1_opaque_list_1(%rip), %rax
	movq	8(%rax), %rdx
	movq	-8(%rbp), %rax
	movq	%rdx, 8(%rax)
	movq	_TIG_iO_GVnC_1_input_1_opaque_list_1(%rip), %rdx
	movq	-8(%rbp), %rax
	movq	%rdx, 16(%rax)
	movq	_TIG_iO_GVnC_1_input_1_opaque_list_1(%rip), %rax
	movq	8(%rax), %rax
	movq	-8(%rbp), %rdx
	movq	%rdx, 16(%rax)
	movq	_TIG_iO_GVnC_1_input_1_opaque_list_1(%rip), %rax
	movq	-8(%rbp), %rdx
	movq	%rdx, 8(%rax)
	movq	_TIG_iO_GVnC_1_input_1_opaque_list_1(%rip), %rax
	movq	8(%rax), %rax
	movq	%rax, _TIG_iO_GVnC_1_input_1_opaque_ptr_1(%rip)
	movq	_TIG_iO_GVnC_1_input_1_opaque_ptr_1(%rip), %rax
	movq	%rax, _TIG_iO_GVnC_1_input_1_opaque_ptr_2(%rip)
	nop
	nop
	leaq	.LC35(%rip), %rax
	movq	%rax, %rdi
	movl	$0, %eax
	call	printf@PLT
	movl	$0, -36(%rbp)
.L90:
	movq	_TIG_iO_GVnC_1_swap_1_opaque_ptr_1(%rip), %rdx
	movq	_TIG_iO_GVnC_1_swap_1_opaque_ptr_2(%rip), %rax
	cmpq	%rax, %rdx
	je	.L87
	call	isEven
.L87:
	cmpl	$4, -36(%rbp)
	jg	.L93
	movl	-36(%rbp), %eax
	cltq
	leaq	0(,%rax,4), %rdx
	movq	-56(%rbp), %rax
	addq	%rdx, %rax
	movq	%rax, %rsi
	leaq	.LC2(%rip), %rax
	movq	%rax, %rdi
	movl	$0, %eax
	call	__isoc99_scanf@PLT
	addl	$1, -36(%rbp)
	jmp	.L90
.L93:
	nop
	nop
	leave
	.cfi_def_cfa 7, 8
	ret
	.cfi_endproc
.LFE13:
	.size	input, .-input
	.section	.rodata
	.align 8
.LC36:
	.string	"BookID= %d, Title= %s & Price= %f\n"
	.text
	.globl	struct_display
	.type	struct_display, @function
struct_display:
.LFB14:
	.cfi_startproc
	endbr64
	pushq	%rbp
	.cfi_def_cfa_offset 16
	.cfi_offset 6, -16
	movq	%rsp, %rbp
	.cfi_def_cfa_register 6
	subq	$32, %rsp
#APP
# 462 "Surajwaghmare35_C-Lang_Notes.c" 1
	##_ANNOTATION_INITIALREGION_-TIG-iO-GVnC-1-struct-display--32
# 0 "" 2
# 466 "Surajwaghmare35_C-Lang_Notes.c" 1
	##_ANNOTATION_ATOMICREGION_-TIG-iO-GVnC-1-struct-display--31
# 0 "" 2
#NO_APP
	movl	$24, %edi
	call	malloc@PLT
	movq	%rax, -24(%rbp)
	movq	-24(%rbp), %rax
	movq	-24(%rbp), %rdx
	movq	%rdx, 16(%rax)
	movq	-24(%rbp), %rax
	movq	-24(%rbp), %rdx
	movq	%rdx, (%rax)
	movq	-24(%rbp), %rax
	movq	%rax, _TIG_iO_GVnC_1_struct_display_1_opaque_list_1(%rip)
	call	rand@PLT
	movl	%eax, -32(%rbp)
	movl	$24, %edi
	call	malloc@PLT
	movq	%rax, -16(%rbp)
	movq	-16(%rbp), %rax
	movl	$0, 8(%rax)
	movq	_TIG_iO_GVnC_1_struct_display_1_opaque_list_1(%rip), %rax
	movq	16(%rax), %rdx
	movq	-16(%rbp), %rax
	movq	%rdx, 16(%rax)
	movq	_TIG_iO_GVnC_1_struct_display_1_opaque_list_1(%rip), %rdx
	movq	-16(%rbp), %rax
	movq	%rdx, (%rax)
	movq	_TIG_iO_GVnC_1_struct_display_1_opaque_list_1(%rip), %rax
	movq	16(%rax), %rax
	movq	-16(%rbp), %rdx
	movq	%rdx, (%rax)
	movq	_TIG_iO_GVnC_1_struct_display_1_opaque_list_1(%rip), %rax
	movq	-16(%rbp), %rdx
	movq	%rdx, 16(%rax)
	call	rand@PLT
	movl	%eax, -28(%rbp)
	movl	$24, %edi
	call	malloc@PLT
	movq	%rax, -8(%rbp)
	movq	-8(%rbp), %rax
	movl	-28(%rbp), %edx
	movl	%edx, 8(%rax)
	movq	_TIG_iO_GVnC_1_struct_display_1_opaque_list_1(%rip), %rax
	movq	16(%rax), %rdx
	movq	-8(%rbp), %rax
	movq	%rdx, 16(%rax)
	movq	_TIG_iO_GVnC_1_struct_display_1_opaque_list_1(%rip), %rdx
	movq	-8(%rbp), %rax
	movq	%rdx, (%rax)
	movq	_TIG_iO_GVnC_1_struct_display_1_opaque_list_1(%rip), %rax
	movq	16(%rax), %rax
	movq	-8(%rbp), %rdx
	movq	%rdx, (%rax)
	movq	_TIG_iO_GVnC_1_struct_display_1_opaque_list_1(%rip), %rax
	movq	-8(%rbp), %rdx
	movq	%rdx, 16(%rax)
	movq	_TIG_iO_GVnC_1_struct_display_1_opaque_list_1(%rip), %rax
	movq	16(%rax), %rax
	movq	%rax, _TIG_iO_GVnC_1_struct_display_1_opaque_ptr_1(%rip)
	movq	_TIG_iO_GVnC_1_struct_display_1_opaque_ptr_1(%rip), %rax
	movq	%rax, _TIG_iO_GVnC_1_struct_display_1_opaque_ptr_2(%rip)
	nop
	nop
	movss	40(%rbp), %xmm0
	pxor	%xmm1, %xmm1
	cvtss2sd	%xmm0, %xmm1
	movq	%xmm1, %rcx
	movl	16(%rbp), %eax
	leaq	20(%rbp), %rdx
	movq	%rcx, %xmm0
	movl	%eax, %esi
	leaq	.LC36(%rip), %rax
	movq	%rax, %rdi
	movl	$1, %eax
	call	printf@PLT
	movq	_TIG_iO_GVnC_1_swap_1_opaque_ptr_1(%rip), %rdx
	movq	_TIG_iO_GVnC_1_swap_1_opaque_ptr_2(%rip), %rax
	cmpq	%rax, %rdx
	leave
	.cfi_def_cfa 7, 8
	ret
	.cfi_endproc
.LFE14:
	.size	struct_display, .-struct_display
	.globl	sort
	.type	sort, @function
sort:
.LFB15:
	.cfi_startproc
	endbr64
	pushq	%rbp
	.cfi_def_cfa_offset 16
	.cfi_offset 6, -16
	movq	%rsp, %rbp
	.cfi_def_cfa_register 6
	subq	$96, %rsp
	movq	%rdi, -88(%rbp)
#APP
# 128 "Surajwaghmare35_C-Lang_Notes.c" 1
	##_ANNOTATION_INITIALREGION_-TIG-iO-GVnC-1-sort--30
# 0 "" 2
# 132 "Surajwaghmare35_C-Lang_Notes.c" 1
	##_ANNOTATION_ATOMICREGION_-TIG-iO-GVnC-1-sort--29
# 0 "" 2
#NO_APP
	movl	$24, %edi
	call	malloc@PLT
	movq	%rax, -40(%rbp)
	movq	-40(%rbp), %rax
	movq	-40(%rbp), %rdx
	movq	%rdx, 8(%rax)
	movq	-40(%rbp), %rax
	movq	-40(%rbp), %rdx
	movq	%rdx, (%rax)
	movq	-40(%rbp), %rax
	movq	%rax, _TIG_iO_GVnC_1_sort_1_opaque_list_1(%rip)
	call	rand@PLT
	movl	%eax, -60(%rbp)
	movl	$24, %edi
	call	malloc@PLT
	movq	%rax, -32(%rbp)
	movq	-32(%rbp), %rax
	movl	$0, 16(%rax)
	movq	_TIG_iO_GVnC_1_sort_1_opaque_list_1(%rip), %rax
	movq	8(%rax), %rdx
	movq	-32(%rbp), %rax
	movq	%rdx, 8(%rax)
	movq	_TIG_iO_GVnC_1_sort_1_opaque_list_1(%rip), %rdx
	movq	-32(%rbp), %rax
	movq	%rdx, (%rax)
	movq	_TIG_iO_GVnC_1_sort_1_opaque_list_1(%rip), %rax
	movq	8(%rax), %rax
	movq	-32(%rbp), %rdx
	movq	%rdx, (%rax)
	movq	_TIG_iO_GVnC_1_sort_1_opaque_list_1(%rip), %rax
	movq	-32(%rbp), %rdx
	movq	%rdx, 8(%rax)
	call	rand@PLT
	movl	%eax, -56(%rbp)
	movl	$24, %edi
	call	malloc@PLT
	movq	%rax, -24(%rbp)
	movq	-24(%rbp), %rax
	movl	-56(%rbp), %edx
	movl	%edx, 16(%rax)
	movq	_TIG_iO_GVnC_1_sort_1_opaque_list_1(%rip), %rax
	movq	8(%rax), %rdx
	movq	-24(%rbp), %rax
	movq	%rdx, 8(%rax)
	movq	_TIG_iO_GVnC_1_sort_1_opaque_list_1(%rip), %rdx
	movq	-24(%rbp), %rax
	movq	%rdx, (%rax)
	movq	_TIG_iO_GVnC_1_sort_1_opaque_list_1(%rip), %rax
	movq	8(%rax), %rax
	movq	-24(%rbp), %rdx
	movq	%rdx, (%rax)
	movq	_TIG_iO_GVnC_1_sort_1_opaque_list_1(%rip), %rax
	movq	-24(%rbp), %rdx
	movq	%rdx, 8(%rax)
	call	rand@PLT
	movl	%eax, -52(%rbp)
	movl	$24, %edi
	call	malloc@PLT
	movq	%rax, -16(%rbp)
	movl	-52(%rbp), %eax
	leal	(%rax,%rax), %edx
	movq	-16(%rbp), %rax
	movl	%edx, 16(%rax)
	movq	_TIG_iO_GVnC_1_sort_1_opaque_list_1(%rip), %rax
	movq	8(%rax), %rdx
	movq	-16(%rbp), %rax
	movq	%rdx, 8(%rax)
	movq	_TIG_iO_GVnC_1_sort_1_opaque_list_1(%rip), %rdx
	movq	-16(%rbp), %rax
	movq	%rdx, (%rax)
	movq	_TIG_iO_GVnC_1_sort_1_opaque_list_1(%rip), %rax
	movq	8(%rax), %rax
	movq	-16(%rbp), %rdx
	movq	%rdx, (%rax)
	movq	_TIG_iO_GVnC_1_sort_1_opaque_list_1(%rip), %rax
	movq	-16(%rbp), %rdx
	movq	%rdx, 8(%rax)
	call	rand@PLT
	movl	%eax, -48(%rbp)
	movl	$24, %edi
	call	malloc@PLT
	movq	%rax, -8(%rbp)
	movl	-48(%rbp), %edx
	movl	%edx, %eax
	addl	%eax, %eax
	addl	%eax, %edx
	movq	-8(%rbp), %rax
	movl	%edx, 16(%rax)
	movq	_TIG_iO_GVnC_1_sort_1_opaque_list_1(%rip), %rax
	movq	8(%rax), %rdx
	movq	-8(%rbp), %rax
	movq	%rdx, 8(%rax)
	movq	_TIG_iO_GVnC_1_sort_1_opaque_list_1(%rip), %rdx
	movq	-8(%rbp), %rax
	movq	%rdx, (%rax)
	movq	_TIG_iO_GVnC_1_sort_1_opaque_list_1(%rip), %rax
	movq	8(%rax), %rax
	movq	-8(%rbp), %rdx
	movq	%rdx, (%rax)
	movq	_TIG_iO_GVnC_1_sort_1_opaque_list_1(%rip), %rax
	movq	-8(%rbp), %rdx
	movq	%rdx, 8(%rax)
	movq	_TIG_iO_GVnC_1_sort_1_opaque_list_1(%rip), %rax
	movq	8(%rax), %rax
	movq	%rax, _TIG_iO_GVnC_1_sort_1_opaque_ptr_1(%rip)
	movq	_TIG_iO_GVnC_1_sort_1_opaque_ptr_1(%rip), %rax
	movq	%rax, _TIG_iO_GVnC_1_sort_1_opaque_ptr_2(%rip)
	movq	_TIG_iO_GVnC_1_sort_1_opaque_ptr_2(%rip), %rax
	movq	8(%rax), %rax
	movq	%rax, _TIG_iO_GVnC_1_sort_1_opaque_ptr_2(%rip)
	nop
	nop
	movl	$1, -68(%rbp)
	jmp	.L97
.L102:
	movl	$0, -64(%rbp)
	jmp	.L98
.L100:
	movl	-64(%rbp), %eax
	cltq
	leaq	0(,%rax,4), %rdx
	movq	-88(%rbp), %rax
	addq	%rdx, %rax
	movl	(%rax), %edx
	movl	-64(%rbp), %eax
	cltq
	addq	$1, %rax
	leaq	0(,%rax,4), %rcx
	movq	-88(%rbp), %rax
	addq	%rcx, %rax
	movl	(%rax), %eax
	cmpl	%eax, %edx
	jle	.L99
	movl	-64(%rbp), %eax
	cltq
	leaq	0(,%rax,4), %rdx
	movq	-88(%rbp), %rax
	addq	%rdx, %rax
	movl	(%rax), %eax
	movl	%eax, -44(%rbp)
	movl	-64(%rbp), %eax
	cltq
	addq	$1, %rax
	leaq	0(,%rax,4), %rdx
	movq	-88(%rbp), %rax
	addq	%rdx, %rax
	movl	-64(%rbp), %edx
	movslq	%edx, %rdx
	leaq	0(,%rdx,4), %rcx
	movq	-88(%rbp), %rdx
	addq	%rcx, %rdx
	movl	(%rax), %eax
	movl	%eax, (%rdx)
	movl	-64(%rbp), %eax
	cltq
	addq	$1, %rax
	leaq	0(,%rax,4), %rdx
	movq	-88(%rbp), %rax
	addq	%rax, %rdx
	movl	-44(%rbp), %eax
	movl	%eax, (%rdx)
.L99:
	addl	$1, -64(%rbp)
.L98:
	cmpl	$3, -64(%rbp)
	jle	.L100
	movq	_TIG_iO_GVnC_1_swap_1_opaque_ptr_1(%rip), %rdx
	movq	_TIG_iO_GVnC_1_swap_1_opaque_ptr_2(%rip), %rax
	cmpq	%rax, %rdx
	jne	.L101
	addl	$1, -68(%rbp)
	jmp	.L97
.L101:
#APP
# 461 "Surajwaghmare35_C-Lang_Notes.c" 1
	.byte 0x8d,0x35,0x8c,0x35
# 0 "" 2
#NO_APP
.L97:
	cmpl	$4, -68(%rbp)
	jle	.L102
	nop
	leave
	.cfi_def_cfa 7, 8
	ret
	.cfi_endproc
.LFE15:
	.size	sort, .-sort
	.globl	add
	.type	add, @function
add:
.LFB16:
	.cfi_startproc
	endbr64
	pushq	%rbp
	.cfi_def_cfa_offset 16
	.cfi_offset 6, -16
	movq	%rsp, %rbp
	.cfi_def_cfa_register 6
	pushq	%rbx
	subq	$104, %rsp
	.cfi_offset 3, -24
	movl	%edi, -100(%rbp)
	movl	%esi, -104(%rbp)
	movq	%fs:40, %rax
	movq	%rax, -24(%rbp)
	xorl	%eax, %eax
#APP
# 486 "Surajwaghmare35_C-Lang_Notes.c" 1
	##_ANNOTATION_INITIALREGION_-TIG-iO-GVnC-1-add--16
# 0 "" 2
# 490 "Surajwaghmare35_C-Lang_Notes.c" 1
	##_ANNOTATION_ATOMICREGION_-TIG-iO-GVnC-1-add--15
# 0 "" 2
#NO_APP
	movl	$24, %edi
	call	malloc@PLT
	movq	%rax, -88(%rbp)
	movq	-88(%rbp), %rax
	movq	-88(%rbp), %rdx
	movq	%rdx, 16(%rax)
	movq	-88(%rbp), %rax
	movq	-88(%rbp), %rdx
	movq	%rdx, 8(%rax)
	movq	-88(%rbp), %rax
	movq	%rax, _TIG_iO_GVnC_1_add_1_opaque_list_1(%rip)
	call	rand@PLT
	movl	%eax, -96(%rbp)
	movl	$24, %edi
	call	malloc@PLT
	movq	%rax, -80(%rbp)
	movq	-80(%rbp), %rax
	movl	$0, (%rax)
	movq	_TIG_iO_GVnC_1_add_1_opaque_list_1(%rip), %rax
	movq	16(%rax), %rdx
	movq	-80(%rbp), %rax
	movq	%rdx, 16(%rax)
	movq	_TIG_iO_GVnC_1_add_1_opaque_list_1(%rip), %rdx
	movq	-80(%rbp), %rax
	movq	%rdx, 8(%rax)
	movq	_TIG_iO_GVnC_1_add_1_opaque_list_1(%rip), %rax
	movq	16(%rax), %rax
	movq	-80(%rbp), %rdx
	movq	%rdx, 8(%rax)
	movq	_TIG_iO_GVnC_1_add_1_opaque_list_1(%rip), %rax
	movq	-80(%rbp), %rdx
	movq	%rdx, 16(%rax)
	call	rand@PLT
	movl	%eax, -92(%rbp)
	movl	$24, %edi
	call	malloc@PLT
	movq	%rax, -72(%rbp)
	movq	-72(%rbp), %rax
	movl	-92(%rbp), %edx
	movl	%edx, (%rax)
	movq	_TIG_iO_GVnC_1_add_1_opaque_list_1(%rip), %rax
	movq	16(%rax), %rdx
	movq	-72(%rbp), %rax
	movq	%rdx, 16(%rax)
	movq	_TIG_iO_GVnC_1_add_1_opaque_list_1(%rip), %rdx
	movq	-72(%rbp), %rax
	movq	%rdx, 8(%rax)
	movq	_TIG_iO_GVnC_1_add_1_opaque_list_1(%rip), %rax
	movq	16(%rax), %rax
	movq	-72(%rbp), %rdx
	movq	%rdx, 8(%rax)
	movq	_TIG_iO_GVnC_1_add_1_opaque_list_1(%rip), %rax
	movq	-72(%rbp), %rdx
	movq	%rdx, 16(%rax)
	movq	_TIG_iO_GVnC_1_add_1_opaque_list_1(%rip), %rax
	movq	16(%rax), %rax
	movq	%rax, _TIG_iO_GVnC_1_add_1_opaque_ptr_1(%rip)
	movq	_TIG_iO_GVnC_1_add_1_opaque_ptr_1(%rip), %rax
	movq	%rax, _TIG_iO_GVnC_1_add_1_opaque_ptr_2(%rip)
	nop
	nop
	movq	_TIG_iO_GVnC_1_swap_1_opaque_ptr_1(%rip), %rdx
	movq	_TIG_iO_GVnC_1_swap_1_opaque_ptr_2(%rip), %rax
	cmpq	%rax, %rdx
	je	.L105
	subq	$32, %rsp
	movq	%rsp, %rax
	movq	-64(%rbp), %rcx
	movq	-56(%rbp), %rbx
	movq	%rcx, (%rax)
	movq	%rbx, 8(%rax)
	movq	-48(%rbp), %rdx
	movq	%rdx, 16(%rax)
	movl	-40(%rbp), %edx
	movl	%edx, 24(%rax)
	call	struct_display
	addq	$32, %rsp
.L105:
	movl	-100(%rbp), %edx
	movl	-104(%rbp), %eax
	addl	%edx, %eax
	movq	-24(%rbp), %rdx
	subq	%fs:40, %rdx
	je	.L107
	call	__stack_chk_fail@PLT
.L107:
	movq	-8(%rbp), %rbx
	leave
	.cfi_def_cfa 7, 8
	ret
	.cfi_endproc
.LFE16:
	.size	add, .-add
	.section	.rodata
	.align 8
.LC22:
	.long	0
	.long	1076101120
	.ident	"GCC: (Ubuntu 11.4.0-1ubuntu1~22.04) 11.4.0"
	.section	.note.GNU-stack,"",@progbits
	.section	.note.gnu.property,"a"
	.align 8
	.long	1f - 0f
	.long	4f - 1f
	.long	5
0:
	.string	"GNU"
1:
	.align 8
	.long	0xc0000002
	.long	3f - 2f
2:
	.long	0x3
3:
	.align 8
4:
