	.file	"TheProjecter_qvm_q_opaque.c"
	.text
	.globl	_TIG_iO_xHZ6_1___bswap_64_1_opaque_list_2
	.bss
	.align 8
	.type	_TIG_iO_xHZ6_1___bswap_64_1_opaque_list_2, @object
	.size	_TIG_iO_xHZ6_1___bswap_64_1_opaque_list_2, 8
_TIG_iO_xHZ6_1___bswap_64_1_opaque_list_2:
	.zero	8
	.globl	_TIG_iO_xHZ6_1_tokenize_1_opaque_list_1
	.align 8
	.type	_TIG_iO_xHZ6_1_tokenize_1_opaque_list_1, @object
	.size	_TIG_iO_xHZ6_1_tokenize_1_opaque_list_1, 8
_TIG_iO_xHZ6_1_tokenize_1_opaque_list_1:
	.zero	8
	.globl	_TIG_iO_xHZ6_1___uint64_identity_1_opaque_ptr_2
	.align 8
	.type	_TIG_iO_xHZ6_1___uint64_identity_1_opaque_ptr_2, @object
	.size	_TIG_iO_xHZ6_1___uint64_identity_1_opaque_ptr_2, 8
_TIG_iO_xHZ6_1___uint64_identity_1_opaque_ptr_2:
	.zero	8
	.globl	_TIG_iO_xHZ6_1_is_leftmost_1_opaque_list_1
	.align 8
	.type	_TIG_iO_xHZ6_1_is_leftmost_1_opaque_list_1, @object
	.size	_TIG_iO_xHZ6_1_is_leftmost_1_opaque_list_1, 8
_TIG_iO_xHZ6_1_is_leftmost_1_opaque_list_1:
	.zero	8
	.globl	_TIG_iO_xHZ6_1_calc_number_of_params_1_opaque_ptr_1
	.align 8
	.type	_TIG_iO_xHZ6_1_calc_number_of_params_1_opaque_ptr_1, @object
	.size	_TIG_iO_xHZ6_1_calc_number_of_params_1_opaque_ptr_1, 8
_TIG_iO_xHZ6_1_calc_number_of_params_1_opaque_ptr_1:
	.zero	8
	.globl	_TIG_iO_xHZ6_1_emit_hash_definition_1_opaque_list_2
	.align 8
	.type	_TIG_iO_xHZ6_1_emit_hash_definition_1_opaque_list_2, @object
	.size	_TIG_iO_xHZ6_1_emit_hash_definition_1_opaque_list_2, 8
_TIG_iO_xHZ6_1_emit_hash_definition_1_opaque_list_2:
	.zero	8
	.globl	_TIG_iO_xHZ6_1_q_exec_string_1_opaque_list_2
	.align 8
	.type	_TIG_iO_xHZ6_1_q_exec_string_1_opaque_list_2, @object
	.size	_TIG_iO_xHZ6_1_q_exec_string_1_opaque_list_2, 8
_TIG_iO_xHZ6_1_q_exec_string_1_opaque_list_2:
	.zero	8
	.globl	_TIG_iO_xHZ6_1_hash_str_1_opaque_list_1
	.align 8
	.type	_TIG_iO_xHZ6_1_hash_str_1_opaque_list_1, @object
	.size	_TIG_iO_xHZ6_1_hash_str_1_opaque_list_1, 8
_TIG_iO_xHZ6_1_hash_str_1_opaque_list_1:
	.zero	8
	.globl	_TIG_iO_xHZ6_1_tokenize_1_opaque_ptr_2
	.align 8
	.type	_TIG_iO_xHZ6_1_tokenize_1_opaque_ptr_2, @object
	.size	_TIG_iO_xHZ6_1_tokenize_1_opaque_ptr_2, 8
_TIG_iO_xHZ6_1_tokenize_1_opaque_ptr_2:
	.zero	8
	.globl	_TIG_iO_xHZ6_1_is_lvalue_1_opaque_ptr_2
	.align 8
	.type	_TIG_iO_xHZ6_1_is_lvalue_1_opaque_ptr_2, @object
	.size	_TIG_iO_xHZ6_1_is_lvalue_1_opaque_ptr_2, 8
_TIG_iO_xHZ6_1_is_lvalue_1_opaque_ptr_2:
	.zero	8
	.globl	_TIG_iO_xHZ6_1_hex_ascii_to_int_1_opaque_ptr_2
	.align 8
	.type	_TIG_iO_xHZ6_1_hex_ascii_to_int_1_opaque_ptr_2, @object
	.size	_TIG_iO_xHZ6_1_hex_ascii_to_int_1_opaque_ptr_2, 8
_TIG_iO_xHZ6_1_hex_ascii_to_int_1_opaque_ptr_2:
	.zero	8
	.globl	_TIG_iO_xHZ6_1_setattr_1_opaque_list_1
	.align 8
	.type	_TIG_iO_xHZ6_1_setattr_1_opaque_list_1, @object
	.size	_TIG_iO_xHZ6_1_setattr_1_opaque_list_1, 8
_TIG_iO_xHZ6_1_setattr_1_opaque_list_1:
	.zero	8
	.globl	_TIG_iO_xHZ6_1_calc_number_of_params_1_opaque_list_1
	.align 8
	.type	_TIG_iO_xHZ6_1_calc_number_of_params_1_opaque_list_1, @object
	.size	_TIG_iO_xHZ6_1_calc_number_of_params_1_opaque_list_1, 8
_TIG_iO_xHZ6_1_calc_number_of_params_1_opaque_list_1:
	.zero	8
	.globl	_TIG_iO_xHZ6_1___bswap_64_1_opaque_ptr_1
	.align 8
	.type	_TIG_iO_xHZ6_1___bswap_64_1_opaque_ptr_1, @object
	.size	_TIG_iO_xHZ6_1___bswap_64_1_opaque_ptr_1, 8
_TIG_iO_xHZ6_1___bswap_64_1_opaque_ptr_1:
	.zero	8
	.globl	_TIG_iO_xHZ6_1_init_op_tab_1_opaque_list_1
	.align 8
	.type	_TIG_iO_xHZ6_1_init_op_tab_1_opaque_list_1, @object
	.size	_TIG_iO_xHZ6_1_init_op_tab_1_opaque_list_1, 8
_TIG_iO_xHZ6_1_init_op_tab_1_opaque_list_1:
	.zero	8
	.globl	_TIG_iO_xHZ6_1_expand_code_1_opaque_ptr_1
	.align 8
	.type	_TIG_iO_xHZ6_1_expand_code_1_opaque_ptr_1, @object
	.size	_TIG_iO_xHZ6_1_expand_code_1_opaque_ptr_1, 8
_TIG_iO_xHZ6_1_expand_code_1_opaque_ptr_1:
	.zero	8
	.globl	_TIG_iO_xHZ6_1_expand_code_1_opaque_ptr_2
	.align 8
	.type	_TIG_iO_xHZ6_1_expand_code_1_opaque_ptr_2, @object
	.size	_TIG_iO_xHZ6_1_expand_code_1_opaque_ptr_2, 8
_TIG_iO_xHZ6_1_expand_code_1_opaque_ptr_2:
	.zero	8
	.globl	_TIG_iO_xHZ6_1_hex_ascii_to_int_1_opaque_list_2
	.align 8
	.type	_TIG_iO_xHZ6_1_hex_ascii_to_int_1_opaque_list_2, @object
	.size	_TIG_iO_xHZ6_1_hex_ascii_to_int_1_opaque_list_2, 8
_TIG_iO_xHZ6_1_hex_ascii_to_int_1_opaque_list_2:
	.zero	8
	.globl	_TIG_iO_xHZ6_1_match_long_token_1_opaque_list_1
	.align 8
	.type	_TIG_iO_xHZ6_1_match_long_token_1_opaque_list_1, @object
	.size	_TIG_iO_xHZ6_1_match_long_token_1_opaque_list_1, 8
_TIG_iO_xHZ6_1_match_long_token_1_opaque_list_1:
	.zero	8
	.globl	_TIG_iO_xHZ6_1_emit_ident_1_opaque_list_2
	.align 8
	.type	_TIG_iO_xHZ6_1_emit_ident_1_opaque_list_2, @object
	.size	_TIG_iO_xHZ6_1_emit_ident_1_opaque_list_2, 8
_TIG_iO_xHZ6_1_emit_ident_1_opaque_list_2:
	.zero	8
	.globl	_TIG_iO_xHZ6_1_emit_function_call_1_opaque_list_2
	.align 8
	.type	_TIG_iO_xHZ6_1_emit_function_call_1_opaque_list_2, @object
	.size	_TIG_iO_xHZ6_1_emit_function_call_1_opaque_list_2, 8
_TIG_iO_xHZ6_1_emit_function_call_1_opaque_list_2:
	.zero	8
	.globl	_TIG_iO_xHZ6_1_bubble_sort_ops_by_priority_1_opaque_list_2
	.align 8
	.type	_TIG_iO_xHZ6_1_bubble_sort_ops_by_priority_1_opaque_list_2, @object
	.size	_TIG_iO_xHZ6_1_bubble_sort_ops_by_priority_1_opaque_list_2, 8
_TIG_iO_xHZ6_1_bubble_sort_ops_by_priority_1_opaque_list_2:
	.zero	8
	.globl	_TIG_iO_xHZ6_1_disasm_1_opaque_ptr_1
	.align 8
	.type	_TIG_iO_xHZ6_1_disasm_1_opaque_ptr_1, @object
	.size	_TIG_iO_xHZ6_1_disasm_1_opaque_ptr_1, 8
_TIG_iO_xHZ6_1_disasm_1_opaque_ptr_1:
	.zero	8
	.globl	_TIG_iO_xHZ6_1_init_op_tab_1_opaque_ptr_1
	.align 8
	.type	_TIG_iO_xHZ6_1_init_op_tab_1_opaque_ptr_1, @object
	.size	_TIG_iO_xHZ6_1_init_op_tab_1_opaque_ptr_1, 8
_TIG_iO_xHZ6_1_init_op_tab_1_opaque_ptr_1:
	.zero	8
	.globl	_TIG_iO_xHZ6_1___bswap_16_1_opaque_list_2
	.align 8
	.type	_TIG_iO_xHZ6_1___bswap_16_1_opaque_list_2, @object
	.size	_TIG_iO_xHZ6_1___bswap_16_1_opaque_list_2, 8
_TIG_iO_xHZ6_1___bswap_16_1_opaque_list_2:
	.zero	8
	.globl	_TIG_iO_xHZ6_1_cmp_vec_1_opaque_list_1
	.align 8
	.type	_TIG_iO_xHZ6_1_cmp_vec_1_opaque_list_1, @object
	.size	_TIG_iO_xHZ6_1_cmp_vec_1_opaque_list_1, 8
_TIG_iO_xHZ6_1_cmp_vec_1_opaque_list_1:
	.zero	8
	.globl	_TIG_iO_xHZ6_1_emit_1_opaque_list_1
	.align 8
	.type	_TIG_iO_xHZ6_1_emit_1_opaque_list_1, @object
	.size	_TIG_iO_xHZ6_1_emit_1_opaque_list_1, 8
_TIG_iO_xHZ6_1_emit_1_opaque_list_1:
	.zero	8
	.globl	_TIG_iO_xHZ6_1___uint64_identity_1_opaque_ptr_1
	.align 8
	.type	_TIG_iO_xHZ6_1___uint64_identity_1_opaque_ptr_1, @object
	.size	_TIG_iO_xHZ6_1___uint64_identity_1_opaque_ptr_1, 8
_TIG_iO_xHZ6_1___uint64_identity_1_opaque_ptr_1:
	.zero	8
	.globl	_TIG_iO_xHZ6_1___bswap_64_1_opaque_ptr_2
	.align 8
	.type	_TIG_iO_xHZ6_1___bswap_64_1_opaque_ptr_2, @object
	.size	_TIG_iO_xHZ6_1___bswap_64_1_opaque_ptr_2, 8
_TIG_iO_xHZ6_1___bswap_64_1_opaque_ptr_2:
	.zero	8
	.globl	_TIG_iO_xHZ6_1_emit_ident_1_opaque_ptr_1
	.align 8
	.type	_TIG_iO_xHZ6_1_emit_ident_1_opaque_ptr_1, @object
	.size	_TIG_iO_xHZ6_1_emit_ident_1_opaque_ptr_1, 8
_TIG_iO_xHZ6_1_emit_ident_1_opaque_ptr_1:
	.zero	8
	.globl	_TIG_iO_xHZ6_1_execute_1_opaque_list_2
	.align 8
	.type	_TIG_iO_xHZ6_1_execute_1_opaque_list_2, @object
	.size	_TIG_iO_xHZ6_1_execute_1_opaque_list_2, 8
_TIG_iO_xHZ6_1_execute_1_opaque_list_2:
	.zero	8
	.globl	_TIG_iO_xHZ6_1___uint64_identity_1_opaque_list_1
	.align 8
	.type	_TIG_iO_xHZ6_1___uint64_identity_1_opaque_list_1, @object
	.size	_TIG_iO_xHZ6_1___uint64_identity_1_opaque_list_1, 8
_TIG_iO_xHZ6_1___uint64_identity_1_opaque_list_1:
	.zero	8
	.globl	_TIG_iO_xHZ6_1_lookup_rec_1_opaque_list_2
	.align 8
	.type	_TIG_iO_xHZ6_1_lookup_rec_1_opaque_list_2, @object
	.size	_TIG_iO_xHZ6_1_lookup_rec_1_opaque_list_2, 8
_TIG_iO_xHZ6_1_lookup_rec_1_opaque_list_2:
	.zero	8
	.globl	_TIG_iO_xHZ6_1___uint16_identity_1_opaque_list_2
	.align 8
	.type	_TIG_iO_xHZ6_1___uint16_identity_1_opaque_list_2, @object
	.size	_TIG_iO_xHZ6_1___uint16_identity_1_opaque_list_2, 8
_TIG_iO_xHZ6_1___uint16_identity_1_opaque_list_2:
	.zero	8
	.globl	_TIG_iO_xHZ6_1_cmp_1_opaque_list_2
	.align 8
	.type	_TIG_iO_xHZ6_1_cmp_1_opaque_list_2, @object
	.size	_TIG_iO_xHZ6_1_cmp_1_opaque_list_2, 8
_TIG_iO_xHZ6_1_cmp_1_opaque_list_2:
	.zero	8
	.globl	_TIG_iO_xHZ6_1_nargs_1_opaque_list_2
	.align 8
	.type	_TIG_iO_xHZ6_1_nargs_1_opaque_list_2, @object
	.size	_TIG_iO_xHZ6_1_nargs_1_opaque_list_2, 8
_TIG_iO_xHZ6_1_nargs_1_opaque_list_2:
	.zero	8
	.globl	_TIG_iO_xHZ6_1___bswap_64_1_opaque_list_1
	.align 8
	.type	_TIG_iO_xHZ6_1___bswap_64_1_opaque_list_1, @object
	.size	_TIG_iO_xHZ6_1___bswap_64_1_opaque_list_1, 8
_TIG_iO_xHZ6_1___bswap_64_1_opaque_list_1:
	.zero	8
	.globl	_TIG_iO_xHZ6_1_disasm_1_opaque_list_2
	.align 8
	.type	_TIG_iO_xHZ6_1_disasm_1_opaque_list_2, @object
	.size	_TIG_iO_xHZ6_1_disasm_1_opaque_list_2, 8
_TIG_iO_xHZ6_1_disasm_1_opaque_list_2:
	.zero	8
	.globl	_TIG_iO_xHZ6_1_q_save_1_opaque_list_2
	.align 8
	.type	_TIG_iO_xHZ6_1_q_save_1_opaque_list_2, @object
	.size	_TIG_iO_xHZ6_1_q_save_1_opaque_list_2, 8
_TIG_iO_xHZ6_1_q_save_1_opaque_list_2:
	.zero	8
	.globl	_TIG_iO_xHZ6_1_q_exec_string_1_opaque_ptr_1
	.align 8
	.type	_TIG_iO_xHZ6_1_q_exec_string_1_opaque_ptr_1, @object
	.size	_TIG_iO_xHZ6_1_q_exec_string_1_opaque_ptr_1, 8
_TIG_iO_xHZ6_1_q_exec_string_1_opaque_ptr_1:
	.zero	8
	.local	types
	.comm	types,48,32
	.globl	_TIG_iO_xHZ6_1_pop_1_opaque_list_2
	.align 8
	.type	_TIG_iO_xHZ6_1_pop_1_opaque_list_2, @object
	.size	_TIG_iO_xHZ6_1_pop_1_opaque_list_2, 8
_TIG_iO_xHZ6_1_pop_1_opaque_list_2:
	.zero	8
	.globl	_TIG_iO_xHZ6_1___bswap_32_1_opaque_ptr_2
	.align 8
	.type	_TIG_iO_xHZ6_1___bswap_32_1_opaque_ptr_2, @object
	.size	_TIG_iO_xHZ6_1___bswap_32_1_opaque_ptr_2, 8
_TIG_iO_xHZ6_1___bswap_32_1_opaque_ptr_2:
	.zero	8
	.globl	_TIG_iO_xHZ6_1_lookup_rec_1_opaque_ptr_2
	.align 8
	.type	_TIG_iO_xHZ6_1_lookup_rec_1_opaque_ptr_2, @object
	.size	_TIG_iO_xHZ6_1_lookup_rec_1_opaque_ptr_2, 8
_TIG_iO_xHZ6_1_lookup_rec_1_opaque_ptr_2:
	.zero	8
	.globl	_TIG_iO_xHZ6_1_emit_function_call_1_opaque_list_1
	.align 8
	.type	_TIG_iO_xHZ6_1_emit_function_call_1_opaque_list_1, @object
	.size	_TIG_iO_xHZ6_1_emit_function_call_1_opaque_list_1, 8
_TIG_iO_xHZ6_1_emit_function_call_1_opaque_list_1:
	.zero	8
	.globl	_TIG_iO_xHZ6_1___bswap_32_1_opaque_list_1
	.align 8
	.type	_TIG_iO_xHZ6_1___bswap_32_1_opaque_list_1, @object
	.size	_TIG_iO_xHZ6_1___bswap_32_1_opaque_list_1, 8
_TIG_iO_xHZ6_1___bswap_32_1_opaque_list_1:
	.zero	8
	.globl	_TIG_iO_xHZ6_1_expr_1_opaque_list_1
	.align 8
	.type	_TIG_iO_xHZ6_1_expr_1_opaque_list_1, @object
	.size	_TIG_iO_xHZ6_1_expr_1_opaque_list_1, 8
_TIG_iO_xHZ6_1_expr_1_opaque_list_1:
	.zero	8
	.globl	_TIG_iO_xHZ6_1_cmp_1_opaque_list_1
	.align 8
	.type	_TIG_iO_xHZ6_1_cmp_1_opaque_list_1, @object
	.size	_TIG_iO_xHZ6_1_cmp_1_opaque_list_1, 8
_TIG_iO_xHZ6_1_cmp_1_opaque_list_1:
	.zero	8
	.globl	_TIG_iO_xHZ6_1_calc_number_of_params_1_opaque_ptr_2
	.align 8
	.type	_TIG_iO_xHZ6_1_calc_number_of_params_1_opaque_ptr_2, @object
	.size	_TIG_iO_xHZ6_1_calc_number_of_params_1_opaque_ptr_2, 8
_TIG_iO_xHZ6_1_calc_number_of_params_1_opaque_ptr_2:
	.zero	8
	.globl	_TIG_iO_xHZ6_1_lookup_1_opaque_ptr_1
	.align 8
	.type	_TIG_iO_xHZ6_1_lookup_1_opaque_ptr_1, @object
	.size	_TIG_iO_xHZ6_1_lookup_1_opaque_ptr_1, 8
_TIG_iO_xHZ6_1_lookup_1_opaque_ptr_1:
	.zero	8
	.globl	_TIG_iO_xHZ6_1_set_op_attributes_1_opaque_list_1
	.align 8
	.type	_TIG_iO_xHZ6_1_set_op_attributes_1_opaque_list_1, @object
	.size	_TIG_iO_xHZ6_1_set_op_attributes_1_opaque_list_1, 8
_TIG_iO_xHZ6_1_set_op_attributes_1_opaque_list_1:
	.zero	8
	.globl	_TIG_iO_xHZ6_1_init_hash_obj_1_opaque_list_2
	.align 8
	.type	_TIG_iO_xHZ6_1_init_hash_obj_1_opaque_list_2, @object
	.size	_TIG_iO_xHZ6_1_init_hash_obj_1_opaque_list_2, 8
_TIG_iO_xHZ6_1_init_hash_obj_1_opaque_list_2:
	.zero	8
	.globl	_TIG_iO_xHZ6_1_bubble_sort_ops_by_priority_1_opaque_list_1
	.align 8
	.type	_TIG_iO_xHZ6_1_bubble_sort_ops_by_priority_1_opaque_list_1, @object
	.size	_TIG_iO_xHZ6_1_bubble_sort_ops_by_priority_1_opaque_list_1, 8
_TIG_iO_xHZ6_1_bubble_sort_ops_by_priority_1_opaque_list_1:
	.zero	8
	.globl	_TIG_iO_xHZ6_1_is_lvalue_1_opaque_ptr_1
	.align 8
	.type	_TIG_iO_xHZ6_1_is_lvalue_1_opaque_ptr_1, @object
	.size	_TIG_iO_xHZ6_1_is_lvalue_1_opaque_ptr_1, 8
_TIG_iO_xHZ6_1_is_lvalue_1_opaque_ptr_1:
	.zero	8
	.globl	_TIG_iO_xHZ6_1_init_hash_obj_1_opaque_list_1
	.align 8
	.type	_TIG_iO_xHZ6_1_init_hash_obj_1_opaque_list_1, @object
	.size	_TIG_iO_xHZ6_1_init_hash_obj_1_opaque_list_1, 8
_TIG_iO_xHZ6_1_init_hash_obj_1_opaque_list_1:
	.zero	8
	.globl	_TIG_iO_xHZ6_1_qaz_1_opaque_list_1
	.align 8
	.type	_TIG_iO_xHZ6_1_qaz_1_opaque_list_1, @object
	.size	_TIG_iO_xHZ6_1_qaz_1_opaque_list_1, 8
_TIG_iO_xHZ6_1_qaz_1_opaque_list_1:
	.zero	8
	.globl	_TIG_iO_xHZ6_1___bswap_32_1_opaque_ptr_1
	.align 8
	.type	_TIG_iO_xHZ6_1___bswap_32_1_opaque_ptr_1, @object
	.size	_TIG_iO_xHZ6_1___bswap_32_1_opaque_ptr_1, 8
_TIG_iO_xHZ6_1___bswap_32_1_opaque_ptr_1:
	.zero	8
	.globl	_TIG_iO_xHZ6_1_q_load_1_opaque_list_1
	.align 8
	.type	_TIG_iO_xHZ6_1_q_load_1_opaque_list_1, @object
	.size	_TIG_iO_xHZ6_1_q_load_1_opaque_list_1, 8
_TIG_iO_xHZ6_1_q_load_1_opaque_list_1:
	.zero	8
	.globl	_TIG_iO_xHZ6_1_print_1_opaque_list_2
	.align 8
	.type	_TIG_iO_xHZ6_1_print_1_opaque_list_2, @object
	.size	_TIG_iO_xHZ6_1_print_1_opaque_list_2, 8
_TIG_iO_xHZ6_1_print_1_opaque_list_2:
	.zero	8
	.globl	_TIG_iO_xHZ6_1_reduce_1_opaque_list_2
	.align 8
	.type	_TIG_iO_xHZ6_1_reduce_1_opaque_list_2, @object
	.size	_TIG_iO_xHZ6_1_reduce_1_opaque_list_2, 8
_TIG_iO_xHZ6_1_reduce_1_opaque_list_2:
	.zero	8
	.globl	_TIG_iO_xHZ6_1___uint16_identity_1_opaque_ptr_2
	.align 8
	.type	_TIG_iO_xHZ6_1___uint16_identity_1_opaque_ptr_2, @object
	.size	_TIG_iO_xHZ6_1___uint16_identity_1_opaque_ptr_2, 8
_TIG_iO_xHZ6_1___uint16_identity_1_opaque_ptr_2:
	.zero	8
	.globl	_TIG_iO_xHZ6_1_qaz_1_opaque_ptr_1
	.align 8
	.type	_TIG_iO_xHZ6_1_qaz_1_opaque_ptr_1, @object
	.size	_TIG_iO_xHZ6_1_qaz_1_opaque_ptr_1, 8
_TIG_iO_xHZ6_1_qaz_1_opaque_ptr_1:
	.zero	8
	.globl	_TIG_iO_xHZ6_1_is_rtl_1_opaque_ptr_2
	.align 8
	.type	_TIG_iO_xHZ6_1_is_rtl_1_opaque_ptr_2, @object
	.size	_TIG_iO_xHZ6_1_is_rtl_1_opaque_ptr_2, 8
_TIG_iO_xHZ6_1_is_rtl_1_opaque_ptr_2:
	.zero	8
	.globl	_TIG_iO_xHZ6_1_lookup_rec_1_opaque_ptr_1
	.align 8
	.type	_TIG_iO_xHZ6_1_lookup_rec_1_opaque_ptr_1, @object
	.size	_TIG_iO_xHZ6_1_lookup_rec_1_opaque_ptr_1, 8
_TIG_iO_xHZ6_1_lookup_rec_1_opaque_ptr_1:
	.zero	8
	.globl	_TIG_iO_xHZ6_1_gsi_1_opaque_list_2
	.align 8
	.type	_TIG_iO_xHZ6_1_gsi_1_opaque_list_2, @object
	.size	_TIG_iO_xHZ6_1_gsi_1_opaque_list_2, 8
_TIG_iO_xHZ6_1_gsi_1_opaque_list_2:
	.zero	8
	.globl	_TIG_iO_xHZ6_1_calc_hash_1_opaque_ptr_2
	.align 8
	.type	_TIG_iO_xHZ6_1_calc_hash_1_opaque_ptr_2, @object
	.size	_TIG_iO_xHZ6_1_calc_hash_1_opaque_ptr_2, 8
_TIG_iO_xHZ6_1_calc_hash_1_opaque_ptr_2:
	.zero	8
	.globl	_TIG_iO_xHZ6_1_q_exec_string_1_opaque_ptr_2
	.align 8
	.type	_TIG_iO_xHZ6_1_q_exec_string_1_opaque_ptr_2, @object
	.size	_TIG_iO_xHZ6_1_q_exec_string_1_opaque_ptr_2, 8
_TIG_iO_xHZ6_1_q_exec_string_1_opaque_ptr_2:
	.zero	8
	.globl	_TIG_iO_xHZ6_1_main_1_opaque_ptr_2
	.align 8
	.type	_TIG_iO_xHZ6_1_main_1_opaque_ptr_2, @object
	.size	_TIG_iO_xHZ6_1_main_1_opaque_ptr_2, 8
_TIG_iO_xHZ6_1_main_1_opaque_ptr_2:
	.zero	8
	.globl	_TIG_iO_xHZ6_1_bubble_sort_ops_by_priority_1_opaque_ptr_1
	.align 8
	.type	_TIG_iO_xHZ6_1_bubble_sort_ops_by_priority_1_opaque_ptr_1, @object
	.size	_TIG_iO_xHZ6_1_bubble_sort_ops_by_priority_1_opaque_ptr_1, 8
_TIG_iO_xHZ6_1_bubble_sort_ops_by_priority_1_opaque_ptr_1:
	.zero	8
	.globl	_TIG_iO_xHZ6_1_calc_hash_1_opaque_list_2
	.align 8
	.type	_TIG_iO_xHZ6_1_calc_hash_1_opaque_list_2, @object
	.size	_TIG_iO_xHZ6_1_calc_hash_1_opaque_list_2, 8
_TIG_iO_xHZ6_1_calc_hash_1_opaque_list_2:
	.zero	8
	.globl	_TIG_iO_xHZ6_1_is_lvalue_1_opaque_list_2
	.align 8
	.type	_TIG_iO_xHZ6_1_is_lvalue_1_opaque_list_2, @object
	.size	_TIG_iO_xHZ6_1_is_lvalue_1_opaque_list_2, 8
_TIG_iO_xHZ6_1_is_lvalue_1_opaque_list_2:
	.zero	8
	.globl	_TIG_iO_xHZ6_1_emit_expr_1_opaque_ptr_1
	.align 8
	.type	_TIG_iO_xHZ6_1_emit_expr_1_opaque_ptr_1, @object
	.size	_TIG_iO_xHZ6_1_emit_expr_1_opaque_ptr_1, 8
_TIG_iO_xHZ6_1_emit_expr_1_opaque_ptr_1:
	.zero	8
	.globl	_TIG_iO_xHZ6_1_import_builtin_objects_1_opaque_ptr_2
	.align 8
	.type	_TIG_iO_xHZ6_1_import_builtin_objects_1_opaque_ptr_2, @object
	.size	_TIG_iO_xHZ6_1_import_builtin_objects_1_opaque_ptr_2, 8
_TIG_iO_xHZ6_1_import_builtin_objects_1_opaque_ptr_2:
	.zero	8
	.local	serr
	.comm	serr,8,8
	.globl	_TIG_iO_xHZ6_1_is_leftmost_1_opaque_list_2
	.align 8
	.type	_TIG_iO_xHZ6_1_is_leftmost_1_opaque_list_2, @object
	.size	_TIG_iO_xHZ6_1_is_leftmost_1_opaque_list_2, 8
_TIG_iO_xHZ6_1_is_leftmost_1_opaque_list_2:
	.zero	8
	.globl	_TIG_iO_xHZ6_1_usage_1_opaque_list_1
	.align 8
	.type	_TIG_iO_xHZ6_1_usage_1_opaque_list_1, @object
	.size	_TIG_iO_xHZ6_1_usage_1_opaque_list_1, 8
_TIG_iO_xHZ6_1_usage_1_opaque_list_1:
	.zero	8
	.globl	_TIG_iO_xHZ6_1_q_free_1_opaque_ptr_2
	.align 8
	.type	_TIG_iO_xHZ6_1_q_free_1_opaque_ptr_2, @object
	.size	_TIG_iO_xHZ6_1_q_free_1_opaque_ptr_2, 8
_TIG_iO_xHZ6_1_q_free_1_opaque_ptr_2:
	.zero	8
	.globl	_TIG_iO_xHZ6_1_lookup_ins_1_opaque_list_2
	.align 8
	.type	_TIG_iO_xHZ6_1_lookup_ins_1_opaque_list_2, @object
	.size	_TIG_iO_xHZ6_1_lookup_ins_1_opaque_list_2, 8
_TIG_iO_xHZ6_1_lookup_ins_1_opaque_list_2:
	.zero	8
	.globl	_TIG_iO_xHZ6_1_hex_ascii_to_int_1_opaque_list_1
	.align 8
	.type	_TIG_iO_xHZ6_1_hex_ascii_to_int_1_opaque_list_1, @object
	.size	_TIG_iO_xHZ6_1_hex_ascii_to_int_1_opaque_list_1, 8
_TIG_iO_xHZ6_1_hex_ascii_to_int_1_opaque_list_1:
	.zero	8
	.local	hex_tab
	.comm	hex_tab,448,32
	.globl	_TIG_iO_xHZ6_1_nargs_1_opaque_list_1
	.align 8
	.type	_TIG_iO_xHZ6_1_nargs_1_opaque_list_1, @object
	.size	_TIG_iO_xHZ6_1_nargs_1_opaque_list_1, 8
_TIG_iO_xHZ6_1_nargs_1_opaque_list_1:
	.zero	8
	.local	loaded_modules
	.comm	loaded_modules,16,16
	.globl	_TIG_iO_xHZ6_1_is_op_1_opaque_ptr_2
	.align 8
	.type	_TIG_iO_xHZ6_1_is_op_1_opaque_ptr_2, @object
	.size	_TIG_iO_xHZ6_1_is_op_1_opaque_ptr_2, 8
_TIG_iO_xHZ6_1_is_op_1_opaque_ptr_2:
	.zero	8
	.globl	_TIG_iO_xHZ6_1_die_1_opaque_list_2
	.align 8
	.type	_TIG_iO_xHZ6_1_die_1_opaque_list_2, @object
	.size	_TIG_iO_xHZ6_1_die_1_opaque_list_2, 8
_TIG_iO_xHZ6_1_die_1_opaque_list_2:
	.zero	8
	.globl	_TIG_iO_xHZ6_1_emit_string_constant_1_opaque_list_1
	.align 8
	.type	_TIG_iO_xHZ6_1_emit_string_constant_1_opaque_list_1, @object
	.size	_TIG_iO_xHZ6_1_emit_string_constant_1_opaque_list_1, 8
_TIG_iO_xHZ6_1_emit_string_constant_1_opaque_list_1:
	.zero	8
	.globl	_TIG_iO_xHZ6_1_execute_1_opaque_list_1
	.align 8
	.type	_TIG_iO_xHZ6_1_execute_1_opaque_list_1, @object
	.size	_TIG_iO_xHZ6_1_execute_1_opaque_list_1, 8
_TIG_iO_xHZ6_1_execute_1_opaque_list_1:
	.zero	8
	.globl	_TIG_iO_xHZ6_1_push_1_opaque_ptr_1
	.align 8
	.type	_TIG_iO_xHZ6_1_push_1_opaque_ptr_1, @object
	.size	_TIG_iO_xHZ6_1_push_1_opaque_ptr_1, 8
_TIG_iO_xHZ6_1_push_1_opaque_ptr_1:
	.zero	8
	.globl	_TIG_iO_xHZ6_1_is_rtl_1_opaque_list_1
	.align 8
	.type	_TIG_iO_xHZ6_1_is_rtl_1_opaque_list_1, @object
	.size	_TIG_iO_xHZ6_1_is_rtl_1_opaque_list_1, 8
_TIG_iO_xHZ6_1_is_rtl_1_opaque_list_1:
	.zero	8
	.globl	_TIG_iO_xHZ6_1_emit_ident_1_opaque_list_1
	.align 8
	.type	_TIG_iO_xHZ6_1_emit_ident_1_opaque_list_1, @object
	.size	_TIG_iO_xHZ6_1_emit_ident_1_opaque_list_1, 8
_TIG_iO_xHZ6_1_emit_ident_1_opaque_list_1:
	.zero	8
	.globl	_TIG_iO_xHZ6_1_gsi_1_opaque_list_1
	.align 8
	.type	_TIG_iO_xHZ6_1_gsi_1_opaque_list_1, @object
	.size	_TIG_iO_xHZ6_1_gsi_1_opaque_list_1, 8
_TIG_iO_xHZ6_1_gsi_1_opaque_list_1:
	.zero	8
	.globl	_TIG_iO_xHZ6_1_q_free_1_opaque_list_2
	.align 8
	.type	_TIG_iO_xHZ6_1_q_free_1_opaque_list_2, @object
	.size	_TIG_iO_xHZ6_1_q_free_1_opaque_list_2, 8
_TIG_iO_xHZ6_1_q_free_1_opaque_list_2:
	.zero	8
	.globl	_TIG_iO_xHZ6_1_hash_str_1_opaque_ptr_1
	.align 8
	.type	_TIG_iO_xHZ6_1_hash_str_1_opaque_ptr_1, @object
	.size	_TIG_iO_xHZ6_1_hash_str_1_opaque_ptr_1, 8
_TIG_iO_xHZ6_1_hash_str_1_opaque_ptr_1:
	.zero	8
	.globl	_TIG_iO_xHZ6_1_reduce_1_opaque_ptr_1
	.align 8
	.type	_TIG_iO_xHZ6_1_reduce_1_opaque_ptr_1, @object
	.size	_TIG_iO_xHZ6_1_reduce_1_opaque_ptr_1, 8
_TIG_iO_xHZ6_1_reduce_1_opaque_ptr_1:
	.zero	8
	.globl	_TIG_iO_xHZ6_1_usage_1_opaque_ptr_1
	.align 8
	.type	_TIG_iO_xHZ6_1_usage_1_opaque_ptr_1, @object
	.size	_TIG_iO_xHZ6_1_usage_1_opaque_ptr_1, 8
_TIG_iO_xHZ6_1_usage_1_opaque_ptr_1:
	.zero	8
	.globl	_TIG_iO_xHZ6_1_emit_byte_1_opaque_list_2
	.align 8
	.type	_TIG_iO_xHZ6_1_emit_byte_1_opaque_list_2, @object
	.size	_TIG_iO_xHZ6_1_emit_byte_1_opaque_list_2, 8
_TIG_iO_xHZ6_1_emit_byte_1_opaque_list_2:
	.zero	8
	.globl	_TIG_iO_xHZ6_1_emit_byte_1_opaque_list_1
	.align 8
	.type	_TIG_iO_xHZ6_1_emit_byte_1_opaque_list_1, @object
	.size	_TIG_iO_xHZ6_1_emit_byte_1_opaque_list_1, 8
_TIG_iO_xHZ6_1_emit_byte_1_opaque_list_1:
	.zero	8
	.globl	_TIG_iO_xHZ6_1___bswap_32_1_opaque_list_2
	.align 8
	.type	_TIG_iO_xHZ6_1___bswap_32_1_opaque_list_2, @object
	.size	_TIG_iO_xHZ6_1___bswap_32_1_opaque_list_2, 8
_TIG_iO_xHZ6_1___bswap_32_1_opaque_list_2:
	.zero	8
	.local	nil
	.comm	nil,64,32
	.globl	_TIG_iO_xHZ6_1_q_load_1_opaque_ptr_2
	.align 8
	.type	_TIG_iO_xHZ6_1_q_load_1_opaque_ptr_2, @object
	.size	_TIG_iO_xHZ6_1_q_load_1_opaque_ptr_2, 8
_TIG_iO_xHZ6_1_q_load_1_opaque_ptr_2:
	.zero	8
	.globl	_TIG_iO_xHZ6_1_cmp_vec_1_opaque_ptr_2
	.align 8
	.type	_TIG_iO_xHZ6_1_cmp_vec_1_opaque_ptr_2, @object
	.size	_TIG_iO_xHZ6_1_cmp_vec_1_opaque_ptr_2, 8
_TIG_iO_xHZ6_1_cmp_vec_1_opaque_ptr_2:
	.zero	8
	.globl	_TIG_iO_xHZ6_1_prio_1_opaque_ptr_2
	.align 8
	.type	_TIG_iO_xHZ6_1_prio_1_opaque_ptr_2, @object
	.size	_TIG_iO_xHZ6_1_prio_1_opaque_ptr_2, 8
_TIG_iO_xHZ6_1_prio_1_opaque_ptr_2:
	.zero	8
	.globl	_TIG_iO_xHZ6_1_reduce_1_opaque_ptr_2
	.align 8
	.type	_TIG_iO_xHZ6_1_reduce_1_opaque_ptr_2, @object
	.size	_TIG_iO_xHZ6_1_reduce_1_opaque_ptr_2, 8
_TIG_iO_xHZ6_1_reduce_1_opaque_ptr_2:
	.zero	8
	.globl	_TIG_iO_xHZ6_1_gsi_1_opaque_ptr_1
	.align 8
	.type	_TIG_iO_xHZ6_1_gsi_1_opaque_ptr_1, @object
	.size	_TIG_iO_xHZ6_1_gsi_1_opaque_ptr_1, 8
_TIG_iO_xHZ6_1_gsi_1_opaque_ptr_1:
	.zero	8
	.globl	_TIG_iO_xHZ6_1_prio_1_opaque_list_2
	.align 8
	.type	_TIG_iO_xHZ6_1_prio_1_opaque_list_2, @object
	.size	_TIG_iO_xHZ6_1_prio_1_opaque_list_2, 8
_TIG_iO_xHZ6_1_prio_1_opaque_list_2:
	.zero	8
	.globl	_TIG_iO_xHZ6_1_die_1_opaque_list_1
	.align 8
	.type	_TIG_iO_xHZ6_1_die_1_opaque_list_1, @object
	.size	_TIG_iO_xHZ6_1_die_1_opaque_list_1, 8
_TIG_iO_xHZ6_1_die_1_opaque_list_1:
	.zero	8
	.globl	_TIG_iO_xHZ6_1_print_obj_1_opaque_list_1
	.align 8
	.type	_TIG_iO_xHZ6_1_print_obj_1_opaque_list_1, @object
	.size	_TIG_iO_xHZ6_1_print_obj_1_opaque_list_1, 8
_TIG_iO_xHZ6_1_print_obj_1_opaque_list_1:
	.zero	8
	.globl	_TIG_iO_xHZ6_1_emit_num_1_opaque_list_1
	.align 8
	.type	_TIG_iO_xHZ6_1_emit_num_1_opaque_list_1, @object
	.size	_TIG_iO_xHZ6_1_emit_num_1_opaque_list_1, 8
_TIG_iO_xHZ6_1_emit_num_1_opaque_list_1:
	.zero	8
	.globl	_TIG_iO_xHZ6_1_emit_params_1_opaque_ptr_1
	.align 8
	.type	_TIG_iO_xHZ6_1_emit_params_1_opaque_ptr_1, @object
	.size	_TIG_iO_xHZ6_1_emit_params_1_opaque_ptr_1, 8
_TIG_iO_xHZ6_1_emit_params_1_opaque_ptr_1:
	.zero	8
	.globl	_TIG_iO_xHZ6_1___bswap_16_1_opaque_ptr_2
	.align 8
	.type	_TIG_iO_xHZ6_1___bswap_16_1_opaque_ptr_2, @object
	.size	_TIG_iO_xHZ6_1___bswap_16_1_opaque_ptr_2, 8
_TIG_iO_xHZ6_1___bswap_16_1_opaque_ptr_2:
	.zero	8
	.globl	_TIG_iO_xHZ6_1_lookup_ins_1_opaque_ptr_1
	.align 8
	.type	_TIG_iO_xHZ6_1_lookup_ins_1_opaque_ptr_1, @object
	.size	_TIG_iO_xHZ6_1_lookup_ins_1_opaque_ptr_1, 8
_TIG_iO_xHZ6_1_lookup_ins_1_opaque_ptr_1:
	.zero	8
	.globl	_TIG_iO_xHZ6_1_bubble_sort_ops_by_priority_1_opaque_ptr_2
	.align 8
	.type	_TIG_iO_xHZ6_1_bubble_sort_ops_by_priority_1_opaque_ptr_2, @object
	.size	_TIG_iO_xHZ6_1_bubble_sort_ops_by_priority_1_opaque_ptr_2, 8
_TIG_iO_xHZ6_1_bubble_sort_ops_by_priority_1_opaque_ptr_2:
	.zero	8
	.globl	_TIG_iO_xHZ6_1_print_obj_1_opaque_list_2
	.align 8
	.type	_TIG_iO_xHZ6_1_print_obj_1_opaque_list_2, @object
	.size	_TIG_iO_xHZ6_1_print_obj_1_opaque_list_2, 8
_TIG_iO_xHZ6_1_print_obj_1_opaque_list_2:
	.zero	8
	.globl	_TIG_iO_xHZ6_1_match_long_token_1_opaque_list_2
	.align 8
	.type	_TIG_iO_xHZ6_1_match_long_token_1_opaque_list_2, @object
	.size	_TIG_iO_xHZ6_1_match_long_token_1_opaque_list_2, 8
_TIG_iO_xHZ6_1_match_long_token_1_opaque_list_2:
	.zero	8
	.globl	_TIG_iO_xHZ6_1_set_op_attributes_1_opaque_ptr_1
	.align 8
	.type	_TIG_iO_xHZ6_1_set_op_attributes_1_opaque_ptr_1, @object
	.size	_TIG_iO_xHZ6_1_set_op_attributes_1_opaque_ptr_1, 8
_TIG_iO_xHZ6_1_set_op_attributes_1_opaque_ptr_1:
	.zero	8
	.globl	_TIG_iO_xHZ6_1_emit_num_1_opaque_list_2
	.align 8
	.type	_TIG_iO_xHZ6_1_emit_num_1_opaque_list_2, @object
	.size	_TIG_iO_xHZ6_1_emit_num_1_opaque_list_2, 8
_TIG_iO_xHZ6_1_emit_num_1_opaque_list_2:
	.zero	8
	.globl	_TIG_iO_xHZ6_1_cmp_1_opaque_ptr_1
	.align 8
	.type	_TIG_iO_xHZ6_1_cmp_1_opaque_ptr_1, @object
	.size	_TIG_iO_xHZ6_1_cmp_1_opaque_ptr_1, 8
_TIG_iO_xHZ6_1_cmp_1_opaque_ptr_1:
	.zero	8
	.globl	_TIG_iO_xHZ6_1_emit_1_opaque_ptr_1
	.align 8
	.type	_TIG_iO_xHZ6_1_emit_1_opaque_ptr_1, @object
	.size	_TIG_iO_xHZ6_1_emit_1_opaque_ptr_1, 8
_TIG_iO_xHZ6_1_emit_1_opaque_ptr_1:
	.zero	8
	.globl	_TIG_iO_xHZ6_1_expr_1_opaque_list_2
	.align 8
	.type	_TIG_iO_xHZ6_1_expr_1_opaque_list_2, @object
	.size	_TIG_iO_xHZ6_1_expr_1_opaque_list_2, 8
_TIG_iO_xHZ6_1_expr_1_opaque_list_2:
	.zero	8
	.globl	_TIG_iO_xHZ6_1_is_op_1_opaque_list_2
	.align 8
	.type	_TIG_iO_xHZ6_1_is_op_1_opaque_list_2, @object
	.size	_TIG_iO_xHZ6_1_is_op_1_opaque_list_2, 8
_TIG_iO_xHZ6_1_is_op_1_opaque_list_2:
	.zero	8
	.globl	_TIG_iO_xHZ6_1_get_opt_1_opaque_list_1
	.align 8
	.type	_TIG_iO_xHZ6_1_get_opt_1_opaque_list_1, @object
	.size	_TIG_iO_xHZ6_1_get_opt_1_opaque_list_1, 8
_TIG_iO_xHZ6_1_get_opt_1_opaque_list_1:
	.zero	8
	.globl	_TIG_iO_xHZ6_1_calc_number_of_params_1_opaque_list_2
	.align 8
	.type	_TIG_iO_xHZ6_1_calc_number_of_params_1_opaque_list_2, @object
	.size	_TIG_iO_xHZ6_1_calc_number_of_params_1_opaque_list_2, 8
_TIG_iO_xHZ6_1_calc_number_of_params_1_opaque_list_2:
	.zero	8
	.globl	_TIG_iO_xHZ6_1_set_op_attributes_1_opaque_ptr_2
	.align 8
	.type	_TIG_iO_xHZ6_1_set_op_attributes_1_opaque_ptr_2, @object
	.size	_TIG_iO_xHZ6_1_set_op_attributes_1_opaque_ptr_2, 8
_TIG_iO_xHZ6_1_set_op_attributes_1_opaque_ptr_2:
	.zero	8
	.globl	_TIG_IZ_xHZ6_argc
	.align 4
	.type	_TIG_IZ_xHZ6_argc, @object
	.size	_TIG_IZ_xHZ6_argc, 4
_TIG_IZ_xHZ6_argc:
	.zero	4
	.globl	_TIG_iO_xHZ6_1_disasm_1_opaque_ptr_2
	.align 8
	.type	_TIG_iO_xHZ6_1_disasm_1_opaque_ptr_2, @object
	.size	_TIG_iO_xHZ6_1_disasm_1_opaque_ptr_2, 8
_TIG_iO_xHZ6_1_disasm_1_opaque_ptr_2:
	.zero	8
	.globl	_TIG_iO_xHZ6_1_die_1_opaque_ptr_2
	.align 8
	.type	_TIG_iO_xHZ6_1_die_1_opaque_ptr_2, @object
	.size	_TIG_iO_xHZ6_1_die_1_opaque_ptr_2, 8
_TIG_iO_xHZ6_1_die_1_opaque_ptr_2:
	.zero	8
	.globl	_TIG_iO_xHZ6_1_pop_1_opaque_ptr_2
	.align 8
	.type	_TIG_iO_xHZ6_1_pop_1_opaque_ptr_2, @object
	.size	_TIG_iO_xHZ6_1_pop_1_opaque_ptr_2, 8
_TIG_iO_xHZ6_1_pop_1_opaque_ptr_2:
	.zero	8
	.globl	_TIG_iO_xHZ6_1_init_hash_obj_1_opaque_ptr_2
	.align 8
	.type	_TIG_iO_xHZ6_1_init_hash_obj_1_opaque_ptr_2, @object
	.size	_TIG_iO_xHZ6_1_init_hash_obj_1_opaque_ptr_2, 8
_TIG_iO_xHZ6_1_init_hash_obj_1_opaque_ptr_2:
	.zero	8
	.globl	_TIG_iO_xHZ6_1_emit_expr_1_opaque_ptr_2
	.align 8
	.type	_TIG_iO_xHZ6_1_emit_expr_1_opaque_ptr_2, @object
	.size	_TIG_iO_xHZ6_1_emit_expr_1_opaque_ptr_2, 8
_TIG_iO_xHZ6_1_emit_expr_1_opaque_ptr_2:
	.zero	8
	.globl	_TIG_iO_xHZ6_1_gsi_1_opaque_ptr_2
	.align 8
	.type	_TIG_iO_xHZ6_1_gsi_1_opaque_ptr_2, @object
	.size	_TIG_iO_xHZ6_1_gsi_1_opaque_ptr_2, 8
_TIG_iO_xHZ6_1_gsi_1_opaque_ptr_2:
	.zero	8
	.globl	_TIG_iO_xHZ6_1_main_1_opaque_list_2
	.align 8
	.type	_TIG_iO_xHZ6_1_main_1_opaque_list_2, @object
	.size	_TIG_iO_xHZ6_1_main_1_opaque_list_2, 8
_TIG_iO_xHZ6_1_main_1_opaque_list_2:
	.zero	8
	.globl	_TIG_iO_xHZ6_1_emit_ident_1_opaque_ptr_2
	.align 8
	.type	_TIG_iO_xHZ6_1_emit_ident_1_opaque_ptr_2, @object
	.size	_TIG_iO_xHZ6_1_emit_ident_1_opaque_ptr_2, 8
_TIG_iO_xHZ6_1_emit_ident_1_opaque_ptr_2:
	.zero	8
	.globl	_TIG_iO_xHZ6_1_is_op_1_opaque_ptr_1
	.align 8
	.type	_TIG_iO_xHZ6_1_is_op_1_opaque_ptr_1, @object
	.size	_TIG_iO_xHZ6_1_is_op_1_opaque_ptr_1, 8
_TIG_iO_xHZ6_1_is_op_1_opaque_ptr_1:
	.zero	8
	.globl	_TIG_iO_xHZ6_1_is_op_1_opaque_list_1
	.align 8
	.type	_TIG_iO_xHZ6_1_is_op_1_opaque_list_1, @object
	.size	_TIG_iO_xHZ6_1_is_op_1_opaque_list_1, 8
_TIG_iO_xHZ6_1_is_op_1_opaque_list_1:
	.zero	8
	.globl	_TIG_iO_xHZ6_1_set_op_attributes_1_opaque_list_2
	.align 8
	.type	_TIG_iO_xHZ6_1_set_op_attributes_1_opaque_list_2, @object
	.size	_TIG_iO_xHZ6_1_set_op_attributes_1_opaque_list_2, 8
_TIG_iO_xHZ6_1_set_op_attributes_1_opaque_list_2:
	.zero	8
	.globl	_TIG_iO_xHZ6_1_emit_function_call_1_opaque_ptr_2
	.align 8
	.type	_TIG_iO_xHZ6_1_emit_function_call_1_opaque_ptr_2, @object
	.size	_TIG_iO_xHZ6_1_emit_function_call_1_opaque_ptr_2, 8
_TIG_iO_xHZ6_1_emit_function_call_1_opaque_ptr_2:
	.zero	8
	.globl	_TIG_iO_xHZ6_1_lookup_rec_1_opaque_list_1
	.align 8
	.type	_TIG_iO_xHZ6_1_lookup_rec_1_opaque_list_1, @object
	.size	_TIG_iO_xHZ6_1_lookup_rec_1_opaque_list_1, 8
_TIG_iO_xHZ6_1_lookup_rec_1_opaque_list_1:
	.zero	8
	.local	rerr
	.comm	rerr,8,8
	.local	one_char_tokens
	.comm	one_char_tokens,8,8
	.globl	_TIG_iO_xHZ6_1_emit_params_1_opaque_list_2
	.align 8
	.type	_TIG_iO_xHZ6_1_emit_params_1_opaque_list_2, @object
	.size	_TIG_iO_xHZ6_1_emit_params_1_opaque_list_2, 8
_TIG_iO_xHZ6_1_emit_params_1_opaque_list_2:
	.zero	8
	.globl	_TIG_iO_xHZ6_1_is_rtl_1_opaque_ptr_1
	.align 8
	.type	_TIG_iO_xHZ6_1_is_rtl_1_opaque_ptr_1, @object
	.size	_TIG_iO_xHZ6_1_is_rtl_1_opaque_ptr_1, 8
_TIG_iO_xHZ6_1_is_rtl_1_opaque_ptr_1:
	.zero	8
	.globl	_TIG_iO_xHZ6_1_push_1_opaque_list_2
	.align 8
	.type	_TIG_iO_xHZ6_1_push_1_opaque_list_2, @object
	.size	_TIG_iO_xHZ6_1_push_1_opaque_list_2, 8
_TIG_iO_xHZ6_1_push_1_opaque_list_2:
	.zero	8
	.globl	_TIG_iO_xHZ6_1_q_exec_string_1_opaque_list_1
	.align 8
	.type	_TIG_iO_xHZ6_1_q_exec_string_1_opaque_list_1, @object
	.size	_TIG_iO_xHZ6_1_q_exec_string_1_opaque_list_1, 8
_TIG_iO_xHZ6_1_q_exec_string_1_opaque_list_1:
	.zero	8
	.globl	_TIG_iO_xHZ6_1_init_hash_obj_1_opaque_ptr_1
	.align 8
	.type	_TIG_iO_xHZ6_1_init_hash_obj_1_opaque_ptr_1, @object
	.size	_TIG_iO_xHZ6_1_init_hash_obj_1_opaque_ptr_1, 8
_TIG_iO_xHZ6_1_init_hash_obj_1_opaque_ptr_1:
	.zero	8
	.local	opcodes
	.comm	opcodes,96,32
	.globl	_TIG_iO_xHZ6_1_setattr_1_opaque_ptr_1
	.align 8
	.type	_TIG_iO_xHZ6_1_setattr_1_opaque_ptr_1, @object
	.size	_TIG_iO_xHZ6_1_setattr_1_opaque_ptr_1, 8
_TIG_iO_xHZ6_1_setattr_1_opaque_ptr_1:
	.zero	8
	.globl	_TIG_iO_xHZ6_1_pop_1_opaque_list_1
	.align 8
	.type	_TIG_iO_xHZ6_1_pop_1_opaque_list_1, @object
	.size	_TIG_iO_xHZ6_1_pop_1_opaque_list_1, 8
_TIG_iO_xHZ6_1_pop_1_opaque_list_1:
	.zero	8
	.globl	_TIG_iO_xHZ6_1_calc_hash_1_opaque_list_1
	.align 8
	.type	_TIG_iO_xHZ6_1_calc_hash_1_opaque_list_1, @object
	.size	_TIG_iO_xHZ6_1_calc_hash_1_opaque_list_1, 8
_TIG_iO_xHZ6_1_calc_hash_1_opaque_list_1:
	.zero	8
	.globl	_TIG_iO_xHZ6_1_nargs_1_opaque_ptr_2
	.align 8
	.type	_TIG_iO_xHZ6_1_nargs_1_opaque_ptr_2, @object
	.size	_TIG_iO_xHZ6_1_nargs_1_opaque_ptr_2, 8
_TIG_iO_xHZ6_1_nargs_1_opaque_ptr_2:
	.zero	8
	.globl	_TIG_iO_xHZ6_1_q_save_1_opaque_ptr_1
	.align 8
	.type	_TIG_iO_xHZ6_1_q_save_1_opaque_ptr_1, @object
	.size	_TIG_iO_xHZ6_1_q_save_1_opaque_ptr_1, 8
_TIG_iO_xHZ6_1_q_save_1_opaque_ptr_1:
	.zero	8
	.globl	_TIG_iO_xHZ6_1_hex_ascii_to_int_1_opaque_ptr_1
	.align 8
	.type	_TIG_iO_xHZ6_1_hex_ascii_to_int_1_opaque_ptr_1, @object
	.size	_TIG_iO_xHZ6_1_hex_ascii_to_int_1_opaque_ptr_1, 8
_TIG_iO_xHZ6_1_hex_ascii_to_int_1_opaque_ptr_1:
	.zero	8
	.globl	_TIG_iO_xHZ6_1_get_opt_1_opaque_ptr_1
	.align 8
	.type	_TIG_iO_xHZ6_1_get_opt_1_opaque_ptr_1, @object
	.size	_TIG_iO_xHZ6_1_get_opt_1_opaque_ptr_1, 8
_TIG_iO_xHZ6_1_get_opt_1_opaque_ptr_1:
	.zero	8
	.globl	_TIG_iO_xHZ6_1_main_1_opaque_list_1
	.align 8
	.type	_TIG_iO_xHZ6_1_main_1_opaque_list_1, @object
	.size	_TIG_iO_xHZ6_1_main_1_opaque_list_1, 8
_TIG_iO_xHZ6_1_main_1_opaque_list_1:
	.zero	8
	.globl	_TIG_iO_xHZ6_1_compile_1_opaque_list_1
	.align 8
	.type	_TIG_iO_xHZ6_1_compile_1_opaque_list_1, @object
	.size	_TIG_iO_xHZ6_1_compile_1_opaque_list_1, 8
_TIG_iO_xHZ6_1_compile_1_opaque_list_1:
	.zero	8
	.globl	_TIG_iO_xHZ6_1_nargs_1_opaque_ptr_1
	.align 8
	.type	_TIG_iO_xHZ6_1_nargs_1_opaque_ptr_1, @object
	.size	_TIG_iO_xHZ6_1_nargs_1_opaque_ptr_1, 8
_TIG_iO_xHZ6_1_nargs_1_opaque_ptr_1:
	.zero	8
	.globl	_TIG_iO_xHZ6_1_print_obj_1_opaque_ptr_1
	.align 8
	.type	_TIG_iO_xHZ6_1_print_obj_1_opaque_ptr_1, @object
	.size	_TIG_iO_xHZ6_1_print_obj_1_opaque_ptr_1, 8
_TIG_iO_xHZ6_1_print_obj_1_opaque_ptr_1:
	.zero	8
	.globl	_TIG_iO_xHZ6_1_tokenize_1_opaque_ptr_1
	.align 8
	.type	_TIG_iO_xHZ6_1_tokenize_1_opaque_ptr_1, @object
	.size	_TIG_iO_xHZ6_1_tokenize_1_opaque_ptr_1, 8
_TIG_iO_xHZ6_1_tokenize_1_opaque_ptr_1:
	.zero	8
	.globl	_TIG_iO_xHZ6_1_emit_expr_1_opaque_list_1
	.align 8
	.type	_TIG_iO_xHZ6_1_emit_expr_1_opaque_list_1, @object
	.size	_TIG_iO_xHZ6_1_emit_expr_1_opaque_list_1, 8
_TIG_iO_xHZ6_1_emit_expr_1_opaque_list_1:
	.zero	8
	.globl	_TIG_iO_xHZ6_1_main_1_opaque_ptr_1
	.align 8
	.type	_TIG_iO_xHZ6_1_main_1_opaque_ptr_1, @object
	.size	_TIG_iO_xHZ6_1_main_1_opaque_ptr_1, 8
_TIG_iO_xHZ6_1_main_1_opaque_ptr_1:
	.zero	8
	.globl	_TIG_iO_xHZ6_1_q_free_1_opaque_list_1
	.align 8
	.type	_TIG_iO_xHZ6_1_q_free_1_opaque_list_1, @object
	.size	_TIG_iO_xHZ6_1_q_free_1_opaque_list_1, 8
_TIG_iO_xHZ6_1_q_free_1_opaque_list_1:
	.zero	8
	.globl	_TIG_iO_xHZ6_1_is_leftmost_1_opaque_ptr_2
	.align 8
	.type	_TIG_iO_xHZ6_1_is_leftmost_1_opaque_ptr_2, @object
	.size	_TIG_iO_xHZ6_1_is_leftmost_1_opaque_ptr_2, 8
_TIG_iO_xHZ6_1_is_leftmost_1_opaque_ptr_2:
	.zero	8
	.globl	_TIG_iO_xHZ6_1___uint32_identity_1_opaque_ptr_2
	.align 8
	.type	_TIG_iO_xHZ6_1___uint32_identity_1_opaque_ptr_2, @object
	.size	_TIG_iO_xHZ6_1___uint32_identity_1_opaque_ptr_2, 8
_TIG_iO_xHZ6_1___uint32_identity_1_opaque_ptr_2:
	.zero	8
	.globl	_TIG_iO_xHZ6_1_match_long_token_1_opaque_ptr_2
	.align 8
	.type	_TIG_iO_xHZ6_1_match_long_token_1_opaque_ptr_2, @object
	.size	_TIG_iO_xHZ6_1_match_long_token_1_opaque_ptr_2, 8
_TIG_iO_xHZ6_1_match_long_token_1_opaque_ptr_2:
	.zero	8
	.globl	_TIG_iO_xHZ6_1_get_opt_1_opaque_list_2
	.align 8
	.type	_TIG_iO_xHZ6_1_get_opt_1_opaque_list_2, @object
	.size	_TIG_iO_xHZ6_1_get_opt_1_opaque_list_2, 8
_TIG_iO_xHZ6_1_get_opt_1_opaque_list_2:
	.zero	8
	.globl	_TIG_iO_xHZ6_1_lookup_1_opaque_ptr_2
	.align 8
	.type	_TIG_iO_xHZ6_1_lookup_1_opaque_ptr_2, @object
	.size	_TIG_iO_xHZ6_1_lookup_1_opaque_ptr_2, 8
_TIG_iO_xHZ6_1_lookup_1_opaque_ptr_2:
	.zero	8
	.globl	_TIG_iO_xHZ6_1_prio_1_opaque_ptr_1
	.align 8
	.type	_TIG_iO_xHZ6_1_prio_1_opaque_ptr_1, @object
	.size	_TIG_iO_xHZ6_1_prio_1_opaque_ptr_1, 8
_TIG_iO_xHZ6_1_prio_1_opaque_ptr_1:
	.zero	8
	.globl	_TIG_iO_xHZ6_1_expr_1_opaque_ptr_1
	.align 8
	.type	_TIG_iO_xHZ6_1_expr_1_opaque_ptr_1, @object
	.size	_TIG_iO_xHZ6_1_expr_1_opaque_ptr_1, 8
_TIG_iO_xHZ6_1_expr_1_opaque_ptr_1:
	.zero	8
	.globl	_TIG_iO_xHZ6_1_emit_params_1_opaque_ptr_2
	.align 8
	.type	_TIG_iO_xHZ6_1_emit_params_1_opaque_ptr_2, @object
	.size	_TIG_iO_xHZ6_1_emit_params_1_opaque_ptr_2, 8
_TIG_iO_xHZ6_1_emit_params_1_opaque_ptr_2:
	.zero	8
	.globl	_TIG_iO_xHZ6_1_qaz_1_opaque_ptr_2
	.align 8
	.type	_TIG_iO_xHZ6_1_qaz_1_opaque_ptr_2, @object
	.size	_TIG_iO_xHZ6_1_qaz_1_opaque_ptr_2, 8
_TIG_iO_xHZ6_1_qaz_1_opaque_ptr_2:
	.zero	8
	.globl	_TIG_iO_xHZ6_1_expand_code_1_opaque_list_2
	.align 8
	.type	_TIG_iO_xHZ6_1_expand_code_1_opaque_list_2, @object
	.size	_TIG_iO_xHZ6_1_expand_code_1_opaque_list_2, 8
_TIG_iO_xHZ6_1_expand_code_1_opaque_list_2:
	.zero	8
	.globl	_TIG_iO_xHZ6_1___uint32_identity_1_opaque_list_1
	.align 8
	.type	_TIG_iO_xHZ6_1___uint32_identity_1_opaque_list_1, @object
	.size	_TIG_iO_xHZ6_1___uint32_identity_1_opaque_list_1, 8
_TIG_iO_xHZ6_1___uint32_identity_1_opaque_list_1:
	.zero	8
	.globl	_TIG_iO_xHZ6_1_print_1_opaque_list_1
	.align 8
	.type	_TIG_iO_xHZ6_1_print_1_opaque_list_1, @object
	.size	_TIG_iO_xHZ6_1_print_1_opaque_list_1, 8
_TIG_iO_xHZ6_1_print_1_opaque_list_1:
	.zero	8
	.globl	_TIG_iO_xHZ6_1___uint32_identity_1_opaque_list_2
	.align 8
	.type	_TIG_iO_xHZ6_1___uint32_identity_1_opaque_list_2, @object
	.size	_TIG_iO_xHZ6_1___uint32_identity_1_opaque_list_2, 8
_TIG_iO_xHZ6_1___uint32_identity_1_opaque_list_2:
	.zero	8
	.globl	_TIG_iO_xHZ6_1_print_1_opaque_ptr_1
	.align 8
	.type	_TIG_iO_xHZ6_1_print_1_opaque_ptr_1, @object
	.size	_TIG_iO_xHZ6_1_print_1_opaque_ptr_1, 8
_TIG_iO_xHZ6_1_print_1_opaque_ptr_1:
	.zero	8
	.globl	_TIG_iO_xHZ6_1_pop_1_opaque_ptr_1
	.align 8
	.type	_TIG_iO_xHZ6_1_pop_1_opaque_ptr_1, @object
	.size	_TIG_iO_xHZ6_1_pop_1_opaque_ptr_1, 8
_TIG_iO_xHZ6_1_pop_1_opaque_ptr_1:
	.zero	8
	.globl	_TIG_iO_xHZ6_1_emit_hash_definition_1_opaque_list_1
	.align 8
	.type	_TIG_iO_xHZ6_1_emit_hash_definition_1_opaque_list_1, @object
	.size	_TIG_iO_xHZ6_1_emit_hash_definition_1_opaque_list_1, 8
_TIG_iO_xHZ6_1_emit_hash_definition_1_opaque_list_1:
	.zero	8
	.globl	_TIG_iO_xHZ6_1_compile_1_opaque_list_2
	.align 8
	.type	_TIG_iO_xHZ6_1_compile_1_opaque_list_2, @object
	.size	_TIG_iO_xHZ6_1_compile_1_opaque_list_2, 8
_TIG_iO_xHZ6_1_compile_1_opaque_list_2:
	.zero	8
	.globl	_TIG_iO_xHZ6_1_print_1_opaque_ptr_2
	.align 8
	.type	_TIG_iO_xHZ6_1_print_1_opaque_ptr_2, @object
	.size	_TIG_iO_xHZ6_1_print_1_opaque_ptr_2, 8
_TIG_iO_xHZ6_1_print_1_opaque_ptr_2:
	.zero	8
	.globl	_TIG_iO_xHZ6_1_init_op_tab_1_opaque_ptr_2
	.align 8
	.type	_TIG_iO_xHZ6_1_init_op_tab_1_opaque_ptr_2, @object
	.size	_TIG_iO_xHZ6_1_init_op_tab_1_opaque_ptr_2, 8
_TIG_iO_xHZ6_1_init_op_tab_1_opaque_ptr_2:
	.zero	8
	.globl	_TIG_iO_xHZ6_1_emit_expr_1_opaque_list_2
	.align 8
	.type	_TIG_iO_xHZ6_1_emit_expr_1_opaque_list_2, @object
	.size	_TIG_iO_xHZ6_1_emit_expr_1_opaque_list_2, 8
_TIG_iO_xHZ6_1_emit_expr_1_opaque_list_2:
	.zero	8
	.globl	_TIG_iO_xHZ6_1_cmp_vec_1_opaque_list_2
	.align 8
	.type	_TIG_iO_xHZ6_1_cmp_vec_1_opaque_list_2, @object
	.size	_TIG_iO_xHZ6_1_cmp_vec_1_opaque_list_2, 8
_TIG_iO_xHZ6_1_cmp_vec_1_opaque_list_2:
	.zero	8
	.globl	_TIG_iO_xHZ6_1_emit_params_1_opaque_list_1
	.align 8
	.type	_TIG_iO_xHZ6_1_emit_params_1_opaque_list_1, @object
	.size	_TIG_iO_xHZ6_1_emit_params_1_opaque_list_1, 8
_TIG_iO_xHZ6_1_emit_params_1_opaque_list_1:
	.zero	8
	.globl	_TIG_iO_xHZ6_1_emit_hash_definition_1_opaque_ptr_1
	.align 8
	.type	_TIG_iO_xHZ6_1_emit_hash_definition_1_opaque_ptr_1, @object
	.size	_TIG_iO_xHZ6_1_emit_hash_definition_1_opaque_ptr_1, 8
_TIG_iO_xHZ6_1_emit_hash_definition_1_opaque_ptr_1:
	.zero	8
	.globl	_TIG_iO_xHZ6_1_is_rtl_1_opaque_list_2
	.align 8
	.type	_TIG_iO_xHZ6_1_is_rtl_1_opaque_list_2, @object
	.size	_TIG_iO_xHZ6_1_is_rtl_1_opaque_list_2, 8
_TIG_iO_xHZ6_1_is_rtl_1_opaque_list_2:
	.zero	8
	.globl	_TIG_iO_xHZ6_1_emit_num_1_opaque_ptr_1
	.align 8
	.type	_TIG_iO_xHZ6_1_emit_num_1_opaque_ptr_1, @object
	.size	_TIG_iO_xHZ6_1_emit_num_1_opaque_ptr_1, 8
_TIG_iO_xHZ6_1_emit_num_1_opaque_ptr_1:
	.zero	8
	.globl	_TIG_iO_xHZ6_1_emit_string_constant_1_opaque_list_2
	.align 8
	.type	_TIG_iO_xHZ6_1_emit_string_constant_1_opaque_list_2, @object
	.size	_TIG_iO_xHZ6_1_emit_string_constant_1_opaque_list_2, 8
_TIG_iO_xHZ6_1_emit_string_constant_1_opaque_list_2:
	.zero	8
	.globl	_TIG_iO_xHZ6_1_compile_1_opaque_ptr_1
	.align 8
	.type	_TIG_iO_xHZ6_1_compile_1_opaque_ptr_1, @object
	.size	_TIG_iO_xHZ6_1_compile_1_opaque_ptr_1, 8
_TIG_iO_xHZ6_1_compile_1_opaque_ptr_1:
	.zero	8
	.globl	_TIG_iO_xHZ6_1_match_long_token_1_opaque_ptr_1
	.align 8
	.type	_TIG_iO_xHZ6_1_match_long_token_1_opaque_ptr_1, @object
	.size	_TIG_iO_xHZ6_1_match_long_token_1_opaque_ptr_1, 8
_TIG_iO_xHZ6_1_match_long_token_1_opaque_ptr_1:
	.zero	8
	.globl	_TIG_iO_xHZ6_1_compile_1_opaque_ptr_2
	.align 8
	.type	_TIG_iO_xHZ6_1_compile_1_opaque_ptr_2, @object
	.size	_TIG_iO_xHZ6_1_compile_1_opaque_ptr_2, 8
_TIG_iO_xHZ6_1_compile_1_opaque_ptr_2:
	.zero	8
	.globl	_TIG_iO_xHZ6_1___bswap_16_1_opaque_ptr_1
	.align 8
	.type	_TIG_iO_xHZ6_1___bswap_16_1_opaque_ptr_1, @object
	.size	_TIG_iO_xHZ6_1___bswap_16_1_opaque_ptr_1, 8
_TIG_iO_xHZ6_1___bswap_16_1_opaque_ptr_1:
	.zero	8
	.globl	_TIG_iO_xHZ6_1_lookup_ins_1_opaque_ptr_2
	.align 8
	.type	_TIG_iO_xHZ6_1_lookup_ins_1_opaque_ptr_2, @object
	.size	_TIG_iO_xHZ6_1_lookup_ins_1_opaque_ptr_2, 8
_TIG_iO_xHZ6_1_lookup_ins_1_opaque_ptr_2:
	.zero	8
	.globl	_TIG_iO_xHZ6_1_emit_1_opaque_list_2
	.align 8
	.type	_TIG_iO_xHZ6_1_emit_1_opaque_list_2, @object
	.size	_TIG_iO_xHZ6_1_emit_1_opaque_list_2, 8
_TIG_iO_xHZ6_1_emit_1_opaque_list_2:
	.zero	8
	.globl	_TIG_iO_xHZ6_1_q_save_1_opaque_list_1
	.align 8
	.type	_TIG_iO_xHZ6_1_q_save_1_opaque_list_1, @object
	.size	_TIG_iO_xHZ6_1_q_save_1_opaque_list_1, 8
_TIG_iO_xHZ6_1_q_save_1_opaque_list_1:
	.zero	8
	.globl	_TIG_iO_xHZ6_1_emit_byte_1_opaque_ptr_2
	.align 8
	.type	_TIG_iO_xHZ6_1_emit_byte_1_opaque_ptr_2, @object
	.size	_TIG_iO_xHZ6_1_emit_byte_1_opaque_ptr_2, 8
_TIG_iO_xHZ6_1_emit_byte_1_opaque_ptr_2:
	.zero	8
	.globl	_TIG_iO_xHZ6_1_import_builtin_objects_1_opaque_ptr_1
	.align 8
	.type	_TIG_iO_xHZ6_1_import_builtin_objects_1_opaque_ptr_1, @object
	.size	_TIG_iO_xHZ6_1_import_builtin_objects_1_opaque_ptr_1, 8
_TIG_iO_xHZ6_1_import_builtin_objects_1_opaque_ptr_1:
	.zero	8
	.globl	_TIG_iO_xHZ6_1_emit_hash_definition_1_opaque_ptr_2
	.align 8
	.type	_TIG_iO_xHZ6_1_emit_hash_definition_1_opaque_ptr_2, @object
	.size	_TIG_iO_xHZ6_1_emit_hash_definition_1_opaque_ptr_2, 8
_TIG_iO_xHZ6_1_emit_hash_definition_1_opaque_ptr_2:
	.zero	8
	.local	long_tokens
	.comm	long_tokens,120,32
	.globl	_TIG_iO_xHZ6_1_setattr_1_opaque_ptr_2
	.align 8
	.type	_TIG_iO_xHZ6_1_setattr_1_opaque_ptr_2, @object
	.size	_TIG_iO_xHZ6_1_setattr_1_opaque_ptr_2, 8
_TIG_iO_xHZ6_1_setattr_1_opaque_ptr_2:
	.zero	8
	.globl	_TIG_iO_xHZ6_1_calc_hash_1_opaque_ptr_1
	.align 8
	.type	_TIG_iO_xHZ6_1_calc_hash_1_opaque_ptr_1, @object
	.size	_TIG_iO_xHZ6_1_calc_hash_1_opaque_ptr_1, 8
_TIG_iO_xHZ6_1_calc_hash_1_opaque_ptr_1:
	.zero	8
	.globl	_TIG_iO_xHZ6_1_print_obj_1_opaque_ptr_2
	.align 8
	.type	_TIG_iO_xHZ6_1_print_obj_1_opaque_ptr_2, @object
	.size	_TIG_iO_xHZ6_1_print_obj_1_opaque_ptr_2, 8
_TIG_iO_xHZ6_1_print_obj_1_opaque_ptr_2:
	.zero	8
	.globl	_TIG_iO_xHZ6_1_lookup_ins_1_opaque_list_1
	.align 8
	.type	_TIG_iO_xHZ6_1_lookup_ins_1_opaque_list_1, @object
	.size	_TIG_iO_xHZ6_1_lookup_ins_1_opaque_list_1, 8
_TIG_iO_xHZ6_1_lookup_ins_1_opaque_list_1:
	.zero	8
	.globl	_TIG_iO_xHZ6_1_die_1_opaque_ptr_1
	.align 8
	.type	_TIG_iO_xHZ6_1_die_1_opaque_ptr_1, @object
	.size	_TIG_iO_xHZ6_1_die_1_opaque_ptr_1, 8
_TIG_iO_xHZ6_1_die_1_opaque_ptr_1:
	.zero	8
	.globl	_TIG_iO_xHZ6_1_emit_string_constant_1_opaque_ptr_1
	.align 8
	.type	_TIG_iO_xHZ6_1_emit_string_constant_1_opaque_ptr_1, @object
	.size	_TIG_iO_xHZ6_1_emit_string_constant_1_opaque_ptr_1, 8
_TIG_iO_xHZ6_1_emit_string_constant_1_opaque_ptr_1:
	.zero	8
	.globl	_TIG_iO_xHZ6_1_expr_1_opaque_ptr_2
	.align 8
	.type	_TIG_iO_xHZ6_1_expr_1_opaque_ptr_2, @object
	.size	_TIG_iO_xHZ6_1_expr_1_opaque_ptr_2, 8
_TIG_iO_xHZ6_1_expr_1_opaque_ptr_2:
	.zero	8
	.globl	_TIG_iO_xHZ6_1_cmp_1_opaque_ptr_2
	.align 8
	.type	_TIG_iO_xHZ6_1_cmp_1_opaque_ptr_2, @object
	.size	_TIG_iO_xHZ6_1_cmp_1_opaque_ptr_2, 8
_TIG_iO_xHZ6_1_cmp_1_opaque_ptr_2:
	.zero	8
	.globl	_TIG_iO_xHZ6_1_get_opt_1_opaque_ptr_2
	.align 8
	.type	_TIG_iO_xHZ6_1_get_opt_1_opaque_ptr_2, @object
	.size	_TIG_iO_xHZ6_1_get_opt_1_opaque_ptr_2, 8
_TIG_iO_xHZ6_1_get_opt_1_opaque_ptr_2:
	.zero	8
	.globl	_TIG_iO_xHZ6_1_emit_string_constant_1_opaque_ptr_2
	.align 8
	.type	_TIG_iO_xHZ6_1_emit_string_constant_1_opaque_ptr_2, @object
	.size	_TIG_iO_xHZ6_1_emit_string_constant_1_opaque_ptr_2, 8
_TIG_iO_xHZ6_1_emit_string_constant_1_opaque_ptr_2:
	.zero	8
	.globl	_TIG_iO_xHZ6_1_disasm_1_opaque_list_1
	.align 8
	.type	_TIG_iO_xHZ6_1_disasm_1_opaque_list_1, @object
	.size	_TIG_iO_xHZ6_1_disasm_1_opaque_list_1, 8
_TIG_iO_xHZ6_1_disasm_1_opaque_list_1:
	.zero	8
	.globl	_TIG_iO_xHZ6_1_emit_byte_1_opaque_ptr_1
	.align 8
	.type	_TIG_iO_xHZ6_1_emit_byte_1_opaque_ptr_1, @object
	.size	_TIG_iO_xHZ6_1_emit_byte_1_opaque_ptr_1, 8
_TIG_iO_xHZ6_1_emit_byte_1_opaque_ptr_1:
	.zero	8
	.globl	_TIG_iO_xHZ6_1_is_leftmost_1_opaque_ptr_1
	.align 8
	.type	_TIG_iO_xHZ6_1_is_leftmost_1_opaque_ptr_1, @object
	.size	_TIG_iO_xHZ6_1_is_leftmost_1_opaque_ptr_1, 8
_TIG_iO_xHZ6_1_is_leftmost_1_opaque_ptr_1:
	.zero	8
	.globl	_TIG_iO_xHZ6_1___uint16_identity_1_opaque_list_1
	.align 8
	.type	_TIG_iO_xHZ6_1___uint16_identity_1_opaque_list_1, @object
	.size	_TIG_iO_xHZ6_1___uint16_identity_1_opaque_list_1, 8
_TIG_iO_xHZ6_1___uint16_identity_1_opaque_list_1:
	.zero	8
	.globl	_TIG_iO_xHZ6_1_tokenize_1_opaque_list_2
	.align 8
	.type	_TIG_iO_xHZ6_1_tokenize_1_opaque_list_2, @object
	.size	_TIG_iO_xHZ6_1_tokenize_1_opaque_list_2, 8
_TIG_iO_xHZ6_1_tokenize_1_opaque_list_2:
	.zero	8
	.globl	_TIG_iO_xHZ6_1_expand_code_1_opaque_list_1
	.align 8
	.type	_TIG_iO_xHZ6_1_expand_code_1_opaque_list_1, @object
	.size	_TIG_iO_xHZ6_1_expand_code_1_opaque_list_1, 8
_TIG_iO_xHZ6_1_expand_code_1_opaque_list_1:
	.zero	8
	.globl	_TIG_iO_xHZ6_1_import_builtin_objects_1_opaque_list_2
	.align 8
	.type	_TIG_iO_xHZ6_1_import_builtin_objects_1_opaque_list_2, @object
	.size	_TIG_iO_xHZ6_1_import_builtin_objects_1_opaque_list_2, 8
_TIG_iO_xHZ6_1_import_builtin_objects_1_opaque_list_2:
	.zero	8
	.globl	_TIG_iO_xHZ6_1_push_1_opaque_ptr_2
	.align 8
	.type	_TIG_iO_xHZ6_1_push_1_opaque_ptr_2, @object
	.size	_TIG_iO_xHZ6_1_push_1_opaque_ptr_2, 8
_TIG_iO_xHZ6_1_push_1_opaque_ptr_2:
	.zero	8
	.globl	_TIG_iO_xHZ6_1_emit_function_call_1_opaque_ptr_1
	.align 8
	.type	_TIG_iO_xHZ6_1_emit_function_call_1_opaque_ptr_1, @object
	.size	_TIG_iO_xHZ6_1_emit_function_call_1_opaque_ptr_1, 8
_TIG_iO_xHZ6_1_emit_function_call_1_opaque_ptr_1:
	.zero	8
	.globl	_TIG_iO_xHZ6_1_q_free_1_opaque_ptr_1
	.align 8
	.type	_TIG_iO_xHZ6_1_q_free_1_opaque_ptr_1, @object
	.size	_TIG_iO_xHZ6_1_q_free_1_opaque_ptr_1, 8
_TIG_iO_xHZ6_1_q_free_1_opaque_ptr_1:
	.zero	8
	.globl	_TIG_iO_xHZ6_1_emit_1_opaque_ptr_2
	.align 8
	.type	_TIG_iO_xHZ6_1_emit_1_opaque_ptr_2, @object
	.size	_TIG_iO_xHZ6_1_emit_1_opaque_ptr_2, 8
_TIG_iO_xHZ6_1_emit_1_opaque_ptr_2:
	.zero	8
	.globl	_TIG_iO_xHZ6_1_execute_1_opaque_ptr_1
	.align 8
	.type	_TIG_iO_xHZ6_1_execute_1_opaque_ptr_1, @object
	.size	_TIG_iO_xHZ6_1_execute_1_opaque_ptr_1, 8
_TIG_iO_xHZ6_1_execute_1_opaque_ptr_1:
	.zero	8
	.globl	_TIG_iO_xHZ6_1_hash_str_1_opaque_ptr_2
	.align 8
	.type	_TIG_iO_xHZ6_1_hash_str_1_opaque_ptr_2, @object
	.size	_TIG_iO_xHZ6_1_hash_str_1_opaque_ptr_2, 8
_TIG_iO_xHZ6_1_hash_str_1_opaque_ptr_2:
	.zero	8
	.globl	_TIG_iO_xHZ6_1_prio_1_opaque_list_1
	.align 8
	.type	_TIG_iO_xHZ6_1_prio_1_opaque_list_1, @object
	.size	_TIG_iO_xHZ6_1_prio_1_opaque_list_1, 8
_TIG_iO_xHZ6_1_prio_1_opaque_list_1:
	.zero	8
	.globl	_TIG_iO_xHZ6_1_init_op_tab_1_opaque_list_2
	.align 8
	.type	_TIG_iO_xHZ6_1_init_op_tab_1_opaque_list_2, @object
	.size	_TIG_iO_xHZ6_1_init_op_tab_1_opaque_list_2, 8
_TIG_iO_xHZ6_1_init_op_tab_1_opaque_list_2:
	.zero	8
	.globl	_TIG_iO_xHZ6_1_emit_num_1_opaque_ptr_2
	.align 8
	.type	_TIG_iO_xHZ6_1_emit_num_1_opaque_ptr_2, @object
	.size	_TIG_iO_xHZ6_1_emit_num_1_opaque_ptr_2, 8
_TIG_iO_xHZ6_1_emit_num_1_opaque_ptr_2:
	.zero	8
	.globl	_TIG_iO_xHZ6_1___uint32_identity_1_opaque_ptr_1
	.align 8
	.type	_TIG_iO_xHZ6_1___uint32_identity_1_opaque_ptr_1, @object
	.size	_TIG_iO_xHZ6_1___uint32_identity_1_opaque_ptr_1, 8
_TIG_iO_xHZ6_1___uint32_identity_1_opaque_ptr_1:
	.zero	8
	.globl	_TIG_iO_xHZ6_1_hash_str_1_opaque_list_2
	.align 8
	.type	_TIG_iO_xHZ6_1_hash_str_1_opaque_list_2, @object
	.size	_TIG_iO_xHZ6_1_hash_str_1_opaque_list_2, 8
_TIG_iO_xHZ6_1_hash_str_1_opaque_list_2:
	.zero	8
	.globl	_TIG_iO_xHZ6_1_lookup_1_opaque_list_2
	.align 8
	.type	_TIG_iO_xHZ6_1_lookup_1_opaque_list_2, @object
	.size	_TIG_iO_xHZ6_1_lookup_1_opaque_list_2, 8
_TIG_iO_xHZ6_1_lookup_1_opaque_list_2:
	.zero	8
	.globl	_TIG_iO_xHZ6_1_execute_1_opaque_ptr_2
	.align 8
	.type	_TIG_iO_xHZ6_1_execute_1_opaque_ptr_2, @object
	.size	_TIG_iO_xHZ6_1_execute_1_opaque_ptr_2, 8
_TIG_iO_xHZ6_1_execute_1_opaque_ptr_2:
	.zero	8
	.local	op_tab
	.comm	op_tab,1024,32
	.globl	_TIG_iO_xHZ6_1_q_load_1_opaque_ptr_1
	.align 8
	.type	_TIG_iO_xHZ6_1_q_load_1_opaque_ptr_1, @object
	.size	_TIG_iO_xHZ6_1_q_load_1_opaque_ptr_1, 8
_TIG_iO_xHZ6_1_q_load_1_opaque_ptr_1:
	.zero	8
	.globl	_TIG_IZ_xHZ6_envp
	.align 8
	.type	_TIG_IZ_xHZ6_envp, @object
	.size	_TIG_IZ_xHZ6_envp, 8
_TIG_IZ_xHZ6_envp:
	.zero	8
	.globl	_TIG_iO_xHZ6_1_is_lvalue_1_opaque_list_1
	.align 8
	.type	_TIG_iO_xHZ6_1_is_lvalue_1_opaque_list_1, @object
	.size	_TIG_iO_xHZ6_1_is_lvalue_1_opaque_list_1, 8
_TIG_iO_xHZ6_1_is_lvalue_1_opaque_list_1:
	.zero	8
	.globl	_TIG_iO_xHZ6_1___bswap_16_1_opaque_list_1
	.align 8
	.type	_TIG_iO_xHZ6_1___bswap_16_1_opaque_list_1, @object
	.size	_TIG_iO_xHZ6_1___bswap_16_1_opaque_list_1, 8
_TIG_iO_xHZ6_1___bswap_16_1_opaque_list_1:
	.zero	8
	.globl	_TIG_iO_xHZ6_1_setattr_1_opaque_list_2
	.align 8
	.type	_TIG_iO_xHZ6_1_setattr_1_opaque_list_2, @object
	.size	_TIG_iO_xHZ6_1_setattr_1_opaque_list_2, 8
_TIG_iO_xHZ6_1_setattr_1_opaque_list_2:
	.zero	8
	.globl	_TIG_iO_xHZ6_1_cmp_vec_1_opaque_ptr_1
	.align 8
	.type	_TIG_iO_xHZ6_1_cmp_vec_1_opaque_ptr_1, @object
	.size	_TIG_iO_xHZ6_1_cmp_vec_1_opaque_ptr_1, 8
_TIG_iO_xHZ6_1_cmp_vec_1_opaque_ptr_1:
	.zero	8
	.globl	_TIG_iO_xHZ6_1_qaz_1_opaque_list_2
	.align 8
	.type	_TIG_iO_xHZ6_1_qaz_1_opaque_list_2, @object
	.size	_TIG_iO_xHZ6_1_qaz_1_opaque_list_2, 8
_TIG_iO_xHZ6_1_qaz_1_opaque_list_2:
	.zero	8
	.globl	_TIG_iO_xHZ6_1_q_load_1_opaque_list_2
	.align 8
	.type	_TIG_iO_xHZ6_1_q_load_1_opaque_list_2, @object
	.size	_TIG_iO_xHZ6_1_q_load_1_opaque_list_2, 8
_TIG_iO_xHZ6_1_q_load_1_opaque_list_2:
	.zero	8
	.globl	_TIG_iO_xHZ6_1___uint64_identity_1_opaque_list_2
	.align 8
	.type	_TIG_iO_xHZ6_1___uint64_identity_1_opaque_list_2, @object
	.size	_TIG_iO_xHZ6_1___uint64_identity_1_opaque_list_2, 8
_TIG_iO_xHZ6_1___uint64_identity_1_opaque_list_2:
	.zero	8
	.globl	_TIG_iO_xHZ6_1_usage_1_opaque_list_2
	.align 8
	.type	_TIG_iO_xHZ6_1_usage_1_opaque_list_2, @object
	.size	_TIG_iO_xHZ6_1_usage_1_opaque_list_2, 8
_TIG_iO_xHZ6_1_usage_1_opaque_list_2:
	.zero	8
	.globl	_TIG_IZ_xHZ6_argv
	.align 8
	.type	_TIG_IZ_xHZ6_argv, @object
	.size	_TIG_IZ_xHZ6_argv, 8
_TIG_IZ_xHZ6_argv:
	.zero	8
	.globl	_TIG_iO_xHZ6_1_lookup_1_opaque_list_1
	.align 8
	.type	_TIG_iO_xHZ6_1_lookup_1_opaque_list_1, @object
	.size	_TIG_iO_xHZ6_1_lookup_1_opaque_list_1, 8
_TIG_iO_xHZ6_1_lookup_1_opaque_list_1:
	.zero	8
	.globl	_TIG_iO_xHZ6_1___uint16_identity_1_opaque_ptr_1
	.align 8
	.type	_TIG_iO_xHZ6_1___uint16_identity_1_opaque_ptr_1, @object
	.size	_TIG_iO_xHZ6_1___uint16_identity_1_opaque_ptr_1, 8
_TIG_iO_xHZ6_1___uint16_identity_1_opaque_ptr_1:
	.zero	8
	.globl	_TIG_iO_xHZ6_1_push_1_opaque_list_1
	.align 8
	.type	_TIG_iO_xHZ6_1_push_1_opaque_list_1, @object
	.size	_TIG_iO_xHZ6_1_push_1_opaque_list_1, 8
_TIG_iO_xHZ6_1_push_1_opaque_list_1:
	.zero	8
	.globl	_TIG_iO_xHZ6_1_q_save_1_opaque_ptr_2
	.align 8
	.type	_TIG_iO_xHZ6_1_q_save_1_opaque_ptr_2, @object
	.size	_TIG_iO_xHZ6_1_q_save_1_opaque_ptr_2, 8
_TIG_iO_xHZ6_1_q_save_1_opaque_ptr_2:
	.zero	8
	.globl	_TIG_iO_xHZ6_1_reduce_1_opaque_list_1
	.align 8
	.type	_TIG_iO_xHZ6_1_reduce_1_opaque_list_1, @object
	.size	_TIG_iO_xHZ6_1_reduce_1_opaque_list_1, 8
_TIG_iO_xHZ6_1_reduce_1_opaque_list_1:
	.zero	8
	.globl	_TIG_iO_xHZ6_1_import_builtin_objects_1_opaque_list_1
	.align 8
	.type	_TIG_iO_xHZ6_1_import_builtin_objects_1_opaque_list_1, @object
	.size	_TIG_iO_xHZ6_1_import_builtin_objects_1_opaque_list_1, 8
_TIG_iO_xHZ6_1_import_builtin_objects_1_opaque_list_1:
	.zero	8
	.globl	_TIG_iO_xHZ6_1_usage_1_opaque_ptr_2
	.align 8
	.type	_TIG_iO_xHZ6_1_usage_1_opaque_ptr_2, @object
	.size	_TIG_iO_xHZ6_1_usage_1_opaque_ptr_2, 8
_TIG_iO_xHZ6_1_usage_1_opaque_ptr_2:
	.zero	8
	.text
	.type	is_leftmost, @function
is_leftmost:
.LFB0:
	.cfi_startproc
	endbr64
	pushq	%rbp
	.cfi_def_cfa_offset 16
	.cfi_offset 6, -16
	movq	%rsp, %rbp
	.cfi_def_cfa_register 6
	subq	$64, %rsp
	movq	%rdi, -56(%rbp)
#APP
# 77 "/usr/include/stdlib.h" 1
	##_ANNOTATION_INITIALREGION_-TIG-iO-xHZ6-1-is-leftmost--68
# 0 "" 2
# 81 "/usr/include/stdlib.h" 1
	##_ANNOTATION_ATOMICREGION_-TIG-iO-xHZ6-1-is-leftmost--67
# 0 "" 2
#NO_APP
	movl	$24, %edi
	call	malloc@PLT
	movq	%rax, -24(%rbp)
	movq	-24(%rbp), %rax
	movq	-24(%rbp), %rdx
	movq	%rdx, 8(%rax)
	movq	-24(%rbp), %rax
	movq	-24(%rbp), %rdx
	movq	%rdx, 16(%rax)
	movq	-24(%rbp), %rax
	movq	%rax, _TIG_iO_xHZ6_1_is_leftmost_1_opaque_list_1(%rip)
	call	rand@PLT
	movl	%eax, -36(%rbp)
	movl	$24, %edi
	call	malloc@PLT
	movq	%rax, -16(%rbp)
	movq	-16(%rbp), %rax
	movl	$0, (%rax)
	movq	_TIG_iO_xHZ6_1_is_leftmost_1_opaque_list_1(%rip), %rax
	movq	8(%rax), %rdx
	movq	-16(%rbp), %rax
	movq	%rdx, 8(%rax)
	movq	_TIG_iO_xHZ6_1_is_leftmost_1_opaque_list_1(%rip), %rdx
	movq	-16(%rbp), %rax
	movq	%rdx, 16(%rax)
	movq	_TIG_iO_xHZ6_1_is_leftmost_1_opaque_list_1(%rip), %rax
	movq	8(%rax), %rax
	movq	-16(%rbp), %rdx
	movq	%rdx, 16(%rax)
	movq	_TIG_iO_xHZ6_1_is_leftmost_1_opaque_list_1(%rip), %rax
	movq	-16(%rbp), %rdx
	movq	%rdx, 8(%rax)
	call	rand@PLT
	movl	%eax, -32(%rbp)
	movl	$24, %edi
	call	malloc@PLT
	movq	%rax, -8(%rbp)
	movq	-8(%rbp), %rax
	movl	-32(%rbp), %edx
	movl	%edx, (%rax)
	movq	_TIG_iO_xHZ6_1_is_leftmost_1_opaque_list_1(%rip), %rax
	movq	8(%rax), %rdx
	movq	-8(%rbp), %rax
	movq	%rdx, 8(%rax)
	movq	_TIG_iO_xHZ6_1_is_leftmost_1_opaque_list_1(%rip), %rdx
	movq	-8(%rbp), %rax
	movq	%rdx, 16(%rax)
	movq	_TIG_iO_xHZ6_1_is_leftmost_1_opaque_list_1(%rip), %rax
	movq	8(%rax), %rax
	movq	-8(%rbp), %rdx
	movq	%rdx, 16(%rax)
	movq	_TIG_iO_xHZ6_1_is_leftmost_1_opaque_list_1(%rip), %rax
	movq	-8(%rbp), %rdx
	movq	%rdx, 8(%rax)
	movq	_TIG_iO_xHZ6_1_is_leftmost_1_opaque_list_1(%rip), %rax
	movq	8(%rax), %rax
	movq	%rax, _TIG_iO_xHZ6_1_is_leftmost_1_opaque_ptr_1(%rip)
	movq	_TIG_iO_xHZ6_1_is_leftmost_1_opaque_ptr_1(%rip), %rax
	movq	%rax, _TIG_iO_xHZ6_1_is_leftmost_1_opaque_ptr_2(%rip)
	movq	_TIG_iO_xHZ6_1_is_leftmost_1_opaque_ptr_2(%rip), %rax
	movq	8(%rax), %rax
	movq	%rax, _TIG_iO_xHZ6_1_is_leftmost_1_opaque_ptr_2(%rip)
	nop
	nop
	movq	_TIG_iO_xHZ6_1_usage_1_opaque_ptr_1(%rip), %rdx
	movq	_TIG_iO_xHZ6_1_usage_1_opaque_ptr_2(%rip), %rax
	cmpq	%rax, %rdx
	je	.L2
	movl	$0, %esi
	movl	$0, %edi
	call	match_long_token
	movl	%eax, -36(%rbp)
.L2:
	movq	-56(%rbp), %rax
	movq	56(%rax), %rax
	testq	%rax, %rax
	je	.L11
	movq	-56(%rbp), %rax
	movq	56(%rax), %rax
	movq	40(%rax), %rax
	movq	%rax, %rdx
	movq	-56(%rbp), %rax
	cmpq	%rax, %rdx
	jne	.L12
	movq	-56(%rbp), %rax
	movq	56(%rax), %rax
	movl	32(%rax), %eax
	cmpl	$61, %eax
	jne	.L13
	movl	$1, %eax
	jmp	.L6
.L3:
.L11:
	nop
	jmp	.L7
.L12:
	nop
	jmp	.L7
.L13:
	nop
.L7:
	movq	-56(%rbp), %rax
	movq	56(%rax), %rax
	testq	%rax, %rax
	je	.L8
	movq	-56(%rbp), %rax
	movq	56(%rax), %rax
	movq	40(%rax), %rax
	movq	%rax, %rdx
	movq	-56(%rbp), %rax
	cmpq	%rax, %rdx
	jne	.L9
	movq	-56(%rbp), %rax
	movq	56(%rax), %rax
	movl	32(%rax), %eax
	cmpl	$46, %eax
	jne	.L10
	movq	-56(%rbp), %rax
	movq	56(%rax), %rax
	movq	%rax, %rdi
	call	is_leftmost
	movl	%eax, -28(%rbp)
	movl	-28(%rbp), %eax
	jmp	.L6
.L10:
	movl	$0, %eax
	jmp	.L6
.L9:
	movl	$0, %eax
	jmp	.L6
.L8:
	movl	$0, %eax
.L6:
	leave
	.cfi_def_cfa 7, 8
	ret
	.cfi_endproc
.LFE0:
	.size	is_leftmost, .-is_leftmost
	.type	bubble_sort_ops_by_priority, @function
bubble_sort_ops_by_priority:
.LFB1:
	.cfi_startproc
	endbr64
	pushq	%rbp
	.cfi_def_cfa_offset 16
	.cfi_offset 6, -16
	movq	%rsp, %rbp
	.cfi_def_cfa_register 6
	subq	$112, %rsp
	movq	%rdi, -104(%rbp)
	movl	%esi, -108(%rbp)
#APP
# 386 "TheProjecter_qvm_q.c" 1
	##_ANNOTATION_INITIALREGION_-TIG-iO-xHZ6-1-bubble-sort-ops-by-priority--14
# 0 "" 2
# 390 "TheProjecter_qvm_q.c" 1
	##_ANNOTATION_ATOMICREGION_-TIG-iO-xHZ6-1-bubble-sort-ops-by-priority--13
# 0 "" 2
#NO_APP
	movl	$24, %edi
	call	malloc@PLT
	movq	%rax, -48(%rbp)
	movq	-48(%rbp), %rax
	movq	-48(%rbp), %rdx
	movq	%rdx, (%rax)
	movq	-48(%rbp), %rax
	movq	-48(%rbp), %rdx
	movq	%rdx, 8(%rax)
	movq	-48(%rbp), %rax
	movq	%rax, _TIG_iO_xHZ6_1_bubble_sort_ops_by_priority_1_opaque_list_1(%rip)
	call	rand@PLT
	movl	%eax, -88(%rbp)
	movl	$24, %edi
	call	malloc@PLT
	movq	%rax, -40(%rbp)
	movq	-40(%rbp), %rax
	movl	$0, 16(%rax)
	movq	_TIG_iO_xHZ6_1_bubble_sort_ops_by_priority_1_opaque_list_1(%rip), %rax
	movq	(%rax), %rdx
	movq	-40(%rbp), %rax
	movq	%rdx, (%rax)
	movq	_TIG_iO_xHZ6_1_bubble_sort_ops_by_priority_1_opaque_list_1(%rip), %rdx
	movq	-40(%rbp), %rax
	movq	%rdx, 8(%rax)
	movq	_TIG_iO_xHZ6_1_bubble_sort_ops_by_priority_1_opaque_list_1(%rip), %rax
	movq	(%rax), %rax
	movq	-40(%rbp), %rdx
	movq	%rdx, 8(%rax)
	movq	_TIG_iO_xHZ6_1_bubble_sort_ops_by_priority_1_opaque_list_1(%rip), %rax
	movq	-40(%rbp), %rdx
	movq	%rdx, (%rax)
	call	rand@PLT
	movl	%eax, -84(%rbp)
	movl	$24, %edi
	call	malloc@PLT
	movq	%rax, -32(%rbp)
	movq	-32(%rbp), %rax
	movl	-84(%rbp), %edx
	movl	%edx, 16(%rax)
	movq	_TIG_iO_xHZ6_1_bubble_sort_ops_by_priority_1_opaque_list_1(%rip), %rax
	movq	(%rax), %rdx
	movq	-32(%rbp), %rax
	movq	%rdx, (%rax)
	movq	_TIG_iO_xHZ6_1_bubble_sort_ops_by_priority_1_opaque_list_1(%rip), %rdx
	movq	-32(%rbp), %rax
	movq	%rdx, 8(%rax)
	movq	_TIG_iO_xHZ6_1_bubble_sort_ops_by_priority_1_opaque_list_1(%rip), %rax
	movq	(%rax), %rax
	movq	-32(%rbp), %rdx
	movq	%rdx, 8(%rax)
	movq	_TIG_iO_xHZ6_1_bubble_sort_ops_by_priority_1_opaque_list_1(%rip), %rax
	movq	-32(%rbp), %rdx
	movq	%rdx, (%rax)
	call	rand@PLT
	movl	%eax, -80(%rbp)
	movl	$24, %edi
	call	malloc@PLT
	movq	%rax, -24(%rbp)
	movl	-80(%rbp), %eax
	leal	(%rax,%rax), %edx
	movq	-24(%rbp), %rax
	movl	%edx, 16(%rax)
	movq	_TIG_iO_xHZ6_1_bubble_sort_ops_by_priority_1_opaque_list_1(%rip), %rax
	movq	(%rax), %rdx
	movq	-24(%rbp), %rax
	movq	%rdx, (%rax)
	movq	_TIG_iO_xHZ6_1_bubble_sort_ops_by_priority_1_opaque_list_1(%rip), %rdx
	movq	-24(%rbp), %rax
	movq	%rdx, 8(%rax)
	movq	_TIG_iO_xHZ6_1_bubble_sort_ops_by_priority_1_opaque_list_1(%rip), %rax
	movq	(%rax), %rax
	movq	-24(%rbp), %rdx
	movq	%rdx, 8(%rax)
	movq	_TIG_iO_xHZ6_1_bubble_sort_ops_by_priority_1_opaque_list_1(%rip), %rax
	movq	-24(%rbp), %rdx
	movq	%rdx, (%rax)
	call	rand@PLT
	movl	%eax, -76(%rbp)
	movl	$24, %edi
	call	malloc@PLT
	movq	%rax, -16(%rbp)
	movl	-76(%rbp), %edx
	movl	%edx, %eax
	addl	%eax, %eax
	addl	%eax, %edx
	movq	-16(%rbp), %rax
	movl	%edx, 16(%rax)
	movq	_TIG_iO_xHZ6_1_bubble_sort_ops_by_priority_1_opaque_list_1(%rip), %rax
	movq	(%rax), %rdx
	movq	-16(%rbp), %rax
	movq	%rdx, (%rax)
	movq	_TIG_iO_xHZ6_1_bubble_sort_ops_by_priority_1_opaque_list_1(%rip), %rdx
	movq	-16(%rbp), %rax
	movq	%rdx, 8(%rax)
	movq	_TIG_iO_xHZ6_1_bubble_sort_ops_by_priority_1_opaque_list_1(%rip), %rax
	movq	(%rax), %rax
	movq	-16(%rbp), %rdx
	movq	%rdx, 8(%rax)
	movq	_TIG_iO_xHZ6_1_bubble_sort_ops_by_priority_1_opaque_list_1(%rip), %rax
	movq	-16(%rbp), %rdx
	movq	%rdx, (%rax)
	movq	_TIG_iO_xHZ6_1_bubble_sort_ops_by_priority_1_opaque_list_1(%rip), %rax
	movq	(%rax), %rax
	movq	%rax, _TIG_iO_xHZ6_1_bubble_sort_ops_by_priority_1_opaque_ptr_1(%rip)
	movq	_TIG_iO_xHZ6_1_bubble_sort_ops_by_priority_1_opaque_ptr_1(%rip), %rax
	movq	%rax, _TIG_iO_xHZ6_1_bubble_sort_ops_by_priority_1_opaque_ptr_2(%rip)
	movq	_TIG_iO_xHZ6_1_bubble_sort_ops_by_priority_1_opaque_ptr_2(%rip), %rax
	movq	(%rax), %rax
	movq	%rax, _TIG_iO_xHZ6_1_bubble_sort_ops_by_priority_1_opaque_ptr_2(%rip)
	nop
	nop
.L26:
	movl	$0, -92(%rbp)
	movl	$0, -96(%rbp)
	jmp	.L15
.L23:
	movl	-96(%rbp), %eax
	cltq
	leaq	0(,%rax,8), %rdx
	movq	-104(%rbp), %rax
	addq	%rdx, %rax
	movq	(%rax), %rax
	movl	32(%rax), %eax
	movl	%eax, %edi
	call	is_rtl
	movl	%eax, -72(%rbp)
	cmpl	$0, -72(%rbp)
	je	.L30
	movl	-96(%rbp), %eax
	cltq
	addq	$1, %rax
	leaq	0(,%rax,8), %rdx
	movq	-104(%rbp), %rax
	addq	%rdx, %rax
	movq	(%rax), %rax
	movl	32(%rax), %eax
	movl	%eax, %edi
	call	is_rtl
	movl	%eax, -68(%rbp)
	cmpl	$0, -68(%rbp)
	je	.L31
	movl	-96(%rbp), %eax
	cltq
	leaq	0(,%rax,8), %rdx
	movq	-104(%rbp), %rax
	addq	%rdx, %rax
	movq	(%rax), %rax
	movl	32(%rax), %eax
	movl	%eax, %edi
	call	prio
	movl	%eax, -64(%rbp)
	movl	-96(%rbp), %eax
	cltq
	addq	$1, %rax
	leaq	0(,%rax,8), %rdx
	movq	-104(%rbp), %rax
	addq	%rdx, %rax
	movq	(%rax), %rax
	movl	32(%rax), %eax
	movl	%eax, %edi
	call	prio
	movl	%eax, -60(%rbp)
	movl	-64(%rbp), %eax
	cmpl	-60(%rbp), %eax
	jne	.L32
	movl	-96(%rbp), %eax
	cltq
	leaq	0(,%rax,8), %rdx
	movq	-104(%rbp), %rax
	addq	%rdx, %rax
	movq	(%rax), %rax
	movq	%rax, %rdx
	movl	-96(%rbp), %eax
	cltq
	addq	$1, %rax
	leaq	0(,%rax,8), %rcx
	movq	-104(%rbp), %rax
	addq	%rcx, %rax
	movq	(%rax), %rax
	cmpq	%rax, %rdx
	jnb	.L33
	movl	-96(%rbp), %eax
	cltq
	leaq	0(,%rax,8), %rdx
	movq	-104(%rbp), %rax
	addq	%rdx, %rax
	movq	(%rax), %rax
	movq	%rax, -8(%rbp)
	movl	-96(%rbp), %eax
	cltq
	addq	$1, %rax
	leaq	0(,%rax,8), %rdx
	movq	-104(%rbp), %rax
	addq	%rdx, %rax
	movl	-96(%rbp), %edx
	movslq	%edx, %rdx
	leaq	0(,%rdx,8), %rcx
	movq	-104(%rbp), %rdx
	addq	%rcx, %rdx
	movq	(%rax), %rax
	movq	%rax, (%rdx)
	movl	-96(%rbp), %eax
	cltq
	addq	$1, %rax
	leaq	0(,%rax,8), %rdx
	movq	-104(%rbp), %rax
	addq	%rax, %rdx
	movq	-8(%rbp), %rax
	movq	%rax, (%rdx)
	movl	$1, -92(%rbp)
	jmp	.L20
.L16:
.L21:
.L30:
	nop
	jmp	.L22
.L31:
	nop
	jmp	.L22
.L32:
	nop
	jmp	.L22
.L33:
	nop
.L22:
	movl	-96(%rbp), %eax
	cltq
	leaq	0(,%rax,8), %rdx
	movq	-104(%rbp), %rax
	addq	%rdx, %rax
	movq	(%rax), %rax
	movl	32(%rax), %eax
	movl	%eax, %edi
	call	prio
	movl	%eax, -56(%rbp)
	movl	-96(%rbp), %eax
	cltq
	addq	$1, %rax
	leaq	0(,%rax,8), %rdx
	movq	-104(%rbp), %rax
	addq	%rdx, %rax
	movq	(%rax), %rax
	movl	32(%rax), %eax
	movl	%eax, %edi
	call	prio
	movl	%eax, -52(%rbp)
	movl	-56(%rbp), %eax
	cmpl	-52(%rbp), %eax
	jge	.L20
	movl	-96(%rbp), %eax
	cltq
	leaq	0(,%rax,8), %rdx
	movq	-104(%rbp), %rax
	addq	%rdx, %rax
	movq	(%rax), %rax
	movq	%rax, -8(%rbp)
	movl	-96(%rbp), %eax
	cltq
	addq	$1, %rax
	leaq	0(,%rax,8), %rdx
	movq	-104(%rbp), %rax
	addq	%rdx, %rax
	movl	-96(%rbp), %edx
	movslq	%edx, %rdx
	leaq	0(,%rdx,8), %rcx
	movq	-104(%rbp), %rdx
	addq	%rcx, %rdx
	movq	(%rax), %rax
	movq	%rax, (%rdx)
	movl	-96(%rbp), %eax
	cltq
	addq	$1, %rax
	leaq	0(,%rax,8), %rdx
	movq	-104(%rbp), %rax
	addq	%rax, %rdx
	movq	-8(%rbp), %rax
	movq	%rax, (%rdx)
	movl	$1, -92(%rbp)
.L20:
	addl	$1, -96(%rbp)
.L15:
	movl	-108(%rbp), %eax
	subl	$1, %eax
	cmpl	%eax, -96(%rbp)
	jl	.L23
	cmpl	$1, -92(%rbp)
	jne	.L34
	jmp	.L26
.L34:
	nop
	movq	_TIG_iO_xHZ6_1_usage_1_opaque_ptr_1(%rip), %rdx
	movq	_TIG_iO_xHZ6_1_usage_1_opaque_ptr_2(%rip), %rax
	cmpq	%rax, %rdx
	nop
	leave
	.cfi_def_cfa 7, 8
	ret
	.cfi_endproc
.LFE1:
	.size	bubble_sort_ops_by_priority, .-bubble_sort_ops_by_priority
	.section	.rodata
.LC0:
	.string	"lookup"
.LC1:
	.string	"TheProjecter_qvm_q.c"
.LC2:
	.string	"obj->type == TYPE_HASH"
	.text
	.type	lookup, @function
lookup:
.LFB2:
	.cfi_startproc
	endbr64
	pushq	%rbp
	.cfi_def_cfa_offset 16
	.cfi_offset 6, -16
	movq	%rsp, %rbp
	.cfi_def_cfa_register 6
	addq	$-128, %rsp
	movq	%rdi, -104(%rbp)
	movq	%rsi, -112(%rbp)
	movq	%rdx, -120(%rbp)
#APP
# 1090 "TheProjecter_qvm_q.c" 1
	##_ANNOTATION_INITIALREGION_-TIG-iO-xHZ6-1-lookup--76
# 0 "" 2
# 1094 "TheProjecter_qvm_q.c" 1
	##_ANNOTATION_ATOMICREGION_-TIG-iO-xHZ6-1-lookup--75
# 0 "" 2
#NO_APP
	movl	$24, %edi
	call	malloc@PLT
	movq	%rax, -72(%rbp)
	movq	-72(%rbp), %rax
	movq	-72(%rbp), %rdx
	movq	%rdx, (%rax)
	movq	-72(%rbp), %rax
	movq	-72(%rbp), %rdx
	movq	%rdx, 16(%rax)
	movq	-72(%rbp), %rax
	movq	%rax, _TIG_iO_xHZ6_1_lookup_1_opaque_list_1(%rip)
	call	rand@PLT
	movl	%eax, -96(%rbp)
	movl	$24, %edi
	call	malloc@PLT
	movq	%rax, -64(%rbp)
	movq	-64(%rbp), %rax
	movl	$0, 8(%rax)
	movq	_TIG_iO_xHZ6_1_lookup_1_opaque_list_1(%rip), %rax
	movq	(%rax), %rdx
	movq	-64(%rbp), %rax
	movq	%rdx, (%rax)
	movq	_TIG_iO_xHZ6_1_lookup_1_opaque_list_1(%rip), %rdx
	movq	-64(%rbp), %rax
	movq	%rdx, 16(%rax)
	movq	_TIG_iO_xHZ6_1_lookup_1_opaque_list_1(%rip), %rax
	movq	(%rax), %rax
	movq	-64(%rbp), %rdx
	movq	%rdx, 16(%rax)
	movq	_TIG_iO_xHZ6_1_lookup_1_opaque_list_1(%rip), %rax
	movq	-64(%rbp), %rdx
	movq	%rdx, (%rax)
	call	rand@PLT
	movl	%eax, -92(%rbp)
	movl	$24, %edi
	call	malloc@PLT
	movq	%rax, -56(%rbp)
	movq	-56(%rbp), %rax
	movl	-92(%rbp), %edx
	movl	%edx, 8(%rax)
	movq	_TIG_iO_xHZ6_1_lookup_1_opaque_list_1(%rip), %rax
	movq	(%rax), %rdx
	movq	-56(%rbp), %rax
	movq	%rdx, (%rax)
	movq	_TIG_iO_xHZ6_1_lookup_1_opaque_list_1(%rip), %rdx
	movq	-56(%rbp), %rax
	movq	%rdx, 16(%rax)
	movq	_TIG_iO_xHZ6_1_lookup_1_opaque_list_1(%rip), %rax
	movq	(%rax), %rax
	movq	-56(%rbp), %rdx
	movq	%rdx, 16(%rax)
	movq	_TIG_iO_xHZ6_1_lookup_1_opaque_list_1(%rip), %rax
	movq	-56(%rbp), %rdx
	movq	%rdx, (%rax)
	call	rand@PLT
	movl	%eax, -88(%rbp)
	movl	$24, %edi
	call	malloc@PLT
	movq	%rax, -48(%rbp)
	movl	-88(%rbp), %eax
	leal	(%rax,%rax), %edx
	movq	-48(%rbp), %rax
	movl	%edx, 8(%rax)
	movq	_TIG_iO_xHZ6_1_lookup_1_opaque_list_1(%rip), %rax
	movq	(%rax), %rdx
	movq	-48(%rbp), %rax
	movq	%rdx, (%rax)
	movq	_TIG_iO_xHZ6_1_lookup_1_opaque_list_1(%rip), %rdx
	movq	-48(%rbp), %rax
	movq	%rdx, 16(%rax)
	movq	_TIG_iO_xHZ6_1_lookup_1_opaque_list_1(%rip), %rax
	movq	(%rax), %rax
	movq	-48(%rbp), %rdx
	movq	%rdx, 16(%rax)
	movq	_TIG_iO_xHZ6_1_lookup_1_opaque_list_1(%rip), %rax
	movq	-48(%rbp), %rdx
	movq	%rdx, (%rax)
	movq	_TIG_iO_xHZ6_1_lookup_1_opaque_list_1(%rip), %rax
	movq	(%rax), %rax
	movq	%rax, _TIG_iO_xHZ6_1_lookup_1_opaque_ptr_1(%rip)
	movq	_TIG_iO_xHZ6_1_lookup_1_opaque_ptr_1(%rip), %rax
	movq	%rax, _TIG_iO_xHZ6_1_lookup_1_opaque_ptr_2(%rip)
	nop
	nop
	movq	_TIG_iO_xHZ6_1_usage_1_opaque_ptr_1(%rip), %rdx
	movq	_TIG_iO_xHZ6_1_usage_1_opaque_ptr_2(%rip), %rax
	cmpq	%rax, %rdx
	je	.L36
	movl	$0, %esi
	movl	$0, %edi
	call	cmp
	movl	%eax, -92(%rbp)
.L36:
	movq	-104(%rbp), %rax
	movzbl	(%rax), %eax
	cmpb	$3, %al
	je	.L37
	leaq	.LC0(%rip), %rax
	movq	%rax, %rcx
	movl	$602, %edx
	leaq	.LC1(%rip), %rax
	movq	%rax, %rsi
	leaq	.LC2(%rip), %rax
	movq	%rax, %rdi
	call	__assert_fail@PLT
.L37:
	movq	-104(%rbp), %rax
	movq	8(%rax), %rax
	movq	%rax, -40(%rbp)
	movq	-112(%rbp), %rax
	movq	%rax, %rdi
	call	calc_hash
	movq	%rax, -32(%rbp)
	movq	-32(%rbp), %rcx
	movabsq	$5675921253449092805, %rdx
	movq	%rcx, %rax
	mulq	%rdx
	shrq	$2, %rdx
	movq	%rdx, %rax
	addq	%rax, %rax
	addq	%rdx, %rax
	salq	$2, %rax
	addq	%rdx, %rax
	subq	%rax, %rcx
	movq	%rcx, %rdx
	movq	%rdx, -24(%rbp)
	movq	-40(%rbp), %rax
	leaq	24(%rax), %rdx
	movq	-24(%rbp), %rax
	salq	$4, %rax
	addq	%rdx, %rax
	movq	%rax, -16(%rbp)
	cmpq	$0, -120(%rbp)
	je	.L38
	movq	-120(%rbp), %rax
	movq	-24(%rbp), %rdx
	movq	%rdx, (%rax)
.L38:
	movq	-16(%rbp), %rax
	movq	(%rax), %rax
	movq	%rax, -80(%rbp)
	jmp	.L39
.L42:
	movq	-80(%rbp), %rax
	movq	%rax, -8(%rbp)
	movq	-8(%rbp), %rax
	movzbl	16(%rax), %edx
	movq	-112(%rbp), %rax
	movzbl	(%rax), %eax
	cmpb	%al, %dl
	jne	.L40
	movq	-8(%rbp), %rax
	leaq	16(%rax), %rdx
	movq	-112(%rbp), %rax
	movq	%rax, %rsi
	movq	%rdx, %rdi
	call	cmp
	movl	%eax, -84(%rbp)
	cmpl	$0, -84(%rbp)
	jne	.L40
	movq	-8(%rbp), %rax
	jmp	.L41
.L40:
	movq	-80(%rbp), %rax
	movq	(%rax), %rax
	movq	%rax, -80(%rbp)
.L39:
	movq	-80(%rbp), %rdx
	movq	-16(%rbp), %rax
	cmpq	%rax, %rdx
	jne	.L42
	movl	$0, %eax
.L41:
	leave
	.cfi_def_cfa 7, 8
	ret
	.cfi_endproc
.LFE2:
	.size	lookup, .-lookup
	.type	set_op_attributes, @function
set_op_attributes:
.LFB3:
	.cfi_startproc
	endbr64
	pushq	%rbp
	.cfi_def_cfa_offset 16
	.cfi_offset 6, -16
	movq	%rsp, %rbp
	.cfi_def_cfa_register 6
	subq	$64, %rsp
	movl	%edi, -52(%rbp)
	movl	%esi, -56(%rbp)
	movl	%edx, -60(%rbp)
#APP
# 635 "TheProjecter_qvm_q.c" 1
	##_ANNOTATION_INITIALREGION_-TIG-iO-xHZ6-1-set-op-attributes--110
# 0 "" 2
# 639 "TheProjecter_qvm_q.c" 1
	##_ANNOTATION_ATOMICREGION_-TIG-iO-xHZ6-1-set-op-attributes--109
# 0 "" 2
#NO_APP
	movl	$24, %edi
	call	malloc@PLT
	movq	%rax, -32(%rbp)
	movq	-32(%rbp), %rax
	movq	-32(%rbp), %rdx
	movq	%rdx, 8(%rax)
	movq	-32(%rbp), %rax
	movq	-32(%rbp), %rdx
	movq	%rdx, 16(%rax)
	movq	-32(%rbp), %rax
	movq	%rax, _TIG_iO_xHZ6_1_set_op_attributes_1_opaque_list_1(%rip)
	call	rand@PLT
	movl	%eax, -44(%rbp)
	movl	$24, %edi
	call	malloc@PLT
	movq	%rax, -24(%rbp)
	movq	-24(%rbp), %rax
	movl	$0, (%rax)
	movq	_TIG_iO_xHZ6_1_set_op_attributes_1_opaque_list_1(%rip), %rax
	movq	8(%rax), %rdx
	movq	-24(%rbp), %rax
	movq	%rdx, 8(%rax)
	movq	_TIG_iO_xHZ6_1_set_op_attributes_1_opaque_list_1(%rip), %rdx
	movq	-24(%rbp), %rax
	movq	%rdx, 16(%rax)
	movq	_TIG_iO_xHZ6_1_set_op_attributes_1_opaque_list_1(%rip), %rax
	movq	8(%rax), %rax
	movq	-24(%rbp), %rdx
	movq	%rdx, 16(%rax)
	movq	_TIG_iO_xHZ6_1_set_op_attributes_1_opaque_list_1(%rip), %rax
	movq	-24(%rbp), %rdx
	movq	%rdx, 8(%rax)
	call	rand@PLT
	movl	%eax, -40(%rbp)
	movl	$24, %edi
	call	malloc@PLT
	movq	%rax, -16(%rbp)
	movq	-16(%rbp), %rax
	movl	-40(%rbp), %edx
	movl	%edx, (%rax)
	movq	_TIG_iO_xHZ6_1_set_op_attributes_1_opaque_list_1(%rip), %rax
	movq	8(%rax), %rdx
	movq	-16(%rbp), %rax
	movq	%rdx, 8(%rax)
	movq	_TIG_iO_xHZ6_1_set_op_attributes_1_opaque_list_1(%rip), %rdx
	movq	-16(%rbp), %rax
	movq	%rdx, 16(%rax)
	movq	_TIG_iO_xHZ6_1_set_op_attributes_1_opaque_list_1(%rip), %rax
	movq	8(%rax), %rax
	movq	-16(%rbp), %rdx
	movq	%rdx, 16(%rax)
	movq	_TIG_iO_xHZ6_1_set_op_attributes_1_opaque_list_1(%rip), %rax
	movq	-16(%rbp), %rdx
	movq	%rdx, 8(%rax)
	call	rand@PLT
	movl	%eax, -36(%rbp)
	movl	$24, %edi
	call	malloc@PLT
	movq	%rax, -8(%rbp)
	movl	-36(%rbp), %eax
	leal	(%rax,%rax), %edx
	movq	-8(%rbp), %rax
	movl	%edx, (%rax)
	movq	_TIG_iO_xHZ6_1_set_op_attributes_1_opaque_list_1(%rip), %rax
	movq	8(%rax), %rdx
	movq	-8(%rbp), %rax
	movq	%rdx, 8(%rax)
	movq	_TIG_iO_xHZ6_1_set_op_attributes_1_opaque_list_1(%rip), %rdx
	movq	-8(%rbp), %rax
	movq	%rdx, 16(%rax)
	movq	_TIG_iO_xHZ6_1_set_op_attributes_1_opaque_list_1(%rip), %rax
	movq	8(%rax), %rax
	movq	-8(%rbp), %rdx
	movq	%rdx, 16(%rax)
	movq	_TIG_iO_xHZ6_1_set_op_attributes_1_opaque_list_1(%rip), %rax
	movq	-8(%rbp), %rdx
	movq	%rdx, 8(%rax)
	movq	_TIG_iO_xHZ6_1_set_op_attributes_1_opaque_list_1(%rip), %rax
	movq	8(%rax), %rax
	movq	%rax, _TIG_iO_xHZ6_1_set_op_attributes_1_opaque_ptr_1(%rip)
	movq	_TIG_iO_xHZ6_1_set_op_attributes_1_opaque_ptr_1(%rip), %rax
	movq	%rax, _TIG_iO_xHZ6_1_set_op_attributes_1_opaque_ptr_2(%rip)
	nop
	nop
	movq	_TIG_iO_xHZ6_1_usage_1_opaque_ptr_1(%rip), %rdx
	movq	_TIG_iO_xHZ6_1_usage_1_opaque_ptr_2(%rip), %rax
	cmpq	%rax, %rdx
	je	.L44
	movl	$0, %edx
	movl	$0, %esi
	movl	$0, %edi
	call	q_save
.L44:
	movl	-56(%rbp), %eax
	sall	$8, %eax
	orl	-52(%rbp), %eax
	movl	%eax, %edx
	movl	-60(%rbp), %eax
	sall	$16, %eax
	orl	%edx, %eax
	leave
	.cfi_def_cfa 7, 8
	ret
	.cfi_endproc
.LFE3:
	.size	set_op_attributes, .-set_op_attributes
	.type	is_op, @function
is_op:
.LFB4:
	.cfi_startproc
	endbr64
	pushq	%rbp
	.cfi_def_cfa_offset 16
	.cfi_offset 6, -16
	movq	%rsp, %rbp
	.cfi_def_cfa_register 6
	subq	$80, %rsp
	movl	%edi, -68(%rbp)
#APP
# 326 "TheProjecter_qvm_q.c" 1
	##_ANNOTATION_INITIALREGION_-TIG-iO-xHZ6-1-is-op--72
# 0 "" 2
# 330 "TheProjecter_qvm_q.c" 1
	##_ANNOTATION_ATOMICREGION_-TIG-iO-xHZ6-1-is-op--71
# 0 "" 2
#NO_APP
	movl	$24, %edi
	call	malloc@PLT
	movq	%rax, -40(%rbp)
	movq	-40(%rbp), %rax
	movq	-40(%rbp), %rdx
	movq	%rdx, 8(%rax)
	movq	-40(%rbp), %rax
	movq	-40(%rbp), %rdx
	movq	%rdx, 16(%rax)
	movq	-40(%rbp), %rax
	movq	%rax, _TIG_iO_xHZ6_1_is_op_1_opaque_list_1(%rip)
	call	rand@PLT
	movl	%eax, -56(%rbp)
	movl	$24, %edi
	call	malloc@PLT
	movq	%rax, -32(%rbp)
	movq	-32(%rbp), %rax
	movl	$0, (%rax)
	movq	_TIG_iO_xHZ6_1_is_op_1_opaque_list_1(%rip), %rax
	movq	8(%rax), %rdx
	movq	-32(%rbp), %rax
	movq	%rdx, 8(%rax)
	movq	_TIG_iO_xHZ6_1_is_op_1_opaque_list_1(%rip), %rdx
	movq	-32(%rbp), %rax
	movq	%rdx, 16(%rax)
	movq	_TIG_iO_xHZ6_1_is_op_1_opaque_list_1(%rip), %rax
	movq	8(%rax), %rax
	movq	-32(%rbp), %rdx
	movq	%rdx, 16(%rax)
	movq	_TIG_iO_xHZ6_1_is_op_1_opaque_list_1(%rip), %rax
	movq	-32(%rbp), %rdx
	movq	%rdx, 8(%rax)
	call	rand@PLT
	movl	%eax, -52(%rbp)
	movl	$24, %edi
	call	malloc@PLT
	movq	%rax, -24(%rbp)
	movq	-24(%rbp), %rax
	movl	-52(%rbp), %edx
	movl	%edx, (%rax)
	movq	_TIG_iO_xHZ6_1_is_op_1_opaque_list_1(%rip), %rax
	movq	8(%rax), %rdx
	movq	-24(%rbp), %rax
	movq	%rdx, 8(%rax)
	movq	_TIG_iO_xHZ6_1_is_op_1_opaque_list_1(%rip), %rdx
	movq	-24(%rbp), %rax
	movq	%rdx, 16(%rax)
	movq	_TIG_iO_xHZ6_1_is_op_1_opaque_list_1(%rip), %rax
	movq	8(%rax), %rax
	movq	-24(%rbp), %rdx
	movq	%rdx, 16(%rax)
	movq	_TIG_iO_xHZ6_1_is_op_1_opaque_list_1(%rip), %rax
	movq	-24(%rbp), %rdx
	movq	%rdx, 8(%rax)
	call	rand@PLT
	movl	%eax, -48(%rbp)
	movl	$24, %edi
	call	malloc@PLT
	movq	%rax, -16(%rbp)
	movl	-48(%rbp), %eax
	leal	(%rax,%rax), %edx
	movq	-16(%rbp), %rax
	movl	%edx, (%rax)
	movq	_TIG_iO_xHZ6_1_is_op_1_opaque_list_1(%rip), %rax
	movq	8(%rax), %rdx
	movq	-16(%rbp), %rax
	movq	%rdx, 8(%rax)
	movq	_TIG_iO_xHZ6_1_is_op_1_opaque_list_1(%rip), %rdx
	movq	-16(%rbp), %rax
	movq	%rdx, 16(%rax)
	movq	_TIG_iO_xHZ6_1_is_op_1_opaque_list_1(%rip), %rax
	movq	8(%rax), %rax
	movq	-16(%rbp), %rdx
	movq	%rdx, 16(%rax)
	movq	_TIG_iO_xHZ6_1_is_op_1_opaque_list_1(%rip), %rax
	movq	-16(%rbp), %rdx
	movq	%rdx, 8(%rax)
	call	rand@PLT
	movl	%eax, -44(%rbp)
	movl	$24, %edi
	call	malloc@PLT
	movq	%rax, -8(%rbp)
	movl	-44(%rbp), %edx
	movl	%edx, %eax
	addl	%eax, %eax
	addl	%eax, %edx
	movq	-8(%rbp), %rax
	movl	%edx, (%rax)
	movq	_TIG_iO_xHZ6_1_is_op_1_opaque_list_1(%rip), %rax
	movq	8(%rax), %rdx
	movq	-8(%rbp), %rax
	movq	%rdx, 8(%rax)
	movq	_TIG_iO_xHZ6_1_is_op_1_opaque_list_1(%rip), %rdx
	movq	-8(%rbp), %rax
	movq	%rdx, 16(%rax)
	movq	_TIG_iO_xHZ6_1_is_op_1_opaque_list_1(%rip), %rax
	movq	8(%rax), %rax
	movq	-8(%rbp), %rdx
	movq	%rdx, 16(%rax)
	movq	_TIG_iO_xHZ6_1_is_op_1_opaque_list_1(%rip), %rax
	movq	-8(%rbp), %rdx
	movq	%rdx, 8(%rax)
	movq	_TIG_iO_xHZ6_1_is_op_1_opaque_list_1(%rip), %rax
	movq	8(%rax), %rax
	movq	%rax, _TIG_iO_xHZ6_1_is_op_1_opaque_ptr_1(%rip)
	movq	_TIG_iO_xHZ6_1_is_op_1_opaque_ptr_1(%rip), %rax
	movq	%rax, _TIG_iO_xHZ6_1_is_op_1_opaque_ptr_2(%rip)
	movq	_TIG_iO_xHZ6_1_is_op_1_opaque_ptr_2(%rip), %rax
	movq	8(%rax), %rax
	movq	%rax, _TIG_iO_xHZ6_1_is_op_1_opaque_ptr_2(%rip)
	nop
	nop
	movq	_TIG_iO_xHZ6_1_usage_1_opaque_ptr_1(%rip), %rdx
	movq	_TIG_iO_xHZ6_1_usage_1_opaque_ptr_2(%rip), %rax
	cmpq	%rax, %rdx
	je	.L47
	movl	-44(%rbp), %eax
	movl	%eax, %esi
	movl	$0, %edi
	call	bubble_sort_ops_by_priority
.L47:
	movl	-68(%rbp), %eax
	cltq
	leaq	0(,%rax,4), %rdx
	leaq	op_tab(%rip), %rax
	movl	(%rdx,%rax), %eax
	leave
	.cfi_def_cfa 7, 8
	ret
	.cfi_endproc
.LFE4:
	.size	is_op, .-is_op
	.type	die, @function
die:
.LFB5:
	.cfi_startproc
	endbr64
	pushq	%rbp
	.cfi_def_cfa_offset 16
	.cfi_offset 6, -16
	movq	%rsp, %rbp
	.cfi_def_cfa_register 6
	subq	$288, %rsp
	movq	%rdi, -280(%rbp)
	movq	%rsi, -288(%rbp)
	movq	%rdx, -160(%rbp)
	movq	%rcx, -152(%rbp)
	movq	%r8, -144(%rbp)
	movq	%r9, -136(%rbp)
	testb	%al, %al
	je	.L50
	movaps	%xmm0, -128(%rbp)
	movaps	%xmm1, -112(%rbp)
	movaps	%xmm2, -96(%rbp)
	movaps	%xmm3, -80(%rbp)
	movaps	%xmm4, -64(%rbp)
	movaps	%xmm5, -48(%rbp)
	movaps	%xmm6, -32(%rbp)
	movaps	%xmm7, -16(%rbp)
.L50:
	movq	%fs:40, %rax
	movq	%rax, -184(%rbp)
	xorl	%eax, %eax
#APP
# 348 "TheProjecter_qvm_q.c" 1
	##_ANNOTATION_INITIALREGION_-TIG-iO-xHZ6-1-die--26
# 0 "" 2
# 352 "TheProjecter_qvm_q.c" 1
	##_ANNOTATION_ATOMICREGION_-TIG-iO-xHZ6-1-die--25
# 0 "" 2
#NO_APP
	movl	$24, %edi
	call	malloc@PLT
	movq	%rax, -256(%rbp)
	movq	-256(%rbp), %rax
	movq	-256(%rbp), %rdx
	movq	%rdx, (%rax)
	movq	-256(%rbp), %rax
	movq	-256(%rbp), %rdx
	movq	%rdx, 16(%rax)
	movq	-256(%rbp), %rax
	movq	%rax, _TIG_iO_xHZ6_1_die_1_opaque_list_1(%rip)
	call	rand@PLT
	movl	%eax, -272(%rbp)
	movl	$24, %edi
	call	malloc@PLT
	movq	%rax, -248(%rbp)
	movq	-248(%rbp), %rax
	movl	$0, 8(%rax)
	movq	_TIG_iO_xHZ6_1_die_1_opaque_list_1(%rip), %rax
	movq	(%rax), %rdx
	movq	-248(%rbp), %rax
	movq	%rdx, (%rax)
	movq	_TIG_iO_xHZ6_1_die_1_opaque_list_1(%rip), %rdx
	movq	-248(%rbp), %rax
	movq	%rdx, 16(%rax)
	movq	_TIG_iO_xHZ6_1_die_1_opaque_list_1(%rip), %rax
	movq	(%rax), %rax
	movq	-248(%rbp), %rdx
	movq	%rdx, 16(%rax)
	movq	_TIG_iO_xHZ6_1_die_1_opaque_list_1(%rip), %rax
	movq	-248(%rbp), %rdx
	movq	%rdx, (%rax)
	call	rand@PLT
	movl	%eax, -268(%rbp)
	movl	$24, %edi
	call	malloc@PLT
	movq	%rax, -240(%rbp)
	movq	-240(%rbp), %rax
	movl	-268(%rbp), %edx
	movl	%edx, 8(%rax)
	movq	_TIG_iO_xHZ6_1_die_1_opaque_list_1(%rip), %rax
	movq	(%rax), %rdx
	movq	-240(%rbp), %rax
	movq	%rdx, (%rax)
	movq	_TIG_iO_xHZ6_1_die_1_opaque_list_1(%rip), %rdx
	movq	-240(%rbp), %rax
	movq	%rdx, 16(%rax)
	movq	_TIG_iO_xHZ6_1_die_1_opaque_list_1(%rip), %rax
	movq	(%rax), %rax
	movq	-240(%rbp), %rdx
	movq	%rdx, 16(%rax)
	movq	_TIG_iO_xHZ6_1_die_1_opaque_list_1(%rip), %rax
	movq	-240(%rbp), %rdx
	movq	%rdx, (%rax)
	call	rand@PLT
	movl	%eax, -264(%rbp)
	movl	$24, %edi
	call	malloc@PLT
	movq	%rax, -232(%rbp)
	movl	-264(%rbp), %eax
	leal	(%rax,%rax), %edx
	movq	-232(%rbp), %rax
	movl	%edx, 8(%rax)
	movq	_TIG_iO_xHZ6_1_die_1_opaque_list_1(%rip), %rax
	movq	(%rax), %rdx
	movq	-232(%rbp), %rax
	movq	%rdx, (%rax)
	movq	_TIG_iO_xHZ6_1_die_1_opaque_list_1(%rip), %rdx
	movq	-232(%rbp), %rax
	movq	%rdx, 16(%rax)
	movq	_TIG_iO_xHZ6_1_die_1_opaque_list_1(%rip), %rax
	movq	(%rax), %rax
	movq	-232(%rbp), %rdx
	movq	%rdx, 16(%rax)
	movq	_TIG_iO_xHZ6_1_die_1_opaque_list_1(%rip), %rax
	movq	-232(%rbp), %rdx
	movq	%rdx, (%rax)
	call	rand@PLT
	movl	%eax, -260(%rbp)
	movl	$24, %edi
	call	malloc@PLT
	movq	%rax, -224(%rbp)
	movl	-260(%rbp), %edx
	movl	%edx, %eax
	addl	%eax, %eax
	addl	%eax, %edx
	movq	-224(%rbp), %rax
	movl	%edx, 8(%rax)
	movq	_TIG_iO_xHZ6_1_die_1_opaque_list_1(%rip), %rax
	movq	(%rax), %rdx
	movq	-224(%rbp), %rax
	movq	%rdx, (%rax)
	movq	_TIG_iO_xHZ6_1_die_1_opaque_list_1(%rip), %rdx
	movq	-224(%rbp), %rax
	movq	%rdx, 16(%rax)
	movq	_TIG_iO_xHZ6_1_die_1_opaque_list_1(%rip), %rax
	movq	(%rax), %rax
	movq	-224(%rbp), %rdx
	movq	%rdx, 16(%rax)
	movq	_TIG_iO_xHZ6_1_die_1_opaque_list_1(%rip), %rax
	movq	-224(%rbp), %rdx
	movq	%rdx, (%rax)
	movq	_TIG_iO_xHZ6_1_die_1_opaque_list_1(%rip), %rax
	movq	(%rax), %rax
	movq	%rax, _TIG_iO_xHZ6_1_die_1_opaque_ptr_1(%rip)
	movq	_TIG_iO_xHZ6_1_die_1_opaque_ptr_1(%rip), %rax
	movq	%rax, _TIG_iO_xHZ6_1_die_1_opaque_ptr_2(%rip)
	nop
	nop
	movq	_TIG_iO_xHZ6_1_usage_1_opaque_ptr_1(%rip), %rdx
	movq	_TIG_iO_xHZ6_1_usage_1_opaque_ptr_2(%rip), %rax
	cmpq	%rax, %rdx
	je	.L51
	movq	-280(%rbp), %rax
	movq	%rax, %rdi
	call	push
	movq	%rax, -216(%rbp)
.L51:
	movl	$16, -208(%rbp)
	movl	$48, -204(%rbp)
	leaq	16(%rbp), %rax
	movq	%rax, -200(%rbp)
	leaq	-176(%rbp), %rax
	movq	%rax, -192(%rbp)
	movq	-280(%rbp), %rax
	movq	264(%rax), %rax
	leaq	-208(%rbp), %rcx
	movq	-288(%rbp), %rdx
	movl	$256, %esi
	movq	%rax, %rdi
	call	vsnprintf@PLT
	movq	-280(%rbp), %rax
	addq	$64, %rax
	movl	$1, %esi
	movq	%rax, %rdi
	call	longjmp@PLT
	.cfi_endproc
.LFE5:
	.size	die, .-die
	.section	.rodata
	.align 8
.LC3:
	.string	"%s: cannot grow code to %u bytes"
	.text
	.type	expand_code, @function
expand_code:
.LFB6:
	.cfi_startproc
	endbr64
	pushq	%rbp
	.cfi_def_cfa_offset 16
	.cfi_offset 6, -16
	movq	%rsp, %rbp
	.cfi_def_cfa_register 6
	subq	$64, %rsp
	movq	%rdi, -56(%rbp)
	movl	%esi, -60(%rbp)
#APP
# 233 "TheProjecter_qvm_q.c" 1
	##_ANNOTATION_INITIALREGION_-TIG-iO-xHZ6-1-expand-code--50
# 0 "" 2
# 237 "TheProjecter_qvm_q.c" 1
	##_ANNOTATION_ATOMICREGION_-TIG-iO-xHZ6-1-expand-code--49
# 0 "" 2
#NO_APP
	movl	$24, %edi
	call	malloc@PLT
	movq	%rax, -32(%rbp)
	movq	-32(%rbp), %rax
	movq	-32(%rbp), %rdx
	movq	%rdx, 8(%rax)
	movq	-32(%rbp), %rax
	movq	-32(%rbp), %rdx
	movq	%rdx, (%rax)
	movq	-32(%rbp), %rax
	movq	%rax, _TIG_iO_xHZ6_1_expand_code_1_opaque_list_1(%rip)
	call	rand@PLT
	movl	%eax, -40(%rbp)
	movl	$24, %edi
	call	malloc@PLT
	movq	%rax, -24(%rbp)
	movq	-24(%rbp), %rax
	movl	$0, 16(%rax)
	movq	_TIG_iO_xHZ6_1_expand_code_1_opaque_list_1(%rip), %rax
	movq	8(%rax), %rdx
	movq	-24(%rbp), %rax
	movq	%rdx, 8(%rax)
	movq	_TIG_iO_xHZ6_1_expand_code_1_opaque_list_1(%rip), %rdx
	movq	-24(%rbp), %rax
	movq	%rdx, (%rax)
	movq	_TIG_iO_xHZ6_1_expand_code_1_opaque_list_1(%rip), %rax
	movq	8(%rax), %rax
	movq	-24(%rbp), %rdx
	movq	%rdx, (%rax)
	movq	_TIG_iO_xHZ6_1_expand_code_1_opaque_list_1(%rip), %rax
	movq	-24(%rbp), %rdx
	movq	%rdx, 8(%rax)
	call	rand@PLT
	movl	%eax, -36(%rbp)
	movl	$24, %edi
	call	malloc@PLT
	movq	%rax, -16(%rbp)
	movq	-16(%rbp), %rax
	movl	-36(%rbp), %edx
	movl	%edx, 16(%rax)
	movq	_TIG_iO_xHZ6_1_expand_code_1_opaque_list_1(%rip), %rax
	movq	8(%rax), %rdx
	movq	-16(%rbp), %rax
	movq	%rdx, 8(%rax)
	movq	_TIG_iO_xHZ6_1_expand_code_1_opaque_list_1(%rip), %rdx
	movq	-16(%rbp), %rax
	movq	%rdx, (%rax)
	movq	_TIG_iO_xHZ6_1_expand_code_1_opaque_list_1(%rip), %rax
	movq	8(%rax), %rax
	movq	-16(%rbp), %rdx
	movq	%rdx, (%rax)
	movq	_TIG_iO_xHZ6_1_expand_code_1_opaque_list_1(%rip), %rax
	movq	-16(%rbp), %rdx
	movq	%rdx, 8(%rax)
	movq	_TIG_iO_xHZ6_1_expand_code_1_opaque_list_1(%rip), %rax
	movq	8(%rax), %rax
	movq	%rax, _TIG_iO_xHZ6_1_expand_code_1_opaque_ptr_1(%rip)
	movq	_TIG_iO_xHZ6_1_expand_code_1_opaque_ptr_1(%rip), %rax
	movq	%rax, _TIG_iO_xHZ6_1_expand_code_1_opaque_ptr_2(%rip)
	nop
	nop
	movq	-56(%rbp), %rax
	movl	52(%rax), %edx
	movl	-60(%rbp), %eax
	addl	%eax, %edx
	movq	-56(%rbp), %rax
	movl	%edx, 52(%rax)
	movq	-56(%rbp), %rax
	movl	52(%rax), %eax
	movslq	%eax, %rdx
	movq	-56(%rbp), %rax
	movq	24(%rax), %rax
	movq	%rdx, %rsi
	movq	%rax, %rdi
	call	realloc@PLT
	movq	%rax, -8(%rbp)
	movq	-56(%rbp), %rax
	movq	-8(%rbp), %rdx
	movq	%rdx, 24(%rax)
	movq	_TIG_iO_xHZ6_1_usage_1_opaque_ptr_1(%rip), %rdx
	movq	_TIG_iO_xHZ6_1_usage_1_opaque_ptr_2(%rip), %rax
	cmpq	%rax, %rdx
	jne	.L54
	movq	-56(%rbp), %rax
	movq	24(%rax), %rax
	testq	%rax, %rax
	jne	.L57
	movq	-56(%rbp), %rax
	movl	52(%rax), %ecx
	movq	serr(%rip), %rdx
	movq	-56(%rbp), %rax
	leaq	.LC3(%rip), %rsi
	movq	%rax, %rdi
	movl	$0, %eax
	call	die
	jmp	.L57
.L54:
#APP
# 225 "TheProjecter_qvm_q.c" 1
	.byte 0xa4,0x18,0x8a,0xe6,0xef
# 0 "" 2
#NO_APP
	nop
.L57:
	nop
	leave
	.cfi_def_cfa 7, 8
	ret
	.cfi_endproc
.LFE6:
	.size	expand_code, .-expand_code
	.section	.rodata
.LC4:
	.string	"r"
.LC5:
	.string	"fopen(%s): %s"
.LC6:
	.string	"fread(%s): %s"
.LC7:
	.string	"%s: file is too large"
.LC8:
	.string	"compile"
.LC9:
	.string	"q->sc == 1"
	.text
	.type	compile, @function
compile:
.LFB7:
	.cfi_startproc
	endbr64
	pushq	%rbp
	.cfi_def_cfa_offset 16
	.cfi_offset 6, -16
	movq	%rsp, %rbp
	.cfi_def_cfa_register 6
	leaq	-32768(%rsp), %r11
.LPSRL0:
	subq	$4096, %rsp
	orq	$0, (%rsp)
	cmpq	%r11, %rsp
	jne	.LPSRL0
	subq	$144, %rsp
	movq	%rdi, -32904(%rbp)
	movq	%rsi, -32912(%rbp)
	movq	%fs:40, %rax
	movq	%rax, -8(%rbp)
	xorl	%eax, %eax
#APP
# 250 "TheProjecter_qvm_q.c" 1
	##_ANNOTATION_INITIALREGION_-TIG-iO-xHZ6-1-compile--24
# 0 "" 2
# 254 "TheProjecter_qvm_q.c" 1
	##_ANNOTATION_ATOMICREGION_-TIG-iO-xHZ6-1-compile--23
# 0 "" 2
#NO_APP
	movl	$24, %edi
	call	malloc@PLT
	movq	%rax, -32872(%rbp)
	movq	-32872(%rbp), %rax
	movq	-32872(%rbp), %rdx
	movq	%rdx, (%rax)
	movq	-32872(%rbp), %rax
	movq	-32872(%rbp), %rdx
	movq	%rdx, 8(%rax)
	movq	-32872(%rbp), %rax
	movq	%rax, _TIG_iO_xHZ6_1_compile_1_opaque_list_1(%rip)
	call	rand@PLT
	movl	%eax, -32884(%rbp)
	movl	$24, %edi
	call	malloc@PLT
	movq	%rax, -32864(%rbp)
	movq	-32864(%rbp), %rax
	movl	$0, 16(%rax)
	movq	_TIG_iO_xHZ6_1_compile_1_opaque_list_1(%rip), %rax
	movq	(%rax), %rdx
	movq	-32864(%rbp), %rax
	movq	%rdx, (%rax)
	movq	_TIG_iO_xHZ6_1_compile_1_opaque_list_1(%rip), %rdx
	movq	-32864(%rbp), %rax
	movq	%rdx, 8(%rax)
	movq	_TIG_iO_xHZ6_1_compile_1_opaque_list_1(%rip), %rax
	movq	(%rax), %rax
	movq	-32864(%rbp), %rdx
	movq	%rdx, 8(%rax)
	movq	_TIG_iO_xHZ6_1_compile_1_opaque_list_1(%rip), %rax
	movq	-32864(%rbp), %rdx
	movq	%rdx, (%rax)
	call	rand@PLT
	movl	%eax, -32880(%rbp)
	movl	$24, %edi
	call	malloc@PLT
	movq	%rax, -32856(%rbp)
	movq	-32856(%rbp), %rax
	movl	-32880(%rbp), %edx
	movl	%edx, 16(%rax)
	movq	_TIG_iO_xHZ6_1_compile_1_opaque_list_1(%rip), %rax
	movq	(%rax), %rdx
	movq	-32856(%rbp), %rax
	movq	%rdx, (%rax)
	movq	_TIG_iO_xHZ6_1_compile_1_opaque_list_1(%rip), %rdx
	movq	-32856(%rbp), %rax
	movq	%rdx, 8(%rax)
	movq	_TIG_iO_xHZ6_1_compile_1_opaque_list_1(%rip), %rax
	movq	(%rax), %rax
	movq	-32856(%rbp), %rdx
	movq	%rdx, 8(%rax)
	movq	_TIG_iO_xHZ6_1_compile_1_opaque_list_1(%rip), %rax
	movq	-32856(%rbp), %rdx
	movq	%rdx, (%rax)
	call	rand@PLT
	movl	%eax, -32876(%rbp)
	movl	$24, %edi
	call	malloc@PLT
	movq	%rax, -32848(%rbp)
	movl	-32876(%rbp), %eax
	leal	(%rax,%rax), %edx
	movq	-32848(%rbp), %rax
	movl	%edx, 16(%rax)
	movq	_TIG_iO_xHZ6_1_compile_1_opaque_list_1(%rip), %rax
	movq	(%rax), %rdx
	movq	-32848(%rbp), %rax
	movq	%rdx, (%rax)
	movq	_TIG_iO_xHZ6_1_compile_1_opaque_list_1(%rip), %rdx
	movq	-32848(%rbp), %rax
	movq	%rdx, 8(%rax)
	movq	_TIG_iO_xHZ6_1_compile_1_opaque_list_1(%rip), %rax
	movq	(%rax), %rax
	movq	-32848(%rbp), %rdx
	movq	%rdx, 8(%rax)
	movq	_TIG_iO_xHZ6_1_compile_1_opaque_list_1(%rip), %rax
	movq	-32848(%rbp), %rdx
	movq	%rdx, (%rax)
	movq	_TIG_iO_xHZ6_1_compile_1_opaque_list_1(%rip), %rax
	movq	(%rax), %rax
	movq	%rax, _TIG_iO_xHZ6_1_compile_1_opaque_ptr_1(%rip)
	movq	_TIG_iO_xHZ6_1_compile_1_opaque_ptr_1(%rip), %rax
	movq	%rax, _TIG_iO_xHZ6_1_compile_1_opaque_ptr_2(%rip)
	movq	_TIG_iO_xHZ6_1_compile_1_opaque_ptr_2(%rip), %rax
	movq	(%rax), %rax
	movq	%rax, _TIG_iO_xHZ6_1_compile_1_opaque_ptr_2(%rip)
	nop
	nop
	movl	$0, -32888(%rbp)
	movq	-32912(%rbp), %rax
	leaq	.LC4(%rip), %rdx
	movq	%rdx, %rsi
	movq	%rax, %rdi
	call	fopen@PLT
	movq	%rax, -32840(%rbp)
	cmpq	$0, -32840(%rbp)
	jne	.L59
	call	__errno_location@PLT
	movq	%rax, -32808(%rbp)
	movq	-32808(%rbp), %rax
	movl	(%rax), %eax
	movl	%eax, %edi
	call	strerror@PLT
	movq	%rax, -32800(%rbp)
	movq	-32800(%rbp), %rcx
	movq	-32912(%rbp), %rdx
	movq	-32904(%rbp), %rax
	leaq	.LC5(%rip), %rsi
	movq	%rax, %rdi
	movl	$0, %eax
	call	die
	jmp	.L60
.L59:
	movq	-32840(%rbp), %rdx
	leaq	-32784(%rbp), %rax
	movq	%rdx, %rcx
	movl	$32768, %edx
	movl	$1, %esi
	movq	%rax, %rdi
	call	fread@PLT
	movq	%rax, -32832(%rbp)
	movq	-32832(%rbp), %rax
	movl	%eax, -32888(%rbp)
	cmpl	$0, -32888(%rbp)
	jns	.L61
	call	__errno_location@PLT
	movq	%rax, -32824(%rbp)
	movq	-32824(%rbp), %rax
	movl	(%rax), %eax
	movl	%eax, %edi
	call	strerror@PLT
	movq	%rax, -32816(%rbp)
	movq	-32816(%rbp), %rcx
	movq	-32912(%rbp), %rdx
	movq	-32904(%rbp), %rax
	leaq	.LC6(%rip), %rsi
	movq	%rax, %rdi
	movl	$0, %eax
	call	die
	jmp	.L60
.L61:
	cmpl	$32768, -32888(%rbp)
	jne	.L60
	movq	-32912(%rbp), %rdx
	movq	-32904(%rbp), %rax
	leaq	.LC7(%rip), %rcx
	movq	%rcx, %rsi
	movq	%rax, %rdi
	movl	$0, %eax
	call	die
.L60:
	movl	-32888(%rbp), %eax
	cltq
	movb	$0, -32784(%rbp,%rax)
	movq	-32840(%rbp), %rax
	movq	%rax, %rdi
	call	fclose@PLT
	leaq	-32784(%rbp), %rdx
	movq	-32904(%rbp), %rax
	movq	%rdx, %rsi
	movq	%rax, %rdi
	call	q_exec_string
	movq	-32904(%rbp), %rax
	movq	%rax, %rdi
	call	push
	movq	%rax, -32792(%rbp)
	movq	-32792(%rbp), %rax
	movl	$0, %esi
	movq	%rax, %rdi
	call	init_hash_obj
	movq	-32904(%rbp), %rax
	movl	40(%rax), %eax
	cmpl	$1, %eax
	je	.L62
	movq	_TIG_iO_xHZ6_1_usage_1_opaque_ptr_1(%rip), %rdx
	movq	_TIG_iO_xHZ6_1_usage_1_opaque_ptr_2(%rip), %rax
	cmpq	%rax, %rdx
	jne	.L63
	leaq	.LC8(%rip), %rax
	movq	%rax, %rcx
	movl	$1208, %edx
	leaq	.LC1(%rip), %rax
	movq	%rax, %rsi
	leaq	.LC9(%rip), %rax
	movq	%rax, %rdi
	call	__assert_fail@PLT
.L63:
#APP
# 1211 "TheProjecter_qvm_q.c" 1
	.byte 0x3,0x2e,0xb8,0x8,0x47,0x10,0x6
# 0 "" 2
#NO_APP
.L62:
	movq	-32904(%rbp), %rax
	movq	%rax, %rdi
	call	import_builtin_objects
	movq	-32904(%rbp), %rax
	movq	%rax, %rdi
	call	disasm
	movq	-32904(%rbp), %rax
	movl	$0, 48(%rax)
	movq	-32904(%rbp), %rax
	movq	%rax, %rdi
	call	execute
	movq	loaded_modules(%rip), %rax
	movq	-32904(%rbp), %rdx
	movq	%rdx, 8(%rax)
	movq	loaded_modules(%rip), %rdx
	movq	-32904(%rbp), %rax
	movq	%rdx, (%rax)
	movq	-32904(%rbp), %rax
	leaq	loaded_modules(%rip), %rdx
	movq	%rdx, 8(%rax)
	movq	-32904(%rbp), %rax
	movq	%rax, loaded_modules(%rip)
	nop
	nop
	movq	-8(%rbp), %rax
	subq	%fs:40, %rax
	je	.L65
	call	__stack_chk_fail@PLT
.L65:
	leave
	.cfi_def_cfa 7, 8
	ret
	.cfi_endproc
.LFE7:
	.size	compile, .-compile
	.section	.rodata
.LC10:
	.string	"disasm"
.LC11:
	.string	"*c < NUM_INSTTRUCTIONS"
.LC12:
	.string	"%-4d %s"
.LC13:
	.string	" %c"
.LC14:
	.string	" %d"
.LC15:
	.string	" <%s> "
.LC16:
	.string	"%.2f"
.LC17:
	.string	"\"%.*s\""
	.text
	.type	disasm, @function
disasm:
.LFB8:
	.cfi_startproc
	endbr64
	pushq	%rbp
	.cfi_def_cfa_offset 16
	.cfi_offset 6, -16
	movq	%rsp, %rbp
	.cfi_def_cfa_register 6
	subq	$80, %rsp
	movq	%rdi, -72(%rbp)
#APP
# 1236 "TheProjecter_qvm_q.c" 1
	##_ANNOTATION_INITIALREGION_-TIG-iO-xHZ6-1-disasm--28
# 0 "" 2
# 1240 "TheProjecter_qvm_q.c" 1
	##_ANNOTATION_ATOMICREGION_-TIG-iO-xHZ6-1-disasm--27
# 0 "" 2
#NO_APP
	movl	$24, %edi
	call	malloc@PLT
	movq	%rax, -32(%rbp)
	movq	-32(%rbp), %rax
	movq	-32(%rbp), %rdx
	movq	%rdx, 16(%rax)
	movq	-32(%rbp), %rax
	movq	-32(%rbp), %rdx
	movq	%rdx, 8(%rax)
	movq	-32(%rbp), %rax
	movq	%rax, _TIG_iO_xHZ6_1_disasm_1_opaque_list_1(%rip)
	call	rand@PLT
	movl	%eax, -52(%rbp)
	movl	$24, %edi
	call	malloc@PLT
	movq	%rax, -24(%rbp)
	movq	-24(%rbp), %rax
	movl	$0, (%rax)
	movq	_TIG_iO_xHZ6_1_disasm_1_opaque_list_1(%rip), %rax
	movq	16(%rax), %rdx
	movq	-24(%rbp), %rax
	movq	%rdx, 16(%rax)
	movq	_TIG_iO_xHZ6_1_disasm_1_opaque_list_1(%rip), %rdx
	movq	-24(%rbp), %rax
	movq	%rdx, 8(%rax)
	movq	_TIG_iO_xHZ6_1_disasm_1_opaque_list_1(%rip), %rax
	movq	16(%rax), %rax
	movq	-24(%rbp), %rdx
	movq	%rdx, 8(%rax)
	movq	_TIG_iO_xHZ6_1_disasm_1_opaque_list_1(%rip), %rax
	movq	-24(%rbp), %rdx
	movq	%rdx, 16(%rax)
	call	rand@PLT
	movl	%eax, -48(%rbp)
	movl	$24, %edi
	call	malloc@PLT
	movq	%rax, -16(%rbp)
	movq	-16(%rbp), %rax
	movl	-48(%rbp), %edx
	movl	%edx, (%rax)
	movq	_TIG_iO_xHZ6_1_disasm_1_opaque_list_1(%rip), %rax
	movq	16(%rax), %rdx
	movq	-16(%rbp), %rax
	movq	%rdx, 16(%rax)
	movq	_TIG_iO_xHZ6_1_disasm_1_opaque_list_1(%rip), %rdx
	movq	-16(%rbp), %rax
	movq	%rdx, 8(%rax)
	movq	_TIG_iO_xHZ6_1_disasm_1_opaque_list_1(%rip), %rax
	movq	16(%rax), %rax
	movq	-16(%rbp), %rdx
	movq	%rdx, 8(%rax)
	movq	_TIG_iO_xHZ6_1_disasm_1_opaque_list_1(%rip), %rax
	movq	-16(%rbp), %rdx
	movq	%rdx, 16(%rax)
	movq	_TIG_iO_xHZ6_1_disasm_1_opaque_list_1(%rip), %rax
	movq	16(%rax), %rax
	movq	%rax, _TIG_iO_xHZ6_1_disasm_1_opaque_ptr_1(%rip)
	movq	_TIG_iO_xHZ6_1_disasm_1_opaque_ptr_1(%rip), %rax
	movq	%rax, _TIG_iO_xHZ6_1_disasm_1_opaque_ptr_2(%rip)
	nop
	nop
	movq	-72(%rbp), %rax
	movq	24(%rax), %rax
	movq	%rax, -40(%rbp)
	jmp	.L67
.L77:
	movq	_TIG_iO_xHZ6_1_usage_1_opaque_ptr_1(%rip), %rdx
	movq	_TIG_iO_xHZ6_1_usage_1_opaque_ptr_2(%rip), %rax
	cmpq	%rax, %rdx
	jne	.L68
	movq	-40(%rbp), %rax
	movzbl	(%rax), %eax
	cmpb	$11, %al
	jle	.L69
	leaq	.LC10(%rip), %rax
	movq	%rax, %rcx
	movl	$858, %edx
	leaq	.LC1(%rip), %rax
	movq	%rax, %rsi
	leaq	.LC11(%rip), %rax
	movq	%rax, %rdi
	call	__assert_fail@PLT
.L68:
#APP
# 862 "TheProjecter_qvm_q.c" 1
	.byte 0xd,0x88,0x5e,0x9e,0x13
# 0 "" 2
#NO_APP
.L69:
	movq	-40(%rbp), %rax
	movzbl	(%rax), %eax
	movsbl	%al, %eax
	cltq
	leaq	0(,%rax,8), %rdx
	leaq	opcodes(%rip), %rax
	movq	(%rdx,%rax), %rax
	movq	%rax, -8(%rbp)
	movq	-8(%rbp), %rax
	leaq	1(%rax), %rdx
	movq	-72(%rbp), %rax
	movq	24(%rax), %rcx
	movq	-40(%rbp), %rax
	subq	%rcx, %rax
	movq	%rax, %rsi
	leaq	.LC12(%rip), %rax
	movq	%rax, %rdi
	movl	$0, %eax
	call	printf@PLT
	movq	-8(%rbp), %rax
	movzbl	(%rax), %eax
	cmpb	$97, %al
	jne	.L70
	addq	$1, -40(%rbp)
	movq	-40(%rbp), %rax
	movzbl	(%rax), %eax
	movsbl	%al, %eax
	movl	%eax, %esi
	leaq	.LC13(%rip), %rax
	movq	%rax, %rdi
	movl	$0, %eax
	call	printf@PLT
	jmp	.L71
.L70:
	movq	-8(%rbp), %rax
	movzbl	(%rax), %eax
	cmpb	$110, %al
	jne	.L72
	addq	$1, -40(%rbp)
	movq	-40(%rbp), %rax
	movzbl	(%rax), %eax
	movsbl	%al, %eax
	movl	%eax, %esi
	leaq	.LC14(%rip), %rax
	movq	%rax, %rdi
	movl	$0, %eax
	call	printf@PLT
	jmp	.L71
.L72:
	movq	-8(%rbp), %rax
	movzbl	(%rax), %eax
	cmpb	$116, %al
	jne	.L71
	addq	$1, -40(%rbp)
	movq	-40(%rbp), %rax
	movzbl	(%rax), %eax
	movsbl	%al, %eax
	cltq
	leaq	0(,%rax,8), %rdx
	leaq	types(%rip), %rax
	movq	(%rdx,%rax), %rax
	movq	%rax, %rsi
	leaq	.LC15(%rip), %rax
	movq	%rax, %rdi
	movl	$0, %eax
	call	printf@PLT
	movq	-40(%rbp), %rax
	movzbl	(%rax), %eax
	movsbl	%al, %eax
	cmpl	$2, %eax
	je	.L73
	cmpl	$2, %eax
	jg	.L79
	testl	%eax, %eax
	je	.L80
	cmpl	$1, %eax
	je	.L76
	jmp	.L79
.L76:
	movq	-40(%rbp), %rax
	addq	$1, %rax
	movq	(%rax), %rax
	movq	%rax, %xmm0
	leaq	.LC16(%rip), %rax
	movq	%rax, %rdi
	movl	$1, %eax
	call	printf@PLT
	addq	$8, -40(%rbp)
	jmp	.L71
.L73:
	movq	-40(%rbp), %rax
	addq	$1, %rax
	movq	(%rax), %rax
	movl	%eax, -44(%rbp)
	addq	$8, -40(%rbp)
	movq	-40(%rbp), %rax
	leaq	1(%rax), %rdx
	movl	-44(%rbp), %eax
	movl	%eax, %esi
	leaq	.LC17(%rip), %rax
	movq	%rax, %rdi
	movl	$0, %eax
	call	printf@PLT
	movl	-44(%rbp), %eax
	cltq
	addq	%rax, -40(%rbp)
	jmp	.L71
.L79:
	nop
	jmp	.L71
.L80:
	nop
.L71:
	movl	$10, %edi
	call	putchar@PLT
	addq	$1, -40(%rbp)
.L67:
	movq	-40(%rbp), %rax
	movzbl	(%rax), %eax
	testb	%al, %al
	jne	.L77
	nop
	leave
	.cfi_def_cfa 7, 8
	ret
	.cfi_endproc
.LFE8:
	.size	disasm, .-disasm
	.section	.rodata
.LC18:
	.string	"%.*s"
.LC19:
	.string	"<%s>"
	.text
	.type	print_obj, @function
print_obj:
.LFB9:
	.cfi_startproc
	endbr64
	pushq	%rbp
	.cfi_def_cfa_offset 16
	.cfi_offset 6, -16
	movq	%rsp, %rbp
	.cfi_def_cfa_register 6
	subq	$48, %rsp
	movq	%rdi, -40(%rbp)
#APP
# 905 "TheProjecter_qvm_q.c" 1
	##_ANNOTATION_INITIALREGION_-TIG-iO-xHZ6-1-print-obj--92
# 0 "" 2
# 909 "TheProjecter_qvm_q.c" 1
	##_ANNOTATION_ATOMICREGION_-TIG-iO-xHZ6-1-print-obj--91
# 0 "" 2
#NO_APP
	movl	$24, %edi
	call	malloc@PLT
	movq	%rax, -24(%rbp)
	movq	-24(%rbp), %rax
	movq	-24(%rbp), %rdx
	movq	%rdx, 16(%rax)
	movq	-24(%rbp), %rax
	movq	-24(%rbp), %rdx
	movq	%rdx, 8(%rax)
	movq	-24(%rbp), %rax
	movq	%rax, _TIG_iO_xHZ6_1_print_obj_1_opaque_list_1(%rip)
	call	rand@PLT
	movl	%eax, -32(%rbp)
	movl	$24, %edi
	call	malloc@PLT
	movq	%rax, -16(%rbp)
	movq	-16(%rbp), %rax
	movl	$0, (%rax)
	movq	_TIG_iO_xHZ6_1_print_obj_1_opaque_list_1(%rip), %rax
	movq	16(%rax), %rdx
	movq	-16(%rbp), %rax
	movq	%rdx, 16(%rax)
	movq	_TIG_iO_xHZ6_1_print_obj_1_opaque_list_1(%rip), %rdx
	movq	-16(%rbp), %rax
	movq	%rdx, 8(%rax)
	movq	_TIG_iO_xHZ6_1_print_obj_1_opaque_list_1(%rip), %rax
	movq	16(%rax), %rax
	movq	-16(%rbp), %rdx
	movq	%rdx, 8(%rax)
	movq	_TIG_iO_xHZ6_1_print_obj_1_opaque_list_1(%rip), %rax
	movq	-16(%rbp), %rdx
	movq	%rdx, 16(%rax)
	call	rand@PLT
	movl	%eax, -28(%rbp)
	movl	$24, %edi
	call	malloc@PLT
	movq	%rax, -8(%rbp)
	movq	-8(%rbp), %rax
	movl	-28(%rbp), %edx
	movl	%edx, (%rax)
	movq	_TIG_iO_xHZ6_1_print_obj_1_opaque_list_1(%rip), %rax
	movq	16(%rax), %rdx
	movq	-8(%rbp), %rax
	movq	%rdx, 16(%rax)
	movq	_TIG_iO_xHZ6_1_print_obj_1_opaque_list_1(%rip), %rdx
	movq	-8(%rbp), %rax
	movq	%rdx, 8(%rax)
	movq	_TIG_iO_xHZ6_1_print_obj_1_opaque_list_1(%rip), %rax
	movq	16(%rax), %rax
	movq	-8(%rbp), %rdx
	movq	%rdx, 8(%rax)
	movq	_TIG_iO_xHZ6_1_print_obj_1_opaque_list_1(%rip), %rax
	movq	-8(%rbp), %rdx
	movq	%rdx, 16(%rax)
	movq	_TIG_iO_xHZ6_1_print_obj_1_opaque_list_1(%rip), %rax
	movq	16(%rax), %rax
	movq	%rax, _TIG_iO_xHZ6_1_print_obj_1_opaque_ptr_1(%rip)
	movq	_TIG_iO_xHZ6_1_print_obj_1_opaque_ptr_1(%rip), %rax
	movq	%rax, _TIG_iO_xHZ6_1_print_obj_1_opaque_ptr_2(%rip)
	nop
	nop
	movq	-40(%rbp), %rax
	movzbl	(%rax), %eax
	movzbl	%al, %eax
	cmpl	$1, %eax
	je	.L82
	cmpl	$2, %eax
	jne	.L83
	movq	-40(%rbp), %rax
	movq	16(%rax), %rdx
	movq	-40(%rbp), %rax
	movl	8(%rax), %eax
	movl	%eax, %esi
	leaq	.LC18(%rip), %rax
	movq	%rax, %rdi
	movl	$0, %eax
	call	printf@PLT
	jmp	.L84
.L82:
	movq	-40(%rbp), %rax
	movq	8(%rax), %rax
	movq	%rax, %xmm0
	leaq	.LC16(%rip), %rax
	movq	%rax, %rdi
	movl	$1, %eax
	call	printf@PLT
	movq	_TIG_iO_xHZ6_1_usage_1_opaque_ptr_1(%rip), %rdx
	movq	_TIG_iO_xHZ6_1_usage_1_opaque_ptr_2(%rip), %rax
	cmpq	%rax, %rdx
	je	.L87
	movl	-28(%rbp), %eax
	movl	$0, %ecx
	movl	%eax, %edx
	movl	$0, %esi
	movl	$0, %edi
	call	expr
	movl	%eax, -28(%rbp)
	jmp	.L87
.L83:
	movq	-40(%rbp), %rax
	movzbl	(%rax), %eax
	movzbl	%al, %eax
	cltq
	leaq	0(,%rax,8), %rdx
	leaq	types(%rip), %rax
	movq	(%rdx,%rax), %rax
	movq	%rax, %rsi
	leaq	.LC19(%rip), %rax
	movq	%rax, %rdi
	movl	$0, %eax
	call	printf@PLT
	jmp	.L84
.L87:
	nop
.L84:
	nop
	leave
	.cfi_def_cfa 7, 8
	ret
	.cfi_endproc
.LFE9:
	.size	print_obj, .-print_obj
	.section	.rodata
.LC20:
	.string	"cmp"
.LC21:
	.string	"a->type == b->type"
	.text
	.type	cmp, @function
cmp:
.LFB10:
	.cfi_startproc
	endbr64
	pushq	%rbp
	.cfi_def_cfa_offset 16
	.cfi_offset 6, -16
	movq	%rsp, %rbp
	.cfi_def_cfa_register 6
	subq	$64, %rsp
	movq	%rdi, -56(%rbp)
	movq	%rsi, -64(%rbp)
#APP
# 921 "TheProjecter_qvm_q.c" 1
	##_ANNOTATION_INITIALREGION_-TIG-iO-xHZ6-1-cmp--20
# 0 "" 2
# 925 "TheProjecter_qvm_q.c" 1
	##_ANNOTATION_ATOMICREGION_-TIG-iO-xHZ6-1-cmp--19
# 0 "" 2
#NO_APP
	movl	$24, %edi
	call	malloc@PLT
	movq	%rax, -24(%rbp)
	movq	-24(%rbp), %rax
	movq	-24(%rbp), %rdx
	movq	%rdx, 8(%rax)
	movq	-24(%rbp), %rax
	movq	-24(%rbp), %rdx
	movq	%rdx, 16(%rax)
	movq	-24(%rbp), %rax
	movq	%rax, _TIG_iO_xHZ6_1_cmp_1_opaque_list_1(%rip)
	call	rand@PLT
	movl	%eax, -32(%rbp)
	movl	$24, %edi
	call	malloc@PLT
	movq	%rax, -16(%rbp)
	movq	-16(%rbp), %rax
	movl	$0, (%rax)
	movq	_TIG_iO_xHZ6_1_cmp_1_opaque_list_1(%rip), %rax
	movq	8(%rax), %rdx
	movq	-16(%rbp), %rax
	movq	%rdx, 8(%rax)
	movq	_TIG_iO_xHZ6_1_cmp_1_opaque_list_1(%rip), %rdx
	movq	-16(%rbp), %rax
	movq	%rdx, 16(%rax)
	movq	_TIG_iO_xHZ6_1_cmp_1_opaque_list_1(%rip), %rax
	movq	8(%rax), %rax
	movq	-16(%rbp), %rdx
	movq	%rdx, 16(%rax)
	movq	_TIG_iO_xHZ6_1_cmp_1_opaque_list_1(%rip), %rax
	movq	-16(%rbp), %rdx
	movq	%rdx, 8(%rax)
	call	rand@PLT
	movl	%eax, -28(%rbp)
	movl	$24, %edi
	call	malloc@PLT
	movq	%rax, -8(%rbp)
	movq	-8(%rbp), %rax
	movl	-28(%rbp), %edx
	movl	%edx, (%rax)
	movq	_TIG_iO_xHZ6_1_cmp_1_opaque_list_1(%rip), %rax
	movq	8(%rax), %rdx
	movq	-8(%rbp), %rax
	movq	%rdx, 8(%rax)
	movq	_TIG_iO_xHZ6_1_cmp_1_opaque_list_1(%rip), %rdx
	movq	-8(%rbp), %rax
	movq	%rdx, 16(%rax)
	movq	_TIG_iO_xHZ6_1_cmp_1_opaque_list_1(%rip), %rax
	movq	8(%rax), %rax
	movq	-8(%rbp), %rdx
	movq	%rdx, 16(%rax)
	movq	_TIG_iO_xHZ6_1_cmp_1_opaque_list_1(%rip), %rax
	movq	-8(%rbp), %rdx
	movq	%rdx, 8(%rax)
	movq	_TIG_iO_xHZ6_1_cmp_1_opaque_list_1(%rip), %rax
	movq	8(%rax), %rax
	movq	%rax, _TIG_iO_xHZ6_1_cmp_1_opaque_ptr_1(%rip)
	movq	_TIG_iO_xHZ6_1_cmp_1_opaque_ptr_1(%rip), %rax
	movq	%rax, _TIG_iO_xHZ6_1_cmp_1_opaque_ptr_2(%rip)
	nop
	nop
	movl	$0, -36(%rbp)
	movq	-56(%rbp), %rax
	movzbl	(%rax), %edx
	movq	-64(%rbp), %rax
	movzbl	(%rax), %eax
	cmpb	%al, %dl
	je	.L89
	movq	_TIG_iO_xHZ6_1_usage_1_opaque_ptr_1(%rip), %rdx
	movq	_TIG_iO_xHZ6_1_usage_1_opaque_ptr_2(%rip), %rax
	cmpq	%rax, %rdx
	jne	.L89
	leaq	.LC20(%rip), %rax
	movq	%rax, %rcx
	movl	$529, %edx
	leaq	.LC1(%rip), %rax
	movq	%rax, %rsi
	leaq	.LC21(%rip), %rax
	movq	%rax, %rdi
	call	__assert_fail@PLT
.L89:
	movq	-56(%rbp), %rax
	movzbl	(%rax), %eax
	movzbl	%al, %eax
	cmpl	$5, %eax
	ja	.L90
	movl	%eax, %eax
	leaq	0(,%rax,4), %rdx
	leaq	.L92(%rip), %rax
	movl	(%rdx,%rax), %eax
	cltq
	leaq	.L92(%rip), %rdx
	addq	%rdx, %rax
	notrack jmp	*%rax
	.section	.rodata
	.align 4
	.align 4
.L92:
	.long	.L104-.L92
	.long	.L96-.L92
	.long	.L95-.L92
	.long	.L94-.L92
	.long	.L93-.L92
	.long	.L104-.L92
	.text
.L96:
	movq	-56(%rbp), %rax
	movsd	8(%rax), %xmm0
	movq	-64(%rbp), %rax
	movsd	8(%rax), %xmm1
	subsd	%xmm1, %xmm0
	cvttsd2sil	%xmm0, %eax
	movl	%eax, -36(%rbp)
	jmp	.L98
.L95:
	movq	-64(%rbp), %rax
	leaq	8(%rax), %rdx
	movq	-56(%rbp), %rax
	addq	$8, %rax
	movq	%rdx, %rsi
	movq	%rax, %rdi
	call	cmp_vec
	movl	%eax, -36(%rbp)
	jmp	.L98
.L93:
	movq	-56(%rbp), %rax
	movq	8(%rax), %rax
	movq	%rax, %rdx
	movq	-64(%rbp), %rax
	movq	8(%rax), %rax
	cmpq	%rax, %rdx
	jne	.L99
	movl	$0, -36(%rbp)
	jmp	.L98
.L99:
	movl	$1, -36(%rbp)
	jmp	.L98
.L94:
	movq	-56(%rbp), %rax
	movq	8(%rax), %rax
	movq	%rax, %rdx
	movq	-64(%rbp), %rax
	movq	8(%rax), %rax
	cmpq	%rax, %rdx
	jne	.L101
	movl	$0, -36(%rbp)
	jmp	.L98
.L101:
	movl	$1, -36(%rbp)
	jmp	.L98
.L90:
	call	abort@PLT
.L104:
	nop
.L98:
	movl	-36(%rbp), %eax
	leave
	.cfi_def_cfa 7, 8
	ret
	.cfi_endproc
.LFE10:
	.size	cmp, .-cmp
	.type	is_lvalue, @function
is_lvalue:
.LFB11:
	.cfi_startproc
	endbr64
	pushq	%rbp
	.cfi_def_cfa_offset 16
	.cfi_offset 6, -16
	movq	%rsp, %rbp
	.cfi_def_cfa_register 6
	subq	$64, %rsp
	movq	%rdi, -56(%rbp)
#APP
# 570 "TheProjecter_qvm_q.c" 1
	##_ANNOTATION_INITIALREGION_-TIG-iO-xHZ6-1-is-lvalue--70
# 0 "" 2
# 574 "TheProjecter_qvm_q.c" 1
	##_ANNOTATION_ATOMICREGION_-TIG-iO-xHZ6-1-is-lvalue--69
# 0 "" 2
#NO_APP
	movl	$24, %edi
	call	malloc@PLT
	movq	%rax, -24(%rbp)
	movq	-24(%rbp), %rax
	movq	-24(%rbp), %rdx
	movq	%rdx, (%rax)
	movq	-24(%rbp), %rax
	movq	-24(%rbp), %rdx
	movq	%rdx, 8(%rax)
	movq	-24(%rbp), %rax
	movq	%rax, _TIG_iO_xHZ6_1_is_lvalue_1_opaque_list_1(%rip)
	call	rand@PLT
	movl	%eax, -32(%rbp)
	movl	$24, %edi
	call	malloc@PLT
	movq	%rax, -16(%rbp)
	movq	-16(%rbp), %rax
	movl	$0, 16(%rax)
	movq	_TIG_iO_xHZ6_1_is_lvalue_1_opaque_list_1(%rip), %rax
	movq	(%rax), %rdx
	movq	-16(%rbp), %rax
	movq	%rdx, (%rax)
	movq	_TIG_iO_xHZ6_1_is_lvalue_1_opaque_list_1(%rip), %rdx
	movq	-16(%rbp), %rax
	movq	%rdx, 8(%rax)
	movq	_TIG_iO_xHZ6_1_is_lvalue_1_opaque_list_1(%rip), %rax
	movq	(%rax), %rax
	movq	-16(%rbp), %rdx
	movq	%rdx, 8(%rax)
	movq	_TIG_iO_xHZ6_1_is_lvalue_1_opaque_list_1(%rip), %rax
	movq	-16(%rbp), %rdx
	movq	%rdx, (%rax)
	call	rand@PLT
	movl	%eax, -28(%rbp)
	movl	$24, %edi
	call	malloc@PLT
	movq	%rax, -8(%rbp)
	movq	-8(%rbp), %rax
	movl	-28(%rbp), %edx
	movl	%edx, 16(%rax)
	movq	_TIG_iO_xHZ6_1_is_lvalue_1_opaque_list_1(%rip), %rax
	movq	(%rax), %rdx
	movq	-8(%rbp), %rax
	movq	%rdx, (%rax)
	movq	_TIG_iO_xHZ6_1_is_lvalue_1_opaque_list_1(%rip), %rdx
	movq	-8(%rbp), %rax
	movq	%rdx, 8(%rax)
	movq	_TIG_iO_xHZ6_1_is_lvalue_1_opaque_list_1(%rip), %rax
	movq	(%rax), %rax
	movq	-8(%rbp), %rdx
	movq	%rdx, 8(%rax)
	movq	_TIG_iO_xHZ6_1_is_lvalue_1_opaque_list_1(%rip), %rax
	movq	-8(%rbp), %rdx
	movq	%rdx, (%rax)
	movq	_TIG_iO_xHZ6_1_is_lvalue_1_opaque_list_1(%rip), %rax
	movq	(%rax), %rax
	movq	%rax, _TIG_iO_xHZ6_1_is_lvalue_1_opaque_ptr_1(%rip)
	movq	_TIG_iO_xHZ6_1_is_lvalue_1_opaque_ptr_1(%rip), %rax
	movq	%rax, _TIG_iO_xHZ6_1_is_lvalue_1_opaque_ptr_2(%rip)
	nop
	nop
	movq	-56(%rbp), %rax
	movq	56(%rax), %rax
	testq	%rax, %rax
	je	.L106
	movq	-56(%rbp), %rax
	movq	56(%rax), %rax
	movl	32(%rax), %eax
	cmpl	$61, %eax
	jne	.L107
	movq	-56(%rbp), %rax
	movq	56(%rax), %rax
	movq	40(%rax), %rax
	movq	%rax, %rdx
	movq	-56(%rbp), %rax
	cmpq	%rax, %rdx
	jne	.L108
	movl	$1, -36(%rbp)
	jmp	.L109
.L108:
	movl	$0, -36(%rbp)
	jmp	.L109
.L107:
	movl	$0, -36(%rbp)
	jmp	.L109
.L106:
	movl	$0, -36(%rbp)
.L109:
	movq	_TIG_iO_xHZ6_1_usage_1_opaque_ptr_1(%rip), %rdx
	movq	_TIG_iO_xHZ6_1_usage_1_opaque_ptr_2(%rip), %rax
	cmpq	%rax, %rdx
	je	.L110
	movl	-32(%rbp), %eax
	movl	-36(%rbp), %edx
	movl	%eax, %ecx
	sall	%cl, %edx
	movl	%edx, %eax
	jmp	.L111
.L110:
	movl	-36(%rbp), %eax
.L111:
	leave
	.cfi_def_cfa 7, 8
	ret
	.cfi_endproc
.LFE11:
	.size	is_lvalue, .-is_lvalue
	.section	.rodata
.LC22:
	.string	"%v"
.LC23:
	.string	"%d"
.LC24:
	.string	"%s"
.LC25:
	.string	"function"
.LC26:
	.string	"if"
.LC27:
	.string	"else"
.LC28:
	.string	"+="
.LC29:
	.string	"-="
.LC30:
	.string	"*="
.LC31:
	.string	"/="
.LC32:
	.string	"nil"
.LC33:
	.string	"not"
.LC34:
	.string	"and"
.LC35:
	.string	"or"
.LC36:
	.string	"=[](){}+-*/^,;.\""
.LC37:
	.string	"runtime error"
.LC38:
	.string	"syntax error"
.LC39:
	.string	"xEND"
.LC40:
	.string	"xCALL"
.LC41:
	.string	"xRETURN"
.LC42:
	.string	"xSET"
.LC43:
	.string	"xGET"
.LC44:
	.string	"tPUSH"
.LC45:
	.string	"aMATH"
.LC46:
	.string	"xPOP"
.LC47:
	.string	"xJUMP"
.LC48:
	.string	"nDUP"
.LC49:
	.string	"xPUSHNS"
.LC50:
	.string	"xNEWMAP"
.LC51:
	.string	"num"
.LC52:
	.string	"str"
.LC53:
	.string	"hash"
.LC54:
	.string	"func"
.LC55:
	.string	"c-func"
.LC56:
	.string	"test.txt"
	.text
	.globl	main
	.type	main, @function
main:
.LFB12:
	.cfi_startproc
	endbr64
	pushq	%rbp
	.cfi_def_cfa_offset 16
	.cfi_offset 6, -16
	movq	%rsp, %rbp
	.cfi_def_cfa_register 6
	subq	$384, %rsp
	movl	%edi, -356(%rbp)
	movq	%rsi, -368(%rbp)
	movq	%rdx, -376(%rbp)
	movq	%fs:40, %rax
	movq	%rax, -8(%rbp)
	xorl	%eax, %eax
	movq	$0, nil(%rip)
	movq	$0, 8+nil(%rip)
	movl	$0, 16+nil(%rip)
	movq	$0, 24+nil(%rip)
	movl	$0, 32+nil(%rip)
	movl	$0, 36+nil(%rip)
	movq	$0, 40+nil(%rip)
	movq	$0, 48+nil(%rip)
	movq	$0, 56+nil(%rip)
	nop
.L113:
	movl	$0, -344(%rbp)
	jmp	.L114
.L115:
	movl	-344(%rbp), %eax
	cltq
	leaq	0(,%rax,4), %rdx
	leaq	op_tab(%rip), %rax
	movl	$0, (%rdx,%rax)
	addl	$1, -344(%rbp)
.L114:
	cmpl	$255, -344(%rbp)
	jle	.L115
	nop
.L116:
	movl	$-1, hex_tab(%rip)
	movl	$-1, 4+hex_tab(%rip)
	movl	$-1, 8+hex_tab(%rip)
	movl	$-1, 12+hex_tab(%rip)
	movl	$-1, 16+hex_tab(%rip)
	movl	$-1, 20+hex_tab(%rip)
	movl	$-1, 24+hex_tab(%rip)
	movl	$-1, 28+hex_tab(%rip)
	movl	$-1, 32+hex_tab(%rip)
	movl	$-1, 36+hex_tab(%rip)
	movl	$-1, 40+hex_tab(%rip)
	movl	$-1, 44+hex_tab(%rip)
	movl	$-1, 48+hex_tab(%rip)
	movl	$-1, 52+hex_tab(%rip)
	movl	$-1, 56+hex_tab(%rip)
	movl	$-1, 60+hex_tab(%rip)
	movl	$-1, 64+hex_tab(%rip)
	movl	$-1, 68+hex_tab(%rip)
	movl	$-1, 72+hex_tab(%rip)
	movl	$-1, 76+hex_tab(%rip)
	movl	$-1, 80+hex_tab(%rip)
	movl	$-1, 84+hex_tab(%rip)
	movl	$-1, 88+hex_tab(%rip)
	movl	$-1, 92+hex_tab(%rip)
	movl	$-1, 96+hex_tab(%rip)
	movl	$-1, 100+hex_tab(%rip)
	movl	$-1, 104+hex_tab(%rip)
	movl	$-1, 108+hex_tab(%rip)
	movl	$-1, 112+hex_tab(%rip)
	movl	$-1, 116+hex_tab(%rip)
	movl	$-1, 120+hex_tab(%rip)
	movl	$-1, 124+hex_tab(%rip)
	movl	$-1, 128+hex_tab(%rip)
	movl	$-1, 132+hex_tab(%rip)
	movl	$-1, 136+hex_tab(%rip)
	movl	$-1, 140+hex_tab(%rip)
	movl	$-1, 144+hex_tab(%rip)
	movl	$-1, 148+hex_tab(%rip)
	movl	$-1, 152+hex_tab(%rip)
	movl	$-1, 156+hex_tab(%rip)
	movl	$-1, 160+hex_tab(%rip)
	movl	$-1, 164+hex_tab(%rip)
	movl	$-1, 168+hex_tab(%rip)
	movl	$-1, 172+hex_tab(%rip)
	movl	$-1, 176+hex_tab(%rip)
	movl	$-1, 180+hex_tab(%rip)
	movl	$-1, 184+hex_tab(%rip)
	movl	$-1, 188+hex_tab(%rip)
	movl	$0, 192+hex_tab(%rip)
	movl	$1, 196+hex_tab(%rip)
	movl	$2, 200+hex_tab(%rip)
	movl	$3, 204+hex_tab(%rip)
	movl	$4, 208+hex_tab(%rip)
	movl	$5, 212+hex_tab(%rip)
	movl	$6, 216+hex_tab(%rip)
	movl	$7, 220+hex_tab(%rip)
	movl	$8, 224+hex_tab(%rip)
	movl	$9, 228+hex_tab(%rip)
	movl	$-1, 232+hex_tab(%rip)
	movl	$-1, 236+hex_tab(%rip)
	movl	$-1, 240+hex_tab(%rip)
	movl	$-1, 244+hex_tab(%rip)
	movl	$-1, 248+hex_tab(%rip)
	movl	$-1, 252+hex_tab(%rip)
	movl	$-1, 256+hex_tab(%rip)
	movl	$10, 260+hex_tab(%rip)
	movl	$11, 264+hex_tab(%rip)
	movl	$12, 268+hex_tab(%rip)
	movl	$13, 272+hex_tab(%rip)
	movl	$14, 276+hex_tab(%rip)
	movl	$15, 280+hex_tab(%rip)
	movl	$-1, 284+hex_tab(%rip)
	movl	$-1, 288+hex_tab(%rip)
	movl	$-1, 292+hex_tab(%rip)
	movl	$-1, 296+hex_tab(%rip)
	movl	$-1, 300+hex_tab(%rip)
	movl	$-1, 304+hex_tab(%rip)
	movl	$-1, 308+hex_tab(%rip)
	movl	$-1, 312+hex_tab(%rip)
	movl	$-1, 316+hex_tab(%rip)
	movl	$-1, 320+hex_tab(%rip)
	movl	$-1, 324+hex_tab(%rip)
	movl	$-1, 328+hex_tab(%rip)
	movl	$-1, 332+hex_tab(%rip)
	movl	$-1, 336+hex_tab(%rip)
	movl	$-1, 340+hex_tab(%rip)
	movl	$-1, 344+hex_tab(%rip)
	movl	$-1, 348+hex_tab(%rip)
	movl	$-1, 352+hex_tab(%rip)
	movl	$-1, 356+hex_tab(%rip)
	movl	$-1, 360+hex_tab(%rip)
	movl	$-1, 364+hex_tab(%rip)
	movl	$-1, 368+hex_tab(%rip)
	movl	$-1, 372+hex_tab(%rip)
	movl	$-1, 376+hex_tab(%rip)
	movl	$-1, 380+hex_tab(%rip)
	movl	$-1, 384+hex_tab(%rip)
	movl	$10, 388+hex_tab(%rip)
	movl	$11, 392+hex_tab(%rip)
	movl	$12, 396+hex_tab(%rip)
	movl	$13, 400+hex_tab(%rip)
	movl	$14, 404+hex_tab(%rip)
	movl	$15, 408+hex_tab(%rip)
	movl	$-1, 412+hex_tab(%rip)
	movl	$-1, 416+hex_tab(%rip)
	movl	$-1, 420+hex_tab(%rip)
	movl	$-1, 424+hex_tab(%rip)
	movl	$-1, 428+hex_tab(%rip)
	movl	$-1, 432+hex_tab(%rip)
	movl	$-1, 436+hex_tab(%rip)
	movl	$-1, 440+hex_tab(%rip)
	movl	$-1, 444+hex_tab(%rip)
	nop
.L117:
	leaq	loaded_modules(%rip), %rax
	movq	%rax, loaded_modules(%rip)
	leaq	loaded_modules(%rip), %rax
	movq	%rax, 8+loaded_modules(%rip)
	nop
.L118:
	leaq	.LC22(%rip), %rax
	movq	%rax, long_tokens(%rip)
	leaq	.LC23(%rip), %rax
	movq	%rax, 8+long_tokens(%rip)
	leaq	.LC24(%rip), %rax
	movq	%rax, 16+long_tokens(%rip)
	leaq	.LC25(%rip), %rax
	movq	%rax, 24+long_tokens(%rip)
	leaq	.LC26(%rip), %rax
	movq	%rax, 32+long_tokens(%rip)
	leaq	.LC27(%rip), %rax
	movq	%rax, 40+long_tokens(%rip)
	leaq	.LC28(%rip), %rax
	movq	%rax, 48+long_tokens(%rip)
	leaq	.LC29(%rip), %rax
	movq	%rax, 56+long_tokens(%rip)
	leaq	.LC30(%rip), %rax
	movq	%rax, 64+long_tokens(%rip)
	leaq	.LC31(%rip), %rax
	movq	%rax, 72+long_tokens(%rip)
	leaq	.LC32(%rip), %rax
	movq	%rax, 80+long_tokens(%rip)
	leaq	.LC33(%rip), %rax
	movq	%rax, 88+long_tokens(%rip)
	leaq	.LC34(%rip), %rax
	movq	%rax, 96+long_tokens(%rip)
	leaq	.LC35(%rip), %rax
	movq	%rax, 104+long_tokens(%rip)
	movq	$0, 112+long_tokens(%rip)
	nop
.L119:
	leaq	.LC36(%rip), %rax
	movq	%rax, one_char_tokens(%rip)
	nop
.L120:
	leaq	.LC37(%rip), %rax
	movq	%rax, rerr(%rip)
	nop
.L121:
	leaq	.LC38(%rip), %rax
	movq	%rax, serr(%rip)
	nop
.L122:
	leaq	.LC39(%rip), %rax
	movq	%rax, opcodes(%rip)
	leaq	.LC40(%rip), %rax
	movq	%rax, 8+opcodes(%rip)
	leaq	.LC41(%rip), %rax
	movq	%rax, 16+opcodes(%rip)
	leaq	.LC42(%rip), %rax
	movq	%rax, 24+opcodes(%rip)
	leaq	.LC43(%rip), %rax
	movq	%rax, 32+opcodes(%rip)
	leaq	.LC44(%rip), %rax
	movq	%rax, 40+opcodes(%rip)
	leaq	.LC45(%rip), %rax
	movq	%rax, 48+opcodes(%rip)
	leaq	.LC46(%rip), %rax
	movq	%rax, 56+opcodes(%rip)
	leaq	.LC47(%rip), %rax
	movq	%rax, 64+opcodes(%rip)
	leaq	.LC48(%rip), %rax
	movq	%rax, 72+opcodes(%rip)
	leaq	.LC49(%rip), %rax
	movq	%rax, 80+opcodes(%rip)
	leaq	.LC50(%rip), %rax
	movq	%rax, 88+opcodes(%rip)
	nop
.L123:
	leaq	.LC32(%rip), %rax
	movq	%rax, types(%rip)
	leaq	.LC51(%rip), %rax
	movq	%rax, 8+types(%rip)
	leaq	.LC52(%rip), %rax
	movq	%rax, 16+types(%rip)
	leaq	.LC53(%rip), %rax
	movq	%rax, 24+types(%rip)
	leaq	.LC54(%rip), %rax
	movq	%rax, 32+types(%rip)
	leaq	.LC55(%rip), %rax
	movq	%rax, 40+types(%rip)
	nop
.L124:
	movq	$0, _TIG_IZ_xHZ6_envp(%rip)
	nop
.L125:
	movq	$0, _TIG_IZ_xHZ6_argv(%rip)
	nop
.L126:
	movl	$0, _TIG_IZ_xHZ6_argc(%rip)
	nop
	nop
.L127:
.L128:
#APP
# 617 "TheProjecter_qvm_q.c" 1
	##_ANNOTATION_INITIALREGION_-TIG-IZ-xHZ6--0
# 0 "" 2
#NO_APP
	movl	-356(%rbp), %eax
	movl	%eax, _TIG_IZ_xHZ6_argc(%rip)
	movq	-368(%rbp), %rax
	movq	%rax, _TIG_IZ_xHZ6_argv(%rip)
	movq	-376(%rbp), %rax
	movq	%rax, _TIG_IZ_xHZ6_envp(%rip)
#APP
# 624 "TheProjecter_qvm_q.c" 1
	##_ANNOTATION_ATOMICREGION_-TIG-iO-xHZ6-1-main--81
# 0 "" 2
#NO_APP
	movl	$24, %edi
	call	malloc@PLT
	movq	%rax, -312(%rbp)
	movq	-312(%rbp), %rax
	movq	-312(%rbp), %rdx
	movq	%rdx, 16(%rax)
	movq	-312(%rbp), %rax
	movq	-312(%rbp), %rdx
	movq	%rdx, (%rax)
	movq	-312(%rbp), %rax
	movq	%rax, _TIG_iO_xHZ6_1_main_1_opaque_list_1(%rip)
	call	rand@PLT
	movl	%eax, -340(%rbp)
	movl	$24, %edi
	call	malloc@PLT
	movq	%rax, -304(%rbp)
	movq	-304(%rbp), %rax
	movl	$0, 8(%rax)
	movq	_TIG_iO_xHZ6_1_main_1_opaque_list_1(%rip), %rax
	movq	16(%rax), %rdx
	movq	-304(%rbp), %rax
	movq	%rdx, 16(%rax)
	movq	_TIG_iO_xHZ6_1_main_1_opaque_list_1(%rip), %rdx
	movq	-304(%rbp), %rax
	movq	%rdx, (%rax)
	movq	_TIG_iO_xHZ6_1_main_1_opaque_list_1(%rip), %rax
	movq	16(%rax), %rax
	movq	-304(%rbp), %rdx
	movq	%rdx, (%rax)
	movq	_TIG_iO_xHZ6_1_main_1_opaque_list_1(%rip), %rax
	movq	-304(%rbp), %rdx
	movq	%rdx, 16(%rax)
	call	rand@PLT
	movl	%eax, -336(%rbp)
	movl	$24, %edi
	call	malloc@PLT
	movq	%rax, -296(%rbp)
	movq	-296(%rbp), %rax
	movl	-336(%rbp), %edx
	movl	%edx, 8(%rax)
	movq	_TIG_iO_xHZ6_1_main_1_opaque_list_1(%rip), %rax
	movq	16(%rax), %rdx
	movq	-296(%rbp), %rax
	movq	%rdx, 16(%rax)
	movq	_TIG_iO_xHZ6_1_main_1_opaque_list_1(%rip), %rdx
	movq	-296(%rbp), %rax
	movq	%rdx, (%rax)
	movq	_TIG_iO_xHZ6_1_main_1_opaque_list_1(%rip), %rax
	movq	16(%rax), %rax
	movq	-296(%rbp), %rdx
	movq	%rdx, (%rax)
	movq	_TIG_iO_xHZ6_1_main_1_opaque_list_1(%rip), %rax
	movq	-296(%rbp), %rdx
	movq	%rdx, 16(%rax)
	call	rand@PLT
	movl	%eax, -332(%rbp)
	movl	$24, %edi
	call	malloc@PLT
	movq	%rax, -288(%rbp)
	movl	-332(%rbp), %eax
	leal	(%rax,%rax), %edx
	movq	-288(%rbp), %rax
	movl	%edx, 8(%rax)
	movq	_TIG_iO_xHZ6_1_main_1_opaque_list_1(%rip), %rax
	movq	16(%rax), %rdx
	movq	-288(%rbp), %rax
	movq	%rdx, 16(%rax)
	movq	_TIG_iO_xHZ6_1_main_1_opaque_list_1(%rip), %rdx
	movq	-288(%rbp), %rax
	movq	%rdx, (%rax)
	movq	_TIG_iO_xHZ6_1_main_1_opaque_list_1(%rip), %rax
	movq	16(%rax), %rax
	movq	-288(%rbp), %rdx
	movq	%rdx, (%rax)
	movq	_TIG_iO_xHZ6_1_main_1_opaque_list_1(%rip), %rax
	movq	-288(%rbp), %rdx
	movq	%rdx, 16(%rax)
	movq	_TIG_iO_xHZ6_1_main_1_opaque_list_1(%rip), %rax
	movq	16(%rax), %rax
	movq	%rax, _TIG_iO_xHZ6_1_main_1_opaque_ptr_1(%rip)
	movq	_TIG_iO_xHZ6_1_main_1_opaque_ptr_1(%rip), %rax
	movq	%rax, _TIG_iO_xHZ6_1_main_1_opaque_ptr_2(%rip)
	movq	_TIG_iO_xHZ6_1_main_1_opaque_ptr_2(%rip), %rax
	movq	16(%rax), %rax
	movq	%rax, _TIG_iO_xHZ6_1_main_1_opaque_ptr_2(%rip)
	nop
	nop
	movq	$0, -328(%rbp)
.L135:
	movl	-356(%rbp), %eax
	cmpl	$1, %eax
	jle	.L143
	movq	-368(%rbp), %rax
	addq	$8, %rax
	movq	(%rax), %rax
	movzbl	(%rax), %eax
	cmpb	$45, %al
	jne	.L144
	movq	-368(%rbp), %rax
	addq	$8, %rax
	movq	(%rax), %rax
	addq	$1, %rax
	movzbl	(%rax), %eax
	testb	%al, %al
	je	.L145
	movq	-368(%rbp), %rax
	addq	$8, %rax
	movq	(%rax), %rax
	addq	$1, %rax
	movzbl	(%rax), %eax
	movsbl	%al, %eax
	cmpl	$99, %eax
	jne	.L133
	leaq	-368(%rbp), %rdx
	leaq	-356(%rbp), %rax
	movq	%rdx, %rsi
	movq	%rax, %rdi
	call	get_opt
	movq	%rax, -328(%rbp)
	jmp	.L134
.L133:
	call	usage
	nop
.L134:
	jmp	.L135
.L143:
	nop
	jmp	.L132
.L144:
	nop
	jmp	.L132
.L145:
	nop
.L132:
	call	init_op_tab
	movl	-356(%rbp), %eax
	cmpl	$1, %eax
	jle	.L136
	movq	-368(%rbp), %rax
	movq	8(%rax), %rax
	movq	%rax, -320(%rbp)
	jmp	.L137
.L136:
	leaq	.LC56(%rip), %rax
	movq	%rax, -320(%rbp)
.L137:
	leaq	-272(%rbp), %rdx
	movq	-320(%rbp), %rax
	movq	%rdx, %rsi
	movq	%rax, %rdi
	call	q_load
	movq	%rax, -280(%rbp)
	cmpq	$0, -280(%rbp)
	jne	.L138
	leaq	-272(%rbp), %rax
	movq	%rax, %rdi
	call	puts@PLT
	jmp	.L139
.L138:
	cmpq	$0, -328(%rbp)
	je	.L139
	leaq	-272(%rbp), %rdx
	movq	-280(%rbp), %rcx
	movq	-328(%rbp), %rax
	movq	%rcx, %rsi
	movq	%rax, %rdi
	call	q_save
.L139:
	movq	_TIG_iO_xHZ6_1_usage_1_opaque_ptr_1(%rip), %rdx
	movq	_TIG_iO_xHZ6_1_usage_1_opaque_ptr_2(%rip), %rax
	cmpq	%rax, %rdx
	je	.L140
#APP
# 1298 "TheProjecter_qvm_q.c" 1
	.byte 0x7,0xb8
# 0 "" 2
#NO_APP
	movl	$0, %eax
	jmp	.L141
.L140:
	movl	$0, %eax
.L141:
	movq	-8(%rbp), %rdx
	subq	%fs:40, %rdx
	je	.L142
	call	__stack_chk_fail@PLT
.L142:
	leave
	.cfi_def_cfa 7, 8
	ret
	.cfi_endproc
.LFE12:
	.size	main, .-main
	.section	.rodata
.LC57:
	.string	"line %d: unexpected EOF"
.LC58:
	.string	"bad expr"
.LC59:
	.string	"%s: line %d: %s"
	.text
	.type	expr, @function
expr:
.LFB14:
	.cfi_startproc
	endbr64
	pushq	%rbp
	.cfi_def_cfa_offset 16
	.cfi_offset 6, -16
	movq	%rsp, %rbp
	.cfi_def_cfa_register 6
	subq	$4096, %rsp
	orq	$0, (%rsp)
	subq	$192, %rsp
	movq	%rdi, -4264(%rbp)
	movq	%rsi, -4272(%rbp)
	movl	%edx, -4276(%rbp)
	movq	%rcx, -4288(%rbp)
	movq	%fs:40, %rax
	movq	%rax, -8(%rbp)
	xorl	%eax, %eax
#APP
# 76 "/usr/include/x86_64-linux-gnu/bits/uintn-identity.h" 1
	##_ANNOTATION_INITIALREGION_-TIG-iO-xHZ6-1-expr--52
# 0 "" 2
# 80 "/usr/include/x86_64-linux-gnu/bits/uintn-identity.h" 1
	##_ANNOTATION_ATOMICREGION_-TIG-iO-xHZ6-1-expr--51
# 0 "" 2
#NO_APP
	movl	$24, %edi
	call	malloc@PLT
	movq	%rax, -4176(%rbp)
	movq	-4176(%rbp), %rax
	movq	-4176(%rbp), %rdx
	movq	%rdx, (%rax)
	movq	-4176(%rbp), %rax
	movq	-4176(%rbp), %rdx
	movq	%rdx, 16(%rax)
	movq	-4176(%rbp), %rax
	movq	%rax, _TIG_iO_xHZ6_1_expr_1_opaque_list_1(%rip)
	call	rand@PLT
	movl	%eax, -4228(%rbp)
	movl	$24, %edi
	call	malloc@PLT
	movq	%rax, -4168(%rbp)
	movq	-4168(%rbp), %rax
	movl	$0, 8(%rax)
	movq	_TIG_iO_xHZ6_1_expr_1_opaque_list_1(%rip), %rax
	movq	(%rax), %rdx
	movq	-4168(%rbp), %rax
	movq	%rdx, (%rax)
	movq	_TIG_iO_xHZ6_1_expr_1_opaque_list_1(%rip), %rdx
	movq	-4168(%rbp), %rax
	movq	%rdx, 16(%rax)
	movq	_TIG_iO_xHZ6_1_expr_1_opaque_list_1(%rip), %rax
	movq	(%rax), %rax
	movq	-4168(%rbp), %rdx
	movq	%rdx, 16(%rax)
	movq	_TIG_iO_xHZ6_1_expr_1_opaque_list_1(%rip), %rax
	movq	-4168(%rbp), %rdx
	movq	%rdx, (%rax)
	call	rand@PLT
	movl	%eax, -4224(%rbp)
	movl	$24, %edi
	call	malloc@PLT
	movq	%rax, -4160(%rbp)
	movq	-4160(%rbp), %rax
	movl	-4224(%rbp), %edx
	movl	%edx, 8(%rax)
	movq	_TIG_iO_xHZ6_1_expr_1_opaque_list_1(%rip), %rax
	movq	(%rax), %rdx
	movq	-4160(%rbp), %rax
	movq	%rdx, (%rax)
	movq	_TIG_iO_xHZ6_1_expr_1_opaque_list_1(%rip), %rdx
	movq	-4160(%rbp), %rax
	movq	%rdx, 16(%rax)
	movq	_TIG_iO_xHZ6_1_expr_1_opaque_list_1(%rip), %rax
	movq	(%rax), %rax
	movq	-4160(%rbp), %rdx
	movq	%rdx, 16(%rax)
	movq	_TIG_iO_xHZ6_1_expr_1_opaque_list_1(%rip), %rax
	movq	-4160(%rbp), %rdx
	movq	%rdx, (%rax)
	call	rand@PLT
	movl	%eax, -4220(%rbp)
	movl	$24, %edi
	call	malloc@PLT
	movq	%rax, -4152(%rbp)
	movl	-4220(%rbp), %eax
	leal	(%rax,%rax), %edx
	movq	-4152(%rbp), %rax
	movl	%edx, 8(%rax)
	movq	_TIG_iO_xHZ6_1_expr_1_opaque_list_1(%rip), %rax
	movq	(%rax), %rdx
	movq	-4152(%rbp), %rax
	movq	%rdx, (%rax)
	movq	_TIG_iO_xHZ6_1_expr_1_opaque_list_1(%rip), %rdx
	movq	-4152(%rbp), %rax
	movq	%rdx, 16(%rax)
	movq	_TIG_iO_xHZ6_1_expr_1_opaque_list_1(%rip), %rax
	movq	(%rax), %rax
	movq	-4152(%rbp), %rdx
	movq	%rdx, 16(%rax)
	movq	_TIG_iO_xHZ6_1_expr_1_opaque_list_1(%rip), %rax
	movq	-4152(%rbp), %rdx
	movq	%rdx, (%rax)
	call	rand@PLT
	movl	%eax, -4216(%rbp)
	movl	$24, %edi
	call	malloc@PLT
	movq	%rax, -4144(%rbp)
	movl	-4216(%rbp), %edx
	movl	%edx, %eax
	addl	%eax, %eax
	addl	%eax, %edx
	movq	-4144(%rbp), %rax
	movl	%edx, 8(%rax)
	movq	_TIG_iO_xHZ6_1_expr_1_opaque_list_1(%rip), %rax
	movq	(%rax), %rdx
	movq	-4144(%rbp), %rax
	movq	%rdx, (%rax)
	movq	_TIG_iO_xHZ6_1_expr_1_opaque_list_1(%rip), %rdx
	movq	-4144(%rbp), %rax
	movq	%rdx, 16(%rax)
	movq	_TIG_iO_xHZ6_1_expr_1_opaque_list_1(%rip), %rax
	movq	(%rax), %rax
	movq	-4144(%rbp), %rdx
	movq	%rdx, 16(%rax)
	movq	_TIG_iO_xHZ6_1_expr_1_opaque_list_1(%rip), %rax
	movq	-4144(%rbp), %rdx
	movq	%rdx, (%rax)
	movq	_TIG_iO_xHZ6_1_expr_1_opaque_list_1(%rip), %rax
	movq	(%rax), %rax
	movq	%rax, _TIG_iO_xHZ6_1_expr_1_opaque_ptr_1(%rip)
	movq	_TIG_iO_xHZ6_1_expr_1_opaque_ptr_1(%rip), %rax
	movq	%rax, _TIG_iO_xHZ6_1_expr_1_opaque_ptr_2(%rip)
	nop
	nop
	movl	$107, 32+nil(%rip)
	leaq	-4128(%rbp), %rax
	movq	%rax, -4120(%rbp)
	movq	-4120(%rbp), %rax
	movq	%rax, -4128(%rbp)
	movl	$0, -4244(%rbp)
	movl	-4244(%rbp), %eax
	movl	%eax, -4248(%rbp)
	jmp	.L147
.L162:
	movl	-4248(%rbp), %eax
	movl	%eax, -4208(%rbp)
	addl	$1, -4248(%rbp)
	movl	-4208(%rbp), %eax
	cltq
	salq	$6, %rax
	movq	%rax, %rdx
	movq	-4272(%rbp), %rax
	addq	%rdx, %rax
	movq	%rax, -4184(%rbp)
	movq	-4120(%rbp), %rax
	movq	-4184(%rbp), %rdx
	movq	%rdx, (%rax)
	movq	-4120(%rbp), %rdx
	movq	-4184(%rbp), %rax
	movq	%rdx, 8(%rax)
	movq	-4184(%rbp), %rax
	leaq	-4128(%rbp), %rdx
	movq	%rdx, (%rax)
	movq	-4184(%rbp), %rax
	movq	%rax, -4120(%rbp)
	nop
	movq	-4184(%rbp), %rax
	movl	32(%rax), %eax
	cmpl	$111, %eax
	jne	.L148
	movq	-4184(%rbp), %rax
	movl	36(%rax), %edx
	movq	-4264(%rbp), %rax
	leaq	.LC57(%rip), %rcx
	movq	%rcx, %rsi
	movq	%rax, %rdi
	movl	$0, %eax
	call	die
	jmp	.L149
.L148:
	movq	-4184(%rbp), %rax
	movl	32(%rax), %eax
	cmpl	$40, %eax
	je	.L175
	movq	-4184(%rbp), %rax
	movl	32(%rax), %eax
	cmpl	$91, %eax
	jne	.L149
	movq	_TIG_iO_xHZ6_1_usage_1_opaque_ptr_1(%rip), %rdx
	movq	_TIG_iO_xHZ6_1_usage_1_opaque_ptr_2(%rip), %rax
	cmpq	%rax, %rdx
	je	.L176
	jmp	.L152
.L156:
	movq	-4184(%rbp), %rax
	leaq	-64(%rax), %rdx
	movl	-4248(%rbp), %eax
	movl	%eax, %esi
	movq	%rdx, %rdi
	call	qaz
	movl	%eax, -4204(%rbp)
	jmp	.L173
.L155:
	movl	-4240(%rbp), %eax
	cltd
	idivl	-4208(%rbp)
	movl	%edx, %eax
	jmp	.L171
.L173:
	movl	-4204(%rbp), %eax
	cmpl	-4232(%rbp), %eax
	jle	.L155
.L152:
	movq	-4184(%rbp), %rax
	movl	32(%rax), %eax
	cmpl	$40, %eax
	sete	%al
	movzbl	%al, %eax
	cmpl	%eax, -4212(%rbp)
	jl	.L156
	jmp	.L157
.L175:
	nop
	jmp	.L151
.L176:
	nop
.L151:
	movq	-4184(%rbp), %rax
	movl	32(%rax), %eax
	cmpl	$40, %eax
	jne	.L177
	movl	-4248(%rbp), %edx
	movq	-4184(%rbp), %rax
	movl	%edx, %esi
	movq	%rax, %rdi
	call	qaz
	movl	%eax, -4204(%rbp)
	cmpl	$0, -4204(%rbp)
	jne	.L178
	movq	-4184(%rbp), %rax
	movq	(%rax), %rax
	movq	-4184(%rbp), %rdx
	movq	8(%rdx), %rdx
	movq	%rdx, 8(%rax)
	movq	-4184(%rbp), %rax
	movq	8(%rax), %rax
	movq	-4184(%rbp), %rdx
	movq	(%rdx), %rdx
	movq	%rdx, (%rax)
	movq	-4184(%rbp), %rax
	movq	%rax, -4136(%rbp)
	movq	-4184(%rbp), %rax
	movq	-4136(%rbp), %rdx
	movq	%rdx, 8(%rax)
	movq	-4184(%rbp), %rax
	movq	-4136(%rbp), %rdx
	movq	%rdx, (%rax)
	jmp	.L157
.L177:
	nop
	jmp	.L158
.L178:
	nop
.L158:
	movq	-4184(%rbp), %rax
	movl	32(%rax), %eax
	cmpl	$91, %eax
	jne	.L157
	movl	-4248(%rbp), %edx
	movq	-4184(%rbp), %rax
	movl	%edx, %esi
	movq	%rax, %rdi
	call	qaz
	movl	%eax, -4240(%rbp)
	cmpl	$0, -4240(%rbp)
	je	.L157
	movq	-4184(%rbp), %rax
	movl	$46, 32(%rax)
.L157:
	movq	-4184(%rbp), %rax
	movl	32(%rax), %eax
	cmpl	$40, %eax
	jne	.L160
	movl	$41, -4236(%rbp)
	jmp	.L161
.L160:
	movl	$93, -4236(%rbp)
.L161:
	movq	-4184(%rbp), %rax
	leaq	64(%rax), %rsi
	leaq	-4192(%rbp), %rcx
	movl	-4236(%rbp), %edx
	movq	-4264(%rbp), %rax
	movq	%rax, %rdi
	call	expr
	movl	%eax, -4200(%rbp)
	movl	-4200(%rbp), %eax
	addl	%eax, -4248(%rbp)
	movq	-4192(%rbp), %rdx
	movq	-4120(%rbp), %rax
	movq	%rdx, (%rax)
	movq	-4192(%rbp), %rax
	movq	-4120(%rbp), %rdx
	movq	%rdx, 8(%rax)
	movq	-4192(%rbp), %rax
	leaq	-4128(%rbp), %rdx
	movq	%rdx, (%rax)
	movq	-4192(%rbp), %rax
	movq	%rax, -4120(%rbp)
	nop
.L149:
	movq	-4184(%rbp), %rax
	movl	32(%rax), %eax
	movl	%eax, %edi
	call	is_op
	movl	%eax, -4232(%rbp)
	cmpl	$0, -4232(%rbp)
	je	.L147
	movl	-4244(%rbp), %eax
	movl	%eax, -4196(%rbp)
	addl	$1, -4244(%rbp)
	movl	-4196(%rbp), %eax
	cltq
	movq	-4184(%rbp), %rdx
	movq	%rdx, -4112(%rbp,%rax,8)
.L147:
	movl	-4248(%rbp), %eax
	cltq
	salq	$6, %rax
	movq	%rax, %rdx
	movq	-4272(%rbp), %rax
	addq	%rdx, %rax
	movl	32(%rax), %eax
	cmpl	%eax, -4276(%rbp)
	jne	.L162
	movl	-4244(%rbp), %edx
	leaq	-4112(%rbp), %rax
	movl	%edx, %esi
	movq	%rax, %rdi
	call	bubble_sort_ops_by_priority
	movl	$0, -4256(%rbp)
	jmp	.L163
.L167:
	movl	$0, -4252(%rbp)
.L166:
	movl	-4256(%rbp), %eax
	cltq
	movq	-4112(%rbp,%rax,8), %rax
	movl	32(%rax), %eax
	movl	%eax, %edi
	call	nargs
	movl	%eax, -4212(%rbp)
	movl	-4252(%rbp), %eax
	cmpl	-4212(%rbp), %eax
	jge	.L179
	movl	-4256(%rbp), %eax
	cltq
	movq	-4112(%rbp,%rax,8), %rsi
	leaq	-4128(%rbp), %rcx
	movl	-4252(%rbp), %edx
	movq	-4264(%rbp), %rax
	movq	%rax, %rdi
	call	reduce
	addl	$1, -4252(%rbp)
	jmp	.L166
.L179:
	nop
	addl	$1, -4256(%rbp)
.L163:
	movl	-4256(%rbp), %eax
	cmpl	-4244(%rbp), %eax
	jl	.L167
	movq	-4128(%rbp), %rax
	movq	%rax, %rdx
	movq	-4120(%rbp), %rax
	cmpq	%rax, %rdx
	je	.L168
	movq	-4184(%rbp), %rax
	movl	36(%rax), %ecx
	movq	serr(%rip), %rdx
	movq	-4264(%rbp), %rax
	leaq	.LC58(%rip), %r8
	leaq	.LC59(%rip), %rsi
	movq	%rax, %rdi
	movl	$0, %eax
	call	die
.L168:
	cmpl	$0, -4248(%rbp)
	jne	.L169
	movq	-4288(%rbp), %rax
	leaq	nil(%rip), %rdx
	movq	%rdx, (%rax)
	jmp	.L170
.L169:
	movq	-4128(%rbp), %rdx
	movq	-4288(%rbp), %rax
	movq	%rdx, (%rax)
.L170:
	movl	-4248(%rbp), %eax
	addl	$1, %eax
.L171:
	movq	-8(%rbp), %rdx
	subq	%fs:40, %rdx
	je	.L172
	call	__stack_chk_fail@PLT
.L172:
	leave
	.cfi_def_cfa 7, 8
	ret
	.cfi_endproc
.LFE14:
	.size	expr, .-expr
	.type	hash_str, @function
hash_str:
.LFB15:
	.cfi_startproc
	endbr64
	pushq	%rbp
	.cfi_def_cfa_offset 16
	.cfi_offset 6, -16
	movq	%rsp, %rbp
	.cfi_def_cfa_register 6
	subq	$64, %rsp
	movq	%rdi, -56(%rbp)
	movq	%rsi, -64(%rbp)
#APP
# 1182 "TheProjecter_qvm_q.c" 1
	##_ANNOTATION_INITIALREGION_-TIG-iO-xHZ6-1-hash-str--58
# 0 "" 2
# 1186 "TheProjecter_qvm_q.c" 1
	##_ANNOTATION_ATOMICREGION_-TIG-iO-xHZ6-1-hash-str--57
# 0 "" 2
#NO_APP
	movl	$24, %edi
	call	malloc@PLT
	movq	%rax, -32(%rbp)
	movq	-32(%rbp), %rax
	movq	-32(%rbp), %rdx
	movq	%rdx, 8(%rax)
	movq	-32(%rbp), %rax
	movq	-32(%rbp), %rdx
	movq	%rdx, 16(%rax)
	movq	-32(%rbp), %rax
	movq	%rax, _TIG_iO_xHZ6_1_hash_str_1_opaque_list_1(%rip)
	call	rand@PLT
	movl	%eax, -44(%rbp)
	movl	$24, %edi
	call	malloc@PLT
	movq	%rax, -24(%rbp)
	movq	-24(%rbp), %rax
	movl	$0, (%rax)
	movq	_TIG_iO_xHZ6_1_hash_str_1_opaque_list_1(%rip), %rax
	movq	8(%rax), %rdx
	movq	-24(%rbp), %rax
	movq	%rdx, 8(%rax)
	movq	_TIG_iO_xHZ6_1_hash_str_1_opaque_list_1(%rip), %rdx
	movq	-24(%rbp), %rax
	movq	%rdx, 16(%rax)
	movq	_TIG_iO_xHZ6_1_hash_str_1_opaque_list_1(%rip), %rax
	movq	8(%rax), %rax
	movq	-24(%rbp), %rdx
	movq	%rdx, 16(%rax)
	movq	_TIG_iO_xHZ6_1_hash_str_1_opaque_list_1(%rip), %rax
	movq	-24(%rbp), %rdx
	movq	%rdx, 8(%rax)
	call	rand@PLT
	movl	%eax, -40(%rbp)
	movl	$24, %edi
	call	malloc@PLT
	movq	%rax, -16(%rbp)
	movq	-16(%rbp), %rax
	movl	-40(%rbp), %edx
	movl	%edx, (%rax)
	movq	_TIG_iO_xHZ6_1_hash_str_1_opaque_list_1(%rip), %rax
	movq	8(%rax), %rdx
	movq	-16(%rbp), %rax
	movq	%rdx, 8(%rax)
	movq	_TIG_iO_xHZ6_1_hash_str_1_opaque_list_1(%rip), %rdx
	movq	-16(%rbp), %rax
	movq	%rdx, 16(%rax)
	movq	_TIG_iO_xHZ6_1_hash_str_1_opaque_list_1(%rip), %rax
	movq	8(%rax), %rax
	movq	-16(%rbp), %rdx
	movq	%rdx, 16(%rax)
	movq	_TIG_iO_xHZ6_1_hash_str_1_opaque_list_1(%rip), %rax
	movq	-16(%rbp), %rdx
	movq	%rdx, 8(%rax)
	call	rand@PLT
	movl	%eax, -36(%rbp)
	movl	$24, %edi
	call	malloc@PLT
	movq	%rax, -8(%rbp)
	movl	-36(%rbp), %eax
	leal	(%rax,%rax), %edx
	movq	-8(%rbp), %rax
	movl	%edx, (%rax)
	movq	_TIG_iO_xHZ6_1_hash_str_1_opaque_list_1(%rip), %rax
	movq	8(%rax), %rdx
	movq	-8(%rbp), %rax
	movq	%rdx, 8(%rax)
	movq	_TIG_iO_xHZ6_1_hash_str_1_opaque_list_1(%rip), %rdx
	movq	-8(%rbp), %rax
	movq	%rdx, 16(%rax)
	movq	_TIG_iO_xHZ6_1_hash_str_1_opaque_list_1(%rip), %rax
	movq	8(%rax), %rax
	movq	-8(%rbp), %rdx
	movq	%rdx, 16(%rax)
	movq	_TIG_iO_xHZ6_1_hash_str_1_opaque_list_1(%rip), %rax
	movq	-8(%rbp), %rdx
	movq	%rdx, 8(%rax)
	movq	_TIG_iO_xHZ6_1_hash_str_1_opaque_list_1(%rip), %rax
	movq	8(%rax), %rax
	movq	%rax, _TIG_iO_xHZ6_1_hash_str_1_opaque_ptr_1(%rip)
	movq	_TIG_iO_xHZ6_1_hash_str_1_opaque_ptr_1(%rip), %rax
	movq	%rax, _TIG_iO_xHZ6_1_hash_str_1_opaque_ptr_2(%rip)
	nop
	nop
	movq	_TIG_iO_xHZ6_1_usage_1_opaque_ptr_1(%rip), %rdx
	movq	_TIG_iO_xHZ6_1_usage_1_opaque_ptr_2(%rip), %rax
	cmpq	%rax, %rdx
	je	.L181
	movl	$0, %esi
	movl	$0, %edi
	call	match_long_token
	movl	%eax, -44(%rbp)
.L181:
	movl	$0, -48(%rbp)
	jmp	.L182
.L183:
	movq	-56(%rbp), %rax
	salq	$5, %rax
	subq	-56(%rbp), %rax
	movq	%rax, %rdx
	movq	-64(%rbp), %rax
	movq	8(%rax), %rcx
	movl	-48(%rbp), %eax
	cltq
	addq	%rcx, %rax
	movzbl	(%rax), %eax
	movsbq	%al, %rax
	addq	%rdx, %rax
	movq	%rax, -56(%rbp)
	addl	$1, -48(%rbp)
.L182:
	movq	-64(%rbp), %rax
	movl	(%rax), %eax
	cmpl	%eax, -48(%rbp)
	jl	.L183
	movq	-56(%rbp), %rax
	leave
	.cfi_def_cfa 7, 8
	ret
	.cfi_endproc
.LFE15:
	.size	hash_str, .-hash_str
	.type	lookup_ins, @function
lookup_ins:
.LFB17:
	.cfi_startproc
	endbr64
	pushq	%rbp
	.cfi_def_cfa_offset 16
	.cfi_offset 6, -16
	movq	%rsp, %rbp
	.cfi_def_cfa_register 6
	subq	$112, %rsp
	movq	%rdi, -88(%rbp)
	movq	%rsi, -96(%rbp)
	movq	%rdx, -104(%rbp)
	movq	%fs:40, %rax
	movq	%rax, -8(%rbp)
	xorl	%eax, %eax
#APP
# 65 "/usr/include/x86_64-linux-gnu/bits/uintn-identity.h" 1
	##_ANNOTATION_INITIALREGION_-TIG-iO-xHZ6-1-lookup-ins--78
# 0 "" 2
# 69 "/usr/include/x86_64-linux-gnu/bits/uintn-identity.h" 1
	##_ANNOTATION_ATOMICREGION_-TIG-iO-xHZ6-1-lookup-ins--77
# 0 "" 2
#NO_APP
	movl	$24, %edi
	call	malloc@PLT
	movq	%rax, -48(%rbp)
	movq	-48(%rbp), %rax
	movq	-48(%rbp), %rdx
	movq	%rdx, (%rax)
	movq	-48(%rbp), %rax
	movq	-48(%rbp), %rdx
	movq	%rdx, 8(%rax)
	movq	-48(%rbp), %rax
	movq	%rax, _TIG_iO_xHZ6_1_lookup_ins_1_opaque_list_1(%rip)
	call	rand@PLT
	movl	%eax, -72(%rbp)
	movl	$24, %edi
	call	malloc@PLT
	movq	%rax, -40(%rbp)
	movq	-40(%rbp), %rax
	movl	$0, 16(%rax)
	movq	_TIG_iO_xHZ6_1_lookup_ins_1_opaque_list_1(%rip), %rax
	movq	(%rax), %rdx
	movq	-40(%rbp), %rax
	movq	%rdx, (%rax)
	movq	_TIG_iO_xHZ6_1_lookup_ins_1_opaque_list_1(%rip), %rdx
	movq	-40(%rbp), %rax
	movq	%rdx, 8(%rax)
	movq	_TIG_iO_xHZ6_1_lookup_ins_1_opaque_list_1(%rip), %rax
	movq	(%rax), %rax
	movq	-40(%rbp), %rdx
	movq	%rdx, 8(%rax)
	movq	_TIG_iO_xHZ6_1_lookup_ins_1_opaque_list_1(%rip), %rax
	movq	-40(%rbp), %rdx
	movq	%rdx, (%rax)
	call	rand@PLT
	movl	%eax, -68(%rbp)
	movl	$24, %edi
	call	malloc@PLT
	movq	%rax, -32(%rbp)
	movq	-32(%rbp), %rax
	movl	-68(%rbp), %edx
	movl	%edx, 16(%rax)
	movq	_TIG_iO_xHZ6_1_lookup_ins_1_opaque_list_1(%rip), %rax
	movq	(%rax), %rdx
	movq	-32(%rbp), %rax
	movq	%rdx, (%rax)
	movq	_TIG_iO_xHZ6_1_lookup_ins_1_opaque_list_1(%rip), %rdx
	movq	-32(%rbp), %rax
	movq	%rdx, 8(%rax)
	movq	_TIG_iO_xHZ6_1_lookup_ins_1_opaque_list_1(%rip), %rax
	movq	(%rax), %rax
	movq	-32(%rbp), %rdx
	movq	%rdx, 8(%rax)
	movq	_TIG_iO_xHZ6_1_lookup_ins_1_opaque_list_1(%rip), %rax
	movq	-32(%rbp), %rdx
	movq	%rdx, (%rax)
	movq	_TIG_iO_xHZ6_1_lookup_ins_1_opaque_list_1(%rip), %rax
	movq	(%rax), %rax
	movq	%rax, _TIG_iO_xHZ6_1_lookup_ins_1_opaque_ptr_1(%rip)
	movq	_TIG_iO_xHZ6_1_lookup_ins_1_opaque_ptr_1(%rip), %rax
	movq	%rax, _TIG_iO_xHZ6_1_lookup_ins_1_opaque_ptr_2(%rip)
	nop
	nop
	movq	-88(%rbp), %rax
	movq	8(%rax), %rax
	movq	%rax, -24(%rbp)
	leaq	-64(%rbp), %rdx
	movq	-96(%rbp), %rcx
	movq	-88(%rbp), %rax
	movq	%rcx, %rsi
	movq	%rax, %rdi
	call	lookup
	movq	%rax, -56(%rbp)
	movq	_TIG_iO_xHZ6_1_usage_1_opaque_ptr_1(%rip), %rdx
	movq	_TIG_iO_xHZ6_1_usage_1_opaque_ptr_2(%rip), %rax
	cmpq	%rax, %rdx
	jne	.L186
	cmpq	$0, -56(%rbp)
	jne	.L186
	movl	$64, %esi
	movl	$1, %edi
	call	calloc@PLT
	movq	%rax, -16(%rbp)
	movq	-16(%rbp), %rax
	movq	%rax, -56(%rbp)
	movq	-56(%rbp), %rcx
	movq	-96(%rbp), %rsi
	movq	(%rsi), %rax
	movq	8(%rsi), %rdx
	movq	%rax, 16(%rcx)
	movq	%rdx, 24(%rcx)
	movq	16(%rsi), %rax
	movq	%rax, 32(%rcx)
	cmpq	$0, -104(%rbp)
	je	.L187
	movq	-56(%rbp), %rcx
	movq	-104(%rbp), %rsi
	movq	(%rsi), %rax
	movq	8(%rsi), %rdx
	movq	%rax, 40(%rcx)
	movq	%rdx, 48(%rcx)
	movq	16(%rsi), %rax
	movq	%rax, 56(%rcx)
.L187:
	movq	-24(%rbp), %rax
	leaq	24(%rax), %rdx
	movq	-64(%rbp), %rax
	salq	$4, %rax
	addq	%rdx, %rax
	movq	8(%rax), %rax
	movq	-56(%rbp), %rdx
	movq	%rdx, (%rax)
	movq	-24(%rbp), %rax
	leaq	24(%rax), %rdx
	movq	-64(%rbp), %rax
	salq	$4, %rax
	addq	%rdx, %rax
	movq	8(%rax), %rdx
	movq	-56(%rbp), %rax
	movq	%rdx, 8(%rax)
	movq	-24(%rbp), %rax
	leaq	24(%rax), %rdx
	movq	-64(%rbp), %rax
	salq	$4, %rax
	addq	%rax, %rdx
	movq	-56(%rbp), %rax
	movq	%rdx, (%rax)
	movq	-24(%rbp), %rax
	leaq	24(%rax), %rdx
	movq	-64(%rbp), %rax
	salq	$4, %rax
	addq	%rax, %rdx
	movq	-56(%rbp), %rax
	movq	%rax, 8(%rdx)
	nop
.L186:
	movq	-56(%rbp), %rax
	addq	$40, %rax
	movq	-8(%rbp), %rdx
	subq	%fs:40, %rdx
	je	.L189
	call	__stack_chk_fail@PLT
.L189:
	leave
	.cfi_def_cfa 7, 8
	ret
	.cfi_endproc
.LFE17:
	.size	lookup_ins, .-lookup_ins
	.section	.rodata
.LC60:
	.string	"w+"
.LC61:
	.string	"ABC1"
	.text
	.type	q_save, @function
q_save:
.LFB18:
	.cfi_startproc
	endbr64
	pushq	%rbp
	.cfi_def_cfa_offset 16
	.cfi_offset 6, -16
	movq	%rsp, %rbp
	.cfi_def_cfa_register 6
	subq	$96, %rsp
	movq	%rdi, -72(%rbp)
	movq	%rsi, -80(%rbp)
	movq	%rdx, -88(%rbp)
#APP
# 655 "TheProjecter_qvm_q.c" 1
	##_ANNOTATION_INITIALREGION_-TIG-iO-xHZ6-1-q-save--104
# 0 "" 2
# 659 "TheProjecter_qvm_q.c" 1
	##_ANNOTATION_ATOMICREGION_-TIG-iO-xHZ6-1-q-save--103
# 0 "" 2
#NO_APP
	movl	$24, %edi
	call	malloc@PLT
	movq	%rax, -48(%rbp)
	movq	-48(%rbp), %rax
	movq	-48(%rbp), %rdx
	movq	%rdx, 8(%rax)
	movq	-48(%rbp), %rax
	movq	-48(%rbp), %rdx
	movq	%rdx, 16(%rax)
	movq	-48(%rbp), %rax
	movq	%rax, _TIG_iO_xHZ6_1_q_save_1_opaque_list_1(%rip)
	call	rand@PLT
	movl	%eax, -56(%rbp)
	movl	$24, %edi
	call	malloc@PLT
	movq	%rax, -40(%rbp)
	movq	-40(%rbp), %rax
	movl	$0, (%rax)
	movq	_TIG_iO_xHZ6_1_q_save_1_opaque_list_1(%rip), %rax
	movq	8(%rax), %rdx
	movq	-40(%rbp), %rax
	movq	%rdx, 8(%rax)
	movq	_TIG_iO_xHZ6_1_q_save_1_opaque_list_1(%rip), %rdx
	movq	-40(%rbp), %rax
	movq	%rdx, 16(%rax)
	movq	_TIG_iO_xHZ6_1_q_save_1_opaque_list_1(%rip), %rax
	movq	8(%rax), %rax
	movq	-40(%rbp), %rdx
	movq	%rdx, 16(%rax)
	movq	_TIG_iO_xHZ6_1_q_save_1_opaque_list_1(%rip), %rax
	movq	-40(%rbp), %rdx
	movq	%rdx, 8(%rax)
	call	rand@PLT
	movl	%eax, -52(%rbp)
	movl	$24, %edi
	call	malloc@PLT
	movq	%rax, -32(%rbp)
	movq	-32(%rbp), %rax
	movl	-52(%rbp), %edx
	movl	%edx, (%rax)
	movq	_TIG_iO_xHZ6_1_q_save_1_opaque_list_1(%rip), %rax
	movq	8(%rax), %rdx
	movq	-32(%rbp), %rax
	movq	%rdx, 8(%rax)
	movq	_TIG_iO_xHZ6_1_q_save_1_opaque_list_1(%rip), %rdx
	movq	-32(%rbp), %rax
	movq	%rdx, 16(%rax)
	movq	_TIG_iO_xHZ6_1_q_save_1_opaque_list_1(%rip), %rax
	movq	8(%rax), %rax
	movq	-32(%rbp), %rdx
	movq	%rdx, 16(%rax)
	movq	_TIG_iO_xHZ6_1_q_save_1_opaque_list_1(%rip), %rax
	movq	-32(%rbp), %rdx
	movq	%rdx, 8(%rax)
	movq	_TIG_iO_xHZ6_1_q_save_1_opaque_list_1(%rip), %rax
	movq	8(%rax), %rax
	movq	%rax, _TIG_iO_xHZ6_1_q_save_1_opaque_ptr_1(%rip)
	movq	_TIG_iO_xHZ6_1_q_save_1_opaque_ptr_1(%rip), %rax
	movq	%rax, _TIG_iO_xHZ6_1_q_save_1_opaque_ptr_2(%rip)
	movq	_TIG_iO_xHZ6_1_q_save_1_opaque_ptr_2(%rip), %rax
	movq	8(%rax), %rax
	movq	%rax, _TIG_iO_xHZ6_1_q_save_1_opaque_ptr_2(%rip)
	nop
	nop
	movq	-72(%rbp), %rax
	leaq	.LC60(%rip), %rdx
	movq	%rdx, %rsi
	movq	%rax, %rdi
	call	fopen@PLT
	movq	%rax, -24(%rbp)
	cmpq	$0, -24(%rbp)
	jne	.L191
	call	__errno_location@PLT
	movq	%rax, -16(%rbp)
	movq	-16(%rbp), %rax
	movl	(%rax), %eax
	movl	%eax, %edi
	call	strerror@PLT
	movq	%rax, -8(%rbp)
	movq	-8(%rbp), %rcx
	movq	-72(%rbp), %rdx
	movq	-88(%rbp), %rax
	movq	%rcx, %r8
	movq	%rdx, %rcx
	leaq	.LC5(%rip), %rdx
	movl	$256, %esi
	movq	%rax, %rdi
	movl	$0, %eax
	call	snprintf@PLT
	jmp	.L192
.L191:
	movq	-24(%rbp), %rax
	movq	%rax, %rcx
	movl	$4, %edx
	movl	$1, %esi
	leaq	.LC61(%rip), %rax
	movq	%rax, %rdi
	call	fwrite@PLT
	movq	-80(%rbp), %rax
	movl	52(%rax), %eax
	movslq	%eax, %rdx
	movq	-80(%rbp), %rax
	movq	24(%rax), %rax
	movq	-24(%rbp), %rcx
	movl	$1, %esi
	movq	%rax, %rdi
	call	fwrite@PLT
	movq	-24(%rbp), %rax
	movq	%rax, %rdi
	call	fclose@PLT
.L192:
	movq	_TIG_iO_xHZ6_1_usage_1_opaque_ptr_1(%rip), %rdx
	movq	_TIG_iO_xHZ6_1_usage_1_opaque_ptr_2(%rip), %rax
	cmpq	%rax, %rdx
	leave
	.cfi_def_cfa 7, 8
	ret
	.cfi_endproc
.LFE18:
	.size	q_save, .-q_save
	.section	.rodata
.LC62:
	.string	"cannot allocate memory for q"
	.text
	.type	q_load, @function
q_load:
.LFB19:
	.cfi_startproc
	endbr64
	pushq	%rbp
	.cfi_def_cfa_offset 16
	.cfi_offset 6, -16
	movq	%rsp, %rbp
	.cfi_def_cfa_register 6
	subq	$80, %rsp
	movq	%rdi, -72(%rbp)
	movq	%rsi, -80(%rbp)
#APP
# 987 "TheProjecter_qvm_q.c" 1
	##_ANNOTATION_INITIALREGION_-TIG-iO-xHZ6-1-q-load--102
# 0 "" 2
# 991 "TheProjecter_qvm_q.c" 1
	##_ANNOTATION_ATOMICREGION_-TIG-iO-xHZ6-1-q-load--101
# 0 "" 2
#NO_APP
	movl	$24, %edi
	call	malloc@PLT
	movq	%rax, -32(%rbp)
	movq	-32(%rbp), %rax
	movq	-32(%rbp), %rdx
	movq	%rdx, (%rax)
	movq	-32(%rbp), %rax
	movq	-32(%rbp), %rdx
	movq	%rdx, 8(%rax)
	movq	-32(%rbp), %rax
	movq	%rax, _TIG_iO_xHZ6_1_q_load_1_opaque_list_1(%rip)
	call	rand@PLT
	movl	%eax, -60(%rbp)
	movl	$24, %edi
	call	malloc@PLT
	movq	%rax, -24(%rbp)
	movq	-24(%rbp), %rax
	movl	$0, 16(%rax)
	movq	_TIG_iO_xHZ6_1_q_load_1_opaque_list_1(%rip), %rax
	movq	(%rax), %rdx
	movq	-24(%rbp), %rax
	movq	%rdx, (%rax)
	movq	_TIG_iO_xHZ6_1_q_load_1_opaque_list_1(%rip), %rdx
	movq	-24(%rbp), %rax
	movq	%rdx, 8(%rax)
	movq	_TIG_iO_xHZ6_1_q_load_1_opaque_list_1(%rip), %rax
	movq	(%rax), %rax
	movq	-24(%rbp), %rdx
	movq	%rdx, 8(%rax)
	movq	_TIG_iO_xHZ6_1_q_load_1_opaque_list_1(%rip), %rax
	movq	-24(%rbp), %rdx
	movq	%rdx, (%rax)
	call	rand@PLT
	movl	%eax, -56(%rbp)
	movl	$24, %edi
	call	malloc@PLT
	movq	%rax, -16(%rbp)
	movq	-16(%rbp), %rax
	movl	-56(%rbp), %edx
	movl	%edx, 16(%rax)
	movq	_TIG_iO_xHZ6_1_q_load_1_opaque_list_1(%rip), %rax
	movq	(%rax), %rdx
	movq	-16(%rbp), %rax
	movq	%rdx, (%rax)
	movq	_TIG_iO_xHZ6_1_q_load_1_opaque_list_1(%rip), %rdx
	movq	-16(%rbp), %rax
	movq	%rdx, 8(%rax)
	movq	_TIG_iO_xHZ6_1_q_load_1_opaque_list_1(%rip), %rax
	movq	(%rax), %rax
	movq	-16(%rbp), %rdx
	movq	%rdx, 8(%rax)
	movq	_TIG_iO_xHZ6_1_q_load_1_opaque_list_1(%rip), %rax
	movq	-16(%rbp), %rdx
	movq	%rdx, (%rax)
	movq	_TIG_iO_xHZ6_1_q_load_1_opaque_list_1(%rip), %rax
	movq	(%rax), %rax
	movq	%rax, _TIG_iO_xHZ6_1_q_load_1_opaque_ptr_1(%rip)
	movq	_TIG_iO_xHZ6_1_q_load_1_opaque_ptr_1(%rip), %rax
	movq	%rax, _TIG_iO_xHZ6_1_q_load_1_opaque_ptr_2(%rip)
	nop
	nop
	movq	loaded_modules(%rip), %rax
	movq	%rax, -48(%rbp)
	jmp	.L195
.L198:
	movq	-48(%rbp), %rax
	movq	%rax, -40(%rbp)
	movq	-40(%rbp), %rax
	movq	16(%rax), %rax
	movq	-72(%rbp), %rdx
	movq	%rdx, %rsi
	movq	%rax, %rdi
	call	strcmp@PLT
	movl	%eax, -52(%rbp)
	cmpl	$0, -52(%rbp)
	jne	.L196
	movq	-40(%rbp), %rax
	jmp	.L197
.L196:
	movq	-48(%rbp), %rax
	movq	(%rax), %rax
	movq	%rax, -48(%rbp)
.L195:
	movq	-48(%rbp), %rax
	leaq	loaded_modules(%rip), %rdx
	cmpq	%rdx, %rax
	jne	.L198
	movl	$272, %esi
	movl	$1, %edi
	call	calloc@PLT
	movq	%rax, -8(%rbp)
	movq	-8(%rbp), %rax
	movq	%rax, -40(%rbp)
	cmpq	$0, -40(%rbp)
	jne	.L199
	movq	-80(%rbp), %rax
	leaq	.LC62(%rip), %rdx
	movq	%rdx, %rcx
	leaq	.LC24(%rip), %rdx
	movl	$256, %esi
	movq	%rax, %rdi
	movl	$0, %eax
	call	snprintf@PLT
	jmp	.L200
.L199:
	movq	_TIG_iO_xHZ6_1_usage_1_opaque_ptr_1(%rip), %rdx
	movq	_TIG_iO_xHZ6_1_usage_1_opaque_ptr_2(%rip), %rax
	cmpq	%rax, %rdx
	je	.L201
#APP
# 1238 "TheProjecter_qvm_q.c" 1
	.byte 0x1e,0x71,0x48,0x80,0x98
# 0 "" 2
#NO_APP
	jmp	.L202
.L201:
	movq	-40(%rbp), %rax
	addq	$64, %rax
	movq	%rax, %rdi
	call	_setjmp@PLT
	endbr64
	movl	%eax, -64(%rbp)
.L202:
	cmpl	$0, -64(%rbp)
	je	.L204
	movq	-40(%rbp), %rax
	movq	%rax, %rdi
	call	q_free
	movq	$0, -40(%rbp)
	jmp	.L200
.L204:
	movq	-40(%rbp), %rax
	movq	-80(%rbp), %rdx
	movq	%rdx, 264(%rax)
	movq	-72(%rbp), %rax
	movq	%rax, %rdi
	call	strdup@PLT
	movq	%rax, %rdx
	movq	-40(%rbp), %rax
	movq	%rdx, 16(%rax)
	movq	-72(%rbp), %rdx
	movq	-40(%rbp), %rax
	movq	%rdx, %rsi
	movq	%rax, %rdi
	call	compile
.L200:
	movq	-40(%rbp), %rax
.L197:
	leave
	.cfi_def_cfa 7, 8
	ret
	.cfi_endproc
.LFE19:
	.size	q_load, .-q_load
	.type	calc_hash, @function
calc_hash:
.LFB20:
	.cfi_startproc
	endbr64
	pushq	%rbp
	.cfi_def_cfa_offset 16
	.cfi_offset 6, -16
	movq	%rsp, %rbp
	.cfi_def_cfa_register 6
	subq	$64, %rsp
	movq	%rdi, -56(%rbp)
#APP
# 1261 "TheProjecter_qvm_q.c" 1
	##_ANNOTATION_INITIALREGION_-TIG-iO-xHZ6-1-calc-hash--16
# 0 "" 2
# 1265 "TheProjecter_qvm_q.c" 1
	##_ANNOTATION_ATOMICREGION_-TIG-iO-xHZ6-1-calc-hash--15
# 0 "" 2
#NO_APP
	movl	$24, %edi
	call	malloc@PLT
	movq	%rax, -24(%rbp)
	movq	-24(%rbp), %rax
	movq	-24(%rbp), %rdx
	movq	%rdx, 16(%rax)
	movq	-24(%rbp), %rax
	movq	-24(%rbp), %rdx
	movq	%rdx, 8(%rax)
	movq	-24(%rbp), %rax
	movq	%rax, _TIG_iO_xHZ6_1_calc_hash_1_opaque_list_1(%rip)
	call	rand@PLT
	movl	%eax, -40(%rbp)
	movl	$24, %edi
	call	malloc@PLT
	movq	%rax, -16(%rbp)
	movq	-16(%rbp), %rax
	movl	$0, (%rax)
	movq	_TIG_iO_xHZ6_1_calc_hash_1_opaque_list_1(%rip), %rax
	movq	16(%rax), %rdx
	movq	-16(%rbp), %rax
	movq	%rdx, 16(%rax)
	movq	_TIG_iO_xHZ6_1_calc_hash_1_opaque_list_1(%rip), %rdx
	movq	-16(%rbp), %rax
	movq	%rdx, 8(%rax)
	movq	_TIG_iO_xHZ6_1_calc_hash_1_opaque_list_1(%rip), %rax
	movq	16(%rax), %rax
	movq	-16(%rbp), %rdx
	movq	%rdx, 8(%rax)
	movq	_TIG_iO_xHZ6_1_calc_hash_1_opaque_list_1(%rip), %rax
	movq	-16(%rbp), %rdx
	movq	%rdx, 16(%rax)
	call	rand@PLT
	movl	%eax, -36(%rbp)
	movl	$24, %edi
	call	malloc@PLT
	movq	%rax, -8(%rbp)
	movq	-8(%rbp), %rax
	movl	-36(%rbp), %edx
	movl	%edx, (%rax)
	movq	_TIG_iO_xHZ6_1_calc_hash_1_opaque_list_1(%rip), %rax
	movq	16(%rax), %rdx
	movq	-8(%rbp), %rax
	movq	%rdx, 16(%rax)
	movq	_TIG_iO_xHZ6_1_calc_hash_1_opaque_list_1(%rip), %rdx
	movq	-8(%rbp), %rax
	movq	%rdx, 8(%rax)
	movq	_TIG_iO_xHZ6_1_calc_hash_1_opaque_list_1(%rip), %rax
	movq	16(%rax), %rax
	movq	-8(%rbp), %rdx
	movq	%rdx, 8(%rax)
	movq	_TIG_iO_xHZ6_1_calc_hash_1_opaque_list_1(%rip), %rax
	movq	-8(%rbp), %rdx
	movq	%rdx, 16(%rax)
	movq	_TIG_iO_xHZ6_1_calc_hash_1_opaque_list_1(%rip), %rax
	movq	16(%rax), %rax
	movq	%rax, _TIG_iO_xHZ6_1_calc_hash_1_opaque_ptr_1(%rip)
	movq	_TIG_iO_xHZ6_1_calc_hash_1_opaque_ptr_1(%rip), %rax
	movq	%rax, _TIG_iO_xHZ6_1_calc_hash_1_opaque_ptr_2(%rip)
	nop
	nop
	movq	-56(%rbp), %rax
	movzbl	(%rax), %eax
	movzbl	%al, %eax
	movq	%rax, -32(%rbp)
	movq	_TIG_iO_xHZ6_1_usage_1_opaque_ptr_1(%rip), %rdx
	movq	_TIG_iO_xHZ6_1_usage_1_opaque_ptr_2(%rip), %rax
	cmpq	%rax, %rdx
	jne	.L206
	movq	-56(%rbp), %rax
	movzbl	(%rax), %eax
	movzbl	%al, %eax
	cmpl	$5, %eax
	ja	.L207
	movl	%eax, %eax
	leaq	0(,%rax,4), %rdx
	leaq	.L209(%rip), %rax
	movl	(%rdx,%rax), %eax
	cltq
	leaq	.L209(%rip), %rdx
	addq	%rdx, %rax
	notrack jmp	*%rax
	.section	.rodata
	.align 4
	.align 4
.L209:
	.long	.L220-.L209
	.long	.L213-.L209
	.long	.L212-.L209
	.long	.L220-.L209
	.long	.L210-.L209
	.long	.L208-.L209
	.text
.L213:
	movq	-56(%rbp), %rax
	movsd	8(%rax), %xmm0
	comisd	.LC63(%rip), %xmm0
	jnb	.L216
	cvttsd2siq	%xmm0, %rax
	jmp	.L217
.L216:
	movsd	.LC63(%rip), %xmm1
	subsd	%xmm1, %xmm0
	cvttsd2siq	%xmm0, %rax
	movabsq	$-9223372036854775808, %rdx
	xorq	%rdx, %rax
.L217:
	addq	%rax, -32(%rbp)
	jmp	.L218
.L212:
	movq	-56(%rbp), %rax
	leaq	8(%rax), %rdx
	movq	-32(%rbp), %rax
	movq	%rdx, %rsi
	movq	%rax, %rdi
	call	hash_str
	movq	%rax, -32(%rbp)
	jmp	.L218
.L208:
	movq	-56(%rbp), %rax
	movl	8(%rax), %eax
	cltq
	addq	%rax, -32(%rbp)
	jmp	.L218
.L210:
	movq	-56(%rbp), %rax
	movq	8(%rax), %rax
	addq	%rax, -32(%rbp)
	jmp	.L218
.L207:
	call	abort@PLT
.L206:
#APP
# 592 "TheProjecter_qvm_q.c" 1
	.byte 0x31,0xf6,0xc7,0x85,0xac,0xf9,0xff
# 0 "" 2
#NO_APP
	jmp	.L218
.L220:
	nop
.L218:
	movq	-32(%rbp), %rax
	leave
	.cfi_def_cfa 7, 8
	ret
	.cfi_endproc
.LFE20:
	.size	calc_hash, .-calc_hash
	.section	.rodata
.LC64:
	.string	"corrupt code"
	.align 8
.LC66:
	.string	"%s: %d: attempt to call <%s> object"
	.align 8
.LC67:
	.string	"%s: %d: attemt to set an attribute to <%s> object"
	.align 8
.LC68:
	.string	"attempt to PUSH an unknown shit"
.LC69:
	.string	"%s: %d: %s"
	.align 8
.LC70:
	.string	"%s: %d: <%s> found, <num> expected"
.LC72:
	.string	"division by zero"
	.align 8
.LC73:
	.string	"%s: %d: unexpected arith operator: %u"
.LC74:
	.string	"%s: stack underflow"
.LC75:
	.string	"corrupter code"
	.text
	.type	execute, @function
execute:
.LFB21:
	.cfi_startproc
	endbr64
	pushq	%rbp
	.cfi_def_cfa_offset 16
	.cfi_offset 6, -16
	movq	%rsp, %rbp
	.cfi_def_cfa_register 6
	addq	$-128, %rsp
	movq	%rdi, -120(%rbp)
#APP
# 618 "TheProjecter_qvm_q.c" 1
	##_ANNOTATION_INITIALREGION_-TIG-iO-xHZ6-1-execute--48
# 0 "" 2
# 622 "TheProjecter_qvm_q.c" 1
	##_ANNOTATION_ATOMICREGION_-TIG-iO-xHZ6-1-execute--47
# 0 "" 2
#NO_APP
	movl	$24, %edi
	call	malloc@PLT
	movq	%rax, -96(%rbp)
	movq	-96(%rbp), %rax
	movq	-96(%rbp), %rdx
	movq	%rdx, (%rax)
	movq	-96(%rbp), %rax
	movq	-96(%rbp), %rdx
	movq	%rdx, 8(%rax)
	movq	-96(%rbp), %rax
	movq	%rax, _TIG_iO_xHZ6_1_execute_1_opaque_list_1(%rip)
	call	rand@PLT
	movl	%eax, -112(%rbp)
	movl	$24, %edi
	call	malloc@PLT
	movq	%rax, -88(%rbp)
	movq	-88(%rbp), %rax
	movl	$0, 16(%rax)
	movq	_TIG_iO_xHZ6_1_execute_1_opaque_list_1(%rip), %rax
	movq	(%rax), %rdx
	movq	-88(%rbp), %rax
	movq	%rdx, (%rax)
	movq	_TIG_iO_xHZ6_1_execute_1_opaque_list_1(%rip), %rdx
	movq	-88(%rbp), %rax
	movq	%rdx, 8(%rax)
	movq	_TIG_iO_xHZ6_1_execute_1_opaque_list_1(%rip), %rax
	movq	(%rax), %rax
	movq	-88(%rbp), %rdx
	movq	%rdx, 8(%rax)
	movq	_TIG_iO_xHZ6_1_execute_1_opaque_list_1(%rip), %rax
	movq	-88(%rbp), %rdx
	movq	%rdx, (%rax)
	call	rand@PLT
	movl	%eax, -108(%rbp)
	movl	$24, %edi
	call	malloc@PLT
	movq	%rax, -80(%rbp)
	movq	-80(%rbp), %rax
	movl	-108(%rbp), %edx
	movl	%edx, 16(%rax)
	movq	_TIG_iO_xHZ6_1_execute_1_opaque_list_1(%rip), %rax
	movq	(%rax), %rdx
	movq	-80(%rbp), %rax
	movq	%rdx, (%rax)
	movq	_TIG_iO_xHZ6_1_execute_1_opaque_list_1(%rip), %rdx
	movq	-80(%rbp), %rax
	movq	%rdx, 8(%rax)
	movq	_TIG_iO_xHZ6_1_execute_1_opaque_list_1(%rip), %rax
	movq	(%rax), %rax
	movq	-80(%rbp), %rdx
	movq	%rdx, 8(%rax)
	movq	_TIG_iO_xHZ6_1_execute_1_opaque_list_1(%rip), %rax
	movq	-80(%rbp), %rdx
	movq	%rdx, (%rax)
	movq	_TIG_iO_xHZ6_1_execute_1_opaque_list_1(%rip), %rax
	movq	(%rax), %rax
	movq	%rax, _TIG_iO_xHZ6_1_execute_1_opaque_ptr_1(%rip)
	movq	_TIG_iO_xHZ6_1_execute_1_opaque_ptr_1(%rip), %rax
	movq	%rax, _TIG_iO_xHZ6_1_execute_1_opaque_ptr_2(%rip)
	nop
	nop
	movq	-120(%rbp), %rax
	movq	24(%rax), %rdx
	movq	-120(%rbp), %rax
	movl	48(%rax), %eax
	cltq
	addq	%rdx, %rax
	movq	%rax, -104(%rbp)
	jmp	.L222
.L257:
	movq	-120(%rbp), %rax
	movq	24(%rax), %rdx
	movq	-104(%rbp), %rax
	subq	%rdx, %rax
	movl	%eax, %edx
	movq	-120(%rbp), %rax
	movl	%edx, 48(%rax)
	movq	-120(%rbp), %rax
	movl	48(%rax), %edx
	movq	-120(%rbp), %rax
	movl	52(%rax), %eax
	cmpl	%eax, %edx
	jl	.L223
	movq	-120(%rbp), %rax
	leaq	.LC64(%rip), %rdx
	leaq	.LC24(%rip), %rcx
	movq	%rcx, %rsi
	movq	%rax, %rdi
	movl	$0, %eax
	call	die
.L223:
	movq	-104(%rbp), %rax
	movq	%rax, -72(%rbp)
	addq	$1, -104(%rbp)
	movq	-72(%rbp), %rax
	movzbl	(%rax), %eax
	movsbl	%al, %eax
	cmpl	$11, %eax
	ja	.L224
	movl	%eax, %eax
	leaq	0(,%rax,4), %rdx
	leaq	.L226(%rip), %rax
	movl	(%rdx,%rax), %eax
	cltq
	leaq	.L226(%rip), %rdx
	addq	%rdx, %rax
	notrack jmp	*%rax
	.section	.rodata
	.align 4
	.align 4
.L226:
	.long	.L224-.L226
	.long	.L236-.L226
	.long	.L222-.L226
	.long	.L234-.L226
	.long	.L233-.L226
	.long	.L232-.L226
	.long	.L231-.L226
	.long	.L230-.L226
	.long	.L222-.L226
	.long	.L228-.L226
	.long	.L227-.L226
	.long	.L225-.L226
	.text
.L236:
	movq	-120(%rbp), %rax
	movq	%rax, %rdi
	call	pop
	movq	%rax, -64(%rbp)
	movq	-64(%rbp), %rax
	movzbl	(%rax), %eax
	cmpb	$5, %al
	jne	.L237
	movq	-64(%rbp), %rax
	movq	8(%rax), %rdx
	movq	-120(%rbp), %rax
	movq	%rax, %rdi
	call	*%rdx
	movq	-120(%rbp), %rax
	movl	40(%rax), %eax
	pxor	%xmm0, %xmm0
	cvtsi2sdl	%eax, %xmm0
	movq	-64(%rbp), %rax
	subq	$24, %rax
	movsd	8(%rax), %xmm2
	movsd	.LC65(%rip), %xmm1
	addsd	%xmm2, %xmm1
	subsd	%xmm1, %xmm0
	cvttsd2sil	%xmm0, %edx
	movq	-120(%rbp), %rax
	movl	%edx, 40(%rax)
	jmp	.L222
.L237:
	movq	-64(%rbp), %rax
	movzbl	(%rax), %eax
	cmpb	$4, %al
	je	.L222
	movq	-64(%rbp), %rax
	movzbl	(%rax), %eax
	movzbl	%al, %eax
	cltq
	leaq	0(,%rax,8), %rdx
	leaq	types(%rip), %rax
	movq	(%rdx,%rax), %rsi
	movq	-120(%rbp), %rax
	movl	48(%rax), %ecx
	movq	rerr(%rip), %rdx
	movq	-120(%rbp), %rax
	movq	%rsi, %r8
	leaq	.LC66(%rip), %rsi
	movq	%rax, %rdi
	movl	$0, %eax
	call	die
	jmp	.L222
.L234:
	movq	-120(%rbp), %rax
	movq	%rax, %rdi
	call	pop
	movq	%rax, -8(%rbp)
	movq	-120(%rbp), %rax
	movq	%rax, %rdi
	call	pop
	movq	%rax, -64(%rbp)
	movq	-120(%rbp), %rax
	movq	%rax, %rdi
	call	pop
	movq	%rax, -48(%rbp)
	movq	-64(%rbp), %rax
	movzbl	(%rax), %eax
	cmpb	$3, %al
	je	.L239
	movq	-64(%rbp), %rax
	movzbl	(%rax), %eax
	movzbl	%al, %eax
	cltq
	leaq	0(,%rax,8), %rdx
	leaq	types(%rip), %rax
	movq	(%rdx,%rax), %rsi
	movq	-120(%rbp), %rax
	movl	48(%rax), %ecx
	movq	rerr(%rip), %rdx
	movq	-120(%rbp), %rax
	movq	%rsi, %r8
	leaq	.LC67(%rip), %rsi
	movq	%rax, %rdi
	movl	$0, %eax
	call	die
.L239:
	movq	-48(%rbp), %rdx
	movq	-8(%rbp), %rcx
	movq	-64(%rbp), %rax
	movq	%rcx, %rsi
	movq	%rax, %rdi
	call	lookup_ins
	movq	-120(%rbp), %rax
	movl	40(%rax), %eax
	leal	1(%rax), %edx
	movq	-120(%rbp), %rax
	movl	%edx, 40(%rax)
	jmp	.L222
.L233:
	movq	-120(%rbp), %rax
	movq	%rax, %rdi
	call	pop
	movq	%rax, -8(%rbp)
	movq	-120(%rbp), %rax
	movq	%rax, %rdi
	call	pop
	movq	%rax, -64(%rbp)
	movq	-8(%rbp), %rdx
	movq	-64(%rbp), %rcx
	movq	-120(%rbp), %rax
	movq	%rcx, %rsi
	movq	%rax, %rdi
	call	lookup_rec
	movq	%rax, -48(%rbp)
	cmpq	$0, -48(%rbp)
	je	.L240
	movq	-64(%rbp), %rcx
	movq	-48(%rbp), %rsi
	movq	(%rsi), %rax
	movq	8(%rsi), %rdx
	movq	%rax, (%rcx)
	movq	%rdx, 8(%rcx)
	movq	16(%rsi), %rax
	movq	%rax, 16(%rcx)
	jmp	.L241
.L240:
	movq	-64(%rbp), %rax
	movb	$0, (%rax)
.L241:
	movq	-120(%rbp), %rax
	movl	40(%rax), %eax
	leal	1(%rax), %edx
	movq	-120(%rbp), %rax
	movl	%edx, 40(%rax)
	jmp	.L222
.L232:
	movq	-120(%rbp), %rax
	movq	%rax, %rdi
	call	push
	movq	%rax, -64(%rbp)
	movq	-104(%rbp), %rax
	movq	%rax, -16(%rbp)
	addq	$1, -104(%rbp)
	movq	-16(%rbp), %rax
	movzbl	(%rax), %eax
	movl	%eax, %edx
	movq	-64(%rbp), %rax
	movb	%dl, (%rax)
	movq	-64(%rbp), %rax
	movzbl	(%rax), %eax
	movzbl	%al, %eax
	cmpl	$3, %eax
	je	.L242
	cmpl	$3, %eax
	jg	.L243
	cmpl	$2, %eax
	je	.L244
	cmpl	$2, %eax
	jg	.L243
	testl	%eax, %eax
	je	.L260
	cmpl	$1, %eax
	jne	.L243
	movq	-104(%rbp), %rax
	movsd	(%rax), %xmm0
	movq	-64(%rbp), %rax
	movsd	%xmm0, 8(%rax)
	addq	$8, -104(%rbp)
	jmp	.L246
.L244:
	movq	-104(%rbp), %rax
	movq	(%rax), %rax
	movl	%eax, %edx
	movq	-64(%rbp), %rax
	movl	%edx, 8(%rax)
	addq	$8, -104(%rbp)
	movq	-64(%rbp), %rax
	movq	-104(%rbp), %rdx
	movq	%rdx, 16(%rax)
	movq	-64(%rbp), %rax
	movl	8(%rax), %eax
	cltq
	addq	%rax, -104(%rbp)
	jmp	.L246
.L242:
	movq	-64(%rbp), %rax
	movl	$0, %esi
	movq	%rax, %rdi
	call	init_hash_obj
	jmp	.L246
.L243:
	movq	-120(%rbp), %rax
	movl	48(%rax), %ecx
	movq	rerr(%rip), %rdx
	movq	-120(%rbp), %rax
	leaq	.LC68(%rip), %r8
	leaq	.LC69(%rip), %rsi
	movq	%rax, %rdi
	movl	$0, %eax
	call	die
	call	abort@PLT
.L260:
	nop
.L246:
	jmp	.L222
.L231:
	movq	-120(%rbp), %rax
	movq	%rax, %rdi
	call	pop
	movq	%rax, -40(%rbp)
	movq	-120(%rbp), %rax
	movq	%rax, %rdi
	call	pop
	movq	%rax, -32(%rbp)
	movq	_TIG_iO_xHZ6_1_usage_1_opaque_ptr_1(%rip), %rdx
	movq	_TIG_iO_xHZ6_1_usage_1_opaque_ptr_2(%rip), %rax
	cmpq	%rax, %rdx
	jne	.L247
	movq	-32(%rbp), %rax
	movzbl	(%rax), %eax
	cmpb	$1, %al
	je	.L248
	movq	-32(%rbp), %rax
	movzbl	(%rax), %eax
	movzbl	%al, %eax
	cltq
	leaq	0(,%rax,8), %rdx
	leaq	types(%rip), %rax
	movq	(%rdx,%rax), %rsi
	movq	-120(%rbp), %rax
	movl	48(%rax), %ecx
	movq	rerr(%rip), %rdx
	movq	-120(%rbp), %rax
	movq	%rsi, %r8
	leaq	.LC70(%rip), %rsi
	movq	%rax, %rdi
	movl	$0, %eax
	call	die
	jmp	.L247
.L248:
	movq	-40(%rbp), %rax
	movzbl	(%rax), %eax
	cmpb	$1, %al
	je	.L247
	movq	-32(%rbp), %rax
	movzbl	(%rax), %eax
	movzbl	%al, %eax
	cltq
	leaq	0(,%rax,8), %rdx
	leaq	types(%rip), %rax
	movq	(%rdx,%rax), %rsi
	movq	-120(%rbp), %rax
	movl	48(%rax), %ecx
	movq	rerr(%rip), %rdx
	movq	-120(%rbp), %rax
	movq	%rsi, %r8
	leaq	.LC70(%rip), %rsi
	movq	%rax, %rdi
	movl	$0, %eax
	call	die
.L247:
	movq	-104(%rbp), %rax
	movq	%rax, -24(%rbp)
	addq	$1, -104(%rbp)
	movq	-24(%rbp), %rax
	movzbl	(%rax), %eax
	movsbl	%al, %eax
	cmpl	$47, %eax
	je	.L249
	cmpl	$47, %eax
	jg	.L250
	cmpl	$45, %eax
	je	.L251
	cmpl	$45, %eax
	jg	.L250
	cmpl	$42, %eax
	je	.L252
	cmpl	$43, %eax
	jne	.L250
	movq	-32(%rbp), %rax
	movsd	8(%rax), %xmm1
	movq	-40(%rbp), %rax
	movsd	8(%rax), %xmm0
	addsd	%xmm1, %xmm0
	movq	-32(%rbp), %rax
	movsd	%xmm0, 8(%rax)
	jmp	.L253
.L251:
	movq	-32(%rbp), %rax
	movsd	8(%rax), %xmm0
	movq	-40(%rbp), %rax
	movsd	8(%rax), %xmm1
	subsd	%xmm1, %xmm0
	movq	-32(%rbp), %rax
	movsd	%xmm0, 8(%rax)
	jmp	.L253
.L252:
	movq	-32(%rbp), %rax
	movsd	8(%rax), %xmm1
	movq	-40(%rbp), %rax
	movsd	8(%rax), %xmm0
	mulsd	%xmm1, %xmm0
	movq	-32(%rbp), %rax
	movsd	%xmm0, 8(%rax)
	jmp	.L253
.L249:
	movq	-40(%rbp), %rax
	movsd	8(%rax), %xmm0
	pxor	%xmm1, %xmm1
	ucomisd	%xmm1, %xmm0
	jp	.L254
	pxor	%xmm1, %xmm1
	ucomisd	%xmm1, %xmm0
	jne	.L254
	movq	-120(%rbp), %rax
	movl	48(%rax), %ecx
	movq	rerr(%rip), %rdx
	movq	-120(%rbp), %rax
	leaq	.LC72(%rip), %r8
	leaq	.LC69(%rip), %rsi
	movq	%rax, %rdi
	movl	$0, %eax
	call	die
.L254:
	movq	-32(%rbp), %rax
	movsd	8(%rax), %xmm0
	movq	-40(%rbp), %rax
	movsd	8(%rax), %xmm1
	divsd	%xmm1, %xmm0
	movq	-32(%rbp), %rax
	movsd	%xmm0, 8(%rax)
	jmp	.L253
.L250:
	movq	-104(%rbp), %rax
	subq	$1, %rax
	movzbl	(%rax), %eax
	movsbl	%al, %esi
	movq	-120(%rbp), %rax
	movl	48(%rax), %ecx
	movq	rerr(%rip), %rdx
	movq	-120(%rbp), %rax
	movl	%esi, %r8d
	leaq	.LC73(%rip), %rsi
	movq	%rax, %rdi
	movl	$0, %eax
	call	die
	nop
.L253:
	movq	-120(%rbp), %rax
	movl	40(%rax), %eax
	leal	1(%rax), %edx
	movq	-120(%rbp), %rax
	movl	%edx, 40(%rax)
	jmp	.L222
.L230:
	movq	-120(%rbp), %rax
	movq	%rax, %rdi
	call	pop
	jmp	.L222
.L228:
	movq	-120(%rbp), %rax
	movl	40(%rax), %edx
	movq	-104(%rbp), %rax
	movzbl	(%rax), %eax
	movsbl	%al, %eax
	cmpl	%eax, %edx
	jg	.L256
	movq	rerr(%rip), %rdx
	movq	-120(%rbp), %rax
	leaq	.LC74(%rip), %rcx
	movq	%rcx, %rsi
	movq	%rax, %rdi
	movl	$0, %eax
	call	die
.L256:
	movq	-104(%rbp), %rax
	movq	%rax, -56(%rbp)
	addq	$1, -104(%rbp)
	movq	-120(%rbp), %rax
	movq	32(%rax), %rcx
	movq	-120(%rbp), %rax
	movl	40(%rax), %eax
	movslq	%eax, %rdx
	movq	-56(%rbp), %rax
	movzbl	(%rax), %eax
	movsbq	%al, %rax
	subq	%rax, %rdx
	movq	%rdx, %rax
	addq	%rax, %rax
	addq	%rdx, %rax
	salq	$3, %rax
	subq	$24, %rax
	addq	%rcx, %rax
	movq	%rax, -64(%rbp)
	movq	-120(%rbp), %rax
	movq	%rax, %rdi
	call	push
	movq	%rax, -48(%rbp)
	movq	-48(%rbp), %rcx
	movq	-64(%rbp), %rsi
	movq	(%rsi), %rax
	movq	8(%rsi), %rdx
	movq	%rax, (%rcx)
	movq	%rdx, 8(%rcx)
	movq	16(%rsi), %rax
	movq	%rax, 16(%rcx)
	jmp	.L222
.L227:
	movq	-120(%rbp), %rax
	movq	%rax, %rdi
	call	push
	movq	%rax, -64(%rbp)
	movq	-64(%rbp), %rax
	movb	$3, (%rax)
	movq	-120(%rbp), %rax
	movq	32(%rax), %rcx
	movq	-120(%rbp), %rax
	movl	44(%rax), %eax
	movslq	%eax, %rdx
	movq	%rdx, %rax
	addq	%rax, %rax
	addq	%rdx, %rax
	salq	$3, %rax
	addq	%rcx, %rax
	movq	8(%rax), %rdx
	movq	-64(%rbp), %rax
	movq	%rdx, 8(%rax)
	jmp	.L222
.L225:
	movq	-120(%rbp), %rax
	movq	%rax, %rdi
	call	push
	movq	%rax, -64(%rbp)
	movq	-120(%rbp), %rax
	movq	32(%rax), %rcx
	movq	-120(%rbp), %rax
	movl	44(%rax), %eax
	movslq	%eax, %rdx
	movq	%rdx, %rax
	addq	%rax, %rax
	addq	%rdx, %rax
	salq	$3, %rax
	leaq	(%rcx,%rax), %rdx
	movq	-64(%rbp), %rax
	movq	%rdx, %rsi
	movq	%rax, %rdi
	call	init_hash_obj
	jmp	.L222
.L224:
	movq	-120(%rbp), %rax
	movl	48(%rax), %ecx
	movq	rerr(%rip), %rdx
	movq	-120(%rbp), %rax
	leaq	.LC75(%rip), %r8
	leaq	.LC69(%rip), %rsi
	movq	%rax, %rdi
	movl	$0, %eax
	call	die
	nop
.L222:
	movq	-104(%rbp), %rax
	movzbl	(%rax), %eax
	testb	%al, %al
	jne	.L257
	nop
	leave
	.cfi_def_cfa 7, 8
	ret
	.cfi_endproc
.LFE21:
	.size	execute, .-execute
	.type	qaz, @function
qaz:
.LFB22:
	.cfi_startproc
	endbr64
	pushq	%rbp
	.cfi_def_cfa_offset 16
	.cfi_offset 6, -16
	movq	%rsp, %rbp
	.cfi_def_cfa_register 6
	subq	$64, %rsp
	movq	%rdi, -56(%rbp)
	movl	%esi, -60(%rbp)
#APP
# 867 "TheProjecter_qvm_q.c" 1
	##_ANNOTATION_INITIALREGION_-TIG-iO-xHZ6-1-qaz--106
# 0 "" 2
# 871 "TheProjecter_qvm_q.c" 1
	##_ANNOTATION_ATOMICREGION_-TIG-iO-xHZ6-1-qaz--105
# 0 "" 2
#NO_APP
	movl	$24, %edi
	call	malloc@PLT
	movq	%rax, -32(%rbp)
	movq	-32(%rbp), %rax
	movq	-32(%rbp), %rdx
	movq	%rdx, (%rax)
	movq	-32(%rbp), %rax
	movq	-32(%rbp), %rdx
	movq	%rdx, 16(%rax)
	movq	-32(%rbp), %rax
	movq	%rax, _TIG_iO_xHZ6_1_qaz_1_opaque_list_1(%rip)
	call	rand@PLT
	movl	%eax, -44(%rbp)
	movl	$24, %edi
	call	malloc@PLT
	movq	%rax, -24(%rbp)
	movq	-24(%rbp), %rax
	movl	$0, 8(%rax)
	movq	_TIG_iO_xHZ6_1_qaz_1_opaque_list_1(%rip), %rax
	movq	(%rax), %rdx
	movq	-24(%rbp), %rax
	movq	%rdx, (%rax)
	movq	_TIG_iO_xHZ6_1_qaz_1_opaque_list_1(%rip), %rdx
	movq	-24(%rbp), %rax
	movq	%rdx, 16(%rax)
	movq	_TIG_iO_xHZ6_1_qaz_1_opaque_list_1(%rip), %rax
	movq	(%rax), %rax
	movq	-24(%rbp), %rdx
	movq	%rdx, 16(%rax)
	movq	_TIG_iO_xHZ6_1_qaz_1_opaque_list_1(%rip), %rax
	movq	-24(%rbp), %rdx
	movq	%rdx, (%rax)
	call	rand@PLT
	movl	%eax, -40(%rbp)
	movl	$24, %edi
	call	malloc@PLT
	movq	%rax, -16(%rbp)
	movq	-16(%rbp), %rax
	movl	-40(%rbp), %edx
	movl	%edx, 8(%rax)
	movq	_TIG_iO_xHZ6_1_qaz_1_opaque_list_1(%rip), %rax
	movq	(%rax), %rdx
	movq	-16(%rbp), %rax
	movq	%rdx, (%rax)
	movq	_TIG_iO_xHZ6_1_qaz_1_opaque_list_1(%rip), %rdx
	movq	-16(%rbp), %rax
	movq	%rdx, 16(%rax)
	movq	_TIG_iO_xHZ6_1_qaz_1_opaque_list_1(%rip), %rax
	movq	(%rax), %rax
	movq	-16(%rbp), %rdx
	movq	%rdx, 16(%rax)
	movq	_TIG_iO_xHZ6_1_qaz_1_opaque_list_1(%rip), %rax
	movq	-16(%rbp), %rdx
	movq	%rdx, (%rax)
	movq	_TIG_iO_xHZ6_1_qaz_1_opaque_list_1(%rip), %rax
	movq	(%rax), %rax
	movq	%rax, _TIG_iO_xHZ6_1_qaz_1_opaque_ptr_1(%rip)
	movq	_TIG_iO_xHZ6_1_qaz_1_opaque_ptr_1(%rip), %rax
	movq	%rax, _TIG_iO_xHZ6_1_qaz_1_opaque_ptr_2(%rip)
	movq	_TIG_iO_xHZ6_1_qaz_1_opaque_ptr_2(%rip), %rax
	movq	(%rax), %rax
	movq	%rax, _TIG_iO_xHZ6_1_qaz_1_opaque_ptr_2(%rip)
	nop
	nop
	movq	-56(%rbp), %rax
	subq	$64, %rax
	movl	32(%rax), %eax
	movl	%eax, -36(%rbp)
	cmpl	$1, -60(%rbp)
	jle	.L262
	cmpl	$97, -36(%rbp)
	jne	.L263
	movl	$1, -48(%rbp)
	jmp	.L264
.L263:
	cmpl	$93, -36(%rbp)
	jne	.L265
	movl	$1, -48(%rbp)
	jmp	.L264
.L265:
	cmpl	$41, -36(%rbp)
	jne	.L266
	movl	$1, -48(%rbp)
	jmp	.L264
.L266:
	movq	_TIG_iO_xHZ6_1_usage_1_opaque_ptr_1(%rip), %rdx
	movq	_TIG_iO_xHZ6_1_usage_1_opaque_ptr_2(%rip), %rax
	cmpq	%rax, %rdx
	je	.L267
	movl	$0, %esi
	movl	$2, %edi
	call	hash_str
	movq	%rax, -8(%rbp)
.L267:
	movl	$0, -48(%rbp)
	jmp	.L264
.L262:
	movl	$0, -48(%rbp)
.L264:
	movl	-48(%rbp), %eax
	leave
	.cfi_def_cfa 7, 8
	ret
	.cfi_endproc
.LFE22:
	.size	qaz, .-qaz
	.type	get_opt, @function
get_opt:
.LFB24:
	.cfi_startproc
	endbr64
	pushq	%rbp
	.cfi_def_cfa_offset 16
	.cfi_offset 6, -16
	movq	%rsp, %rbp
	.cfi_def_cfa_register 6
	subq	$80, %rsp
	movq	%rdi, -72(%rbp)
	movq	%rsi, -80(%rbp)
#APP
# 75 "/usr/include/x86_64-linux-gnu/bits/byteswap.h" 1
	##_ANNOTATION_INITIALREGION_-TIG-iO-xHZ6-1-get-opt--54
# 0 "" 2
# 79 "/usr/include/x86_64-linux-gnu/bits/byteswap.h" 1
	##_ANNOTATION_ATOMICREGION_-TIG-iO-xHZ6-1-get-opt--53
# 0 "" 2
#NO_APP
	movl	$24, %edi
	call	malloc@PLT
	movq	%rax, -40(%rbp)
	movq	-40(%rbp), %rax
	movq	-40(%rbp), %rdx
	movq	%rdx, (%rax)
	movq	-40(%rbp), %rax
	movq	-40(%rbp), %rdx
	movq	%rdx, 16(%rax)
	movq	-40(%rbp), %rax
	movq	%rax, _TIG_iO_xHZ6_1_get_opt_1_opaque_list_1(%rip)
	call	rand@PLT
	movl	%eax, -64(%rbp)
	movl	$24, %edi
	call	malloc@PLT
	movq	%rax, -32(%rbp)
	movq	-32(%rbp), %rax
	movl	$0, 8(%rax)
	movq	_TIG_iO_xHZ6_1_get_opt_1_opaque_list_1(%rip), %rax
	movq	(%rax), %rdx
	movq	-32(%rbp), %rax
	movq	%rdx, (%rax)
	movq	_TIG_iO_xHZ6_1_get_opt_1_opaque_list_1(%rip), %rdx
	movq	-32(%rbp), %rax
	movq	%rdx, 16(%rax)
	movq	_TIG_iO_xHZ6_1_get_opt_1_opaque_list_1(%rip), %rax
	movq	(%rax), %rax
	movq	-32(%rbp), %rdx
	movq	%rdx, 16(%rax)
	movq	_TIG_iO_xHZ6_1_get_opt_1_opaque_list_1(%rip), %rax
	movq	-32(%rbp), %rdx
	movq	%rdx, (%rax)
	call	rand@PLT
	movl	%eax, -60(%rbp)
	movl	$24, %edi
	call	malloc@PLT
	movq	%rax, -24(%rbp)
	movq	-24(%rbp), %rax
	movl	-60(%rbp), %edx
	movl	%edx, 8(%rax)
	movq	_TIG_iO_xHZ6_1_get_opt_1_opaque_list_1(%rip), %rax
	movq	(%rax), %rdx
	movq	-24(%rbp), %rax
	movq	%rdx, (%rax)
	movq	_TIG_iO_xHZ6_1_get_opt_1_opaque_list_1(%rip), %rdx
	movq	-24(%rbp), %rax
	movq	%rdx, 16(%rax)
	movq	_TIG_iO_xHZ6_1_get_opt_1_opaque_list_1(%rip), %rax
	movq	(%rax), %rax
	movq	-24(%rbp), %rdx
	movq	%rdx, 16(%rax)
	movq	_TIG_iO_xHZ6_1_get_opt_1_opaque_list_1(%rip), %rax
	movq	-24(%rbp), %rdx
	movq	%rdx, (%rax)
	call	rand@PLT
	movl	%eax, -56(%rbp)
	movl	$24, %edi
	call	malloc@PLT
	movq	%rax, -16(%rbp)
	movl	-56(%rbp), %eax
	leal	(%rax,%rax), %edx
	movq	-16(%rbp), %rax
	movl	%edx, 8(%rax)
	movq	_TIG_iO_xHZ6_1_get_opt_1_opaque_list_1(%rip), %rax
	movq	(%rax), %rdx
	movq	-16(%rbp), %rax
	movq	%rdx, (%rax)
	movq	_TIG_iO_xHZ6_1_get_opt_1_opaque_list_1(%rip), %rdx
	movq	-16(%rbp), %rax
	movq	%rdx, 16(%rax)
	movq	_TIG_iO_xHZ6_1_get_opt_1_opaque_list_1(%rip), %rax
	movq	(%rax), %rax
	movq	-16(%rbp), %rdx
	movq	%rdx, 16(%rax)
	movq	_TIG_iO_xHZ6_1_get_opt_1_opaque_list_1(%rip), %rax
	movq	-16(%rbp), %rdx
	movq	%rdx, (%rax)
	call	rand@PLT
	movl	%eax, -52(%rbp)
	movl	$24, %edi
	call	malloc@PLT
	movq	%rax, -8(%rbp)
	movl	-52(%rbp), %edx
	movl	%edx, %eax
	addl	%eax, %eax
	addl	%eax, %edx
	movq	-8(%rbp), %rax
	movl	%edx, 8(%rax)
	movq	_TIG_iO_xHZ6_1_get_opt_1_opaque_list_1(%rip), %rax
	movq	(%rax), %rdx
	movq	-8(%rbp), %rax
	movq	%rdx, (%rax)
	movq	_TIG_iO_xHZ6_1_get_opt_1_opaque_list_1(%rip), %rdx
	movq	-8(%rbp), %rax
	movq	%rdx, 16(%rax)
	movq	_TIG_iO_xHZ6_1_get_opt_1_opaque_list_1(%rip), %rax
	movq	(%rax), %rax
	movq	-8(%rbp), %rdx
	movq	%rdx, 16(%rax)
	movq	_TIG_iO_xHZ6_1_get_opt_1_opaque_list_1(%rip), %rax
	movq	-8(%rbp), %rdx
	movq	%rdx, (%rax)
	movq	_TIG_iO_xHZ6_1_get_opt_1_opaque_list_1(%rip), %rax
	movq	(%rax), %rax
	movq	%rax, _TIG_iO_xHZ6_1_get_opt_1_opaque_ptr_1(%rip)
	movq	_TIG_iO_xHZ6_1_get_opt_1_opaque_ptr_1(%rip), %rax
	movq	%rax, _TIG_iO_xHZ6_1_get_opt_1_opaque_ptr_2(%rip)
	movq	_TIG_iO_xHZ6_1_get_opt_1_opaque_ptr_2(%rip), %rax
	movq	(%rax), %rax
	movq	%rax, _TIG_iO_xHZ6_1_get_opt_1_opaque_ptr_2(%rip)
	nop
	nop
	movq	-80(%rbp), %rax
	movq	(%rax), %rax
	addq	$8, %rax
	movq	(%rax), %rax
	addq	$2, %rax
	movzbl	(%rax), %eax
	testb	%al, %al
	je	.L270
	movq	-80(%rbp), %rax
	movq	(%rax), %rax
	addq	$8, %rax
	movq	(%rax), %rax
	addq	$2, %rax
	movq	%rax, -48(%rbp)
	movq	-72(%rbp), %rax
	movl	(%rax), %eax
	leal	-1(%rax), %edx
	movq	-72(%rbp), %rax
	movl	%edx, (%rax)
	movq	-80(%rbp), %rax
	movq	(%rax), %rax
	leaq	8(%rax), %rdx
	movq	-80(%rbp), %rax
	movq	%rdx, (%rax)
	jmp	.L271
.L270:
	movq	-80(%rbp), %rax
	movq	(%rax), %rax
	movq	16(%rax), %rax
	movq	%rax, -48(%rbp)
	movq	-72(%rbp), %rax
	movl	(%rax), %eax
	leal	-2(%rax), %edx
	movq	-72(%rbp), %rax
	movl	%edx, (%rax)
	movq	-80(%rbp), %rax
	movq	(%rax), %rax
	leaq	16(%rax), %rdx
	movq	-80(%rbp), %rax
	movq	%rdx, (%rax)
.L271:
	cmpq	$0, -48(%rbp)
	jne	.L272
	movq	_TIG_iO_xHZ6_1_usage_1_opaque_ptr_1(%rip), %rdx
	movq	_TIG_iO_xHZ6_1_usage_1_opaque_ptr_2(%rip), %rax
	cmpq	%rax, %rdx
	je	.L273
	call	usage
	jmp	.L272
.L273:
	call	usage
.L272:
	movq	-48(%rbp), %rax
	leave
	.cfi_def_cfa 7, 8
	ret
	.cfi_endproc
.LFE24:
	.size	get_opt, .-get_opt
	.section	.rodata
	.align 8
.LC76:
	.string	"%s: %d: attempt to get an attribute from the <%s> object"
	.text
	.type	lookup_rec, @function
lookup_rec:
.LFB25:
	.cfi_startproc
	endbr64
	pushq	%rbp
	.cfi_def_cfa_offset 16
	.cfi_offset 6, -16
	movq	%rsp, %rbp
	.cfi_def_cfa_register 6
	subq	$80, %rsp
	movq	%rdi, -56(%rbp)
	movq	%rsi, -64(%rbp)
	movq	%rdx, -72(%rbp)
#APP
# 1287 "TheProjecter_qvm_q.c" 1
	##_ANNOTATION_INITIALREGION_-TIG-iO-xHZ6-1-lookup-rec--80
# 0 "" 2
# 1291 "TheProjecter_qvm_q.c" 1
	##_ANNOTATION_ATOMICREGION_-TIG-iO-xHZ6-1-lookup-rec--79
# 0 "" 2
#NO_APP
	movl	$24, %edi
	call	malloc@PLT
	movq	%rax, -32(%rbp)
	movq	-32(%rbp), %rax
	movq	-32(%rbp), %rdx
	movq	%rdx, 16(%rax)
	movq	-32(%rbp), %rax
	movq	-32(%rbp), %rdx
	movq	%rdx, (%rax)
	movq	-32(%rbp), %rax
	movq	%rax, _TIG_iO_xHZ6_1_lookup_rec_1_opaque_list_1(%rip)
	call	rand@PLT
	movl	%eax, -40(%rbp)
	movl	$24, %edi
	call	malloc@PLT
	movq	%rax, -24(%rbp)
	movq	-24(%rbp), %rax
	movl	$0, 8(%rax)
	movq	_TIG_iO_xHZ6_1_lookup_rec_1_opaque_list_1(%rip), %rax
	movq	16(%rax), %rdx
	movq	-24(%rbp), %rax
	movq	%rdx, 16(%rax)
	movq	_TIG_iO_xHZ6_1_lookup_rec_1_opaque_list_1(%rip), %rdx
	movq	-24(%rbp), %rax
	movq	%rdx, (%rax)
	movq	_TIG_iO_xHZ6_1_lookup_rec_1_opaque_list_1(%rip), %rax
	movq	16(%rax), %rax
	movq	-24(%rbp), %rdx
	movq	%rdx, (%rax)
	movq	_TIG_iO_xHZ6_1_lookup_rec_1_opaque_list_1(%rip), %rax
	movq	-24(%rbp), %rdx
	movq	%rdx, 16(%rax)
	call	rand@PLT
	movl	%eax, -36(%rbp)
	movl	$24, %edi
	call	malloc@PLT
	movq	%rax, -16(%rbp)
	movq	-16(%rbp), %rax
	movl	-36(%rbp), %edx
	movl	%edx, 8(%rax)
	movq	_TIG_iO_xHZ6_1_lookup_rec_1_opaque_list_1(%rip), %rax
	movq	16(%rax), %rdx
	movq	-16(%rbp), %rax
	movq	%rdx, 16(%rax)
	movq	_TIG_iO_xHZ6_1_lookup_rec_1_opaque_list_1(%rip), %rdx
	movq	-16(%rbp), %rax
	movq	%rdx, (%rax)
	movq	_TIG_iO_xHZ6_1_lookup_rec_1_opaque_list_1(%rip), %rax
	movq	16(%rax), %rax
	movq	-16(%rbp), %rdx
	movq	%rdx, (%rax)
	movq	_TIG_iO_xHZ6_1_lookup_rec_1_opaque_list_1(%rip), %rax
	movq	-16(%rbp), %rdx
	movq	%rdx, 16(%rax)
	movq	_TIG_iO_xHZ6_1_lookup_rec_1_opaque_list_1(%rip), %rax
	movq	16(%rax), %rax
	movq	%rax, _TIG_iO_xHZ6_1_lookup_rec_1_opaque_ptr_1(%rip)
	movq	_TIG_iO_xHZ6_1_lookup_rec_1_opaque_ptr_1(%rip), %rax
	movq	%rax, _TIG_iO_xHZ6_1_lookup_rec_1_opaque_ptr_2(%rip)
	nop
	nop
	jmp	.L276
.L281:
	movq	-64(%rbp), %rax
	movzbl	(%rax), %eax
	cmpb	$3, %al
	je	.L277
	movq	-64(%rbp), %rax
	movzbl	(%rax), %eax
	movzbl	%al, %eax
	cltq
	leaq	0(,%rax,8), %rdx
	leaq	types(%rip), %rax
	movq	(%rdx,%rax), %rsi
	movq	-56(%rbp), %rax
	movl	48(%rax), %ecx
	movq	rerr(%rip), %rdx
	movq	-56(%rbp), %rax
	movq	%rsi, %r8
	leaq	.LC76(%rip), %rsi
	movq	%rax, %rdi
	movl	$0, %eax
	call	die
	jmp	.L278
.L277:
	movq	-72(%rbp), %rcx
	movq	-64(%rbp), %rax
	movl	$0, %edx
	movq	%rcx, %rsi
	movq	%rax, %rdi
	call	lookup
	movq	%rax, -8(%rbp)
	cmpq	$0, -8(%rbp)
	je	.L278
	movq	-8(%rbp), %rax
	addq	$40, %rax
	jmp	.L279
.L278:
	movq	_TIG_iO_xHZ6_1_usage_1_opaque_ptr_1(%rip), %rdx
	movq	_TIG_iO_xHZ6_1_usage_1_opaque_ptr_2(%rip), %rax
	cmpq	%rax, %rdx
	jne	.L280
	movq	-64(%rbp), %rax
	movq	8(%rax), %rax
	movq	(%rax), %rax
	movq	%rax, -64(%rbp)
	jmp	.L276
.L280:
#APP
# 653 "TheProjecter_qvm_q.c" 1
	.byte 0xc0,0xe0
# 0 "" 2
#NO_APP
.L276:
	cmpq	$0, -64(%rbp)
	jne	.L281
	movl	$0, %eax
.L279:
	leave
	.cfi_def_cfa 7, 8
	ret
	.cfi_endproc
.LFE25:
	.size	lookup_rec, .-lookup_rec
	.type	tokenize, @function
tokenize:
.LFB26:
	.cfi_startproc
	endbr64
	pushq	%rbp
	.cfi_def_cfa_offset 16
	.cfi_offset 6, -16
	movq	%rsp, %rbp
	.cfi_def_cfa_register 6
	subq	$112, %rsp
	movq	%rdi, -104(%rbp)
	movq	%rsi, -112(%rbp)
#APP
# 681 "TheProjecter_qvm_q.c" 1
	##_ANNOTATION_INITIALREGION_-TIG-iO-xHZ6-1-tokenize--114
# 0 "" 2
# 685 "TheProjecter_qvm_q.c" 1
	##_ANNOTATION_ATOMICREGION_-TIG-iO-xHZ6-1-tokenize--113
# 0 "" 2
#NO_APP
	movl	$24, %edi
	call	malloc@PLT
	movq	%rax, -64(%rbp)
	movq	-64(%rbp), %rax
	movq	-64(%rbp), %rdx
	movq	%rdx, 16(%rax)
	movq	-64(%rbp), %rax
	movq	-64(%rbp), %rdx
	movq	%rdx, (%rax)
	movq	-64(%rbp), %rax
	movq	%rax, _TIG_iO_xHZ6_1_tokenize_1_opaque_list_1(%rip)
	call	rand@PLT
	movl	%eax, -80(%rbp)
	movl	$24, %edi
	call	malloc@PLT
	movq	%rax, -56(%rbp)
	movq	-56(%rbp), %rax
	movl	$0, 8(%rax)
	movq	_TIG_iO_xHZ6_1_tokenize_1_opaque_list_1(%rip), %rax
	movq	16(%rax), %rdx
	movq	-56(%rbp), %rax
	movq	%rdx, 16(%rax)
	movq	_TIG_iO_xHZ6_1_tokenize_1_opaque_list_1(%rip), %rdx
	movq	-56(%rbp), %rax
	movq	%rdx, (%rax)
	movq	_TIG_iO_xHZ6_1_tokenize_1_opaque_list_1(%rip), %rax
	movq	16(%rax), %rax
	movq	-56(%rbp), %rdx
	movq	%rdx, (%rax)
	movq	_TIG_iO_xHZ6_1_tokenize_1_opaque_list_1(%rip), %rax
	movq	-56(%rbp), %rdx
	movq	%rdx, 16(%rax)
	call	rand@PLT
	movl	%eax, -76(%rbp)
	movl	$24, %edi
	call	malloc@PLT
	movq	%rax, -48(%rbp)
	movq	-48(%rbp), %rax
	movl	-76(%rbp), %edx
	movl	%edx, 8(%rax)
	movq	_TIG_iO_xHZ6_1_tokenize_1_opaque_list_1(%rip), %rax
	movq	16(%rax), %rdx
	movq	-48(%rbp), %rax
	movq	%rdx, 16(%rax)
	movq	_TIG_iO_xHZ6_1_tokenize_1_opaque_list_1(%rip), %rdx
	movq	-48(%rbp), %rax
	movq	%rdx, (%rax)
	movq	_TIG_iO_xHZ6_1_tokenize_1_opaque_list_1(%rip), %rax
	movq	16(%rax), %rax
	movq	-48(%rbp), %rdx
	movq	%rdx, (%rax)
	movq	_TIG_iO_xHZ6_1_tokenize_1_opaque_list_1(%rip), %rax
	movq	-48(%rbp), %rdx
	movq	%rdx, 16(%rax)
	call	rand@PLT
	movl	%eax, -72(%rbp)
	movl	$24, %edi
	call	malloc@PLT
	movq	%rax, -40(%rbp)
	movl	-72(%rbp), %eax
	leal	(%rax,%rax), %edx
	movq	-40(%rbp), %rax
	movl	%edx, 8(%rax)
	movq	_TIG_iO_xHZ6_1_tokenize_1_opaque_list_1(%rip), %rax
	movq	16(%rax), %rdx
	movq	-40(%rbp), %rax
	movq	%rdx, 16(%rax)
	movq	_TIG_iO_xHZ6_1_tokenize_1_opaque_list_1(%rip), %rdx
	movq	-40(%rbp), %rax
	movq	%rdx, (%rax)
	movq	_TIG_iO_xHZ6_1_tokenize_1_opaque_list_1(%rip), %rax
	movq	16(%rax), %rax
	movq	-40(%rbp), %rdx
	movq	%rdx, (%rax)
	movq	_TIG_iO_xHZ6_1_tokenize_1_opaque_list_1(%rip), %rax
	movq	-40(%rbp), %rdx
	movq	%rdx, 16(%rax)
	movq	_TIG_iO_xHZ6_1_tokenize_1_opaque_list_1(%rip), %rax
	movq	16(%rax), %rax
	movq	%rax, _TIG_iO_xHZ6_1_tokenize_1_opaque_ptr_1(%rip)
	movq	_TIG_iO_xHZ6_1_tokenize_1_opaque_ptr_1(%rip), %rax
	movq	%rax, _TIG_iO_xHZ6_1_tokenize_1_opaque_ptr_2(%rip)
	movq	_TIG_iO_xHZ6_1_tokenize_1_opaque_ptr_2(%rip), %rax
	movq	16(%rax), %rax
	movq	%rax, _TIG_iO_xHZ6_1_tokenize_1_opaque_ptr_2(%rip)
	nop
	nop
	movl	$1, -92(%rbp)
	movl	$0, -88(%rbp)
.L283:
.L288:
	call	__ctype_b_loc@PLT
	movq	%rax, -32(%rbp)
	movq	_TIG_iO_xHZ6_1_usage_1_opaque_ptr_1(%rip), %rdx
	movq	_TIG_iO_xHZ6_1_usage_1_opaque_ptr_2(%rip), %rax
	cmpq	%rax, %rdx
	je	.L284
	movl	-84(%rbp), %eax
	movl	%eax, %esi
	movl	$0, %edi
	call	qaz
	movl	%eax, -96(%rbp)
.L284:
	movq	-32(%rbp), %rax
	movq	(%rax), %rdx
	movq	-104(%rbp), %rax
	movzbl	(%rax), %eax
	movzbl	%al, %eax
	addq	%rax, %rax
	addq	%rdx, %rax
	movzwl	(%rax), %eax
	movzwl	%ax, %eax
	andl	$8192, %eax
	testl	%eax, %eax
	je	.L303
	movq	-104(%rbp), %rax
	movzbl	(%rax), %eax
	cmpb	$10, %al
	jne	.L287
	addl	$1, -92(%rbp)
.L287:
	addq	$1, -104(%rbp)
	jmp	.L288
.L303:
	nop
	movq	-104(%rbp), %rax
	movzbl	(%rax), %eax
	cmpb	$35, %al
	jne	.L289
	addq	$1, -104(%rbp)
	jmp	.L290
.L292:
	movq	-104(%rbp), %rax
	movzbl	(%rax), %eax
	cmpb	$10, %al
	jne	.L291
	jmp	.L288
.L291:
	addq	$1, -104(%rbp)
.L290:
	movq	-104(%rbp), %rax
	movzbl	(%rax), %eax
	testb	%al, %al
	jne	.L292
.L289:
	movl	-88(%rbp), %eax
	movl	%eax, -68(%rbp)
	addl	$1, -88(%rbp)
	movl	-68(%rbp), %eax
	cltq
	salq	$6, %rax
	movq	%rax, %rdx
	movq	-112(%rbp), %rax
	addq	%rdx, %rax
	movq	%rax, -24(%rbp)
	movq	-24(%rbp), %rax
	movl	$64, %edx
	movl	$0, %esi
	movq	%rax, %rdi
	call	memset@PLT
	movq	-24(%rbp), %rax
	movq	-104(%rbp), %rdx
	movq	%rdx, 24(%rax)
	movq	-24(%rbp), %rax
	movl	-92(%rbp), %edx
	movl	%edx, 36(%rax)
	movq	-24(%rbp), %rax
	movl	$111, 32(%rax)
	movl	$0, -96(%rbp)
	jmp	.L293
.L296:
	movl	-96(%rbp), %eax
	cltq
	leaq	0(,%rax,8), %rdx
	leaq	long_tokens(%rip), %rax
	movq	(%rdx,%rax), %rax
	movq	-104(%rbp), %rdx
	movq	%rdx, %rsi
	movq	%rax, %rdi
	call	match_long_token
	movl	%eax, -84(%rbp)
	movq	-24(%rbp), %rax
	movl	-84(%rbp), %edx
	movl	%edx, 16(%rax)
	cmpl	$0, -84(%rbp)
	jle	.L294
	movl	-96(%rbp), %eax
	leal	97(%rax), %edx
	movq	-24(%rbp), %rax
	movl	%edx, 32(%rax)
	jmp	.L295
.L294:
	addl	$1, -96(%rbp)
.L293:
	movl	-96(%rbp), %eax
	cltq
	leaq	0(,%rax,8), %rdx
	leaq	long_tokens(%rip), %rax
	movq	(%rdx,%rax), %rax
	testq	%rax, %rax
	jne	.L296
.L295:
	movq	-24(%rbp), %rax
	movl	16(%rax), %eax
	testl	%eax, %eax
	jne	.L297
	movq	-104(%rbp), %rax
	movzbl	(%rax), %eax
	testb	%al, %al
	je	.L297
	movq	-104(%rbp), %rax
	movzbl	(%rax), %eax
	movsbl	%al, %edx
	movq	one_char_tokens(%rip), %rax
	movl	%edx, %esi
	movq	%rax, %rdi
	call	strchr@PLT
	movq	%rax, -16(%rbp)
	movq	-16(%rbp), %rax
	movq	%rax, -8(%rbp)
	cmpq	$0, -8(%rbp)
	je	.L297
	movq	-8(%rbp), %rax
	movzbl	(%rax), %eax
	movsbl	%al, %edx
	movq	-24(%rbp), %rax
	movl	%edx, 32(%rax)
	movq	-24(%rbp), %rax
	movl	$1, 16(%rax)
.L297:
	movq	-24(%rbp), %rax
	movl	16(%rax), %eax
	cltq
	addq	%rax, -104(%rbp)
	movq	-24(%rbp), %rax
	movl	32(%rax), %eax
	cmpl	$111, %eax
	je	.L304
	jmp	.L288
.L304:
	nop
	movl	-88(%rbp), %eax
	leave
	.cfi_def_cfa 7, 8
	ret
	.cfi_endproc
.LFE26:
	.size	tokenize, .-tokenize
	.type	prio, @function
prio:
.LFB27:
	.cfi_startproc
	endbr64
	pushq	%rbp
	.cfi_def_cfa_offset 16
	.cfi_offset 6, -16
	movq	%rsp, %rbp
	.cfi_def_cfa_register 6
	subq	$64, %rsp
	movl	%edi, -52(%rbp)
#APP
# 1054 "TheProjecter_qvm_q.c" 1
	##_ANNOTATION_INITIALREGION_-TIG-iO-xHZ6-1-prio--94
# 0 "" 2
# 1058 "TheProjecter_qvm_q.c" 1
	##_ANNOTATION_ATOMICREGION_-TIG-iO-xHZ6-1-prio--93
# 0 "" 2
#NO_APP
	movl	$24, %edi
	call	malloc@PLT
	movq	%rax, -32(%rbp)
	movq	-32(%rbp), %rax
	movq	-32(%rbp), %rdx
	movq	%rdx, 16(%rax)
	movq	-32(%rbp), %rax
	movq	-32(%rbp), %rdx
	movq	%rdx, (%rax)
	movq	-32(%rbp), %rax
	movq	%rax, _TIG_iO_xHZ6_1_prio_1_opaque_list_1(%rip)
	call	rand@PLT
	movl	%eax, -44(%rbp)
	movl	$24, %edi
	call	malloc@PLT
	movq	%rax, -24(%rbp)
	movq	-24(%rbp), %rax
	movl	$0, 8(%rax)
	movq	_TIG_iO_xHZ6_1_prio_1_opaque_list_1(%rip), %rax
	movq	16(%rax), %rdx
	movq	-24(%rbp), %rax
	movq	%rdx, 16(%rax)
	movq	_TIG_iO_xHZ6_1_prio_1_opaque_list_1(%rip), %rdx
	movq	-24(%rbp), %rax
	movq	%rdx, (%rax)
	movq	_TIG_iO_xHZ6_1_prio_1_opaque_list_1(%rip), %rax
	movq	16(%rax), %rax
	movq	-24(%rbp), %rdx
	movq	%rdx, (%rax)
	movq	_TIG_iO_xHZ6_1_prio_1_opaque_list_1(%rip), %rax
	movq	-24(%rbp), %rdx
	movq	%rdx, 16(%rax)
	call	rand@PLT
	movl	%eax, -40(%rbp)
	movl	$24, %edi
	call	malloc@PLT
	movq	%rax, -16(%rbp)
	movq	-16(%rbp), %rax
	movl	-40(%rbp), %edx
	movl	%edx, 8(%rax)
	movq	_TIG_iO_xHZ6_1_prio_1_opaque_list_1(%rip), %rax
	movq	16(%rax), %rdx
	movq	-16(%rbp), %rax
	movq	%rdx, 16(%rax)
	movq	_TIG_iO_xHZ6_1_prio_1_opaque_list_1(%rip), %rdx
	movq	-16(%rbp), %rax
	movq	%rdx, (%rax)
	movq	_TIG_iO_xHZ6_1_prio_1_opaque_list_1(%rip), %rax
	movq	16(%rax), %rax
	movq	-16(%rbp), %rdx
	movq	%rdx, (%rax)
	movq	_TIG_iO_xHZ6_1_prio_1_opaque_list_1(%rip), %rax
	movq	-16(%rbp), %rdx
	movq	%rdx, 16(%rax)
	call	rand@PLT
	movl	%eax, -36(%rbp)
	movl	$24, %edi
	call	malloc@PLT
	movq	%rax, -8(%rbp)
	movl	-36(%rbp), %eax
	leal	(%rax,%rax), %edx
	movq	-8(%rbp), %rax
	movl	%edx, 8(%rax)
	movq	_TIG_iO_xHZ6_1_prio_1_opaque_list_1(%rip), %rax
	movq	16(%rax), %rdx
	movq	-8(%rbp), %rax
	movq	%rdx, 16(%rax)
	movq	_TIG_iO_xHZ6_1_prio_1_opaque_list_1(%rip), %rdx
	movq	-8(%rbp), %rax
	movq	%rdx, (%rax)
	movq	_TIG_iO_xHZ6_1_prio_1_opaque_list_1(%rip), %rax
	movq	16(%rax), %rax
	movq	-8(%rbp), %rdx
	movq	%rdx, (%rax)
	movq	_TIG_iO_xHZ6_1_prio_1_opaque_list_1(%rip), %rax
	movq	-8(%rbp), %rdx
	movq	%rdx, 16(%rax)
	movq	_TIG_iO_xHZ6_1_prio_1_opaque_list_1(%rip), %rax
	movq	16(%rax), %rax
	movq	%rax, _TIG_iO_xHZ6_1_prio_1_opaque_ptr_1(%rip)
	movq	_TIG_iO_xHZ6_1_prio_1_opaque_ptr_1(%rip), %rax
	movq	%rax, _TIG_iO_xHZ6_1_prio_1_opaque_ptr_2(%rip)
	nop
	nop
	movq	_TIG_iO_xHZ6_1_usage_1_opaque_ptr_1(%rip), %rdx
	movq	_TIG_iO_xHZ6_1_usage_1_opaque_ptr_2(%rip), %rax
	cmpq	%rax, %rdx
	je	.L306
	movl	-44(%rbp), %eax
	movl	%eax, %edx
	movl	$0, %esi
	movl	$0, %edi
	call	emit_params
	movl	%eax, -52(%rbp)
.L306:
	movl	-52(%rbp), %eax
	cltq
	leaq	0(,%rax,4), %rdx
	leaq	op_tab(%rip), %rax
	movl	(%rdx,%rax), %eax
	movzbl	%al, %eax
	leave
	.cfi_def_cfa 7, 8
	ret
	.cfi_endproc
.LFE27:
	.size	prio, .-prio
	.type	emit, @function
emit:
.LFB28:
	.cfi_startproc
	endbr64
	pushq	%rbp
	.cfi_def_cfa_offset 16
	.cfi_offset 6, -16
	movq	%rsp, %rbp
	.cfi_def_cfa_register 6
	subq	$96, %rsp
	movq	%rdi, -72(%rbp)
	movq	%rsi, -80(%rbp)
	movl	%edx, -84(%rbp)
#APP
# 343 "TheProjecter_qvm_q.c" 1
	##_ANNOTATION_INITIALREGION_-TIG-iO-xHZ6-1-emit--30
# 0 "" 2
# 347 "TheProjecter_qvm_q.c" 1
	##_ANNOTATION_ATOMICREGION_-TIG-iO-xHZ6-1-emit--29
# 0 "" 2
#NO_APP
	movl	$24, %edi
	call	malloc@PLT
	movq	%rax, -40(%rbp)
	movq	-40(%rbp), %rax
	movq	-40(%rbp), %rdx
	movq	%rdx, 8(%rax)
	movq	-40(%rbp), %rax
	movq	-40(%rbp), %rdx
	movq	%rdx, (%rax)
	movq	-40(%rbp), %rax
	movq	%rax, _TIG_iO_xHZ6_1_emit_1_opaque_list_1(%rip)
	call	rand@PLT
	movl	%eax, -56(%rbp)
	movl	$24, %edi
	call	malloc@PLT
	movq	%rax, -32(%rbp)
	movq	-32(%rbp), %rax
	movl	$0, 16(%rax)
	movq	_TIG_iO_xHZ6_1_emit_1_opaque_list_1(%rip), %rax
	movq	8(%rax), %rdx
	movq	-32(%rbp), %rax
	movq	%rdx, 8(%rax)
	movq	_TIG_iO_xHZ6_1_emit_1_opaque_list_1(%rip), %rdx
	movq	-32(%rbp), %rax
	movq	%rdx, (%rax)
	movq	_TIG_iO_xHZ6_1_emit_1_opaque_list_1(%rip), %rax
	movq	8(%rax), %rax
	movq	-32(%rbp), %rdx
	movq	%rdx, (%rax)
	movq	_TIG_iO_xHZ6_1_emit_1_opaque_list_1(%rip), %rax
	movq	-32(%rbp), %rdx
	movq	%rdx, 8(%rax)
	call	rand@PLT
	movl	%eax, -52(%rbp)
	movl	$24, %edi
	call	malloc@PLT
	movq	%rax, -24(%rbp)
	movq	-24(%rbp), %rax
	movl	-52(%rbp), %edx
	movl	%edx, 16(%rax)
	movq	_TIG_iO_xHZ6_1_emit_1_opaque_list_1(%rip), %rax
	movq	8(%rax), %rdx
	movq	-24(%rbp), %rax
	movq	%rdx, 8(%rax)
	movq	_TIG_iO_xHZ6_1_emit_1_opaque_list_1(%rip), %rdx
	movq	-24(%rbp), %rax
	movq	%rdx, (%rax)
	movq	_TIG_iO_xHZ6_1_emit_1_opaque_list_1(%rip), %rax
	movq	8(%rax), %rax
	movq	-24(%rbp), %rdx
	movq	%rdx, (%rax)
	movq	_TIG_iO_xHZ6_1_emit_1_opaque_list_1(%rip), %rax
	movq	-24(%rbp), %rdx
	movq	%rdx, 8(%rax)
	call	rand@PLT
	movl	%eax, -48(%rbp)
	movl	$24, %edi
	call	malloc@PLT
	movq	%rax, -16(%rbp)
	movl	-48(%rbp), %eax
	leal	(%rax,%rax), %edx
	movq	-16(%rbp), %rax
	movl	%edx, 16(%rax)
	movq	_TIG_iO_xHZ6_1_emit_1_opaque_list_1(%rip), %rax
	movq	8(%rax), %rdx
	movq	-16(%rbp), %rax
	movq	%rdx, 8(%rax)
	movq	_TIG_iO_xHZ6_1_emit_1_opaque_list_1(%rip), %rdx
	movq	-16(%rbp), %rax
	movq	%rdx, (%rax)
	movq	_TIG_iO_xHZ6_1_emit_1_opaque_list_1(%rip), %rax
	movq	8(%rax), %rax
	movq	-16(%rbp), %rdx
	movq	%rdx, (%rax)
	movq	_TIG_iO_xHZ6_1_emit_1_opaque_list_1(%rip), %rax
	movq	-16(%rbp), %rdx
	movq	%rdx, 8(%rax)
	call	rand@PLT
	movl	%eax, -44(%rbp)
	movl	$24, %edi
	call	malloc@PLT
	movq	%rax, -8(%rbp)
	movl	-44(%rbp), %edx
	movl	%edx, %eax
	addl	%eax, %eax
	addl	%eax, %edx
	movq	-8(%rbp), %rax
	movl	%edx, 16(%rax)
	movq	_TIG_iO_xHZ6_1_emit_1_opaque_list_1(%rip), %rax
	movq	8(%rax), %rdx
	movq	-8(%rbp), %rax
	movq	%rdx, 8(%rax)
	movq	_TIG_iO_xHZ6_1_emit_1_opaque_list_1(%rip), %rdx
	movq	-8(%rbp), %rax
	movq	%rdx, (%rax)
	movq	_TIG_iO_xHZ6_1_emit_1_opaque_list_1(%rip), %rax
	movq	8(%rax), %rax
	movq	-8(%rbp), %rdx
	movq	%rdx, (%rax)
	movq	_TIG_iO_xHZ6_1_emit_1_opaque_list_1(%rip), %rax
	movq	-8(%rbp), %rdx
	movq	%rdx, 8(%rax)
	movq	_TIG_iO_xHZ6_1_emit_1_opaque_list_1(%rip), %rax
	movq	8(%rax), %rax
	movq	%rax, _TIG_iO_xHZ6_1_emit_1_opaque_ptr_1(%rip)
	movq	_TIG_iO_xHZ6_1_emit_1_opaque_ptr_1(%rip), %rax
	movq	%rax, _TIG_iO_xHZ6_1_emit_1_opaque_ptr_2(%rip)
	movq	_TIG_iO_xHZ6_1_emit_1_opaque_ptr_2(%rip), %rax
	movq	8(%rax), %rax
	movq	%rax, _TIG_iO_xHZ6_1_emit_1_opaque_ptr_2(%rip)
	nop
	nop
	movq	-72(%rbp), %rax
	movq	24(%rax), %rax
	testq	%rax, %rax
	jne	.L309
	movq	_TIG_iO_xHZ6_1_usage_1_opaque_ptr_1(%rip), %rdx
	movq	_TIG_iO_xHZ6_1_usage_1_opaque_ptr_2(%rip), %rax
	cmpq	%rax, %rdx
	jne	.L310
	movq	-72(%rbp), %rax
	movl	$64, %esi
	movq	%rax, %rdi
	call	expand_code
	jmp	.L310
.L309:
	movq	-72(%rbp), %rax
	movl	48(%rax), %edx
	movl	-84(%rbp), %eax
	addl	%eax, %edx
	movq	-72(%rbp), %rax
	movl	52(%rax), %eax
	cmpl	%eax, %edx
	jl	.L310
	movq	-72(%rbp), %rax
	movl	$64, %esi
	movq	%rax, %rdi
	call	expand_code
.L310:
	movl	-84(%rbp), %eax
	movslq	%eax, %rdx
	movq	-72(%rbp), %rax
	movq	24(%rax), %rcx
	movq	-72(%rbp), %rax
	movl	48(%rax), %eax
	cltq
	addq	%rax, %rcx
	movq	-80(%rbp), %rax
	movq	%rax, %rsi
	movq	%rcx, %rdi
	call	memcpy@PLT
	movq	-72(%rbp), %rax
	movl	48(%rax), %edx
	movl	-84(%rbp), %eax
	addl	%eax, %edx
	movq	-72(%rbp), %rax
	movl	%edx, 48(%rax)
	nop
	leave
	.cfi_def_cfa 7, 8
	ret
	.cfi_endproc
.LFE28:
	.size	emit, .-emit
	.type	emit_function_call, @function
emit_function_call:
.LFB29:
	.cfi_startproc
	endbr64
	pushq	%rbp
	.cfi_def_cfa_offset 16
	.cfi_offset 6, -16
	movq	%rsp, %rbp
	.cfi_def_cfa_register 6
	subq	$64, %rsp
	movq	%rdi, -56(%rbp)
	movq	%rsi, -64(%rbp)
#APP
# 249 "TheProjecter_qvm_q.c" 1
	##_ANNOTATION_INITIALREGION_-TIG-iO-xHZ6-1-emit-function-call--36
# 0 "" 2
# 253 "TheProjecter_qvm_q.c" 1
	##_ANNOTATION_ATOMICREGION_-TIG-iO-xHZ6-1-emit-function-call--35
# 0 "" 2
#NO_APP
	movl	$24, %edi
	call	malloc@PLT
	movq	%rax, -24(%rbp)
	movq	-24(%rbp), %rax
	movq	-24(%rbp), %rdx
	movq	%rdx, 8(%rax)
	movq	-24(%rbp), %rax
	movq	-24(%rbp), %rdx
	movq	%rdx, 16(%rax)
	movq	-24(%rbp), %rax
	movq	%rax, _TIG_iO_xHZ6_1_emit_function_call_1_opaque_list_1(%rip)
	call	rand@PLT
	movl	%eax, -36(%rbp)
	movl	$24, %edi
	call	malloc@PLT
	movq	%rax, -16(%rbp)
	movq	-16(%rbp), %rax
	movl	$0, (%rax)
	movq	_TIG_iO_xHZ6_1_emit_function_call_1_opaque_list_1(%rip), %rax
	movq	8(%rax), %rdx
	movq	-16(%rbp), %rax
	movq	%rdx, 8(%rax)
	movq	_TIG_iO_xHZ6_1_emit_function_call_1_opaque_list_1(%rip), %rdx
	movq	-16(%rbp), %rax
	movq	%rdx, 16(%rax)
	movq	_TIG_iO_xHZ6_1_emit_function_call_1_opaque_list_1(%rip), %rax
	movq	8(%rax), %rax
	movq	-16(%rbp), %rdx
	movq	%rdx, 16(%rax)
	movq	_TIG_iO_xHZ6_1_emit_function_call_1_opaque_list_1(%rip), %rax
	movq	-16(%rbp), %rdx
	movq	%rdx, 8(%rax)
	call	rand@PLT
	movl	%eax, -32(%rbp)
	movl	$24, %edi
	call	malloc@PLT
	movq	%rax, -8(%rbp)
	movq	-8(%rbp), %rax
	movl	-32(%rbp), %edx
	movl	%edx, (%rax)
	movq	_TIG_iO_xHZ6_1_emit_function_call_1_opaque_list_1(%rip), %rax
	movq	8(%rax), %rdx
	movq	-8(%rbp), %rax
	movq	%rdx, 8(%rax)
	movq	_TIG_iO_xHZ6_1_emit_function_call_1_opaque_list_1(%rip), %rdx
	movq	-8(%rbp), %rax
	movq	%rdx, 16(%rax)
	movq	_TIG_iO_xHZ6_1_emit_function_call_1_opaque_list_1(%rip), %rax
	movq	8(%rax), %rax
	movq	-8(%rbp), %rdx
	movq	%rdx, 16(%rax)
	movq	_TIG_iO_xHZ6_1_emit_function_call_1_opaque_list_1(%rip), %rax
	movq	-8(%rbp), %rdx
	movq	%rdx, 8(%rax)
	movq	_TIG_iO_xHZ6_1_emit_function_call_1_opaque_list_1(%rip), %rax
	movq	8(%rax), %rax
	movq	%rax, _TIG_iO_xHZ6_1_emit_function_call_1_opaque_ptr_1(%rip)
	movq	_TIG_iO_xHZ6_1_emit_function_call_1_opaque_ptr_1(%rip), %rax
	movq	%rax, _TIG_iO_xHZ6_1_emit_function_call_1_opaque_ptr_2(%rip)
	nop
	nop
	movq	-64(%rbp), %rax
	movq	48(%rax), %rcx
	movq	-56(%rbp), %rax
	movl	$0, %edx
	movq	%rcx, %rsi
	movq	%rax, %rdi
	call	emit_params
	movl	%eax, -28(%rbp)
	pxor	%xmm1, %xmm1
	cvtsi2sdl	-28(%rbp), %xmm1
	movq	%xmm1, %rdx
	movq	-56(%rbp), %rax
	movq	%rdx, %xmm0
	movq	%rax, %rdi
	call	emit_num
	movq	-64(%rbp), %rax
	movq	40(%rax), %rdx
	movq	-56(%rbp), %rax
	movq	%rdx, %rsi
	movq	%rax, %rdi
	call	emit_expr
	movq	-56(%rbp), %rax
	movl	$1, %esi
	movq	%rax, %rdi
	call	emit_byte
	movq	_TIG_iO_xHZ6_1_usage_1_opaque_ptr_1(%rip), %rdx
	movq	_TIG_iO_xHZ6_1_usage_1_opaque_ptr_2(%rip), %rax
	cmpq	%rax, %rdx
	je	.L315
#APP
# 422 "TheProjecter_qvm_q.c" 1
	.byte 0x3e,0xee,0xe0,0xec,0xfa,0x23,0x96
# 0 "" 2
#NO_APP
	jmp	.L312
.L315:
	nop
.L312:
	leave
	.cfi_def_cfa 7, 8
	ret
	.cfi_endproc
.LFE29:
	.size	emit_function_call, .-emit_function_call
	.type	match_long_token, @function
match_long_token:
.LFB30:
	.cfi_startproc
	endbr64
	pushq	%rbp
	.cfi_def_cfa_offset 16
	.cfi_offset 6, -16
	movq	%rsp, %rbp
	.cfi_def_cfa_register 6
	addq	$-128, %rsp
	movq	%rdi, -120(%rbp)
	movq	%rsi, -128(%rbp)
	movq	%fs:40, %rax
	movq	%rax, -8(%rbp)
	xorl	%eax, %eax
#APP
# 447 "TheProjecter_qvm_q.c" 1
	##_ANNOTATION_INITIALREGION_-TIG-iO-xHZ6-1-match-long-token--84
# 0 "" 2
# 451 "TheProjecter_qvm_q.c" 1
	##_ANNOTATION_ATOMICREGION_-TIG-iO-xHZ6-1-match-long-token--83
# 0 "" 2
#NO_APP
	movl	$24, %edi
	call	malloc@PLT
	movq	%rax, -72(%rbp)
	movq	-72(%rbp), %rax
	movq	-72(%rbp), %rdx
	movq	%rdx, 16(%rax)
	movq	-72(%rbp), %rax
	movq	-72(%rbp), %rdx
	movq	%rdx, (%rax)
	movq	-72(%rbp), %rax
	movq	%rax, _TIG_iO_xHZ6_1_match_long_token_1_opaque_list_1(%rip)
	call	rand@PLT
	movl	%eax, -96(%rbp)
	movl	$24, %edi
	call	malloc@PLT
	movq	%rax, -64(%rbp)
	movq	-64(%rbp), %rax
	movl	$0, 8(%rax)
	movq	_TIG_iO_xHZ6_1_match_long_token_1_opaque_list_1(%rip), %rax
	movq	16(%rax), %rdx
	movq	-64(%rbp), %rax
	movq	%rdx, 16(%rax)
	movq	_TIG_iO_xHZ6_1_match_long_token_1_opaque_list_1(%rip), %rdx
	movq	-64(%rbp), %rax
	movq	%rdx, (%rax)
	movq	_TIG_iO_xHZ6_1_match_long_token_1_opaque_list_1(%rip), %rax
	movq	16(%rax), %rax
	movq	-64(%rbp), %rdx
	movq	%rdx, (%rax)
	movq	_TIG_iO_xHZ6_1_match_long_token_1_opaque_list_1(%rip), %rax
	movq	-64(%rbp), %rdx
	movq	%rdx, 16(%rax)
	call	rand@PLT
	movl	%eax, -92(%rbp)
	movl	$24, %edi
	call	malloc@PLT
	movq	%rax, -56(%rbp)
	movq	-56(%rbp), %rax
	movl	-92(%rbp), %edx
	movl	%edx, 8(%rax)
	movq	_TIG_iO_xHZ6_1_match_long_token_1_opaque_list_1(%rip), %rax
	movq	16(%rax), %rdx
	movq	-56(%rbp), %rax
	movq	%rdx, 16(%rax)
	movq	_TIG_iO_xHZ6_1_match_long_token_1_opaque_list_1(%rip), %rdx
	movq	-56(%rbp), %rax
	movq	%rdx, (%rax)
	movq	_TIG_iO_xHZ6_1_match_long_token_1_opaque_list_1(%rip), %rax
	movq	16(%rax), %rax
	movq	-56(%rbp), %rdx
	movq	%rdx, (%rax)
	movq	_TIG_iO_xHZ6_1_match_long_token_1_opaque_list_1(%rip), %rax
	movq	-56(%rbp), %rdx
	movq	%rdx, 16(%rax)
	call	rand@PLT
	movl	%eax, -88(%rbp)
	movl	$24, %edi
	call	malloc@PLT
	movq	%rax, -48(%rbp)
	movl	-88(%rbp), %eax
	leal	(%rax,%rax), %edx
	movq	-48(%rbp), %rax
	movl	%edx, 8(%rax)
	movq	_TIG_iO_xHZ6_1_match_long_token_1_opaque_list_1(%rip), %rax
	movq	16(%rax), %rdx
	movq	-48(%rbp), %rax
	movq	%rdx, 16(%rax)
	movq	_TIG_iO_xHZ6_1_match_long_token_1_opaque_list_1(%rip), %rdx
	movq	-48(%rbp), %rax
	movq	%rdx, (%rax)
	movq	_TIG_iO_xHZ6_1_match_long_token_1_opaque_list_1(%rip), %rax
	movq	16(%rax), %rax
	movq	-48(%rbp), %rdx
	movq	%rdx, (%rax)
	movq	_TIG_iO_xHZ6_1_match_long_token_1_opaque_list_1(%rip), %rax
	movq	-48(%rbp), %rdx
	movq	%rdx, 16(%rax)
	movq	_TIG_iO_xHZ6_1_match_long_token_1_opaque_list_1(%rip), %rax
	movq	16(%rax), %rax
	movq	%rax, _TIG_iO_xHZ6_1_match_long_token_1_opaque_ptr_1(%rip)
	movq	_TIG_iO_xHZ6_1_match_long_token_1_opaque_ptr_1(%rip), %rax
	movq	%rax, _TIG_iO_xHZ6_1_match_long_token_1_opaque_ptr_2(%rip)
	movq	_TIG_iO_xHZ6_1_match_long_token_1_opaque_ptr_2(%rip), %rax
	movq	16(%rax), %rax
	movq	%rax, _TIG_iO_xHZ6_1_match_long_token_1_opaque_ptr_2(%rip)
	nop
	nop
	movl	$0, -100(%rbp)
	movq	-120(%rbp), %rax
	movzbl	(%rax), %eax
	cmpb	$37, %al
	jne	.L332
	movq	-120(%rbp), %rax
	addq	$1, %rax
	movzbl	(%rax), %eax
	cmpb	$118, %al
	jne	.L333
	movq	-128(%rbp), %rax
	movzbl	(%rax), %eax
	cmpb	$95, %al
	je	.L334
	call	__ctype_b_loc@PLT
	movq	%rax, -40(%rbp)
	movq	-40(%rbp), %rax
	movq	(%rax), %rdx
	movq	-128(%rbp), %rax
	movzbl	(%rax), %eax
	movzbl	%al, %eax
	addq	%rax, %rax
	addq	%rdx, %rax
	movzwl	(%rax), %eax
	movzwl	%ax, %eax
	andl	$1024, %eax
	testl	%eax, %eax
	je	.L324
	jmp	.L323
.L334:
	nop
.L320:
.L323:
	movl	-100(%rbp), %eax
	movslq	%eax, %rdx
	movq	-128(%rbp), %rax
	addq	%rdx, %rax
	movzbl	(%rax), %eax
	cmpb	$95, %al
	je	.L322
	call	__ctype_b_loc@PLT
	movq	%rax, -32(%rbp)
	movq	-32(%rbp), %rax
	movq	(%rax), %rdx
	movl	-100(%rbp), %eax
	movslq	%eax, %rcx
	movq	-128(%rbp), %rax
	addq	%rcx, %rax
	movzbl	(%rax), %eax
	movzbl	%al, %eax
	addq	%rax, %rax
	addq	%rdx, %rax
	movzwl	(%rax), %eax
	movzwl	%ax, %eax
	andl	$8, %eax
	testl	%eax, %eax
	je	.L335
.L322:
	addl	$1, -100(%rbp)
	jmp	.L323
.L332:
	nop
	jmp	.L317
.L333:
	nop
.L317:
	movq	-120(%rbp), %rax
	movzbl	(%rax), %eax
	cmpb	$37, %al
	jne	.L336
	movq	-120(%rbp), %rax
	addq	$1, %rax
	movzbl	(%rax), %eax
	cmpb	$100, %al
	jne	.L337
	leaq	-80(%rbp), %rdx
	movq	-128(%rbp), %rax
	movq	%rdx, %rsi
	movq	%rax, %rdi
	call	strtod@PLT
	movq	-80(%rbp), %rax
	subq	-128(%rbp), %rax
	movl	%eax, -100(%rbp)
	jmp	.L324
.L336:
	nop
	jmp	.L325
.L337:
	nop
.L325:
	movq	-120(%rbp), %rax
	movzbl	(%rax), %eax
	cmpb	$37, %al
	jne	.L338
	movq	-120(%rbp), %rax
	addq	$1, %rax
	movzbl	(%rax), %eax
	cmpb	$115, %al
	jne	.L339
	movq	-128(%rbp), %rax
	movzbl	(%rax), %eax
	cmpb	$34, %al
	jne	.L324
	movq	-128(%rbp), %rax
	addq	$1, %rax
	movl	$34, %esi
	movq	%rax, %rdi
	call	strchr@PLT
	movq	%rax, -80(%rbp)
	movq	-80(%rbp), %rax
	testq	%rax, %rax
	je	.L324
	movq	-80(%rbp), %rax
	subq	-128(%rbp), %rax
	addl	$1, %eax
	movl	%eax, -100(%rbp)
	jmp	.L324
.L338:
	nop
	jmp	.L327
.L339:
	nop
.L327:
	movq	-120(%rbp), %rax
	movq	%rax, %rdi
	call	strlen@PLT
	movq	%rax, -24(%rbp)
	movq	-24(%rbp), %rdx
	movq	-120(%rbp), %rcx
	movq	-128(%rbp), %rax
	movq	%rcx, %rsi
	movq	%rax, %rdi
	call	strncmp@PLT
	movl	%eax, -84(%rbp)
	cmpl	$0, -84(%rbp)
	jne	.L324
	movq	_TIG_iO_xHZ6_1_usage_1_opaque_ptr_1(%rip), %rdx
	movq	_TIG_iO_xHZ6_1_usage_1_opaque_ptr_2(%rip), %rax
	cmpq	%rax, %rdx
	je	.L329
#APP
# 983 "TheProjecter_qvm_q.c" 1
	.byte 0xe9,0x15,0x34
# 0 "" 2
#NO_APP
	jmp	.L324
.L329:
	movq	-120(%rbp), %rax
	movq	%rax, %rdi
	call	strlen@PLT
	movq	%rax, -16(%rbp)
	movq	-16(%rbp), %rax
	movl	%eax, -100(%rbp)
	jmp	.L324
.L335:
	nop
.L324:
	movl	-100(%rbp), %eax
	movq	-8(%rbp), %rdx
	subq	%fs:40, %rdx
	je	.L331
	call	__stack_chk_fail@PLT
.L331:
	leave
	.cfi_def_cfa 7, 8
	ret
	.cfi_endproc
.LFE30:
	.size	match_long_token, .-match_long_token
	.section	.rodata
.LC77:
	.string	"usage: qq [-c <file>] file\n"
	.text
	.type	usage, @function
usage:
.LFB31:
	.cfi_startproc
	endbr64
	pushq	%rbp
	.cfi_def_cfa_offset 16
	.cfi_offset 6, -16
	movq	%rsp, %rbp
	.cfi_def_cfa_register 6
	subq	$32, %rsp
#APP
# 1000 "TheProjecter_qvm_q.c" 1
	##_ANNOTATION_INITIALREGION_-TIG-iO-xHZ6-1-usage--116
# 0 "" 2
# 1004 "TheProjecter_qvm_q.c" 1
	##_ANNOTATION_ATOMICREGION_-TIG-iO-xHZ6-1-usage--115
# 0 "" 2
#NO_APP
	movl	$24, %edi
	call	malloc@PLT
	movq	%rax, -24(%rbp)
	movq	-24(%rbp), %rax
	movq	-24(%rbp), %rdx
	movq	%rdx, 16(%rax)
	movq	-24(%rbp), %rax
	movq	-24(%rbp), %rdx
	movq	%rdx, (%rax)
	movq	-24(%rbp), %rax
	movq	%rax, _TIG_iO_xHZ6_1_usage_1_opaque_list_1(%rip)
	call	rand@PLT
	movl	%eax, -32(%rbp)
	movl	$24, %edi
	call	malloc@PLT
	movq	%rax, -16(%rbp)
	movq	-16(%rbp), %rax
	movl	$0, 8(%rax)
	movq	_TIG_iO_xHZ6_1_usage_1_opaque_list_1(%rip), %rax
	movq	16(%rax), %rdx
	movq	-16(%rbp), %rax
	movq	%rdx, 16(%rax)
	movq	_TIG_iO_xHZ6_1_usage_1_opaque_list_1(%rip), %rdx
	movq	-16(%rbp), %rax
	movq	%rdx, (%rax)
	movq	_TIG_iO_xHZ6_1_usage_1_opaque_list_1(%rip), %rax
	movq	16(%rax), %rax
	movq	-16(%rbp), %rdx
	movq	%rdx, (%rax)
	movq	_TIG_iO_xHZ6_1_usage_1_opaque_list_1(%rip), %rax
	movq	-16(%rbp), %rdx
	movq	%rdx, 16(%rax)
	call	rand@PLT
	movl	%eax, -28(%rbp)
	movl	$24, %edi
	call	malloc@PLT
	movq	%rax, -8(%rbp)
	movq	-8(%rbp), %rax
	movl	-28(%rbp), %edx
	movl	%edx, 8(%rax)
	movq	_TIG_iO_xHZ6_1_usage_1_opaque_list_1(%rip), %rax
	movq	16(%rax), %rdx
	movq	-8(%rbp), %rax
	movq	%rdx, 16(%rax)
	movq	_TIG_iO_xHZ6_1_usage_1_opaque_list_1(%rip), %rdx
	movq	-8(%rbp), %rax
	movq	%rdx, (%rax)
	movq	_TIG_iO_xHZ6_1_usage_1_opaque_list_1(%rip), %rax
	movq	16(%rax), %rax
	movq	-8(%rbp), %rdx
	movq	%rdx, (%rax)
	movq	_TIG_iO_xHZ6_1_usage_1_opaque_list_1(%rip), %rax
	movq	-8(%rbp), %rdx
	movq	%rdx, 16(%rax)
	movq	_TIG_iO_xHZ6_1_usage_1_opaque_list_1(%rip), %rax
	movq	16(%rax), %rax
	movq	%rax, _TIG_iO_xHZ6_1_usage_1_opaque_ptr_1(%rip)
	movq	_TIG_iO_xHZ6_1_usage_1_opaque_ptr_1(%rip), %rax
	movq	%rax, _TIG_iO_xHZ6_1_usage_1_opaque_ptr_2(%rip)
	nop
	nop
	movq	_TIG_iO_xHZ6_1_usage_1_opaque_ptr_1(%rip), %rdx
	movq	_TIG_iO_xHZ6_1_usage_1_opaque_ptr_2(%rip), %rax
	cmpq	%rax, %rdx
	jne	.L343
	movq	stderr(%rip), %rax
	movq	%rax, %rcx
	movl	$27, %edx
	movl	$1, %esi
	leaq	.LC77(%rip), %rax
	movq	%rax, %rdi
	call	fwrite@PLT
	movl	$1, %edi
	call	exit@PLT
.L343:
	nop
	leave
	.cfi_def_cfa 7, 8
	ret
	.cfi_endproc
.LFE31:
	.size	usage, .-usage
	.type	emit_num, @function
emit_num:
.LFB32:
	.cfi_startproc
	endbr64
	pushq	%rbp
	.cfi_def_cfa_offset 16
	.cfi_offset 6, -16
	movq	%rsp, %rbp
	.cfi_def_cfa_register 6
	subq	$64, %rsp
	movq	%rdi, -56(%rbp)
	movsd	%xmm0, -64(%rbp)
#APP
# 1273 "TheProjecter_qvm_q.c" 1
	##_ANNOTATION_INITIALREGION_-TIG-iO-xHZ6-1-emit-num--42
# 0 "" 2
# 1277 "TheProjecter_qvm_q.c" 1
	##_ANNOTATION_ATOMICREGION_-TIG-iO-xHZ6-1-emit-num--41
# 0 "" 2
#NO_APP
	movl	$24, %edi
	call	malloc@PLT
	movq	%rax, -32(%rbp)
	movq	-32(%rbp), %rax
	movq	-32(%rbp), %rdx
	movq	%rdx, 16(%rax)
	movq	-32(%rbp), %rax
	movq	-32(%rbp), %rdx
	movq	%rdx, (%rax)
	movq	-32(%rbp), %rax
	movq	%rax, _TIG_iO_xHZ6_1_emit_num_1_opaque_list_1(%rip)
	call	rand@PLT
	movl	%eax, -44(%rbp)
	movl	$24, %edi
	call	malloc@PLT
	movq	%rax, -24(%rbp)
	movq	-24(%rbp), %rax
	movl	$0, 8(%rax)
	movq	_TIG_iO_xHZ6_1_emit_num_1_opaque_list_1(%rip), %rax
	movq	16(%rax), %rdx
	movq	-24(%rbp), %rax
	movq	%rdx, 16(%rax)
	movq	_TIG_iO_xHZ6_1_emit_num_1_opaque_list_1(%rip), %rdx
	movq	-24(%rbp), %rax
	movq	%rdx, (%rax)
	movq	_TIG_iO_xHZ6_1_emit_num_1_opaque_list_1(%rip), %rax
	movq	16(%rax), %rax
	movq	-24(%rbp), %rdx
	movq	%rdx, (%rax)
	movq	_TIG_iO_xHZ6_1_emit_num_1_opaque_list_1(%rip), %rax
	movq	-24(%rbp), %rdx
	movq	%rdx, 16(%rax)
	call	rand@PLT
	movl	%eax, -40(%rbp)
	movl	$24, %edi
	call	malloc@PLT
	movq	%rax, -16(%rbp)
	movq	-16(%rbp), %rax
	movl	-40(%rbp), %edx
	movl	%edx, 8(%rax)
	movq	_TIG_iO_xHZ6_1_emit_num_1_opaque_list_1(%rip), %rax
	movq	16(%rax), %rdx
	movq	-16(%rbp), %rax
	movq	%rdx, 16(%rax)
	movq	_TIG_iO_xHZ6_1_emit_num_1_opaque_list_1(%rip), %rdx
	movq	-16(%rbp), %rax
	movq	%rdx, (%rax)
	movq	_TIG_iO_xHZ6_1_emit_num_1_opaque_list_1(%rip), %rax
	movq	16(%rax), %rax
	movq	-16(%rbp), %rdx
	movq	%rdx, (%rax)
	movq	_TIG_iO_xHZ6_1_emit_num_1_opaque_list_1(%rip), %rax
	movq	-16(%rbp), %rdx
	movq	%rdx, 16(%rax)
	call	rand@PLT
	movl	%eax, -36(%rbp)
	movl	$24, %edi
	call	malloc@PLT
	movq	%rax, -8(%rbp)
	movl	-36(%rbp), %eax
	leal	(%rax,%rax), %edx
	movq	-8(%rbp), %rax
	movl	%edx, 8(%rax)
	movq	_TIG_iO_xHZ6_1_emit_num_1_opaque_list_1(%rip), %rax
	movq	16(%rax), %rdx
	movq	-8(%rbp), %rax
	movq	%rdx, 16(%rax)
	movq	_TIG_iO_xHZ6_1_emit_num_1_opaque_list_1(%rip), %rdx
	movq	-8(%rbp), %rax
	movq	%rdx, (%rax)
	movq	_TIG_iO_xHZ6_1_emit_num_1_opaque_list_1(%rip), %rax
	movq	16(%rax), %rax
	movq	-8(%rbp), %rdx
	movq	%rdx, (%rax)
	movq	_TIG_iO_xHZ6_1_emit_num_1_opaque_list_1(%rip), %rax
	movq	-8(%rbp), %rdx
	movq	%rdx, 16(%rax)
	movq	_TIG_iO_xHZ6_1_emit_num_1_opaque_list_1(%rip), %rax
	movq	16(%rax), %rax
	movq	%rax, _TIG_iO_xHZ6_1_emit_num_1_opaque_ptr_1(%rip)
	movq	_TIG_iO_xHZ6_1_emit_num_1_opaque_ptr_1(%rip), %rax
	movq	%rax, _TIG_iO_xHZ6_1_emit_num_1_opaque_ptr_2(%rip)
	movq	_TIG_iO_xHZ6_1_emit_num_1_opaque_ptr_2(%rip), %rax
	movq	16(%rax), %rax
	movq	%rax, _TIG_iO_xHZ6_1_emit_num_1_opaque_ptr_2(%rip)
	nop
	nop
	movq	_TIG_iO_xHZ6_1_usage_1_opaque_ptr_1(%rip), %rdx
	movq	_TIG_iO_xHZ6_1_usage_1_opaque_ptr_2(%rip), %rax
	cmpq	%rax, %rdx
	je	.L345
	movq	-56(%rbp), %rax
	addq	$272, %rax
	movl	$0, %esi
	movq	%rax, %rdi
	call	emit_byte
	movq	-56(%rbp), %rax
	addq	$272, %rax
	movl	$4, %esi
	movq	%rax, %rdi
	call	emit_byte
	leaq	-64(%rbp), %rax
	subq	$1, %rax
	movq	-56(%rbp), %rdx
	leaq	272(%rdx), %rcx
	movl	-36(%rbp), %edx
	movq	%rax, %rsi
	movq	%rcx, %rdi
	call	emit
	jmp	.L344
.L345:
	movq	-56(%rbp), %rax
	movl	$5, %esi
	movq	%rax, %rdi
	call	emit_byte
	movq	-56(%rbp), %rax
	movl	$1, %esi
	movq	%rax, %rdi
	call	emit_byte
	leaq	-64(%rbp), %rcx
	movq	-56(%rbp), %rax
	movl	$8, %edx
	movq	%rcx, %rsi
	movq	%rax, %rdi
	call	emit
	nop
.L344:
	leave
	.cfi_def_cfa 7, 8
	ret
	.cfi_endproc
.LFE32:
	.size	emit_num, .-emit_num
	.section	.rodata
.LC78:
	.string	"emit_string_constant"
.LC79:
	.string	"node->vec.ptr[0] == '\"'"
	.align 8
.LC80:
	.string	"node->vec.ptr[node->vec.len - 1] == '\"'"
	.align 8
.LC81:
	.string	"dst + node->vec.len < q->code + q->cs"
	.text
	.type	emit_string_constant, @function
emit_string_constant:
.LFB33:
	.cfi_startproc
	endbr64
	pushq	%rbp
	.cfi_def_cfa_offset 16
	.cfi_offset 6, -16
	movq	%rsp, %rbp
	.cfi_def_cfa_register 6
	subq	$96, %rsp
	movq	%rdi, -88(%rbp)
	movq	%rsi, -96(%rbp)
	movq	%fs:40, %rax
	movq	%rax, -8(%rbp)
	xorl	%eax, %eax
#APP
# 265 "TheProjecter_qvm_q.c" 1
	##_ANNOTATION_INITIALREGION_-TIG-iO-xHZ6-1-emit-string-constant--46
# 0 "" 2
# 269 "TheProjecter_qvm_q.c" 1
	##_ANNOTATION_ATOMICREGION_-TIG-iO-xHZ6-1-emit-string-constant--45
# 0 "" 2
#NO_APP
	movl	$24, %edi
	call	malloc@PLT
	movq	%rax, -40(%rbp)
	movq	-40(%rbp), %rax
	movq	-40(%rbp), %rdx
	movq	%rdx, 8(%rax)
	movq	-40(%rbp), %rax
	movq	-40(%rbp), %rdx
	movq	%rdx, (%rax)
	movq	-40(%rbp), %rax
	movq	%rax, _TIG_iO_xHZ6_1_emit_string_constant_1_opaque_list_1(%rip)
	call	rand@PLT
	movl	%eax, -72(%rbp)
	movl	$24, %edi
	call	malloc@PLT
	movq	%rax, -32(%rbp)
	movq	-32(%rbp), %rax
	movl	$0, 16(%rax)
	movq	_TIG_iO_xHZ6_1_emit_string_constant_1_opaque_list_1(%rip), %rax
	movq	8(%rax), %rdx
	movq	-32(%rbp), %rax
	movq	%rdx, 8(%rax)
	movq	_TIG_iO_xHZ6_1_emit_string_constant_1_opaque_list_1(%rip), %rdx
	movq	-32(%rbp), %rax
	movq	%rdx, (%rax)
	movq	_TIG_iO_xHZ6_1_emit_string_constant_1_opaque_list_1(%rip), %rax
	movq	8(%rax), %rax
	movq	-32(%rbp), %rdx
	movq	%rdx, (%rax)
	movq	_TIG_iO_xHZ6_1_emit_string_constant_1_opaque_list_1(%rip), %rax
	movq	-32(%rbp), %rdx
	movq	%rdx, 8(%rax)
	call	rand@PLT
	movl	%eax, -68(%rbp)
	movl	$24, %edi
	call	malloc@PLT
	movq	%rax, -24(%rbp)
	movq	-24(%rbp), %rax
	movl	-68(%rbp), %edx
	movl	%edx, 16(%rax)
	movq	_TIG_iO_xHZ6_1_emit_string_constant_1_opaque_list_1(%rip), %rax
	movq	8(%rax), %rdx
	movq	-24(%rbp), %rax
	movq	%rdx, 8(%rax)
	movq	_TIG_iO_xHZ6_1_emit_string_constant_1_opaque_list_1(%rip), %rdx
	movq	-24(%rbp), %rax
	movq	%rdx, (%rax)
	movq	_TIG_iO_xHZ6_1_emit_string_constant_1_opaque_list_1(%rip), %rax
	movq	8(%rax), %rax
	movq	-24(%rbp), %rdx
	movq	%rdx, (%rax)
	movq	_TIG_iO_xHZ6_1_emit_string_constant_1_opaque_list_1(%rip), %rax
	movq	-24(%rbp), %rdx
	movq	%rdx, 8(%rax)
	movq	_TIG_iO_xHZ6_1_emit_string_constant_1_opaque_list_1(%rip), %rax
	movq	8(%rax), %rax
	movq	%rax, _TIG_iO_xHZ6_1_emit_string_constant_1_opaque_ptr_1(%rip)
	movq	_TIG_iO_xHZ6_1_emit_string_constant_1_opaque_ptr_1(%rip), %rax
	movq	%rax, _TIG_iO_xHZ6_1_emit_string_constant_1_opaque_ptr_2(%rip)
	movq	_TIG_iO_xHZ6_1_emit_string_constant_1_opaque_ptr_2(%rip), %rax
	movq	8(%rax), %rax
	movq	%rax, _TIG_iO_xHZ6_1_emit_string_constant_1_opaque_ptr_2(%rip)
	nop
	nop
	movq	$0, -56(%rbp)
	movq	-88(%rbp), %rax
	movq	24(%rax), %rdx
	movq	-88(%rbp), %rax
	movl	48(%rax), %eax
	movslq	%eax, %rcx
	movq	-96(%rbp), %rax
	movl	16(%rax), %eax
	cltq
	addq	%rcx, %rax
	addq	$10, %rax
	addq	%rdx, %rax
	movq	%rax, %rcx
	movq	-88(%rbp), %rax
	movq	24(%rax), %rdx
	movq	-88(%rbp), %rax
	movl	52(%rax), %eax
	cltq
	addq	%rdx, %rax
	cmpq	%rax, %rcx
	jbe	.L349
	movq	-96(%rbp), %rax
	movl	16(%rax), %eax
	addl	$11, %eax
	movl	%eax, %edx
	movq	-88(%rbp), %rax
	movl	%edx, %esi
	movq	%rax, %rdi
	call	expand_code
.L349:
	movq	-88(%rbp), %rax
	movq	24(%rax), %rdx
	movq	-88(%rbp), %rax
	movl	48(%rax), %eax
	cltq
	addq	$10, %rax
	addq	%rdx, %rax
	movq	%rax, -16(%rbp)
	movq	-96(%rbp), %rax
	movq	24(%rax), %rax
	addq	$1, %rax
	movq	%rax, -48(%rbp)
	movq	-96(%rbp), %rax
	movq	24(%rax), %rax
	movzbl	(%rax), %eax
	cmpb	$34, %al
	je	.L350
	movq	_TIG_iO_xHZ6_1_usage_1_opaque_ptr_1(%rip), %rdx
	movq	_TIG_iO_xHZ6_1_usage_1_opaque_ptr_2(%rip), %rax
	cmpq	%rax, %rdx
	je	.L351
#APP
# 278 "TheProjecter_qvm_q.c" 1
	.byte 0x76,0x3b,0x14,0x70,0x45
# 0 "" 2
#NO_APP
	jmp	.L350
.L351:
	leaq	.LC78(%rip), %rax
	movq	%rax, %rcx
	movl	$275, %edx
	leaq	.LC1(%rip), %rax
	movq	%rax, %rsi
	leaq	.LC79(%rip), %rax
	movq	%rax, %rdi
	call	__assert_fail@PLT
.L350:
	movq	-96(%rbp), %rax
	movq	24(%rax), %rdx
	movq	-96(%rbp), %rax
	movl	16(%rax), %eax
	cltq
	subq	$1, %rax
	addq	%rdx, %rax
	movzbl	(%rax), %eax
	cmpb	$34, %al
	je	.L352
	leaq	.LC78(%rip), %rax
	movq	%rax, %rcx
	movl	$276, %edx
	leaq	.LC1(%rip), %rax
	movq	%rax, %rsi
	leaq	.LC80(%rip), %rax
	movq	%rax, %rdi
	call	__assert_fail@PLT
.L352:
	movq	-96(%rbp), %rax
	movl	16(%rax), %eax
	movslq	%eax, %rdx
	movq	-16(%rbp), %rax
	addq	%rdx, %rax
	movq	%rax, %rcx
	movq	-88(%rbp), %rax
	movq	24(%rax), %rdx
	movq	-88(%rbp), %rax
	movl	52(%rax), %eax
	cltq
	addq	%rdx, %rax
	cmpq	%rax, %rcx
	jb	.L354
	leaq	.LC78(%rip), %rax
	movq	%rax, %rcx
	movl	$277, %edx
	leaq	.LC1(%rip), %rax
	movq	%rax, %rsi
	leaq	.LC81(%rip), %rax
	movq	%rax, %rdi
	call	__assert_fail@PLT
.L357:
	movq	-48(%rbp), %rax
	movzbl	(%rax), %eax
	cmpb	$37, %al
	jne	.L355
	movq	-96(%rbp), %rax
	movl	36(%rax), %edx
	movq	-48(%rbp), %rax
	addq	$1, %rax
	movzbl	(%rax), %eax
	movzbl	%al, %ecx
	movq	-88(%rbp), %rax
	movl	%ecx, %esi
	movq	%rax, %rdi
	call	hex_ascii_to_int
	movl	%eax, -64(%rbp)
	movl	-64(%rbp), %eax
	sall	$4, %eax
	movl	%eax, %ecx
	movq	-56(%rbp), %rdx
	movq	-16(%rbp), %rax
	addq	%rdx, %rax
	movl	%ecx, %edx
	movb	%dl, (%rax)
	movq	-96(%rbp), %rax
	movl	36(%rax), %edx
	movq	-48(%rbp), %rax
	addq	$2, %rax
	movzbl	(%rax), %eax
	movzbl	%al, %ecx
	movq	-88(%rbp), %rax
	movl	%ecx, %esi
	movq	%rax, %rdi
	call	hex_ascii_to_int
	movl	%eax, -60(%rbp)
	movq	-56(%rbp), %rdx
	movq	-16(%rbp), %rax
	addq	%rdx, %rax
	movzbl	(%rax), %edx
	movl	-60(%rbp), %eax
	movl	%eax, %esi
	movq	-56(%rbp), %rcx
	movq	-16(%rbp), %rax
	addq	%rcx, %rax
	orl	%esi, %edx
	movb	%dl, (%rax)
	addq	$2, -48(%rbp)
	jmp	.L356
.L355:
	movq	-56(%rbp), %rdx
	movq	-16(%rbp), %rax
	addq	%rax, %rdx
	movq	-48(%rbp), %rax
	movzbl	(%rax), %eax
	movb	%al, (%rdx)
.L356:
	addq	$1, -48(%rbp)
	movq	-56(%rbp), %rax
	addq	$1, %rax
	movq	%rax, -56(%rbp)
.L354:
	movq	-96(%rbp), %rax
	movq	24(%rax), %rdx
	movq	-96(%rbp), %rax
	movl	16(%rax), %eax
	cltq
	subq	$1, %rax
	addq	%rdx, %rax
	movq	%rax, %rdx
	movq	-48(%rbp), %rax
	cmpq	%rax, %rdx
	ja	.L357
	movq	-88(%rbp), %rax
	movl	$5, %esi
	movq	%rax, %rdi
	call	emit_byte
	movq	-88(%rbp), %rax
	movl	$2, %esi
	movq	%rax, %rdi
	call	emit_byte
	leaq	-56(%rbp), %rcx
	movq	-88(%rbp), %rax
	movl	$8, %edx
	movq	%rcx, %rsi
	movq	%rax, %rdi
	call	emit
	movq	-88(%rbp), %rax
	movl	48(%rax), %eax
	movl	%eax, %edx
	movq	-56(%rbp), %rax
	addl	%edx, %eax
	movl	%eax, %edx
	movq	-88(%rbp), %rax
	movl	%edx, 48(%rax)
	nop
	movq	-8(%rbp), %rax
	subq	%fs:40, %rax
	je	.L359
	call	__stack_chk_fail@PLT
.L359:
	leave
	.cfi_def_cfa 7, 8
	ret
	.cfi_endproc
.LFE33:
	.size	emit_string_constant, .-emit_string_constant
	.section	.rodata
.LC82:
	.string	"%s: line %d: bad hash def"
	.text
	.type	emit_hash_definition, @function
emit_hash_definition:
.LFB34:
	.cfi_startproc
	endbr64
	pushq	%rbp
	.cfi_def_cfa_offset 16
	.cfi_offset 6, -16
	movq	%rsp, %rbp
	.cfi_def_cfa_register 6
	subq	$64, %rsp
	movq	%rdi, -40(%rbp)
	movq	%rsi, -48(%rbp)
	movl	%edx, -52(%rbp)
#APP
# 308 "TheProjecter_qvm_q.c" 1
	##_ANNOTATION_INITIALREGION_-TIG-iO-xHZ6-1-emit-hash-definition--38
# 0 "" 2
# 312 "TheProjecter_qvm_q.c" 1
	##_ANNOTATION_ATOMICREGION_-TIG-iO-xHZ6-1-emit-hash-definition--37
# 0 "" 2
#NO_APP
	movl	$24, %edi
	call	malloc@PLT
	movq	%rax, -24(%rbp)
	movq	-24(%rbp), %rax
	movq	-24(%rbp), %rdx
	movq	%rdx, (%rax)
	movq	-24(%rbp), %rax
	movq	-24(%rbp), %rdx
	movq	%rdx, 16(%rax)
	movq	-24(%rbp), %rax
	movq	%rax, _TIG_iO_xHZ6_1_emit_hash_definition_1_opaque_list_1(%rip)
	call	rand@PLT
	movl	%eax, -32(%rbp)
	movl	$24, %edi
	call	malloc@PLT
	movq	%rax, -16(%rbp)
	movq	-16(%rbp), %rax
	movl	$0, 8(%rax)
	movq	_TIG_iO_xHZ6_1_emit_hash_definition_1_opaque_list_1(%rip), %rax
	movq	(%rax), %rdx
	movq	-16(%rbp), %rax
	movq	%rdx, (%rax)
	movq	_TIG_iO_xHZ6_1_emit_hash_definition_1_opaque_list_1(%rip), %rdx
	movq	-16(%rbp), %rax
	movq	%rdx, 16(%rax)
	movq	_TIG_iO_xHZ6_1_emit_hash_definition_1_opaque_list_1(%rip), %rax
	movq	(%rax), %rax
	movq	-16(%rbp), %rdx
	movq	%rdx, 16(%rax)
	movq	_TIG_iO_xHZ6_1_emit_hash_definition_1_opaque_list_1(%rip), %rax
	movq	-16(%rbp), %rdx
	movq	%rdx, (%rax)
	call	rand@PLT
	movl	%eax, -28(%rbp)
	movl	$24, %edi
	call	malloc@PLT
	movq	%rax, -8(%rbp)
	movq	-8(%rbp), %rax
	movl	-28(%rbp), %edx
	movl	%edx, 8(%rax)
	movq	_TIG_iO_xHZ6_1_emit_hash_definition_1_opaque_list_1(%rip), %rax
	movq	(%rax), %rdx
	movq	-8(%rbp), %rax
	movq	%rdx, (%rax)
	movq	_TIG_iO_xHZ6_1_emit_hash_definition_1_opaque_list_1(%rip), %rdx
	movq	-8(%rbp), %rax
	movq	%rdx, 16(%rax)
	movq	_TIG_iO_xHZ6_1_emit_hash_definition_1_opaque_list_1(%rip), %rax
	movq	(%rax), %rax
	movq	-8(%rbp), %rdx
	movq	%rdx, 16(%rax)
	movq	_TIG_iO_xHZ6_1_emit_hash_definition_1_opaque_list_1(%rip), %rax
	movq	-8(%rbp), %rdx
	movq	%rdx, (%rax)
	movq	_TIG_iO_xHZ6_1_emit_hash_definition_1_opaque_list_1(%rip), %rax
	movq	(%rax), %rax
	movq	%rax, _TIG_iO_xHZ6_1_emit_hash_definition_1_opaque_ptr_1(%rip)
	movq	_TIG_iO_xHZ6_1_emit_hash_definition_1_opaque_ptr_1(%rip), %rax
	movq	%rax, _TIG_iO_xHZ6_1_emit_hash_definition_1_opaque_ptr_2(%rip)
	movq	_TIG_iO_xHZ6_1_emit_hash_definition_1_opaque_ptr_2(%rip), %rax
	movq	(%rax), %rax
	movq	%rax, _TIG_iO_xHZ6_1_emit_hash_definition_1_opaque_ptr_2(%rip)
	nop
	nop
	cmpq	$0, -48(%rbp)
	jne	.L361
	movq	-48(%rbp), %rax
	movl	36(%rax), %ecx
	movq	serr(%rip), %rdx
	movq	-40(%rbp), %rax
	leaq	.LC82(%rip), %rsi
	movq	%rax, %rdi
	movl	$0, %eax
	call	die
	jmp	.L367
.L361:
	movq	-48(%rbp), %rax
	movl	32(%rax), %eax
	cmpl	$44, %eax
	jne	.L363
	movq	-48(%rbp), %rax
	movq	40(%rax), %rcx
	movl	-52(%rbp), %edx
	movq	-40(%rbp), %rax
	movq	%rcx, %rsi
	movq	%rax, %rdi
	call	emit_hash_definition
	movq	-40(%rbp), %rax
	movl	$7, %esi
	movq	%rax, %rdi
	call	emit_byte
	movl	-52(%rbp), %eax
	leal	1(%rax), %edx
	movq	-48(%rbp), %rax
	movq	48(%rax), %rcx
	movq	-40(%rbp), %rax
	movq	%rcx, %rsi
	movq	%rax, %rdi
	call	emit_hash_definition
	jmp	.L367
.L363:
	movq	-48(%rbp), %rax
	movl	32(%rax), %eax
	cmpl	$61, %eax
	jne	.L364
	movq	_TIG_iO_xHZ6_1_usage_1_opaque_ptr_1(%rip), %rdx
	movq	_TIG_iO_xHZ6_1_usage_1_opaque_ptr_2(%rip), %rax
	cmpq	%rax, %rdx
	jne	.L367
	movq	-48(%rbp), %rax
	movq	40(%rax), %rax
	movl	32(%rax), %eax
	cmpl	$97, %eax
	jne	.L365
	movq	-48(%rbp), %rax
	movq	48(%rax), %rdx
	movq	-40(%rbp), %rax
	movq	%rdx, %rsi
	movq	%rax, %rdi
	call	emit_expr
	movq	-40(%rbp), %rax
	movl	$9, %esi
	movq	%rax, %rdi
	call	emit_byte
	movq	-40(%rbp), %rax
	movl	$1, %esi
	movq	%rax, %rdi
	call	emit_byte
	movq	-48(%rbp), %rax
	movq	40(%rax), %rdx
	movq	-40(%rbp), %rax
	movq	%rdx, %rsi
	movq	%rax, %rdi
	call	emit_ident
	movq	-40(%rbp), %rax
	movl	$3, %esi
	movq	%rax, %rdi
	call	emit_byte
	jmp	.L367
.L365:
	movq	-48(%rbp), %rax
	movl	36(%rax), %ecx
	movq	serr(%rip), %rdx
	movq	-40(%rbp), %rax
	leaq	.LC82(%rip), %rsi
	movq	%rax, %rdi
	movl	$0, %eax
	call	die
	jmp	.L367
.L364:
	movq	-48(%rbp), %rdx
	movq	-40(%rbp), %rax
	movq	%rdx, %rsi
	movq	%rax, %rdi
	call	emit_expr
	movq	-40(%rbp), %rax
	movl	$9, %esi
	movq	%rax, %rdi
	call	emit_byte
	movq	-40(%rbp), %rax
	movl	$1, %esi
	movq	%rax, %rdi
	call	emit_byte
	pxor	%xmm1, %xmm1
	cvtsi2sdl	-52(%rbp), %xmm1
	movq	%xmm1, %rdx
	movq	-40(%rbp), %rax
	movq	%rdx, %xmm0
	movq	%rax, %rdi
	call	emit_num
	movq	-40(%rbp), %rax
	movl	$3, %esi
	movq	%rax, %rdi
	call	emit_byte
	nop
.L367:
	nop
	leave
	.cfi_def_cfa 7, 8
	ret
	.cfi_endproc
.LFE34:
	.size	emit_hash_definition, .-emit_hash_definition
	.section	.rodata
.LC83:
	.string	"stack underflow"
	.text
	.type	pop, @function
pop:
.LFB35:
	.cfi_startproc
	endbr64
	pushq	%rbp
	.cfi_def_cfa_offset 16
	.cfi_offset 6, -16
	movq	%rsp, %rbp
	.cfi_def_cfa_register 6
	subq	$48, %rsp
	movq	%rdi, -40(%rbp)
#APP
# 411 "TheProjecter_qvm_q.c" 1
	##_ANNOTATION_INITIALREGION_-TIG-iO-xHZ6-1-pop--88
# 0 "" 2
# 415 "TheProjecter_qvm_q.c" 1
	##_ANNOTATION_ATOMICREGION_-TIG-iO-xHZ6-1-pop--87
# 0 "" 2
#NO_APP
	movl	$24, %edi
	call	malloc@PLT
	movq	%rax, -24(%rbp)
	movq	-24(%rbp), %rax
	movq	-24(%rbp), %rdx
	movq	%rdx, 16(%rax)
	movq	-24(%rbp), %rax
	movq	-24(%rbp), %rdx
	movq	%rdx, 8(%rax)
	movq	-24(%rbp), %rax
	movq	%rax, _TIG_iO_xHZ6_1_pop_1_opaque_list_1(%rip)
	call	rand@PLT
	movl	%eax, -32(%rbp)
	movl	$24, %edi
	call	malloc@PLT
	movq	%rax, -16(%rbp)
	movq	-16(%rbp), %rax
	movl	$0, (%rax)
	movq	_TIG_iO_xHZ6_1_pop_1_opaque_list_1(%rip), %rax
	movq	16(%rax), %rdx
	movq	-16(%rbp), %rax
	movq	%rdx, 16(%rax)
	movq	_TIG_iO_xHZ6_1_pop_1_opaque_list_1(%rip), %rdx
	movq	-16(%rbp), %rax
	movq	%rdx, 8(%rax)
	movq	_TIG_iO_xHZ6_1_pop_1_opaque_list_1(%rip), %rax
	movq	16(%rax), %rax
	movq	-16(%rbp), %rdx
	movq	%rdx, 8(%rax)
	movq	_TIG_iO_xHZ6_1_pop_1_opaque_list_1(%rip), %rax
	movq	-16(%rbp), %rdx
	movq	%rdx, 16(%rax)
	call	rand@PLT
	movl	%eax, -28(%rbp)
	movl	$24, %edi
	call	malloc@PLT
	movq	%rax, -8(%rbp)
	movq	-8(%rbp), %rax
	movl	-28(%rbp), %edx
	movl	%edx, (%rax)
	movq	_TIG_iO_xHZ6_1_pop_1_opaque_list_1(%rip), %rax
	movq	16(%rax), %rdx
	movq	-8(%rbp), %rax
	movq	%rdx, 16(%rax)
	movq	_TIG_iO_xHZ6_1_pop_1_opaque_list_1(%rip), %rdx
	movq	-8(%rbp), %rax
	movq	%rdx, 8(%rax)
	movq	_TIG_iO_xHZ6_1_pop_1_opaque_list_1(%rip), %rax
	movq	16(%rax), %rax
	movq	-8(%rbp), %rdx
	movq	%rdx, 8(%rax)
	movq	_TIG_iO_xHZ6_1_pop_1_opaque_list_1(%rip), %rax
	movq	-8(%rbp), %rdx
	movq	%rdx, 16(%rax)
	movq	_TIG_iO_xHZ6_1_pop_1_opaque_list_1(%rip), %rax
	movq	16(%rax), %rax
	movq	%rax, _TIG_iO_xHZ6_1_pop_1_opaque_ptr_1(%rip)
	movq	_TIG_iO_xHZ6_1_pop_1_opaque_ptr_1(%rip), %rax
	movq	%rax, _TIG_iO_xHZ6_1_pop_1_opaque_ptr_2(%rip)
	movq	_TIG_iO_xHZ6_1_pop_1_opaque_ptr_2(%rip), %rax
	movq	16(%rax), %rax
	movq	%rax, _TIG_iO_xHZ6_1_pop_1_opaque_ptr_2(%rip)
	nop
	nop
	movq	-40(%rbp), %rax
	movl	40(%rax), %eax
	leal	-1(%rax), %edx
	movq	-40(%rbp), %rax
	movl	%edx, 40(%rax)
	movq	_TIG_iO_xHZ6_1_usage_1_opaque_ptr_1(%rip), %rdx
	movq	_TIG_iO_xHZ6_1_usage_1_opaque_ptr_2(%rip), %rax
	cmpq	%rax, %rdx
	je	.L369
#APP
# 662 "TheProjecter_qvm_q.c" 1
	.byte 0x7,0xb8,0xff,0xff,0xff
# 0 "" 2
#NO_APP
	jmp	.L370
.L369:
	movq	-40(%rbp), %rax
	movl	40(%rax), %eax
	testl	%eax, %eax
	jns	.L370
	movq	-40(%rbp), %rax
	movl	48(%rax), %ecx
	movq	rerr(%rip), %rdx
	movq	-40(%rbp), %rax
	leaq	.LC83(%rip), %r8
	leaq	.LC69(%rip), %rsi
	movq	%rax, %rdi
	movl	$0, %eax
	call	die
.L370:
	movq	-40(%rbp), %rax
	movq	32(%rax), %rcx
	movq	-40(%rbp), %rax
	movl	40(%rax), %eax
	movslq	%eax, %rdx
	movq	%rdx, %rax
	addq	%rax, %rax
	addq	%rdx, %rax
	salq	$3, %rax
	addq	%rcx, %rax
	leave
	.cfi_def_cfa 7, 8
	ret
	.cfi_endproc
.LFE35:
	.size	pop, .-pop
	.type	init_op_tab, @function
init_op_tab:
.LFB36:
	.cfi_startproc
	endbr64
	pushq	%rbp
	.cfi_def_cfa_offset 16
	.cfi_offset 6, -16
	movq	%rsp, %rbp
	.cfi_def_cfa_register 6
	subq	$32, %rsp
#APP
# 677 "TheProjecter_qvm_q.c" 1
	##_ANNOTATION_INITIALREGION_-TIG-iO-xHZ6-1-init-op-tab--66
# 0 "" 2
# 681 "TheProjecter_qvm_q.c" 1
	##_ANNOTATION_ATOMICREGION_-TIG-iO-xHZ6-1-init-op-tab--65
# 0 "" 2
#NO_APP
	movl	$24, %edi
	call	malloc@PLT
	movq	%rax, -24(%rbp)
	movq	-24(%rbp), %rax
	movq	-24(%rbp), %rdx
	movq	%rdx, 8(%rax)
	movq	-24(%rbp), %rax
	movq	-24(%rbp), %rdx
	movq	%rdx, 16(%rax)
	movq	-24(%rbp), %rax
	movq	%rax, _TIG_iO_xHZ6_1_init_op_tab_1_opaque_list_1(%rip)
	call	rand@PLT
	movl	%eax, -32(%rbp)
	movl	$24, %edi
	call	malloc@PLT
	movq	%rax, -16(%rbp)
	movq	-16(%rbp), %rax
	movl	$0, (%rax)
	movq	_TIG_iO_xHZ6_1_init_op_tab_1_opaque_list_1(%rip), %rax
	movq	8(%rax), %rdx
	movq	-16(%rbp), %rax
	movq	%rdx, 8(%rax)
	movq	_TIG_iO_xHZ6_1_init_op_tab_1_opaque_list_1(%rip), %rdx
	movq	-16(%rbp), %rax
	movq	%rdx, 16(%rax)
	movq	_TIG_iO_xHZ6_1_init_op_tab_1_opaque_list_1(%rip), %rax
	movq	8(%rax), %rax
	movq	-16(%rbp), %rdx
	movq	%rdx, 16(%rax)
	movq	_TIG_iO_xHZ6_1_init_op_tab_1_opaque_list_1(%rip), %rax
	movq	-16(%rbp), %rdx
	movq	%rdx, 8(%rax)
	call	rand@PLT
	movl	%eax, -28(%rbp)
	movl	$24, %edi
	call	malloc@PLT
	movq	%rax, -8(%rbp)
	movq	-8(%rbp), %rax
	movl	-28(%rbp), %edx
	movl	%edx, (%rax)
	movq	_TIG_iO_xHZ6_1_init_op_tab_1_opaque_list_1(%rip), %rax
	movq	8(%rax), %rdx
	movq	-8(%rbp), %rax
	movq	%rdx, 8(%rax)
	movq	_TIG_iO_xHZ6_1_init_op_tab_1_opaque_list_1(%rip), %rdx
	movq	-8(%rbp), %rax
	movq	%rdx, 16(%rax)
	movq	_TIG_iO_xHZ6_1_init_op_tab_1_opaque_list_1(%rip), %rax
	movq	8(%rax), %rax
	movq	-8(%rbp), %rdx
	movq	%rdx, 16(%rax)
	movq	_TIG_iO_xHZ6_1_init_op_tab_1_opaque_list_1(%rip), %rax
	movq	-8(%rbp), %rdx
	movq	%rdx, 8(%rax)
	movq	_TIG_iO_xHZ6_1_init_op_tab_1_opaque_list_1(%rip), %rax
	movq	8(%rax), %rax
	movq	%rax, _TIG_iO_xHZ6_1_init_op_tab_1_opaque_ptr_1(%rip)
	movq	_TIG_iO_xHZ6_1_init_op_tab_1_opaque_ptr_1(%rip), %rax
	movq	%rax, _TIG_iO_xHZ6_1_init_op_tab_1_opaque_ptr_2(%rip)
	nop
	nop
	movq	_TIG_iO_xHZ6_1_usage_1_opaque_ptr_1(%rip), %rdx
	movq	_TIG_iO_xHZ6_1_usage_1_opaque_ptr_2(%rip), %rax
	cmpq	%rax, %rdx
	jne	.L373
	movl	$0, %edx
	movl	$2, %esi
	movl	$100, %edi
	call	set_op_attributes
	movl	%eax, 160+op_tab(%rip)
	movl	160+op_tab(%rip), %eax
	movl	%eax, 184+op_tab(%rip)
	movl	$1, %edx
	movl	$1, %esi
	movl	$100, %edi
	call	set_op_attributes
	movl	%eax, 364+op_tab(%rip)
	movl	$0, %edx
	movl	$2, %esi
	movl	$80, %edi
	call	set_op_attributes
	movl	%eax, 148+op_tab(%rip)
	movl	148+op_tab(%rip), %eax
	movl	%eax, 188+op_tab(%rip)
	movl	188+op_tab(%rip), %eax
	movl	%eax, 168+op_tab(%rip)
	movl	$0, %edx
	movl	$2, %esi
	movl	$60, %edi
	call	set_op_attributes
	movl	%eax, 180+op_tab(%rip)
	movl	180+op_tab(%rip), %eax
	movl	%eax, 172+op_tab(%rip)
	movl	$1, %edx
	movl	$2, %esi
	movl	$20, %edi
	call	set_op_attributes
	movl	%eax, 424+op_tab(%rip)
	movl	424+op_tab(%rip), %eax
	movl	%eax, 420+op_tab(%rip)
	movl	420+op_tab(%rip), %eax
	movl	%eax, 416+op_tab(%rip)
	movl	416+op_tab(%rip), %eax
	movl	%eax, 412+op_tab(%rip)
	movl	412+op_tab(%rip), %eax
	movl	%eax, 244+op_tab(%rip)
	movl	$0, %edx
	movl	$2, %esi
	movl	$10, %edi
	call	set_op_attributes
	movl	%eax, 176+op_tab(%rip)
	jmp	.L372
.L373:
#APP
# 318 "TheProjecter_qvm_q.c" 1
	.byte 0xa3,0x49,0x65,0xa0,0xcb,0x62,0x21
# 0 "" 2
#NO_APP
	nop
.L372:
	leave
	.cfi_def_cfa 7, 8
	ret
	.cfi_endproc
.LFE36:
	.size	init_op_tab, .-init_op_tab
	.section	.rodata
	.align 8
.LC84:
	.string	"%s: line %d: badly encoded string"
	.text
	.type	hex_ascii_to_int, @function
hex_ascii_to_int:
.LFB37:
	.cfi_startproc
	endbr64
	pushq	%rbp
	.cfi_def_cfa_offset 16
	.cfi_offset 6, -16
	movq	%rsp, %rbp
	.cfi_def_cfa_register 6
	subq	$48, %rsp
	movq	%rdi, -40(%rbp)
	movl	%esi, %eax
	movl	%edx, -48(%rbp)
	movb	%al, -44(%rbp)
#APP
# 333 "TheProjecter_qvm_q.c" 1
	##_ANNOTATION_INITIALREGION_-TIG-iO-xHZ6-1-hex-ascii-to-int--60
# 0 "" 2
# 337 "TheProjecter_qvm_q.c" 1
	##_ANNOTATION_ATOMICREGION_-TIG-iO-xHZ6-1-hex-ascii-to-int--59
# 0 "" 2
#NO_APP
	movl	$24, %edi
	call	malloc@PLT
	movq	%rax, -24(%rbp)
	movq	-24(%rbp), %rax
	movq	-24(%rbp), %rdx
	movq	%rdx, 8(%rax)
	movq	-24(%rbp), %rax
	movq	-24(%rbp), %rdx
	movq	%rdx, (%rax)
	movq	-24(%rbp), %rax
	movq	%rax, _TIG_iO_xHZ6_1_hex_ascii_to_int_1_opaque_list_1(%rip)
	call	rand@PLT
	movl	%eax, -32(%rbp)
	movl	$24, %edi
	call	malloc@PLT
	movq	%rax, -16(%rbp)
	movq	-16(%rbp), %rax
	movl	$0, 16(%rax)
	movq	_TIG_iO_xHZ6_1_hex_ascii_to_int_1_opaque_list_1(%rip), %rax
	movq	8(%rax), %rdx
	movq	-16(%rbp), %rax
	movq	%rdx, 8(%rax)
	movq	_TIG_iO_xHZ6_1_hex_ascii_to_int_1_opaque_list_1(%rip), %rdx
	movq	-16(%rbp), %rax
	movq	%rdx, (%rax)
	movq	_TIG_iO_xHZ6_1_hex_ascii_to_int_1_opaque_list_1(%rip), %rax
	movq	8(%rax), %rax
	movq	-16(%rbp), %rdx
	movq	%rdx, (%rax)
	movq	_TIG_iO_xHZ6_1_hex_ascii_to_int_1_opaque_list_1(%rip), %rax
	movq	-16(%rbp), %rdx
	movq	%rdx, 8(%rax)
	call	rand@PLT
	movl	%eax, -28(%rbp)
	movl	$24, %edi
	call	malloc@PLT
	movq	%rax, -8(%rbp)
	movq	-8(%rbp), %rax
	movl	-28(%rbp), %edx
	movl	%edx, 16(%rax)
	movq	_TIG_iO_xHZ6_1_hex_ascii_to_int_1_opaque_list_1(%rip), %rax
	movq	8(%rax), %rdx
	movq	-8(%rbp), %rax
	movq	%rdx, 8(%rax)
	movq	_TIG_iO_xHZ6_1_hex_ascii_to_int_1_opaque_list_1(%rip), %rdx
	movq	-8(%rbp), %rax
	movq	%rdx, (%rax)
	movq	_TIG_iO_xHZ6_1_hex_ascii_to_int_1_opaque_list_1(%rip), %rax
	movq	8(%rax), %rax
	movq	-8(%rbp), %rdx
	movq	%rdx, (%rax)
	movq	_TIG_iO_xHZ6_1_hex_ascii_to_int_1_opaque_list_1(%rip), %rax
	movq	-8(%rbp), %rdx
	movq	%rdx, 8(%rax)
	movq	_TIG_iO_xHZ6_1_hex_ascii_to_int_1_opaque_list_1(%rip), %rax
	movq	8(%rax), %rax
	movq	%rax, _TIG_iO_xHZ6_1_hex_ascii_to_int_1_opaque_ptr_1(%rip)
	movq	_TIG_iO_xHZ6_1_hex_ascii_to_int_1_opaque_ptr_1(%rip), %rax
	movq	%rax, _TIG_iO_xHZ6_1_hex_ascii_to_int_1_opaque_ptr_2(%rip)
	movq	_TIG_iO_xHZ6_1_hex_ascii_to_int_1_opaque_ptr_2(%rip), %rax
	movq	8(%rax), %rax
	movq	%rax, _TIG_iO_xHZ6_1_hex_ascii_to_int_1_opaque_ptr_2(%rip)
	nop
	nop
	movq	_TIG_iO_xHZ6_1_usage_1_opaque_ptr_1(%rip), %rdx
	movq	_TIG_iO_xHZ6_1_usage_1_opaque_ptr_2(%rip), %rax
	cmpq	%rax, %rdx
	jne	.L377
	cmpb	$111, -44(%rbp)
	jbe	.L378
	movq	serr(%rip), %rdx
	movl	-48(%rbp), %ecx
	movq	-40(%rbp), %rax
	leaq	.LC84(%rip), %rsi
	movq	%rax, %rdi
	movl	$0, %eax
	call	die
	jmp	.L377
.L378:
	movzbl	-44(%rbp), %eax
	cltq
	leaq	0(,%rax,4), %rdx
	leaq	hex_tab(%rip), %rax
	movl	(%rdx,%rax), %eax
	cmpl	$-1, %eax
	jne	.L377
	movq	serr(%rip), %rdx
	movl	-48(%rbp), %ecx
	movq	-40(%rbp), %rax
	leaq	.LC84(%rip), %rsi
	movq	%rax, %rdi
	movl	$0, %eax
	call	die
.L377:
	movzbl	-44(%rbp), %eax
	cltq
	leaq	0(,%rax,4), %rdx
	leaq	hex_tab(%rip), %rax
	movl	(%rdx,%rax), %eax
	leave
	.cfi_def_cfa 7, 8
	ret
	.cfi_endproc
.LFE37:
	.size	hex_ascii_to_int, .-hex_ascii_to_int
	.type	emit_ident, @function
emit_ident:
.LFB38:
	.cfi_startproc
	endbr64
	pushq	%rbp
	.cfi_def_cfa_offset 16
	.cfi_offset 6, -16
	movq	%rsp, %rbp
	.cfi_def_cfa_register 6
	subq	$48, %rsp
	movq	%rdi, -40(%rbp)
	movq	%rsi, -48(%rbp)
#APP
# 276 "TheProjecter_qvm_q.c" 1
	##_ANNOTATION_INITIALREGION_-TIG-iO-xHZ6-1-emit-ident--40
# 0 "" 2
# 280 "TheProjecter_qvm_q.c" 1
	##_ANNOTATION_ATOMICREGION_-TIG-iO-xHZ6-1-emit-ident--39
# 0 "" 2
#NO_APP
	movl	$24, %edi
	call	malloc@PLT
	movq	%rax, -24(%rbp)
	movq	-24(%rbp), %rax
	movq	-24(%rbp), %rdx
	movq	%rdx, 16(%rax)
	movq	-24(%rbp), %rax
	movq	-24(%rbp), %rdx
	movq	%rdx, 8(%rax)
	movq	-24(%rbp), %rax
	movq	%rax, _TIG_iO_xHZ6_1_emit_ident_1_opaque_list_1(%rip)
	call	rand@PLT
	movl	%eax, -32(%rbp)
	movl	$24, %edi
	call	malloc@PLT
	movq	%rax, -16(%rbp)
	movq	-16(%rbp), %rax
	movl	$0, (%rax)
	movq	_TIG_iO_xHZ6_1_emit_ident_1_opaque_list_1(%rip), %rax
	movq	16(%rax), %rdx
	movq	-16(%rbp), %rax
	movq	%rdx, 16(%rax)
	movq	_TIG_iO_xHZ6_1_emit_ident_1_opaque_list_1(%rip), %rdx
	movq	-16(%rbp), %rax
	movq	%rdx, 8(%rax)
	movq	_TIG_iO_xHZ6_1_emit_ident_1_opaque_list_1(%rip), %rax
	movq	16(%rax), %rax
	movq	-16(%rbp), %rdx
	movq	%rdx, 8(%rax)
	movq	_TIG_iO_xHZ6_1_emit_ident_1_opaque_list_1(%rip), %rax
	movq	-16(%rbp), %rdx
	movq	%rdx, 16(%rax)
	call	rand@PLT
	movl	%eax, -28(%rbp)
	movl	$24, %edi
	call	malloc@PLT
	movq	%rax, -8(%rbp)
	movq	-8(%rbp), %rax
	movl	-28(%rbp), %edx
	movl	%edx, (%rax)
	movq	_TIG_iO_xHZ6_1_emit_ident_1_opaque_list_1(%rip), %rax
	movq	16(%rax), %rdx
	movq	-8(%rbp), %rax
	movq	%rdx, 16(%rax)
	movq	_TIG_iO_xHZ6_1_emit_ident_1_opaque_list_1(%rip), %rdx
	movq	-8(%rbp), %rax
	movq	%rdx, 8(%rax)
	movq	_TIG_iO_xHZ6_1_emit_ident_1_opaque_list_1(%rip), %rax
	movq	16(%rax), %rax
	movq	-8(%rbp), %rdx
	movq	%rdx, 8(%rax)
	movq	_TIG_iO_xHZ6_1_emit_ident_1_opaque_list_1(%rip), %rax
	movq	-8(%rbp), %rdx
	movq	%rdx, 16(%rax)
	movq	_TIG_iO_xHZ6_1_emit_ident_1_opaque_list_1(%rip), %rax
	movq	16(%rax), %rax
	movq	%rax, _TIG_iO_xHZ6_1_emit_ident_1_opaque_ptr_1(%rip)
	movq	_TIG_iO_xHZ6_1_emit_ident_1_opaque_ptr_1(%rip), %rax
	movq	%rax, _TIG_iO_xHZ6_1_emit_ident_1_opaque_ptr_2(%rip)
	nop
	nop
	movq	_TIG_iO_xHZ6_1_usage_1_opaque_ptr_1(%rip), %rdx
	movq	_TIG_iO_xHZ6_1_usage_1_opaque_ptr_2(%rip), %rax
	cmpq	%rax, %rdx
	je	.L381
	movl	-32(%rbp), %edx
	movq	-48(%rbp), %rax
	movl	%edx, %esi
	movq	%rax, %rdi
	call	calc_number_of_params
	movl	%eax, -28(%rbp)
.L381:
	movq	-40(%rbp), %rax
	movl	$5, %esi
	movq	%rax, %rdi
	call	emit_byte
	movq	-40(%rbp), %rax
	movl	$2, %esi
	movq	%rax, %rdi
	call	emit_byte
	movq	-48(%rbp), %rax
	leaq	16(%rax), %rcx
	movq	-40(%rbp), %rax
	movl	$4, %edx
	movq	%rcx, %rsi
	movq	%rax, %rdi
	call	emit
	movq	-48(%rbp), %rax
	movl	16(%rax), %edx
	movq	-48(%rbp), %rax
	movq	24(%rax), %rcx
	movq	-40(%rbp), %rax
	movq	%rcx, %rsi
	movq	%rax, %rdi
	call	emit
	nop
	leave
	.cfi_def_cfa 7, 8
	ret
	.cfi_endproc
.LFE38:
	.size	emit_ident, .-emit_ident
	.type	cmp_vec, @function
cmp_vec:
.LFB39:
	.cfi_startproc
	endbr64
	pushq	%rbp
	.cfi_def_cfa_offset 16
	.cfi_offset 6, -16
	movq	%rsp, %rbp
	.cfi_def_cfa_register 6
	subq	$80, %rsp
	movq	%rdi, -72(%rbp)
	movq	%rsi, -80(%rbp)
#APP
# 384 "TheProjecter_qvm_q.c" 1
	##_ANNOTATION_INITIALREGION_-TIG-iO-xHZ6-1-cmp-vec--22
# 0 "" 2
# 388 "TheProjecter_qvm_q.c" 1
	##_ANNOTATION_ATOMICREGION_-TIG-iO-xHZ6-1-cmp-vec--21
# 0 "" 2
#NO_APP
	movl	$24, %edi
	call	malloc@PLT
	movq	%rax, -32(%rbp)
	movq	-32(%rbp), %rax
	movq	-32(%rbp), %rdx
	movq	%rdx, (%rax)
	movq	-32(%rbp), %rax
	movq	-32(%rbp), %rdx
	movq	%rdx, 16(%rax)
	movq	-32(%rbp), %rax
	movq	%rax, _TIG_iO_xHZ6_1_cmp_vec_1_opaque_list_1(%rip)
	call	rand@PLT
	movl	%eax, -48(%rbp)
	movl	$24, %edi
	call	malloc@PLT
	movq	%rax, -24(%rbp)
	movq	-24(%rbp), %rax
	movl	$0, 8(%rax)
	movq	_TIG_iO_xHZ6_1_cmp_vec_1_opaque_list_1(%rip), %rax
	movq	(%rax), %rdx
	movq	-24(%rbp), %rax
	movq	%rdx, (%rax)
	movq	_TIG_iO_xHZ6_1_cmp_vec_1_opaque_list_1(%rip), %rdx
	movq	-24(%rbp), %rax
	movq	%rdx, 16(%rax)
	movq	_TIG_iO_xHZ6_1_cmp_vec_1_opaque_list_1(%rip), %rax
	movq	(%rax), %rax
	movq	-24(%rbp), %rdx
	movq	%rdx, 16(%rax)
	movq	_TIG_iO_xHZ6_1_cmp_vec_1_opaque_list_1(%rip), %rax
	movq	-24(%rbp), %rdx
	movq	%rdx, (%rax)
	call	rand@PLT
	movl	%eax, -44(%rbp)
	movl	$24, %edi
	call	malloc@PLT
	movq	%rax, -16(%rbp)
	movq	-16(%rbp), %rax
	movl	-44(%rbp), %edx
	movl	%edx, 8(%rax)
	movq	_TIG_iO_xHZ6_1_cmp_vec_1_opaque_list_1(%rip), %rax
	movq	(%rax), %rdx
	movq	-16(%rbp), %rax
	movq	%rdx, (%rax)
	movq	_TIG_iO_xHZ6_1_cmp_vec_1_opaque_list_1(%rip), %rdx
	movq	-16(%rbp), %rax
	movq	%rdx, 16(%rax)
	movq	_TIG_iO_xHZ6_1_cmp_vec_1_opaque_list_1(%rip), %rax
	movq	(%rax), %rax
	movq	-16(%rbp), %rdx
	movq	%rdx, 16(%rax)
	movq	_TIG_iO_xHZ6_1_cmp_vec_1_opaque_list_1(%rip), %rax
	movq	-16(%rbp), %rdx
	movq	%rdx, (%rax)
	call	rand@PLT
	movl	%eax, -40(%rbp)
	movl	$24, %edi
	call	malloc@PLT
	movq	%rax, -8(%rbp)
	movl	-40(%rbp), %eax
	leal	(%rax,%rax), %edx
	movq	-8(%rbp), %rax
	movl	%edx, 8(%rax)
	movq	_TIG_iO_xHZ6_1_cmp_vec_1_opaque_list_1(%rip), %rax
	movq	(%rax), %rdx
	movq	-8(%rbp), %rax
	movq	%rdx, (%rax)
	movq	_TIG_iO_xHZ6_1_cmp_vec_1_opaque_list_1(%rip), %rdx
	movq	-8(%rbp), %rax
	movq	%rdx, 16(%rax)
	movq	_TIG_iO_xHZ6_1_cmp_vec_1_opaque_list_1(%rip), %rax
	movq	(%rax), %rax
	movq	-8(%rbp), %rdx
	movq	%rdx, 16(%rax)
	movq	_TIG_iO_xHZ6_1_cmp_vec_1_opaque_list_1(%rip), %rax
	movq	-8(%rbp), %rdx
	movq	%rdx, (%rax)
	movq	_TIG_iO_xHZ6_1_cmp_vec_1_opaque_list_1(%rip), %rax
	movq	(%rax), %rax
	movq	%rax, _TIG_iO_xHZ6_1_cmp_vec_1_opaque_ptr_1(%rip)
	movq	_TIG_iO_xHZ6_1_cmp_vec_1_opaque_ptr_1(%rip), %rax
	movq	%rax, _TIG_iO_xHZ6_1_cmp_vec_1_opaque_ptr_2(%rip)
	movq	_TIG_iO_xHZ6_1_cmp_vec_1_opaque_ptr_2(%rip), %rax
	movq	(%rax), %rax
	movq	%rax, _TIG_iO_xHZ6_1_cmp_vec_1_opaque_ptr_2(%rip)
	nop
	nop
	movq	-72(%rbp), %rax
	movl	(%rax), %edx
	movq	-80(%rbp), %rax
	movl	(%rax), %eax
	cmpl	%eax, %edx
	jge	.L384
	movq	-72(%rbp), %rdx
	movq	-80(%rbp), %rax
	movq	%rdx, %rsi
	movq	%rax, %rdi
	call	cmp_vec
	movl	%eax, -36(%rbp)
	movq	_TIG_iO_xHZ6_1_usage_1_opaque_ptr_1(%rip), %rdx
	movq	_TIG_iO_xHZ6_1_usage_1_opaque_ptr_2(%rip), %rax
	cmpq	%rax, %rdx
	je	.L385
	movl	-44(%rbp), %eax
	movl	%eax, %edx
	movl	$2, %esi
	movl	$0, %edi
	call	hex_ascii_to_int
	movl	%eax, -52(%rbp)
.L385:
	movl	-36(%rbp), %eax
	negl	%eax
	jmp	.L386
.L384:
	movq	-80(%rbp), %rax
	movl	(%rax), %eax
	movslq	%eax, %rdx
	movq	-80(%rbp), %rax
	movq	8(%rax), %rcx
	movq	-72(%rbp), %rax
	movq	8(%rax), %rax
	movq	%rcx, %rsi
	movq	%rax, %rdi
	call	memcmp@PLT
	movl	%eax, -52(%rbp)
	cmpl	$0, -52(%rbp)
	jne	.L387
	movq	-72(%rbp), %rax
	movl	(%rax), %edx
	movq	-80(%rbp), %rax
	movl	(%rax), %ecx
	movl	%edx, %eax
	subl	%ecx, %eax
	movl	%eax, -52(%rbp)
.L387:
	movl	-52(%rbp), %eax
.L386:
	leave
	.cfi_def_cfa 7, 8
	ret
	.cfi_endproc
.LFE39:
	.size	cmp_vec, .-cmp_vec
	.type	emit_byte, @function
emit_byte:
.LFB40:
	.cfi_startproc
	endbr64
	pushq	%rbp
	.cfi_def_cfa_offset 16
	.cfi_offset 6, -16
	movq	%rsp, %rbp
	.cfi_def_cfa_register 6
	subq	$48, %rsp
	movq	%rdi, -40(%rbp)
	movl	%esi, %eax
	movb	%al, -44(%rbp)
#APP
# 538 "TheProjecter_qvm_q.c" 1
	##_ANNOTATION_INITIALREGION_-TIG-iO-xHZ6-1-emit-byte--32
# 0 "" 2
# 542 "TheProjecter_qvm_q.c" 1
	##_ANNOTATION_ATOMICREGION_-TIG-iO-xHZ6-1-emit-byte--31
# 0 "" 2
#NO_APP
	movl	$24, %edi
	call	malloc@PLT
	movq	%rax, -24(%rbp)
	movq	-24(%rbp), %rax
	movq	-24(%rbp), %rdx
	movq	%rdx, 16(%rax)
	movq	-24(%rbp), %rax
	movq	-24(%rbp), %rdx
	movq	%rdx, (%rax)
	movq	-24(%rbp), %rax
	movq	%rax, _TIG_iO_xHZ6_1_emit_byte_1_opaque_list_1(%rip)
	call	rand@PLT
	movl	%eax, -32(%rbp)
	movl	$24, %edi
	call	malloc@PLT
	movq	%rax, -16(%rbp)
	movq	-16(%rbp), %rax
	movl	$0, 8(%rax)
	movq	_TIG_iO_xHZ6_1_emit_byte_1_opaque_list_1(%rip), %rax
	movq	16(%rax), %rdx
	movq	-16(%rbp), %rax
	movq	%rdx, 16(%rax)
	movq	_TIG_iO_xHZ6_1_emit_byte_1_opaque_list_1(%rip), %rdx
	movq	-16(%rbp), %rax
	movq	%rdx, (%rax)
	movq	_TIG_iO_xHZ6_1_emit_byte_1_opaque_list_1(%rip), %rax
	movq	16(%rax), %rax
	movq	-16(%rbp), %rdx
	movq	%rdx, (%rax)
	movq	_TIG_iO_xHZ6_1_emit_byte_1_opaque_list_1(%rip), %rax
	movq	-16(%rbp), %rdx
	movq	%rdx, 16(%rax)
	call	rand@PLT
	movl	%eax, -28(%rbp)
	movl	$24, %edi
	call	malloc@PLT
	movq	%rax, -8(%rbp)
	movq	-8(%rbp), %rax
	movl	-28(%rbp), %edx
	movl	%edx, 8(%rax)
	movq	_TIG_iO_xHZ6_1_emit_byte_1_opaque_list_1(%rip), %rax
	movq	16(%rax), %rdx
	movq	-8(%rbp), %rax
	movq	%rdx, 16(%rax)
	movq	_TIG_iO_xHZ6_1_emit_byte_1_opaque_list_1(%rip), %rdx
	movq	-8(%rbp), %rax
	movq	%rdx, (%rax)
	movq	_TIG_iO_xHZ6_1_emit_byte_1_opaque_list_1(%rip), %rax
	movq	16(%rax), %rax
	movq	-8(%rbp), %rdx
	movq	%rdx, (%rax)
	movq	_TIG_iO_xHZ6_1_emit_byte_1_opaque_list_1(%rip), %rax
	movq	-8(%rbp), %rdx
	movq	%rdx, 16(%rax)
	movq	_TIG_iO_xHZ6_1_emit_byte_1_opaque_list_1(%rip), %rax
	movq	16(%rax), %rax
	movq	%rax, _TIG_iO_xHZ6_1_emit_byte_1_opaque_ptr_1(%rip)
	movq	_TIG_iO_xHZ6_1_emit_byte_1_opaque_ptr_1(%rip), %rax
	movq	%rax, _TIG_iO_xHZ6_1_emit_byte_1_opaque_ptr_2(%rip)
	nop
	nop
	movq	_TIG_iO_xHZ6_1_usage_1_opaque_ptr_1(%rip), %rdx
	movq	_TIG_iO_xHZ6_1_usage_1_opaque_ptr_2(%rip), %rax
	cmpq	%rax, %rdx
	je	.L389
	movl	-28(%rbp), %eax
	movl	$0, %edx
	movl	$0, %esi
	movl	%eax, %edi
	call	main
	movl	%eax, -32(%rbp)
.L389:
	leaq	-44(%rbp), %rcx
	movq	-40(%rbp), %rax
	movl	$1, %edx
	movq	%rcx, %rsi
	movq	%rax, %rdi
	call	emit
	nop
	leave
	.cfi_def_cfa 7, 8
	ret
	.cfi_endproc
.LFE40:
	.size	emit_byte, .-emit_byte
	.type	emit_params, @function
emit_params:
.LFB41:
	.cfi_startproc
	endbr64
	pushq	%rbp
	.cfi_def_cfa_offset 16
	.cfi_offset 6, -16
	movq	%rsp, %rbp
	.cfi_def_cfa_register 6
	subq	$96, %rsp
	movq	%rdi, -72(%rbp)
	movq	%rsi, -80(%rbp)
	movl	%edx, -84(%rbp)
#APP
# 257 "TheProjecter_qvm_q.c" 1
	##_ANNOTATION_INITIALREGION_-TIG-iO-xHZ6-1-emit-params--44
# 0 "" 2
# 261 "TheProjecter_qvm_q.c" 1
	##_ANNOTATION_ATOMICREGION_-TIG-iO-xHZ6-1-emit-params--43
# 0 "" 2
#NO_APP
	movl	$24, %edi
	call	malloc@PLT
	movq	%rax, -40(%rbp)
	movq	-40(%rbp), %rax
	movq	-40(%rbp), %rdx
	movq	%rdx, (%rax)
	movq	-40(%rbp), %rax
	movq	-40(%rbp), %rdx
	movq	%rdx, 16(%rax)
	movq	-40(%rbp), %rax
	movq	%rax, _TIG_iO_xHZ6_1_emit_params_1_opaque_list_1(%rip)
	call	rand@PLT
	movl	%eax, -56(%rbp)
	movl	$24, %edi
	call	malloc@PLT
	movq	%rax, -32(%rbp)
	movq	-32(%rbp), %rax
	movl	$0, 8(%rax)
	movq	_TIG_iO_xHZ6_1_emit_params_1_opaque_list_1(%rip), %rax
	movq	(%rax), %rdx
	movq	-32(%rbp), %rax
	movq	%rdx, (%rax)
	movq	_TIG_iO_xHZ6_1_emit_params_1_opaque_list_1(%rip), %rdx
	movq	-32(%rbp), %rax
	movq	%rdx, 16(%rax)
	movq	_TIG_iO_xHZ6_1_emit_params_1_opaque_list_1(%rip), %rax
	movq	(%rax), %rax
	movq	-32(%rbp), %rdx
	movq	%rdx, 16(%rax)
	movq	_TIG_iO_xHZ6_1_emit_params_1_opaque_list_1(%rip), %rax
	movq	-32(%rbp), %rdx
	movq	%rdx, (%rax)
	call	rand@PLT
	movl	%eax, -52(%rbp)
	movl	$24, %edi
	call	malloc@PLT
	movq	%rax, -24(%rbp)
	movq	-24(%rbp), %rax
	movl	-52(%rbp), %edx
	movl	%edx, 8(%rax)
	movq	_TIG_iO_xHZ6_1_emit_params_1_opaque_list_1(%rip), %rax
	movq	(%rax), %rdx
	movq	-24(%rbp), %rax
	movq	%rdx, (%rax)
	movq	_TIG_iO_xHZ6_1_emit_params_1_opaque_list_1(%rip), %rdx
	movq	-24(%rbp), %rax
	movq	%rdx, 16(%rax)
	movq	_TIG_iO_xHZ6_1_emit_params_1_opaque_list_1(%rip), %rax
	movq	(%rax), %rax
	movq	-24(%rbp), %rdx
	movq	%rdx, 16(%rax)
	movq	_TIG_iO_xHZ6_1_emit_params_1_opaque_list_1(%rip), %rax
	movq	-24(%rbp), %rdx
	movq	%rdx, (%rax)
	call	rand@PLT
	movl	%eax, -48(%rbp)
	movl	$24, %edi
	call	malloc@PLT
	movq	%rax, -16(%rbp)
	movl	-48(%rbp), %eax
	leal	(%rax,%rax), %edx
	movq	-16(%rbp), %rax
	movl	%edx, 8(%rax)
	movq	_TIG_iO_xHZ6_1_emit_params_1_opaque_list_1(%rip), %rax
	movq	(%rax), %rdx
	movq	-16(%rbp), %rax
	movq	%rdx, (%rax)
	movq	_TIG_iO_xHZ6_1_emit_params_1_opaque_list_1(%rip), %rdx
	movq	-16(%rbp), %rax
	movq	%rdx, 16(%rax)
	movq	_TIG_iO_xHZ6_1_emit_params_1_opaque_list_1(%rip), %rax
	movq	(%rax), %rax
	movq	-16(%rbp), %rdx
	movq	%rdx, 16(%rax)
	movq	_TIG_iO_xHZ6_1_emit_params_1_opaque_list_1(%rip), %rax
	movq	-16(%rbp), %rdx
	movq	%rdx, (%rax)
	call	rand@PLT
	movl	%eax, -44(%rbp)
	movl	$24, %edi
	call	malloc@PLT
	movq	%rax, -8(%rbp)
	movl	-44(%rbp), %edx
	movl	%edx, %eax
	addl	%eax, %eax
	addl	%eax, %edx
	movq	-8(%rbp), %rax
	movl	%edx, 8(%rax)
	movq	_TIG_iO_xHZ6_1_emit_params_1_opaque_list_1(%rip), %rax
	movq	(%rax), %rdx
	movq	-8(%rbp), %rax
	movq	%rdx, (%rax)
	movq	_TIG_iO_xHZ6_1_emit_params_1_opaque_list_1(%rip), %rdx
	movq	-8(%rbp), %rax
	movq	%rdx, 16(%rax)
	movq	_TIG_iO_xHZ6_1_emit_params_1_opaque_list_1(%rip), %rax
	movq	(%rax), %rax
	movq	-8(%rbp), %rdx
	movq	%rdx, 16(%rax)
	movq	_TIG_iO_xHZ6_1_emit_params_1_opaque_list_1(%rip), %rax
	movq	-8(%rbp), %rdx
	movq	%rdx, (%rax)
	movq	_TIG_iO_xHZ6_1_emit_params_1_opaque_list_1(%rip), %rax
	movq	(%rax), %rax
	movq	%rax, _TIG_iO_xHZ6_1_emit_params_1_opaque_ptr_1(%rip)
	movq	_TIG_iO_xHZ6_1_emit_params_1_opaque_ptr_1(%rip), %rax
	movq	%rax, _TIG_iO_xHZ6_1_emit_params_1_opaque_ptr_2(%rip)
	movq	_TIG_iO_xHZ6_1_emit_params_1_opaque_ptr_2(%rip), %rax
	movq	(%rax), %rax
	movq	%rax, _TIG_iO_xHZ6_1_emit_params_1_opaque_ptr_2(%rip)
	nop
	nop
	movq	-80(%rbp), %rax
	movl	32(%rax), %eax
	cmpl	$107, %eax
	je	.L392
	movq	-80(%rbp), %rax
	movl	32(%rax), %eax
	cmpl	$44, %eax
	jne	.L393
	movq	_TIG_iO_xHZ6_1_usage_1_opaque_ptr_1(%rip), %rdx
	movq	_TIG_iO_xHZ6_1_usage_1_opaque_ptr_2(%rip), %rax
	cmpq	%rax, %rdx
	je	.L394
	movq	-80(%rbp), %rdx
	movq	-72(%rbp), %rax
	movq	%rdx, %rsi
	movq	%rax, %rdi
	call	emit_expr
.L394:
	movq	-80(%rbp), %rax
	movq	40(%rax), %rcx
	movl	-84(%rbp), %edx
	movq	-72(%rbp), %rax
	movq	%rcx, %rsi
	movq	%rax, %rdi
	call	emit_params
	movl	%eax, -84(%rbp)
	movq	-80(%rbp), %rax
	movq	48(%rax), %rcx
	movl	-84(%rbp), %edx
	movq	-72(%rbp), %rax
	movq	%rcx, %rsi
	movq	%rax, %rdi
	call	emit_params
	movl	%eax, -84(%rbp)
	jmp	.L392
.L393:
	movq	-80(%rbp), %rdx
	movq	-72(%rbp), %rax
	movq	%rdx, %rsi
	movq	%rax, %rdi
	call	emit_expr
	addl	$1, -84(%rbp)
.L392:
	movl	-84(%rbp), %eax
	leave
	.cfi_def_cfa 7, 8
	ret
	.cfi_endproc
.LFE41:
	.size	emit_params, .-emit_params
	.type	calc_number_of_params, @function
calc_number_of_params:
.LFB44:
	.cfi_startproc
	endbr64
	pushq	%rbp
	.cfi_def_cfa_offset 16
	.cfi_offset 6, -16
	movq	%rsp, %rbp
	.cfi_def_cfa_register 6
	subq	$64, %rsp
	movq	%rdi, -56(%rbp)
	movl	%esi, -60(%rbp)
#APP
# 56 "/usr/include/x86_64-linux-gnu/bits/byteswap.h" 1
	##_ANNOTATION_INITIALREGION_-TIG-iO-xHZ6-1-calc-number-of-params--18
# 0 "" 2
# 60 "/usr/include/x86_64-linux-gnu/bits/byteswap.h" 1
	##_ANNOTATION_ATOMICREGION_-TIG-iO-xHZ6-1-calc-number-of-params--17
# 0 "" 2
#NO_APP
	movl	$24, %edi
	call	malloc@PLT
	movq	%rax, -24(%rbp)
	movq	-24(%rbp), %rax
	movq	-24(%rbp), %rdx
	movq	%rdx, 8(%rax)
	movq	-24(%rbp), %rax
	movq	-24(%rbp), %rdx
	movq	%rdx, (%rax)
	movq	-24(%rbp), %rax
	movq	%rax, _TIG_iO_xHZ6_1_calc_number_of_params_1_opaque_list_1(%rip)
	call	rand@PLT
	movl	%eax, -40(%rbp)
	movl	$24, %edi
	call	malloc@PLT
	movq	%rax, -16(%rbp)
	movq	-16(%rbp), %rax
	movl	$0, 16(%rax)
	movq	_TIG_iO_xHZ6_1_calc_number_of_params_1_opaque_list_1(%rip), %rax
	movq	8(%rax), %rdx
	movq	-16(%rbp), %rax
	movq	%rdx, 8(%rax)
	movq	_TIG_iO_xHZ6_1_calc_number_of_params_1_opaque_list_1(%rip), %rdx
	movq	-16(%rbp), %rax
	movq	%rdx, (%rax)
	movq	_TIG_iO_xHZ6_1_calc_number_of_params_1_opaque_list_1(%rip), %rax
	movq	8(%rax), %rax
	movq	-16(%rbp), %rdx
	movq	%rdx, (%rax)
	movq	_TIG_iO_xHZ6_1_calc_number_of_params_1_opaque_list_1(%rip), %rax
	movq	-16(%rbp), %rdx
	movq	%rdx, 8(%rax)
	call	rand@PLT
	movl	%eax, -36(%rbp)
	movl	$24, %edi
	call	malloc@PLT
	movq	%rax, -8(%rbp)
	movq	-8(%rbp), %rax
	movl	-36(%rbp), %edx
	movl	%edx, 16(%rax)
	movq	_TIG_iO_xHZ6_1_calc_number_of_params_1_opaque_list_1(%rip), %rax
	movq	8(%rax), %rdx
	movq	-8(%rbp), %rax
	movq	%rdx, 8(%rax)
	movq	_TIG_iO_xHZ6_1_calc_number_of_params_1_opaque_list_1(%rip), %rdx
	movq	-8(%rbp), %rax
	movq	%rdx, (%rax)
	movq	_TIG_iO_xHZ6_1_calc_number_of_params_1_opaque_list_1(%rip), %rax
	movq	8(%rax), %rax
	movq	-8(%rbp), %rdx
	movq	%rdx, (%rax)
	movq	_TIG_iO_xHZ6_1_calc_number_of_params_1_opaque_list_1(%rip), %rax
	movq	-8(%rbp), %rdx
	movq	%rdx, 8(%rax)
	movq	_TIG_iO_xHZ6_1_calc_number_of_params_1_opaque_list_1(%rip), %rax
	movq	8(%rax), %rax
	movq	%rax, _TIG_iO_xHZ6_1_calc_number_of_params_1_opaque_ptr_1(%rip)
	movq	_TIG_iO_xHZ6_1_calc_number_of_params_1_opaque_ptr_1(%rip), %rax
	movq	%rax, _TIG_iO_xHZ6_1_calc_number_of_params_1_opaque_ptr_2(%rip)
	movq	_TIG_iO_xHZ6_1_calc_number_of_params_1_opaque_ptr_2(%rip), %rax
	movq	8(%rax), %rax
	movq	%rax, _TIG_iO_xHZ6_1_calc_number_of_params_1_opaque_ptr_2(%rip)
	nop
	nop
	movq	-56(%rbp), %rax
	movq	40(%rax), %rax
	testq	%rax, %rax
	je	.L397
	movq	-56(%rbp), %rax
	movq	40(%rax), %rax
	movl	$0, %esi
	movq	%rax, %rdi
	call	calc_number_of_params
	movl	%eax, -32(%rbp)
	movl	-32(%rbp), %eax
	addl	%eax, -60(%rbp)
.L397:
	movq	-56(%rbp), %rax
	movq	48(%rax), %rax
	testq	%rax, %rax
	je	.L398
	movq	-56(%rbp), %rax
	movq	48(%rax), %rax
	movl	$0, %esi
	movq	%rax, %rdi
	call	calc_number_of_params
	movl	%eax, -28(%rbp)
	movl	-28(%rbp), %eax
	addl	%eax, -60(%rbp)
.L398:
	movq	-56(%rbp), %rax
	movl	32(%rax), %eax
	cmpl	$44, %eax
	jne	.L399
	addl	$1, -60(%rbp)
.L399:
	movq	_TIG_iO_xHZ6_1_usage_1_opaque_ptr_1(%rip), %rdx
	movq	_TIG_iO_xHZ6_1_usage_1_opaque_ptr_2(%rip), %rax
	cmpq	%rax, %rdx
	jne	.L400
	movl	-60(%rbp), %eax
	jmp	.L396
.L400:
.L396:
	leave
	.cfi_def_cfa 7, 8
	ret
	.cfi_endproc
.LFE44:
	.size	calc_number_of_params, .-calc_number_of_params
	.type	setattr, @function
setattr:
.LFB45:
	.cfi_startproc
	endbr64
	pushq	%rbp
	.cfi_def_cfa_offset 16
	.cfi_offset 6, -16
	movq	%rsp, %rbp
	.cfi_def_cfa_register 6
	subq	$112, %rsp
	movq	%rdi, -88(%rbp)
	movq	%rsi, -96(%rbp)
	movq	%rdx, -104(%rbp)
	movq	%fs:40, %rax
	movq	%rax, -8(%rbp)
	xorl	%eax, %eax
#APP
# 359 "TheProjecter_qvm_q.c" 1
	##_ANNOTATION_INITIALREGION_-TIG-iO-xHZ6-1-setattr--112
# 0 "" 2
# 363 "TheProjecter_qvm_q.c" 1
	##_ANNOTATION_ATOMICREGION_-TIG-iO-xHZ6-1-setattr--111
# 0 "" 2
#NO_APP
	movl	$24, %edi
	call	malloc@PLT
	movq	%rax, -72(%rbp)
	movq	-72(%rbp), %rax
	movq	-72(%rbp), %rdx
	movq	%rdx, 8(%rax)
	movq	-72(%rbp), %rax
	movq	-72(%rbp), %rdx
	movq	%rdx, (%rax)
	movq	-72(%rbp), %rax
	movq	%rax, _TIG_iO_xHZ6_1_setattr_1_opaque_list_1(%rip)
	call	rand@PLT
	movl	%eax, -80(%rbp)
	movl	$24, %edi
	call	malloc@PLT
	movq	%rax, -64(%rbp)
	movq	-64(%rbp), %rax
	movl	$0, 16(%rax)
	movq	_TIG_iO_xHZ6_1_setattr_1_opaque_list_1(%rip), %rax
	movq	8(%rax), %rdx
	movq	-64(%rbp), %rax
	movq	%rdx, 8(%rax)
	movq	_TIG_iO_xHZ6_1_setattr_1_opaque_list_1(%rip), %rdx
	movq	-64(%rbp), %rax
	movq	%rdx, (%rax)
	movq	_TIG_iO_xHZ6_1_setattr_1_opaque_list_1(%rip), %rax
	movq	8(%rax), %rax
	movq	-64(%rbp), %rdx
	movq	%rdx, (%rax)
	movq	_TIG_iO_xHZ6_1_setattr_1_opaque_list_1(%rip), %rax
	movq	-64(%rbp), %rdx
	movq	%rdx, 8(%rax)
	call	rand@PLT
	movl	%eax, -76(%rbp)
	movl	$24, %edi
	call	malloc@PLT
	movq	%rax, -56(%rbp)
	movq	-56(%rbp), %rax
	movl	-76(%rbp), %edx
	movl	%edx, 16(%rax)
	movq	_TIG_iO_xHZ6_1_setattr_1_opaque_list_1(%rip), %rax
	movq	8(%rax), %rdx
	movq	-56(%rbp), %rax
	movq	%rdx, 8(%rax)
	movq	_TIG_iO_xHZ6_1_setattr_1_opaque_list_1(%rip), %rdx
	movq	-56(%rbp), %rax
	movq	%rdx, (%rax)
	movq	_TIG_iO_xHZ6_1_setattr_1_opaque_list_1(%rip), %rax
	movq	8(%rax), %rax
	movq	-56(%rbp), %rdx
	movq	%rdx, (%rax)
	movq	_TIG_iO_xHZ6_1_setattr_1_opaque_list_1(%rip), %rax
	movq	-56(%rbp), %rdx
	movq	%rdx, 8(%rax)
	movq	_TIG_iO_xHZ6_1_setattr_1_opaque_list_1(%rip), %rax
	movq	8(%rax), %rax
	movq	%rax, _TIG_iO_xHZ6_1_setattr_1_opaque_ptr_1(%rip)
	movq	_TIG_iO_xHZ6_1_setattr_1_opaque_ptr_1(%rip), %rax
	movq	%rax, _TIG_iO_xHZ6_1_setattr_1_opaque_ptr_2(%rip)
	nop
	nop
	movq	_TIG_iO_xHZ6_1_usage_1_opaque_ptr_1(%rip), %rdx
	movq	_TIG_iO_xHZ6_1_usage_1_opaque_ptr_2(%rip), %rax
	cmpq	%rax, %rdx
	je	.L403
	movq	-96(%rbp), %rax
	movl	$0, %edx
	movl	$0, %esi
	movq	%rax, %rdi
	call	q_save
.L403:
	movb	$2, -32(%rbp)
	movq	-96(%rbp), %rax
	movq	%rax, -16(%rbp)
	movq	-96(%rbp), %rax
	movq	%rax, %rdi
	call	strlen@PLT
	movq	%rax, -48(%rbp)
	movq	-48(%rbp), %rax
	movl	%eax, -24(%rbp)
	movq	-104(%rbp), %rdx
	leaq	-32(%rbp), %rcx
	movq	-88(%rbp), %rax
	movq	%rcx, %rsi
	movq	%rax, %rdi
	call	lookup_ins
	movq	%rax, -40(%rbp)
	movq	-40(%rbp), %rax
	movq	-8(%rbp), %rdx
	subq	%fs:40, %rdx
	je	.L405
	call	__stack_chk_fail@PLT
.L405:
	leave
	.cfi_def_cfa 7, 8
	ret
	.cfi_endproc
.LFE45:
	.size	setattr, .-setattr
	.section	.rodata
.LC85:
	.string	"print"
	.text
	.type	import_builtin_objects, @function
import_builtin_objects:
.LFB46:
	.cfi_startproc
	endbr64
	pushq	%rbp
	.cfi_def_cfa_offset 16
	.cfi_offset 6, -16
	movq	%rsp, %rbp
	.cfi_def_cfa_register 6
	subq	$112, %rsp
	movq	%rdi, -104(%rbp)
	movq	%fs:40, %rax
	movq	%rax, -8(%rbp)
	xorl	%eax, %eax
#APP
# 958 "TheProjecter_qvm_q.c" 1
	##_ANNOTATION_INITIALREGION_-TIG-iO-xHZ6-1-import-builtin-objects--62
# 0 "" 2
# 962 "TheProjecter_qvm_q.c" 1
	##_ANNOTATION_ATOMICREGION_-TIG-iO-xHZ6-1-import-builtin-objects--61
# 0 "" 2
#NO_APP
	movl	$24, %edi
	call	malloc@PLT
	movq	%rax, -80(%rbp)
	movq	-80(%rbp), %rax
	movq	-80(%rbp), %rdx
	movq	%rdx, 8(%rax)
	movq	-80(%rbp), %rax
	movq	-80(%rbp), %rdx
	movq	%rdx, 16(%rax)
	movq	-80(%rbp), %rax
	movq	%rax, _TIG_iO_xHZ6_1_import_builtin_objects_1_opaque_list_1(%rip)
	call	rand@PLT
	movl	%eax, -96(%rbp)
	movl	$24, %edi
	call	malloc@PLT
	movq	%rax, -72(%rbp)
	movq	-72(%rbp), %rax
	movl	$0, (%rax)
	movq	_TIG_iO_xHZ6_1_import_builtin_objects_1_opaque_list_1(%rip), %rax
	movq	8(%rax), %rdx
	movq	-72(%rbp), %rax
	movq	%rdx, 8(%rax)
	movq	_TIG_iO_xHZ6_1_import_builtin_objects_1_opaque_list_1(%rip), %rdx
	movq	-72(%rbp), %rax
	movq	%rdx, 16(%rax)
	movq	_TIG_iO_xHZ6_1_import_builtin_objects_1_opaque_list_1(%rip), %rax
	movq	8(%rax), %rax
	movq	-72(%rbp), %rdx
	movq	%rdx, 16(%rax)
	movq	_TIG_iO_xHZ6_1_import_builtin_objects_1_opaque_list_1(%rip), %rax
	movq	-72(%rbp), %rdx
	movq	%rdx, 8(%rax)
	call	rand@PLT
	movl	%eax, -92(%rbp)
	movl	$24, %edi
	call	malloc@PLT
	movq	%rax, -64(%rbp)
	movq	-64(%rbp), %rax
	movl	-92(%rbp), %edx
	movl	%edx, (%rax)
	movq	_TIG_iO_xHZ6_1_import_builtin_objects_1_opaque_list_1(%rip), %rax
	movq	8(%rax), %rdx
	movq	-64(%rbp), %rax
	movq	%rdx, 8(%rax)
	movq	_TIG_iO_xHZ6_1_import_builtin_objects_1_opaque_list_1(%rip), %rdx
	movq	-64(%rbp), %rax
	movq	%rdx, 16(%rax)
	movq	_TIG_iO_xHZ6_1_import_builtin_objects_1_opaque_list_1(%rip), %rax
	movq	8(%rax), %rax
	movq	-64(%rbp), %rdx
	movq	%rdx, 16(%rax)
	movq	_TIG_iO_xHZ6_1_import_builtin_objects_1_opaque_list_1(%rip), %rax
	movq	-64(%rbp), %rdx
	movq	%rdx, 8(%rax)
	call	rand@PLT
	movl	%eax, -88(%rbp)
	movl	$24, %edi
	call	malloc@PLT
	movq	%rax, -56(%rbp)
	movl	-88(%rbp), %eax
	leal	(%rax,%rax), %edx
	movq	-56(%rbp), %rax
	movl	%edx, (%rax)
	movq	_TIG_iO_xHZ6_1_import_builtin_objects_1_opaque_list_1(%rip), %rax
	movq	8(%rax), %rdx
	movq	-56(%rbp), %rax
	movq	%rdx, 8(%rax)
	movq	_TIG_iO_xHZ6_1_import_builtin_objects_1_opaque_list_1(%rip), %rdx
	movq	-56(%rbp), %rax
	movq	%rdx, 16(%rax)
	movq	_TIG_iO_xHZ6_1_import_builtin_objects_1_opaque_list_1(%rip), %rax
	movq	8(%rax), %rax
	movq	-56(%rbp), %rdx
	movq	%rdx, 16(%rax)
	movq	_TIG_iO_xHZ6_1_import_builtin_objects_1_opaque_list_1(%rip), %rax
	movq	-56(%rbp), %rdx
	movq	%rdx, 8(%rax)
	call	rand@PLT
	movl	%eax, -84(%rbp)
	movl	$24, %edi
	call	malloc@PLT
	movq	%rax, -48(%rbp)
	movl	-84(%rbp), %edx
	movl	%edx, %eax
	addl	%eax, %eax
	addl	%eax, %edx
	movq	-48(%rbp), %rax
	movl	%edx, (%rax)
	movq	_TIG_iO_xHZ6_1_import_builtin_objects_1_opaque_list_1(%rip), %rax
	movq	8(%rax), %rdx
	movq	-48(%rbp), %rax
	movq	%rdx, 8(%rax)
	movq	_TIG_iO_xHZ6_1_import_builtin_objects_1_opaque_list_1(%rip), %rdx
	movq	-48(%rbp), %rax
	movq	%rdx, 16(%rax)
	movq	_TIG_iO_xHZ6_1_import_builtin_objects_1_opaque_list_1(%rip), %rax
	movq	8(%rax), %rax
	movq	-48(%rbp), %rdx
	movq	%rdx, 16(%rax)
	movq	_TIG_iO_xHZ6_1_import_builtin_objects_1_opaque_list_1(%rip), %rax
	movq	-48(%rbp), %rdx
	movq	%rdx, 8(%rax)
	movq	_TIG_iO_xHZ6_1_import_builtin_objects_1_opaque_list_1(%rip), %rax
	movq	8(%rax), %rax
	movq	%rax, _TIG_iO_xHZ6_1_import_builtin_objects_1_opaque_ptr_1(%rip)
	movq	_TIG_iO_xHZ6_1_import_builtin_objects_1_opaque_ptr_1(%rip), %rax
	movq	%rax, _TIG_iO_xHZ6_1_import_builtin_objects_1_opaque_ptr_2(%rip)
	nop
	nop
	movq	-104(%rbp), %rax
	movq	32(%rax), %rax
	movq	%rax, -40(%rbp)
	movb	$5, -32(%rbp)
	leaq	print(%rip), %rax
	movq	%rax, -24(%rbp)
	leaq	-32(%rbp), %rdx
	movq	-40(%rbp), %rax
	leaq	.LC85(%rip), %rcx
	movq	%rcx, %rsi
	movq	%rax, %rdi
	call	setattr
	leaq	disasm(%rip), %rax
	movq	%rax, -24(%rbp)
	leaq	-32(%rbp), %rdx
	movq	-40(%rbp), %rax
	leaq	.LC10(%rip), %rcx
	movq	%rcx, %rsi
	movq	%rax, %rdi
	call	setattr
	movq	_TIG_iO_xHZ6_1_usage_1_opaque_ptr_1(%rip), %rdx
	movq	_TIG_iO_xHZ6_1_usage_1_opaque_ptr_2(%rip), %rax
	cmpq	%rax, %rdx
	je	.L410
	movl	-84(%rbp), %eax
	movl	%eax, %edi
	call	is_rtl
	movl	%eax, -88(%rbp)
	nop
.L410:
	nop
	movq	-8(%rbp), %rax
	subq	%fs:40, %rax
	je	.L409
	call	__stack_chk_fail@PLT
.L409:
	leave
	.cfi_def_cfa 7, 8
	ret
	.cfi_endproc
.LFE46:
	.size	import_builtin_objects, .-import_builtin_objects
	.type	print, @function
print:
.LFB47:
	.cfi_startproc
	endbr64
	pushq	%rbp
	.cfi_def_cfa_offset 16
	.cfi_offset 6, -16
	movq	%rsp, %rbp
	.cfi_def_cfa_register 6
	subq	$80, %rsp
	movq	%rdi, -72(%rbp)
#APP
# 969 "TheProjecter_qvm_q.c" 1
	##_ANNOTATION_INITIALREGION_-TIG-iO-xHZ6-1-print--90
# 0 "" 2
# 973 "TheProjecter_qvm_q.c" 1
	##_ANNOTATION_ATOMICREGION_-TIG-iO-xHZ6-1-print--89
# 0 "" 2
#NO_APP
	movl	$24, %edi
	call	malloc@PLT
	movq	%rax, -24(%rbp)
	movq	-24(%rbp), %rax
	movq	-24(%rbp), %rdx
	movq	%rdx, 16(%rax)
	movq	-24(%rbp), %rax
	movq	-24(%rbp), %rdx
	movq	%rdx, 8(%rax)
	movq	-24(%rbp), %rax
	movq	%rax, _TIG_iO_xHZ6_1_print_1_opaque_list_1(%rip)
	call	rand@PLT
	movl	%eax, -48(%rbp)
	movl	$24, %edi
	call	malloc@PLT
	movq	%rax, -16(%rbp)
	movq	-16(%rbp), %rax
	movl	$0, (%rax)
	movq	_TIG_iO_xHZ6_1_print_1_opaque_list_1(%rip), %rax
	movq	16(%rax), %rdx
	movq	-16(%rbp), %rax
	movq	%rdx, 16(%rax)
	movq	_TIG_iO_xHZ6_1_print_1_opaque_list_1(%rip), %rdx
	movq	-16(%rbp), %rax
	movq	%rdx, 8(%rax)
	movq	_TIG_iO_xHZ6_1_print_1_opaque_list_1(%rip), %rax
	movq	16(%rax), %rax
	movq	-16(%rbp), %rdx
	movq	%rdx, 8(%rax)
	movq	_TIG_iO_xHZ6_1_print_1_opaque_list_1(%rip), %rax
	movq	-16(%rbp), %rdx
	movq	%rdx, 16(%rax)
	call	rand@PLT
	movl	%eax, -44(%rbp)
	movl	$24, %edi
	call	malloc@PLT
	movq	%rax, -8(%rbp)
	movq	-8(%rbp), %rax
	movl	-44(%rbp), %edx
	movl	%edx, (%rax)
	movq	_TIG_iO_xHZ6_1_print_1_opaque_list_1(%rip), %rax
	movq	16(%rax), %rdx
	movq	-8(%rbp), %rax
	movq	%rdx, 16(%rax)
	movq	_TIG_iO_xHZ6_1_print_1_opaque_list_1(%rip), %rdx
	movq	-8(%rbp), %rax
	movq	%rdx, 8(%rax)
	movq	_TIG_iO_xHZ6_1_print_1_opaque_list_1(%rip), %rax
	movq	16(%rax), %rax
	movq	-8(%rbp), %rdx
	movq	%rdx, 8(%rax)
	movq	_TIG_iO_xHZ6_1_print_1_opaque_list_1(%rip), %rax
	movq	-8(%rbp), %rdx
	movq	%rdx, 16(%rax)
	movq	_TIG_iO_xHZ6_1_print_1_opaque_list_1(%rip), %rax
	movq	16(%rax), %rax
	movq	%rax, _TIG_iO_xHZ6_1_print_1_opaque_ptr_1(%rip)
	movq	_TIG_iO_xHZ6_1_print_1_opaque_ptr_1(%rip), %rax
	movq	%rax, _TIG_iO_xHZ6_1_print_1_opaque_ptr_2(%rip)
	movq	_TIG_iO_xHZ6_1_print_1_opaque_ptr_2(%rip), %rax
	movq	16(%rax), %rax
	movq	%rax, _TIG_iO_xHZ6_1_print_1_opaque_ptr_2(%rip)
	nop
	nop
	movq	-72(%rbp), %rax
	movl	$0, %esi
	movq	%rax, %rdi
	call	gsi
	movl	%eax, -40(%rbp)
	movl	-40(%rbp), %eax
	movl	%eax, -36(%rbp)
	movq	-72(%rbp), %rax
	movq	32(%rax), %rcx
	movq	-72(%rbp), %rax
	movl	40(%rax), %eax
	cltq
	movl	-36(%rbp), %edx
	movslq	%edx, %rsi
	subq	%rsi, %rax
	movq	%rax, %rdx
	movq	%rdx, %rax
	addq	%rax, %rax
	addq	%rdx, %rax
	salq	$3, %rax
	subq	$24, %rax
	addq	%rcx, %rax
	movq	%rax, -32(%rbp)
	movl	$0, -52(%rbp)
	movq	_TIG_iO_xHZ6_1_usage_1_opaque_ptr_1(%rip), %rdx
	movq	_TIG_iO_xHZ6_1_usage_1_opaque_ptr_2(%rip), %rax
	cmpq	%rax, %rdx
	je	.L416
.L415:
	movl	-52(%rbp), %eax
	cmpl	-36(%rbp), %eax
	setl	%al
	movzbl	%al, %eax
	cmpl	%eax, -48(%rbp)
	jne	.L418
	movq	-32(%rbp), %rax
	subq	$24, %rax
	movq	%rax, %rdi
	call	print_obj
	movl	-48(%rbp), %eax
	movl	%eax, -52(%rbp)
	addq	$48, -32(%rbp)
	jmp	.L415
.L417:
	movq	-32(%rbp), %rax
	movq	%rax, %rdi
	call	print_obj
	addl	$1, -52(%rbp)
	addq	$24, -32(%rbp)
.L416:
	movl	-52(%rbp), %eax
	cmpl	-36(%rbp), %eax
	jl	.L417
	jmp	.L411
.L418:
	nop
.L411:
	leave
	.cfi_def_cfa 7, 8
	ret
	.cfi_endproc
.LFE47:
	.size	print, .-print
	.section	.rodata
.LC86:
	.string	"reduce"
.LC87:
	.string	"is_op(parent->tok)"
.LC88:
	.string	"%s: line %d"
	.text
	.type	reduce, @function
reduce:
.LFB48:
	.cfi_startproc
	endbr64
	pushq	%rbp
	.cfi_def_cfa_offset 16
	.cfi_offset 6, -16
	movq	%rsp, %rbp
	.cfi_def_cfa_register 6
	subq	$112, %rsp
	movq	%rdi, -88(%rbp)
	movq	%rsi, -96(%rbp)
	movl	%edx, -100(%rbp)
	movq	%rcx, -112(%rbp)
#APP
# 935 "TheProjecter_qvm_q.c" 1
	##_ANNOTATION_INITIALREGION_-TIG-iO-xHZ6-1-reduce--108
# 0 "" 2
# 939 "TheProjecter_qvm_q.c" 1
	##_ANNOTATION_ATOMICREGION_-TIG-iO-xHZ6-1-reduce--107
# 0 "" 2
#NO_APP
	movl	$24, %edi
	call	malloc@PLT
	movq	%rax, -40(%rbp)
	movq	-40(%rbp), %rax
	movq	-40(%rbp), %rdx
	movq	%rdx, 8(%rax)
	movq	-40(%rbp), %rax
	movq	-40(%rbp), %rdx
	movq	%rdx, (%rax)
	movq	-40(%rbp), %rax
	movq	%rax, _TIG_iO_xHZ6_1_reduce_1_opaque_list_1(%rip)
	call	rand@PLT
	movl	%eax, -68(%rbp)
	movl	$24, %edi
	call	malloc@PLT
	movq	%rax, -32(%rbp)
	movq	-32(%rbp), %rax
	movl	$0, 16(%rax)
	movq	_TIG_iO_xHZ6_1_reduce_1_opaque_list_1(%rip), %rax
	movq	8(%rax), %rdx
	movq	-32(%rbp), %rax
	movq	%rdx, 8(%rax)
	movq	_TIG_iO_xHZ6_1_reduce_1_opaque_list_1(%rip), %rdx
	movq	-32(%rbp), %rax
	movq	%rdx, (%rax)
	movq	_TIG_iO_xHZ6_1_reduce_1_opaque_list_1(%rip), %rax
	movq	8(%rax), %rax
	movq	-32(%rbp), %rdx
	movq	%rdx, (%rax)
	movq	_TIG_iO_xHZ6_1_reduce_1_opaque_list_1(%rip), %rax
	movq	-32(%rbp), %rdx
	movq	%rdx, 8(%rax)
	call	rand@PLT
	movl	%eax, -64(%rbp)
	movl	$24, %edi
	call	malloc@PLT
	movq	%rax, -24(%rbp)
	movq	-24(%rbp), %rax
	movl	-64(%rbp), %edx
	movl	%edx, 16(%rax)
	movq	_TIG_iO_xHZ6_1_reduce_1_opaque_list_1(%rip), %rax
	movq	8(%rax), %rdx
	movq	-24(%rbp), %rax
	movq	%rdx, 8(%rax)
	movq	_TIG_iO_xHZ6_1_reduce_1_opaque_list_1(%rip), %rdx
	movq	-24(%rbp), %rax
	movq	%rdx, (%rax)
	movq	_TIG_iO_xHZ6_1_reduce_1_opaque_list_1(%rip), %rax
	movq	8(%rax), %rax
	movq	-24(%rbp), %rdx
	movq	%rdx, (%rax)
	movq	_TIG_iO_xHZ6_1_reduce_1_opaque_list_1(%rip), %rax
	movq	-24(%rbp), %rdx
	movq	%rdx, 8(%rax)
	movq	_TIG_iO_xHZ6_1_reduce_1_opaque_list_1(%rip), %rax
	movq	8(%rax), %rax
	movq	%rax, _TIG_iO_xHZ6_1_reduce_1_opaque_ptr_1(%rip)
	movq	_TIG_iO_xHZ6_1_reduce_1_opaque_ptr_1(%rip), %rax
	movq	%rax, _TIG_iO_xHZ6_1_reduce_1_opaque_ptr_2(%rip)
	nop
	nop
	movq	-96(%rbp), %rax
	movl	32(%rax), %eax
	movl	%eax, %edi
	call	is_op
	movl	%eax, -60(%rbp)
	cmpl	$0, -60(%rbp)
	jne	.L420
	leaq	.LC86(%rip), %rax
	movq	%rax, %rcx
	movl	$1071, %edx
	leaq	.LC1(%rip), %rax
	movq	%rax, %rsi
	leaq	.LC87(%rip), %rax
	movq	%rax, %rdi
	call	__assert_fail@PLT
.L420:
	movq	-96(%rbp), %rax
	movl	32(%rax), %eax
	movl	%eax, %edi
	call	is_rtl
	movl	%eax, -56(%rbp)
	cmpl	$0, -100(%rbp)
	sete	%al
	movzbl	%al, %eax
	xorl	-56(%rbp), %eax
	movl	%eax, -52(%rbp)
	cmpl	$0, -52(%rbp)
	je	.L421
	movq	-96(%rbp), %rax
	movq	8(%rax), %rax
	movq	%rax, -48(%rbp)
	jmp	.L422
.L421:
	movq	-96(%rbp), %rax
	movq	(%rax), %rax
	movq	%rax, -48(%rbp)
.L422:
	movq	-48(%rbp), %rax
	movq	%rax, -16(%rbp)
	movq	-48(%rbp), %rdx
	movq	-112(%rbp), %rax
	cmpq	%rax, %rdx
	jne	.L423
	movq	-16(%rbp), %rax
	movl	36(%rax), %ecx
	movq	serr(%rip), %rdx
	movq	-88(%rbp), %rax
	leaq	.LC88(%rip), %rsi
	movq	%rax, %rdi
	movl	$0, %eax
	call	die
.L423:
	movq	_TIG_iO_xHZ6_1_usage_1_opaque_ptr_1(%rip), %rdx
	movq	_TIG_iO_xHZ6_1_usage_1_opaque_ptr_2(%rip), %rax
	cmpq	%rax, %rdx
	je	.L424
	movq	-88(%rbp), %rax
	movq	%rax, %rdi
	call	import_builtin_objects
.L424:
	movq	-16(%rbp), %rax
	movq	(%rax), %rax
	movq	-16(%rbp), %rdx
	movq	8(%rdx), %rdx
	movq	%rdx, 8(%rax)
	movq	-16(%rbp), %rax
	movq	8(%rax), %rax
	movq	-16(%rbp), %rdx
	movq	(%rdx), %rdx
	movq	%rdx, (%rax)
	movq	-16(%rbp), %rax
	movq	%rax, -8(%rbp)
	movq	-16(%rbp), %rax
	movq	-8(%rbp), %rdx
	movq	%rdx, 8(%rax)
	movq	-16(%rbp), %rax
	movq	-8(%rbp), %rdx
	movq	%rdx, (%rax)
	nop
	cmpl	$0, -52(%rbp)
	je	.L425
	movq	-96(%rbp), %rax
	movq	-16(%rbp), %rdx
	movq	%rdx, 40(%rax)
	jmp	.L426
.L425:
	movq	-96(%rbp), %rax
	movq	-16(%rbp), %rdx
	movq	%rdx, 48(%rax)
.L426:
	movq	-16(%rbp), %rax
	movq	-96(%rbp), %rdx
	movq	%rdx, 56(%rax)
	nop
	leave
	.cfi_def_cfa 7, 8
	ret
	.cfi_endproc
.LFE48:
	.size	reduce, .-reduce
	.type	is_rtl, @function
is_rtl:
.LFB49:
	.cfi_startproc
	endbr64
	pushq	%rbp
	.cfi_def_cfa_offset 16
	.cfi_offset 6, -16
	movq	%rsp, %rbp
	.cfi_def_cfa_register 6
	subq	$48, %rsp
	movl	%edi, -36(%rbp)
#APP
# 1115 "TheProjecter_qvm_q.c" 1
	##_ANNOTATION_INITIALREGION_-TIG-iO-xHZ6-1-is-rtl--74
# 0 "" 2
# 1119 "TheProjecter_qvm_q.c" 1
	##_ANNOTATION_ATOMICREGION_-TIG-iO-xHZ6-1-is-rtl--73
# 0 "" 2
#NO_APP
	movl	$24, %edi
	call	malloc@PLT
	movq	%rax, -24(%rbp)
	movq	-24(%rbp), %rax
	movq	-24(%rbp), %rdx
	movq	%rdx, (%rax)
	movq	-24(%rbp), %rax
	movq	-24(%rbp), %rdx
	movq	%rdx, 16(%rax)
	movq	-24(%rbp), %rax
	movq	%rax, _TIG_iO_xHZ6_1_is_rtl_1_opaque_list_1(%rip)
	call	rand@PLT
	movl	%eax, -32(%rbp)
	movl	$24, %edi
	call	malloc@PLT
	movq	%rax, -16(%rbp)
	movq	-16(%rbp), %rax
	movl	$0, 8(%rax)
	movq	_TIG_iO_xHZ6_1_is_rtl_1_opaque_list_1(%rip), %rax
	movq	(%rax), %rdx
	movq	-16(%rbp), %rax
	movq	%rdx, (%rax)
	movq	_TIG_iO_xHZ6_1_is_rtl_1_opaque_list_1(%rip), %rdx
	movq	-16(%rbp), %rax
	movq	%rdx, 16(%rax)
	movq	_TIG_iO_xHZ6_1_is_rtl_1_opaque_list_1(%rip), %rax
	movq	(%rax), %rax
	movq	-16(%rbp), %rdx
	movq	%rdx, 16(%rax)
	movq	_TIG_iO_xHZ6_1_is_rtl_1_opaque_list_1(%rip), %rax
	movq	-16(%rbp), %rdx
	movq	%rdx, (%rax)
	call	rand@PLT
	movl	%eax, -28(%rbp)
	movl	$24, %edi
	call	malloc@PLT
	movq	%rax, -8(%rbp)
	movq	-8(%rbp), %rax
	movl	-28(%rbp), %edx
	movl	%edx, 8(%rax)
	movq	_TIG_iO_xHZ6_1_is_rtl_1_opaque_list_1(%rip), %rax
	movq	(%rax), %rdx
	movq	-8(%rbp), %rax
	movq	%rdx, (%rax)
	movq	_TIG_iO_xHZ6_1_is_rtl_1_opaque_list_1(%rip), %rdx
	movq	-8(%rbp), %rax
	movq	%rdx, 16(%rax)
	movq	_TIG_iO_xHZ6_1_is_rtl_1_opaque_list_1(%rip), %rax
	movq	(%rax), %rax
	movq	-8(%rbp), %rdx
	movq	%rdx, 16(%rax)
	movq	_TIG_iO_xHZ6_1_is_rtl_1_opaque_list_1(%rip), %rax
	movq	-8(%rbp), %rdx
	movq	%rdx, (%rax)
	movq	_TIG_iO_xHZ6_1_is_rtl_1_opaque_list_1(%rip), %rax
	movq	(%rax), %rax
	movq	%rax, _TIG_iO_xHZ6_1_is_rtl_1_opaque_ptr_1(%rip)
	movq	_TIG_iO_xHZ6_1_is_rtl_1_opaque_ptr_1(%rip), %rax
	movq	%rax, _TIG_iO_xHZ6_1_is_rtl_1_opaque_ptr_2(%rip)
	movq	_TIG_iO_xHZ6_1_is_rtl_1_opaque_ptr_2(%rip), %rax
	movq	(%rax), %rax
	movq	%rax, _TIG_iO_xHZ6_1_is_rtl_1_opaque_ptr_2(%rip)
	nop
	nop
	movq	_TIG_iO_xHZ6_1_usage_1_opaque_ptr_1(%rip), %rdx
	movq	_TIG_iO_xHZ6_1_usage_1_opaque_ptr_2(%rip), %rax
	cmpq	%rax, %rdx
	jne	.L429
	movl	-36(%rbp), %eax
	cltq
	leaq	0(,%rax,4), %rdx
	leaq	op_tab(%rip), %rax
	movl	(%rdx,%rax), %eax
	sarl	$16, %eax
	movzbl	%al, %eax
	jmp	.L428
.L429:
.L428:
	leave
	.cfi_def_cfa 7, 8
	ret
	.cfi_endproc
.LFE49:
	.size	is_rtl, .-is_rtl
	.type	init_hash_obj, @function
init_hash_obj:
.LFB50:
	.cfi_startproc
	endbr64
	pushq	%rbp
	.cfi_def_cfa_offset 16
	.cfi_offset 6, -16
	movq	%rsp, %rbp
	.cfi_def_cfa_register 6
	subq	$96, %rsp
	movq	%rdi, -88(%rbp)
	movq	%rsi, -96(%rbp)
#APP
# 347 "TheProjecter_qvm_q.c" 1
	##_ANNOTATION_INITIALREGION_-TIG-iO-xHZ6-1-init-hash-obj--64
# 0 "" 2
# 351 "TheProjecter_qvm_q.c" 1
	##_ANNOTATION_ATOMICREGION_-TIG-iO-xHZ6-1-init-hash-obj--63
# 0 "" 2
#NO_APP
	movl	$24, %edi
	call	malloc@PLT
	movq	%rax, -56(%rbp)
	movq	-56(%rbp), %rax
	movq	-56(%rbp), %rdx
	movq	%rdx, (%rax)
	movq	-56(%rbp), %rax
	movq	-56(%rbp), %rdx
	movq	%rdx, 16(%rax)
	movq	-56(%rbp), %rax
	movq	%rax, _TIG_iO_xHZ6_1_init_hash_obj_1_opaque_list_1(%rip)
	call	rand@PLT
	movl	%eax, -72(%rbp)
	movl	$24, %edi
	call	malloc@PLT
	movq	%rax, -48(%rbp)
	movq	-48(%rbp), %rax
	movl	$0, 8(%rax)
	movq	_TIG_iO_xHZ6_1_init_hash_obj_1_opaque_list_1(%rip), %rax
	movq	(%rax), %rdx
	movq	-48(%rbp), %rax
	movq	%rdx, (%rax)
	movq	_TIG_iO_xHZ6_1_init_hash_obj_1_opaque_list_1(%rip), %rdx
	movq	-48(%rbp), %rax
	movq	%rdx, 16(%rax)
	movq	_TIG_iO_xHZ6_1_init_hash_obj_1_opaque_list_1(%rip), %rax
	movq	(%rax), %rax
	movq	-48(%rbp), %rdx
	movq	%rdx, 16(%rax)
