	.file	"timber-they_AdventOfCode15_8_opaque.c"
	.text
	.globl	_TIG_iO_zmQK_1___bswap_32_1_opaque_ptr_1
	.bss
	.align 8
	.type	_TIG_iO_zmQK_1___bswap_32_1_opaque_ptr_1, @object
	.size	_TIG_iO_zmQK_1___bswap_32_1_opaque_ptr_1, 8
_TIG_iO_zmQK_1___bswap_32_1_opaque_ptr_1:
	.zero	8
	.globl	_TIG_iO_zmQK_1_main_1_opaque_list_1
	.align 8
	.type	_TIG_iO_zmQK_1_main_1_opaque_list_1, @object
	.size	_TIG_iO_zmQK_1_main_1_opaque_list_1, 8
_TIG_iO_zmQK_1_main_1_opaque_list_1:
	.zero	8
	.globl	_TIG_iO_zmQK_1_part1_1_opaque_ptr_1
	.align 8
	.type	_TIG_iO_zmQK_1_part1_1_opaque_ptr_1, @object
	.size	_TIG_iO_zmQK_1_part1_1_opaque_ptr_1, 8
_TIG_iO_zmQK_1_part1_1_opaque_ptr_1:
	.zero	8
	.globl	_TIG_iO_zmQK_1___bswap_16_1_opaque_list_1
	.align 8
	.type	_TIG_iO_zmQK_1___bswap_16_1_opaque_list_1, @object
	.size	_TIG_iO_zmQK_1___bswap_16_1_opaque_list_1, 8
_TIG_iO_zmQK_1___bswap_16_1_opaque_list_1:
	.zero	8
	.globl	_TIG_iO_zmQK_1___bswap_16_1_opaque_list_2
	.align 8
	.type	_TIG_iO_zmQK_1___bswap_16_1_opaque_list_2, @object
	.size	_TIG_iO_zmQK_1___bswap_16_1_opaque_list_2, 8
_TIG_iO_zmQK_1___bswap_16_1_opaque_list_2:
	.zero	8
	.globl	_TIG_iO_zmQK_1_memorySize_1_opaque_ptr_2
	.align 8
	.type	_TIG_iO_zmQK_1_memorySize_1_opaque_ptr_2, @object
	.size	_TIG_iO_zmQK_1_memorySize_1_opaque_ptr_2, 8
_TIG_iO_zmQK_1_memorySize_1_opaque_ptr_2:
	.zero	8
	.globl	_TIG_iO_zmQK_1_memorySize_1_opaque_ptr_1
	.align 8
	.type	_TIG_iO_zmQK_1_memorySize_1_opaque_ptr_1, @object
	.size	_TIG_iO_zmQK_1_memorySize_1_opaque_ptr_1, 8
_TIG_iO_zmQK_1_memorySize_1_opaque_ptr_1:
	.zero	8
	.globl	_TIG_iO_zmQK_1___uint32_identity_1_opaque_list_2
	.align 8
	.type	_TIG_iO_zmQK_1___uint32_identity_1_opaque_list_2, @object
	.size	_TIG_iO_zmQK_1___uint32_identity_1_opaque_list_2, 8
_TIG_iO_zmQK_1___uint32_identity_1_opaque_list_2:
	.zero	8
	.globl	_TIG_IZ_zmQK_envp
	.align 8
	.type	_TIG_IZ_zmQK_envp, @object
	.size	_TIG_IZ_zmQK_envp, 8
_TIG_IZ_zmQK_envp:
	.zero	8
	.globl	_TIG_IZ_zmQK_argc
	.align 4
	.type	_TIG_IZ_zmQK_argc, @object
	.size	_TIG_IZ_zmQK_argc, 4
_TIG_IZ_zmQK_argc:
	.zero	4
	.globl	_TIG_iO_zmQK_1_encodedSize_1_opaque_ptr_1
	.align 8
	.type	_TIG_iO_zmQK_1_encodedSize_1_opaque_ptr_1, @object
	.size	_TIG_iO_zmQK_1_encodedSize_1_opaque_ptr_1, 8
_TIG_iO_zmQK_1_encodedSize_1_opaque_ptr_1:
	.zero	8
	.globl	_TIG_iO_zmQK_1_encodedSize_1_opaque_list_2
	.align 8
	.type	_TIG_iO_zmQK_1_encodedSize_1_opaque_list_2, @object
	.size	_TIG_iO_zmQK_1_encodedSize_1_opaque_list_2, 8
_TIG_iO_zmQK_1_encodedSize_1_opaque_list_2:
	.zero	8
	.globl	_TIG_iO_zmQK_1_part2_1_opaque_list_1
	.align 8
	.type	_TIG_iO_zmQK_1_part2_1_opaque_list_1, @object
	.size	_TIG_iO_zmQK_1_part2_1_opaque_list_1, 8
_TIG_iO_zmQK_1_part2_1_opaque_list_1:
	.zero	8
	.globl	_TIG_IZ_zmQK_argv
	.align 8
	.type	_TIG_IZ_zmQK_argv, @object
	.size	_TIG_IZ_zmQK_argv, 8
_TIG_IZ_zmQK_argv:
	.zero	8
	.globl	_TIG_iO_zmQK_1_part2_1_opaque_list_2
	.align 8
	.type	_TIG_iO_zmQK_1_part2_1_opaque_list_2, @object
	.size	_TIG_iO_zmQK_1_part2_1_opaque_list_2, 8
_TIG_iO_zmQK_1_part2_1_opaque_list_2:
	.zero	8
	.globl	_TIG_iO_zmQK_1___bswap_64_1_opaque_ptr_2
	.align 8
	.type	_TIG_iO_zmQK_1___bswap_64_1_opaque_ptr_2, @object
	.size	_TIG_iO_zmQK_1___bswap_64_1_opaque_ptr_2, 8
_TIG_iO_zmQK_1___bswap_64_1_opaque_ptr_2:
	.zero	8
	.globl	_TIG_iO_zmQK_1___bswap_64_1_opaque_list_1
	.align 8
	.type	_TIG_iO_zmQK_1___bswap_64_1_opaque_list_1, @object
	.size	_TIG_iO_zmQK_1___bswap_64_1_opaque_list_1, 8
_TIG_iO_zmQK_1___bswap_64_1_opaque_list_1:
	.zero	8
	.globl	_TIG_iO_zmQK_1_main_1_opaque_list_2
	.align 8
	.type	_TIG_iO_zmQK_1_main_1_opaque_list_2, @object
	.size	_TIG_iO_zmQK_1_main_1_opaque_list_2, 8
_TIG_iO_zmQK_1_main_1_opaque_list_2:
	.zero	8
	.globl	_TIG_iO_zmQK_1___uint16_identity_1_opaque_ptr_2
	.align 8
	.type	_TIG_iO_zmQK_1___uint16_identity_1_opaque_ptr_2, @object
	.size	_TIG_iO_zmQK_1___uint16_identity_1_opaque_ptr_2, 8
_TIG_iO_zmQK_1___uint16_identity_1_opaque_ptr_2:
	.zero	8
	.globl	_TIG_iO_zmQK_1___uint32_identity_1_opaque_list_1
	.align 8
	.type	_TIG_iO_zmQK_1___uint32_identity_1_opaque_list_1, @object
	.size	_TIG_iO_zmQK_1___uint32_identity_1_opaque_list_1, 8
_TIG_iO_zmQK_1___uint32_identity_1_opaque_list_1:
	.zero	8
	.globl	_TIG_iO_zmQK_1_encodedSize_1_opaque_list_1
	.align 8
	.type	_TIG_iO_zmQK_1_encodedSize_1_opaque_list_1, @object
	.size	_TIG_iO_zmQK_1_encodedSize_1_opaque_list_1, 8
_TIG_iO_zmQK_1_encodedSize_1_opaque_list_1:
	.zero	8
	.globl	_TIG_iO_zmQK_1_part1_1_opaque_list_2
	.align 8
	.type	_TIG_iO_zmQK_1_part1_1_opaque_list_2, @object
	.size	_TIG_iO_zmQK_1_part1_1_opaque_list_2, 8
_TIG_iO_zmQK_1_part1_1_opaque_list_2:
	.zero	8
	.globl	_TIG_iO_zmQK_1___uint64_identity_1_opaque_ptr_1
	.align 8
	.type	_TIG_iO_zmQK_1___uint64_identity_1_opaque_ptr_1, @object
	.size	_TIG_iO_zmQK_1___uint64_identity_1_opaque_ptr_1, 8
_TIG_iO_zmQK_1___uint64_identity_1_opaque_ptr_1:
	.zero	8
	.globl	_TIG_iO_zmQK_1___bswap_32_1_opaque_list_2
	.align 8
	.type	_TIG_iO_zmQK_1___bswap_32_1_opaque_list_2, @object
	.size	_TIG_iO_zmQK_1___bswap_32_1_opaque_list_2, 8
_TIG_iO_zmQK_1___bswap_32_1_opaque_list_2:
	.zero	8
	.globl	_TIG_iO_zmQK_1___bswap_32_1_opaque_ptr_2
	.align 8
	.type	_TIG_iO_zmQK_1___bswap_32_1_opaque_ptr_2, @object
	.size	_TIG_iO_zmQK_1___bswap_32_1_opaque_ptr_2, 8
_TIG_iO_zmQK_1___bswap_32_1_opaque_ptr_2:
	.zero	8
	.globl	_TIG_iO_zmQK_1___bswap_64_1_opaque_list_2
	.align 8
	.type	_TIG_iO_zmQK_1___bswap_64_1_opaque_list_2, @object
	.size	_TIG_iO_zmQK_1___bswap_64_1_opaque_list_2, 8
_TIG_iO_zmQK_1___bswap_64_1_opaque_list_2:
	.zero	8
	.globl	_TIG_iO_zmQK_1_part1_1_opaque_ptr_2
	.align 8
	.type	_TIG_iO_zmQK_1_part1_1_opaque_ptr_2, @object
	.size	_TIG_iO_zmQK_1_part1_1_opaque_ptr_2, 8
_TIG_iO_zmQK_1_part1_1_opaque_ptr_2:
	.zero	8
	.globl	_TIG_iO_zmQK_1_part2_1_opaque_ptr_2
	.align 8
	.type	_TIG_iO_zmQK_1_part2_1_opaque_ptr_2, @object
	.size	_TIG_iO_zmQK_1_part2_1_opaque_ptr_2, 8
_TIG_iO_zmQK_1_part2_1_opaque_ptr_2:
	.zero	8
	.globl	_TIG_iO_zmQK_1___uint16_identity_1_opaque_list_1
	.align 8
	.type	_TIG_iO_zmQK_1___uint16_identity_1_opaque_list_1, @object
	.size	_TIG_iO_zmQK_1___uint16_identity_1_opaque_list_1, 8
_TIG_iO_zmQK_1___uint16_identity_1_opaque_list_1:
	.zero	8
	.globl	_TIG_iO_zmQK_1___uint64_identity_1_opaque_list_1
	.align 8
	.type	_TIG_iO_zmQK_1___uint64_identity_1_opaque_list_1, @object
	.size	_TIG_iO_zmQK_1___uint64_identity_1_opaque_list_1, 8
_TIG_iO_zmQK_1___uint64_identity_1_opaque_list_1:
	.zero	8
	.globl	_TIG_iO_zmQK_1_memorySize_1_opaque_list_2
	.align 8
	.type	_TIG_iO_zmQK_1_memorySize_1_opaque_list_2, @object
	.size	_TIG_iO_zmQK_1_memorySize_1_opaque_list_2, 8
_TIG_iO_zmQK_1_memorySize_1_opaque_list_2:
	.zero	8
	.globl	_TIG_iO_zmQK_1___uint64_identity_1_opaque_list_2
	.align 8
	.type	_TIG_iO_zmQK_1___uint64_identity_1_opaque_list_2, @object
	.size	_TIG_iO_zmQK_1___uint64_identity_1_opaque_list_2, 8
_TIG_iO_zmQK_1___uint64_identity_1_opaque_list_2:
	.zero	8
	.globl	_TIG_iO_zmQK_1___uint16_identity_1_opaque_ptr_1
	.align 8
	.type	_TIG_iO_zmQK_1___uint16_identity_1_opaque_ptr_1, @object
	.size	_TIG_iO_zmQK_1___uint16_identity_1_opaque_ptr_1, 8
_TIG_iO_zmQK_1___uint16_identity_1_opaque_ptr_1:
	.zero	8
	.globl	_TIG_iO_zmQK_1___uint64_identity_1_opaque_ptr_2
	.align 8
	.type	_TIG_iO_zmQK_1___uint64_identity_1_opaque_ptr_2, @object
	.size	_TIG_iO_zmQK_1___uint64_identity_1_opaque_ptr_2, 8
_TIG_iO_zmQK_1___uint64_identity_1_opaque_ptr_2:
	.zero	8
	.globl	_TIG_iO_zmQK_1___bswap_16_1_opaque_ptr_1
	.align 8
	.type	_TIG_iO_zmQK_1___bswap_16_1_opaque_ptr_1, @object
	.size	_TIG_iO_zmQK_1___bswap_16_1_opaque_ptr_1, 8
_TIG_iO_zmQK_1___bswap_16_1_opaque_ptr_1:
	.zero	8
	.globl	_TIG_iO_zmQK_1_main_1_opaque_ptr_1
	.align 8
	.type	_TIG_iO_zmQK_1_main_1_opaque_ptr_1, @object
	.size	_TIG_iO_zmQK_1_main_1_opaque_ptr_1, 8
_TIG_iO_zmQK_1_main_1_opaque_ptr_1:
	.zero	8
	.globl	_TIG_iO_zmQK_1_part1_1_opaque_list_1
	.align 8
	.type	_TIG_iO_zmQK_1_part1_1_opaque_list_1, @object
	.size	_TIG_iO_zmQK_1_part1_1_opaque_list_1, 8
_TIG_iO_zmQK_1_part1_1_opaque_list_1:
	.zero	8
	.globl	_TIG_iO_zmQK_1___bswap_32_1_opaque_list_1
	.align 8
	.type	_TIG_iO_zmQK_1___bswap_32_1_opaque_list_1, @object
	.size	_TIG_iO_zmQK_1___bswap_32_1_opaque_list_1, 8
_TIG_iO_zmQK_1___bswap_32_1_opaque_list_1:
	.zero	8
	.globl	_TIG_iO_zmQK_1___uint32_identity_1_opaque_ptr_1
	.align 8
	.type	_TIG_iO_zmQK_1___uint32_identity_1_opaque_ptr_1, @object
	.size	_TIG_iO_zmQK_1___uint32_identity_1_opaque_ptr_1, 8
_TIG_iO_zmQK_1___uint32_identity_1_opaque_ptr_1:
	.zero	8
	.globl	_TIG_iO_zmQK_1_encodedSize_1_opaque_ptr_2
	.align 8
	.type	_TIG_iO_zmQK_1_encodedSize_1_opaque_ptr_2, @object
	.size	_TIG_iO_zmQK_1_encodedSize_1_opaque_ptr_2, 8
_TIG_iO_zmQK_1_encodedSize_1_opaque_ptr_2:
	.zero	8
	.globl	_TIG_iO_zmQK_1___uint32_identity_1_opaque_ptr_2
	.align 8
	.type	_TIG_iO_zmQK_1___uint32_identity_1_opaque_ptr_2, @object
	.size	_TIG_iO_zmQK_1___uint32_identity_1_opaque_ptr_2, 8
_TIG_iO_zmQK_1___uint32_identity_1_opaque_ptr_2:
	.zero	8
	.globl	_TIG_iO_zmQK_1___uint16_identity_1_opaque_list_2
	.align 8
	.type	_TIG_iO_zmQK_1___uint16_identity_1_opaque_list_2, @object
	.size	_TIG_iO_zmQK_1___uint16_identity_1_opaque_list_2, 8
_TIG_iO_zmQK_1___uint16_identity_1_opaque_list_2:
	.zero	8
	.globl	_TIG_iO_zmQK_1___bswap_64_1_opaque_ptr_1
	.align 8
	.type	_TIG_iO_zmQK_1___bswap_64_1_opaque_ptr_1, @object
	.size	_TIG_iO_zmQK_1___bswap_64_1_opaque_ptr_1, 8
_TIG_iO_zmQK_1___bswap_64_1_opaque_ptr_1:
	.zero	8
	.globl	_TIG_iO_zmQK_1_memorySize_1_opaque_list_1
	.align 8
	.type	_TIG_iO_zmQK_1_memorySize_1_opaque_list_1, @object
	.size	_TIG_iO_zmQK_1_memorySize_1_opaque_list_1, 8
_TIG_iO_zmQK_1_memorySize_1_opaque_list_1:
	.zero	8
	.globl	_TIG_iO_zmQK_1_main_1_opaque_ptr_2
	.align 8
	.type	_TIG_iO_zmQK_1_main_1_opaque_ptr_2, @object
	.size	_TIG_iO_zmQK_1_main_1_opaque_ptr_2, 8
_TIG_iO_zmQK_1_main_1_opaque_ptr_2:
	.zero	8
	.globl	_TIG_iO_zmQK_1___bswap_16_1_opaque_ptr_2
	.align 8
	.type	_TIG_iO_zmQK_1___bswap_16_1_opaque_ptr_2, @object
	.size	_TIG_iO_zmQK_1___bswap_16_1_opaque_ptr_2, 8
_TIG_iO_zmQK_1___bswap_16_1_opaque_ptr_2:
	.zero	8
	.globl	_TIG_iO_zmQK_1_part2_1_opaque_ptr_1
	.align 8
	.type	_TIG_iO_zmQK_1_part2_1_opaque_ptr_1, @object
	.size	_TIG_iO_zmQK_1_part2_1_opaque_ptr_1, 8
_TIG_iO_zmQK_1_part2_1_opaque_ptr_1:
	.zero	8
	.text
	.globl	encodedSize
	.type	encodedSize, @function
encodedSize:
.LFB1:
	.cfi_startproc
	endbr64
	pushq	%rbp
	.cfi_def_cfa_offset 16
	.cfi_offset 6, -16
	movq	%rsp, %rbp
	.cfi_def_cfa_register 6
	subq	$96, %rsp
	movq	%rdi, -88(%rbp)
#APP
# 72 "/usr/include/x86_64-linux-gnu/bits/uintn-identity.h" 1
	##_ANNOTATION_INITIALREGION_-TIG-iO-zmQK-1-encodedSize--14
# 0 "" 2
# 76 "/usr/include/x86_64-linux-gnu/bits/uintn-identity.h" 1
	##_ANNOTATION_ATOMICREGION_-TIG-iO-zmQK-1-encodedSize--13
# 0 "" 2
#NO_APP
	movl	$24, %edi
	call	malloc@PLT
	movq	%rax, -48(%rbp)
	movq	-48(%rbp), %rax
	movq	-48(%rbp), %rdx
	movq	%rdx, (%rax)
	movq	-48(%rbp), %rax
	movq	-48(%rbp), %rdx
	movq	%rdx, 8(%rax)
	movq	-48(%rbp), %rax
	movq	%rax, _TIG_iO_zmQK_1_encodedSize_1_opaque_list_1(%rip)
	call	rand@PLT
	movl	%eax, -72(%rbp)
	movl	$24, %edi
	call	malloc@PLT
	movq	%rax, -40(%rbp)
	movq	-40(%rbp), %rax
	movl	$0, 16(%rax)
	movq	_TIG_iO_zmQK_1_encodedSize_1_opaque_list_1(%rip), %rax
	movq	(%rax), %rdx
	movq	-40(%rbp), %rax
	movq	%rdx, (%rax)
	movq	_TIG_iO_zmQK_1_encodedSize_1_opaque_list_1(%rip), %rdx
	movq	-40(%rbp), %rax
	movq	%rdx, 8(%rax)
	movq	_TIG_iO_zmQK_1_encodedSize_1_opaque_list_1(%rip), %rax
	movq	(%rax), %rax
	movq	-40(%rbp), %rdx
	movq	%rdx, 8(%rax)
	movq	_TIG_iO_zmQK_1_encodedSize_1_opaque_list_1(%rip), %rax
	movq	-40(%rbp), %rdx
	movq	%rdx, (%rax)
	call	rand@PLT
	movl	%eax, -68(%rbp)
	movl	$24, %edi
	call	malloc@PLT
	movq	%rax, -32(%rbp)
	movq	-32(%rbp), %rax
	movl	-68(%rbp), %edx
	movl	%edx, 16(%rax)
	movq	_TIG_iO_zmQK_1_encodedSize_1_opaque_list_1(%rip), %rax
	movq	(%rax), %rdx
	movq	-32(%rbp), %rax
	movq	%rdx, (%rax)
	movq	_TIG_iO_zmQK_1_encodedSize_1_opaque_list_1(%rip), %rdx
	movq	-32(%rbp), %rax
	movq	%rdx, 8(%rax)
	movq	_TIG_iO_zmQK_1_encodedSize_1_opaque_list_1(%rip), %rax
	movq	(%rax), %rax
	movq	-32(%rbp), %rdx
	movq	%rdx, 8(%rax)
	movq	_TIG_iO_zmQK_1_encodedSize_1_opaque_list_1(%rip), %rax
	movq	-32(%rbp), %rdx
	movq	%rdx, (%rax)
	call	rand@PLT
	movl	%eax, -64(%rbp)
	movl	$24, %edi
	call	malloc@PLT
	movq	%rax, -24(%rbp)
	movl	-64(%rbp), %eax
	leal	(%rax,%rax), %edx
	movq	-24(%rbp), %rax
	movl	%edx, 16(%rax)
	movq	_TIG_iO_zmQK_1_encodedSize_1_opaque_list_1(%rip), %rax
	movq	(%rax), %rdx
	movq	-24(%rbp), %rax
	movq	%rdx, (%rax)
	movq	_TIG_iO_zmQK_1_encodedSize_1_opaque_list_1(%rip), %rdx
	movq	-24(%rbp), %rax
	movq	%rdx, 8(%rax)
	movq	_TIG_iO_zmQK_1_encodedSize_1_opaque_list_1(%rip), %rax
	movq	(%rax), %rax
	movq	-24(%rbp), %rdx
	movq	%rdx, 8(%rax)
	movq	_TIG_iO_zmQK_1_encodedSize_1_opaque_list_1(%rip), %rax
	movq	-24(%rbp), %rdx
	movq	%rdx, (%rax)
	call	rand@PLT
	movl	%eax, -60(%rbp)
	movl	$24, %edi
	call	malloc@PLT
	movq	%rax, -16(%rbp)
	movl	-60(%rbp), %edx
	movl	%edx, %eax
	addl	%eax, %eax
	addl	%eax, %edx
	movq	-16(%rbp), %rax
	movl	%edx, 16(%rax)
	movq	_TIG_iO_zmQK_1_encodedSize_1_opaque_list_1(%rip), %rax
	movq	(%rax), %rdx
	movq	-16(%rbp), %rax
	movq	%rdx, (%rax)
	movq	_TIG_iO_zmQK_1_encodedSize_1_opaque_list_1(%rip), %rdx
	movq	-16(%rbp), %rax
	movq	%rdx, 8(%rax)
	movq	_TIG_iO_zmQK_1_encodedSize_1_opaque_list_1(%rip), %rax
	movq	(%rax), %rax
	movq	-16(%rbp), %rdx
	movq	%rdx, 8(%rax)
	movq	_TIG_iO_zmQK_1_encodedSize_1_opaque_list_1(%rip), %rax
	movq	-16(%rbp), %rdx
	movq	%rdx, (%rax)
	movq	_TIG_iO_zmQK_1_encodedSize_1_opaque_list_1(%rip), %rax
	movq	(%rax), %rax
	movq	%rax, _TIG_iO_zmQK_1_encodedSize_1_opaque_ptr_1(%rip)
	movq	_TIG_iO_zmQK_1_encodedSize_1_opaque_ptr_1(%rip), %rax
	movq	%rax, _TIG_iO_zmQK_1_encodedSize_1_opaque_ptr_2(%rip)
	movq	_TIG_iO_zmQK_1_encodedSize_1_opaque_ptr_2(%rip), %rax
	movq	(%rax), %rax
	movq	%rax, _TIG_iO_zmQK_1_encodedSize_1_opaque_ptr_2(%rip)
	nop
	nop
	movq	-88(%rbp), %rax
	movq	%rax, %rdi
	call	strlen@PLT
	movq	%rax, -8(%rbp)
	movq	-8(%rbp), %rax
	movl	%eax, -76(%rbp)
	addl	$2, -76(%rbp)
	movq	-88(%rbp), %rax
	subq	$1, %rax
	movq	%rax, -56(%rbp)
.L4:
	movq	-56(%rbp), %rax
	addq	$1, %rax
	movl	$34, %esi
	movq	%rax, %rdi
	call	strchr@PLT
	movq	%rax, -56(%rbp)
	cmpq	$0, -56(%rbp)
	je	.L12
	addl	$1, -76(%rbp)
	jmp	.L4
.L12:
	nop
	movq	_TIG_iO_zmQK_1_part2_1_opaque_ptr_1(%rip), %rdx
	movq	_TIG_iO_zmQK_1_part2_1_opaque_ptr_2(%rip), %rax
	cmpq	%rax, %rdx
	je	.L8
	movq	-88(%rbp), %rax
	subq	$1, %rax
	movq	%rax, -56(%rbp)
.L8:
	movq	-56(%rbp), %rax
	addq	$1, %rax
	movl	$92, %esi
	movq	%rax, %rdi
	call	strchr@PLT
	movq	%rax, -56(%rbp)
	cmpq	$0, -56(%rbp)
	je	.L13
	addl	$1, -76(%rbp)
	jmp	.L8
.L13:
	nop
	movl	-76(%rbp), %eax
	leave
	.cfi_def_cfa 7, 8
	ret
	.cfi_endproc
.LFE1:
	.size	encodedSize, .-encodedSize
	.section	.rodata
	.align 8
.LC0:
	.string	"Unexpected escape: %c (for %s)\n"
	.text
	.globl	memorySize
	.type	memorySize, @function
memorySize:
.LFB6:
	.cfi_startproc
	endbr64
	pushq	%rbp
	.cfi_def_cfa_offset 16
	.cfi_offset 6, -16
	movq	%rsp, %rbp
	.cfi_def_cfa_register 6
	subq	$64, %rsp
	movq	%rdi, -56(%rbp)
#APP
# 55 "/usr/include/x86_64-linux-gnu/bits/byteswap.h" 1
	##_ANNOTATION_INITIALREGION_-TIG-iO-zmQK-1-memorySize--18
# 0 "" 2
# 59 "/usr/include/x86_64-linux-gnu/bits/byteswap.h" 1
	##_ANNOTATION_ATOMICREGION_-TIG-iO-zmQK-1-memorySize--17
# 0 "" 2
#NO_APP
	movl	$24, %edi
	call	malloc@PLT
	movq	%rax, -32(%rbp)
	movq	-32(%rbp), %rax
	movq	-32(%rbp), %rdx
	movq	%rdx, 8(%rax)
	movq	-32(%rbp), %rax
	movq	-32(%rbp), %rdx
	movq	%rdx, (%rax)
	movq	-32(%rbp), %rax
	movq	%rax, _TIG_iO_zmQK_1_memorySize_1_opaque_list_1(%rip)
	call	rand@PLT
	movl	%eax, -40(%rbp)
	movl	$24, %edi
	call	malloc@PLT
	movq	%rax, -24(%rbp)
	movq	-24(%rbp), %rax
	movl	$0, 16(%rax)
	movq	_TIG_iO_zmQK_1_memorySize_1_opaque_list_1(%rip), %rax
	movq	8(%rax), %rdx
	movq	-24(%rbp), %rax
	movq	%rdx, 8(%rax)
	movq	_TIG_iO_zmQK_1_memorySize_1_opaque_list_1(%rip), %rdx
	movq	-24(%rbp), %rax
	movq	%rdx, (%rax)
	movq	_TIG_iO_zmQK_1_memorySize_1_opaque_list_1(%rip), %rax
	movq	8(%rax), %rax
	movq	-24(%rbp), %rdx
	movq	%rdx, (%rax)
	movq	_TIG_iO_zmQK_1_memorySize_1_opaque_list_1(%rip), %rax
	movq	-24(%rbp), %rdx
	movq	%rdx, 8(%rax)
	call	rand@PLT
	movl	%eax, -36(%rbp)
	movl	$24, %edi
	call	malloc@PLT
	movq	%rax, -16(%rbp)
	movq	-16(%rbp), %rax
	movl	-36(%rbp), %edx
	movl	%edx, 16(%rax)
	movq	_TIG_iO_zmQK_1_memorySize_1_opaque_list_1(%rip), %rax
	movq	8(%rax), %rdx
	movq	-16(%rbp), %rax
	movq	%rdx, 8(%rax)
	movq	_TIG_iO_zmQK_1_memorySize_1_opaque_list_1(%rip), %rdx
	movq	-16(%rbp), %rax
	movq	%rdx, (%rax)
	movq	_TIG_iO_zmQK_1_memorySize_1_opaque_list_1(%rip), %rax
	movq	8(%rax), %rax
	movq	-16(%rbp), %rdx
	movq	%rdx, (%rax)
	movq	_TIG_iO_zmQK_1_memorySize_1_opaque_list_1(%rip), %rax
	movq	-16(%rbp), %rdx
	movq	%rdx, 8(%rax)
	movq	_TIG_iO_zmQK_1_memorySize_1_opaque_list_1(%rip), %rax
	movq	8(%rax), %rax
	movq	%rax, _TIG_iO_zmQK_1_memorySize_1_opaque_ptr_1(%rip)
	movq	_TIG_iO_zmQK_1_memorySize_1_opaque_ptr_1(%rip), %rax
	movq	%rax, _TIG_iO_zmQK_1_memorySize_1_opaque_ptr_2(%rip)
	movq	_TIG_iO_zmQK_1_memorySize_1_opaque_ptr_2(%rip), %rax
	movq	8(%rax), %rax
	movq	%rax, _TIG_iO_zmQK_1_memorySize_1_opaque_ptr_2(%rip)
	nop
	nop
	movq	-56(%rbp), %rax
	movq	%rax, %rdi
	call	strlen@PLT
	movq	%rax, -8(%rbp)
	movq	-8(%rbp), %rax
	movl	%eax, -44(%rbp)
	subl	$2, -44(%rbp)
	subq	$2, -56(%rbp)
	movq	_TIG_iO_zmQK_1_part2_1_opaque_ptr_1(%rip), %rdx
	movq	_TIG_iO_zmQK_1_part2_1_opaque_ptr_2(%rip), %rax
	cmpq	%rax, %rdx
	jne	.L22
	movl	$0, %edi
	call	part1
	movl	%eax, -36(%rbp)
.L22:
	movq	-56(%rbp), %rax
	addq	$2, %rax
	movl	$92, %esi
	movq	%rax, %rdi
	call	strchr@PLT
	movq	%rax, -56(%rbp)
	cmpq	$0, -56(%rbp)
	je	.L25
	movq	-56(%rbp), %rax
	addq	$1, %rax
	movzbl	(%rax), %eax
	movsbl	%al, %eax
	cmpl	$120, %eax
	je	.L18
	cmpl	$120, %eax
	jg	.L19
	cmpl	$34, %eax
	je	.L20
	cmpl	$92, %eax
	jne	.L19
	subl	$1, -44(%rbp)
	jmp	.L21
.L20:
	subl	$1, -44(%rbp)
	jmp	.L21
.L18:
	subl	$3, -44(%rbp)
	jmp	.L21
.L19:
	movq	-56(%rbp), %rax
	addq	$1, %rax
	movzbl	(%rax), %eax
	movsbl	%al, %edx
	movq	stderr(%rip), %rax
	movq	-56(%rbp), %rcx
	leaq	.LC0(%rip), %rsi
	movq	%rax, %rdi
	movl	$0, %eax
	call	fprintf@PLT
	movl	$1, %edi
	call	exit@PLT
.L21:
	jmp	.L22
.L25:
	nop
	movl	-44(%rbp), %eax
	leave
	.cfi_def_cfa 7, 8
	ret
	.cfi_endproc
.LFE6:
	.size	memorySize, .-memorySize
	.globl	part1
	.type	part1, @function
part1:
.LFB7:
	.cfi_startproc
	endbr64
	pushq	%rbp
	.cfi_def_cfa_offset 16
	.cfi_offset 6, -16
	movq	%rsp, %rbp
	.cfi_def_cfa_register 6
	subq	$112, %rsp
	movq	%rdi, -104(%rbp)
	movq	%fs:40, %rax
	movq	%rax, -8(%rbp)
	xorl	%eax, %eax
#APP
# 99 "timber-they_AdventOfCode15_8.c" 1
	##_ANNOTATION_INITIALREGION_-TIG-iO-zmQK-1-part1--20
# 0 "" 2
# 103 "timber-they_AdventOfCode15_8.c" 1
	##_ANNOTATION_ATOMICREGION_-TIG-iO-zmQK-1-part1--19
# 0 "" 2
#NO_APP
	movl	$24, %edi
	call	malloc@PLT
	movq	%rax, -48(%rbp)
	movq	-48(%rbp), %rax
	movq	-48(%rbp), %rdx
	movq	%rdx, 8(%rax)
	movq	-48(%rbp), %rax
	movq	-48(%rbp), %rdx
	movq	%rdx, 16(%rax)
	movq	-48(%rbp), %rax
	movq	%rax, _TIG_iO_zmQK_1_part1_1_opaque_list_1(%rip)
	call	rand@PLT
	movl	%eax, -84(%rbp)
	movl	$24, %edi
	call	malloc@PLT
	movq	%rax, -40(%rbp)
	movq	-40(%rbp), %rax
	movl	$0, (%rax)
	movq	_TIG_iO_zmQK_1_part1_1_opaque_list_1(%rip), %rax
	movq	8(%rax), %rdx
	movq	-40(%rbp), %rax
	movq	%rdx, 8(%rax)
	movq	_TIG_iO_zmQK_1_part1_1_opaque_list_1(%rip), %rdx
	movq	-40(%rbp), %rax
	movq	%rdx, 16(%rax)
	movq	_TIG_iO_zmQK_1_part1_1_opaque_list_1(%rip), %rax
	movq	8(%rax), %rax
	movq	-40(%rbp), %rdx
	movq	%rdx, 16(%rax)
	movq	_TIG_iO_zmQK_1_part1_1_opaque_list_1(%rip), %rax
	movq	-40(%rbp), %rdx
	movq	%rdx, 8(%rax)
	call	rand@PLT
	movl	%eax, -80(%rbp)
	movl	$24, %edi
	call	malloc@PLT
	movq	%rax, -32(%rbp)
	movq	-32(%rbp), %rax
	movl	-80(%rbp), %edx
	movl	%edx, (%rax)
	movq	_TIG_iO_zmQK_1_part1_1_opaque_list_1(%rip), %rax
	movq	8(%rax), %rdx
	movq	-32(%rbp), %rax
	movq	%rdx, 8(%rax)
	movq	_TIG_iO_zmQK_1_part1_1_opaque_list_1(%rip), %rdx
	movq	-32(%rbp), %rax
	movq	%rdx, 16(%rax)
	movq	_TIG_iO_zmQK_1_part1_1_opaque_list_1(%rip), %rax
	movq	8(%rax), %rax
	movq	-32(%rbp), %rdx
	movq	%rdx, 16(%rax)
	movq	_TIG_iO_zmQK_1_part1_1_opaque_list_1(%rip), %rax
	movq	-32(%rbp), %rdx
	movq	%rdx, 8(%rax)
	movq	_TIG_iO_zmQK_1_part1_1_opaque_list_1(%rip), %rax
	movq	8(%rax), %rax
	movq	%rax, _TIG_iO_zmQK_1_part1_1_opaque_ptr_1(%rip)
	movq	_TIG_iO_zmQK_1_part1_1_opaque_ptr_1(%rip), %rax
	movq	%rax, _TIG_iO_zmQK_1_part1_1_opaque_ptr_2(%rip)
	nop
	nop
	movq	$0, -64(%rbp)
	movq	$0, -56(%rbp)
	movl	$0, -88(%rbp)
.L30:
	movq	-104(%rbp), %rdx
	leaq	-64(%rbp), %rcx
	leaq	-56(%rbp), %rax
	movq	%rcx, %rsi
	movq	%rax, %rdi
	call	getline@PLT
	movq	%rax, -24(%rbp)
	cmpq	$0, -24(%rbp)
	jle	.L35
	movq	-56(%rbp), %rax
	movzbl	(%rax), %eax
	cmpb	$10, %al
	je	.L36
	movq	-56(%rbp), %rax
	movq	%rax, %rdi
	call	strlen@PLT
	movq	%rax, -16(%rbp)
	movq	-16(%rbp), %rax
	movl	%eax, -76(%rbp)
	movq	-56(%rbp), %rax
	movq	%rax, %rdi
	call	memorySize
	movl	%eax, -72(%rbp)
	movl	-72(%rbp), %eax
	movl	%eax, -68(%rbp)
	movl	-76(%rbp), %eax
	subl	-68(%rbp), %eax
	addl	%eax, -88(%rbp)
	jmp	.L30
.L35:
	nop
	jmp	.L29
.L36:
	nop
.L29:
	movq	-56(%rbp), %rax
	movq	%rax, %rdi
	call	free@PLT
	movq	_TIG_iO_zmQK_1_part2_1_opaque_ptr_1(%rip), %rdx
	movq	_TIG_iO_zmQK_1_part2_1_opaque_ptr_2(%rip), %rax
	cmpq	%rax, %rdx
	jne	.L31
	movl	-80(%rbp), %eax
	jmp	.L33
.L31:
	movl	-88(%rbp), %eax
.L33:
	movq	-8(%rbp), %rdx
	subq	%fs:40, %rdx
	je	.L34
	call	__stack_chk_fail@PLT
.L34:
	leave
	.cfi_def_cfa 7, 8
	ret
	.cfi_endproc
.LFE7:
	.size	part1, .-part1
	.section	.rodata
.LC1:
	.string	"r"
.LC2:
	.string	"in8"
.LC3:
	.string	"Part1: %d\n"
.LC4:
	.string	"Part2: %d\n"
	.text
	.globl	main
	.type	main, @function
main:
.LFB9:
	.cfi_startproc
	endbr64
	pushq	%rbp
	.cfi_def_cfa_offset 16
	.cfi_offset 6, -16
	movq	%rsp, %rbp
	.cfi_def_cfa_register 6
	subq	$96, %rsp
	movl	%edi, -68(%rbp)
	movq	%rsi, -80(%rbp)
	movq	%rdx, -88(%rbp)
	movq	$0, _TIG_IZ_zmQK_envp(%rip)
	nop
.L38:
	movq	$0, _TIG_IZ_zmQK_argv(%rip)
	nop
.L39:
	movl	$0, _TIG_IZ_zmQK_argc(%rip)
	nop
	nop
.L40:
.L41:
#APP
# 120 "/usr/include/x86_64-linux-gnu/bits/byteswap.h" 1
	##_ANNOTATION_INITIALREGION_-TIG-IZ-zmQK--0
# 0 "" 2
#NO_APP
	movl	-68(%rbp), %eax
	movl	%eax, _TIG_IZ_zmQK_argc(%rip)
	movq	-80(%rbp), %rax
	movq	%rax, _TIG_IZ_zmQK_argv(%rip)
	movq	-88(%rbp), %rax
	movq	%rax, _TIG_IZ_zmQK_envp(%rip)
#APP
# 127 "/usr/include/x86_64-linux-gnu/bits/byteswap.h" 1
	##_ANNOTATION_ATOMICREGION_-TIG-iO-zmQK-1-main--15
# 0 "" 2
#NO_APP
	movl	$24, %edi
	call	malloc@PLT
	movq	%rax, -40(%rbp)
	movq	-40(%rbp), %rax
	movq	-40(%rbp), %rdx
	movq	%rdx, 16(%rax)
	movq	-40(%rbp), %rax
	movq	-40(%rbp), %rdx
	movq	%rdx, 8(%rax)
	movq	-40(%rbp), %rax
	movq	%rax, _TIG_iO_zmQK_1_main_1_opaque_list_1(%rip)
	call	rand@PLT
	movl	%eax, -56(%rbp)
	movl	$24, %edi
	call	malloc@PLT
	movq	%rax, -32(%rbp)
	movq	-32(%rbp), %rax
	movl	$0, (%rax)
	movq	_TIG_iO_zmQK_1_main_1_opaque_list_1(%rip), %rax
	movq	16(%rax), %rdx
	movq	-32(%rbp), %rax
	movq	%rdx, 16(%rax)
	movq	_TIG_iO_zmQK_1_main_1_opaque_list_1(%rip), %rdx
	movq	-32(%rbp), %rax
	movq	%rdx, 8(%rax)
	movq	_TIG_iO_zmQK_1_main_1_opaque_list_1(%rip), %rax
	movq	16(%rax), %rax
	movq	-32(%rbp), %rdx
	movq	%rdx, 8(%rax)
	movq	_TIG_iO_zmQK_1_main_1_opaque_list_1(%rip), %rax
	movq	-32(%rbp), %rdx
	movq	%rdx, 16(%rax)
	call	rand@PLT
	movl	%eax, -52(%rbp)
	movl	$24, %edi
	call	malloc@PLT
	movq	%rax, -24(%rbp)
	movq	-24(%rbp), %rax
	movl	-52(%rbp), %edx
	movl	%edx, (%rax)
	movq	_TIG_iO_zmQK_1_main_1_opaque_list_1(%rip), %rax
	movq	16(%rax), %rdx
	movq	-24(%rbp), %rax
	movq	%rdx, 16(%rax)
	movq	_TIG_iO_zmQK_1_main_1_opaque_list_1(%rip), %rdx
	movq	-24(%rbp), %rax
	movq	%rdx, 8(%rax)
	movq	_TIG_iO_zmQK_1_main_1_opaque_list_1(%rip), %rax
	movq	16(%rax), %rax
	movq	-24(%rbp), %rdx
	movq	%rdx, 8(%rax)
	movq	_TIG_iO_zmQK_1_main_1_opaque_list_1(%rip), %rax
	movq	-24(%rbp), %rdx
	movq	%rdx, 16(%rax)
	movq	_TIG_iO_zmQK_1_main_1_opaque_list_1(%rip), %rax
	movq	16(%rax), %rax
	movq	%rax, _TIG_iO_zmQK_1_main_1_opaque_ptr_1(%rip)
	movq	_TIG_iO_zmQK_1_main_1_opaque_ptr_1(%rip), %rax
	movq	%rax, _TIG_iO_zmQK_1_main_1_opaque_ptr_2(%rip)
	nop
	nop
	leaq	.LC1(%rip), %rax
	movq	%rax, %rsi
	leaq	.LC2(%rip), %rax
	movq	%rax, %rdi
	call	fopen@PLT
	movq	%rax, -16(%rbp)
	movq	-16(%rbp), %rax
	movq	%rax, -8(%rbp)
	movq	-8(%rbp), %rax
	movq	%rax, %rdi
	call	part1
	movl	%eax, -48(%rbp)
	movl	-48(%rbp), %eax
	movl	%eax, %esi
	leaq	.LC3(%rip), %rax
	movq	%rax, %rdi
	movl	$0, %eax
	call	printf@PLT
	movq	-8(%rbp), %rax
	movq	%rax, %rdi
	call	rewind@PLT
	movq	-8(%rbp), %rax
	movq	%rax, %rdi
	call	part2
	movl	%eax, -44(%rbp)
	movl	-44(%rbp), %eax
	movl	%eax, %esi
	leaq	.LC4(%rip), %rax
	movq	%rax, %rdi
	movl	$0, %eax
	call	printf@PLT
	movq	-8(%rbp), %rax
	movq	%rax, %rdi
	call	fclose@PLT
	movq	_TIG_iO_zmQK_1_part2_1_opaque_ptr_1(%rip), %rdx
	movq	_TIG_iO_zmQK_1_part2_1_opaque_ptr_2(%rip), %rax
	cmpq	%rax, %rdx
	jne	.L42
	movq	-88(%rbp), %rdx
	movq	-88(%rbp), %rcx
	movl	-48(%rbp), %eax
	movq	%rcx, %rsi
	movl	%eax, %edi
	call	main
	movl	%eax, -68(%rbp)
.L42:
	movl	$0, %eax
	leave
	.cfi_def_cfa 7, 8
	ret
	.cfi_endproc
.LFE9:
	.size	main, .-main
	.globl	part2
	.type	part2, @function
part2:
.LFB10:
	.cfi_startproc
	endbr64
	pushq	%rbp
	.cfi_def_cfa_offset 16
	.cfi_offset 6, -16
	movq	%rsp, %rbp
	.cfi_def_cfa_register 6
	addq	$-128, %rsp
	movq	%rdi, -120(%rbp)
	movq	%fs:40, %rax
	movq	%rax, -8(%rbp)
	xorl	%eax, %eax
#APP
# 46 "timber-they_AdventOfCode15_8.c" 1
	##_ANNOTATION_INITIALREGION_-TIG-iO-zmQK-1-part2--22
# 0 "" 2
# 50 "timber-they_AdventOfCode15_8.c" 1
	##_ANNOTATION_ATOMICREGION_-TIG-iO-zmQK-1-part2--21
# 0 "" 2
#NO_APP
	movl	$24, %edi
	call	malloc@PLT
	movq	%rax, -48(%rbp)
	movq	-48(%rbp), %rax
	movq	-48(%rbp), %rdx
	movq	%rdx, (%rax)
	movq	-48(%rbp), %rax
	movq	-48(%rbp), %rdx
	movq	%rdx, 16(%rax)
	movq	-48(%rbp), %rax
	movq	%rax, _TIG_iO_zmQK_1_part2_1_opaque_list_1(%rip)
	call	rand@PLT
	movl	%eax, -96(%rbp)
	movl	$24, %edi
	call	malloc@PLT
	movq	%rax, -40(%rbp)
	movq	-40(%rbp), %rax
	movl	$0, 8(%rax)
	movq	_TIG_iO_zmQK_1_part2_1_opaque_list_1(%rip), %rax
	movq	(%rax), %rdx
	movq	-40(%rbp), %rax
	movq	%rdx, (%rax)
	movq	_TIG_iO_zmQK_1_part2_1_opaque_list_1(%rip), %rdx
	movq	-40(%rbp), %rax
	movq	%rdx, 16(%rax)
	movq	_TIG_iO_zmQK_1_part2_1_opaque_list_1(%rip), %rax
	movq	(%rax), %rax
	movq	-40(%rbp), %rdx
	movq	%rdx, 16(%rax)
	movq	_TIG_iO_zmQK_1_part2_1_opaque_list_1(%rip), %rax
	movq	-40(%rbp), %rdx
	movq	%rdx, (%rax)
	call	rand@PLT
	movl	%eax, -92(%rbp)
	movl	$24, %edi
	call	malloc@PLT
	movq	%rax, -32(%rbp)
	movq	-32(%rbp), %rax
	movl	-92(%rbp), %edx
	movl	%edx, 8(%rax)
	movq	_TIG_iO_zmQK_1_part2_1_opaque_list_1(%rip), %rax
	movq	(%rax), %rdx
	movq	-32(%rbp), %rax
	movq	%rdx, (%rax)
	movq	_TIG_iO_zmQK_1_part2_1_opaque_list_1(%rip), %rdx
	movq	-32(%rbp), %rax
	movq	%rdx, 16(%rax)
	movq	_TIG_iO_zmQK_1_part2_1_opaque_list_1(%rip), %rax
	movq	(%rax), %rax
	movq	-32(%rbp), %rdx
	movq	%rdx, 16(%rax)
	movq	_TIG_iO_zmQK_1_part2_1_opaque_list_1(%rip), %rax
	movq	-32(%rbp), %rdx
	movq	%rdx, (%rax)
	call	rand@PLT
	movl	%eax, -88(%rbp)
	movl	$24, %edi
	call	malloc@PLT
	movq	%rax, -24(%rbp)
	movl	-88(%rbp), %eax
	leal	(%rax,%rax), %edx
	movq	-24(%rbp), %rax
	movl	%edx, 8(%rax)
	movq	_TIG_iO_zmQK_1_part2_1_opaque_list_1(%rip), %rax
	movq	(%rax), %rdx
	movq	-24(%rbp), %rax
	movq	%rdx, (%rax)
	movq	_TIG_iO_zmQK_1_part2_1_opaque_list_1(%rip), %rdx
	movq	-24(%rbp), %rax
	movq	%rdx, 16(%rax)
	movq	_TIG_iO_zmQK_1_part2_1_opaque_list_1(%rip), %rax
	movq	(%rax), %rax
	movq	-24(%rbp), %rdx
	movq	%rdx, 16(%rax)
	movq	_TIG_iO_zmQK_1_part2_1_opaque_list_1(%rip), %rax
	movq	-24(%rbp), %rdx
	movq	%rdx, (%rax)
	movq	_TIG_iO_zmQK_1_part2_1_opaque_list_1(%rip), %rax
	movq	(%rax), %rax
	movq	%rax, _TIG_iO_zmQK_1_part2_1_opaque_ptr_1(%rip)
	movq	_TIG_iO_zmQK_1_part2_1_opaque_ptr_1(%rip), %rax
	movq	%rax, _TIG_iO_zmQK_1_part2_1_opaque_ptr_2(%rip)
	movq	_TIG_iO_zmQK_1_part2_1_opaque_ptr_2(%rip), %rax
	movq	(%rax), %rax
	movq	%rax, _TIG_iO_zmQK_1_part2_1_opaque_ptr_2(%rip)
	nop
	nop
	movq	$0, -72(%rbp)
	movq	$0, -64(%rbp)
	movl	$0, -100(%rbp)
.L50:
	movq	_TIG_iO_zmQK_1_part2_1_opaque_ptr_1(%rip), %rdx
	movq	_TIG_iO_zmQK_1_part2_1_opaque_ptr_2(%rip), %rax
	cmpq	%rax, %rdx
	je	.L45
	movq	-120(%rbp), %rdx
	leaq	-72(%rbp), %rcx
	leaq	-64(%rbp), %rax
	movq	%rcx, %rsi
	movq	%rax, %rdi
	call	getline@PLT
	movq	%rax, -56(%rbp)
	jmp	.L46
.L45:
#APP
# 45 "timber-they_AdventOfCode15_8.c" 1
	.byte 0xc0,0xeb,0x8,0xe8
# 0 "" 2
#NO_APP
.L46:
	cmpq	$0, -56(%rbp)
	jle	.L53
	movq	-64(%rbp), %rax
	movzbl	(%rax), %eax
	cmpb	$10, %al
	je	.L54
	movq	-64(%rbp), %rax
	movq	%rax, %rdi
	call	strlen@PLT
	movq	%rax, -16(%rbp)
	movq	-16(%rbp), %rax
	movl	%eax, -84(%rbp)
	movq	-64(%rbp), %rax
	movq	%rax, %rdi
	call	encodedSize
	movl	%eax, -80(%rbp)
	movl	-80(%rbp), %eax
	movl	%eax, -76(%rbp)
	movl	-76(%rbp), %eax
	subl	-84(%rbp), %eax
	addl	%eax, -100(%rbp)
	jmp	.L50
.L53:
	nop
	jmp	.L49
.L54:
	nop
.L49:
	movq	-64(%rbp), %rax
	movq	%rax, %rdi
	call	free@PLT
	movl	-100(%rbp), %eax
	movq	-8(%rbp), %rdx
	subq	%fs:40, %rdx
	je	.L52
	call	__stack_chk_fail@PLT
.L52:
	leave
	.cfi_def_cfa 7, 8
	ret
	.cfi_endproc
.LFE10:
	.size	part2, .-part2
	.ident	"GCC: (Ubuntu 11.4.0-1ubuntu1~22.04) 11.4.0"
	.section	.note.GNU-stack,"",@progbits
	.section	.note.gnu.property,"a"
	.align 8
	.long	1f - 0f
	.long	4f - 1f
	.long	5
0:
	.string	"GNU"
1:
	.align 8
	.long	0xc0000002
	.long	3f - 2f
2:
	.long	0x3
3:
	.align 8
4:
