	.file	"umm-csci-3412-fall-2022_c-system-calls-lab-4-ash-lab-4_main_opaque.c"
	.text
	.globl	_TIG_IZ_QgxM_argv
	.bss
	.align 8
	.type	_TIG_IZ_QgxM_argv, @object
	.size	_TIG_IZ_QgxM_argv, 8
_TIG_IZ_QgxM_argv:
	.zero	8
	.globl	_TIG_iO_QgxM_1___bswap_16_1_opaque_list_2
	.align 8
	.type	_TIG_iO_QgxM_1___bswap_16_1_opaque_list_2, @object
	.size	_TIG_iO_QgxM_1___bswap_16_1_opaque_list_2, 8
_TIG_iO_QgxM_1___bswap_16_1_opaque_list_2:
	.zero	8
	.globl	_TIG_iO_QgxM_1___bswap_32_1_opaque_list_1
	.align 8
	.type	_TIG_iO_QgxM_1___bswap_32_1_opaque_list_1, @object
	.size	_TIG_iO_QgxM_1___bswap_32_1_opaque_list_1, 8
_TIG_iO_QgxM_1___bswap_32_1_opaque_list_1:
	.zero	8
	.globl	_TIG_iO_QgxM_1___bswap_32_1_opaque_ptr_1
	.align 8
	.type	_TIG_iO_QgxM_1___bswap_32_1_opaque_ptr_1, @object
	.size	_TIG_iO_QgxM_1___bswap_32_1_opaque_ptr_1, 8
_TIG_iO_QgxM_1___bswap_32_1_opaque_ptr_1:
	.zero	8
	.globl	_TIG_iO_QgxM_1___uint64_identity_1_opaque_ptr_1
	.align 8
	.type	_TIG_iO_QgxM_1___uint64_identity_1_opaque_ptr_1, @object
	.size	_TIG_iO_QgxM_1___uint64_identity_1_opaque_ptr_1, 8
_TIG_iO_QgxM_1___uint64_identity_1_opaque_ptr_1:
	.zero	8
	.globl	_TIG_iO_QgxM_1___bswap_16_1_opaque_ptr_2
	.align 8
	.type	_TIG_iO_QgxM_1___bswap_16_1_opaque_ptr_2, @object
	.size	_TIG_iO_QgxM_1___bswap_16_1_opaque_ptr_2, 8
_TIG_iO_QgxM_1___bswap_16_1_opaque_ptr_2:
	.zero	8
	.globl	_TIG_iO_QgxM_1___bswap_16_1_opaque_list_1
	.align 8
	.type	_TIG_iO_QgxM_1___bswap_16_1_opaque_list_1, @object
	.size	_TIG_iO_QgxM_1___bswap_16_1_opaque_list_1, 8
_TIG_iO_QgxM_1___bswap_16_1_opaque_list_1:
	.zero	8
	.globl	_TIG_iO_QgxM_1___bswap_16_1_opaque_ptr_1
	.align 8
	.type	_TIG_iO_QgxM_1___bswap_16_1_opaque_ptr_1, @object
	.size	_TIG_iO_QgxM_1___bswap_16_1_opaque_ptr_1, 8
_TIG_iO_QgxM_1___bswap_16_1_opaque_ptr_1:
	.zero	8
	.globl	_TIG_iO_QgxM_1___uint64_identity_1_opaque_ptr_2
	.align 8
	.type	_TIG_iO_QgxM_1___uint64_identity_1_opaque_ptr_2, @object
	.size	_TIG_iO_QgxM_1___uint64_identity_1_opaque_ptr_2, 8
_TIG_iO_QgxM_1___uint64_identity_1_opaque_ptr_2:
	.zero	8
	.globl	_TIG_iO_QgxM_1___uint64_identity_1_opaque_list_2
	.align 8
	.type	_TIG_iO_QgxM_1___uint64_identity_1_opaque_list_2, @object
	.size	_TIG_iO_QgxM_1___uint64_identity_1_opaque_list_2, 8
_TIG_iO_QgxM_1___uint64_identity_1_opaque_list_2:
	.zero	8
	.globl	_TIG_iO_QgxM_1___uint16_identity_1_opaque_ptr_1
	.align 8
	.type	_TIG_iO_QgxM_1___uint16_identity_1_opaque_ptr_1, @object
	.size	_TIG_iO_QgxM_1___uint16_identity_1_opaque_ptr_1, 8
_TIG_iO_QgxM_1___uint16_identity_1_opaque_ptr_1:
	.zero	8
	.globl	_TIG_iO_QgxM_1___bswap_64_1_opaque_list_2
	.align 8
	.type	_TIG_iO_QgxM_1___bswap_64_1_opaque_list_2, @object
	.size	_TIG_iO_QgxM_1___bswap_64_1_opaque_list_2, 8
_TIG_iO_QgxM_1___bswap_64_1_opaque_list_2:
	.zero	8
	.globl	_TIG_iO_QgxM_1_disemvowel_1_opaque_ptr_1
	.align 8
	.type	_TIG_iO_QgxM_1_disemvowel_1_opaque_ptr_1, @object
	.size	_TIG_iO_QgxM_1_disemvowel_1_opaque_ptr_1, 8
_TIG_iO_QgxM_1_disemvowel_1_opaque_ptr_1:
	.zero	8
	.globl	_TIG_iO_QgxM_1___uint16_identity_1_opaque_ptr_2
	.align 8
	.type	_TIG_iO_QgxM_1___uint16_identity_1_opaque_ptr_2, @object
	.size	_TIG_iO_QgxM_1___uint16_identity_1_opaque_ptr_2, 8
_TIG_iO_QgxM_1___uint16_identity_1_opaque_ptr_2:
	.zero	8
	.globl	_TIG_iO_QgxM_1___bswap_64_1_opaque_ptr_1
	.align 8
	.type	_TIG_iO_QgxM_1___bswap_64_1_opaque_ptr_1, @object
	.size	_TIG_iO_QgxM_1___bswap_64_1_opaque_ptr_1, 8
_TIG_iO_QgxM_1___bswap_64_1_opaque_ptr_1:
	.zero	8
	.globl	_TIG_iO_QgxM_1___uint16_identity_1_opaque_list_1
	.align 8
	.type	_TIG_iO_QgxM_1___uint16_identity_1_opaque_list_1, @object
	.size	_TIG_iO_QgxM_1___uint16_identity_1_opaque_list_1, 8
_TIG_iO_QgxM_1___uint16_identity_1_opaque_list_1:
	.zero	8
	.globl	_TIG_iO_QgxM_1_main_1_opaque_ptr_1
	.align 8
	.type	_TIG_iO_QgxM_1_main_1_opaque_ptr_1, @object
	.size	_TIG_iO_QgxM_1_main_1_opaque_ptr_1, 8
_TIG_iO_QgxM_1_main_1_opaque_ptr_1:
	.zero	8
	.globl	_TIG_iO_QgxM_1___bswap_32_1_opaque_ptr_2
	.align 8
	.type	_TIG_iO_QgxM_1___bswap_32_1_opaque_ptr_2, @object
	.size	_TIG_iO_QgxM_1___bswap_32_1_opaque_ptr_2, 8
_TIG_iO_QgxM_1___bswap_32_1_opaque_ptr_2:
	.zero	8
	.globl	_TIG_iO_QgxM_1___uint16_identity_1_opaque_list_2
	.align 8
	.type	_TIG_iO_QgxM_1___uint16_identity_1_opaque_list_2, @object
	.size	_TIG_iO_QgxM_1___uint16_identity_1_opaque_list_2, 8
_TIG_iO_QgxM_1___uint16_identity_1_opaque_list_2:
	.zero	8
	.globl	_TIG_iO_QgxM_1_disemvowel_1_opaque_list_1
	.align 8
	.type	_TIG_iO_QgxM_1_disemvowel_1_opaque_list_1, @object
	.size	_TIG_iO_QgxM_1_disemvowel_1_opaque_list_1, 8
_TIG_iO_QgxM_1_disemvowel_1_opaque_list_1:
	.zero	8
	.globl	_TIG_IZ_QgxM_argc
	.align 4
	.type	_TIG_IZ_QgxM_argc, @object
	.size	_TIG_IZ_QgxM_argc, 4
_TIG_IZ_QgxM_argc:
	.zero	4
	.globl	_TIG_iO_QgxM_1___bswap_32_1_opaque_list_2
	.align 8
	.type	_TIG_iO_QgxM_1___bswap_32_1_opaque_list_2, @object
	.size	_TIG_iO_QgxM_1___bswap_32_1_opaque_list_2, 8
_TIG_iO_QgxM_1___bswap_32_1_opaque_list_2:
	.zero	8
	.globl	_TIG_iO_QgxM_1___uint32_identity_1_opaque_list_2
	.align 8
	.type	_TIG_iO_QgxM_1___uint32_identity_1_opaque_list_2, @object
	.size	_TIG_iO_QgxM_1___uint32_identity_1_opaque_list_2, 8
_TIG_iO_QgxM_1___uint32_identity_1_opaque_list_2:
	.zero	8
	.globl	_TIG_iO_QgxM_1_main_1_opaque_ptr_2
	.align 8
	.type	_TIG_iO_QgxM_1_main_1_opaque_ptr_2, @object
	.size	_TIG_iO_QgxM_1_main_1_opaque_ptr_2, 8
_TIG_iO_QgxM_1_main_1_opaque_ptr_2:
	.zero	8
	.globl	_TIG_iO_QgxM_1___bswap_64_1_opaque_ptr_2
	.align 8
	.type	_TIG_iO_QgxM_1___bswap_64_1_opaque_ptr_2, @object
	.size	_TIG_iO_QgxM_1___bswap_64_1_opaque_ptr_2, 8
_TIG_iO_QgxM_1___bswap_64_1_opaque_ptr_2:
	.zero	8
	.globl	_TIG_iO_QgxM_1___uint64_identity_1_opaque_list_1
	.align 8
	.type	_TIG_iO_QgxM_1___uint64_identity_1_opaque_list_1, @object
	.size	_TIG_iO_QgxM_1___uint64_identity_1_opaque_list_1, 8
_TIG_iO_QgxM_1___uint64_identity_1_opaque_list_1:
	.zero	8
	.globl	_TIG_iO_QgxM_1___uint32_identity_1_opaque_ptr_2
	.align 8
	.type	_TIG_iO_QgxM_1___uint32_identity_1_opaque_ptr_2, @object
	.size	_TIG_iO_QgxM_1___uint32_identity_1_opaque_ptr_2, 8
_TIG_iO_QgxM_1___uint32_identity_1_opaque_ptr_2:
	.zero	8
	.globl	_TIG_iO_QgxM_1___uint32_identity_1_opaque_list_1
	.align 8
	.type	_TIG_iO_QgxM_1___uint32_identity_1_opaque_list_1, @object
	.size	_TIG_iO_QgxM_1___uint32_identity_1_opaque_list_1, 8
_TIG_iO_QgxM_1___uint32_identity_1_opaque_list_1:
	.zero	8
	.globl	_TIG_iO_QgxM_1_main_1_opaque_list_2
	.align 8
	.type	_TIG_iO_QgxM_1_main_1_opaque_list_2, @object
	.size	_TIG_iO_QgxM_1_main_1_opaque_list_2, 8
_TIG_iO_QgxM_1_main_1_opaque_list_2:
	.zero	8
	.globl	_TIG_iO_QgxM_1_main_1_opaque_list_1
	.align 8
	.type	_TIG_iO_QgxM_1_main_1_opaque_list_1, @object
	.size	_TIG_iO_QgxM_1_main_1_opaque_list_1, 8
_TIG_iO_QgxM_1_main_1_opaque_list_1:
	.zero	8
	.globl	_TIG_iO_QgxM_1_disemvowel_1_opaque_ptr_2
	.align 8
	.type	_TIG_iO_QgxM_1_disemvowel_1_opaque_ptr_2, @object
	.size	_TIG_iO_QgxM_1_disemvowel_1_opaque_ptr_2, 8
_TIG_iO_QgxM_1_disemvowel_1_opaque_ptr_2:
	.zero	8
	.globl	_TIG_iO_QgxM_1___uint32_identity_1_opaque_ptr_1
	.align 8
	.type	_TIG_iO_QgxM_1___uint32_identity_1_opaque_ptr_1, @object
	.size	_TIG_iO_QgxM_1___uint32_identity_1_opaque_ptr_1, 8
_TIG_iO_QgxM_1___uint32_identity_1_opaque_ptr_1:
	.zero	8
	.globl	_TIG_iO_QgxM_1_disemvowel_1_opaque_list_2
	.align 8
	.type	_TIG_iO_QgxM_1_disemvowel_1_opaque_list_2, @object
	.size	_TIG_iO_QgxM_1_disemvowel_1_opaque_list_2, 8
_TIG_iO_QgxM_1_disemvowel_1_opaque_list_2:
	.zero	8
	.globl	_TIG_IZ_QgxM_envp
	.align 8
	.type	_TIG_IZ_QgxM_envp, @object
	.size	_TIG_IZ_QgxM_envp, 8
_TIG_IZ_QgxM_envp:
	.zero	8
	.globl	_TIG_iO_QgxM_1___bswap_64_1_opaque_list_1
	.align 8
	.type	_TIG_iO_QgxM_1___bswap_64_1_opaque_list_1, @object
	.size	_TIG_iO_QgxM_1___bswap_64_1_opaque_list_1, 8
_TIG_iO_QgxM_1___bswap_64_1_opaque_list_1:
	.zero	8
	.text
	.globl	disemvowel
	.type	disemvowel, @function
disemvowel:
.LFB1:
	.cfi_startproc
	endbr64
	pushq	%rbp
	.cfi_def_cfa_offset 16
	.cfi_offset 6, -16
	movq	%rsp, %rbp
	.cfi_def_cfa_register 6
	subq	$96, %rsp
	movq	%rdi, -88(%rbp)
	movq	%rsi, -96(%rbp)
	movq	%fs:40, %rax
	movq	%rax, -8(%rbp)
	xorl	%eax, %eax
#APP
# 75 "/usr/include/x86_64-linux-gnu/bits/byteswap.h" 1
	##_ANNOTATION_INITIALREGION_-TIG-iO-QgxM-1-disemvowel--14
# 0 "" 2
# 79 "/usr/include/x86_64-linux-gnu/bits/byteswap.h" 1
	##_ANNOTATION_ATOMICREGION_-TIG-iO-QgxM-1-disemvowel--13
# 0 "" 2
#NO_APP
	movl	$24, %edi
	call	malloc@PLT
	movq	%rax, -56(%rbp)
	movq	-56(%rbp), %rax
	movq	-56(%rbp), %rdx
	movq	%rdx, (%rax)
	movq	-56(%rbp), %rax
	movq	-56(%rbp), %rdx
	movq	%rdx, 8(%rax)
	movq	-56(%rbp), %rax
	movq	%rax, _TIG_iO_QgxM_1_disemvowel_1_opaque_list_1(%rip)
	call	rand@PLT
	movl	%eax, -76(%rbp)
	movl	$24, %edi
	call	malloc@PLT
	movq	%rax, -48(%rbp)
	movq	-48(%rbp), %rax
	movl	$0, 16(%rax)
	movq	_TIG_iO_QgxM_1_disemvowel_1_opaque_list_1(%rip), %rax
	movq	(%rax), %rdx
	movq	-48(%rbp), %rax
	movq	%rdx, (%rax)
	movq	_TIG_iO_QgxM_1_disemvowel_1_opaque_list_1(%rip), %rdx
	movq	-48(%rbp), %rax
	movq	%rdx, 8(%rax)
	movq	_TIG_iO_QgxM_1_disemvowel_1_opaque_list_1(%rip), %rax
	movq	(%rax), %rax
	movq	-48(%rbp), %rdx
	movq	%rdx, 8(%rax)
	movq	_TIG_iO_QgxM_1_disemvowel_1_opaque_list_1(%rip), %rax
	movq	-48(%rbp), %rdx
	movq	%rdx, (%rax)
	call	rand@PLT
	movl	%eax, -72(%rbp)
	movl	$24, %edi
	call	malloc@PLT
	movq	%rax, -40(%rbp)
	movq	-40(%rbp), %rax
	movl	-72(%rbp), %edx
	movl	%edx, 16(%rax)
	movq	_TIG_iO_QgxM_1_disemvowel_1_opaque_list_1(%rip), %rax
	movq	(%rax), %rdx
	movq	-40(%rbp), %rax
	movq	%rdx, (%rax)
	movq	_TIG_iO_QgxM_1_disemvowel_1_opaque_list_1(%rip), %rdx
	movq	-40(%rbp), %rax
	movq	%rdx, 8(%rax)
	movq	_TIG_iO_QgxM_1_disemvowel_1_opaque_list_1(%rip), %rax
	movq	(%rax), %rax
	movq	-40(%rbp), %rdx
	movq	%rdx, 8(%rax)
	movq	_TIG_iO_QgxM_1_disemvowel_1_opaque_list_1(%rip), %rax
	movq	-40(%rbp), %rdx
	movq	%rdx, (%rax)
	call	rand@PLT
	movl	%eax, -68(%rbp)
	movl	$24, %edi
	call	malloc@PLT
	movq	%rax, -32(%rbp)
	movl	-68(%rbp), %eax
	leal	(%rax,%rax), %edx
	movq	-32(%rbp), %rax
	movl	%edx, 16(%rax)
	movq	_TIG_iO_QgxM_1_disemvowel_1_opaque_list_1(%rip), %rax
	movq	(%rax), %rdx
	movq	-32(%rbp), %rax
	movq	%rdx, (%rax)
	movq	_TIG_iO_QgxM_1_disemvowel_1_opaque_list_1(%rip), %rdx
	movq	-32(%rbp), %rax
	movq	%rdx, 8(%rax)
	movq	_TIG_iO_QgxM_1_disemvowel_1_opaque_list_1(%rip), %rax
	movq	(%rax), %rax
	movq	-32(%rbp), %rdx
	movq	%rdx, 8(%rax)
	movq	_TIG_iO_QgxM_1_disemvowel_1_opaque_list_1(%rip), %rax
	movq	-32(%rbp), %rdx
	movq	%rdx, (%rax)
	call	rand@PLT
	movl	%eax, -64(%rbp)
	movl	$24, %edi
	call	malloc@PLT
	movq	%rax, -24(%rbp)
	movl	-64(%rbp), %edx
	movl	%edx, %eax
	addl	%eax, %eax
	addl	%eax, %edx
	movq	-24(%rbp), %rax
	movl	%edx, 16(%rax)
	movq	_TIG_iO_QgxM_1_disemvowel_1_opaque_list_1(%rip), %rax
	movq	(%rax), %rdx
	movq	-24(%rbp), %rax
	movq	%rdx, (%rax)
	movq	_TIG_iO_QgxM_1_disemvowel_1_opaque_list_1(%rip), %rdx
	movq	-24(%rbp), %rax
	movq	%rdx, 8(%rax)
	movq	_TIG_iO_QgxM_1_disemvowel_1_opaque_list_1(%rip), %rax
	movq	(%rax), %rax
	movq	-24(%rbp), %rdx
	movq	%rdx, 8(%rax)
	movq	_TIG_iO_QgxM_1_disemvowel_1_opaque_list_1(%rip), %rax
	movq	-24(%rbp), %rdx
	movq	%rdx, (%rax)
	movq	_TIG_iO_QgxM_1_disemvowel_1_opaque_list_1(%rip), %rax
	movq	(%rax), %rax
	movq	%rax, _TIG_iO_QgxM_1_disemvowel_1_opaque_ptr_1(%rip)
	movq	_TIG_iO_QgxM_1_disemvowel_1_opaque_ptr_1(%rip), %rax
	movq	%rax, _TIG_iO_QgxM_1_disemvowel_1_opaque_ptr_2(%rip)
	movq	_TIG_iO_QgxM_1_disemvowel_1_opaque_ptr_2(%rip), %rax
	movq	(%rax), %rax
	movq	%rax, _TIG_iO_QgxM_1_disemvowel_1_opaque_ptr_2(%rip)
	nop
	nop
.L6:
	movq	-88(%rbp), %rdx
	leaq	-77(%rbp), %rax
	movq	%rdx, %rcx
	movl	$1, %edx
	movl	$1, %esi
	movq	%rax, %rdi
	call	fread@PLT
	movq	%rax, -16(%rbp)
	movq	-16(%rbp), %rax
	movl	%eax, -60(%rbp)
	movzbl	-77(%rbp), %eax
	movsbl	%al, %eax
	subl	$65, %eax
	cmpl	$52, %eax
	seta	%dl
	testb	%dl, %dl
	jne	.L2
	movabsq	$4575140898685201, %rdx
	movl	%eax, %ecx
	shrq	%cl, %rdx
	movq	%rdx, %rax
	andl	$1, %eax
	testq	%rax, %rax
	setne	%al
	testb	%al, %al
	jne	.L11
.L2:
	movq	-96(%rbp), %rdx
	leaq	-77(%rbp), %rax
	movq	%rdx, %rcx
	movl	$1, %edx
	movl	$1, %esi
	movq	%rax, %rdi
	call	fwrite@PLT
	jmp	.L3
.L11:
	nop
.L3:
	cmpl	$0, -60(%rbp)
	je	.L12
	jmp	.L6
.L12:
	nop
	movq	_TIG_iO_QgxM_1_main_1_opaque_ptr_1(%rip), %rdx
	movq	_TIG_iO_QgxM_1_main_1_opaque_ptr_2(%rip), %rax
	cmpq	%rax, %rdx
	movq	-8(%rbp), %rax
	subq	%fs:40, %rax
	je	.L9
	call	__stack_chk_fail@PLT
.L9:
	leave
	.cfi_def_cfa 7, 8
	ret
	.cfi_endproc
.LFE1:
	.size	disemvowel, .-disemvowel
	.section	.rodata
.LC0:
	.string	"r"
.LC1:
	.string	"unable to open file '%s'\n"
.LC2:
	.string	"w"
	.text
	.globl	main
	.type	main, @function
main:
.LFB5:
	.cfi_startproc
	endbr64
	pushq	%rbp
	.cfi_def_cfa_offset 16
	.cfi_offset 6, -16
	movq	%rsp, %rbp
	.cfi_def_cfa_register 6
	subq	$80, %rsp
	movl	%edi, -52(%rbp)
	movq	%rsi, -64(%rbp)
	movq	%rdx, -72(%rbp)
	movq	$0, _TIG_IZ_QgxM_envp(%rip)
	nop
.L14:
	movq	$0, _TIG_IZ_QgxM_argv(%rip)
	nop
.L15:
	movl	$0, _TIG_IZ_QgxM_argc(%rip)
	nop
	nop
.L16:
.L17:
#APP
# 88 "/usr/include/x86_64-linux-gnu/bits/uintn-identity.h" 1
	##_ANNOTATION_INITIALREGION_-TIG-IZ-QgxM--0
# 0 "" 2
#NO_APP
	movl	-52(%rbp), %eax
	movl	%eax, _TIG_IZ_QgxM_argc(%rip)
	movq	-64(%rbp), %rax
	movq	%rax, _TIG_IZ_QgxM_argv(%rip)
	movq	-72(%rbp), %rax
	movq	%rax, _TIG_IZ_QgxM_envp(%rip)
#APP
# 95 "/usr/include/x86_64-linux-gnu/bits/uintn-identity.h" 1
	##_ANNOTATION_ATOMICREGION_-TIG-iO-QgxM-1-main--15
# 0 "" 2
#NO_APP
	movl	$24, %edi
	call	malloc@PLT
	movq	%rax, -24(%rbp)
	movq	-24(%rbp), %rax
	movq	-24(%rbp), %rdx
	movq	%rdx, 16(%rax)
	movq	-24(%rbp), %rax
	movq	-24(%rbp), %rdx
	movq	%rdx, 8(%rax)
	movq	-24(%rbp), %rax
	movq	%rax, _TIG_iO_QgxM_1_main_1_opaque_list_1(%rip)
	call	rand@PLT
	movl	%eax, -48(%rbp)
	movl	$24, %edi
	call	malloc@PLT
	movq	%rax, -16(%rbp)
	movq	-16(%rbp), %rax
	movl	$0, (%rax)
	movq	_TIG_iO_QgxM_1_main_1_opaque_list_1(%rip), %rax
	movq	16(%rax), %rdx
	movq	-16(%rbp), %rax
	movq	%rdx, 16(%rax)
	movq	_TIG_iO_QgxM_1_main_1_opaque_list_1(%rip), %rdx
	movq	-16(%rbp), %rax
	movq	%rdx, 8(%rax)
	movq	_TIG_iO_QgxM_1_main_1_opaque_list_1(%rip), %rax
	movq	16(%rax), %rax
	movq	-16(%rbp), %rdx
	movq	%rdx, 8(%rax)
	movq	_TIG_iO_QgxM_1_main_1_opaque_list_1(%rip), %rax
	movq	-16(%rbp), %rdx
	movq	%rdx, 16(%rax)
	call	rand@PLT
	movl	%eax, -44(%rbp)
	movl	$24, %edi
	call	malloc@PLT
	movq	%rax, -8(%rbp)
	movq	-8(%rbp), %rax
	movl	-44(%rbp), %edx
	movl	%edx, (%rax)
	movq	_TIG_iO_QgxM_1_main_1_opaque_list_1(%rip), %rax
	movq	16(%rax), %rdx
	movq	-8(%rbp), %rax
	movq	%rdx, 16(%rax)
	movq	_TIG_iO_QgxM_1_main_1_opaque_list_1(%rip), %rdx
	movq	-8(%rbp), %rax
	movq	%rdx, 8(%rax)
	movq	_TIG_iO_QgxM_1_main_1_opaque_list_1(%rip), %rax
	movq	16(%rax), %rax
	movq	-8(%rbp), %rdx
	movq	%rdx, 8(%rax)
	movq	_TIG_iO_QgxM_1_main_1_opaque_list_1(%rip), %rax
	movq	-8(%rbp), %rdx
	movq	%rdx, 16(%rax)
	movq	_TIG_iO_QgxM_1_main_1_opaque_list_1(%rip), %rax
	movq	16(%rax), %rax
	movq	%rax, _TIG_iO_QgxM_1_main_1_opaque_ptr_1(%rip)
	movq	_TIG_iO_QgxM_1_main_1_opaque_ptr_1(%rip), %rax
	movq	%rax, _TIG_iO_QgxM_1_main_1_opaque_ptr_2(%rip)
	nop
	nop
	movq	stdin(%rip), %rax
	movq	%rax, -40(%rbp)
	movq	stdout(%rip), %rax
	movq	%rax, -32(%rbp)
	cmpl	$1, -52(%rbp)
	jle	.L18
	movq	-64(%rbp), %rax
	addq	$8, %rax
	movq	(%rax), %rax
	leaq	.LC0(%rip), %rdx
	movq	%rdx, %rsi
	movq	%rax, %rdi
	call	fopen@PLT
	movq	%rax, -40(%rbp)
	cmpq	$0, -40(%rbp)
	jne	.L18
	movq	-64(%rbp), %rax
	addq	$8, %rax
	movq	(%rax), %rdx
	movq	stderr(%rip), %rax
	leaq	.LC1(%rip), %rcx
	movq	%rcx, %rsi
	movq	%rax, %rdi
	movl	$0, %eax
	call	fprintf@PLT
	movq	_TIG_iO_QgxM_1_main_1_opaque_ptr_1(%rip), %rdx
	movq	_TIG_iO_QgxM_1_main_1_opaque_ptr_2(%rip), %rax
	cmpq	%rax, %rdx
	jne	.L18
	movl	$1, %eax
	jmp	.L19
.L18:
	cmpl	$2, -52(%rbp)
	jle	.L20
	movq	-64(%rbp), %rax
	addq	$16, %rax
	movq	(%rax), %rax
	leaq	.LC2(%rip), %rdx
	movq	%rdx, %rsi
	movq	%rax, %rdi
	call	fopen@PLT
	movq	%rax, -32(%rbp)
	cmpq	$0, -32(%rbp)
	jne	.L20
	movq	-64(%rbp), %rax
	addq	$16, %rax
	movq	(%rax), %rdx
	movq	stderr(%rip), %rax
	leaq	.LC1(%rip), %rcx
	movq	%rcx, %rsi
	movq	%rax, %rdi
	movl	$0, %eax
	call	fprintf@PLT
	movl	$1, %eax
	jmp	.L19
.L20:
	movq	-32(%rbp), %rdx
	movq	-40(%rbp), %rax
	movq	%rdx, %rsi
	movq	%rax, %rdi
	call	disemvowel
	movq	-40(%rbp), %rax
	movq	%rax, %rdi
	call	fclose@PLT
	movq	-32(%rbp), %rax
	movq	%rax, %rdi
	call	fclose@PLT
	movl	$0, %eax
.L19:
	leave
	.cfi_def_cfa 7, 8
	ret
	.cfi_endproc
.LFE5:
	.size	main, .-main
	.ident	"GCC: (Ubuntu 11.4.0-1ubuntu1~22.04) 11.4.0"
	.section	.note.GNU-stack,"",@progbits
	.section	.note.gnu.property,"a"
	.align 8
	.long	1f - 0f
	.long	4f - 1f
	.long	5
0:
	.string	"GNU"
1:
	.align 8
	.long	0xc0000002
	.long	3f - 2f
2:
	.long	0x3
3:
	.align 8
4:
