	.file	"vachanmn123_oslab_3_opaque.c"
	.text
	.globl	_TIG_iO_WCRC_1_producer_1_opaque_ptr_2
	.bss
	.align 8
	.type	_TIG_iO_WCRC_1_producer_1_opaque_ptr_2, @object
	.size	_TIG_iO_WCRC_1_producer_1_opaque_ptr_2, 8
_TIG_iO_WCRC_1_producer_1_opaque_ptr_2:
	.zero	8
	.globl	_TIG_iO_WCRC_1_consumer_1_opaque_ptr_2
	.align 8
	.type	_TIG_iO_WCRC_1_consumer_1_opaque_ptr_2, @object
	.size	_TIG_iO_WCRC_1_consumer_1_opaque_ptr_2, 8
_TIG_iO_WCRC_1_consumer_1_opaque_ptr_2:
	.zero	8
	.globl	_TIG_iO_WCRC_1_consumer_1_opaque_list_1
	.align 8
	.type	_TIG_iO_WCRC_1_consumer_1_opaque_list_1, @object
	.size	_TIG_iO_WCRC_1_consumer_1_opaque_list_1, 8
_TIG_iO_WCRC_1_consumer_1_opaque_list_1:
	.zero	8
	.globl	_TIG_iO_WCRC_1_consumer_1_opaque_list_2
	.align 8
	.type	_TIG_iO_WCRC_1_consumer_1_opaque_list_2, @object
	.size	_TIG_iO_WCRC_1_consumer_1_opaque_list_2, 8
_TIG_iO_WCRC_1_consumer_1_opaque_list_2:
	.zero	8
	.globl	_TIG_iO_WCRC_1___uint16_identity_1_opaque_list_1
	.align 8
	.type	_TIG_iO_WCRC_1___uint16_identity_1_opaque_list_1, @object
	.size	_TIG_iO_WCRC_1___uint16_identity_1_opaque_list_1, 8
_TIG_iO_WCRC_1___uint16_identity_1_opaque_list_1:
	.zero	8
	.globl	_TIG_iO_WCRC_1___bswap_32_1_opaque_list_1
	.align 8
	.type	_TIG_iO_WCRC_1___bswap_32_1_opaque_list_1, @object
	.size	_TIG_iO_WCRC_1___bswap_32_1_opaque_list_1, 8
_TIG_iO_WCRC_1___bswap_32_1_opaque_list_1:
	.zero	8
	.globl	_TIG_iO_WCRC_1___uint32_identity_1_opaque_list_1
	.align 8
	.type	_TIG_iO_WCRC_1___uint32_identity_1_opaque_list_1, @object
	.size	_TIG_iO_WCRC_1___uint32_identity_1_opaque_list_1, 8
_TIG_iO_WCRC_1___uint32_identity_1_opaque_list_1:
	.zero	8
	.globl	full
	.align 4
	.type	full, @object
	.size	full, 4
full:
	.zero	4
	.globl	_TIG_iO_WCRC_1___bswap_16_1_opaque_list_1
	.align 8
	.type	_TIG_iO_WCRC_1___bswap_16_1_opaque_list_1, @object
	.size	_TIG_iO_WCRC_1___bswap_16_1_opaque_list_1, 8
_TIG_iO_WCRC_1___bswap_16_1_opaque_list_1:
	.zero	8
	.globl	_TIG_iO_WCRC_1___uint16_identity_1_opaque_list_2
	.align 8
	.type	_TIG_iO_WCRC_1___uint16_identity_1_opaque_list_2, @object
	.size	_TIG_iO_WCRC_1___uint16_identity_1_opaque_list_2, 8
_TIG_iO_WCRC_1___uint16_identity_1_opaque_list_2:
	.zero	8
	.globl	_TIG_IZ_WCRC_envp
	.align 8
	.type	_TIG_IZ_WCRC_envp, @object
	.size	_TIG_IZ_WCRC_envp, 8
_TIG_IZ_WCRC_envp:
	.zero	8
	.globl	_TIG_iO_WCRC_1_main_1_opaque_list_1
	.align 8
	.type	_TIG_iO_WCRC_1_main_1_opaque_list_1, @object
	.size	_TIG_iO_WCRC_1_main_1_opaque_list_1, 8
_TIG_iO_WCRC_1_main_1_opaque_list_1:
	.zero	8
	.globl	_TIG_iO_WCRC_1_main_1_opaque_ptr_2
	.align 8
	.type	_TIG_iO_WCRC_1_main_1_opaque_ptr_2, @object
	.size	_TIG_iO_WCRC_1_main_1_opaque_ptr_2, 8
_TIG_iO_WCRC_1_main_1_opaque_ptr_2:
	.zero	8
	.globl	_TIG_iO_WCRC_1___bswap_64_1_opaque_list_1
	.align 8
	.type	_TIG_iO_WCRC_1___bswap_64_1_opaque_list_1, @object
	.size	_TIG_iO_WCRC_1___bswap_64_1_opaque_list_1, 8
_TIG_iO_WCRC_1___bswap_64_1_opaque_list_1:
	.zero	8
	.globl	_TIG_iO_WCRC_1_consumer_1_opaque_ptr_1
	.align 8
	.type	_TIG_iO_WCRC_1_consumer_1_opaque_ptr_1, @object
	.size	_TIG_iO_WCRC_1_consumer_1_opaque_ptr_1, 8
_TIG_iO_WCRC_1_consumer_1_opaque_ptr_1:
	.zero	8
	.globl	_TIG_iO_WCRC_1___bswap_16_1_opaque_list_2
	.align 8
	.type	_TIG_iO_WCRC_1___bswap_16_1_opaque_list_2, @object
	.size	_TIG_iO_WCRC_1___bswap_16_1_opaque_list_2, 8
_TIG_iO_WCRC_1___bswap_16_1_opaque_list_2:
	.zero	8
	.globl	_TIG_iO_WCRC_1___bswap_64_1_opaque_ptr_2
	.align 8
	.type	_TIG_iO_WCRC_1___bswap_64_1_opaque_ptr_2, @object
	.size	_TIG_iO_WCRC_1___bswap_64_1_opaque_ptr_2, 8
_TIG_iO_WCRC_1___bswap_64_1_opaque_ptr_2:
	.zero	8
	.globl	_TIG_iO_WCRC_1_producer_1_opaque_list_2
	.align 8
	.type	_TIG_iO_WCRC_1_producer_1_opaque_list_2, @object
	.size	_TIG_iO_WCRC_1_producer_1_opaque_list_2, 8
_TIG_iO_WCRC_1_producer_1_opaque_list_2:
	.zero	8
	.globl	_TIG_iO_WCRC_1___bswap_32_1_opaque_ptr_1
	.align 8
	.type	_TIG_iO_WCRC_1___bswap_32_1_opaque_ptr_1, @object
	.size	_TIG_iO_WCRC_1___bswap_32_1_opaque_ptr_1, 8
_TIG_iO_WCRC_1___bswap_32_1_opaque_ptr_1:
	.zero	8
	.globl	_TIG_iO_WCRC_1___uint32_identity_1_opaque_ptr_2
	.align 8
	.type	_TIG_iO_WCRC_1___uint32_identity_1_opaque_ptr_2, @object
	.size	_TIG_iO_WCRC_1___uint32_identity_1_opaque_ptr_2, 8
_TIG_iO_WCRC_1___uint32_identity_1_opaque_ptr_2:
	.zero	8
	.globl	_TIG_iO_WCRC_1___uint16_identity_1_opaque_ptr_1
	.align 8
	.type	_TIG_iO_WCRC_1___uint16_identity_1_opaque_ptr_1, @object
	.size	_TIG_iO_WCRC_1___uint16_identity_1_opaque_ptr_1, 8
_TIG_iO_WCRC_1___uint16_identity_1_opaque_ptr_1:
	.zero	8
	.globl	_TIG_iO_WCRC_1___uint32_identity_1_opaque_list_2
	.align 8
	.type	_TIG_iO_WCRC_1___uint32_identity_1_opaque_list_2, @object
	.size	_TIG_iO_WCRC_1___uint32_identity_1_opaque_list_2, 8
_TIG_iO_WCRC_1___uint32_identity_1_opaque_list_2:
	.zero	8
	.globl	_TIG_iO_WCRC_1___bswap_16_1_opaque_ptr_1
	.align 8
	.type	_TIG_iO_WCRC_1___bswap_16_1_opaque_ptr_1, @object
	.size	_TIG_iO_WCRC_1___bswap_16_1_opaque_ptr_1, 8
_TIG_iO_WCRC_1___bswap_16_1_opaque_ptr_1:
	.zero	8
	.globl	_TIG_iO_WCRC_1___bswap_64_1_opaque_ptr_1
	.align 8
	.type	_TIG_iO_WCRC_1___bswap_64_1_opaque_ptr_1, @object
	.size	_TIG_iO_WCRC_1___bswap_64_1_opaque_ptr_1, 8
_TIG_iO_WCRC_1___bswap_64_1_opaque_ptr_1:
	.zero	8
	.globl	mutex
	.align 4
	.type	mutex, @object
	.size	mutex, 4
mutex:
	.zero	4
	.globl	_TIG_iO_WCRC_1_main_1_opaque_list_2
	.align 8
	.type	_TIG_iO_WCRC_1_main_1_opaque_list_2, @object
	.size	_TIG_iO_WCRC_1_main_1_opaque_list_2, 8
_TIG_iO_WCRC_1_main_1_opaque_list_2:
	.zero	8
	.globl	x
	.align 4
	.type	x, @object
	.size	x, 4
x:
	.zero	4
	.globl	_TIG_iO_WCRC_1___uint64_identity_1_opaque_list_2
	.align 8
	.type	_TIG_iO_WCRC_1___uint64_identity_1_opaque_list_2, @object
	.size	_TIG_iO_WCRC_1___uint64_identity_1_opaque_list_2, 8
_TIG_iO_WCRC_1___uint64_identity_1_opaque_list_2:
	.zero	8
	.globl	_TIG_iO_WCRC_1_producer_1_opaque_ptr_1
	.align 8
	.type	_TIG_iO_WCRC_1_producer_1_opaque_ptr_1, @object
	.size	_TIG_iO_WCRC_1_producer_1_opaque_ptr_1, 8
_TIG_iO_WCRC_1_producer_1_opaque_ptr_1:
	.zero	8
	.globl	_TIG_iO_WCRC_1___uint16_identity_1_opaque_ptr_2
	.align 8
	.type	_TIG_iO_WCRC_1___uint16_identity_1_opaque_ptr_2, @object
	.size	_TIG_iO_WCRC_1___uint16_identity_1_opaque_ptr_2, 8
_TIG_iO_WCRC_1___uint16_identity_1_opaque_ptr_2:
	.zero	8
	.globl	_TIG_iO_WCRC_1___uint64_identity_1_opaque_list_1
	.align 8
	.type	_TIG_iO_WCRC_1___uint64_identity_1_opaque_list_1, @object
	.size	_TIG_iO_WCRC_1___uint64_identity_1_opaque_list_1, 8
_TIG_iO_WCRC_1___uint64_identity_1_opaque_list_1:
	.zero	8
	.globl	_TIG_iO_WCRC_1___bswap_16_1_opaque_ptr_2
	.align 8
	.type	_TIG_iO_WCRC_1___bswap_16_1_opaque_ptr_2, @object
	.size	_TIG_iO_WCRC_1___bswap_16_1_opaque_ptr_2, 8
_TIG_iO_WCRC_1___bswap_16_1_opaque_ptr_2:
	.zero	8
	.globl	_TIG_IZ_WCRC_argc
	.align 4
	.type	_TIG_IZ_WCRC_argc, @object
	.size	_TIG_IZ_WCRC_argc, 4
_TIG_IZ_WCRC_argc:
	.zero	4
	.globl	_TIG_iO_WCRC_1_main_1_opaque_ptr_1
	.align 8
	.type	_TIG_iO_WCRC_1_main_1_opaque_ptr_1, @object
	.size	_TIG_iO_WCRC_1_main_1_opaque_ptr_1, 8
_TIG_iO_WCRC_1_main_1_opaque_ptr_1:
	.zero	8
	.globl	_TIG_iO_WCRC_1___bswap_32_1_opaque_list_2
	.align 8
	.type	_TIG_iO_WCRC_1___bswap_32_1_opaque_list_2, @object
	.size	_TIG_iO_WCRC_1___bswap_32_1_opaque_list_2, 8
_TIG_iO_WCRC_1___bswap_32_1_opaque_list_2:
	.zero	8
	.globl	_TIG_iO_WCRC_1___bswap_32_1_opaque_ptr_2
	.align 8
	.type	_TIG_iO_WCRC_1___bswap_32_1_opaque_ptr_2, @object
	.size	_TIG_iO_WCRC_1___bswap_32_1_opaque_ptr_2, 8
_TIG_iO_WCRC_1___bswap_32_1_opaque_ptr_2:
	.zero	8
	.globl	_TIG_iO_WCRC_1___uint32_identity_1_opaque_ptr_1
	.align 8
	.type	_TIG_iO_WCRC_1___uint32_identity_1_opaque_ptr_1, @object
	.size	_TIG_iO_WCRC_1___uint32_identity_1_opaque_ptr_1, 8
_TIG_iO_WCRC_1___uint32_identity_1_opaque_ptr_1:
	.zero	8
	.globl	_TIG_iO_WCRC_1___uint64_identity_1_opaque_ptr_1
	.align 8
	.type	_TIG_iO_WCRC_1___uint64_identity_1_opaque_ptr_1, @object
	.size	_TIG_iO_WCRC_1___uint64_identity_1_opaque_ptr_1, 8
_TIG_iO_WCRC_1___uint64_identity_1_opaque_ptr_1:
	.zero	8
	.globl	_TIG_IZ_WCRC_argv
	.align 8
	.type	_TIG_IZ_WCRC_argv, @object
	.size	_TIG_IZ_WCRC_argv, 8
_TIG_IZ_WCRC_argv:
	.zero	8
	.globl	empty
	.align 4
	.type	empty, @object
	.size	empty, 4
empty:
	.zero	4
	.globl	_TIG_iO_WCRC_1_producer_1_opaque_list_1
	.align 8
	.type	_TIG_iO_WCRC_1_producer_1_opaque_list_1, @object
	.size	_TIG_iO_WCRC_1_producer_1_opaque_list_1, 8
_TIG_iO_WCRC_1_producer_1_opaque_list_1:
	.zero	8
	.globl	_TIG_iO_WCRC_1___uint64_identity_1_opaque_ptr_2
	.align 8
	.type	_TIG_iO_WCRC_1___uint64_identity_1_opaque_ptr_2, @object
	.size	_TIG_iO_WCRC_1___uint64_identity_1_opaque_ptr_2, 8
_TIG_iO_WCRC_1___uint64_identity_1_opaque_ptr_2:
	.zero	8
	.globl	_TIG_iO_WCRC_1___bswap_64_1_opaque_list_2
	.align 8
	.type	_TIG_iO_WCRC_1___bswap_64_1_opaque_list_2, @object
	.size	_TIG_iO_WCRC_1___bswap_64_1_opaque_list_2, 8
_TIG_iO_WCRC_1___bswap_64_1_opaque_list_2:
	.zero	8
	.section	.rodata
.LC0:
	.string	"\nproducer produces item %d"
	.text
	.globl	producer
	.type	producer, @function
producer:
.LFB2:
	.cfi_startproc
	endbr64
	pushq	%rbp
	.cfi_def_cfa_offset 16
	.cfi_offset 6, -16
	movq	%rsp, %rbp
	.cfi_def_cfa_register 6
	subq	$32, %rsp
#APP
# 67 "/usr/include/x86_64-linux-gnu/bits/uintn-identity.h" 1
	##_ANNOTATION_INITIALREGION_-TIG-iO-WCRC-1-producer--18
# 0 "" 2
# 71 "/usr/include/x86_64-linux-gnu/bits/uintn-identity.h" 1
	##_ANNOTATION_ATOMICREGION_-TIG-iO-WCRC-1-producer--17
# 0 "" 2
#NO_APP
	movl	$24, %edi
	call	malloc@PLT
	movq	%rax, -24(%rbp)
	movq	-24(%rbp), %rax
	movq	-24(%rbp), %rdx
	movq	%rdx, 8(%rax)
	movq	-24(%rbp), %rax
	movq	-24(%rbp), %rdx
	movq	%rdx, (%rax)
	movq	-24(%rbp), %rax
	movq	%rax, _TIG_iO_WCRC_1_producer_1_opaque_list_1(%rip)
	call	rand@PLT
	movl	%eax, -32(%rbp)
	movl	$24, %edi
	call	malloc@PLT
	movq	%rax, -16(%rbp)
	movq	-16(%rbp), %rax
	movl	$0, 16(%rax)
	movq	_TIG_iO_WCRC_1_producer_1_opaque_list_1(%rip), %rax
	movq	8(%rax), %rdx
	movq	-16(%rbp), %rax
	movq	%rdx, 8(%rax)
	movq	_TIG_iO_WCRC_1_producer_1_opaque_list_1(%rip), %rdx
	movq	-16(%rbp), %rax
	movq	%rdx, (%rax)
	movq	_TIG_iO_WCRC_1_producer_1_opaque_list_1(%rip), %rax
	movq	8(%rax), %rax
	movq	-16(%rbp), %rdx
	movq	%rdx, (%rax)
	movq	_TIG_iO_WCRC_1_producer_1_opaque_list_1(%rip), %rax
	movq	-16(%rbp), %rdx
	movq	%rdx, 8(%rax)
	call	rand@PLT
	movl	%eax, -28(%rbp)
	movl	$24, %edi
	call	malloc@PLT
	movq	%rax, -8(%rbp)
	movq	-8(%rbp), %rax
	movl	-28(%rbp), %edx
	movl	%edx, 16(%rax)
	movq	_TIG_iO_WCRC_1_producer_1_opaque_list_1(%rip), %rax
	movq	8(%rax), %rdx
	movq	-8(%rbp), %rax
	movq	%rdx, 8(%rax)
	movq	_TIG_iO_WCRC_1_producer_1_opaque_list_1(%rip), %rdx
	movq	-8(%rbp), %rax
	movq	%rdx, (%rax)
	movq	_TIG_iO_WCRC_1_producer_1_opaque_list_1(%rip), %rax
	movq	8(%rax), %rax
	movq	-8(%rbp), %rdx
	movq	%rdx, (%rax)
	movq	_TIG_iO_WCRC_1_producer_1_opaque_list_1(%rip), %rax
	movq	-8(%rbp), %rdx
	movq	%rdx, 8(%rax)
	movq	_TIG_iO_WCRC_1_producer_1_opaque_list_1(%rip), %rax
	movq	8(%rax), %rax
	movq	%rax, _TIG_iO_WCRC_1_producer_1_opaque_ptr_1(%rip)
	movq	_TIG_iO_WCRC_1_producer_1_opaque_ptr_1(%rip), %rax
	movq	%rax, _TIG_iO_WCRC_1_producer_1_opaque_ptr_2(%rip)
	movq	_TIG_iO_WCRC_1_producer_1_opaque_ptr_2(%rip), %rax
	movq	8(%rax), %rax
	movq	%rax, _TIG_iO_WCRC_1_producer_1_opaque_ptr_2(%rip)
	nop
	nop
	movl	mutex(%rip), %eax
	subl	$1, %eax
	movl	%eax, mutex(%rip)
	movl	full(%rip), %eax
	addl	$1, %eax
	movl	%eax, full(%rip)
	movl	empty(%rip), %eax
	subl	$1, %eax
	movl	%eax, empty(%rip)
	movl	x(%rip), %eax
	addl	$1, %eax
	movl	%eax, x(%rip)
	movl	x(%rip), %eax
	movl	%eax, %esi
	leaq	.LC0(%rip), %rax
	movq	%rax, %rdi
	movl	$0, %eax
	call	printf@PLT
	movl	mutex(%rip), %eax
	addl	$1, %eax
	movl	%eax, mutex(%rip)
	movq	_TIG_iO_WCRC_1_producer_1_opaque_ptr_1(%rip), %rdx
	movq	_TIG_iO_WCRC_1_producer_1_opaque_ptr_2(%rip), %rax
	cmpq	%rax, %rdx
	jne	.L4
	movl	-32(%rbp), %eax
	movl	$0, %edx
	movl	$0, %esi
	movl	%eax, %edi
	call	main
	movl	%eax, -28(%rbp)
	nop
.L4:
	nop
	leave
	.cfi_def_cfa 7, 8
	ret
	.cfi_endproc
.LFE2:
	.size	producer, .-producer
	.section	.rodata
	.align 8
.LC1:
	.string	"\n1.press 1 for producer\n2.press 2 for consumer\n3.press 3 for exit"
.LC2:
	.string	"\n enter your choice:"
.LC3:
	.string	"%d"
.LC4:
	.string	"buffer is full!"
.LC5:
	.string	"buffer is empty!"
	.text
	.globl	main
	.type	main, @function
main:
.LFB4:
	.cfi_startproc
	endbr64
	pushq	%rbp
	.cfi_def_cfa_offset 16
	.cfi_offset 6, -16
	movq	%rsp, %rbp
	.cfi_def_cfa_register 6
	subq	$80, %rsp
	movl	%edi, -52(%rbp)
	movq	%rsi, -64(%rbp)
	movq	%rdx, -72(%rbp)
	movq	%fs:40, %rax
	movq	%rax, -8(%rbp)
	xorl	%eax, %eax
	movl	$0, x(%rip)
	nop
.L6:
	movl	$3, empty(%rip)
	nop
.L7:
	movl	$0, full(%rip)
	nop
.L8:
	movl	$1, mutex(%rip)
	nop
.L9:
	movq	$0, _TIG_IZ_WCRC_envp(%rip)
	nop
.L10:
	movq	$0, _TIG_IZ_WCRC_argv(%rip)
	nop
.L11:
	movl	$0, _TIG_IZ_WCRC_argc(%rip)
	nop
	nop
.L12:
.L13:
#APP
# 126 "/usr/include/x86_64-linux-gnu/bits/byteswap.h" 1
	##_ANNOTATION_INITIALREGION_-TIG-IZ-WCRC--0
# 0 "" 2
#NO_APP
	movl	-52(%rbp), %eax
	movl	%eax, _TIG_IZ_WCRC_argc(%rip)
	movq	-64(%rbp), %rax
	movq	%rax, _TIG_IZ_WCRC_argv(%rip)
	movq	-72(%rbp), %rax
	movq	%rax, _TIG_IZ_WCRC_envp(%rip)
#APP
# 133 "/usr/include/x86_64-linux-gnu/bits/byteswap.h" 1
	##_ANNOTATION_ATOMICREGION_-TIG-iO-WCRC-1-main--15
# 0 "" 2
#NO_APP
	movl	$24, %edi
	call	malloc@PLT
	movq	%rax, -32(%rbp)
	movq	-32(%rbp), %rax
	movq	-32(%rbp), %rdx
	movq	%rdx, 16(%rax)
	movq	-32(%rbp), %rax
	movq	-32(%rbp), %rdx
	movq	%rdx, 8(%rax)
	movq	-32(%rbp), %rax
	movq	%rax, _TIG_iO_WCRC_1_main_1_opaque_list_1(%rip)
	call	rand@PLT
	movl	%eax, -40(%rbp)
	movl	$24, %edi
	call	malloc@PLT
	movq	%rax, -24(%rbp)
	movq	-24(%rbp), %rax
	movl	$0, (%rax)
	movq	_TIG_iO_WCRC_1_main_1_opaque_list_1(%rip), %rax
	movq	16(%rax), %rdx
	movq	-24(%rbp), %rax
	movq	%rdx, 16(%rax)
	movq	_TIG_iO_WCRC_1_main_1_opaque_list_1(%rip), %rdx
	movq	-24(%rbp), %rax
	movq	%rdx, 8(%rax)
	movq	_TIG_iO_WCRC_1_main_1_opaque_list_1(%rip), %rax
	movq	16(%rax), %rax
	movq	-24(%rbp), %rdx
	movq	%rdx, 8(%rax)
	movq	_TIG_iO_WCRC_1_main_1_opaque_list_1(%rip), %rax
	movq	-24(%rbp), %rdx
	movq	%rdx, 16(%rax)
	call	rand@PLT
	movl	%eax, -36(%rbp)
	movl	$24, %edi
	call	malloc@PLT
	movq	%rax, -16(%rbp)
	movq	-16(%rbp), %rax
	movl	-36(%rbp), %edx
	movl	%edx, (%rax)
	movq	_TIG_iO_WCRC_1_main_1_opaque_list_1(%rip), %rax
	movq	16(%rax), %rdx
	movq	-16(%rbp), %rax
	movq	%rdx, 16(%rax)
	movq	_TIG_iO_WCRC_1_main_1_opaque_list_1(%rip), %rdx
	movq	-16(%rbp), %rax
	movq	%rdx, 8(%rax)
	movq	_TIG_iO_WCRC_1_main_1_opaque_list_1(%rip), %rax
	movq	16(%rax), %rax
	movq	-16(%rbp), %rdx
	movq	%rdx, 8(%rax)
	movq	_TIG_iO_WCRC_1_main_1_opaque_list_1(%rip), %rax
	movq	-16(%rbp), %rdx
	movq	%rdx, 16(%rax)
	movq	_TIG_iO_WCRC_1_main_1_opaque_list_1(%rip), %rax
	movq	16(%rax), %rax
	movq	%rax, _TIG_iO_WCRC_1_main_1_opaque_ptr_1(%rip)
	movq	_TIG_iO_WCRC_1_main_1_opaque_ptr_1(%rip), %rax
	movq	%rax, _TIG_iO_WCRC_1_main_1_opaque_ptr_2(%rip)
	nop
	nop
	leaq	.LC1(%rip), %rax
	movq	%rax, %rdi
	movl	$0, %eax
	call	printf@PLT
	movl	$1, -44(%rbp)
	movq	_TIG_iO_WCRC_1_producer_1_opaque_ptr_1(%rip), %rdx
	movq	_TIG_iO_WCRC_1_producer_1_opaque_ptr_2(%rip), %rax
	cmpq	%rax, %rdx
	jne	.L15
	call	consumer
	jmp	.L15
.L26:
	leaq	.LC2(%rip), %rax
	movq	%rax, %rdi
	movl	$0, %eax
	call	printf@PLT
	leaq	-48(%rbp), %rax
	movq	%rax, %rsi
	leaq	.LC3(%rip), %rax
	movq	%rax, %rdi
	movl	$0, %eax
	call	__isoc99_scanf@PLT
	movl	-48(%rbp), %eax
	cmpl	$3, %eax
	je	.L16
	cmpl	$3, %eax
	jg	.L17
	cmpl	$1, %eax
	je	.L18
	cmpl	$2, %eax
	je	.L19
	jmp	.L17
.L18:
	movl	mutex(%rip), %eax
	cmpl	$1, %eax
	jne	.L20
	movl	empty(%rip), %eax
	testl	%eax, %eax
	je	.L21
	call	producer
	jmp	.L17
.L21:
	leaq	.LC4(%rip), %rax
	movq	%rax, %rdi
	movl	$0, %eax
	call	printf@PLT
	jmp	.L17
.L20:
	leaq	.LC4(%rip), %rax
	movq	%rax, %rdi
	movl	$0, %eax
	call	printf@PLT
	jmp	.L17
.L19:
	movl	mutex(%rip), %eax
	cmpl	$1, %eax
	jne	.L23
	movl	full(%rip), %eax
	testl	%eax, %eax
	je	.L24
	call	consumer
	jmp	.L17
.L24:
	leaq	.LC5(%rip), %rax
	movq	%rax, %rdi
	movl	$0, %eax
	call	printf@PLT
	jmp	.L17
.L23:
	leaq	.LC5(%rip), %rax
	movq	%rax, %rdi
	movl	$0, %eax
	call	printf@PLT
	jmp	.L17
.L16:
	movl	$0, %edi
	call	exit@PLT
.L17:
	addl	$1, -44(%rbp)
.L15:
	cmpl	$0, -44(%rbp)
	jg	.L26
	movl	$0, %eax
	movq	-8(%rbp), %rdx
	subq	%fs:40, %rdx
	je	.L28
	call	__stack_chk_fail@PLT
.L28:
	leave
	.cfi_def_cfa 7, 8
	ret
	.cfi_endproc
.LFE4:
	.size	main, .-main
	.section	.rodata
.LC6:
	.string	"\nconsumer consumes item %d"
	.text
	.globl	consumer
	.type	consumer, @function
consumer:
.LFB6:
	.cfi_startproc
	endbr64
	pushq	%rbp
	.cfi_def_cfa_offset 16
	.cfi_offset 6, -16
	movq	%rsp, %rbp
	.cfi_def_cfa_register 6
	subq	$64, %rsp
#APP
# 57 "/usr/include/x86_64-linux-gnu/bits/byteswap.h" 1
	##_ANNOTATION_INITIALREGION_-TIG-iO-WCRC-1-consumer--14
# 0 "" 2
# 61 "/usr/include/x86_64-linux-gnu/bits/byteswap.h" 1
	##_ANNOTATION_ATOMICREGION_-TIG-iO-WCRC-1-consumer--13
# 0 "" 2
#NO_APP
	movl	$24, %edi
	call	malloc@PLT
	movq	%rax, -40(%rbp)
	movq	-40(%rbp), %rax
	movq	-40(%rbp), %rdx
	movq	%rdx, (%rax)
	movq	-40(%rbp), %rax
	movq	-40(%rbp), %rdx
	movq	%rdx, 8(%rax)
	movq	-40(%rbp), %rax
	movq	%rax, _TIG_iO_WCRC_1_consumer_1_opaque_list_1(%rip)
	call	rand@PLT
	movl	%eax, -56(%rbp)
	movl	$24, %edi
	call	malloc@PLT
	movq	%rax, -32(%rbp)
	movq	-32(%rbp), %rax
	movl	$0, 16(%rax)
	movq	_TIG_iO_WCRC_1_consumer_1_opaque_list_1(%rip), %rax
	movq	(%rax), %rdx
	movq	-32(%rbp), %rax
	movq	%rdx, (%rax)
	movq	_TIG_iO_WCRC_1_consumer_1_opaque_list_1(%rip), %rdx
	movq	-32(%rbp), %rax
	movq	%rdx, 8(%rax)
	movq	_TIG_iO_WCRC_1_consumer_1_opaque_list_1(%rip), %rax
	movq	(%rax), %rax
	movq	-32(%rbp), %rdx
	movq	%rdx, 8(%rax)
	movq	_TIG_iO_WCRC_1_consumer_1_opaque_list_1(%rip), %rax
	movq	-32(%rbp), %rdx
	movq	%rdx, (%rax)
	call	rand@PLT
	movl	%eax, -52(%rbp)
	movl	$24, %edi
	call	malloc@PLT
	movq	%rax, -24(%rbp)
	movq	-24(%rbp), %rax
	movl	-52(%rbp), %edx
	movl	%edx, 16(%rax)
	movq	_TIG_iO_WCRC_1_consumer_1_opaque_list_1(%rip), %rax
	movq	(%rax), %rdx
	movq	-24(%rbp), %rax
	movq	%rdx, (%rax)
	movq	_TIG_iO_WCRC_1_consumer_1_opaque_list_1(%rip), %rdx
	movq	-24(%rbp), %rax
	movq	%rdx, 8(%rax)
	movq	_TIG_iO_WCRC_1_consumer_1_opaque_list_1(%rip), %rax
	movq	(%rax), %rax
	movq	-24(%rbp), %rdx
	movq	%rdx, 8(%rax)
	movq	_TIG_iO_WCRC_1_consumer_1_opaque_list_1(%rip), %rax
	movq	-24(%rbp), %rdx
	movq	%rdx, (%rax)
	call	rand@PLT
	movl	%eax, -48(%rbp)
	movl	$24, %edi
	call	malloc@PLT
	movq	%rax, -16(%rbp)
	movl	-48(%rbp), %eax
	leal	(%rax,%rax), %edx
	movq	-16(%rbp), %rax
	movl	%edx, 16(%rax)
	movq	_TIG_iO_WCRC_1_consumer_1_opaque_list_1(%rip), %rax
	movq	(%rax), %rdx
	movq	-16(%rbp), %rax
	movq	%rdx, (%rax)
	movq	_TIG_iO_WCRC_1_consumer_1_opaque_list_1(%rip), %rdx
	movq	-16(%rbp), %rax
	movq	%rdx, 8(%rax)
	movq	_TIG_iO_WCRC_1_consumer_1_opaque_list_1(%rip), %rax
	movq	(%rax), %rax
	movq	-16(%rbp), %rdx
	movq	%rdx, 8(%rax)
	movq	_TIG_iO_WCRC_1_consumer_1_opaque_list_1(%rip), %rax
	movq	-16(%rbp), %rdx
	movq	%rdx, (%rax)
	call	rand@PLT
	movl	%eax, -44(%rbp)
	movl	$24, %edi
	call	malloc@PLT
	movq	%rax, -8(%rbp)
	movl	-44(%rbp), %edx
	movl	%edx, %eax
	addl	%eax, %eax
	addl	%eax, %edx
	movq	-8(%rbp), %rax
	movl	%edx, 16(%rax)
	movq	_TIG_iO_WCRC_1_consumer_1_opaque_list_1(%rip), %rax
	movq	(%rax), %rdx
	movq	-8(%rbp), %rax
	movq	%rdx, (%rax)
	movq	_TIG_iO_WCRC_1_consumer_1_opaque_list_1(%rip), %rdx
	movq	-8(%rbp), %rax
	movq	%rdx, 8(%rax)
	movq	_TIG_iO_WCRC_1_consumer_1_opaque_list_1(%rip), %rax
	movq	(%rax), %rax
	movq	-8(%rbp), %rdx
	movq	%rdx, 8(%rax)
	movq	_TIG_iO_WCRC_1_consumer_1_opaque_list_1(%rip), %rax
	movq	-8(%rbp), %rdx
	movq	%rdx, (%rax)
	movq	_TIG_iO_WCRC_1_consumer_1_opaque_list_1(%rip), %rax
	movq	(%rax), %rax
	movq	%rax, _TIG_iO_WCRC_1_consumer_1_opaque_ptr_1(%rip)
	movq	_TIG_iO_WCRC_1_consumer_1_opaque_ptr_1(%rip), %rax
	movq	%rax, _TIG_iO_WCRC_1_consumer_1_opaque_ptr_2(%rip)
	movq	_TIG_iO_WCRC_1_consumer_1_opaque_ptr_2(%rip), %rax
	movq	(%rax), %rax
	movq	%rax, _TIG_iO_WCRC_1_consumer_1_opaque_ptr_2(%rip)
	nop
	nop
	movl	mutex(%rip), %eax
	subl	$1, %eax
	movl	%eax, mutex(%rip)
	movl	full(%rip), %eax
	subl	$1, %eax
	movl	%eax, full(%rip)
	movl	empty(%rip), %eax
	addl	$1, %eax
	movl	%eax, empty(%rip)
	movl	x(%rip), %eax
	movl	%eax, %esi
	leaq	.LC6(%rip), %rax
	movq	%rax, %rdi
	movl	$0, %eax
	call	printf@PLT
	movl	x(%rip), %eax
	subl	$1, %eax
	movl	%eax, x(%rip)
	movl	mutex(%rip), %eax
	addl	$1, %eax
	movl	%eax, mutex(%rip)
	movq	_TIG_iO_WCRC_1_producer_1_opaque_ptr_1(%rip), %rdx
	movq	_TIG_iO_WCRC_1_producer_1_opaque_ptr_2(%rip), %rax
	cmpq	%rax, %rdx
	leave
	.cfi_def_cfa 7, 8
	ret
	.cfi_endproc
.LFE6:
	.size	consumer, .-consumer
	.ident	"GCC: (Ubuntu 11.4.0-1ubuntu1~22.04) 11.4.0"
	.section	.note.GNU-stack,"",@progbits
	.section	.note.gnu.property,"a"
	.align 8
	.long	1f - 0f
	.long	4f - 1f
	.long	5
0:
	.string	"GNU"
1:
	.align 8
	.long	0xc0000002
	.long	3f - 2f
2:
	.long	0x3
3:
	.align 8
4:
