	.file	"Vaibhav22p-qw_DSA-Practice_stack_opaque.c"
	.text
	.globl	_TIG_iO_w3gX_1___bswap_32_1_opaque_ptr_1
	.bss
	.align 8
	.type	_TIG_iO_w3gX_1___bswap_32_1_opaque_ptr_1, @object
	.size	_TIG_iO_w3gX_1___bswap_32_1_opaque_ptr_1, 8
_TIG_iO_w3gX_1___bswap_32_1_opaque_ptr_1:
	.zero	8
	.globl	_TIG_iO_w3gX_1_print_1_opaque_ptr_2
	.align 8
	.type	_TIG_iO_w3gX_1_print_1_opaque_ptr_2, @object
	.size	_TIG_iO_w3gX_1_print_1_opaque_ptr_2, 8
_TIG_iO_w3gX_1_print_1_opaque_ptr_2:
	.zero	8
	.globl	_TIG_IZ_w3gX_envp
	.align 8
	.type	_TIG_IZ_w3gX_envp, @object
	.size	_TIG_IZ_w3gX_envp, 8
_TIG_IZ_w3gX_envp:
	.zero	8
	.globl	_TIG_iO_w3gX_1_push_1_opaque_ptr_1
	.align 8
	.type	_TIG_iO_w3gX_1_push_1_opaque_ptr_1, @object
	.size	_TIG_iO_w3gX_1_push_1_opaque_ptr_1, 8
_TIG_iO_w3gX_1_push_1_opaque_ptr_1:
	.zero	8
	.globl	stack
	.align 16
	.type	stack, @object
	.size	stack, 20
stack:
	.zero	20
	.globl	_TIG_iO_w3gX_1___uint32_identity_1_opaque_list_1
	.align 8
	.type	_TIG_iO_w3gX_1___uint32_identity_1_opaque_list_1, @object
	.size	_TIG_iO_w3gX_1___uint32_identity_1_opaque_list_1, 8
_TIG_iO_w3gX_1___uint32_identity_1_opaque_list_1:
	.zero	8
	.globl	_TIG_iO_w3gX_1___bswap_32_1_opaque_list_2
	.align 8
	.type	_TIG_iO_w3gX_1___bswap_32_1_opaque_list_2, @object
	.size	_TIG_iO_w3gX_1___bswap_32_1_opaque_list_2, 8
_TIG_iO_w3gX_1___bswap_32_1_opaque_list_2:
	.zero	8
	.globl	_TIG_iO_w3gX_1_print_1_opaque_list_2
	.align 8
	.type	_TIG_iO_w3gX_1_print_1_opaque_list_2, @object
	.size	_TIG_iO_w3gX_1_print_1_opaque_list_2, 8
_TIG_iO_w3gX_1_print_1_opaque_list_2:
	.zero	8
	.globl	_TIG_iO_w3gX_1___uint32_identity_1_opaque_ptr_2
	.align 8
	.type	_TIG_iO_w3gX_1___uint32_identity_1_opaque_ptr_2, @object
	.size	_TIG_iO_w3gX_1___uint32_identity_1_opaque_ptr_2, 8
_TIG_iO_w3gX_1___uint32_identity_1_opaque_ptr_2:
	.zero	8
	.globl	_TIG_iO_w3gX_1___bswap_16_1_opaque_ptr_2
	.align 8
	.type	_TIG_iO_w3gX_1___bswap_16_1_opaque_ptr_2, @object
	.size	_TIG_iO_w3gX_1___bswap_16_1_opaque_ptr_2, 8
_TIG_iO_w3gX_1___bswap_16_1_opaque_ptr_2:
	.zero	8
	.globl	_TIG_iO_w3gX_1_menu_1_opaque_ptr_1
	.align 8
	.type	_TIG_iO_w3gX_1_menu_1_opaque_ptr_1, @object
	.size	_TIG_iO_w3gX_1_menu_1_opaque_ptr_1, 8
_TIG_iO_w3gX_1_menu_1_opaque_ptr_1:
	.zero	8
	.globl	_TIG_iO_w3gX_1___uint32_identity_1_opaque_ptr_1
	.align 8
	.type	_TIG_iO_w3gX_1___uint32_identity_1_opaque_ptr_1, @object
	.size	_TIG_iO_w3gX_1___uint32_identity_1_opaque_ptr_1, 8
_TIG_iO_w3gX_1___uint32_identity_1_opaque_ptr_1:
	.zero	8
	.globl	_TIG_iO_w3gX_1_print_1_opaque_ptr_1
	.align 8
	.type	_TIG_iO_w3gX_1_print_1_opaque_ptr_1, @object
	.size	_TIG_iO_w3gX_1_print_1_opaque_ptr_1, 8
_TIG_iO_w3gX_1_print_1_opaque_ptr_1:
	.zero	8
	.globl	_TIG_iO_w3gX_1___bswap_32_1_opaque_ptr_2
	.align 8
	.type	_TIG_iO_w3gX_1___bswap_32_1_opaque_ptr_2, @object
	.size	_TIG_iO_w3gX_1___bswap_32_1_opaque_ptr_2, 8
_TIG_iO_w3gX_1___bswap_32_1_opaque_ptr_2:
	.zero	8
	.globl	_TIG_iO_w3gX_1_main_1_opaque_ptr_2
	.align 8
	.type	_TIG_iO_w3gX_1_main_1_opaque_ptr_2, @object
	.size	_TIG_iO_w3gX_1_main_1_opaque_ptr_2, 8
_TIG_iO_w3gX_1_main_1_opaque_ptr_2:
	.zero	8
	.globl	_TIG_iO_w3gX_1___bswap_64_1_opaque_ptr_2
	.align 8
	.type	_TIG_iO_w3gX_1___bswap_64_1_opaque_ptr_2, @object
	.size	_TIG_iO_w3gX_1___bswap_64_1_opaque_ptr_2, 8
_TIG_iO_w3gX_1___bswap_64_1_opaque_ptr_2:
	.zero	8
	.globl	_TIG_iO_w3gX_1___bswap_64_1_opaque_list_1
	.align 8
	.type	_TIG_iO_w3gX_1___bswap_64_1_opaque_list_1, @object
	.size	_TIG_iO_w3gX_1___bswap_64_1_opaque_list_1, 8
_TIG_iO_w3gX_1___bswap_64_1_opaque_list_1:
	.zero	8
	.globl	_TIG_iO_w3gX_1___uint64_identity_1_opaque_list_2
	.align 8
	.type	_TIG_iO_w3gX_1___uint64_identity_1_opaque_list_2, @object
	.size	_TIG_iO_w3gX_1___uint64_identity_1_opaque_list_2, 8
_TIG_iO_w3gX_1___uint64_identity_1_opaque_list_2:
	.zero	8
	.globl	_TIG_iO_w3gX_1___bswap_64_1_opaque_ptr_1
	.align 8
	.type	_TIG_iO_w3gX_1___bswap_64_1_opaque_ptr_1, @object
	.size	_TIG_iO_w3gX_1___bswap_64_1_opaque_ptr_1, 8
_TIG_iO_w3gX_1___bswap_64_1_opaque_ptr_1:
	.zero	8
	.globl	_TIG_iO_w3gX_1___bswap_16_1_opaque_list_2
	.align 8
	.type	_TIG_iO_w3gX_1___bswap_16_1_opaque_list_2, @object
	.size	_TIG_iO_w3gX_1___bswap_16_1_opaque_list_2, 8
_TIG_iO_w3gX_1___bswap_16_1_opaque_list_2:
	.zero	8
	.globl	_TIG_iO_w3gX_1_main_1_opaque_ptr_1
	.align 8
	.type	_TIG_iO_w3gX_1_main_1_opaque_ptr_1, @object
	.size	_TIG_iO_w3gX_1_main_1_opaque_ptr_1, 8
_TIG_iO_w3gX_1_main_1_opaque_ptr_1:
	.zero	8
	.globl	_TIG_iO_w3gX_1_menu_1_opaque_list_1
	.align 8
	.type	_TIG_iO_w3gX_1_menu_1_opaque_list_1, @object
	.size	_TIG_iO_w3gX_1_menu_1_opaque_list_1, 8
_TIG_iO_w3gX_1_menu_1_opaque_list_1:
	.zero	8
	.globl	_TIG_iO_w3gX_1_print_1_opaque_list_1
	.align 8
	.type	_TIG_iO_w3gX_1_print_1_opaque_list_1, @object
	.size	_TIG_iO_w3gX_1_print_1_opaque_list_1, 8
_TIG_iO_w3gX_1_print_1_opaque_list_1:
	.zero	8
	.globl	_TIG_iO_w3gX_1___bswap_64_1_opaque_list_2
	.align 8
	.type	_TIG_iO_w3gX_1___bswap_64_1_opaque_list_2, @object
	.size	_TIG_iO_w3gX_1___bswap_64_1_opaque_list_2, 8
_TIG_iO_w3gX_1___bswap_64_1_opaque_list_2:
	.zero	8
	.globl	_TIG_iO_w3gX_1___uint64_identity_1_opaque_list_1
	.align 8
	.type	_TIG_iO_w3gX_1___uint64_identity_1_opaque_list_1, @object
	.size	_TIG_iO_w3gX_1___uint64_identity_1_opaque_list_1, 8
_TIG_iO_w3gX_1___uint64_identity_1_opaque_list_1:
	.zero	8
	.globl	_TIG_iO_w3gX_1_pop_1_opaque_list_2
	.align 8
	.type	_TIG_iO_w3gX_1_pop_1_opaque_list_2, @object
	.size	_TIG_iO_w3gX_1_pop_1_opaque_list_2, 8
_TIG_iO_w3gX_1_pop_1_opaque_list_2:
	.zero	8
	.globl	_TIG_iO_w3gX_1_push_1_opaque_ptr_2
	.align 8
	.type	_TIG_iO_w3gX_1_push_1_opaque_ptr_2, @object
	.size	_TIG_iO_w3gX_1_push_1_opaque_ptr_2, 8
_TIG_iO_w3gX_1_push_1_opaque_ptr_2:
	.zero	8
	.globl	_TIG_iO_w3gX_1___uint16_identity_1_opaque_list_1
	.align 8
	.type	_TIG_iO_w3gX_1___uint16_identity_1_opaque_list_1, @object
	.size	_TIG_iO_w3gX_1___uint16_identity_1_opaque_list_1, 8
_TIG_iO_w3gX_1___uint16_identity_1_opaque_list_1:
	.zero	8
	.globl	_TIG_iO_w3gX_1___uint64_identity_1_opaque_ptr_2
	.align 8
	.type	_TIG_iO_w3gX_1___uint64_identity_1_opaque_ptr_2, @object
	.size	_TIG_iO_w3gX_1___uint64_identity_1_opaque_ptr_2, 8
_TIG_iO_w3gX_1___uint64_identity_1_opaque_ptr_2:
	.zero	8
	.globl	_TIG_iO_w3gX_1_push_1_opaque_list_2
	.align 8
	.type	_TIG_iO_w3gX_1_push_1_opaque_list_2, @object
	.size	_TIG_iO_w3gX_1_push_1_opaque_list_2, 8
_TIG_iO_w3gX_1_push_1_opaque_list_2:
	.zero	8
	.globl	_TIG_IZ_w3gX_argv
	.align 8
	.type	_TIG_IZ_w3gX_argv, @object
	.size	_TIG_IZ_w3gX_argv, 8
_TIG_IZ_w3gX_argv:
	.zero	8
	.globl	_TIG_iO_w3gX_1_menu_1_opaque_list_2
	.align 8
	.type	_TIG_iO_w3gX_1_menu_1_opaque_list_2, @object
	.size	_TIG_iO_w3gX_1_menu_1_opaque_list_2, 8
_TIG_iO_w3gX_1_menu_1_opaque_list_2:
	.zero	8
	.globl	_TIG_IZ_w3gX_argc
	.align 4
	.type	_TIG_IZ_w3gX_argc, @object
	.size	_TIG_IZ_w3gX_argc, 4
_TIG_IZ_w3gX_argc:
	.zero	4
	.globl	_TIG_iO_w3gX_1_pop_1_opaque_ptr_2
	.align 8
	.type	_TIG_iO_w3gX_1_pop_1_opaque_ptr_2, @object
	.size	_TIG_iO_w3gX_1_pop_1_opaque_ptr_2, 8
_TIG_iO_w3gX_1_pop_1_opaque_ptr_2:
	.zero	8
	.globl	top
	.align 4
	.type	top, @object
	.size	top, 4
top:
	.zero	4
	.globl	_TIG_iO_w3gX_1_main_1_opaque_list_2
	.align 8
	.type	_TIG_iO_w3gX_1_main_1_opaque_list_2, @object
	.size	_TIG_iO_w3gX_1_main_1_opaque_list_2, 8
_TIG_iO_w3gX_1_main_1_opaque_list_2:
	.zero	8
	.globl	_TIG_iO_w3gX_1_pop_1_opaque_list_1
	.align 8
	.type	_TIG_iO_w3gX_1_pop_1_opaque_list_1, @object
	.size	_TIG_iO_w3gX_1_pop_1_opaque_list_1, 8
_TIG_iO_w3gX_1_pop_1_opaque_list_1:
	.zero	8
	.globl	_TIG_iO_w3gX_1___uint32_identity_1_opaque_list_2
	.align 8
	.type	_TIG_iO_w3gX_1___uint32_identity_1_opaque_list_2, @object
	.size	_TIG_iO_w3gX_1___uint32_identity_1_opaque_list_2, 8
_TIG_iO_w3gX_1___uint32_identity_1_opaque_list_2:
	.zero	8
	.globl	_TIG_iO_w3gX_1___bswap_16_1_opaque_list_1
	.align 8
	.type	_TIG_iO_w3gX_1___bswap_16_1_opaque_list_1, @object
	.size	_TIG_iO_w3gX_1___bswap_16_1_opaque_list_1, 8
_TIG_iO_w3gX_1___bswap_16_1_opaque_list_1:
	.zero	8
	.globl	_TIG_iO_w3gX_1___uint16_identity_1_opaque_list_2
	.align 8
	.type	_TIG_iO_w3gX_1___uint16_identity_1_opaque_list_2, @object
	.size	_TIG_iO_w3gX_1___uint16_identity_1_opaque_list_2, 8
_TIG_iO_w3gX_1___uint16_identity_1_opaque_list_2:
	.zero	8
	.globl	_TIG_iO_w3gX_1_menu_1_opaque_ptr_2
	.align 8
	.type	_TIG_iO_w3gX_1_menu_1_opaque_ptr_2, @object
	.size	_TIG_iO_w3gX_1_menu_1_opaque_ptr_2, 8
_TIG_iO_w3gX_1_menu_1_opaque_ptr_2:
	.zero	8
	.globl	_TIG_iO_w3gX_1___uint16_identity_1_opaque_ptr_1
	.align 8
	.type	_TIG_iO_w3gX_1___uint16_identity_1_opaque_ptr_1, @object
	.size	_TIG_iO_w3gX_1___uint16_identity_1_opaque_ptr_1, 8
_TIG_iO_w3gX_1___uint16_identity_1_opaque_ptr_1:
	.zero	8
	.globl	_TIG_iO_w3gX_1___uint16_identity_1_opaque_ptr_2
	.align 8
	.type	_TIG_iO_w3gX_1___uint16_identity_1_opaque_ptr_2, @object
	.size	_TIG_iO_w3gX_1___uint16_identity_1_opaque_ptr_2, 8
_TIG_iO_w3gX_1___uint16_identity_1_opaque_ptr_2:
	.zero	8
	.globl	_TIG_iO_w3gX_1___bswap_16_1_opaque_ptr_1
	.align 8
	.type	_TIG_iO_w3gX_1___bswap_16_1_opaque_ptr_1, @object
	.size	_TIG_iO_w3gX_1___bswap_16_1_opaque_ptr_1, 8
_TIG_iO_w3gX_1___bswap_16_1_opaque_ptr_1:
	.zero	8
	.globl	_TIG_iO_w3gX_1___bswap_32_1_opaque_list_1
	.align 8
	.type	_TIG_iO_w3gX_1___bswap_32_1_opaque_list_1, @object
	.size	_TIG_iO_w3gX_1___bswap_32_1_opaque_list_1, 8
_TIG_iO_w3gX_1___bswap_32_1_opaque_list_1:
	.zero	8
	.globl	_TIG_iO_w3gX_1_main_1_opaque_list_1
	.align 8
	.type	_TIG_iO_w3gX_1_main_1_opaque_list_1, @object
	.size	_TIG_iO_w3gX_1_main_1_opaque_list_1, 8
_TIG_iO_w3gX_1_main_1_opaque_list_1:
	.zero	8
	.globl	_TIG_iO_w3gX_1___uint64_identity_1_opaque_ptr_1
	.align 8
	.type	_TIG_iO_w3gX_1___uint64_identity_1_opaque_ptr_1, @object
	.size	_TIG_iO_w3gX_1___uint64_identity_1_opaque_ptr_1, 8
_TIG_iO_w3gX_1___uint64_identity_1_opaque_ptr_1:
	.zero	8
	.globl	_TIG_iO_w3gX_1_push_1_opaque_list_1
	.align 8
	.type	_TIG_iO_w3gX_1_push_1_opaque_list_1, @object
	.size	_TIG_iO_w3gX_1_push_1_opaque_list_1, 8
_TIG_iO_w3gX_1_push_1_opaque_list_1:
	.zero	8
	.globl	_TIG_iO_w3gX_1_pop_1_opaque_ptr_1
	.align 8
	.type	_TIG_iO_w3gX_1_pop_1_opaque_ptr_1, @object
	.size	_TIG_iO_w3gX_1_pop_1_opaque_ptr_1, 8
_TIG_iO_w3gX_1_pop_1_opaque_ptr_1:
	.zero	8
	.section	.rodata
.LC0:
	.string	"Oops! Unable to PUSH."
	.text
	.globl	push
	.type	push, @function
push:
.LFB3:
	.cfi_startproc
	endbr64
	pushq	%rbp
	.cfi_def_cfa_offset 16
	.cfi_offset 6, -16
	movq	%rsp, %rbp
	.cfi_def_cfa_register 6
	subq	$64, %rsp
	movl	%edi, -52(%rbp)
#APP
# 63 "/usr/include/x86_64-linux-gnu/bits/uintn-identity.h" 1
	##_ANNOTATION_INITIALREGION_-TIG-iO-w3gX-1-push--22
# 0 "" 2
# 67 "/usr/include/x86_64-linux-gnu/bits/uintn-identity.h" 1
	##_ANNOTATION_ATOMICREGION_-TIG-iO-w3gX-1-push--21
# 0 "" 2
#NO_APP
	movl	$24, %edi
	call	malloc@PLT
	movq	%rax, -32(%rbp)
	movq	-32(%rbp), %rax
	movq	-32(%rbp), %rdx
	movq	%rdx, (%rax)
	movq	-32(%rbp), %rax
	movq	-32(%rbp), %rdx
	movq	%rdx, 16(%rax)
	movq	-32(%rbp), %rax
	movq	%rax, _TIG_iO_w3gX_1_push_1_opaque_list_1(%rip)
	call	rand@PLT
	movl	%eax, -44(%rbp)
	movl	$24, %edi
	call	malloc@PLT
	movq	%rax, -24(%rbp)
	movq	-24(%rbp), %rax
	movl	$0, 8(%rax)
	movq	_TIG_iO_w3gX_1_push_1_opaque_list_1(%rip), %rax
	movq	(%rax), %rdx
	movq	-24(%rbp), %rax
	movq	%rdx, (%rax)
	movq	_TIG_iO_w3gX_1_push_1_opaque_list_1(%rip), %rdx
	movq	-24(%rbp), %rax
	movq	%rdx, 16(%rax)
	movq	_TIG_iO_w3gX_1_push_1_opaque_list_1(%rip), %rax
	movq	(%rax), %rax
	movq	-24(%rbp), %rdx
	movq	%rdx, 16(%rax)
	movq	_TIG_iO_w3gX_1_push_1_opaque_list_1(%rip), %rax
	movq	-24(%rbp), %rdx
	movq	%rdx, (%rax)
	call	rand@PLT
	movl	%eax, -40(%rbp)
	movl	$24, %edi
	call	malloc@PLT
	movq	%rax, -16(%rbp)
	movq	-16(%rbp), %rax
	movl	-40(%rbp), %edx
	movl	%edx, 8(%rax)
	movq	_TIG_iO_w3gX_1_push_1_opaque_list_1(%rip), %rax
	movq	(%rax), %rdx
	movq	-16(%rbp), %rax
	movq	%rdx, (%rax)
	movq	_TIG_iO_w3gX_1_push_1_opaque_list_1(%rip), %rdx
	movq	-16(%rbp), %rax
	movq	%rdx, 16(%rax)
	movq	_TIG_iO_w3gX_1_push_1_opaque_list_1(%rip), %rax
	movq	(%rax), %rax
	movq	-16(%rbp), %rdx
	movq	%rdx, 16(%rax)
	movq	_TIG_iO_w3gX_1_push_1_opaque_list_1(%rip), %rax
	movq	-16(%rbp), %rdx
	movq	%rdx, (%rax)
	call	rand@PLT
	movl	%eax, -36(%rbp)
	movl	$24, %edi
	call	malloc@PLT
	movq	%rax, -8(%rbp)
	movl	-36(%rbp), %eax
	leal	(%rax,%rax), %edx
	movq	-8(%rbp), %rax
	movl	%edx, 8(%rax)
	movq	_TIG_iO_w3gX_1_push_1_opaque_list_1(%rip), %rax
	movq	(%rax), %rdx
	movq	-8(%rbp), %rax
	movq	%rdx, (%rax)
	movq	_TIG_iO_w3gX_1_push_1_opaque_list_1(%rip), %rdx
	movq	-8(%rbp), %rax
	movq	%rdx, 16(%rax)
	movq	_TIG_iO_w3gX_1_push_1_opaque_list_1(%rip), %rax
	movq	(%rax), %rax
	movq	-8(%rbp), %rdx
	movq	%rdx, 16(%rax)
	movq	_TIG_iO_w3gX_1_push_1_opaque_list_1(%rip), %rax
	movq	-8(%rbp), %rdx
	movq	%rdx, (%rax)
	movq	_TIG_iO_w3gX_1_push_1_opaque_list_1(%rip), %rax
	movq	(%rax), %rax
	movq	%rax, _TIG_iO_w3gX_1_push_1_opaque_ptr_1(%rip)
	movq	_TIG_iO_w3gX_1_push_1_opaque_ptr_1(%rip), %rax
	movq	%rax, _TIG_iO_w3gX_1_push_1_opaque_ptr_2(%rip)
	movq	_TIG_iO_w3gX_1_push_1_opaque_ptr_2(%rip), %rax
	movq	(%rax), %rax
	movq	%rax, _TIG_iO_w3gX_1_push_1_opaque_ptr_2(%rip)
	nop
	nop
	movl	top(%rip), %eax
	cmpl	$4, %eax
	jne	.L2
	leaq	.LC0(%rip), %rax
	movq	%rax, %rdi
	movl	$0, %eax
	call	printf@PLT
	jmp	.L3
.L2:
	movl	top(%rip), %eax
	addl	$1, %eax
	movl	%eax, top(%rip)
	movl	top(%rip), %eax
	cltq
	leaq	0(,%rax,4), %rcx
	leaq	stack(%rip), %rdx
	movl	-52(%rbp), %eax
	movl	%eax, (%rcx,%rdx)
.L3:
	movq	_TIG_iO_w3gX_1_push_1_opaque_ptr_1(%rip), %rdx
	movq	_TIG_iO_w3gX_1_push_1_opaque_ptr_2(%rip), %rax
	cmpq	%rax, %rdx
	jne	.L6
#APP
# 16 "Vaibhav22p-qw_DSA-Practice_stack.c" 1
	.byte 0x31,0x51
# 0 "" 2
#NO_APP
	jmp	.L1
.L6:
	nop
.L1:
	leave
	.cfi_def_cfa 7, 8
	ret
	.cfi_endproc
.LFE3:
	.size	push, .-push
	.section	.rodata
.LC1:
	.string	"1.PUSH"
.LC2:
	.string	"2. POP"
.LC3:
	.string	"3. Exit"
	.text
	.globl	menu
	.type	menu, @function
menu:
.LFB4:
	.cfi_startproc
	endbr64
	pushq	%rbp
	.cfi_def_cfa_offset 16
	.cfi_offset 6, -16
	movq	%rsp, %rbp
	.cfi_def_cfa_register 6
	subq	$32, %rsp
#APP
# 34 "Vaibhav22p-qw_DSA-Practice_stack.c" 1
	##_ANNOTATION_INITIALREGION_-TIG-iO-w3gX-1-menu--16
# 0 "" 2
# 38 "Vaibhav22p-qw_DSA-Practice_stack.c" 1
	##_ANNOTATION_ATOMICREGION_-TIG-iO-w3gX-1-menu--15
# 0 "" 2
#NO_APP
	movl	$24, %edi
	call	malloc@PLT
	movq	%rax, -24(%rbp)
	movq	-24(%rbp), %rax
	movq	-24(%rbp), %rdx
	movq	%rdx, 16(%rax)
	movq	-24(%rbp), %rax
	movq	-24(%rbp), %rdx
	movq	%rdx, 8(%rax)
	movq	-24(%rbp), %rax
	movq	%rax, _TIG_iO_w3gX_1_menu_1_opaque_list_1(%rip)
	call	rand@PLT
	movl	%eax, -32(%rbp)
	movl	$24, %edi
	call	malloc@PLT
	movq	%rax, -16(%rbp)
	movq	-16(%rbp), %rax
	movl	$0, (%rax)
	movq	_TIG_iO_w3gX_1_menu_1_opaque_list_1(%rip), %rax
	movq	16(%rax), %rdx
	movq	-16(%rbp), %rax
	movq	%rdx, 16(%rax)
	movq	_TIG_iO_w3gX_1_menu_1_opaque_list_1(%rip), %rdx
	movq	-16(%rbp), %rax
	movq	%rdx, 8(%rax)
	movq	_TIG_iO_w3gX_1_menu_1_opaque_list_1(%rip), %rax
	movq	16(%rax), %rax
	movq	-16(%rbp), %rdx
	movq	%rdx, 8(%rax)
	movq	_TIG_iO_w3gX_1_menu_1_opaque_list_1(%rip), %rax
	movq	-16(%rbp), %rdx
	movq	%rdx, 16(%rax)
	call	rand@PLT
	movl	%eax, -28(%rbp)
	movl	$24, %edi
	call	malloc@PLT
	movq	%rax, -8(%rbp)
	movq	-8(%rbp), %rax
	movl	-28(%rbp), %edx
	movl	%edx, (%rax)
	movq	_TIG_iO_w3gX_1_menu_1_opaque_list_1(%rip), %rax
	movq	16(%rax), %rdx
	movq	-8(%rbp), %rax
	movq	%rdx, 16(%rax)
	movq	_TIG_iO_w3gX_1_menu_1_opaque_list_1(%rip), %rdx
	movq	-8(%rbp), %rax
	movq	%rdx, 8(%rax)
	movq	_TIG_iO_w3gX_1_menu_1_opaque_list_1(%rip), %rax
	movq	16(%rax), %rax
	movq	-8(%rbp), %rdx
	movq	%rdx, 8(%rax)
	movq	_TIG_iO_w3gX_1_menu_1_opaque_list_1(%rip), %rax
	movq	-8(%rbp), %rdx
	movq	%rdx, 16(%rax)
	movq	_TIG_iO_w3gX_1_menu_1_opaque_list_1(%rip), %rax
	movq	16(%rax), %rax
	movq	%rax, _TIG_iO_w3gX_1_menu_1_opaque_ptr_1(%rip)
	movq	_TIG_iO_w3gX_1_menu_1_opaque_ptr_1(%rip), %rax
	movq	%rax, _TIG_iO_w3gX_1_menu_1_opaque_ptr_2(%rip)
	nop
	nop
	leaq	.LC1(%rip), %rax
	movq	%rax, %rdi
	call	puts@PLT
	leaq	.LC2(%rip), %rax
	movq	%rax, %rdi
	call	puts@PLT
	leaq	.LC3(%rip), %rax
	movq	%rax, %rdi
	call	puts@PLT
	movq	_TIG_iO_w3gX_1_push_1_opaque_ptr_1(%rip), %rdx
	movq	_TIG_iO_w3gX_1_push_1_opaque_ptr_2(%rip), %rax
	cmpq	%rax, %rdx
	jne	.L10
#APP
# 39 "Vaibhav22p-qw_DSA-Practice_stack.c" 1
	.byte 0x0,0x0,0x0,0x0,0x45,0x31
# 0 "" 2
#NO_APP
	jmp	.L7
.L10:
	nop
.L7:
	leave
	.cfi_def_cfa 7, 8
	ret
	.cfi_endproc
.LFE4:
	.size	menu, .-menu
	.section	.rodata
.LC4:
	.string	"Empty"
.LC5:
	.string	"%d\n"
	.text
	.globl	print
	.type	print, @function
print:
.LFB5:
	.cfi_startproc
	endbr64
	pushq	%rbp
	.cfi_def_cfa_offset 16
	.cfi_offset 6, -16
	movq	%rsp, %rbp
	.cfi_def_cfa_register 6
	subq	$48, %rsp
#APP
# 58 "Vaibhav22p-qw_DSA-Practice_stack.c" 1
	##_ANNOTATION_INITIALREGION_-TIG-iO-w3gX-1-print--20
# 0 "" 2
# 62 "Vaibhav22p-qw_DSA-Practice_stack.c" 1
	##_ANNOTATION_ATOMICREGION_-TIG-iO-w3gX-1-print--19
# 0 "" 2
#NO_APP
	movl	$24, %edi
	call	malloc@PLT
	movq	%rax, -24(%rbp)
	movq	-24(%rbp), %rax
	movq	-24(%rbp), %rdx
	movq	%rdx, 8(%rax)
	movq	-24(%rbp), %rax
	movq	-24(%rbp), %rdx
	movq	%rdx, 16(%rax)
	movq	-24(%rbp), %rax
	movq	%rax, _TIG_iO_w3gX_1_print_1_opaque_list_1(%rip)
	call	rand@PLT
	movl	%eax, -32(%rbp)
	movl	$24, %edi
	call	malloc@PLT
	movq	%rax, -16(%rbp)
	movq	-16(%rbp), %rax
	movl	$0, (%rax)
	movq	_TIG_iO_w3gX_1_print_1_opaque_list_1(%rip), %rax
	movq	8(%rax), %rdx
	movq	-16(%rbp), %rax
	movq	%rdx, 8(%rax)
	movq	_TIG_iO_w3gX_1_print_1_opaque_list_1(%rip), %rdx
	movq	-16(%rbp), %rax
	movq	%rdx, 16(%rax)
	movq	_TIG_iO_w3gX_1_print_1_opaque_list_1(%rip), %rax
	movq	8(%rax), %rax
	movq	-16(%rbp), %rdx
	movq	%rdx, 16(%rax)
	movq	_TIG_iO_w3gX_1_print_1_opaque_list_1(%rip), %rax
	movq	-16(%rbp), %rdx
	movq	%rdx, 8(%rax)
	call	rand@PLT
	movl	%eax, -28(%rbp)
	movl	$24, %edi
	call	malloc@PLT
	movq	%rax, -8(%rbp)
	movq	-8(%rbp), %rax
	movl	-28(%rbp), %edx
	movl	%edx, (%rax)
	movq	_TIG_iO_w3gX_1_print_1_opaque_list_1(%rip), %rax
	movq	8(%rax), %rdx
	movq	-8(%rbp), %rax
	movq	%rdx, 8(%rax)
	movq	_TIG_iO_w3gX_1_print_1_opaque_list_1(%rip), %rdx
	movq	-8(%rbp), %rax
	movq	%rdx, 16(%rax)
	movq	_TIG_iO_w3gX_1_print_1_opaque_list_1(%rip), %rax
	movq	8(%rax), %rax
	movq	-8(%rbp), %rdx
	movq	%rdx, 16(%rax)
	movq	_TIG_iO_w3gX_1_print_1_opaque_list_1(%rip), %rax
	movq	-8(%rbp), %rdx
	movq	%rdx, 8(%rax)
	movq	_TIG_iO_w3gX_1_print_1_opaque_list_1(%rip), %rax
	movq	8(%rax), %rax
	movq	%rax, _TIG_iO_w3gX_1_print_1_opaque_ptr_1(%rip)
	movq	_TIG_iO_w3gX_1_print_1_opaque_ptr_1(%rip), %rax
	movq	%rax, _TIG_iO_w3gX_1_print_1_opaque_ptr_2(%rip)
	nop
	nop
	movl	top(%rip), %eax
	cmpl	$-1, %eax
	jne	.L12
	movq	_TIG_iO_w3gX_1_push_1_opaque_ptr_1(%rip), %rdx
	movq	_TIG_iO_w3gX_1_push_1_opaque_ptr_2(%rip), %rax
	cmpq	%rax, %rdx
	je	.L17
	leaq	.LC4(%rip), %rax
	movq	%rax, %rdi
	call	puts@PLT
	jmp	.L17
.L12:
	movl	top(%rip), %eax
	movl	%eax, -36(%rbp)
	jmp	.L15
.L16:
	movl	-36(%rbp), %eax
	cltq
	leaq	0(,%rax,4), %rdx
	leaq	stack(%rip), %rax
	movl	(%rdx,%rax), %eax
	movl	%eax, %esi
	leaq	.LC5(%rip), %rax
	movq	%rax, %rdi
	movl	$0, %eax
	call	printf@PLT
	subl	$1, -36(%rbp)
.L15:
	cmpl	$0, -36(%rbp)
	jns	.L16
	jmp	.L11
.L17:
	nop
.L11:
	leave
	.cfi_def_cfa 7, 8
	ret
	.cfi_endproc
.LFE5:
	.size	print, .-print
	.section	.rodata
.LC6:
	.string	">>> "
.LC7:
	.string	"%d"
.LC8:
	.string	"Enter Value : "
.LC9:
	.string	"\n| Final List |"
	.text
	.globl	main
	.type	main, @function
main:
.LFB6:
	.cfi_startproc
	endbr64
	pushq	%rbp
	.cfi_def_cfa_offset 16
	.cfi_offset 6, -16
	movq	%rsp, %rbp
	.cfi_def_cfa_register 6
	subq	$112, %rsp
	movl	%edi, -84(%rbp)
	movq	%rsi, -96(%rbp)
	movq	%rdx, -104(%rbp)
	movq	%fs:40, %rax
	movq	%rax, -8(%rbp)
	xorl	%eax, %eax
	movl	$-1, top(%rip)
	nop
.L19:
	movl	$0, -68(%rbp)
	jmp	.L20
.L21:
	movl	-68(%rbp), %eax
	cltq
	leaq	0(,%rax,4), %rdx
	leaq	stack(%rip), %rax
	movl	$0, (%rdx,%rax)
	addl	$1, -68(%rbp)
.L20:
	cmpl	$4, -68(%rbp)
	jle	.L21
	nop
.L22:
	movq	$0, _TIG_IZ_w3gX_envp(%rip)
	nop
.L23:
	movq	$0, _TIG_IZ_w3gX_argv(%rip)
	nop
.L24:
	movl	$0, _TIG_IZ_w3gX_argc(%rip)
	nop
	nop
.L25:
.L26:
#APP
# 99 "Vaibhav22p-qw_DSA-Practice_stack.c" 1
	##_ANNOTATION_INITIALREGION_-TIG-IZ-w3gX--0
# 0 "" 2
#NO_APP
	movl	-84(%rbp), %eax
	movl	%eax, _TIG_IZ_w3gX_argc(%rip)
	movq	-96(%rbp), %rax
	movq	%rax, _TIG_IZ_w3gX_argv(%rip)
	movq	-104(%rbp), %rax
	movq	%rax, _TIG_IZ_w3gX_envp(%rip)
#APP
# 106 "Vaibhav22p-qw_DSA-Practice_stack.c" 1
	##_ANNOTATION_ATOMICREGION_-TIG-iO-w3gX-1-main--13
# 0 "" 2
#NO_APP
	movl	$24, %edi
	call	malloc@PLT
	movq	%rax, -48(%rbp)
	movq	-48(%rbp), %rax
	movq	-48(%rbp), %rdx
	movq	%rdx, (%rax)
	movq	-48(%rbp), %rax
	movq	-48(%rbp), %rdx
	movq	%rdx, 8(%rax)
	movq	-48(%rbp), %rax
	movq	%rax, _TIG_iO_w3gX_1_main_1_opaque_list_1(%rip)
	call	rand@PLT
	movl	%eax, -64(%rbp)
	movl	$24, %edi
	call	malloc@PLT
	movq	%rax, -40(%rbp)
	movq	-40(%rbp), %rax
	movl	$0, 16(%rax)
	movq	_TIG_iO_w3gX_1_main_1_opaque_list_1(%rip), %rax
	movq	(%rax), %rdx
	movq	-40(%rbp), %rax
	movq	%rdx, (%rax)
	movq	_TIG_iO_w3gX_1_main_1_opaque_list_1(%rip), %rdx
	movq	-40(%rbp), %rax
	movq	%rdx, 8(%rax)
	movq	_TIG_iO_w3gX_1_main_1_opaque_list_1(%rip), %rax
	movq	(%rax), %rax
	movq	-40(%rbp), %rdx
	movq	%rdx, 8(%rax)
	movq	_TIG_iO_w3gX_1_main_1_opaque_list_1(%rip), %rax
	movq	-40(%rbp), %rdx
	movq	%rdx, (%rax)
	call	rand@PLT
	movl	%eax, -60(%rbp)
	movl	$24, %edi
	call	malloc@PLT
	movq	%rax, -32(%rbp)
	movq	-32(%rbp), %rax
	movl	-60(%rbp), %edx
	movl	%edx, 16(%rax)
	movq	_TIG_iO_w3gX_1_main_1_opaque_list_1(%rip), %rax
	movq	(%rax), %rdx
	movq	-32(%rbp), %rax
	movq	%rdx, (%rax)
	movq	_TIG_iO_w3gX_1_main_1_opaque_list_1(%rip), %rdx
	movq	-32(%rbp), %rax
	movq	%rdx, 8(%rax)
	movq	_TIG_iO_w3gX_1_main_1_opaque_list_1(%rip), %rax
	movq	(%rax), %rax
	movq	-32(%rbp), %rdx
	movq	%rdx, 8(%rax)
	movq	_TIG_iO_w3gX_1_main_1_opaque_list_1(%rip), %rax
	movq	-32(%rbp), %rdx
	movq	%rdx, (%rax)
	call	rand@PLT
	movl	%eax, -56(%rbp)
	movl	$24, %edi
	call	malloc@PLT
	movq	%rax, -24(%rbp)
	movl	-56(%rbp), %eax
	leal	(%rax,%rax), %edx
	movq	-24(%rbp), %rax
	movl	%edx, 16(%rax)
	movq	_TIG_iO_w3gX_1_main_1_opaque_list_1(%rip), %rax
	movq	(%rax), %rdx
	movq	-24(%rbp), %rax
	movq	%rdx, (%rax)
	movq	_TIG_iO_w3gX_1_main_1_opaque_list_1(%rip), %rdx
	movq	-24(%rbp), %rax
	movq	%rdx, 8(%rax)
	movq	_TIG_iO_w3gX_1_main_1_opaque_list_1(%rip), %rax
	movq	(%rax), %rax
	movq	-24(%rbp), %rdx
	movq	%rdx, 8(%rax)
	movq	_TIG_iO_w3gX_1_main_1_opaque_list_1(%rip), %rax
	movq	-24(%rbp), %rdx
	movq	%rdx, (%rax)
	call	rand@PLT
	movl	%eax, -52(%rbp)
	movl	$24, %edi
	call	malloc@PLT
	movq	%rax, -16(%rbp)
	movl	-52(%rbp), %edx
	movl	%edx, %eax
	addl	%eax, %eax
	addl	%eax, %edx
	movq	-16(%rbp), %rax
	movl	%edx, 16(%rax)
	movq	_TIG_iO_w3gX_1_main_1_opaque_list_1(%rip), %rax
	movq	(%rax), %rdx
	movq	-16(%rbp), %rax
	movq	%rdx, (%rax)
	movq	_TIG_iO_w3gX_1_main_1_opaque_list_1(%rip), %rdx
	movq	-16(%rbp), %rax
	movq	%rdx, 8(%rax)
	movq	_TIG_iO_w3gX_1_main_1_opaque_list_1(%rip), %rax
	movq	(%rax), %rax
	movq	-16(%rbp), %rdx
	movq	%rdx, 8(%rax)
	movq	_TIG_iO_w3gX_1_main_1_opaque_list_1(%rip), %rax
	movq	-16(%rbp), %rdx
	movq	%rdx, (%rax)
	movq	_TIG_iO_w3gX_1_main_1_opaque_list_1(%rip), %rax
	movq	(%rax), %rax
	movq	%rax, _TIG_iO_w3gX_1_main_1_opaque_ptr_1(%rip)
	movq	_TIG_iO_w3gX_1_main_1_opaque_ptr_1(%rip), %rax
	movq	%rax, _TIG_iO_w3gX_1_main_1_opaque_ptr_2(%rip)
	movq	_TIG_iO_w3gX_1_main_1_opaque_ptr_2(%rip), %rax
	movq	(%rax), %rax
	movq	%rax, _TIG_iO_w3gX_1_main_1_opaque_ptr_2(%rip)
	nop
	nop
	call	menu
.L32:
	leaq	.LC6(%rip), %rax
	movq	%rax, %rdi
	movl	$0, %eax
	call	printf@PLT
	leaq	-76(%rbp), %rax
	movq	%rax, %rsi
	leaq	.LC7(%rip), %rax
	movq	%rax, %rdi
	movl	$0, %eax
	call	__isoc99_scanf@PLT
	movl	-76(%rbp), %eax
	cmpl	$1, %eax
	je	.L27
	cmpl	$2, %eax
	je	.L28
	jmp	.L29
.L27:
	leaq	.LC8(%rip), %rax
	movq	%rax, %rdi
	movl	$0, %eax
	call	printf@PLT
	leaq	-72(%rbp), %rax
	movq	%rax, %rsi
	leaq	.LC7(%rip), %rax
	movq	%rax, %rdi
	movl	$0, %eax
	call	__isoc99_scanf@PLT
	movl	-72(%rbp), %eax
	movl	%eax, %edi
	call	push
	call	print
	movq	_TIG_iO_w3gX_1_push_1_opaque_ptr_1(%rip), %rdx
	movq	_TIG_iO_w3gX_1_push_1_opaque_ptr_2(%rip), %rax
	cmpq	%rax, %rdx
	jne	.L36
.L28:
	call	pop
	call	print
	jmp	.L29
.L36:
	nop
.L29:
	movl	-76(%rbp), %eax
	cmpl	$3, %eax
	je	.L37
	jmp	.L32
.L37:
	nop
	leaq	.LC9(%rip), %rax
	movq	%rax, %rdi
	call	puts@PLT
	call	print
	movl	$0, %eax
	movq	-8(%rbp), %rdx
	subq	%fs:40, %rdx
	je	.L34
	call	__stack_chk_fail@PLT
.L34:
	leave
	.cfi_def_cfa 7, 8
	ret
	.cfi_endproc
.LFE6:
	.size	main, .-main
	.section	.rodata
	.align 8
.LC10:
	.string	"Oops! Stack is empty, unable to POP."
	.text
	.globl	pop
	.type	pop, @function
pop:
.LFB10:
	.cfi_startproc
	endbr64
	pushq	%rbp
	.cfi_def_cfa_offset 16
	.cfi_offset 6, -16
	movq	%rsp, %rbp
	.cfi_def_cfa_register 6
	subq	$32, %rsp
#APP
# 53 "/usr/include/x86_64-linux-gnu/bits/byteswap.h" 1
	##_ANNOTATION_INITIALREGION_-TIG-iO-w3gX-1-pop--18
# 0 "" 2
# 57 "/usr/include/x86_64-linux-gnu/bits/byteswap.h" 1
	##_ANNOTATION_ATOMICREGION_-TIG-iO-w3gX-1-pop--17
# 0 "" 2
#NO_APP
	movl	$24, %edi
	call	malloc@PLT
	movq	%rax, -24(%rbp)
	movq	-24(%rbp), %rax
	movq	-24(%rbp), %rdx
	movq	%rdx, 8(%rax)
	movq	-24(%rbp), %rax
	movq	-24(%rbp), %rdx
	movq	%rdx, (%rax)
	movq	-24(%rbp), %rax
	movq	%rax, _TIG_iO_w3gX_1_pop_1_opaque_list_1(%rip)
	call	rand@PLT
	movl	%eax, -32(%rbp)
	movl	$24, %edi
	call	malloc@PLT
	movq	%rax, -16(%rbp)
	movq	-16(%rbp), %rax
	movl	$0, 16(%rax)
	movq	_TIG_iO_w3gX_1_pop_1_opaque_list_1(%rip), %rax
	movq	8(%rax), %rdx
	movq	-16(%rbp), %rax
	movq	%rdx, 8(%rax)
	movq	_TIG_iO_w3gX_1_pop_1_opaque_list_1(%rip), %rdx
	movq	-16(%rbp), %rax
	movq	%rdx, (%rax)
	movq	_TIG_iO_w3gX_1_pop_1_opaque_list_1(%rip), %rax
	movq	8(%rax), %rax
	movq	-16(%rbp), %rdx
	movq	%rdx, (%rax)
	movq	_TIG_iO_w3gX_1_pop_1_opaque_list_1(%rip), %rax
	movq	-16(%rbp), %rdx
	movq	%rdx, 8(%rax)
	call	rand@PLT
	movl	%eax, -28(%rbp)
	movl	$24, %edi
	call	malloc@PLT
	movq	%rax, -8(%rbp)
	movq	-8(%rbp), %rax
	movl	-28(%rbp), %edx
	movl	%edx, 16(%rax)
	movq	_TIG_iO_w3gX_1_pop_1_opaque_list_1(%rip), %rax
	movq	8(%rax), %rdx
	movq	-8(%rbp), %rax
	movq	%rdx, 8(%rax)
	movq	_TIG_iO_w3gX_1_pop_1_opaque_list_1(%rip), %rdx
	movq	-8(%rbp), %rax
	movq	%rdx, (%rax)
	movq	_TIG_iO_w3gX_1_pop_1_opaque_list_1(%rip), %rax
	movq	8(%rax), %rax
	movq	-8(%rbp), %rdx
	movq	%rdx, (%rax)
	movq	_TIG_iO_w3gX_1_pop_1_opaque_list_1(%rip), %rax
	movq	-8(%rbp), %rdx
	movq	%rdx, 8(%rax)
	movq	_TIG_iO_w3gX_1_pop_1_opaque_list_1(%rip), %rax
	movq	8(%rax), %rax
	movq	%rax, _TIG_iO_w3gX_1_pop_1_opaque_ptr_1(%rip)
	movq	_TIG_iO_w3gX_1_pop_1_opaque_ptr_1(%rip), %rax
	movq	%rax, _TIG_iO_w3gX_1_pop_1_opaque_ptr_2(%rip)
	movq	_TIG_iO_w3gX_1_pop_1_opaque_ptr_2(%rip), %rax
	movq	8(%rax), %rax
	movq	%rax, _TIG_iO_w3gX_1_pop_1_opaque_ptr_2(%rip)
	nop
	nop
	movl	top(%rip), %eax
	cmpl	$-1, %eax
	jne	.L39
	leaq	.LC10(%rip), %rax
	movq	%rax, %rdi
	call	puts@PLT
	jmp	.L42
.L39:
	movq	_TIG_iO_w3gX_1_push_1_opaque_ptr_1(%rip), %rdx
	movq	_TIG_iO_w3gX_1_push_1_opaque_ptr_2(%rip), %rax
	cmpq	%rax, %rdx
	je	.L42
	movl	top(%rip), %eax
	subl	$1, %eax
	movl	%eax, top(%rip)
	nop
.L42:
	nop
	leave
	.cfi_def_cfa 7, 8
	ret
	.cfi_endproc
.LFE10:
	.size	pop, .-pop
	.ident	"GCC: (Ubuntu 11.4.0-1ubuntu1~22.04) 11.4.0"
	.section	.note.GNU-stack,"",@progbits
	.section	.note.gnu.property,"a"
	.align 8
	.long	1f - 0f
	.long	4f - 1f
	.long	5
0:
	.string	"GNU"
1:
	.align 8
	.long	0xc0000002
	.long	3f - 2f
2:
	.long	0x3
3:
	.align 8
4:
