	.file	"vidhi448_Linux-Shell_Main_opaque.c"
	.text
	.globl	_TIG_iO_fbRg_1_ownCmdHandler_1_opaque_list_2
	.bss
	.align 8
	.type	_TIG_iO_fbRg_1_ownCmdHandler_1_opaque_list_2, @object
	.size	_TIG_iO_fbRg_1_ownCmdHandler_1_opaque_list_2, 8
_TIG_iO_fbRg_1_ownCmdHandler_1_opaque_list_2:
	.zero	8
	.globl	_TIG_iO_fbRg_1___uint16_identity_1_opaque_list_1
	.align 8
	.type	_TIG_iO_fbRg_1___uint16_identity_1_opaque_list_1, @object
	.size	_TIG_iO_fbRg_1___uint16_identity_1_opaque_list_1, 8
_TIG_iO_fbRg_1___uint16_identity_1_opaque_list_1:
	.zero	8
	.globl	_TIG_iO_fbRg_1_helpexit_1_opaque_ptr_1
	.align 8
	.type	_TIG_iO_fbRg_1_helpexit_1_opaque_ptr_1, @object
	.size	_TIG_iO_fbRg_1_helpexit_1_opaque_ptr_1, 8
_TIG_iO_fbRg_1_helpexit_1_opaque_ptr_1:
	.zero	8
	.globl	_TIG_iO_fbRg_1_ownCmdHandler_1_opaque_ptr_2
	.align 8
	.type	_TIG_iO_fbRg_1_ownCmdHandler_1_opaque_ptr_2, @object
	.size	_TIG_iO_fbRg_1_ownCmdHandler_1_opaque_ptr_2, 8
_TIG_iO_fbRg_1_ownCmdHandler_1_opaque_ptr_2:
	.zero	8
	.globl	_TIG_iO_fbRg_1___uint64_identity_1_opaque_list_1
	.align 8
	.type	_TIG_iO_fbRg_1___uint64_identity_1_opaque_list_1, @object
	.size	_TIG_iO_fbRg_1___uint64_identity_1_opaque_list_1, 8
_TIG_iO_fbRg_1___uint64_identity_1_opaque_list_1:
	.zero	8
	.globl	_TIG_iO_fbRg_1___bswap_32_1_opaque_list_2
	.align 8
	.type	_TIG_iO_fbRg_1___bswap_32_1_opaque_list_2, @object
	.size	_TIG_iO_fbRg_1___bswap_32_1_opaque_list_2, 8
_TIG_iO_fbRg_1___bswap_32_1_opaque_list_2:
	.zero	8
	.globl	_TIG_iO_fbRg_1___bswap_16_1_opaque_list_2
	.align 8
	.type	_TIG_iO_fbRg_1___bswap_16_1_opaque_list_2, @object
	.size	_TIG_iO_fbRg_1___bswap_16_1_opaque_list_2, 8
_TIG_iO_fbRg_1___bswap_16_1_opaque_list_2:
	.zero	8
	.globl	_TIG_iO_fbRg_1_init_shell_1_opaque_list_2
	.align 8
	.type	_TIG_iO_fbRg_1_init_shell_1_opaque_list_2, @object
	.size	_TIG_iO_fbRg_1_init_shell_1_opaque_list_2, 8
_TIG_iO_fbRg_1_init_shell_1_opaque_list_2:
	.zero	8
	.globl	_TIG_iO_fbRg_1_split_line_1_opaque_list_2
	.align 8
	.type	_TIG_iO_fbRg_1_split_line_1_opaque_list_2, @object
	.size	_TIG_iO_fbRg_1_split_line_1_opaque_list_2, 8
_TIG_iO_fbRg_1_split_line_1_opaque_list_2:
	.zero	8
	.globl	_TIG_iO_fbRg_1_add_history_1_opaque_ptr_2
	.align 8
	.type	_TIG_iO_fbRg_1_add_history_1_opaque_ptr_2, @object
	.size	_TIG_iO_fbRg_1_add_history_1_opaque_ptr_2, 8
_TIG_iO_fbRg_1_add_history_1_opaque_ptr_2:
	.zero	8
	.globl	_TIG_iO_fbRg_1_split_line_1_opaque_list_1
	.align 8
	.type	_TIG_iO_fbRg_1_split_line_1_opaque_list_1, @object
	.size	_TIG_iO_fbRg_1_split_line_1_opaque_list_1, 8
_TIG_iO_fbRg_1_split_line_1_opaque_list_1:
	.zero	8
	.globl	_TIG_iO_fbRg_1_helpcd_1_opaque_list_1
	.align 8
	.type	_TIG_iO_fbRg_1_helpcd_1_opaque_list_1, @object
	.size	_TIG_iO_fbRg_1_helpcd_1_opaque_list_1, 8
_TIG_iO_fbRg_1_helpcd_1_opaque_list_1:
	.zero	8
	.globl	_TIG_iO_fbRg_1_external_commands_1_opaque_list_1
	.align 8
	.type	_TIG_iO_fbRg_1_external_commands_1_opaque_list_1, @object
	.size	_TIG_iO_fbRg_1_external_commands_1_opaque_list_1, 8
_TIG_iO_fbRg_1_external_commands_1_opaque_list_1:
	.zero	8
	.globl	_TIG_iO_fbRg_1___bswap_32_1_opaque_ptr_1
	.align 8
	.type	_TIG_iO_fbRg_1___bswap_32_1_opaque_ptr_1, @object
	.size	_TIG_iO_fbRg_1___bswap_32_1_opaque_ptr_1, 8
_TIG_iO_fbRg_1___bswap_32_1_opaque_ptr_1:
	.zero	8
	.globl	_TIG_iO_fbRg_1_printDir2_1_opaque_list_1
	.align 8
	.type	_TIG_iO_fbRg_1_printDir2_1_opaque_list_1, @object
	.size	_TIG_iO_fbRg_1_printDir2_1_opaque_list_1, 8
_TIG_iO_fbRg_1_printDir2_1_opaque_list_1:
	.zero	8
	.globl	_TIG_iO_fbRg_1_split_line_1_opaque_ptr_1
	.align 8
	.type	_TIG_iO_fbRg_1_split_line_1_opaque_ptr_1, @object
	.size	_TIG_iO_fbRg_1_split_line_1_opaque_ptr_1, 8
_TIG_iO_fbRg_1_split_line_1_opaque_ptr_1:
	.zero	8
	.globl	_TIG_iO_fbRg_1_printDir_1_opaque_list_1
	.align 8
	.type	_TIG_iO_fbRg_1_printDir_1_opaque_list_1, @object
	.size	_TIG_iO_fbRg_1_printDir_1_opaque_list_1, 8
_TIG_iO_fbRg_1_printDir_1_opaque_list_1:
	.zero	8
	.globl	_TIG_iO_fbRg_1_main_1_opaque_ptr_1
	.align 8
	.type	_TIG_iO_fbRg_1_main_1_opaque_ptr_1, @object
	.size	_TIG_iO_fbRg_1_main_1_opaque_ptr_1, 8
_TIG_iO_fbRg_1_main_1_opaque_ptr_1:
	.zero	8
	.globl	_TIG_iO_fbRg_1___uint64_identity_1_opaque_ptr_1
	.align 8
	.type	_TIG_iO_fbRg_1___uint64_identity_1_opaque_ptr_1, @object
	.size	_TIG_iO_fbRg_1___uint64_identity_1_opaque_ptr_1, 8
_TIG_iO_fbRg_1___uint64_identity_1_opaque_ptr_1:
	.zero	8
	.globl	_TIG_iO_fbRg_1_external_commands_1_opaque_ptr_2
	.align 8
	.type	_TIG_iO_fbRg_1_external_commands_1_opaque_ptr_2, @object
	.size	_TIG_iO_fbRg_1_external_commands_1_opaque_ptr_2, 8
_TIG_iO_fbRg_1_external_commands_1_opaque_ptr_2:
	.zero	8
	.globl	_TIG_iO_fbRg_1___bswap_64_1_opaque_list_2
	.align 8
	.type	_TIG_iO_fbRg_1___bswap_64_1_opaque_list_2, @object
	.size	_TIG_iO_fbRg_1___bswap_64_1_opaque_list_2, 8
_TIG_iO_fbRg_1___bswap_64_1_opaque_list_2:
	.zero	8
	.globl	_TIG_iO_fbRg_1___uint64_identity_1_opaque_list_2
	.align 8
	.type	_TIG_iO_fbRg_1___uint64_identity_1_opaque_list_2, @object
	.size	_TIG_iO_fbRg_1___uint64_identity_1_opaque_list_2, 8
_TIG_iO_fbRg_1___uint64_identity_1_opaque_list_2:
	.zero	8
	.globl	_TIG_iO_fbRg_1_ownCmdHandler_1_opaque_ptr_1
	.align 8
	.type	_TIG_iO_fbRg_1_ownCmdHandler_1_opaque_ptr_1, @object
	.size	_TIG_iO_fbRg_1_ownCmdHandler_1_opaque_ptr_1, 8
_TIG_iO_fbRg_1_ownCmdHandler_1_opaque_ptr_1:
	.zero	8
	.local	history
	.comm	history,8000,32
	.globl	_TIG_iO_fbRg_1___bswap_16_1_opaque_list_1
	.align 8
	.type	_TIG_iO_fbRg_1___bswap_16_1_opaque_list_1, @object
	.size	_TIG_iO_fbRg_1___bswap_16_1_opaque_list_1, 8
_TIG_iO_fbRg_1___bswap_16_1_opaque_list_1:
	.zero	8
	.globl	_TIG_iO_fbRg_1_init_shell_1_opaque_ptr_1
	.align 8
	.type	_TIG_iO_fbRg_1_init_shell_1_opaque_ptr_1, @object
	.size	_TIG_iO_fbRg_1_init_shell_1_opaque_ptr_1, 8
_TIG_iO_fbRg_1_init_shell_1_opaque_ptr_1:
	.zero	8
	.globl	_TIG_IZ_fbRg_argc
	.align 4
	.type	_TIG_IZ_fbRg_argc, @object
	.size	_TIG_IZ_fbRg_argc, 4
_TIG_IZ_fbRg_argc:
	.zero	4
	.globl	_TIG_iO_fbRg_1_read_line_1_opaque_ptr_2
	.align 8
	.type	_TIG_iO_fbRg_1_read_line_1_opaque_ptr_2, @object
	.size	_TIG_iO_fbRg_1_read_line_1_opaque_ptr_2, 8
_TIG_iO_fbRg_1_read_line_1_opaque_ptr_2:
	.zero	8
	.globl	_TIG_iO_fbRg_1_printDir_1_opaque_ptr_2
	.align 8
	.type	_TIG_iO_fbRg_1_printDir_1_opaque_ptr_2, @object
	.size	_TIG_iO_fbRg_1_printDir_1_opaque_ptr_2, 8
_TIG_iO_fbRg_1_printDir_1_opaque_ptr_2:
	.zero	8
	.globl	_TIG_iO_fbRg_1_helpcd_1_opaque_ptr_2
	.align 8
	.type	_TIG_iO_fbRg_1_helpcd_1_opaque_ptr_2, @object
	.size	_TIG_iO_fbRg_1_helpcd_1_opaque_ptr_2, 8
_TIG_iO_fbRg_1_helpcd_1_opaque_ptr_2:
	.zero	8
	.globl	_TIG_iO_fbRg_1___bswap_32_1_opaque_list_1
	.align 8
	.type	_TIG_iO_fbRg_1___bswap_32_1_opaque_list_1, @object
	.size	_TIG_iO_fbRg_1___bswap_32_1_opaque_list_1, 8
_TIG_iO_fbRg_1___bswap_32_1_opaque_list_1:
	.zero	8
	.globl	_TIG_iO_fbRg_1_init_shell_1_opaque_ptr_2
	.align 8
	.type	_TIG_iO_fbRg_1_init_shell_1_opaque_ptr_2, @object
	.size	_TIG_iO_fbRg_1_init_shell_1_opaque_ptr_2, 8
_TIG_iO_fbRg_1_init_shell_1_opaque_ptr_2:
	.zero	8
	.globl	_TIG_iO_fbRg_1_read_line_1_opaque_ptr_1
	.align 8
	.type	_TIG_iO_fbRg_1_read_line_1_opaque_ptr_1, @object
	.size	_TIG_iO_fbRg_1_read_line_1_opaque_ptr_1, 8
_TIG_iO_fbRg_1_read_line_1_opaque_ptr_1:
	.zero	8
	.globl	_TIG_iO_fbRg_1_printDir2_1_opaque_list_2
	.align 8
	.type	_TIG_iO_fbRg_1_printDir2_1_opaque_list_2, @object
	.size	_TIG_iO_fbRg_1_printDir2_1_opaque_list_2, 8
_TIG_iO_fbRg_1_printDir2_1_opaque_list_2:
	.zero	8
	.globl	_TIG_iO_fbRg_1_helpexit_1_opaque_list_2
	.align 8
	.type	_TIG_iO_fbRg_1_helpexit_1_opaque_list_2, @object
	.size	_TIG_iO_fbRg_1_helpexit_1_opaque_list_2, 8
_TIG_iO_fbRg_1_helpexit_1_opaque_list_2:
	.zero	8
	.globl	_TIG_iO_fbRg_1___uint32_identity_1_opaque_ptr_1
	.align 8
	.type	_TIG_iO_fbRg_1___uint32_identity_1_opaque_ptr_1, @object
	.size	_TIG_iO_fbRg_1___uint32_identity_1_opaque_ptr_1, 8
_TIG_iO_fbRg_1___uint32_identity_1_opaque_ptr_1:
	.zero	8
	.globl	_TIG_iO_fbRg_1_printDir_1_opaque_ptr_1
	.align 8
	.type	_TIG_iO_fbRg_1_printDir_1_opaque_ptr_1, @object
	.size	_TIG_iO_fbRg_1_printDir_1_opaque_ptr_1, 8
_TIG_iO_fbRg_1_printDir_1_opaque_ptr_1:
	.zero	8
	.globl	_TIG_iO_fbRg_1_printDir2_1_opaque_ptr_1
	.align 8
	.type	_TIG_iO_fbRg_1_printDir2_1_opaque_ptr_1, @object
	.size	_TIG_iO_fbRg_1_printDir2_1_opaque_ptr_1, 8
_TIG_iO_fbRg_1_printDir2_1_opaque_ptr_1:
	.zero	8
	.globl	_TIG_iO_fbRg_1___bswap_64_1_opaque_list_1
	.align 8
	.type	_TIG_iO_fbRg_1___bswap_64_1_opaque_list_1, @object
	.size	_TIG_iO_fbRg_1___bswap_64_1_opaque_list_1, 8
_TIG_iO_fbRg_1___bswap_64_1_opaque_list_1:
	.zero	8
	.globl	_TIG_iO_fbRg_1_add_history_1_opaque_list_2
	.align 8
	.type	_TIG_iO_fbRg_1_add_history_1_opaque_list_2, @object
	.size	_TIG_iO_fbRg_1_add_history_1_opaque_list_2, 8
_TIG_iO_fbRg_1_add_history_1_opaque_list_2:
	.zero	8
	.globl	_TIG_iO_fbRg_1_main_1_opaque_ptr_2
	.align 8
	.type	_TIG_iO_fbRg_1_main_1_opaque_ptr_2, @object
	.size	_TIG_iO_fbRg_1_main_1_opaque_ptr_2, 8
_TIG_iO_fbRg_1_main_1_opaque_ptr_2:
	.zero	8
	.globl	_TIG_iO_fbRg_1_helppwd_1_opaque_list_1
	.align 8
	.type	_TIG_iO_fbRg_1_helppwd_1_opaque_list_1, @object
	.size	_TIG_iO_fbRg_1_helppwd_1_opaque_list_1, 8
_TIG_iO_fbRg_1_helppwd_1_opaque_list_1:
	.zero	8
	.globl	_TIG_iO_fbRg_1_external_commands_1_opaque_list_2
	.align 8
	.type	_TIG_iO_fbRg_1_external_commands_1_opaque_list_2, @object
	.size	_TIG_iO_fbRg_1_external_commands_1_opaque_list_2, 8
_TIG_iO_fbRg_1_external_commands_1_opaque_list_2:
	.zero	8
	.globl	_TIG_iO_fbRg_1_helppwd_1_opaque_ptr_1
	.align 8
	.type	_TIG_iO_fbRg_1_helppwd_1_opaque_ptr_1, @object
	.size	_TIG_iO_fbRg_1_helppwd_1_opaque_ptr_1, 8
_TIG_iO_fbRg_1_helppwd_1_opaque_ptr_1:
	.zero	8
	.globl	_TIG_iO_fbRg_1_read_line_1_opaque_list_1
	.align 8
	.type	_TIG_iO_fbRg_1_read_line_1_opaque_list_1, @object
	.size	_TIG_iO_fbRg_1_read_line_1_opaque_list_1, 8
_TIG_iO_fbRg_1_read_line_1_opaque_list_1:
	.zero	8
	.globl	_TIG_iO_fbRg_1_printDir_1_opaque_list_2
	.align 8
	.type	_TIG_iO_fbRg_1_printDir_1_opaque_list_2, @object
	.size	_TIG_iO_fbRg_1_printDir_1_opaque_list_2, 8
_TIG_iO_fbRg_1_printDir_1_opaque_list_2:
	.zero	8
	.globl	_TIG_IZ_fbRg_argv
	.align 8
	.type	_TIG_IZ_fbRg_argv, @object
	.size	_TIG_IZ_fbRg_argv, 8
_TIG_IZ_fbRg_argv:
	.zero	8
	.globl	_TIG_iO_fbRg_1_main_1_opaque_list_1
	.align 8
	.type	_TIG_iO_fbRg_1_main_1_opaque_list_1, @object
	.size	_TIG_iO_fbRg_1_main_1_opaque_list_1, 8
_TIG_iO_fbRg_1_main_1_opaque_list_1:
	.zero	8
	.globl	_TIG_iO_fbRg_1_helpexit_1_opaque_ptr_2
	.align 8
	.type	_TIG_iO_fbRg_1_helpexit_1_opaque_ptr_2, @object
	.size	_TIG_iO_fbRg_1_helpexit_1_opaque_ptr_2, 8
_TIG_iO_fbRg_1_helpexit_1_opaque_ptr_2:
	.zero	8
	.globl	_TIG_iO_fbRg_1_split_line_1_opaque_ptr_2
	.align 8
	.type	_TIG_iO_fbRg_1_split_line_1_opaque_ptr_2, @object
	.size	_TIG_iO_fbRg_1_split_line_1_opaque_ptr_2, 8
_TIG_iO_fbRg_1_split_line_1_opaque_ptr_2:
	.zero	8
	.globl	_TIG_iO_fbRg_1___bswap_16_1_opaque_ptr_2
	.align 8
	.type	_TIG_iO_fbRg_1___bswap_16_1_opaque_ptr_2, @object
	.size	_TIG_iO_fbRg_1___bswap_16_1_opaque_ptr_2, 8
_TIG_iO_fbRg_1___bswap_16_1_opaque_ptr_2:
	.zero	8
	.globl	_TIG_iO_fbRg_1___bswap_64_1_opaque_ptr_1
	.align 8
	.type	_TIG_iO_fbRg_1___bswap_64_1_opaque_ptr_1, @object
	.size	_TIG_iO_fbRg_1___bswap_64_1_opaque_ptr_1, 8
_TIG_iO_fbRg_1___bswap_64_1_opaque_ptr_1:
	.zero	8
	.globl	_TIG_iO_fbRg_1_main_1_opaque_list_2
	.align 8
	.type	_TIG_iO_fbRg_1_main_1_opaque_list_2, @object
	.size	_TIG_iO_fbRg_1_main_1_opaque_list_2, 8
_TIG_iO_fbRg_1_main_1_opaque_list_2:
	.zero	8
	.globl	_TIG_iO_fbRg_1___bswap_16_1_opaque_ptr_1
	.align 8
	.type	_TIG_iO_fbRg_1___bswap_16_1_opaque_ptr_1, @object
	.size	_TIG_iO_fbRg_1___bswap_16_1_opaque_ptr_1, 8
_TIG_iO_fbRg_1___bswap_16_1_opaque_ptr_1:
	.zero	8
	.globl	_TIG_iO_fbRg_1___uint64_identity_1_opaque_ptr_2
	.align 8
	.type	_TIG_iO_fbRg_1___uint64_identity_1_opaque_ptr_2, @object
	.size	_TIG_iO_fbRg_1___uint64_identity_1_opaque_ptr_2, 8
_TIG_iO_fbRg_1___uint64_identity_1_opaque_ptr_2:
	.zero	8
	.globl	_TIG_iO_fbRg_1_helpcd_1_opaque_ptr_1
	.align 8
	.type	_TIG_iO_fbRg_1_helpcd_1_opaque_ptr_1, @object
	.size	_TIG_iO_fbRg_1_helpcd_1_opaque_ptr_1, 8
_TIG_iO_fbRg_1_helpcd_1_opaque_ptr_1:
	.zero	8
	.globl	_TIG_iO_fbRg_1_helpexit_1_opaque_list_1
	.align 8
	.type	_TIG_iO_fbRg_1_helpexit_1_opaque_list_1, @object
	.size	_TIG_iO_fbRg_1_helpexit_1_opaque_list_1, 8
_TIG_iO_fbRg_1_helpexit_1_opaque_list_1:
	.zero	8
	.globl	_TIG_iO_fbRg_1___uint16_identity_1_opaque_ptr_1
	.align 8
	.type	_TIG_iO_fbRg_1___uint16_identity_1_opaque_ptr_1, @object
	.size	_TIG_iO_fbRg_1___uint16_identity_1_opaque_ptr_1, 8
_TIG_iO_fbRg_1___uint16_identity_1_opaque_ptr_1:
	.zero	8
	.globl	_TIG_iO_fbRg_1_external_commands_1_opaque_ptr_1
	.align 8
	.type	_TIG_iO_fbRg_1_external_commands_1_opaque_ptr_1, @object
	.size	_TIG_iO_fbRg_1_external_commands_1_opaque_ptr_1, 8
_TIG_iO_fbRg_1_external_commands_1_opaque_ptr_1:
	.zero	8
	.globl	_TIG_iO_fbRg_1_init_shell_1_opaque_list_1
	.align 8
	.type	_TIG_iO_fbRg_1_init_shell_1_opaque_list_1, @object
	.size	_TIG_iO_fbRg_1_init_shell_1_opaque_list_1, 8
_TIG_iO_fbRg_1_init_shell_1_opaque_list_1:
	.zero	8
	.globl	_TIG_iO_fbRg_1___uint16_identity_1_opaque_ptr_2
	.align 8
	.type	_TIG_iO_fbRg_1___uint16_identity_1_opaque_ptr_2, @object
	.size	_TIG_iO_fbRg_1___uint16_identity_1_opaque_ptr_2, 8
_TIG_iO_fbRg_1___uint16_identity_1_opaque_ptr_2:
	.zero	8
	.globl	_TIG_iO_fbRg_1___uint32_identity_1_opaque_ptr_2
	.align 8
	.type	_TIG_iO_fbRg_1___uint32_identity_1_opaque_ptr_2, @object
	.size	_TIG_iO_fbRg_1___uint32_identity_1_opaque_ptr_2, 8
_TIG_iO_fbRg_1___uint32_identity_1_opaque_ptr_2:
	.zero	8
	.local	history_count
	.comm	history_count,4,4
	.globl	_TIG_iO_fbRg_1___uint32_identity_1_opaque_list_2
	.align 8
	.type	_TIG_iO_fbRg_1___uint32_identity_1_opaque_list_2, @object
	.size	_TIG_iO_fbRg_1___uint32_identity_1_opaque_list_2, 8
_TIG_iO_fbRg_1___uint32_identity_1_opaque_list_2:
	.zero	8
	.globl	_TIG_iO_fbRg_1___uint32_identity_1_opaque_list_1
	.align 8
	.type	_TIG_iO_fbRg_1___uint32_identity_1_opaque_list_1, @object
	.size	_TIG_iO_fbRg_1___uint32_identity_1_opaque_list_1, 8
_TIG_iO_fbRg_1___uint32_identity_1_opaque_list_1:
	.zero	8
	.globl	_TIG_iO_fbRg_1___bswap_32_1_opaque_ptr_2
	.align 8
	.type	_TIG_iO_fbRg_1___bswap_32_1_opaque_ptr_2, @object
	.size	_TIG_iO_fbRg_1___bswap_32_1_opaque_ptr_2, 8
_TIG_iO_fbRg_1___bswap_32_1_opaque_ptr_2:
	.zero	8
	.globl	_TIG_iO_fbRg_1_helppwd_1_opaque_list_2
	.align 8
	.type	_TIG_iO_fbRg_1_helppwd_1_opaque_list_2, @object
	.size	_TIG_iO_fbRg_1_helppwd_1_opaque_list_2, 8
_TIG_iO_fbRg_1_helppwd_1_opaque_list_2:
	.zero	8
	.globl	_TIG_iO_fbRg_1_read_line_1_opaque_list_2
	.align 8
	.type	_TIG_iO_fbRg_1_read_line_1_opaque_list_2, @object
	.size	_TIG_iO_fbRg_1_read_line_1_opaque_list_2, 8
_TIG_iO_fbRg_1_read_line_1_opaque_list_2:
	.zero	8
	.globl	_TIG_iO_fbRg_1_add_history_1_opaque_list_1
	.align 8
	.type	_TIG_iO_fbRg_1_add_history_1_opaque_list_1, @object
	.size	_TIG_iO_fbRg_1_add_history_1_opaque_list_1, 8
_TIG_iO_fbRg_1_add_history_1_opaque_list_1:
	.zero	8
	.globl	_TIG_iO_fbRg_1___uint16_identity_1_opaque_list_2
	.align 8
	.type	_TIG_iO_fbRg_1___uint16_identity_1_opaque_list_2, @object
	.size	_TIG_iO_fbRg_1___uint16_identity_1_opaque_list_2, 8
_TIG_iO_fbRg_1___uint16_identity_1_opaque_list_2:
	.zero	8
	.globl	_TIG_iO_fbRg_1___bswap_64_1_opaque_ptr_2
	.align 8
	.type	_TIG_iO_fbRg_1___bswap_64_1_opaque_ptr_2, @object
	.size	_TIG_iO_fbRg_1___bswap_64_1_opaque_ptr_2, 8
_TIG_iO_fbRg_1___bswap_64_1_opaque_ptr_2:
	.zero	8
	.globl	_TIG_iO_fbRg_1_helppwd_1_opaque_ptr_2
	.align 8
	.type	_TIG_iO_fbRg_1_helppwd_1_opaque_ptr_2, @object
	.size	_TIG_iO_fbRg_1_helppwd_1_opaque_ptr_2, 8
_TIG_iO_fbRg_1_helppwd_1_opaque_ptr_2:
	.zero	8
	.globl	_TIG_iO_fbRg_1_helpcd_1_opaque_list_2
	.align 8
	.type	_TIG_iO_fbRg_1_helpcd_1_opaque_list_2, @object
	.size	_TIG_iO_fbRg_1_helpcd_1_opaque_list_2, 8
_TIG_iO_fbRg_1_helpcd_1_opaque_list_2:
	.zero	8
	.globl	_TIG_iO_fbRg_1_printDir2_1_opaque_ptr_2
	.align 8
	.type	_TIG_iO_fbRg_1_printDir2_1_opaque_ptr_2, @object
	.size	_TIG_iO_fbRg_1_printDir2_1_opaque_ptr_2, 8
_TIG_iO_fbRg_1_printDir2_1_opaque_ptr_2:
	.zero	8
	.globl	_TIG_iO_fbRg_1_add_history_1_opaque_ptr_1
	.align 8
	.type	_TIG_iO_fbRg_1_add_history_1_opaque_ptr_1, @object
	.size	_TIG_iO_fbRg_1_add_history_1_opaque_ptr_1, 8
_TIG_iO_fbRg_1_add_history_1_opaque_ptr_1:
	.zero	8
	.globl	_TIG_iO_fbRg_1_ownCmdHandler_1_opaque_list_1
	.align 8
	.type	_TIG_iO_fbRg_1_ownCmdHandler_1_opaque_list_1, @object
	.size	_TIG_iO_fbRg_1_ownCmdHandler_1_opaque_list_1, 8
_TIG_iO_fbRg_1_ownCmdHandler_1_opaque_list_1:
	.zero	8
	.globl	_TIG_IZ_fbRg_envp
	.align 8
	.type	_TIG_IZ_fbRg_envp, @object
	.size	_TIG_IZ_fbRg_envp, 8
_TIG_IZ_fbRg_envp:
	.zero	8
	.text
	.globl	main
	.type	main, @function
main:
.LFB2:
	.cfi_startproc
	endbr64
	pushq	%rbp
	.cfi_def_cfa_offset 16
	.cfi_offset 6, -16
	movq	%rsp, %rbp
	.cfi_def_cfa_register 6
	subq	$1168, %rsp
	movl	%edi, -1140(%rbp)
	movq	%rsi, -1152(%rbp)
	movq	%rdx, -1160(%rbp)
	movq	%fs:40, %rax
	movq	%rax, -8(%rbp)
	xorl	%eax, %eax
	movl	$0, history_count(%rip)
	nop
.L2:
	movq	$0, history(%rip)
	movq	$0, 8+history(%rip)
	movq	$0, 16+history(%rip)
	movq	$0, 24+history(%rip)
	movq	$0, 32+history(%rip)
	movq	$0, 40+history(%rip)
	movq	$0, 48+history(%rip)
	movq	$0, 56+history(%rip)
	movq	$0, 64+history(%rip)
	movq	$0, 72+history(%rip)
	movq	$0, 80+history(%rip)
	movq	$0, 88+history(%rip)
	movq	$0, 96+history(%rip)
	movq	$0, 104+history(%rip)
	movq	$0, 112+history(%rip)
	movq	$0, 120+history(%rip)
	movq	$0, 128+history(%rip)
	movq	$0, 136+history(%rip)
	movq	$0, 144+history(%rip)
	movq	$0, 152+history(%rip)
	movq	$0, 160+history(%rip)
	movq	$0, 168+history(%rip)
	movq	$0, 176+history(%rip)
	movq	$0, 184+history(%rip)
	movq	$0, 192+history(%rip)
	movq	$0, 200+history(%rip)
	movq	$0, 208+history(%rip)
	movq	$0, 216+history(%rip)
	movq	$0, 224+history(%rip)
	movq	$0, 232+history(%rip)
	movq	$0, 240+history(%rip)
	movq	$0, 248+history(%rip)
	movq	$0, 256+history(%rip)
	movq	$0, 264+history(%rip)
	movq	$0, 272+history(%rip)
	movq	$0, 280+history(%rip)
	movq	$0, 288+history(%rip)
	movq	$0, 296+history(%rip)
	movq	$0, 304+history(%rip)
	movq	$0, 312+history(%rip)
	movq	$0, 320+history(%rip)
	movq	$0, 328+history(%rip)
	movq	$0, 336+history(%rip)
	movq	$0, 344+history(%rip)
	movq	$0, 352+history(%rip)
	movq	$0, 360+history(%rip)
	movq	$0, 368+history(%rip)
	movq	$0, 376+history(%rip)
	movq	$0, 384+history(%rip)
	movq	$0, 392+history(%rip)
	movq	$0, 400+history(%rip)
	movq	$0, 408+history(%rip)
	movq	$0, 416+history(%rip)
	movq	$0, 424+history(%rip)
	movq	$0, 432+history(%rip)
	movq	$0, 440+history(%rip)
	movq	$0, 448+history(%rip)
	movq	$0, 456+history(%rip)
	movq	$0, 464+history(%rip)
	movq	$0, 472+history(%rip)
	movq	$0, 480+history(%rip)
	movq	$0, 488+history(%rip)
	movq	$0, 496+history(%rip)
	movq	$0, 504+history(%rip)
	movq	$0, 512+history(%rip)
	movq	$0, 520+history(%rip)
	movq	$0, 528+history(%rip)
	movq	$0, 536+history(%rip)
	movq	$0, 544+history(%rip)
	movq	$0, 552+history(%rip)
	movq	$0, 560+history(%rip)
	movq	$0, 568+history(%rip)
	movq	$0, 576+history(%rip)
	movq	$0, 584+history(%rip)
	movq	$0, 592+history(%rip)
	movq	$0, 600+history(%rip)
	movq	$0, 608+history(%rip)
	movq	$0, 616+history(%rip)
	movq	$0, 624+history(%rip)
	movq	$0, 632+history(%rip)
	movq	$0, 640+history(%rip)
	movq	$0, 648+history(%rip)
	movq	$0, 656+history(%rip)
	movq	$0, 664+history(%rip)
	movq	$0, 672+history(%rip)
	movq	$0, 680+history(%rip)
	movq	$0, 688+history(%rip)
	movq	$0, 696+history(%rip)
	movq	$0, 704+history(%rip)
	movq	$0, 712+history(%rip)
	movq	$0, 720+history(%rip)
	movq	$0, 728+history(%rip)
	movq	$0, 736+history(%rip)
	movq	$0, 744+history(%rip)
	movq	$0, 752+history(%rip)
	movq	$0, 760+history(%rip)
	movq	$0, 768+history(%rip)
	movq	$0, 776+history(%rip)
	movq	$0, 784+history(%rip)
	movq	$0, 792+history(%rip)
	movq	$0, 800+history(%rip)
	movq	$0, 808+history(%rip)
	movq	$0, 816+history(%rip)
	movq	$0, 824+history(%rip)
	movq	$0, 832+history(%rip)
	movq	$0, 840+history(%rip)
	movq	$0, 848+history(%rip)
	movq	$0, 856+history(%rip)
	movq	$0, 864+history(%rip)
	movq	$0, 872+history(%rip)
	movq	$0, 880+history(%rip)
	movq	$0, 888+history(%rip)
	movq	$0, 896+history(%rip)
	movq	$0, 904+history(%rip)
	movq	$0, 912+history(%rip)
	movq	$0, 920+history(%rip)
	movq	$0, 928+history(%rip)
	movq	$0, 936+history(%rip)
	movq	$0, 944+history(%rip)
	movq	$0, 952+history(%rip)
	movq	$0, 960+history(%rip)
	movq	$0, 968+history(%rip)
	movq	$0, 976+history(%rip)
	movq	$0, 984+history(%rip)
	movq	$0, 992+history(%rip)
	movq	$0, 1000+history(%rip)
	movq	$0, 1008+history(%rip)
	movq	$0, 1016+history(%rip)
	movq	$0, 1024+history(%rip)
	movq	$0, 1032+history(%rip)
	movq	$0, 1040+history(%rip)
	movq	$0, 1048+history(%rip)
	movq	$0, 1056+history(%rip)
	movq	$0, 1064+history(%rip)
	movq	$0, 1072+history(%rip)
	movq	$0, 1080+history(%rip)
	movq	$0, 1088+history(%rip)
	movq	$0, 1096+history(%rip)
	movq	$0, 1104+history(%rip)
	movq	$0, 1112+history(%rip)
	movq	$0, 1120+history(%rip)
	movq	$0, 1128+history(%rip)
	movq	$0, 1136+history(%rip)
	movq	$0, 1144+history(%rip)
	movq	$0, 1152+history(%rip)
	movq	$0, 1160+history(%rip)
	movq	$0, 1168+history(%rip)
	movq	$0, 1176+history(%rip)
	movq	$0, 1184+history(%rip)
	movq	$0, 1192+history(%rip)
	movq	$0, 1200+history(%rip)
	movq	$0, 1208+history(%rip)
	movq	$0, 1216+history(%rip)
	movq	$0, 1224+history(%rip)
	movq	$0, 1232+history(%rip)
	movq	$0, 1240+history(%rip)
	movq	$0, 1248+history(%rip)
	movq	$0, 1256+history(%rip)
	movq	$0, 1264+history(%rip)
	movq	$0, 1272+history(%rip)
	movq	$0, 1280+history(%rip)
	movq	$0, 1288+history(%rip)
	movq	$0, 1296+history(%rip)
	movq	$0, 1304+history(%rip)
	movq	$0, 1312+history(%rip)
	movq	$0, 1320+history(%rip)
	movq	$0, 1328+history(%rip)
	movq	$0, 1336+history(%rip)
	movq	$0, 1344+history(%rip)
	movq	$0, 1352+history(%rip)
	movq	$0, 1360+history(%rip)
	movq	$0, 1368+history(%rip)
	movq	$0, 1376+history(%rip)
	movq	$0, 1384+history(%rip)
	movq	$0, 1392+history(%rip)
	movq	$0, 1400+history(%rip)
	movq	$0, 1408+history(%rip)
	movq	$0, 1416+history(%rip)
	movq	$0, 1424+history(%rip)
	movq	$0, 1432+history(%rip)
	movq	$0, 1440+history(%rip)
	movq	$0, 1448+history(%rip)
	movq	$0, 1456+history(%rip)
	movq	$0, 1464+history(%rip)
	movq	$0, 1472+history(%rip)
	movq	$0, 1480+history(%rip)
	movq	$0, 1488+history(%rip)
	movq	$0, 1496+history(%rip)
	movq	$0, 1504+history(%rip)
	movq	$0, 1512+history(%rip)
	movq	$0, 1520+history(%rip)
	movq	$0, 1528+history(%rip)
	movq	$0, 1536+history(%rip)
	movq	$0, 1544+history(%rip)
	movq	$0, 1552+history(%rip)
	movq	$0, 1560+history(%rip)
	movq	$0, 1568+history(%rip)
	movq	$0, 1576+history(%rip)
	movq	$0, 1584+history(%rip)
	movq	$0, 1592+history(%rip)
	movq	$0, 1600+history(%rip)
	movq	$0, 1608+history(%rip)
	movq	$0, 1616+history(%rip)
	movq	$0, 1624+history(%rip)
	movq	$0, 1632+history(%rip)
	movq	$0, 1640+history(%rip)
	movq	$0, 1648+history(%rip)
	movq	$0, 1656+history(%rip)
	movq	$0, 1664+history(%rip)
	movq	$0, 1672+history(%rip)
	movq	$0, 1680+history(%rip)
	movq	$0, 1688+history(%rip)
	movq	$0, 1696+history(%rip)
	movq	$0, 1704+history(%rip)
	movq	$0, 1712+history(%rip)
	movq	$0, 1720+history(%rip)
	movq	$0, 1728+history(%rip)
	movq	$0, 1736+history(%rip)
	movq	$0, 1744+history(%rip)
	movq	$0, 1752+history(%rip)
	movq	$0, 1760+history(%rip)
	movq	$0, 1768+history(%rip)
	movq	$0, 1776+history(%rip)
	movq	$0, 1784+history(%rip)
	movq	$0, 1792+history(%rip)
	movq	$0, 1800+history(%rip)
	movq	$0, 1808+history(%rip)
	movq	$0, 1816+history(%rip)
	movq	$0, 1824+history(%rip)
	movq	$0, 1832+history(%rip)
	movq	$0, 1840+history(%rip)
	movq	$0, 1848+history(%rip)
	movq	$0, 1856+history(%rip)
	movq	$0, 1864+history(%rip)
	movq	$0, 1872+history(%rip)
	movq	$0, 1880+history(%rip)
	movq	$0, 1888+history(%rip)
	movq	$0, 1896+history(%rip)
	movq	$0, 1904+history(%rip)
	movq	$0, 1912+history(%rip)
	movq	$0, 1920+history(%rip)
	movq	$0, 1928+history(%rip)
	movq	$0, 1936+history(%rip)
	movq	$0, 1944+history(%rip)
	movq	$0, 1952+history(%rip)
	movq	$0, 1960+history(%rip)
	movq	$0, 1968+history(%rip)
	movq	$0, 1976+history(%rip)
	movq	$0, 1984+history(%rip)
	movq	$0, 1992+history(%rip)
	movq	$0, 2000+history(%rip)
	movq	$0, 2008+history(%rip)
	movq	$0, 2016+history(%rip)
	movq	$0, 2024+history(%rip)
	movq	$0, 2032+history(%rip)
	movq	$0, 2040+history(%rip)
	movq	$0, 2048+history(%rip)
	movq	$0, 2056+history(%rip)
	movq	$0, 2064+history(%rip)
	movq	$0, 2072+history(%rip)
	movq	$0, 2080+history(%rip)
	movq	$0, 2088+history(%rip)
	movq	$0, 2096+history(%rip)
	movq	$0, 2104+history(%rip)
	movq	$0, 2112+history(%rip)
	movq	$0, 2120+history(%rip)
	movq	$0, 2128+history(%rip)
	movq	$0, 2136+history(%rip)
	movq	$0, 2144+history(%rip)
	movq	$0, 2152+history(%rip)
	movq	$0, 2160+history(%rip)
	movq	$0, 2168+history(%rip)
	movq	$0, 2176+history(%rip)
	movq	$0, 2184+history(%rip)
	movq	$0, 2192+history(%rip)
	movq	$0, 2200+history(%rip)
	movq	$0, 2208+history(%rip)
	movq	$0, 2216+history(%rip)
	movq	$0, 2224+history(%rip)
	movq	$0, 2232+history(%rip)
	movq	$0, 2240+history(%rip)
	movq	$0, 2248+history(%rip)
	movq	$0, 2256+history(%rip)
	movq	$0, 2264+history(%rip)
	movq	$0, 2272+history(%rip)
	movq	$0, 2280+history(%rip)
	movq	$0, 2288+history(%rip)
	movq	$0, 2296+history(%rip)
	movq	$0, 2304+history(%rip)
	movq	$0, 2312+history(%rip)
	movq	$0, 2320+history(%rip)
	movq	$0, 2328+history(%rip)
	movq	$0, 2336+history(%rip)
	movq	$0, 2344+history(%rip)
	movq	$0, 2352+history(%rip)
	movq	$0, 2360+history(%rip)
	movq	$0, 2368+history(%rip)
	movq	$0, 2376+history(%rip)
	movq	$0, 2384+history(%rip)
	movq	$0, 2392+history(%rip)
	movq	$0, 2400+history(%rip)
	movq	$0, 2408+history(%rip)
	movq	$0, 2416+history(%rip)
	movq	$0, 2424+history(%rip)
	movq	$0, 2432+history(%rip)
	movq	$0, 2440+history(%rip)
	movq	$0, 2448+history(%rip)
	movq	$0, 2456+history(%rip)
	movq	$0, 2464+history(%rip)
	movq	$0, 2472+history(%rip)
	movq	$0, 2480+history(%rip)
	movq	$0, 2488+history(%rip)
	movq	$0, 2496+history(%rip)
	movq	$0, 2504+history(%rip)
	movq	$0, 2512+history(%rip)
	movq	$0, 2520+history(%rip)
	movq	$0, 2528+history(%rip)
	movq	$0, 2536+history(%rip)
	movq	$0, 2544+history(%rip)
	movq	$0, 2552+history(%rip)
	movq	$0, 2560+history(%rip)
	movq	$0, 2568+history(%rip)
	movq	$0, 2576+history(%rip)
	movq	$0, 2584+history(%rip)
	movq	$0, 2592+history(%rip)
	movq	$0, 2600+history(%rip)
	movq	$0, 2608+history(%rip)
	movq	$0, 2616+history(%rip)
	movq	$0, 2624+history(%rip)
	movq	$0, 2632+history(%rip)
	movq	$0, 2640+history(%rip)
	movq	$0, 2648+history(%rip)
	movq	$0, 2656+history(%rip)
	movq	$0, 2664+history(%rip)
	movq	$0, 2672+history(%rip)
	movq	$0, 2680+history(%rip)
	movq	$0, 2688+history(%rip)
	movq	$0, 2696+history(%rip)
	movq	$0, 2704+history(%rip)
	movq	$0, 2712+history(%rip)
	movq	$0, 2720+history(%rip)
	movq	$0, 2728+history(%rip)
	movq	$0, 2736+history(%rip)
	movq	$0, 2744+history(%rip)
	movq	$0, 2752+history(%rip)
	movq	$0, 2760+history(%rip)
	movq	$0, 2768+history(%rip)
	movq	$0, 2776+history(%rip)
	movq	$0, 2784+history(%rip)
	movq	$0, 2792+history(%rip)
	movq	$0, 2800+history(%rip)
	movq	$0, 2808+history(%rip)
	movq	$0, 2816+history(%rip)
	movq	$0, 2824+history(%rip)
	movq	$0, 2832+history(%rip)
	movq	$0, 2840+history(%rip)
	movq	$0, 2848+history(%rip)
	movq	$0, 2856+history(%rip)
	movq	$0, 2864+history(%rip)
	movq	$0, 2872+history(%rip)
	movq	$0, 2880+history(%rip)
	movq	$0, 2888+history(%rip)
	movq	$0, 2896+history(%rip)
	movq	$0, 2904+history(%rip)
	movq	$0, 2912+history(%rip)
	movq	$0, 2920+history(%rip)
	movq	$0, 2928+history(%rip)
	movq	$0, 2936+history(%rip)
	movq	$0, 2944+history(%rip)
	movq	$0, 2952+history(%rip)
	movq	$0, 2960+history(%rip)
	movq	$0, 2968+history(%rip)
	movq	$0, 2976+history(%rip)
	movq	$0, 2984+history(%rip)
	movq	$0, 2992+history(%rip)
	movq	$0, 3000+history(%rip)
	movq	$0, 3008+history(%rip)
	movq	$0, 3016+history(%rip)
	movq	$0, 3024+history(%rip)
	movq	$0, 3032+history(%rip)
	movq	$0, 3040+history(%rip)
	movq	$0, 3048+history(%rip)
	movq	$0, 3056+history(%rip)
	movq	$0, 3064+history(%rip)
	movq	$0, 3072+history(%rip)
	movq	$0, 3080+history(%rip)
	movq	$0, 3088+history(%rip)
	movq	$0, 3096+history(%rip)
	movq	$0, 3104+history(%rip)
	movq	$0, 3112+history(%rip)
	movq	$0, 3120+history(%rip)
	movq	$0, 3128+history(%rip)
	movq	$0, 3136+history(%rip)
	movq	$0, 3144+history(%rip)
	movq	$0, 3152+history(%rip)
	movq	$0, 3160+history(%rip)
	movq	$0, 3168+history(%rip)
	movq	$0, 3176+history(%rip)
	movq	$0, 3184+history(%rip)
	movq	$0, 3192+history(%rip)
	movq	$0, 3200+history(%rip)
	movq	$0, 3208+history(%rip)
	movq	$0, 3216+history(%rip)
	movq	$0, 3224+history(%rip)
	movq	$0, 3232+history(%rip)
	movq	$0, 3240+history(%rip)
	movq	$0, 3248+history(%rip)
	movq	$0, 3256+history(%rip)
	movq	$0, 3264+history(%rip)
	movq	$0, 3272+history(%rip)
	movq	$0, 3280+history(%rip)
	movq	$0, 3288+history(%rip)
	movq	$0, 3296+history(%rip)
	movq	$0, 3304+history(%rip)
	movq	$0, 3312+history(%rip)
	movq	$0, 3320+history(%rip)
	movq	$0, 3328+history(%rip)
	movq	$0, 3336+history(%rip)
	movq	$0, 3344+history(%rip)
	movq	$0, 3352+history(%rip)
	movq	$0, 3360+history(%rip)
	movq	$0, 3368+history(%rip)
	movq	$0, 3376+history(%rip)
	movq	$0, 3384+history(%rip)
	movq	$0, 3392+history(%rip)
	movq	$0, 3400+history(%rip)
	movq	$0, 3408+history(%rip)
	movq	$0, 3416+history(%rip)
	movq	$0, 3424+history(%rip)
	movq	$0, 3432+history(%rip)
	movq	$0, 3440+history(%rip)
	movq	$0, 3448+history(%rip)
	movq	$0, 3456+history(%rip)
	movq	$0, 3464+history(%rip)
	movq	$0, 3472+history(%rip)
	movq	$0, 3480+history(%rip)
	movq	$0, 3488+history(%rip)
	movq	$0, 3496+history(%rip)
	movq	$0, 3504+history(%rip)
	movq	$0, 3512+history(%rip)
	movq	$0, 3520+history(%rip)
	movq	$0, 3528+history(%rip)
	movq	$0, 3536+history(%rip)
	movq	$0, 3544+history(%rip)
	movq	$0, 3552+history(%rip)
	movq	$0, 3560+history(%rip)
	movq	$0, 3568+history(%rip)
	movq	$0, 3576+history(%rip)
	movq	$0, 3584+history(%rip)
	movq	$0, 3592+history(%rip)
	movq	$0, 3600+history(%rip)
	movq	$0, 3608+history(%rip)
	movq	$0, 3616+history(%rip)
	movq	$0, 3624+history(%rip)
	movq	$0, 3632+history(%rip)
	movq	$0, 3640+history(%rip)
	movq	$0, 3648+history(%rip)
	movq	$0, 3656+history(%rip)
	movq	$0, 3664+history(%rip)
	movq	$0, 3672+history(%rip)
	movq	$0, 3680+history(%rip)
	movq	$0, 3688+history(%rip)
	movq	$0, 3696+history(%rip)
	movq	$0, 3704+history(%rip)
	movq	$0, 3712+history(%rip)
	movq	$0, 3720+history(%rip)
	movq	$0, 3728+history(%rip)
	movq	$0, 3736+history(%rip)
	movq	$0, 3744+history(%rip)
	movq	$0, 3752+history(%rip)
	movq	$0, 3760+history(%rip)
	movq	$0, 3768+history(%rip)
	movq	$0, 3776+history(%rip)
	movq	$0, 3784+history(%rip)
	movq	$0, 3792+history(%rip)
	movq	$0, 3800+history(%rip)
	movq	$0, 3808+history(%rip)
	movq	$0, 3816+history(%rip)
	movq	$0, 3824+history(%rip)
	movq	$0, 3832+history(%rip)
	movq	$0, 3840+history(%rip)
	movq	$0, 3848+history(%rip)
	movq	$0, 3856+history(%rip)
	movq	$0, 3864+history(%rip)
	movq	$0, 3872+history(%rip)
	movq	$0, 3880+history(%rip)
	movq	$0, 3888+history(%rip)
	movq	$0, 3896+history(%rip)
	movq	$0, 3904+history(%rip)
	movq	$0, 3912+history(%rip)
	movq	$0, 3920+history(%rip)
	movq	$0, 3928+history(%rip)
	movq	$0, 3936+history(%rip)
	movq	$0, 3944+history(%rip)
	movq	$0, 3952+history(%rip)
	movq	$0, 3960+history(%rip)
	movq	$0, 3968+history(%rip)
	movq	$0, 3976+history(%rip)
	movq	$0, 3984+history(%rip)
	movq	$0, 3992+history(%rip)
	movq	$0, 4000+history(%rip)
	movq	$0, 4008+history(%rip)
	movq	$0, 4016+history(%rip)
	movq	$0, 4024+history(%rip)
	movq	$0, 4032+history(%rip)
	movq	$0, 4040+history(%rip)
	movq	$0, 4048+history(%rip)
	movq	$0, 4056+history(%rip)
	movq	$0, 4064+history(%rip)
	movq	$0, 4072+history(%rip)
	movq	$0, 4080+history(%rip)
	movq	$0, 4088+history(%rip)
	movq	$0, 4096+history(%rip)
	movq	$0, 4104+history(%rip)
	movq	$0, 4112+history(%rip)
	movq	$0, 4120+history(%rip)
	movq	$0, 4128+history(%rip)
	movq	$0, 4136+history(%rip)
	movq	$0, 4144+history(%rip)
	movq	$0, 4152+history(%rip)
	movq	$0, 4160+history(%rip)
	movq	$0, 4168+history(%rip)
	movq	$0, 4176+history(%rip)
	movq	$0, 4184+history(%rip)
	movq	$0, 4192+history(%rip)
	movq	$0, 4200+history(%rip)
	movq	$0, 4208+history(%rip)
	movq	$0, 4216+history(%rip)
	movq	$0, 4224+history(%rip)
	movq	$0, 4232+history(%rip)
	movq	$0, 4240+history(%rip)
	movq	$0, 4248+history(%rip)
	movq	$0, 4256+history(%rip)
	movq	$0, 4264+history(%rip)
	movq	$0, 4272+history(%rip)
	movq	$0, 4280+history(%rip)
	movq	$0, 4288+history(%rip)
	movq	$0, 4296+history(%rip)
	movq	$0, 4304+history(%rip)
	movq	$0, 4312+history(%rip)
	movq	$0, 4320+history(%rip)
	movq	$0, 4328+history(%rip)
	movq	$0, 4336+history(%rip)
	movq	$0, 4344+history(%rip)
	movq	$0, 4352+history(%rip)
	movq	$0, 4360+history(%rip)
	movq	$0, 4368+history(%rip)
	movq	$0, 4376+history(%rip)
	movq	$0, 4384+history(%rip)
	movq	$0, 4392+history(%rip)
	movq	$0, 4400+history(%rip)
	movq	$0, 4408+history(%rip)
	movq	$0, 4416+history(%rip)
	movq	$0, 4424+history(%rip)
	movq	$0, 4432+history(%rip)
	movq	$0, 4440+history(%rip)
	movq	$0, 4448+history(%rip)
	movq	$0, 4456+history(%rip)
	movq	$0, 4464+history(%rip)
	movq	$0, 4472+history(%rip)
	movq	$0, 4480+history(%rip)
	movq	$0, 4488+history(%rip)
	movq	$0, 4496+history(%rip)
	movq	$0, 4504+history(%rip)
	movq	$0, 4512+history(%rip)
	movq	$0, 4520+history(%rip)
	movq	$0, 4528+history(%rip)
	movq	$0, 4536+history(%rip)
	movq	$0, 4544+history(%rip)
	movq	$0, 4552+history(%rip)
	movq	$0, 4560+history(%rip)
	movq	$0, 4568+history(%rip)
	movq	$0, 4576+history(%rip)
	movq	$0, 4584+history(%rip)
	movq	$0, 4592+history(%rip)
	movq	$0, 4600+history(%rip)
	movq	$0, 4608+history(%rip)
	movq	$0, 4616+history(%rip)
	movq	$0, 4624+history(%rip)
	movq	$0, 4632+history(%rip)
	movq	$0, 4640+history(%rip)
	movq	$0, 4648+history(%rip)
	movq	$0, 4656+history(%rip)
	movq	$0, 4664+history(%rip)
	movq	$0, 4672+history(%rip)
	movq	$0, 4680+history(%rip)
	movq	$0, 4688+history(%rip)
	movq	$0, 4696+history(%rip)
	movq	$0, 4704+history(%rip)
	movq	$0, 4712+history(%rip)
	movq	$0, 4720+history(%rip)
	movq	$0, 4728+history(%rip)
	movq	$0, 4736+history(%rip)
	movq	$0, 4744+history(%rip)
	movq	$0, 4752+history(%rip)
	movq	$0, 4760+history(%rip)
	movq	$0, 4768+history(%rip)
	movq	$0, 4776+history(%rip)
	movq	$0, 4784+history(%rip)
	movq	$0, 4792+history(%rip)
	movq	$0, 4800+history(%rip)
	movq	$0, 4808+history(%rip)
	movq	$0, 4816+history(%rip)
	movq	$0, 4824+history(%rip)
	movq	$0, 4832+history(%rip)
	movq	$0, 4840+history(%rip)
	movq	$0, 4848+history(%rip)
	movq	$0, 4856+history(%rip)
	movq	$0, 4864+history(%rip)
	movq	$0, 4872+history(%rip)
	movq	$0, 4880+history(%rip)
	movq	$0, 4888+history(%rip)
	movq	$0, 4896+history(%rip)
	movq	$0, 4904+history(%rip)
	movq	$0, 4912+history(%rip)
	movq	$0, 4920+history(%rip)
	movq	$0, 4928+history(%rip)
	movq	$0, 4936+history(%rip)
	movq	$0, 4944+history(%rip)
	movq	$0, 4952+history(%rip)
	movq	$0, 4960+history(%rip)
	movq	$0, 4968+history(%rip)
	movq	$0, 4976+history(%rip)
	movq	$0, 4984+history(%rip)
	movq	$0, 4992+history(%rip)
	movq	$0, 5000+history(%rip)
	movq	$0, 5008+history(%rip)
	movq	$0, 5016+history(%rip)
	movq	$0, 5024+history(%rip)
	movq	$0, 5032+history(%rip)
	movq	$0, 5040+history(%rip)
	movq	$0, 5048+history(%rip)
	movq	$0, 5056+history(%rip)
	movq	$0, 5064+history(%rip)
	movq	$0, 5072+history(%rip)
	movq	$0, 5080+history(%rip)
	movq	$0, 5088+history(%rip)
	movq	$0, 5096+history(%rip)
	movq	$0, 5104+history(%rip)
	movq	$0, 5112+history(%rip)
	movq	$0, 5120+history(%rip)
	movq	$0, 5128+history(%rip)
	movq	$0, 5136+history(%rip)
	movq	$0, 5144+history(%rip)
	movq	$0, 5152+history(%rip)
	movq	$0, 5160+history(%rip)
	movq	$0, 5168+history(%rip)
	movq	$0, 5176+history(%rip)
	movq	$0, 5184+history(%rip)
	movq	$0, 5192+history(%rip)
	movq	$0, 5200+history(%rip)
	movq	$0, 5208+history(%rip)
	movq	$0, 5216+history(%rip)
	movq	$0, 5224+history(%rip)
	movq	$0, 5232+history(%rip)
	movq	$0, 5240+history(%rip)
	movq	$0, 5248+history(%rip)
	movq	$0, 5256+history(%rip)
	movq	$0, 5264+history(%rip)
	movq	$0, 5272+history(%rip)
	movq	$0, 5280+history(%rip)
	movq	$0, 5288+history(%rip)
	movq	$0, 5296+history(%rip)
	movq	$0, 5304+history(%rip)
	movq	$0, 5312+history(%rip)
	movq	$0, 5320+history(%rip)
	movq	$0, 5328+history(%rip)
	movq	$0, 5336+history(%rip)
	movq	$0, 5344+history(%rip)
	movq	$0, 5352+history(%rip)
	movq	$0, 5360+history(%rip)
	movq	$0, 5368+history(%rip)
	movq	$0, 5376+history(%rip)
	movq	$0, 5384+history(%rip)
	movq	$0, 5392+history(%rip)
	movq	$0, 5400+history(%rip)
	movq	$0, 5408+history(%rip)
	movq	$0, 5416+history(%rip)
	movq	$0, 5424+history(%rip)
	movq	$0, 5432+history(%rip)
	movq	$0, 5440+history(%rip)
	movq	$0, 5448+history(%rip)
	movq	$0, 5456+history(%rip)
	movq	$0, 5464+history(%rip)
	movq	$0, 5472+history(%rip)
	movq	$0, 5480+history(%rip)
	movq	$0, 5488+history(%rip)
	movq	$0, 5496+history(%rip)
	movq	$0, 5504+history(%rip)
	movq	$0, 5512+history(%rip)
	movq	$0, 5520+history(%rip)
	movq	$0, 5528+history(%rip)
	movq	$0, 5536+history(%rip)
	movq	$0, 5544+history(%rip)
	movq	$0, 5552+history(%rip)
	movq	$0, 5560+history(%rip)
	movq	$0, 5568+history(%rip)
	movq	$0, 5576+history(%rip)
	movq	$0, 5584+history(%rip)
	movq	$0, 5592+history(%rip)
	movq	$0, 5600+history(%rip)
	movq	$0, 5608+history(%rip)
	movq	$0, 5616+history(%rip)
	movq	$0, 5624+history(%rip)
	movq	$0, 5632+history(%rip)
	movq	$0, 5640+history(%rip)
	movq	$0, 5648+history(%rip)
	movq	$0, 5656+history(%rip)
	movq	$0, 5664+history(%rip)
	movq	$0, 5672+history(%rip)
	movq	$0, 5680+history(%rip)
	movq	$0, 5688+history(%rip)
	movq	$0, 5696+history(%rip)
	movq	$0, 5704+history(%rip)
	movq	$0, 5712+history(%rip)
	movq	$0, 5720+history(%rip)
	movq	$0, 5728+history(%rip)
	movq	$0, 5736+history(%rip)
	movq	$0, 5744+history(%rip)
	movq	$0, 5752+history(%rip)
	movq	$0, 5760+history(%rip)
	movq	$0, 5768+history(%rip)
	movq	$0, 5776+history(%rip)
	movq	$0, 5784+history(%rip)
	movq	$0, 5792+history(%rip)
	movq	$0, 5800+history(%rip)
	movq	$0, 5808+history(%rip)
	movq	$0, 5816+history(%rip)
	movq	$0, 5824+history(%rip)
	movq	$0, 5832+history(%rip)
	movq	$0, 5840+history(%rip)
	movq	$0, 5848+history(%rip)
	movq	$0, 5856+history(%rip)
	movq	$0, 5864+history(%rip)
	movq	$0, 5872+history(%rip)
	movq	$0, 5880+history(%rip)
	movq	$0, 5888+history(%rip)
	movq	$0, 5896+history(%rip)
	movq	$0, 5904+history(%rip)
	movq	$0, 5912+history(%rip)
	movq	$0, 5920+history(%rip)
	movq	$0, 5928+history(%rip)
	movq	$0, 5936+history(%rip)
	movq	$0, 5944+history(%rip)
	movq	$0, 5952+history(%rip)
	movq	$0, 5960+history(%rip)
	movq	$0, 5968+history(%rip)
	movq	$0, 5976+history(%rip)
	movq	$0, 5984+history(%rip)
	movq	$0, 5992+history(%rip)
	movq	$0, 6000+history(%rip)
	movq	$0, 6008+history(%rip)
	movq	$0, 6016+history(%rip)
	movq	$0, 6024+history(%rip)
	movq	$0, 6032+history(%rip)
	movq	$0, 6040+history(%rip)
	movq	$0, 6048+history(%rip)
	movq	$0, 6056+history(%rip)
	movq	$0, 6064+history(%rip)
	movq	$0, 6072+history(%rip)
	movq	$0, 6080+history(%rip)
	movq	$0, 6088+history(%rip)
	movq	$0, 6096+history(%rip)
	movq	$0, 6104+history(%rip)
	movq	$0, 6112+history(%rip)
	movq	$0, 6120+history(%rip)
	movq	$0, 6128+history(%rip)
	movq	$0, 6136+history(%rip)
	movq	$0, 6144+history(%rip)
	movq	$0, 6152+history(%rip)
	movq	$0, 6160+history(%rip)
	movq	$0, 6168+history(%rip)
	movq	$0, 6176+history(%rip)
	movq	$0, 6184+history(%rip)
	movq	$0, 6192+history(%rip)
	movq	$0, 6200+history(%rip)
	movq	$0, 6208+history(%rip)
	movq	$0, 6216+history(%rip)
	movq	$0, 6224+history(%rip)
	movq	$0, 6232+history(%rip)
	movq	$0, 6240+history(%rip)
	movq	$0, 6248+history(%rip)
	movq	$0, 6256+history(%rip)
	movq	$0, 6264+history(%rip)
	movq	$0, 6272+history(%rip)
	movq	$0, 6280+history(%rip)
	movq	$0, 6288+history(%rip)
	movq	$0, 6296+history(%rip)
	movq	$0, 6304+history(%rip)
	movq	$0, 6312+history(%rip)
	movq	$0, 6320+history(%rip)
	movq	$0, 6328+history(%rip)
	movq	$0, 6336+history(%rip)
	movq	$0, 6344+history(%rip)
	movq	$0, 6352+history(%rip)
	movq	$0, 6360+history(%rip)
	movq	$0, 6368+history(%rip)
	movq	$0, 6376+history(%rip)
	movq	$0, 6384+history(%rip)
	movq	$0, 6392+history(%rip)
	movq	$0, 6400+history(%rip)
	movq	$0, 6408+history(%rip)
	movq	$0, 6416+history(%rip)
	movq	$0, 6424+history(%rip)
	movq	$0, 6432+history(%rip)
	movq	$0, 6440+history(%rip)
	movq	$0, 6448+history(%rip)
	movq	$0, 6456+history(%rip)
	movq	$0, 6464+history(%rip)
	movq	$0, 6472+history(%rip)
	movq	$0, 6480+history(%rip)
	movq	$0, 6488+history(%rip)
	movq	$0, 6496+history(%rip)
	movq	$0, 6504+history(%rip)
	movq	$0, 6512+history(%rip)
	movq	$0, 6520+history(%rip)
	movq	$0, 6528+history(%rip)
	movq	$0, 6536+history(%rip)
	movq	$0, 6544+history(%rip)
	movq	$0, 6552+history(%rip)
	movq	$0, 6560+history(%rip)
	movq	$0, 6568+history(%rip)
	movq	$0, 6576+history(%rip)
	movq	$0, 6584+history(%rip)
	movq	$0, 6592+history(%rip)
	movq	$0, 6600+history(%rip)
	movq	$0, 6608+history(%rip)
	movq	$0, 6616+history(%rip)
	movq	$0, 6624+history(%rip)
	movq	$0, 6632+history(%rip)
	movq	$0, 6640+history(%rip)
	movq	$0, 6648+history(%rip)
	movq	$0, 6656+history(%rip)
	movq	$0, 6664+history(%rip)
	movq	$0, 6672+history(%rip)
	movq	$0, 6680+history(%rip)
	movq	$0, 6688+history(%rip)
	movq	$0, 6696+history(%rip)
	movq	$0, 6704+history(%rip)
	movq	$0, 6712+history(%rip)
	movq	$0, 6720+history(%rip)
	movq	$0, 6728+history(%rip)
	movq	$0, 6736+history(%rip)
	movq	$0, 6744+history(%rip)
	movq	$0, 6752+history(%rip)
	movq	$0, 6760+history(%rip)
	movq	$0, 6768+history(%rip)
	movq	$0, 6776+history(%rip)
	movq	$0, 6784+history(%rip)
	movq	$0, 6792+history(%rip)
	movq	$0, 6800+history(%rip)
	movq	$0, 6808+history(%rip)
	movq	$0, 6816+history(%rip)
	movq	$0, 6824+history(%rip)
	movq	$0, 6832+history(%rip)
	movq	$0, 6840+history(%rip)
	movq	$0, 6848+history(%rip)
	movq	$0, 6856+history(%rip)
	movq	$0, 6864+history(%rip)
	movq	$0, 6872+history(%rip)
	movq	$0, 6880+history(%rip)
	movq	$0, 6888+history(%rip)
	movq	$0, 6896+history(%rip)
	movq	$0, 6904+history(%rip)
	movq	$0, 6912+history(%rip)
	movq	$0, 6920+history(%rip)
	movq	$0, 6928+history(%rip)
	movq	$0, 6936+history(%rip)
	movq	$0, 6944+history(%rip)
	movq	$0, 6952+history(%rip)
	movq	$0, 6960+history(%rip)
	movq	$0, 6968+history(%rip)
	movq	$0, 6976+history(%rip)
	movq	$0, 6984+history(%rip)
	movq	$0, 6992+history(%rip)
	movq	$0, 7000+history(%rip)
	movq	$0, 7008+history(%rip)
	movq	$0, 7016+history(%rip)
	movq	$0, 7024+history(%rip)
	movq	$0, 7032+history(%rip)
	movq	$0, 7040+history(%rip)
	movq	$0, 7048+history(%rip)
	movq	$0, 7056+history(%rip)
	movq	$0, 7064+history(%rip)
	movq	$0, 7072+history(%rip)
	movq	$0, 7080+history(%rip)
	movq	$0, 7088+history(%rip)
	movq	$0, 7096+history(%rip)
	movq	$0, 7104+history(%rip)
	movq	$0, 7112+history(%rip)
	movq	$0, 7120+history(%rip)
	movq	$0, 7128+history(%rip)
	movq	$0, 7136+history(%rip)
	movq	$0, 7144+history(%rip)
	movq	$0, 7152+history(%rip)
	movq	$0, 7160+history(%rip)
	movq	$0, 7168+history(%rip)
	movq	$0, 7176+history(%rip)
	movq	$0, 7184+history(%rip)
	movq	$0, 7192+history(%rip)
	movq	$0, 7200+history(%rip)
	movq	$0, 7208+history(%rip)
	movq	$0, 7216+history(%rip)
	movq	$0, 7224+history(%rip)
	movq	$0, 7232+history(%rip)
	movq	$0, 7240+history(%rip)
	movq	$0, 7248+history(%rip)
	movq	$0, 7256+history(%rip)
	movq	$0, 7264+history(%rip)
	movq	$0, 7272+history(%rip)
	movq	$0, 7280+history(%rip)
	movq	$0, 7288+history(%rip)
	movq	$0, 7296+history(%rip)
	movq	$0, 7304+history(%rip)
	movq	$0, 7312+history(%rip)
	movq	$0, 7320+history(%rip)
	movq	$0, 7328+history(%rip)
	movq	$0, 7336+history(%rip)
	movq	$0, 7344+history(%rip)
	movq	$0, 7352+history(%rip)
	movq	$0, 7360+history(%rip)
	movq	$0, 7368+history(%rip)
	movq	$0, 7376+history(%rip)
	movq	$0, 7384+history(%rip)
	movq	$0, 7392+history(%rip)
	movq	$0, 7400+history(%rip)
	movq	$0, 7408+history(%rip)
	movq	$0, 7416+history(%rip)
	movq	$0, 7424+history(%rip)
	movq	$0, 7432+history(%rip)
	movq	$0, 7440+history(%rip)
	movq	$0, 7448+history(%rip)
	movq	$0, 7456+history(%rip)
	movq	$0, 7464+history(%rip)
	movq	$0, 7472+history(%rip)
	movq	$0, 7480+history(%rip)
	movq	$0, 7488+history(%rip)
	movq	$0, 7496+history(%rip)
	movq	$0, 7504+history(%rip)
	movq	$0, 7512+history(%rip)
	movq	$0, 7520+history(%rip)
	movq	$0, 7528+history(%rip)
	movq	$0, 7536+history(%rip)
	movq	$0, 7544+history(%rip)
	movq	$0, 7552+history(%rip)
	movq	$0, 7560+history(%rip)
	movq	$0, 7568+history(%rip)
	movq	$0, 7576+history(%rip)
	movq	$0, 7584+history(%rip)
	movq	$0, 7592+history(%rip)
	movq	$0, 7600+history(%rip)
	movq	$0, 7608+history(%rip)
	movq	$0, 7616+history(%rip)
	movq	$0, 7624+history(%rip)
	movq	$0, 7632+history(%rip)
	movq	$0, 7640+history(%rip)
	movq	$0, 7648+history(%rip)
	movq	$0, 7656+history(%rip)
	movq	$0, 7664+history(%rip)
	movq	$0, 7672+history(%rip)
	movq	$0, 7680+history(%rip)
	movq	$0, 7688+history(%rip)
	movq	$0, 7696+history(%rip)
	movq	$0, 7704+history(%rip)
	movq	$0, 7712+history(%rip)
	movq	$0, 7720+history(%rip)
	movq	$0, 7728+history(%rip)
	movq	$0, 7736+history(%rip)
	movq	$0, 7744+history(%rip)
	movq	$0, 7752+history(%rip)
	movq	$0, 7760+history(%rip)
	movq	$0, 7768+history(%rip)
	movq	$0, 7776+history(%rip)
	movq	$0, 7784+history(%rip)
	movq	$0, 7792+history(%rip)
	movq	$0, 7800+history(%rip)
	movq	$0, 7808+history(%rip)
	movq	$0, 7816+history(%rip)
	movq	$0, 7824+history(%rip)
	movq	$0, 7832+history(%rip)
	movq	$0, 7840+history(%rip)
	movq	$0, 7848+history(%rip)
	movq	$0, 7856+history(%rip)
	movq	$0, 7864+history(%rip)
	movq	$0, 7872+history(%rip)
	movq	$0, 7880+history(%rip)
	movq	$0, 7888+history(%rip)
	movq	$0, 7896+history(%rip)
	movq	$0, 7904+history(%rip)
	movq	$0, 7912+history(%rip)
	movq	$0, 7920+history(%rip)
	movq	$0, 7928+history(%rip)
	movq	$0, 7936+history(%rip)
	movq	$0, 7944+history(%rip)
	movq	$0, 7952+history(%rip)
	movq	$0, 7960+history(%rip)
	movq	$0, 7968+history(%rip)
	movq	$0, 7976+history(%rip)
	movq	$0, 7984+history(%rip)
	movq	$0, 7992+history(%rip)
	nop
.L3:
	movq	$0, _TIG_IZ_fbRg_envp(%rip)
	nop
.L4:
	movq	$0, _TIG_IZ_fbRg_argv(%rip)
	nop
.L5:
	movl	$0, _TIG_IZ_fbRg_argc(%rip)
	nop
	nop
.L6:
.L7:
#APP
# 1107 "/usr/include/x86_64-linux-gnu/bits/uintn-identity.h" 1
	##_ANNOTATION_INITIALREGION_-TIG-IZ-fbRg--0
# 0 "" 2
#NO_APP
	movl	-1140(%rbp), %eax
	movl	%eax, _TIG_IZ_fbRg_argc(%rip)
	movq	-1152(%rbp), %rax
	movq	%rax, _TIG_IZ_fbRg_argv(%rip)
	movq	-1160(%rbp), %rax
	movq	%rax, _TIG_IZ_fbRg_envp(%rip)
#APP
# 1114 "/usr/include/x86_64-linux-gnu/bits/uintn-identity.h" 1
	##_ANNOTATION_ATOMICREGION_-TIG-iO-fbRg-1-main--25
# 0 "" 2
#NO_APP
	movl	$24, %edi
	call	malloc@PLT
	movq	%rax, -1104(%rbp)
	movq	-1104(%rbp), %rax
	movq	-1104(%rbp), %rdx
	movq	%rdx, (%rax)
	movq	-1104(%rbp), %rax
	movq	-1104(%rbp), %rdx
	movq	%rdx, 16(%rax)
	movq	-1104(%rbp), %rax
	movq	%rax, _TIG_iO_fbRg_1_main_1_opaque_list_1(%rip)
	call	rand@PLT
	movl	%eax, -1124(%rbp)
	movl	$24, %edi
	call	malloc@PLT
	movq	%rax, -1096(%rbp)
	movq	-1096(%rbp), %rax
	movl	$0, 8(%rax)
	movq	_TIG_iO_fbRg_1_main_1_opaque_list_1(%rip), %rax
	movq	(%rax), %rdx
	movq	-1096(%rbp), %rax
	movq	%rdx, (%rax)
	movq	_TIG_iO_fbRg_1_main_1_opaque_list_1(%rip), %rdx
	movq	-1096(%rbp), %rax
	movq	%rdx, 16(%rax)
	movq	_TIG_iO_fbRg_1_main_1_opaque_list_1(%rip), %rax
	movq	(%rax), %rax
	movq	-1096(%rbp), %rdx
	movq	%rdx, 16(%rax)
	movq	_TIG_iO_fbRg_1_main_1_opaque_list_1(%rip), %rax
	movq	-1096(%rbp), %rdx
	movq	%rdx, (%rax)
	call	rand@PLT
	movl	%eax, -1120(%rbp)
	movl	$24, %edi
	call	malloc@PLT
	movq	%rax, -1088(%rbp)
	movq	-1088(%rbp), %rax
	movl	-1120(%rbp), %edx
	movl	%edx, 8(%rax)
	movq	_TIG_iO_fbRg_1_main_1_opaque_list_1(%rip), %rax
	movq	(%rax), %rdx
	movq	-1088(%rbp), %rax
	movq	%rdx, (%rax)
	movq	_TIG_iO_fbRg_1_main_1_opaque_list_1(%rip), %rdx
	movq	-1088(%rbp), %rax
	movq	%rdx, 16(%rax)
	movq	_TIG_iO_fbRg_1_main_1_opaque_list_1(%rip), %rax
	movq	(%rax), %rax
	movq	-1088(%rbp), %rdx
	movq	%rdx, 16(%rax)
	movq	_TIG_iO_fbRg_1_main_1_opaque_list_1(%rip), %rax
	movq	-1088(%rbp), %rdx
	movq	%rdx, (%rax)
	call	rand@PLT
	movl	%eax, -1116(%rbp)
	movl	$24, %edi
	call	malloc@PLT
	movq	%rax, -1080(%rbp)
	movl	-1116(%rbp), %eax
	leal	(%rax,%rax), %edx
	movq	-1080(%rbp), %rax
	movl	%edx, 8(%rax)
	movq	_TIG_iO_fbRg_1_main_1_opaque_list_1(%rip), %rax
	movq	(%rax), %rdx
	movq	-1080(%rbp), %rax
	movq	%rdx, (%rax)
	movq	_TIG_iO_fbRg_1_main_1_opaque_list_1(%rip), %rdx
	movq	-1080(%rbp), %rax
	movq	%rdx, 16(%rax)
	movq	_TIG_iO_fbRg_1_main_1_opaque_list_1(%rip), %rax
	movq	(%rax), %rax
	movq	-1080(%rbp), %rdx
	movq	%rdx, 16(%rax)
	movq	_TIG_iO_fbRg_1_main_1_opaque_list_1(%rip), %rax
	movq	-1080(%rbp), %rdx
	movq	%rdx, (%rax)
	call	rand@PLT
	movl	%eax, -1112(%rbp)
	movl	$24, %edi
	call	malloc@PLT
	movq	%rax, -1072(%rbp)
	movl	-1112(%rbp), %edx
	movl	%edx, %eax
	addl	%eax, %eax
	addl	%eax, %edx
	movq	-1072(%rbp), %rax
	movl	%edx, 8(%rax)
	movq	_TIG_iO_fbRg_1_main_1_opaque_list_1(%rip), %rax
	movq	(%rax), %rdx
	movq	-1072(%rbp), %rax
	movq	%rdx, (%rax)
	movq	_TIG_iO_fbRg_1_main_1_opaque_list_1(%rip), %rdx
	movq	-1072(%rbp), %rax
	movq	%rdx, 16(%rax)
	movq	_TIG_iO_fbRg_1_main_1_opaque_list_1(%rip), %rax
	movq	(%rax), %rax
	movq	-1072(%rbp), %rdx
	movq	%rdx, 16(%rax)
	movq	_TIG_iO_fbRg_1_main_1_opaque_list_1(%rip), %rax
	movq	-1072(%rbp), %rdx
	movq	%rdx, (%rax)
	movq	_TIG_iO_fbRg_1_main_1_opaque_list_1(%rip), %rax
	movq	(%rax), %rax
	movq	%rax, _TIG_iO_fbRg_1_main_1_opaque_ptr_1(%rip)
	movq	_TIG_iO_fbRg_1_main_1_opaque_ptr_1(%rip), %rax
	movq	%rax, _TIG_iO_fbRg_1_main_1_opaque_ptr_2(%rip)
	nop
	nop
	movq	_TIG_iO_fbRg_1_split_line_1_opaque_ptr_1(%rip), %rdx
	movq	_TIG_iO_fbRg_1_split_line_1_opaque_ptr_2(%rip), %rax
	cmpq	%rax, %rdx
	je	.L8
	movq	-1064(%rbp), %rdx
	movq	-1160(%rbp), %rax
	movq	%rdx, %rsi
	movq	%rax, %rdi
	call	external_commands
.L8:
	leaq	-1040(%rbp), %rax
	movl	$1024, %esi
	movq	%rax, %rdi
	call	getcwd@PLT
	call	init_shell
.L10:
	call	printDir
	call	read_line
	movq	%rax, -1064(%rbp)
	movq	-1064(%rbp), %rax
	movq	%rax, %rdi
	call	add_history
	movq	-1064(%rbp), %rax
	movq	%rax, %rdi
	call	split_line
	movq	%rax, -1056(%rbp)
	movq	-1056(%rbp), %rax
	movq	%rax, -1048(%rbp)
	leaq	-1040(%rbp), %rdx
	movq	-1064(%rbp), %rcx
	movq	-1048(%rbp), %rax
	movq	%rcx, %rsi
	movq	%rax, %rdi
	call	ownCmdHandler
	movl	%eax, -1108(%rbp)
	cmpl	$1, -1108(%rbp)
	jne	.L10
	leaq	-1040(%rbp), %rdx
	movq	-1048(%rbp), %rax
	movq	%rdx, %rsi
	movq	%rax, %rdi
	call	external_commands
	jmp	.L10
	.cfi_endproc
.LFE2:
	.size	main, .-main
	.section	.rodata
	.align 8
.LC0:
	.string	"\npwd: pwd [-LP]\nPrint the name of the current working directory.\nOptions:\n-L print the value of $PWD if it names the current working directory"
	.align 8
.LC1:
	.string	"-P\tprint the physical directory, without any symbolic links"
	.align 8
.LC2:
	.string	"Exit Status:\nReturns 0 unless an invalid option is given or the current directory cannot be read.\n"
	.text
	.globl	helppwd
	.type	helppwd, @function
helppwd:
.LFB4:
	.cfi_startproc
	endbr64
	pushq	%rbp
	.cfi_def_cfa_offset 16
	.cfi_offset 6, -16
	movq	%rsp, %rbp
	.cfi_def_cfa_register 6
	subq	$48, %rsp
#APP
# 57 "/usr/include/x86_64-linux-gnu/bits/byteswap.h" 1
	##_ANNOTATION_INITIALREGION_-TIG-iO-fbRg-1-helppwd--22
# 0 "" 2
# 61 "/usr/include/x86_64-linux-gnu/bits/byteswap.h" 1
	##_ANNOTATION_ATOMICREGION_-TIG-iO-fbRg-1-helppwd--21
# 0 "" 2
#NO_APP
	movl	$24, %edi
	call	malloc@PLT
	movq	%rax, -32(%rbp)
	movq	-32(%rbp), %rax
	movq	-32(%rbp), %rdx
	movq	%rdx, (%rax)
	movq	-32(%rbp), %rax
	movq	-32(%rbp), %rdx
	movq	%rdx, 16(%rax)
	movq	-32(%rbp), %rax
	movq	%rax, _TIG_iO_fbRg_1_helppwd_1_opaque_list_1(%rip)
	call	rand@PLT
	movl	%eax, -44(%rbp)
	movl	$24, %edi
	call	malloc@PLT
	movq	%rax, -24(%rbp)
	movq	-24(%rbp), %rax
	movl	$0, 8(%rax)
	movq	_TIG_iO_fbRg_1_helppwd_1_opaque_list_1(%rip), %rax
	movq	(%rax), %rdx
	movq	-24(%rbp), %rax
	movq	%rdx, (%rax)
	movq	_TIG_iO_fbRg_1_helppwd_1_opaque_list_1(%rip), %rdx
	movq	-24(%rbp), %rax
	movq	%rdx, 16(%rax)
	movq	_TIG_iO_fbRg_1_helppwd_1_opaque_list_1(%rip), %rax
	movq	(%rax), %rax
	movq	-24(%rbp), %rdx
	movq	%rdx, 16(%rax)
	movq	_TIG_iO_fbRg_1_helppwd_1_opaque_list_1(%rip), %rax
	movq	-24(%rbp), %rdx
	movq	%rdx, (%rax)
	call	rand@PLT
	movl	%eax, -40(%rbp)
	movl	$24, %edi
	call	malloc@PLT
	movq	%rax, -16(%rbp)
	movq	-16(%rbp), %rax
	movl	-40(%rbp), %edx
	movl	%edx, 8(%rax)
	movq	_TIG_iO_fbRg_1_helppwd_1_opaque_list_1(%rip), %rax
	movq	(%rax), %rdx
	movq	-16(%rbp), %rax
	movq	%rdx, (%rax)
	movq	_TIG_iO_fbRg_1_helppwd_1_opaque_list_1(%rip), %rdx
	movq	-16(%rbp), %rax
	movq	%rdx, 16(%rax)
	movq	_TIG_iO_fbRg_1_helppwd_1_opaque_list_1(%rip), %rax
	movq	(%rax), %rax
	movq	-16(%rbp), %rdx
	movq	%rdx, 16(%rax)
	movq	_TIG_iO_fbRg_1_helppwd_1_opaque_list_1(%rip), %rax
	movq	-16(%rbp), %rdx
	movq	%rdx, (%rax)
	call	rand@PLT
	movl	%eax, -36(%rbp)
	movl	$24, %edi
	call	malloc@PLT
	movq	%rax, -8(%rbp)
	movl	-36(%rbp), %eax
	leal	(%rax,%rax), %edx
	movq	-8(%rbp), %rax
	movl	%edx, 8(%rax)
	movq	_TIG_iO_fbRg_1_helppwd_1_opaque_list_1(%rip), %rax
	movq	(%rax), %rdx
	movq	-8(%rbp), %rax
	movq	%rdx, (%rax)
	movq	_TIG_iO_fbRg_1_helppwd_1_opaque_list_1(%rip), %rdx
	movq	-8(%rbp), %rax
	movq	%rdx, 16(%rax)
	movq	_TIG_iO_fbRg_1_helppwd_1_opaque_list_1(%rip), %rax
	movq	(%rax), %rax
	movq	-8(%rbp), %rdx
	movq	%rdx, 16(%rax)
	movq	_TIG_iO_fbRg_1_helppwd_1_opaque_list_1(%rip), %rax
	movq	-8(%rbp), %rdx
	movq	%rdx, (%rax)
	movq	_TIG_iO_fbRg_1_helppwd_1_opaque_list_1(%rip), %rax
	movq	(%rax), %rax
	movq	%rax, _TIG_iO_fbRg_1_helppwd_1_opaque_ptr_1(%rip)
	movq	_TIG_iO_fbRg_1_helppwd_1_opaque_ptr_1(%rip), %rax
	movq	%rax, _TIG_iO_fbRg_1_helppwd_1_opaque_ptr_2(%rip)
	movq	_TIG_iO_fbRg_1_helppwd_1_opaque_ptr_2(%rip), %rax
	movq	(%rax), %rax
	movq	%rax, _TIG_iO_fbRg_1_helppwd_1_opaque_ptr_2(%rip)
	nop
	nop
	leaq	.LC0(%rip), %rax
	movq	%rax, %rdi
	call	puts@PLT
	leaq	.LC1(%rip), %rax
	movq	%rax, %rdi
	call	puts@PLT
	leaq	.LC2(%rip), %rax
	movq	%rax, %rdi
	call	puts@PLT
	movq	_TIG_iO_fbRg_1_split_line_1_opaque_ptr_1(%rip), %rdx
	movq	_TIG_iO_fbRg_1_split_line_1_opaque_ptr_2(%rip), %rax
	cmpq	%rax, %rdx
	leave
	.cfi_def_cfa 7, 8
	ret
	.cfi_endproc
.LFE4:
	.size	helppwd, .-helppwd
	.section	.rodata
	.align 8
.LC3:
	.string	"\ncd: cd [-L| [dir]\nChange the shell working directory.\nChange the current directory to DIR. The default DIR is the value of the HOME shell variable."
	.align 8
.LC4:
	.string	"Options:\n-L\tforce symbolic links to be followed: resolve symbolic links in DIR after processing instances of `..'"
	.align 8
.LC5:
	.string	"`..' is processed by removing the immediately previous pathname component back to a slash or the beginning of DIR."
	.align 8
.LC6:
	.string	"Exit Status:\nReturns 0 if the directory is changed, and if $PWD is set successfully when -P is used; non-zero otherwise.\n"
	.text
	.globl	helpcd
	.type	helpcd, @function
helpcd:
.LFB5:
	.cfi_startproc
	endbr64
	pushq	%rbp
	.cfi_def_cfa_offset 16
	.cfi_offset 6, -16
	movq	%rsp, %rbp
	.cfi_def_cfa_register 6
	subq	$32, %rsp
#APP
# 100 "vidhi448_Linux-Shell_Main.c" 1
	##_ANNOTATION_INITIALREGION_-TIG-iO-fbRg-1-helpcd--18
# 0 "" 2
# 104 "vidhi448_Linux-Shell_Main.c" 1
	##_ANNOTATION_ATOMICREGION_-TIG-iO-fbRg-1-helpcd--17
# 0 "" 2
#NO_APP
	movl	$24, %edi
	call	malloc@PLT
	movq	%rax, -24(%rbp)
	movq	-24(%rbp), %rax
	movq	-24(%rbp), %rdx
	movq	%rdx, 8(%rax)
	movq	-24(%rbp), %rax
	movq	-24(%rbp), %rdx
	movq	%rdx, (%rax)
	movq	-24(%rbp), %rax
	movq	%rax, _TIG_iO_fbRg_1_helpcd_1_opaque_list_1(%rip)
	call	rand@PLT
	movl	%eax, -32(%rbp)
	movl	$24, %edi
	call	malloc@PLT
	movq	%rax, -16(%rbp)
	movq	-16(%rbp), %rax
	movl	$0, 16(%rax)
	movq	_TIG_iO_fbRg_1_helpcd_1_opaque_list_1(%rip), %rax
	movq	8(%rax), %rdx
	movq	-16(%rbp), %rax
	movq	%rdx, 8(%rax)
	movq	_TIG_iO_fbRg_1_helpcd_1_opaque_list_1(%rip), %rdx
	movq	-16(%rbp), %rax
	movq	%rdx, (%rax)
	movq	_TIG_iO_fbRg_1_helpcd_1_opaque_list_1(%rip), %rax
	movq	8(%rax), %rax
	movq	-16(%rbp), %rdx
	movq	%rdx, (%rax)
	movq	_TIG_iO_fbRg_1_helpcd_1_opaque_list_1(%rip), %rax
	movq	-16(%rbp), %rdx
	movq	%rdx, 8(%rax)
	call	rand@PLT
	movl	%eax, -28(%rbp)
	movl	$24, %edi
	call	malloc@PLT
	movq	%rax, -8(%rbp)
	movq	-8(%rbp), %rax
	movl	-28(%rbp), %edx
	movl	%edx, 16(%rax)
	movq	_TIG_iO_fbRg_1_helpcd_1_opaque_list_1(%rip), %rax
	movq	8(%rax), %rdx
	movq	-8(%rbp), %rax
	movq	%rdx, 8(%rax)
	movq	_TIG_iO_fbRg_1_helpcd_1_opaque_list_1(%rip), %rdx
	movq	-8(%rbp), %rax
	movq	%rdx, (%rax)
	movq	_TIG_iO_fbRg_1_helpcd_1_opaque_list_1(%rip), %rax
	movq	8(%rax), %rax
	movq	-8(%rbp), %rdx
	movq	%rdx, (%rax)
	movq	_TIG_iO_fbRg_1_helpcd_1_opaque_list_1(%rip), %rax
	movq	-8(%rbp), %rdx
	movq	%rdx, 8(%rax)
	movq	_TIG_iO_fbRg_1_helpcd_1_opaque_list_1(%rip), %rax
	movq	8(%rax), %rax
	movq	%rax, _TIG_iO_fbRg_1_helpcd_1_opaque_ptr_1(%rip)
	movq	_TIG_iO_fbRg_1_helpcd_1_opaque_ptr_1(%rip), %rax
	movq	%rax, _TIG_iO_fbRg_1_helpcd_1_opaque_ptr_2(%rip)
	movq	_TIG_iO_fbRg_1_helpcd_1_opaque_ptr_2(%rip), %rax
	movq	8(%rax), %rax
	movq	%rax, _TIG_iO_fbRg_1_helpcd_1_opaque_ptr_2(%rip)
	nop
	nop
	movq	_TIG_iO_fbRg_1_split_line_1_opaque_ptr_1(%rip), %rdx
	movq	_TIG_iO_fbRg_1_split_line_1_opaque_ptr_2(%rip), %rax
	cmpq	%rax, %rdx
	jne	.L15
	leaq	.LC3(%rip), %rax
	movq	%rax, %rdi
	call	puts@PLT
	leaq	.LC4(%rip), %rax
	movq	%rax, %rdi
	call	puts@PLT
	leaq	.LC5(%rip), %rax
	movq	%rax, %rdi
	call	puts@PLT
	leaq	.LC6(%rip), %rax
	movq	%rax, %rdi
	call	puts@PLT
	jmp	.L14
.L15:
#APP
# 76 "vidhi448_Linux-Shell_Main.c" 1
	.byte 0xe,0x8c
# 0 "" 2
#NO_APP
	nop
.L14:
	leave
	.cfi_def_cfa 7, 8
	ret
	.cfi_endproc
.LFE5:
	.size	helpcd, .-helpcd
	.section	.rodata
.LC7:
	.string	"readline"
	.text
	.globl	read_line
	.type	read_line, @function
read_line:
.LFB7:
	.cfi_startproc
	endbr64
	pushq	%rbp
	.cfi_def_cfa_offset 16
	.cfi_offset 6, -16
	movq	%rsp, %rbp
	.cfi_def_cfa_register 6
	subq	$80, %rsp
	movq	%fs:40, %rax
	movq	%rax, -8(%rbp)
	xorl	%eax, %eax
#APP
# 72 "/usr/include/x86_64-linux-gnu/bits/byteswap.h" 1
	##_ANNOTATION_INITIALREGION_-TIG-iO-fbRg-1-read-line--34
# 0 "" 2
# 76 "/usr/include/x86_64-linux-gnu/bits/byteswap.h" 1
	##_ANNOTATION_ATOMICREGION_-TIG-iO-fbRg-1-read-line--33
# 0 "" 2
#NO_APP
	movl	$24, %edi
	call	malloc@PLT
	movq	%rax, -40(%rbp)
	movq	-40(%rbp), %rax
	movq	-40(%rbp), %rdx
	movq	%rdx, (%rax)
	movq	-40(%rbp), %rax
	movq	-40(%rbp), %rdx
	movq	%rdx, 8(%rax)
	movq	-40(%rbp), %rax
	movq	%rax, _TIG_iO_fbRg_1_read_line_1_opaque_list_1(%rip)
	call	rand@PLT
	movl	%eax, -68(%rbp)
	movl	$24, %edi
	call	malloc@PLT
	movq	%rax, -32(%rbp)
	movq	-32(%rbp), %rax
	movl	$0, 16(%rax)
	movq	_TIG_iO_fbRg_1_read_line_1_opaque_list_1(%rip), %rax
	movq	(%rax), %rdx
	movq	-32(%rbp), %rax
	movq	%rdx, (%rax)
	movq	_TIG_iO_fbRg_1_read_line_1_opaque_list_1(%rip), %rdx
	movq	-32(%rbp), %rax
	movq	%rdx, 8(%rax)
	movq	_TIG_iO_fbRg_1_read_line_1_opaque_list_1(%rip), %rax
	movq	(%rax), %rax
	movq	-32(%rbp), %rdx
	movq	%rdx, 8(%rax)
	movq	_TIG_iO_fbRg_1_read_line_1_opaque_list_1(%rip), %rax
	movq	-32(%rbp), %rdx
	movq	%rdx, (%rax)
	call	rand@PLT
	movl	%eax, -64(%rbp)
	movl	$24, %edi
	call	malloc@PLT
	movq	%rax, -24(%rbp)
	movq	-24(%rbp), %rax
	movl	-64(%rbp), %edx
	movl	%edx, 16(%rax)
	movq	_TIG_iO_fbRg_1_read_line_1_opaque_list_1(%rip), %rax
	movq	(%rax), %rdx
	movq	-24(%rbp), %rax
	movq	%rdx, (%rax)
	movq	_TIG_iO_fbRg_1_read_line_1_opaque_list_1(%rip), %rdx
	movq	-24(%rbp), %rax
	movq	%rdx, 8(%rax)
	movq	_TIG_iO_fbRg_1_read_line_1_opaque_list_1(%rip), %rax
	movq	(%rax), %rax
	movq	-24(%rbp), %rdx
	movq	%rdx, 8(%rax)
	movq	_TIG_iO_fbRg_1_read_line_1_opaque_list_1(%rip), %rax
	movq	-24(%rbp), %rdx
	movq	%rdx, (%rax)
	movq	_TIG_iO_fbRg_1_read_line_1_opaque_list_1(%rip), %rax
	movq	(%rax), %rax
	movq	%rax, _TIG_iO_fbRg_1_read_line_1_opaque_ptr_1(%rip)
	movq	_TIG_iO_fbRg_1_read_line_1_opaque_ptr_1(%rip), %rax
	movq	%rax, _TIG_iO_fbRg_1_read_line_1_opaque_ptr_2(%rip)
	nop
	nop
	movq	$0, -56(%rbp)
	movq	$0, -48(%rbp)
	movq	stdin(%rip), %rdx
	leaq	-48(%rbp), %rcx
	leaq	-56(%rbp), %rax
	movq	%rcx, %rsi
	movq	%rax, %rdi
	call	getline@PLT
	movq	%rax, -16(%rbp)
	cmpq	$-1, -16(%rbp)
	jne	.L19
	movq	stdin(%rip), %rax
	movq	%rax, %rdi
	call	feof@PLT
	movl	%eax, -60(%rbp)
	movq	_TIG_iO_fbRg_1_split_line_1_opaque_ptr_1(%rip), %rdx
	movq	_TIG_iO_fbRg_1_split_line_1_opaque_ptr_2(%rip), %rax
	cmpq	%rax, %rdx
	jne	.L26
	cmpl	$0, -60(%rbp)
	je	.L21
	movl	$0, %edi
	call	exit@PLT
.L21:
	leaq	.LC7(%rip), %rax
	movq	%rax, %rdi
	call	perror@PLT
	movl	$1, %edi
	call	exit@PLT
.L23:
	movl	$0, %edi
	call	exit@PLT
.L26:
	nop
	cmpl	$3, -60(%rbp)
	jle	.L23
.L19:
	movq	-56(%rbp), %rax
	movq	-8(%rbp), %rdx
	subq	%fs:40, %rdx
	je	.L25
	call	__stack_chk_fail@PLT
.L25:
	leave
	.cfi_def_cfa 7, 8
	ret
	.cfi_endproc
.LFE7:
	.size	read_line, .-read_line
	.section	.rodata
	.align 8
.LC8:
	.string	"\nexit: exit [n]\nExit the shell.\nExits the shell with a status of N.  If N is omitted, the exit status is that of the last command executed.\n\n"
	.align 8
.LC9:
	.string	"\nexit: exit [n]\nExit the shell.\nExits the shell with a status of N.  If N is omitted, the exit status is that of the last command executed.\n"
	.text
	.globl	helpexit
	.type	helpexit, @function
helpexit:
.LFB8:
	.cfi_startproc
	endbr64
	pushq	%rbp
	.cfi_def_cfa_offset 16
	.cfi_offset 6, -16
	movq	%rsp, %rbp
	.cfi_def_cfa_register 6
	subq	$32, %rsp
#APP
# 123 "vidhi448_Linux-Shell_Main.c" 1
	##_ANNOTATION_INITIALREGION_-TIG-iO-fbRg-1-helpexit--20
# 0 "" 2
# 127 "vidhi448_Linux-Shell_Main.c" 1
	##_ANNOTATION_ATOMICREGION_-TIG-iO-fbRg-1-helpexit--19
# 0 "" 2
#NO_APP
	movl	$24, %edi
	call	malloc@PLT
	movq	%rax, -24(%rbp)
	movq	-24(%rbp), %rax
	movq	-24(%rbp), %rdx
	movq	%rdx, 8(%rax)
	movq	-24(%rbp), %rax
	movq	-24(%rbp), %rdx
	movq	%rdx, 16(%rax)
	movq	-24(%rbp), %rax
	movq	%rax, _TIG_iO_fbRg_1_helpexit_1_opaque_list_1(%rip)
	call	rand@PLT
	movl	%eax, -32(%rbp)
	movl	$24, %edi
	call	malloc@PLT
	movq	%rax, -16(%rbp)
	movq	-16(%rbp), %rax
	movl	$0, (%rax)
	movq	_TIG_iO_fbRg_1_helpexit_1_opaque_list_1(%rip), %rax
	movq	8(%rax), %rdx
	movq	-16(%rbp), %rax
	movq	%rdx, 8(%rax)
	movq	_TIG_iO_fbRg_1_helpexit_1_opaque_list_1(%rip), %rdx
	movq	-16(%rbp), %rax
	movq	%rdx, 16(%rax)
	movq	_TIG_iO_fbRg_1_helpexit_1_opaque_list_1(%rip), %rax
	movq	8(%rax), %rax
	movq	-16(%rbp), %rdx
	movq	%rdx, 16(%rax)
	movq	_TIG_iO_fbRg_1_helpexit_1_opaque_list_1(%rip), %rax
	movq	-16(%rbp), %rdx
	movq	%rdx, 8(%rax)
	call	rand@PLT
	movl	%eax, -28(%rbp)
	movl	$24, %edi
	call	malloc@PLT
	movq	%rax, -8(%rbp)
	movq	-8(%rbp), %rax
	movl	-28(%rbp), %edx
	movl	%edx, (%rax)
	movq	_TIG_iO_fbRg_1_helpexit_1_opaque_list_1(%rip), %rax
	movq	8(%rax), %rdx
	movq	-8(%rbp), %rax
	movq	%rdx, 8(%rax)
	movq	_TIG_iO_fbRg_1_helpexit_1_opaque_list_1(%rip), %rdx
	movq	-8(%rbp), %rax
	movq	%rdx, 16(%rax)
	movq	_TIG_iO_fbRg_1_helpexit_1_opaque_list_1(%rip), %rax
	movq	8(%rax), %rax
	movq	-8(%rbp), %rdx
	movq	%rdx, 16(%rax)
	movq	_TIG_iO_fbRg_1_helpexit_1_opaque_list_1(%rip), %rax
	movq	-8(%rbp), %rdx
	movq	%rdx, 8(%rax)
	movq	_TIG_iO_fbRg_1_helpexit_1_opaque_list_1(%rip), %rax
	movq	8(%rax), %rax
	movq	%rax, _TIG_iO_fbRg_1_helpexit_1_opaque_ptr_1(%rip)
	movq	_TIG_iO_fbRg_1_helpexit_1_opaque_ptr_1(%rip), %rax
	movq	%rax, _TIG_iO_fbRg_1_helpexit_1_opaque_ptr_2(%rip)
	nop
	nop
	movq	_TIG_iO_fbRg_1_split_line_1_opaque_ptr_1(%rip), %rdx
	movq	_TIG_iO_fbRg_1_split_line_1_opaque_ptr_2(%rip), %rax
	cmpq	%rax, %rdx
	je	.L28
	leaq	-1+.LC8(%rip), %rax
	movq	%rax, %rdi
	movl	$0, %eax
	call	printf@PLT
	jmp	.L27
.L28:
	leaq	.LC9(%rip), %rax
	movq	%rax, %rdi
	call	puts@PLT
	nop
.L27:
	leave
	.cfi_def_cfa 7, 8
	ret
	.cfi_endproc
.LFE8:
	.size	helpexit, .-helpexit
	.section	.rodata
.LC10:
	.string	"\033[H\033[J"
	.align 8
.LC11:
	.string	"\n\n\n\n******************************************"
.LC12:
	.string	"\n\n\n\t****MY SHELL****"
.LC13:
	.string	"\n\n\t-USE AT YOUR OWN RISK-"
.LC14:
	.string	"\n"
	.text
	.globl	init_shell
	.type	init_shell, @function
init_shell:
.LFB10:
	.cfi_startproc
	endbr64
	pushq	%rbp
	.cfi_def_cfa_offset 16
	.cfi_offset 6, -16
	movq	%rsp, %rbp
	.cfi_def_cfa_register 6
	subq	$48, %rsp
#APP
# 67 "/usr/include/x86_64-linux-gnu/bits/uintn-identity.h" 1
	##_ANNOTATION_INITIALREGION_-TIG-iO-fbRg-1-init-shell--24
# 0 "" 2
# 71 "/usr/include/x86_64-linux-gnu/bits/uintn-identity.h" 1
	##_ANNOTATION_ATOMICREGION_-TIG-iO-fbRg-1-init-shell--23
# 0 "" 2
#NO_APP
	movl	$24, %edi
	call	malloc@PLT
	movq	%rax, -32(%rbp)
	movq	-32(%rbp), %rax
	movq	-32(%rbp), %rdx
	movq	%rdx, (%rax)
	movq	-32(%rbp), %rax
	movq	-32(%rbp), %rdx
	movq	%rdx, 8(%rax)
	movq	-32(%rbp), %rax
	movq	%rax, _TIG_iO_fbRg_1_init_shell_1_opaque_list_1(%rip)
	call	rand@PLT
	movl	%eax, -44(%rbp)
	movl	$24, %edi
	call	malloc@PLT
	movq	%rax, -24(%rbp)
	movq	-24(%rbp), %rax
	movl	$0, 16(%rax)
	movq	_TIG_iO_fbRg_1_init_shell_1_opaque_list_1(%rip), %rax
	movq	(%rax), %rdx
	movq	-24(%rbp), %rax
	movq	%rdx, (%rax)
	movq	_TIG_iO_fbRg_1_init_shell_1_opaque_list_1(%rip), %rdx
	movq	-24(%rbp), %rax
	movq	%rdx, 8(%rax)
	movq	_TIG_iO_fbRg_1_init_shell_1_opaque_list_1(%rip), %rax
	movq	(%rax), %rax
	movq	-24(%rbp), %rdx
	movq	%rdx, 8(%rax)
	movq	_TIG_iO_fbRg_1_init_shell_1_opaque_list_1(%rip), %rax
	movq	-24(%rbp), %rdx
	movq	%rdx, (%rax)
	call	rand@PLT
	movl	%eax, -40(%rbp)
	movl	$24, %edi
	call	malloc@PLT
	movq	%rax, -16(%rbp)
	movq	-16(%rbp), %rax
	movl	-40(%rbp), %edx
	movl	%edx, 16(%rax)
	movq	_TIG_iO_fbRg_1_init_shell_1_opaque_list_1(%rip), %rax
	movq	(%rax), %rdx
	movq	-16(%rbp), %rax
	movq	%rdx, (%rax)
	movq	_TIG_iO_fbRg_1_init_shell_1_opaque_list_1(%rip), %rdx
	movq	-16(%rbp), %rax
	movq	%rdx, 8(%rax)
	movq	_TIG_iO_fbRg_1_init_shell_1_opaque_list_1(%rip), %rax
	movq	(%rax), %rax
	movq	-16(%rbp), %rdx
	movq	%rdx, 8(%rax)
	movq	_TIG_iO_fbRg_1_init_shell_1_opaque_list_1(%rip), %rax
	movq	-16(%rbp), %rdx
	movq	%rdx, (%rax)
	call	rand@PLT
	movl	%eax, -36(%rbp)
	movl	$24, %edi
	call	malloc@PLT
	movq	%rax, -8(%rbp)
	movl	-36(%rbp), %eax
	leal	(%rax,%rax), %edx
	movq	-8(%rbp), %rax
	movl	%edx, 16(%rax)
	movq	_TIG_iO_fbRg_1_init_shell_1_opaque_list_1(%rip), %rax
	movq	(%rax), %rdx
	movq	-8(%rbp), %rax
	movq	%rdx, (%rax)
	movq	_TIG_iO_fbRg_1_init_shell_1_opaque_list_1(%rip), %rdx
	movq	-8(%rbp), %rax
	movq	%rdx, 8(%rax)
	movq	_TIG_iO_fbRg_1_init_shell_1_opaque_list_1(%rip), %rax
	movq	(%rax), %rax
	movq	-8(%rbp), %rdx
	movq	%rdx, 8(%rax)
	movq	_TIG_iO_fbRg_1_init_shell_1_opaque_list_1(%rip), %rax
	movq	-8(%rbp), %rdx
	movq	%rdx, (%rax)
	movq	_TIG_iO_fbRg_1_init_shell_1_opaque_list_1(%rip), %rax
	movq	(%rax), %rax
	movq	%rax, _TIG_iO_fbRg_1_init_shell_1_opaque_ptr_1(%rip)
	movq	_TIG_iO_fbRg_1_init_shell_1_opaque_ptr_1(%rip), %rax
	movq	%rax, _TIG_iO_fbRg_1_init_shell_1_opaque_ptr_2(%rip)
	movq	_TIG_iO_fbRg_1_init_shell_1_opaque_ptr_2(%rip), %rax
	movq	(%rax), %rax
	movq	%rax, _TIG_iO_fbRg_1_init_shell_1_opaque_ptr_2(%rip)
	nop
	nop
	movq	_TIG_iO_fbRg_1_split_line_1_opaque_ptr_1(%rip), %rdx
	movq	_TIG_iO_fbRg_1_split_line_1_opaque_ptr_2(%rip), %rax
	cmpq	%rax, %rdx
	je	.L32
	leaq	-1+.LC10(%rip), %rax
	movq	%rax, %rdi
	movl	$0, %eax
	call	printf@PLT
	leaq	1+.LC11(%rip), %rax
	movq	%rax, %rdi
	movl	$0, %eax
	call	printf@PLT
	leaq	1+.LC12(%rip), %rax
	movq	%rax, %rdi
	movl	$0, %eax
	call	printf@PLT
	leaq	-1+.LC13(%rip), %rax
	movq	%rax, %rdi
	movl	$0, %eax
	call	printf@PLT
	leaq	-1+.LC11(%rip), %rax
	movq	%rax, %rdi
	movl	$0, %eax
	call	printf@PLT
	leaq	1+.LC14(%rip), %rax
	movq	%rax, %rdi
	movl	$0, %eax
	call	printf@PLT
	movl	$8, %edi
	call	sleep@PLT
	jmp	.L31
.L32:
	leaq	.LC10(%rip), %rax
	movq	%rax, %rdi
	movl	$0, %eax
	call	printf@PLT
	leaq	.LC11(%rip), %rax
	movq	%rax, %rdi
	movl	$0, %eax
	call	printf@PLT
	leaq	.LC12(%rip), %rax
	movq	%rax, %rdi
	movl	$0, %eax
	call	printf@PLT
	leaq	.LC13(%rip), %rax
	movq	%rax, %rdi
	movl	$0, %eax
	call	printf@PLT
	leaq	.LC11(%rip), %rax
	movq	%rax, %rdi
	movl	$0, %eax
	call	printf@PLT
	movl	$10, %edi
	call	putchar@PLT
	movl	$1, %edi
	call	sleep@PLT
	nop
.L31:
	leave
	.cfi_def_cfa 7, 8
	ret
	.cfi_endproc
.LFE10:
	.size	init_shell, .-init_shell
	.section	.rodata
.LC15:
	.string	"lsh: allocation error\n"
.LC16:
	.string	" \t\r\n\007"
	.text
	.globl	split_line
	.type	split_line, @function
split_line:
.LFB11:
	.cfi_startproc
	endbr64
	pushq	%rbp
	.cfi_def_cfa_offset 16
	.cfi_offset 6, -16
	movq	%rsp, %rbp
	.cfi_def_cfa_register 6
	subq	$96, %rsp
	movq	%rdi, -88(%rbp)
#APP
# 115 "vidhi448_Linux-Shell_Main.c" 1
	##_ANNOTATION_INITIALREGION_-TIG-iO-fbRg-1-split-line--36
# 0 "" 2
# 119 "vidhi448_Linux-Shell_Main.c" 1
	##_ANNOTATION_ATOMICREGION_-TIG-iO-fbRg-1-split-line--35
# 0 "" 2
#NO_APP
	movl	$24, %edi
	call	malloc@PLT
	movq	%rax, -40(%rbp)
	movq	-40(%rbp), %rax
	movq	-40(%rbp), %rdx
	movq	%rdx, 8(%rax)
	movq	-40(%rbp), %rax
	movq	-40(%rbp), %rdx
	movq	%rdx, 16(%rax)
	movq	-40(%rbp), %rax
	movq	%rax, _TIG_iO_fbRg_1_split_line_1_opaque_list_1(%rip)
	call	rand@PLT
	movl	%eax, -64(%rbp)
	movl	$24, %edi
	call	malloc@PLT
	movq	%rax, -32(%rbp)
	movq	-32(%rbp), %rax
	movl	$0, (%rax)
	movq	_TIG_iO_fbRg_1_split_line_1_opaque_list_1(%rip), %rax
	movq	8(%rax), %rdx
	movq	-32(%rbp), %rax
	movq	%rdx, 8(%rax)
	movq	_TIG_iO_fbRg_1_split_line_1_opaque_list_1(%rip), %rdx
	movq	-32(%rbp), %rax
	movq	%rdx, 16(%rax)
	movq	_TIG_iO_fbRg_1_split_line_1_opaque_list_1(%rip), %rax
	movq	8(%rax), %rax
	movq	-32(%rbp), %rdx
	movq	%rdx, 16(%rax)
	movq	_TIG_iO_fbRg_1_split_line_1_opaque_list_1(%rip), %rax
	movq	-32(%rbp), %rdx
	movq	%rdx, 8(%rax)
	call	rand@PLT
	movl	%eax, -60(%rbp)
	movl	$24, %edi
	call	malloc@PLT
	movq	%rax, -24(%rbp)
	movq	-24(%rbp), %rax
	movl	-60(%rbp), %edx
	movl	%edx, (%rax)
	movq	_TIG_iO_fbRg_1_split_line_1_opaque_list_1(%rip), %rax
	movq	8(%rax), %rdx
	movq	-24(%rbp), %rax
	movq	%rdx, 8(%rax)
	movq	_TIG_iO_fbRg_1_split_line_1_opaque_list_1(%rip), %rdx
	movq	-24(%rbp), %rax
	movq	%rdx, 16(%rax)
	movq	_TIG_iO_fbRg_1_split_line_1_opaque_list_1(%rip), %rax
	movq	8(%rax), %rax
	movq	-24(%rbp), %rdx
	movq	%rdx, 16(%rax)
	movq	_TIG_iO_fbRg_1_split_line_1_opaque_list_1(%rip), %rax
	movq	-24(%rbp), %rdx
	movq	%rdx, 8(%rax)
	movq	_TIG_iO_fbRg_1_split_line_1_opaque_list_1(%rip), %rax
	movq	8(%rax), %rax
	movq	%rax, _TIG_iO_fbRg_1_split_line_1_opaque_ptr_1(%rip)
	movq	_TIG_iO_fbRg_1_split_line_1_opaque_ptr_1(%rip), %rax
	movq	%rax, _TIG_iO_fbRg_1_split_line_1_opaque_ptr_2(%rip)
	nop
	nop
	movl	$64, -72(%rbp)
	movl	$0, -68(%rbp)
	movl	-72(%rbp), %eax
	cltq
	salq	$3, %rax
	movq	%rax, %rdi
	call	malloc@PLT
	movq	%rax, -16(%rbp)
	movq	-16(%rbp), %rax
	movq	%rax, -56(%rbp)
	cmpq	$0, -56(%rbp)
	jne	.L36
	movq	stderr(%rip), %rax
	movq	%rax, %rcx
	movl	$22, %edx
	movl	$1, %esi
	leaq	.LC15(%rip), %rax
	movq	%rax, %rdi
	call	fwrite@PLT
	movl	$1, %edi
	call	exit@PLT
.L36:
	movq	-88(%rbp), %rax
	leaq	.LC16(%rip), %rdx
	movq	%rdx, %rsi
	movq	%rax, %rdi
	call	strtok@PLT
	movq	%rax, -48(%rbp)
	jmp	.L37
.L39:
	movl	-68(%rbp), %eax
	cltq
	leaq	0(,%rax,8), %rdx
	movq	-56(%rbp), %rax
	addq	%rax, %rdx
	movq	-48(%rbp), %rax
	movq	%rax, (%rdx)
	addl	$1, -68(%rbp)
	movl	-68(%rbp), %eax
	cmpl	-72(%rbp), %eax
	jl	.L38
	addl	$64, -72(%rbp)
	movl	-72(%rbp), %eax
	cltq
	leaq	0(,%rax,8), %rdx
	movq	-56(%rbp), %rax
	movq	%rdx, %rsi
	movq	%rax, %rdi
	call	realloc@PLT
	movq	%rax, -8(%rbp)
	movq	-8(%rbp), %rax
	movq	%rax, -56(%rbp)
	movq	_TIG_iO_fbRg_1_split_line_1_opaque_ptr_1(%rip), %rdx
	movq	_TIG_iO_fbRg_1_split_line_1_opaque_ptr_2(%rip), %rax
	cmpq	%rax, %rdx
	jne	.L38
	cmpq	$0, -56(%rbp)
	jne	.L38
	movq	stderr(%rip), %rax
	movq	%rax, %rcx
	movl	$22, %edx
	movl	$1, %esi
	leaq	.LC15(%rip), %rax
	movq	%rax, %rdi
	call	fwrite@PLT
	movl	$1, %edi
	call	exit@PLT
.L38:
	leaq	.LC16(%rip), %rax
	movq	%rax, %rsi
	movl	$0, %edi
	call	strtok@PLT
	movq	%rax, -48(%rbp)
.L37:
	cmpq	$0, -48(%rbp)
	jne	.L39
	movl	-68(%rbp), %eax
	cltq
	leaq	0(,%rax,8), %rdx
	movq	-56(%rbp), %rax
	addq	%rdx, %rax
	movq	$0, (%rax)
	movq	-56(%rbp), %rax
	leave
	.cfi_def_cfa 7, 8
	ret
	.cfi_endproc
.LFE11:
	.size	split_line, .-split_line
	.globl	add_history
	.type	add_history, @function
add_history:
.LFB12:
	.cfi_startproc
	endbr64
	pushq	%rbp
	.cfi_def_cfa_offset 16
	.cfi_offset 6, -16
	movq	%rsp, %rbp
	.cfi_def_cfa_register 6
	subq	$96, %rsp
	movq	%rdi, -88(%rbp)
#APP
# 84 "vidhi448_Linux-Shell_Main.c" 1
	##_ANNOTATION_INITIALREGION_-TIG-iO-fbRg-1-add-history--14
# 0 "" 2
# 88 "vidhi448_Linux-Shell_Main.c" 1
	##_ANNOTATION_ATOMICREGION_-TIG-iO-fbRg-1-add-history--13
# 0 "" 2
#NO_APP
	movl	$24, %edi
	call	malloc@PLT
	movq	%rax, -48(%rbp)
	movq	-48(%rbp), %rax
	movq	-48(%rbp), %rdx
	movq	%rdx, (%rax)
	movq	-48(%rbp), %rax
	movq	-48(%rbp), %rdx
	movq	%rdx, 8(%rax)
	movq	-48(%rbp), %rax
	movq	%rax, _TIG_iO_fbRg_1_add_history_1_opaque_list_1(%rip)
	call	rand@PLT
	movl	%eax, -68(%rbp)
	movl	$24, %edi
	call	malloc@PLT
	movq	%rax, -40(%rbp)
	movq	-40(%rbp), %rax
	movl	$0, 16(%rax)
	movq	_TIG_iO_fbRg_1_add_history_1_opaque_list_1(%rip), %rax
	movq	(%rax), %rdx
	movq	-40(%rbp), %rax
	movq	%rdx, (%rax)
	movq	_TIG_iO_fbRg_1_add_history_1_opaque_list_1(%rip), %rdx
	movq	-40(%rbp), %rax
	movq	%rdx, 8(%rax)
	movq	_TIG_iO_fbRg_1_add_history_1_opaque_list_1(%rip), %rax
	movq	(%rax), %rax
	movq	-40(%rbp), %rdx
	movq	%rdx, 8(%rax)
	movq	_TIG_iO_fbRg_1_add_history_1_opaque_list_1(%rip), %rax
	movq	-40(%rbp), %rdx
	movq	%rdx, (%rax)
	call	rand@PLT
	movl	%eax, -64(%rbp)
	movl	$24, %edi
	call	malloc@PLT
	movq	%rax, -32(%rbp)
	movq	-32(%rbp), %rax
	movl	-64(%rbp), %edx
	movl	%edx, 16(%rax)
	movq	_TIG_iO_fbRg_1_add_history_1_opaque_list_1(%rip), %rax
	movq	(%rax), %rdx
	movq	-32(%rbp), %rax
	movq	%rdx, (%rax)
	movq	_TIG_iO_fbRg_1_add_history_1_opaque_list_1(%rip), %rdx
	movq	-32(%rbp), %rax
	movq	%rdx, 8(%rax)
	movq	_TIG_iO_fbRg_1_add_history_1_opaque_list_1(%rip), %rax
	movq	(%rax), %rax
	movq	-32(%rbp), %rdx
	movq	%rdx, 8(%rax)
	movq	_TIG_iO_fbRg_1_add_history_1_opaque_list_1(%rip), %rax
	movq	-32(%rbp), %rdx
	movq	%rdx, (%rax)
	call	rand@PLT
	movl	%eax, -60(%rbp)
	movl	$24, %edi
	call	malloc@PLT
	movq	%rax, -24(%rbp)
	movl	-60(%rbp), %eax
	leal	(%rax,%rax), %edx
	movq	-24(%rbp), %rax
	movl	%edx, 16(%rax)
	movq	_TIG_iO_fbRg_1_add_history_1_opaque_list_1(%rip), %rax
	movq	(%rax), %rdx
	movq	-24(%rbp), %rax
	movq	%rdx, (%rax)
	movq	_TIG_iO_fbRg_1_add_history_1_opaque_list_1(%rip), %rdx
	movq	-24(%rbp), %rax
	movq	%rdx, 8(%rax)
	movq	_TIG_iO_fbRg_1_add_history_1_opaque_list_1(%rip), %rax
	movq	(%rax), %rax
	movq	-24(%rbp), %rdx
	movq	%rdx, 8(%rax)
	movq	_TIG_iO_fbRg_1_add_history_1_opaque_list_1(%rip), %rax
	movq	-24(%rbp), %rdx
	movq	%rdx, (%rax)
	call	rand@PLT
	movl	%eax, -56(%rbp)
	movl	$24, %edi
	call	malloc@PLT
	movq	%rax, -16(%rbp)
	movl	-56(%rbp), %edx
	movl	%edx, %eax
	addl	%eax, %eax
	addl	%eax, %edx
	movq	-16(%rbp), %rax
	movl	%edx, 16(%rax)
	movq	_TIG_iO_fbRg_1_add_history_1_opaque_list_1(%rip), %rax
	movq	(%rax), %rdx
	movq	-16(%rbp), %rax
	movq	%rdx, (%rax)
	movq	_TIG_iO_fbRg_1_add_history_1_opaque_list_1(%rip), %rdx
	movq	-16(%rbp), %rax
	movq	%rdx, 8(%rax)
	movq	_TIG_iO_fbRg_1_add_history_1_opaque_list_1(%rip), %rax
	movq	(%rax), %rax
	movq	-16(%rbp), %rdx
	movq	%rdx, 8(%rax)
	movq	_TIG_iO_fbRg_1_add_history_1_opaque_list_1(%rip), %rax
	movq	-16(%rbp), %rdx
	movq	%rdx, (%rax)
	movq	_TIG_iO_fbRg_1_add_history_1_opaque_list_1(%rip), %rax
	movq	(%rax), %rax
	movq	%rax, _TIG_iO_fbRg_1_add_history_1_opaque_ptr_1(%rip)
	movq	_TIG_iO_fbRg_1_add_history_1_opaque_ptr_1(%rip), %rax
	movq	%rax, _TIG_iO_fbRg_1_add_history_1_opaque_ptr_2(%rip)
	movq	_TIG_iO_fbRg_1_add_history_1_opaque_ptr_2(%rip), %rax
	movq	(%rax), %rax
	movq	%rax, _TIG_iO_fbRg_1_add_history_1_opaque_ptr_2(%rip)
	nop
	nop
	movl	history_count(%rip), %eax
	cmpl	$999, %eax
	jg	.L42
	movl	history_count(%rip), %eax
	movl	%eax, -52(%rbp)
	movl	history_count(%rip), %eax
	addl	$1, %eax
	movl	%eax, history_count(%rip)
	movq	-88(%rbp), %rax
	movq	%rax, %rdi
	call	strdup@PLT
	movq	%rax, %rcx
	movl	-52(%rbp), %eax
	cltq
	leaq	0(,%rax,8), %rdx
	leaq	history(%rip), %rax
	movq	%rcx, (%rdx,%rax)
	jmp	.L41
.L42:
	movq	history(%rip), %rax
	movq	%rax, %rdi
	call	free@PLT
	movl	$1, -72(%rbp)
.L47:
	movq	_TIG_iO_fbRg_1_split_line_1_opaque_ptr_1(%rip), %rdx
	movq	_TIG_iO_fbRg_1_split_line_1_opaque_ptr_2(%rip), %rax
	cmpq	%rax, %rdx
	je	.L44
	movl	$0, %edi
	call	split_line
	movq	%rax, -8(%rbp)
.L44:
	cmpl	$999, -72(%rbp)
	jg	.L50
	movl	-72(%rbp), %eax
	leal	-1(%rax), %ecx
	movl	-72(%rbp), %eax
	cltq
	leaq	0(,%rax,8), %rdx
	leaq	history(%rip), %rax
	movq	(%rdx,%rax), %rax
	movslq	%ecx, %rdx
	leaq	0(,%rdx,8), %rcx
	leaq	history(%rip), %rdx
	movq	%rax, (%rcx,%rdx)
	addl	$1, -72(%rbp)
	jmp	.L47
.L50:
	nop
	movq	-88(%rbp), %rax
	movq	%rax, %rdi
	call	strdup@PLT
	movq	%rax, 7992+history(%rip)
	nop
.L41:
	leave
	.cfi_def_cfa 7, 8
	ret
	.cfi_endproc
.LFE12:
	.size	add_history, .-add_history
	.section	.rodata
.LC17:
	.string	"fork creation failed!!!\n"
.LC18:
	.string	"ls"
.LC19:
	.string	"cat"
.LC20:
	.string	"date"
.LC21:
	.string	"/date"
.LC22:
	.string	"rm"
.LC23:
	.string	"mkdir"
.LC24:
	.string	"Command not found"
.LC25:
	.string	"parent:error\n"
	.text
	.globl	external_commands
	.type	external_commands, @function
external_commands:
.LFB14:
	.cfi_startproc
	endbr64
	pushq	%rbp
	.cfi_def_cfa_offset 16
	.cfi_offset 6, -16
	movq	%rsp, %rbp
	.cfi_def_cfa_register 6
	subq	$1120, %rsp
	movq	%rdi, -1112(%rbp)
	movq	%rsi, -1120(%rbp)
	movq	%fs:40, %rax
	movq	%rax, -8(%rbp)
	xorl	%eax, %eax
#APP
# 66 "/usr/include/x86_64-linux-gnu/bits/uintn-identity.h" 1
	##_ANNOTATION_INITIALREGION_-TIG-iO-fbRg-1-external-commands--16
# 0 "" 2
# 70 "/usr/include/x86_64-linux-gnu/bits/uintn-identity.h" 1
	##_ANNOTATION_ATOMICREGION_-TIG-iO-fbRg-1-external-commands--15
# 0 "" 2
#NO_APP
	movl	$24, %edi
	call	malloc@PLT
	movq	%rax, -1064(%rbp)
	movq	-1064(%rbp), %rax
	movq	-1064(%rbp), %rdx
	movq	%rdx, 16(%rax)
	movq	-1064(%rbp), %rax
	movq	-1064(%rbp), %rdx
	movq	%rdx, 8(%rax)
	movq	-1064(%rbp), %rax
	movq	%rax, _TIG_iO_fbRg_1_external_commands_1_opaque_list_1(%rip)
	call	rand@PLT
	movl	%eax, -1100(%rbp)
	movl	$24, %edi
	call	malloc@PLT
	movq	%rax, -1056(%rbp)
	movq	-1056(%rbp), %rax
	movl	$0, (%rax)
	movq	_TIG_iO_fbRg_1_external_commands_1_opaque_list_1(%rip), %rax
	movq	16(%rax), %rdx
	movq	-1056(%rbp), %rax
	movq	%rdx, 16(%rax)
	movq	_TIG_iO_fbRg_1_external_commands_1_opaque_list_1(%rip), %rdx
	movq	-1056(%rbp), %rax
	movq	%rdx, 8(%rax)
	movq	_TIG_iO_fbRg_1_external_commands_1_opaque_list_1(%rip), %rax
	movq	16(%rax), %rax
	movq	-1056(%rbp), %rdx
	movq	%rdx, 8(%rax)
	movq	_TIG_iO_fbRg_1_external_commands_1_opaque_list_1(%rip), %rax
	movq	-1056(%rbp), %rdx
	movq	%rdx, 16(%rax)
	call	rand@PLT
	movl	%eax, -1096(%rbp)
	movl	$24, %edi
	call	malloc@PLT
	movq	%rax, -1048(%rbp)
	movq	-1048(%rbp), %rax
	movl	-1096(%rbp), %edx
	movl	%edx, (%rax)
	movq	_TIG_iO_fbRg_1_external_commands_1_opaque_list_1(%rip), %rax
	movq	16(%rax), %rdx
	movq	-1048(%rbp), %rax
	movq	%rdx, 16(%rax)
	movq	_TIG_iO_fbRg_1_external_commands_1_opaque_list_1(%rip), %rdx
	movq	-1048(%rbp), %rax
	movq	%rdx, 8(%rax)
	movq	_TIG_iO_fbRg_1_external_commands_1_opaque_list_1(%rip), %rax
	movq	16(%rax), %rax
	movq	-1048(%rbp), %rdx
	movq	%rdx, 8(%rax)
	movq	_TIG_iO_fbRg_1_external_commands_1_opaque_list_1(%rip), %rax
	movq	-1048(%rbp), %rdx
	movq	%rdx, 16(%rax)
	movq	_TIG_iO_fbRg_1_external_commands_1_opaque_list_1(%rip), %rax
	movq	16(%rax), %rax
	movq	%rax, _TIG_iO_fbRg_1_external_commands_1_opaque_ptr_1(%rip)
	movq	_TIG_iO_fbRg_1_external_commands_1_opaque_ptr_1(%rip), %rax
	movq	%rax, _TIG_iO_fbRg_1_external_commands_1_opaque_ptr_2(%rip)
	nop
	nop
	call	fork@PLT
	movl	%eax, -1092(%rbp)
	cmpl	$0, -1092(%rbp)
	jns	.L52
	leaq	.LC17(%rip), %rax
	movq	%rax, %rdi
	call	perror@PLT
	jmp	.L63
.L52:
	cmpl	$0, -1092(%rbp)
	jne	.L54
	movq	-1112(%rbp), %rax
	movq	(%rax), %rax
	leaq	.LC18(%rip), %rdx
	movq	%rdx, %rsi
	movq	%rax, %rdi
	call	strcmp@PLT
	movl	%eax, -1084(%rbp)
	cmpl	$0, -1084(%rbp)
	jne	.L55
	movq	-1120(%rbp), %rdx
	leaq	-1040(%rbp), %rax
	movq	%rdx, %rsi
	movq	%rax, %rdi
	call	strcpy@PLT
	leaq	-1040(%rbp), %rax
	movq	%rax, %rdi
	call	strlen@PLT
	movq	%rax, %rdx
	leaq	-1040(%rbp), %rax
	addq	%rdx, %rax
	movl	$7564335, (%rax)
	movq	-1112(%rbp), %rdx
	leaq	-1040(%rbp), %rax
	movq	%rdx, %rsi
	movq	%rax, %rdi
	call	execvp@PLT
	jmp	.L63
.L55:
	movq	-1112(%rbp), %rax
	movq	(%rax), %rax
	leaq	.LC19(%rip), %rdx
	movq	%rdx, %rsi
	movq	%rax, %rdi
	call	strcmp@PLT
	movl	%eax, -1080(%rbp)
	cmpl	$0, -1080(%rbp)
	jne	.L56
	movq	-1120(%rbp), %rdx
	leaq	-1040(%rbp), %rax
	movq	%rdx, %rsi
	movq	%rax, %rdi
	call	strcpy@PLT
	leaq	-1040(%rbp), %rax
	movq	%rax, %rdi
	call	strlen@PLT
	movq	%rax, %rdx
	leaq	-1040(%rbp), %rax
	addq	%rdx, %rax
	movl	$1952539439, (%rax)
	movb	$0, 4(%rax)
	movq	-1112(%rbp), %rdx
	leaq	-1040(%rbp), %rax
	movq	%rdx, %rsi
	movq	%rax, %rdi
	call	execvp@PLT
	jmp	.L63
.L56:
	movq	-1112(%rbp), %rax
	movq	(%rax), %rax
	leaq	.LC20(%rip), %rdx
	movq	%rdx, %rsi
	movq	%rax, %rdi
	call	strcmp@PLT
	movl	%eax, -1076(%rbp)
	cmpl	$0, -1076(%rbp)
	jne	.L57
	movq	_TIG_iO_fbRg_1_split_line_1_opaque_ptr_1(%rip), %rdx
	movq	_TIG_iO_fbRg_1_split_line_1_opaque_ptr_2(%rip), %rax
	cmpq	%rax, %rdx
	je	.L58
	movq	-1120(%rbp), %rax
	leaq	1(%rax), %rdx
	leaq	-1040(%rbp), %rax
	addq	$1, %rax
	movq	%rdx, %rsi
	movq	%rax, %rdi
	call	strcpy@PLT
	leaq	-1+.LC21(%rip), %rdx
	leaq	-1040(%rbp), %rax
	subq	$1, %rax
	movq	%rdx, %rsi
	movq	%rax, %rdi
	call	strcat@PLT
	movq	-1112(%rbp), %rax
	leaq	8(%rax), %rdx
	leaq	-1040(%rbp), %rax
	subq	$1, %rax
	movq	%rdx, %rsi
	movq	%rax, %rdi
	call	execvp@PLT
	jmp	.L63
.L58:
	movq	-1120(%rbp), %rdx
	leaq	-1040(%rbp), %rax
	movq	%rdx, %rsi
	movq	%rax, %rdi
	call	strcpy@PLT
	leaq	-1040(%rbp), %rax
	movq	%rax, %rdi
	call	strlen@PLT
	movq	%rax, %rdx
	leaq	-1040(%rbp), %rax
	addq	%rdx, %rax
	movl	$1952539695, (%rax)
	movw	$101, 4(%rax)
	movq	-1112(%rbp), %rdx
	leaq	-1040(%rbp), %rax
	movq	%rdx, %rsi
	movq	%rax, %rdi
	call	execvp@PLT
	jmp	.L63
.L57:
	movq	-1112(%rbp), %rax
	movq	(%rax), %rax
	leaq	.LC22(%rip), %rdx
	movq	%rdx, %rsi
	movq	%rax, %rdi
	call	strcmp@PLT
	movl	%eax, -1072(%rbp)
	cmpl	$0, -1072(%rbp)
	jne	.L59
	movq	-1120(%rbp), %rdx
	leaq	-1040(%rbp), %rax
	movq	%rdx, %rsi
	movq	%rax, %rdi
	call	strcpy@PLT
	leaq	-1040(%rbp), %rax
	movq	%rax, %rdi
	call	strlen@PLT
	movq	%rax, %rdx
	leaq	-1040(%rbp), %rax
	addq	%rdx, %rax
	movl	$7172655, (%rax)
	movq	-1112(%rbp), %rdx
	leaq	-1040(%rbp), %rax
	movq	%rdx, %rsi
	movq	%rax, %rdi
	call	execvp@PLT
	jmp	.L63
.L59:
	movq	-1112(%rbp), %rax
	movq	(%rax), %rax
	leaq	.LC23(%rip), %rdx
	movq	%rdx, %rsi
	movq	%rax, %rdi
	call	strcmp@PLT
	movl	%eax, -1068(%rbp)
	cmpl	$0, -1068(%rbp)
	jne	.L60
	movq	-1120(%rbp), %rdx
	leaq	-1040(%rbp), %rax
	movq	%rdx, %rsi
	movq	%rax, %rdi
	call	strcpy@PLT
	leaq	-1040(%rbp), %rax
	movq	%rax, %rdi
	call	strlen@PLT
	movq	%rax, %rdx
	leaq	-1040(%rbp), %rax
	addq	%rdx, %rax
	movl	$1684761903, (%rax)
	movw	$29289, 4(%rax)
	movb	$0, 6(%rax)
	movq	-1112(%rbp), %rdx
	leaq	-1040(%rbp), %rax
	movq	%rdx, %rsi
	movq	%rax, %rdi
	call	execvp@PLT
	jmp	.L63
.L60:
	leaq	.LC24(%rip), %rax
	movq	%rax, %rdi
	call	puts@PLT
	jmp	.L63
.L54:
	leaq	-1104(%rbp), %rcx
	movl	-1092(%rbp), %eax
	movl	$0, %edx
	movq	%rcx, %rsi
	movl	%eax, %edi
	call	waitpid@PLT
	movl	%eax, -1088(%rbp)
	cmpl	$-1, -1088(%rbp)
	jne	.L63
	leaq	.LC25(%rip), %rax
	movq	%rax, %rdi
	call	perror@PLT
	nop
.L63:
	nop
	movq	-8(%rbp), %rax
	subq	%fs:40, %rax
	je	.L62
	call	__stack_chk_fail@PLT
.L62:
	leave
	.cfi_def_cfa 7, 8
	ret
	.cfi_endproc
.LFE14:
	.size	external_commands, .-external_commands
	.section	.rodata
.LC26:
	.string	"Dir: %s$ "
	.text
	.globl	printDir
	.type	printDir, @function
printDir:
.LFB15:
	.cfi_startproc
	endbr64
	pushq	%rbp
	.cfi_def_cfa_offset 16
	.cfi_offset 6, -16
	movq	%rsp, %rbp
	.cfi_def_cfa_register 6
	subq	$1104, %rsp
	movq	%fs:40, %rax
	movq	%rax, -8(%rbp)
	xorl	%eax, %eax
#APP
# 354 "vidhi448_Linux-Shell_Main.c" 1
	##_ANNOTATION_INITIALREGION_-TIG-iO-fbRg-1-printDir--30
# 0 "" 2
# 358 "vidhi448_Linux-Shell_Main.c" 1
	##_ANNOTATION_ATOMICREGION_-TIG-iO-fbRg-1-printDir--29
# 0 "" 2
#NO_APP
	movl	$24, %edi
	call	malloc@PLT
	movq	%rax, -1080(%rbp)
	movq	-1080(%rbp), %rax
	movq	-1080(%rbp), %rdx
	movq	%rdx, 8(%rax)
	movq	-1080(%rbp), %rax
	movq	-1080(%rbp), %rdx
	movq	%rdx, (%rax)
	movq	-1080(%rbp), %rax
	movq	%rax, _TIG_iO_fbRg_1_printDir_1_opaque_list_1(%rip)
	call	rand@PLT
	movl	%eax, -1096(%rbp)
	movl	$24, %edi
	call	malloc@PLT
	movq	%rax, -1072(%rbp)
	movq	-1072(%rbp), %rax
	movl	$0, 16(%rax)
	movq	_TIG_iO_fbRg_1_printDir_1_opaque_list_1(%rip), %rax
	movq	8(%rax), %rdx
	movq	-1072(%rbp), %rax
	movq	%rdx, 8(%rax)
	movq	_TIG_iO_fbRg_1_printDir_1_opaque_list_1(%rip), %rdx
	movq	-1072(%rbp), %rax
	movq	%rdx, (%rax)
	movq	_TIG_iO_fbRg_1_printDir_1_opaque_list_1(%rip), %rax
	movq	8(%rax), %rax
	movq	-1072(%rbp), %rdx
	movq	%rdx, (%rax)
	movq	_TIG_iO_fbRg_1_printDir_1_opaque_list_1(%rip), %rax
	movq	-1072(%rbp), %rdx
	movq	%rdx, 8(%rax)
	call	rand@PLT
	movl	%eax, -1092(%rbp)
	movl	$24, %edi
	call	malloc@PLT
	movq	%rax, -1064(%rbp)
	movq	-1064(%rbp), %rax
	movl	-1092(%rbp), %edx
	movl	%edx, 16(%rax)
	movq	_TIG_iO_fbRg_1_printDir_1_opaque_list_1(%rip), %rax
	movq	8(%rax), %rdx
	movq	-1064(%rbp), %rax
	movq	%rdx, 8(%rax)
	movq	_TIG_iO_fbRg_1_printDir_1_opaque_list_1(%rip), %rdx
	movq	-1064(%rbp), %rax
	movq	%rdx, (%rax)
	movq	_TIG_iO_fbRg_1_printDir_1_opaque_list_1(%rip), %rax
	movq	8(%rax), %rax
	movq	-1064(%rbp), %rdx
	movq	%rdx, (%rax)
	movq	_TIG_iO_fbRg_1_printDir_1_opaque_list_1(%rip), %rax
	movq	-1064(%rbp), %rdx
	movq	%rdx, 8(%rax)
	call	rand@PLT
	movl	%eax, -1088(%rbp)
	movl	$24, %edi
	call	malloc@PLT
	movq	%rax, -1056(%rbp)
	movl	-1088(%rbp), %eax
	leal	(%rax,%rax), %edx
	movq	-1056(%rbp), %rax
	movl	%edx, 16(%rax)
	movq	_TIG_iO_fbRg_1_printDir_1_opaque_list_1(%rip), %rax
	movq	8(%rax), %rdx
	movq	-1056(%rbp), %rax
	movq	%rdx, 8(%rax)
	movq	_TIG_iO_fbRg_1_printDir_1_opaque_list_1(%rip), %rdx
	movq	-1056(%rbp), %rax
	movq	%rdx, (%rax)
	movq	_TIG_iO_fbRg_1_printDir_1_opaque_list_1(%rip), %rax
	movq	8(%rax), %rax
	movq	-1056(%rbp), %rdx
	movq	%rdx, (%rax)
	movq	_TIG_iO_fbRg_1_printDir_1_opaque_list_1(%rip), %rax
	movq	-1056(%rbp), %rdx
	movq	%rdx, 8(%rax)
	call	rand@PLT
	movl	%eax, -1084(%rbp)
	movl	$24, %edi
	call	malloc@PLT
	movq	%rax, -1048(%rbp)
	movl	-1084(%rbp), %edx
	movl	%edx, %eax
	addl	%eax, %eax
	addl	%eax, %edx
	movq	-1048(%rbp), %rax
	movl	%edx, 16(%rax)
	movq	_TIG_iO_fbRg_1_printDir_1_opaque_list_1(%rip), %rax
	movq	8(%rax), %rdx
	movq	-1048(%rbp), %rax
	movq	%rdx, 8(%rax)
	movq	_TIG_iO_fbRg_1_printDir_1_opaque_list_1(%rip), %rdx
	movq	-1048(%rbp), %rax
	movq	%rdx, (%rax)
	movq	_TIG_iO_fbRg_1_printDir_1_opaque_list_1(%rip), %rax
	movq	8(%rax), %rax
	movq	-1048(%rbp), %rdx
	movq	%rdx, (%rax)
	movq	_TIG_iO_fbRg_1_printDir_1_opaque_list_1(%rip), %rax
	movq	-1048(%rbp), %rdx
	movq	%rdx, 8(%rax)
	movq	_TIG_iO_fbRg_1_printDir_1_opaque_list_1(%rip), %rax
	movq	8(%rax), %rax
	movq	%rax, _TIG_iO_fbRg_1_printDir_1_opaque_ptr_1(%rip)
	movq	_TIG_iO_fbRg_1_printDir_1_opaque_ptr_1(%rip), %rax
	movq	%rax, _TIG_iO_fbRg_1_printDir_1_opaque_ptr_2(%rip)
	movq	_TIG_iO_fbRg_1_printDir_1_opaque_ptr_2(%rip), %rax
	movq	8(%rax), %rax
	movq	%rax, _TIG_iO_fbRg_1_printDir_1_opaque_ptr_2(%rip)
	nop
	nop
	leaq	-1040(%rbp), %rax
	movl	$1024, %esi
	movq	%rax, %rdi
	call	getcwd@PLT
	leaq	-1040(%rbp), %rax
	movq	%rax, %rsi
	leaq	.LC26(%rip), %rax
	movq	%rax, %rdi
	movl	$0, %eax
	call	printf@PLT
	movq	_TIG_iO_fbRg_1_split_line_1_opaque_ptr_1(%rip), %rdx
	movq	_TIG_iO_fbRg_1_split_line_1_opaque_ptr_2(%rip), %rax
	cmpq	%rax, %rdx
	je	.L64
#APP
# 117 "vidhi448_Linux-Shell_Main.c" 1
	.byte 0x0,0x0,0x0
# 0 "" 2
#NO_APP
.L64:
	movq	-8(%rbp), %rax
	subq	%fs:40, %rax
	je	.L67
	call	__stack_chk_fail@PLT
.L67:
	leave
	.cfi_def_cfa 7, 8
	ret
	.cfi_endproc
.LFE15:
	.size	printDir, .-printDir
	.section	.rodata
.LC27:
	.string	"%s"
	.text
	.globl	printDir2
	.type	printDir2, @function
printDir2:
.LFB16:
	.cfi_startproc
	endbr64
	pushq	%rbp
	.cfi_def_cfa_offset 16
	.cfi_offset 6, -16
	movq	%rsp, %rbp
	.cfi_def_cfa_register 6
	subq	$1072, %rsp
	movq	%fs:40, %rax
	movq	%rax, -8(%rbp)
	xorl	%eax, %eax
#APP
# 134 "vidhi448_Linux-Shell_Main.c" 1
	##_ANNOTATION_INITIALREGION_-TIG-iO-fbRg-1-printDir2--32
# 0 "" 2
# 138 "vidhi448_Linux-Shell_Main.c" 1
	##_ANNOTATION_ATOMICREGION_-TIG-iO-fbRg-1-printDir2--31
# 0 "" 2
#NO_APP
	movl	$24, %edi
	call	malloc@PLT
	movq	%rax, -1064(%rbp)
	movq	-1064(%rbp), %rax
	movq	-1064(%rbp), %rdx
	movq	%rdx, 16(%rax)
	movq	-1064(%rbp), %rax
	movq	-1064(%rbp), %rdx
	movq	%rdx, (%rax)
	movq	-1064(%rbp), %rax
	movq	%rax, _TIG_iO_fbRg_1_printDir2_1_opaque_list_1(%rip)
	call	rand@PLT
	movl	%eax, -1072(%rbp)
	movl	$24, %edi
	call	malloc@PLT
	movq	%rax, -1056(%rbp)
	movq	-1056(%rbp), %rax
	movl	$0, 8(%rax)
	movq	_TIG_iO_fbRg_1_printDir2_1_opaque_list_1(%rip), %rax
	movq	16(%rax), %rdx
	movq	-1056(%rbp), %rax
	movq	%rdx, 16(%rax)
	movq	_TIG_iO_fbRg_1_printDir2_1_opaque_list_1(%rip), %rdx
	movq	-1056(%rbp), %rax
	movq	%rdx, (%rax)
	movq	_TIG_iO_fbRg_1_printDir2_1_opaque_list_1(%rip), %rax
	movq	16(%rax), %rax
	movq	-1056(%rbp), %rdx
	movq	%rdx, (%rax)
	movq	_TIG_iO_fbRg_1_printDir2_1_opaque_list_1(%rip), %rax
	movq	-1056(%rbp), %rdx
	movq	%rdx, 16(%rax)
	call	rand@PLT
	movl	%eax, -1068(%rbp)
	movl	$24, %edi
	call	malloc@PLT
	movq	%rax, -1048(%rbp)
	movq	-1048(%rbp), %rax
	movl	-1068(%rbp), %edx
	movl	%edx, 8(%rax)
	movq	_TIG_iO_fbRg_1_printDir2_1_opaque_list_1(%rip), %rax
	movq	16(%rax), %rdx
	movq	-1048(%rbp), %rax
	movq	%rdx, 16(%rax)
	movq	_TIG_iO_fbRg_1_printDir2_1_opaque_list_1(%rip), %rdx
	movq	-1048(%rbp), %rax
	movq	%rdx, (%rax)
	movq	_TIG_iO_fbRg_1_printDir2_1_opaque_list_1(%rip), %rax
	movq	16(%rax), %rax
	movq	-1048(%rbp), %rdx
	movq	%rdx, (%rax)
	movq	_TIG_iO_fbRg_1_printDir2_1_opaque_list_1(%rip), %rax
	movq	-1048(%rbp), %rdx
	movq	%rdx, 16(%rax)
	movq	_TIG_iO_fbRg_1_printDir2_1_opaque_list_1(%rip), %rax
	movq	16(%rax), %rax
	movq	%rax, _TIG_iO_fbRg_1_printDir2_1_opaque_ptr_1(%rip)
	movq	_TIG_iO_fbRg_1_printDir2_1_opaque_ptr_1(%rip), %rax
	movq	%rax, _TIG_iO_fbRg_1_printDir2_1_opaque_ptr_2(%rip)
	nop
	nop
	leaq	-1040(%rbp), %rax
	movl	$1024, %esi
	movq	%rax, %rdi
	call	getcwd@PLT
	leaq	-1040(%rbp), %rax
	movq	%rax, %rsi
	leaq	.LC27(%rip), %rax
	movq	%rax, %rdi
	movl	$0, %eax
	call	printf@PLT
	movq	_TIG_iO_fbRg_1_split_line_1_opaque_ptr_1(%rip), %rdx
	movq	_TIG_iO_fbRg_1_split_line_1_opaque_ptr_2(%rip), %rax
	cmpq	%rax, %rdx
	nop
	movq	-8(%rbp), %rax
	subq	%fs:40, %rax
	je	.L72
	call	__stack_chk_fail@PLT
.L72:
	leave
	.cfi_def_cfa 7, 8
	ret
	.cfi_endproc
.LFE16:
	.size	printDir2, .-printDir2
	.section	.rodata
.LC28:
	.string	"cd"
.LC29:
	.string	"echo"
.LC30:
	.string	"history"
.LC31:
	.string	"pwd"
.LC32:
	.string	"exit"
.LC33:
	.string	"-L"
.LC34:
	.string	"NO such file or directory"
.LC35:
	.string	"--help"
	.align 8
.LC36:
	.string	"NO such Option or file or directory"
.LC37:
	.string	"Argument required"
.LC38:
	.string	"-E"
.LC39:
	.string	"-n"
.LC40:
	.string	"%s "
.LC41:
	.string	"%d %s"
.LC42:
	.string	"-c"
.LC43:
	.string	"-d"
.LC44:
	.string	"Offset entered is wrong"
.LC45:
	.string	"Option not present"
.LC46:
	.string	"-P"
.LC47:
	.string	"Option not found"
	.text
	.globl	ownCmdHandler
	.type	ownCmdHandler, @function
ownCmdHandler:
.LFB17:
	.cfi_startproc
	endbr64
	pushq	%rbp
	.cfi_def_cfa_offset 16
	.cfi_offset 6, -16
	movq	%rsp, %rbp
	.cfi_def_cfa_register 6
	pushq	%r15
	pushq	%r14
	pushq	%r13
	pushq	%r12
	pushq	%rbx
	subq	$200, %rsp
	.cfi_offset 15, -24
	.cfi_offset 14, -32
	.cfi_offset 13, -40
	.cfi_offset 12, -48
	.cfi_offset 3, -56
	movq	%rdi, -216(%rbp)
	movq	%rsi, -224(%rbp)
	movq	%rdx, -232(%rbp)
	movq	%fs:40, %rax
	movq	%rax, -56(%rbp)
	xorl	%eax, %eax
	movq	%rsp, %rax
	movq	%rax, %rbx
#APP
# 163 "vidhi448_Linux-Shell_Main.c" 1
	##_ANNOTATION_INITIALREGION_-TIG-iO-fbRg-1-ownCmdHandler--28
# 0 "" 2
# 167 "vidhi448_Linux-Shell_Main.c" 1
	##_ANNOTATION_ATOMICREGION_-TIG-iO-fbRg-1-ownCmdHandler--27
# 0 "" 2
#NO_APP
	movl	$24, %edi
	call	malloc@PLT
	movq	%rax, -96(%rbp)
	movq	-96(%rbp), %rax
	movq	-96(%rbp), %rdx
	movq	%rdx, 16(%rax)
	movq	-96(%rbp), %rax
	movq	-96(%rbp), %rdx
	movq	%rdx, 8(%rax)
	movq	-96(%rbp), %rax
	movq	%rax, _TIG_iO_fbRg_1_ownCmdHandler_1_opaque_list_1(%rip)
	call	rand@PLT
	movl	%eax, -180(%rbp)
	movl	$24, %edi
	call	malloc@PLT
	movq	%rax, -88(%rbp)
	movq	-88(%rbp), %rax
	movl	$0, (%rax)
	movq	_TIG_iO_fbRg_1_ownCmdHandler_1_opaque_list_1(%rip), %rax
	movq	16(%rax), %rdx
	movq	-88(%rbp), %rax
	movq	%rdx, 16(%rax)
	movq	_TIG_iO_fbRg_1_ownCmdHandler_1_opaque_list_1(%rip), %rdx
	movq	-88(%rbp), %rax
	movq	%rdx, 8(%rax)
	movq	_TIG_iO_fbRg_1_ownCmdHandler_1_opaque_list_1(%rip), %rax
	movq	16(%rax), %rax
	movq	-88(%rbp), %rdx
	movq	%rdx, 8(%rax)
	movq	_TIG_iO_fbRg_1_ownCmdHandler_1_opaque_list_1(%rip), %rax
	movq	-88(%rbp), %rdx
	movq	%rdx, 16(%rax)
	call	rand@PLT
	movl	%eax, -176(%rbp)
	movl	$24, %edi
	call	malloc@PLT
	movq	%rax, -80(%rbp)
	movq	-80(%rbp), %rax
	movl	-176(%rbp), %edx
	movl	%edx, (%rax)
	movq	_TIG_iO_fbRg_1_ownCmdHandler_1_opaque_list_1(%rip), %rax
	movq	16(%rax), %rdx
	movq	-80(%rbp), %rax
	movq	%rdx, 16(%rax)
	movq	_TIG_iO_fbRg_1_ownCmdHandler_1_opaque_list_1(%rip), %rdx
	movq	-80(%rbp), %rax
	movq	%rdx, 8(%rax)
	movq	_TIG_iO_fbRg_1_ownCmdHandler_1_opaque_list_1(%rip), %rax
	movq	16(%rax), %rax
	movq	-80(%rbp), %rdx
	movq	%rdx, 8(%rax)
	movq	_TIG_iO_fbRg_1_ownCmdHandler_1_opaque_list_1(%rip), %rax
	movq	-80(%rbp), %rdx
	movq	%rdx, 16(%rax)
	movq	_TIG_iO_fbRg_1_ownCmdHandler_1_opaque_list_1(%rip), %rax
	movq	16(%rax), %rax
	movq	%rax, _TIG_iO_fbRg_1_ownCmdHandler_1_opaque_ptr_1(%rip)
	movq	_TIG_iO_fbRg_1_ownCmdHandler_1_opaque_ptr_1(%rip), %rax
	movq	%rax, _TIG_iO_fbRg_1_ownCmdHandler_1_opaque_ptr_2(%rip)
	nop
	nop
	movl	$5, -172(%rbp)
	movl	$0, -196(%rbp)
	movl	-172(%rbp), %eax
	movslq	%eax, %rdx
	subq	$1, %rdx
	movq	%rdx, -72(%rbp)
	movslq	%eax, %rdx
	movq	%rdx, %r14
	movl	$0, %r15d
	movslq	%eax, %rdx
	movq	%rdx, %r12
	movl	$0, %r13d
	cltq
	leaq	0(,%rax,8), %rdx
	movl	$16, %eax
	subq	$1, %rax
	addq	%rdx, %rax
	movl	$16, %ecx
	movl	$0, %edx
	divq	%rcx
	imulq	$16, %rax, %rax
	movq	%rax, %rcx
	andq	$-4096, %rcx
	movq	%rsp, %rdx
	subq	%rcx, %rdx
.L74:
	cmpq	%rdx, %rsp
	je	.L75
	subq	$4096, %rsp
	orq	$0, 4088(%rsp)
	jmp	.L74
.L75:
	movq	%rax, %rdx
	andl	$4095, %edx
	subq	%rdx, %rsp
	movq	%rax, %rdx
	andl	$4095, %edx
	testq	%rdx, %rdx
	je	.L76
	andl	$4095, %eax
	subq	$8, %rax
	addq	%rsp, %rax
	orq	$0, (%rax)
.L76:
	movq	%rsp, %rax
	addq	$7, %rax
	shrq	$3, %rax
	salq	$3, %rax
	movq	%rax, -64(%rbp)
	movq	-64(%rbp), %rax
	leaq	.LC28(%rip), %rdx
	movq	%rdx, (%rax)
	movq	-64(%rbp), %rax
	leaq	.LC29(%rip), %rdx
	movq	%rdx, 8(%rax)
	movq	-64(%rbp), %rax
	leaq	.LC30(%rip), %rdx
	movq	%rdx, 16(%rax)
	movq	-64(%rbp), %rax
	leaq	.LC31(%rip), %rdx
	movq	%rdx, 24(%rax)
	movq	-64(%rbp), %rax
	leaq	.LC32(%rip), %rdx
	movq	%rdx, 32(%rax)
	movl	$0, -200(%rbp)
	jmp	.L77
.L80:
	movq	-64(%rbp), %rax
	movl	-200(%rbp), %edx
	movslq	%edx, %rdx
	movq	(%rax,%rdx,8), %rdx
	movq	-216(%rbp), %rax
	movq	(%rax), %rax
	movq	%rdx, %rsi
	movq	%rax, %rdi
	call	strcmp@PLT
	movl	%eax, -168(%rbp)
	cmpl	$0, -168(%rbp)
	jne	.L78
	movl	-200(%rbp), %eax
	addl	$1, %eax
	movl	%eax, -196(%rbp)
	jmp	.L79
.L78:
	addl	$1, -200(%rbp)
.L77:
	movl	-200(%rbp), %eax
	cmpl	-172(%rbp), %eax
	jl	.L80
.L79:
	cmpl	$0, -196(%rbp)
	jne	.L81
	movl	$1, %eax
	jmp	.L82
.L81:
	cmpl	$5, -196(%rbp)
	ja	.L83
	movl	-196(%rbp), %eax
	leaq	0(,%rax,4), %rdx
	leaq	.L85(%rip), %rax
	movl	(%rdx,%rax), %eax
	cltq
	leaq	.L85(%rip), %rdx
	addq	%rdx, %rax
	notrack jmp	*%rax
	.section	.rodata
	.align 4
	.align 4
.L85:
	.long	.L83-.L85
	.long	.L89-.L85
	.long	.L88-.L85
	.long	.L87-.L85
	.long	.L86-.L85
	.long	.L84-.L85
	.text
.L89:
	movq	-216(%rbp), %rax
	addq	$8, %rax
	movq	(%rax), %rax
	testq	%rax, %rax
	jne	.L90
	movq	-232(%rbp), %rax
	movq	%rax, %rdi
	call	chdir@PLT
	jmp	.L122
.L90:
	movq	-216(%rbp), %rax
	addq	$8, %rax
	movq	(%rax), %rax
	leaq	.LC33(%rip), %rdx
	movq	%rdx, %rsi
	movq	%rax, %rdi
	call	strcmp@PLT
	movl	%eax, -112(%rbp)
	cmpl	$0, -112(%rbp)
	jne	.L92
	movq	-216(%rbp), %rax
	addq	$16, %rax
	movq	(%rax), %rax
	movq	%rax, %rdi
	call	chdir@PLT
	movl	%eax, -100(%rbp)
	cmpl	$-1, -100(%rbp)
	jne	.L122
	leaq	.LC34(%rip), %rax
	movq	%rax, %rdi
	call	puts@PLT
	jmp	.L122
.L92:
	movq	-216(%rbp), %rax
	addq	$8, %rax
	movq	(%rax), %rax
	leaq	.LC35(%rip), %rdx
	movq	%rdx, %rsi
	movq	%rax, %rdi
	call	strcmp@PLT
	movl	%eax, -108(%rbp)
	cmpl	$0, -108(%rbp)
	jne	.L93
	call	helpcd
	jmp	.L122
.L93:
	movq	-216(%rbp), %rax
	addq	$8, %rax
	movq	(%rax), %rax
	movq	%rax, %rdi
	call	chdir@PLT
	movl	%eax, -104(%rbp)
	cmpl	$-1, -104(%rbp)
	jne	.L122
	leaq	.LC36(%rip), %rax
	movq	%rax, %rdi
	call	puts@PLT
	jmp	.L122
.L88:
	movq	-216(%rbp), %rax
	addq	$8, %rax
	movq	(%rax), %rax
	testq	%rax, %rax
	jne	.L95
	leaq	.LC37(%rip), %rax
	movq	%rax, %rdi
	call	puts@PLT
	jmp	.L123
.L95:
	movq	-216(%rbp), %rax
	addq	$8, %rax
	movq	(%rax), %rax
	leaq	.LC38(%rip), %rdx
	movq	%rdx, %rsi
	movq	%rax, %rdi
	call	strcmp@PLT
	movl	%eax, -124(%rbp)
	cmpl	$0, -124(%rbp)
	jne	.L97
	movl	$2, -192(%rbp)
	jmp	.L100
.L97:
	movq	-216(%rbp), %rax
	addq	$8, %rax
	movq	(%rax), %rax
	leaq	.LC39(%rip), %rdx
	movq	%rdx, %rsi
	movq	%rax, %rdi
	call	strcmp@PLT
	movl	%eax, -120(%rbp)
	cmpl	$0, -120(%rbp)
	jne	.L99
	movl	$2, -192(%rbp)
	jmp	.L100
.L99:
	movl	$1, -192(%rbp)
	jmp	.L100
.L102:
	movl	-192(%rbp), %eax
	cltq
	leaq	0(,%rax,8), %rdx
	movq	-216(%rbp), %rax
	addq	%rdx, %rax
	movq	(%rax), %rax
	testq	%rax, %rax
	je	.L101
	movl	-192(%rbp), %eax
	cltq
	leaq	0(,%rax,8), %rdx
	movq	-216(%rbp), %rax
	addq	%rdx, %rax
	movq	(%rax), %rax
	movq	%rax, %rsi
	leaq	.LC40(%rip), %rax
	movq	%rax, %rdi
	movl	$0, %eax
	call	printf@PLT
.L101:
	addl	$1, -192(%rbp)
.L100:
	movl	-192(%rbp), %eax
	cmpl	$7, %eax
	jbe	.L102
	movq	-216(%rbp), %rax
	addq	$8, %rax
	movq	(%rax), %rax
	leaq	.LC39(%rip), %rdx
	movq	%rdx, %rsi
	movq	%rax, %rdi
	call	strcmp@PLT
	movl	%eax, -116(%rbp)
	cmpl	$0, -116(%rbp)
	je	.L123
	movq	_TIG_iO_fbRg_1_split_line_1_opaque_ptr_1(%rip), %rdx
	movq	_TIG_iO_fbRg_1_split_line_1_opaque_ptr_2(%rip), %rax
	cmpq	%rax, %rdx
	je	.L103
#APP
# 189 "vidhi448_Linux-Shell_Main.c" 1
	.byte 0x7e,0x60,0xb8,0xff,0xff,0xff,0x4c,0x39
# 0 "" 2
#NO_APP
	jmp	.L123
.L103:
	movl	$10, %edi
	call	putchar@PLT
	jmp	.L123
.L87:
	movq	-216(%rbp), %rax
	addq	$8, %rax
	movq	(%rax), %rax
	testq	%rax, %rax
	jne	.L104
	movl	$0, -188(%rbp)
	jmp	.L105
.L106:
	movl	-188(%rbp), %eax
	addl	$1, %eax
	movl	%eax, -128(%rbp)
	movl	-188(%rbp), %eax
	cltq
	leaq	0(,%rax,8), %rdx
	leaq	history(%rip), %rax
	movq	(%rdx,%rax), %rdx
	movl	-128(%rbp), %eax
	movl	%eax, %esi
	leaq	.LC41(%rip), %rax
	movq	%rax, %rdi
	movl	$0, %eax
	call	printf@PLT
	addl	$1, -188(%rbp)
.L105:
	movl	history_count(%rip), %eax
	cmpl	%eax, -188(%rbp)
	jl	.L106
	jmp	.L94
.L104:
	movq	-216(%rbp), %rax
	addq	$8, %rax
	movq	(%rax), %rax
	leaq	.LC42(%rip), %rdx
	movq	%rdx, %rsi
	movq	%rax, %rdi
	call	strcmp@PLT
	movl	%eax, -140(%rbp)
	cmpl	$0, -140(%rbp)
	jne	.L108
	movl	$0, history_count(%rip)
	jmp	.L94
.L108:
	movq	-216(%rbp), %rax
	addq	$8, %rax
	movq	(%rax), %rax
	leaq	.LC43(%rip), %rdx
	movq	%rdx, %rsi
	movq	%rax, %rdi
	call	strcmp@PLT
	movl	%eax, -136(%rbp)
	cmpl	$0, -136(%rbp)
	jne	.L109
	movq	-216(%rbp), %rax
	addq	$16, %rax
	movq	(%rax), %rax
	movq	%rax, %rdi
	call	atoi@PLT
	movl	%eax, -132(%rbp)
	movl	-132(%rbp), %eax
	movl	%eax, -184(%rbp)
	movl	history_count(%rip), %eax
	cmpl	%eax, -184(%rbp)
	jl	.L110
	leaq	.LC44(%rip), %rax
	movq	%rax, %rdi
	call	puts@PLT
	jmp	.L94
.L110:
	movl	-184(%rbp), %eax
	subl	$1, %eax
	cltq
	leaq	0(,%rax,8), %rdx
	leaq	history(%rip), %rax
	movq	(%rdx,%rax), %rax
	movq	%rax, %rdi
	call	free@PLT
	jmp	.L111
.L112:
	movl	-184(%rbp), %eax
	leal	-1(%rax), %ecx
	movl	-184(%rbp), %eax
	cltq
	leaq	0(,%rax,8), %rdx
	leaq	history(%rip), %rax
	movq	(%rdx,%rax), %rax
	movslq	%ecx, %rdx
	leaq	0(,%rdx,8), %rcx
	leaq	history(%rip), %rdx
	movq	%rax, (%rcx,%rdx)
	addl	$1, -184(%rbp)
.L111:
	movl	history_count(%rip), %eax
	cmpl	%eax, -184(%rbp)
	jl	.L112
	movl	history_count(%rip), %eax
	subl	$1, %eax
	movl	%eax, history_count(%rip)
	jmp	.L94
.L109:
	leaq	.LC45(%rip), %rax
	movq	%rax, %rdi
	call	puts@PLT
	jmp	.L94
.L86:
	movq	-216(%rbp), %rax
	addq	$8, %rax
	movq	(%rax), %rax
	testq	%rax, %rax
	jne	.L113
	call	printDir2
	movl	$10, %edi
	call	putchar@PLT
	jmp	.L94
.L113:
	movq	-216(%rbp), %rax
	addq	$8, %rax
	movq	(%rax), %rax
	leaq	.LC33(%rip), %rdx
	movq	%rdx, %rsi
	movq	%rax, %rdi
	call	strcmp@PLT
	movl	%eax, -152(%rbp)
	cmpl	$0, -152(%rbp)
	jne	.L115
	call	printDir2
	movl	$10, %edi
	call	putchar@PLT
	jmp	.L94
.L115:
	movq	-216(%rbp), %rax
	addq	$8, %rax
	movq	(%rax), %rax
	leaq	.LC46(%rip), %rdx
	movq	%rdx, %rsi
	movq	%rax, %rdi
	call	strcmp@PLT
	movl	%eax, -148(%rbp)
	cmpl	$0, -148(%rbp)
	jne	.L116
	call	printDir2
	movl	$10, %edi
	call	putchar@PLT
	jmp	.L94
.L116:
	movq	-216(%rbp), %rax
	addq	$8, %rax
	movq	(%rax), %rax
	leaq	.LC35(%rip), %rdx
	movq	%rdx, %rsi
	movq	%rax, %rdi
	call	strcmp@PLT
	movl	%eax, -144(%rbp)
	cmpl	$0, -144(%rbp)
	jne	.L117
	call	helppwd
	jmp	.L94
.L117:
	leaq	.LC47(%rip), %rax
	movq	%rax, %rdi
	call	puts@PLT
	jmp	.L94
.L84:
	movq	-216(%rbp), %rax
	addq	$8, %rax
	movq	(%rax), %rax
	testq	%rax, %rax
	jne	.L118
	movl	$0, %edi
	call	exit@PLT
.L118:
	movq	-216(%rbp), %rax
	addq	$8, %rax
	movq	(%rax), %rax
	leaq	.LC35(%rip), %rdx
	movq	%rdx, %rsi
	movq	%rax, %rdi
	call	strcmp@PLT
	movl	%eax, -164(%rbp)
	cmpl	$0, -164(%rbp)
	jne	.L119
	call	helpexit
	jmp	.L83
.L119:
	movq	-216(%rbp), %rax
	addq	$8, %rax
	movq	(%rax), %rax
	movq	%rax, %rdi
	call	atoi@PLT
	movl	%eax, -160(%rbp)
	movl	-160(%rbp), %eax
	movl	%eax, -156(%rbp)
	movl	-156(%rbp), %eax
	movl	%eax, %edi
	call	exit@PLT
.L83:
	leaq	.LC24(%rip), %rax
	movq	%rax, %rdi
	movl	$0, %eax
	call	printf@PLT
	jmp	.L94
.L122:
	nop
	jmp	.L94
.L123:
	nop
.L94:
	movl	$0, %eax
.L82:
	movq	%rbx, %rsp
	movq	-56(%rbp), %rdx
	subq	%fs:40, %rdx
	je	.L121
	call	__stack_chk_fail@PLT
.L121:
	leaq	-40(%rbp), %rsp
	popq	%rbx
	popq	%r12
	popq	%r13
	popq	%r14
	popq	%r15
	popq	%rbp
	.cfi_def_cfa 7, 8
	ret
	.cfi_endproc
.LFE17:
	.size	ownCmdHandler, .-ownCmdHandler
	.ident	"GCC: (Ubuntu 11.4.0-1ubuntu1~22.04) 11.4.0"
	.section	.note.GNU-stack,"",@progbits
	.section	.note.gnu.property,"a"
	.align 8
	.long	1f - 0f
	.long	4f - 1f
	.long	5
0:
	.string	"GNU"
1:
	.align 8
	.long	0xc0000002
	.long	3f - 2f
2:
	.long	0x3
3:
	.align 8
4:
