	.file	"adrianomoruyi_coe628_lab_lab3_opaque.c"
	.text
	.globl	_TIG_iO_Byo2_1_parse_input_1_opaque_list_2
	.bss
	.align 8
	.type	_TIG_iO_Byo2_1_parse_input_1_opaque_list_2, @object
	.size	_TIG_iO_Byo2_1_parse_input_1_opaque_list_2, 8
_TIG_iO_Byo2_1_parse_input_1_opaque_list_2:
	.zero	8
	.globl	_TIG_IZ_Byo2_argv
	.align 8
	.type	_TIG_IZ_Byo2_argv, @object
	.size	_TIG_IZ_Byo2_argv, 8
_TIG_IZ_Byo2_argv:
	.zero	8
	.globl	_TIG_iO_Byo2_1___uint16_identity_1_opaque_ptr_2
	.align 8
	.type	_TIG_iO_Byo2_1___uint16_identity_1_opaque_ptr_2, @object
	.size	_TIG_iO_Byo2_1___uint16_identity_1_opaque_ptr_2, 8
_TIG_iO_Byo2_1___uint16_identity_1_opaque_ptr_2:
	.zero	8
	.globl	_TIG_IZ_Byo2_argc
	.align 4
	.type	_TIG_IZ_Byo2_argc, @object
	.size	_TIG_IZ_Byo2_argc, 4
_TIG_IZ_Byo2_argc:
	.zero	4
	.globl	_TIG_iO_Byo2_1___uint16_identity_1_opaque_list_2
	.align 8
	.type	_TIG_iO_Byo2_1___uint16_identity_1_opaque_list_2, @object
	.size	_TIG_iO_Byo2_1___uint16_identity_1_opaque_list_2, 8
_TIG_iO_Byo2_1___uint16_identity_1_opaque_list_2:
	.zero	8
	.globl	_TIG_iO_Byo2_1_main_1_opaque_ptr_1
	.align 8
	.type	_TIG_iO_Byo2_1_main_1_opaque_ptr_1, @object
	.size	_TIG_iO_Byo2_1_main_1_opaque_ptr_1, 8
_TIG_iO_Byo2_1_main_1_opaque_ptr_1:
	.zero	8
	.globl	_TIG_iO_Byo2_1___bswap_32_1_opaque_ptr_1
	.align 8
	.type	_TIG_iO_Byo2_1___bswap_32_1_opaque_ptr_1, @object
	.size	_TIG_iO_Byo2_1___bswap_32_1_opaque_ptr_1, 8
_TIG_iO_Byo2_1___bswap_32_1_opaque_ptr_1:
	.zero	8
	.globl	_TIG_iO_Byo2_1___bswap_64_1_opaque_list_2
	.align 8
	.type	_TIG_iO_Byo2_1___bswap_64_1_opaque_list_2, @object
	.size	_TIG_iO_Byo2_1___bswap_64_1_opaque_list_2, 8
_TIG_iO_Byo2_1___bswap_64_1_opaque_list_2:
	.zero	8
	.globl	_TIG_iO_Byo2_1___bswap_32_1_opaque_list_1
	.align 8
	.type	_TIG_iO_Byo2_1___bswap_32_1_opaque_list_1, @object
	.size	_TIG_iO_Byo2_1___bswap_32_1_opaque_list_1, 8
_TIG_iO_Byo2_1___bswap_32_1_opaque_list_1:
	.zero	8
	.globl	_TIG_iO_Byo2_1___bswap_32_1_opaque_list_2
	.align 8
	.type	_TIG_iO_Byo2_1___bswap_32_1_opaque_list_2, @object
	.size	_TIG_iO_Byo2_1___bswap_32_1_opaque_list_2, 8
_TIG_iO_Byo2_1___bswap_32_1_opaque_list_2:
	.zero	8
	.globl	_TIG_iO_Byo2_1___uint64_identity_1_opaque_ptr_1
	.align 8
	.type	_TIG_iO_Byo2_1___uint64_identity_1_opaque_ptr_1, @object
	.size	_TIG_iO_Byo2_1___uint64_identity_1_opaque_ptr_1, 8
_TIG_iO_Byo2_1___uint64_identity_1_opaque_ptr_1:
	.zero	8
	.globl	_TIG_iO_Byo2_1_parse_input_1_opaque_ptr_2
	.align 8
	.type	_TIG_iO_Byo2_1_parse_input_1_opaque_ptr_2, @object
	.size	_TIG_iO_Byo2_1_parse_input_1_opaque_ptr_2, 8
_TIG_iO_Byo2_1_parse_input_1_opaque_ptr_2:
	.zero	8
	.globl	_TIG_iO_Byo2_1___bswap_16_1_opaque_list_1
	.align 8
	.type	_TIG_iO_Byo2_1___bswap_16_1_opaque_list_1, @object
	.size	_TIG_iO_Byo2_1___bswap_16_1_opaque_list_1, 8
_TIG_iO_Byo2_1___bswap_16_1_opaque_list_1:
	.zero	8
	.globl	_TIG_iO_Byo2_1___uint64_identity_1_opaque_list_1
	.align 8
	.type	_TIG_iO_Byo2_1___uint64_identity_1_opaque_list_1, @object
	.size	_TIG_iO_Byo2_1___uint64_identity_1_opaque_list_1, 8
_TIG_iO_Byo2_1___uint64_identity_1_opaque_list_1:
	.zero	8
	.globl	_TIG_iO_Byo2_1___uint32_identity_1_opaque_list_1
	.align 8
	.type	_TIG_iO_Byo2_1___uint32_identity_1_opaque_list_1, @object
	.size	_TIG_iO_Byo2_1___uint32_identity_1_opaque_list_1, 8
_TIG_iO_Byo2_1___uint32_identity_1_opaque_list_1:
	.zero	8
	.globl	_TIG_iO_Byo2_1_execute_command_1_opaque_list_2
	.align 8
	.type	_TIG_iO_Byo2_1_execute_command_1_opaque_list_2, @object
	.size	_TIG_iO_Byo2_1_execute_command_1_opaque_list_2, 8
_TIG_iO_Byo2_1_execute_command_1_opaque_list_2:
	.zero	8
	.globl	_TIG_iO_Byo2_1___uint32_identity_1_opaque_ptr_2
	.align 8
	.type	_TIG_iO_Byo2_1___uint32_identity_1_opaque_ptr_2, @object
	.size	_TIG_iO_Byo2_1___uint32_identity_1_opaque_ptr_2, 8
_TIG_iO_Byo2_1___uint32_identity_1_opaque_ptr_2:
	.zero	8
	.globl	_TIG_iO_Byo2_1_execute_command_1_opaque_list_1
	.align 8
	.type	_TIG_iO_Byo2_1_execute_command_1_opaque_list_1, @object
	.size	_TIG_iO_Byo2_1_execute_command_1_opaque_list_1, 8
_TIG_iO_Byo2_1_execute_command_1_opaque_list_1:
	.zero	8
	.globl	_TIG_iO_Byo2_1_execute_command_1_opaque_ptr_2
	.align 8
	.type	_TIG_iO_Byo2_1_execute_command_1_opaque_ptr_2, @object
	.size	_TIG_iO_Byo2_1_execute_command_1_opaque_ptr_2, 8
_TIG_iO_Byo2_1_execute_command_1_opaque_ptr_2:
	.zero	8
	.globl	_TIG_iO_Byo2_1_main_1_opaque_ptr_2
	.align 8
	.type	_TIG_iO_Byo2_1_main_1_opaque_ptr_2, @object
	.size	_TIG_iO_Byo2_1_main_1_opaque_ptr_2, 8
_TIG_iO_Byo2_1_main_1_opaque_ptr_2:
	.zero	8
	.globl	_TIG_iO_Byo2_1___bswap_32_1_opaque_ptr_2
	.align 8
	.type	_TIG_iO_Byo2_1___bswap_32_1_opaque_ptr_2, @object
	.size	_TIG_iO_Byo2_1___bswap_32_1_opaque_ptr_2, 8
_TIG_iO_Byo2_1___bswap_32_1_opaque_ptr_2:
	.zero	8
	.globl	_TIG_iO_Byo2_1___uint32_identity_1_opaque_list_2
	.align 8
	.type	_TIG_iO_Byo2_1___uint32_identity_1_opaque_list_2, @object
	.size	_TIG_iO_Byo2_1___uint32_identity_1_opaque_list_2, 8
_TIG_iO_Byo2_1___uint32_identity_1_opaque_list_2:
	.zero	8
	.globl	_TIG_iO_Byo2_1_main_1_opaque_list_1
	.align 8
	.type	_TIG_iO_Byo2_1_main_1_opaque_list_1, @object
	.size	_TIG_iO_Byo2_1_main_1_opaque_list_1, 8
_TIG_iO_Byo2_1_main_1_opaque_list_1:
	.zero	8
	.globl	_TIG_iO_Byo2_1___bswap_64_1_opaque_ptr_1
	.align 8
	.type	_TIG_iO_Byo2_1___bswap_64_1_opaque_ptr_1, @object
	.size	_TIG_iO_Byo2_1___bswap_64_1_opaque_ptr_1, 8
_TIG_iO_Byo2_1___bswap_64_1_opaque_ptr_1:
	.zero	8
	.globl	_TIG_iO_Byo2_1___uint64_identity_1_opaque_list_2
	.align 8
	.type	_TIG_iO_Byo2_1___uint64_identity_1_opaque_list_2, @object
	.size	_TIG_iO_Byo2_1___uint64_identity_1_opaque_list_2, 8
_TIG_iO_Byo2_1___uint64_identity_1_opaque_list_2:
	.zero	8
	.globl	_TIG_iO_Byo2_1_main_1_opaque_list_2
	.align 8
	.type	_TIG_iO_Byo2_1_main_1_opaque_list_2, @object
	.size	_TIG_iO_Byo2_1_main_1_opaque_list_2, 8
_TIG_iO_Byo2_1_main_1_opaque_list_2:
	.zero	8
	.globl	_TIG_iO_Byo2_1_parse_input_1_opaque_ptr_1
	.align 8
	.type	_TIG_iO_Byo2_1_parse_input_1_opaque_ptr_1, @object
	.size	_TIG_iO_Byo2_1_parse_input_1_opaque_ptr_1, 8
_TIG_iO_Byo2_1_parse_input_1_opaque_ptr_1:
	.zero	8
	.globl	_TIG_iO_Byo2_1___uint64_identity_1_opaque_ptr_2
	.align 8
	.type	_TIG_iO_Byo2_1___uint64_identity_1_opaque_ptr_2, @object
	.size	_TIG_iO_Byo2_1___uint64_identity_1_opaque_ptr_2, 8
_TIG_iO_Byo2_1___uint64_identity_1_opaque_ptr_2:
	.zero	8
	.globl	_TIG_iO_Byo2_1___bswap_16_1_opaque_list_2
	.align 8
	.type	_TIG_iO_Byo2_1___bswap_16_1_opaque_list_2, @object
	.size	_TIG_iO_Byo2_1___bswap_16_1_opaque_list_2, 8
_TIG_iO_Byo2_1___bswap_16_1_opaque_list_2:
	.zero	8
	.globl	_TIG_iO_Byo2_1___uint16_identity_1_opaque_list_1
	.align 8
	.type	_TIG_iO_Byo2_1___uint16_identity_1_opaque_list_1, @object
	.size	_TIG_iO_Byo2_1___uint16_identity_1_opaque_list_1, 8
_TIG_iO_Byo2_1___uint16_identity_1_opaque_list_1:
	.zero	8
	.globl	_TIG_iO_Byo2_1___bswap_16_1_opaque_ptr_2
	.align 8
	.type	_TIG_iO_Byo2_1___bswap_16_1_opaque_ptr_2, @object
	.size	_TIG_iO_Byo2_1___bswap_16_1_opaque_ptr_2, 8
_TIG_iO_Byo2_1___bswap_16_1_opaque_ptr_2:
	.zero	8
	.globl	_TIG_iO_Byo2_1_parse_input_1_opaque_list_1
	.align 8
	.type	_TIG_iO_Byo2_1_parse_input_1_opaque_list_1, @object
	.size	_TIG_iO_Byo2_1_parse_input_1_opaque_list_1, 8
_TIG_iO_Byo2_1_parse_input_1_opaque_list_1:
	.zero	8
	.globl	_TIG_IZ_Byo2_envp
	.align 8
	.type	_TIG_IZ_Byo2_envp, @object
	.size	_TIG_IZ_Byo2_envp, 8
_TIG_IZ_Byo2_envp:
	.zero	8
	.globl	_TIG_iO_Byo2_1_execute_command_1_opaque_ptr_1
	.align 8
	.type	_TIG_iO_Byo2_1_execute_command_1_opaque_ptr_1, @object
	.size	_TIG_iO_Byo2_1_execute_command_1_opaque_ptr_1, 8
_TIG_iO_Byo2_1_execute_command_1_opaque_ptr_1:
	.zero	8
	.globl	_TIG_iO_Byo2_1___uint32_identity_1_opaque_ptr_1
	.align 8
	.type	_TIG_iO_Byo2_1___uint32_identity_1_opaque_ptr_1, @object
	.size	_TIG_iO_Byo2_1___uint32_identity_1_opaque_ptr_1, 8
_TIG_iO_Byo2_1___uint32_identity_1_opaque_ptr_1:
	.zero	8
	.globl	_TIG_iO_Byo2_1___bswap_16_1_opaque_ptr_1
	.align 8
	.type	_TIG_iO_Byo2_1___bswap_16_1_opaque_ptr_1, @object
	.size	_TIG_iO_Byo2_1___bswap_16_1_opaque_ptr_1, 8
_TIG_iO_Byo2_1___bswap_16_1_opaque_ptr_1:
	.zero	8
	.globl	_TIG_iO_Byo2_1___uint16_identity_1_opaque_ptr_1
	.align 8
	.type	_TIG_iO_Byo2_1___uint16_identity_1_opaque_ptr_1, @object
	.size	_TIG_iO_Byo2_1___uint16_identity_1_opaque_ptr_1, 8
_TIG_iO_Byo2_1___uint16_identity_1_opaque_ptr_1:
	.zero	8
	.globl	_TIG_iO_Byo2_1___bswap_64_1_opaque_list_1
	.align 8
	.type	_TIG_iO_Byo2_1___bswap_64_1_opaque_list_1, @object
	.size	_TIG_iO_Byo2_1___bswap_64_1_opaque_list_1, 8
_TIG_iO_Byo2_1___bswap_64_1_opaque_list_1:
	.zero	8
	.globl	_TIG_iO_Byo2_1___bswap_64_1_opaque_ptr_2
	.align 8
	.type	_TIG_iO_Byo2_1___bswap_64_1_opaque_ptr_2, @object
	.size	_TIG_iO_Byo2_1___bswap_64_1_opaque_ptr_2, 8
_TIG_iO_Byo2_1___bswap_64_1_opaque_ptr_2:
	.zero	8
	.section	.rodata
.LC0:
	.string	"Fork failed!"
	.align 8
.LC1:
	.string	"Command excecution unsucessful"
	.text
	.globl	execute_command
	.type	execute_command, @function
execute_command:
.LFB2:
	.cfi_startproc
	endbr64
	pushq	%rbp
	.cfi_def_cfa_offset 16
	.cfi_offset 6, -16
	movq	%rsp, %rbp
	.cfi_def_cfa_register 6
	subq	$96, %rsp
	movq	%rdi, -88(%rbp)
	movl	%esi, -92(%rbp)
#APP
# 60 "/usr/include/x86_64-linux-gnu/bits/uintn-identity.h" 1
	##_ANNOTATION_INITIALREGION_-TIG-iO-Byo2-1-execute-command--14
# 0 "" 2
# 64 "/usr/include/x86_64-linux-gnu/bits/uintn-identity.h" 1
	##_ANNOTATION_ATOMICREGION_-TIG-iO-Byo2-1-execute-command--13
# 0 "" 2
#NO_APP
	movl	$24, %edi
	call	malloc@PLT
	movq	%rax, -40(%rbp)
	movq	-40(%rbp), %rax
	movq	-40(%rbp), %rdx
	movq	%rdx, (%rax)
	movq	-40(%rbp), %rax
	movq	-40(%rbp), %rdx
	movq	%rdx, 8(%rax)
	movq	-40(%rbp), %rax
	movq	%rax, _TIG_iO_Byo2_1_execute_command_1_opaque_list_1(%rip)
	call	rand@PLT
	movl	%eax, -68(%rbp)
	movl	$24, %edi
	call	malloc@PLT
	movq	%rax, -32(%rbp)
	movq	-32(%rbp), %rax
	movl	$0, 16(%rax)
	movq	_TIG_iO_Byo2_1_execute_command_1_opaque_list_1(%rip), %rax
	movq	(%rax), %rdx
	movq	-32(%rbp), %rax
	movq	%rdx, (%rax)
	movq	_TIG_iO_Byo2_1_execute_command_1_opaque_list_1(%rip), %rdx
	movq	-32(%rbp), %rax
	movq	%rdx, 8(%rax)
	movq	_TIG_iO_Byo2_1_execute_command_1_opaque_list_1(%rip), %rax
	movq	(%rax), %rax
	movq	-32(%rbp), %rdx
	movq	%rdx, 8(%rax)
	movq	_TIG_iO_Byo2_1_execute_command_1_opaque_list_1(%rip), %rax
	movq	-32(%rbp), %rdx
	movq	%rdx, (%rax)
	call	rand@PLT
	movl	%eax, -64(%rbp)
	movl	$24, %edi
	call	malloc@PLT
	movq	%rax, -24(%rbp)
	movq	-24(%rbp), %rax
	movl	-64(%rbp), %edx
	movl	%edx, 16(%rax)
	movq	_TIG_iO_Byo2_1_execute_command_1_opaque_list_1(%rip), %rax
	movq	(%rax), %rdx
	movq	-24(%rbp), %rax
	movq	%rdx, (%rax)
	movq	_TIG_iO_Byo2_1_execute_command_1_opaque_list_1(%rip), %rdx
	movq	-24(%rbp), %rax
	movq	%rdx, 8(%rax)
	movq	_TIG_iO_Byo2_1_execute_command_1_opaque_list_1(%rip), %rax
	movq	(%rax), %rax
	movq	-24(%rbp), %rdx
	movq	%rdx, 8(%rax)
	movq	_TIG_iO_Byo2_1_execute_command_1_opaque_list_1(%rip), %rax
	movq	-24(%rbp), %rdx
	movq	%rdx, (%rax)
	call	rand@PLT
	movl	%eax, -60(%rbp)
	movl	$24, %edi
	call	malloc@PLT
	movq	%rax, -16(%rbp)
	movl	-60(%rbp), %eax
	leal	(%rax,%rax), %edx
	movq	-16(%rbp), %rax
	movl	%edx, 16(%rax)
	movq	_TIG_iO_Byo2_1_execute_command_1_opaque_list_1(%rip), %rax
	movq	(%rax), %rdx
	movq	-16(%rbp), %rax
	movq	%rdx, (%rax)
	movq	_TIG_iO_Byo2_1_execute_command_1_opaque_list_1(%rip), %rdx
	movq	-16(%rbp), %rax
	movq	%rdx, 8(%rax)
	movq	_TIG_iO_Byo2_1_execute_command_1_opaque_list_1(%rip), %rax
	movq	(%rax), %rax
	movq	-16(%rbp), %rdx
	movq	%rdx, 8(%rax)
	movq	_TIG_iO_Byo2_1_execute_command_1_opaque_list_1(%rip), %rax
	movq	-16(%rbp), %rdx
	movq	%rdx, (%rax)
	call	rand@PLT
	movl	%eax, -56(%rbp)
	movl	$24, %edi
	call	malloc@PLT
	movq	%rax, -8(%rbp)
	movl	-56(%rbp), %edx
	movl	%edx, %eax
	addl	%eax, %eax
	addl	%eax, %edx
	movq	-8(%rbp), %rax
	movl	%edx, 16(%rax)
	movq	_TIG_iO_Byo2_1_execute_command_1_opaque_list_1(%rip), %rax
	movq	(%rax), %rdx
	movq	-8(%rbp), %rax
	movq	%rdx, (%rax)
	movq	_TIG_iO_Byo2_1_execute_command_1_opaque_list_1(%rip), %rdx
	movq	-8(%rbp), %rax
	movq	%rdx, 8(%rax)
	movq	_TIG_iO_Byo2_1_execute_command_1_opaque_list_1(%rip), %rax
	movq	(%rax), %rax
	movq	-8(%rbp), %rdx
	movq	%rdx, 8(%rax)
	movq	_TIG_iO_Byo2_1_execute_command_1_opaque_list_1(%rip), %rax
	movq	-8(%rbp), %rdx
	movq	%rdx, (%rax)
	movq	_TIG_iO_Byo2_1_execute_command_1_opaque_list_1(%rip), %rax
	movq	(%rax), %rax
	movq	%rax, _TIG_iO_Byo2_1_execute_command_1_opaque_ptr_1(%rip)
	movq	_TIG_iO_Byo2_1_execute_command_1_opaque_ptr_1(%rip), %rax
	movq	%rax, _TIG_iO_Byo2_1_execute_command_1_opaque_ptr_2(%rip)
	movq	_TIG_iO_Byo2_1_execute_command_1_opaque_ptr_2(%rip), %rax
	movq	(%rax), %rax
	movq	%rax, _TIG_iO_Byo2_1_execute_command_1_opaque_ptr_2(%rip)
	nop
	nop
	call	fork@PLT
	movl	%eax, -52(%rbp)
	movl	-52(%rbp), %eax
	movl	%eax, -48(%rbp)
	cmpl	$0, -48(%rbp)
	jns	.L2
	leaq	.LC0(%rip), %rax
	movq	%rax, %rdi
	call	perror@PLT
	movl	$1, %edi
	call	exit@PLT
.L2:
	cmpl	$0, -48(%rbp)
	jne	.L7
	movq	-88(%rbp), %rax
	movq	(%rax), %rax
	movq	-88(%rbp), %rdx
	movq	%rdx, %rsi
	movq	%rax, %rdi
	call	execvp@PLT
	movl	%eax, -44(%rbp)
	cmpl	$0, -44(%rbp)
	jns	.L4
	leaq	.LC1(%rip), %rax
	movq	%rax, %rdi
	call	perror@PLT
	movl	$1, %edi
	call	exit@PLT
.L4:
	movq	_TIG_iO_Byo2_1_parse_input_1_opaque_ptr_1(%rip), %rdx
	movq	_TIG_iO_Byo2_1_parse_input_1_opaque_ptr_2(%rip), %rax
	cmpq	%rax, %rdx
	je	.L8
	jmp	.L3
.L7:
	nop
.L3:
	cmpl	$0, -92(%rbp)
	jne	.L8
	movl	-48(%rbp), %eax
	movl	$0, %edx
	movl	$0, %esi
	movl	%eax, %edi
	call	waitpid@PLT
	nop
.L8:
	nop
	leave
	.cfi_def_cfa 7, 8
	ret
	.cfi_endproc
.LFE2:
	.size	execute_command, .-execute_command
	.section	.rodata
.LC2:
	.string	" \n"
.LC3:
	.string	"&"
	.text
	.globl	parse_input
	.type	parse_input, @function
parse_input:
.LFB5:
	.cfi_startproc
	endbr64
	pushq	%rbp
	.cfi_def_cfa_offset 16
	.cfi_offset 6, -16
	movq	%rsp, %rbp
	.cfi_def_cfa_register 6
	subq	$96, %rsp
	movq	%rdi, -72(%rbp)
	movq	%rsi, -80(%rbp)
	movq	%rdx, -88(%rbp)
#APP
# 72 "/usr/include/x86_64-linux-gnu/bits/uintn-identity.h" 1
	##_ANNOTATION_INITIALREGION_-TIG-iO-Byo2-1-parse-input--18
# 0 "" 2
# 76 "/usr/include/x86_64-linux-gnu/bits/uintn-identity.h" 1
	##_ANNOTATION_ATOMICREGION_-TIG-iO-Byo2-1-parse-input--17
# 0 "" 2
#NO_APP
	movl	$24, %edi
	call	malloc@PLT
	movq	%rax, -32(%rbp)
	movq	-32(%rbp), %rax
	movq	-32(%rbp), %rdx
	movq	%rdx, 8(%rax)
	movq	-32(%rbp), %rax
	movq	-32(%rbp), %rdx
	movq	%rdx, (%rax)
	movq	-32(%rbp), %rax
	movq	%rax, _TIG_iO_Byo2_1_parse_input_1_opaque_list_1(%rip)
	call	rand@PLT
	movl	%eax, -56(%rbp)
	movl	$24, %edi
	call	malloc@PLT
	movq	%rax, -24(%rbp)
	movq	-24(%rbp), %rax
	movl	$0, 16(%rax)
	movq	_TIG_iO_Byo2_1_parse_input_1_opaque_list_1(%rip), %rax
	movq	8(%rax), %rdx
	movq	-24(%rbp), %rax
	movq	%rdx, 8(%rax)
	movq	_TIG_iO_Byo2_1_parse_input_1_opaque_list_1(%rip), %rdx
	movq	-24(%rbp), %rax
	movq	%rdx, (%rax)
	movq	_TIG_iO_Byo2_1_parse_input_1_opaque_list_1(%rip), %rax
	movq	8(%rax), %rax
	movq	-24(%rbp), %rdx
	movq	%rdx, (%rax)
	movq	_TIG_iO_Byo2_1_parse_input_1_opaque_list_1(%rip), %rax
	movq	-24(%rbp), %rdx
	movq	%rdx, 8(%rax)
	call	rand@PLT
	movl	%eax, -52(%rbp)
	movl	$24, %edi
	call	malloc@PLT
	movq	%rax, -16(%rbp)
	movq	-16(%rbp), %rax
	movl	-52(%rbp), %edx
	movl	%edx, 16(%rax)
	movq	_TIG_iO_Byo2_1_parse_input_1_opaque_list_1(%rip), %rax
	movq	8(%rax), %rdx
	movq	-16(%rbp), %rax
	movq	%rdx, 8(%rax)
	movq	_TIG_iO_Byo2_1_parse_input_1_opaque_list_1(%rip), %rdx
	movq	-16(%rbp), %rax
	movq	%rdx, (%rax)
	movq	_TIG_iO_Byo2_1_parse_input_1_opaque_list_1(%rip), %rax
	movq	8(%rax), %rax
	movq	-16(%rbp), %rdx
	movq	%rdx, (%rax)
	movq	_TIG_iO_Byo2_1_parse_input_1_opaque_list_1(%rip), %rax
	movq	-16(%rbp), %rdx
	movq	%rdx, 8(%rax)
	movq	_TIG_iO_Byo2_1_parse_input_1_opaque_list_1(%rip), %rax
	movq	8(%rax), %rax
	movq	%rax, _TIG_iO_Byo2_1_parse_input_1_opaque_ptr_1(%rip)
	movq	_TIG_iO_Byo2_1_parse_input_1_opaque_ptr_1(%rip), %rax
	movq	%rax, _TIG_iO_Byo2_1_parse_input_1_opaque_ptr_2(%rip)
	movq	_TIG_iO_Byo2_1_parse_input_1_opaque_ptr_2(%rip), %rax
	movq	8(%rax), %rax
	movq	%rax, _TIG_iO_Byo2_1_parse_input_1_opaque_ptr_2(%rip)
	nop
	nop
	movl	$0, -60(%rbp)
	movq	-88(%rbp), %rax
	movl	$0, (%rax)
	movq	-72(%rbp), %rax
	leaq	.LC2(%rip), %rdx
	movq	%rdx, %rsi
	movq	%rax, %rdi
	call	strtok@PLT
	movq	%rax, -8(%rbp)
	movq	-8(%rbp), %rax
	movq	%rax, -40(%rbp)
	jmp	.L10
.L11:
	movl	-60(%rbp), %eax
	movl	%eax, -44(%rbp)
	addl	$1, -60(%rbp)
	movl	-44(%rbp), %eax
	cltq
	leaq	0(,%rax,8), %rdx
	movq	-80(%rbp), %rax
	addq	%rax, %rdx
	movq	-40(%rbp), %rax
	movq	%rax, (%rdx)
	leaq	.LC2(%rip), %rax
	movq	%rax, %rsi
	movl	$0, %edi
	call	strtok@PLT
	movq	%rax, -40(%rbp)
.L10:
	cmpq	$0, -40(%rbp)
	jne	.L11
	cmpl	$0, -60(%rbp)
	jle	.L12
	movl	-60(%rbp), %eax
	cltq
	salq	$3, %rax
	leaq	-8(%rax), %rdx
	movq	-80(%rbp), %rax
	addq	%rdx, %rax
	movq	(%rax), %rax
	leaq	.LC3(%rip), %rdx
	movq	%rdx, %rsi
	movq	%rax, %rdi
	call	strcmp@PLT
	movl	%eax, -48(%rbp)
	cmpl	$0, -48(%rbp)
	jne	.L13
	movq	-88(%rbp), %rax
	movl	$1, (%rax)
	movl	-60(%rbp), %eax
	cltq
	salq	$3, %rax
	leaq	-8(%rax), %rdx
	movq	-80(%rbp), %rax
	addq	%rdx, %rax
	movq	$0, (%rax)
	jmp	.L9
.L13:
	movl	-60(%rbp), %eax
	cltq
	leaq	0(,%rax,8), %rdx
	movq	-80(%rbp), %rax
	addq	%rdx, %rax
	movq	$0, (%rax)
	jmp	.L9
.L12:
	movq	_TIG_iO_Byo2_1_parse_input_1_opaque_ptr_1(%rip), %rdx
	movq	_TIG_iO_Byo2_1_parse_input_1_opaque_ptr_2(%rip), %rax
	cmpq	%rax, %rdx
	jne	.L15
	movl	-60(%rbp), %eax
	cltq
	leaq	0(,%rax,8), %rdx
	movq	-80(%rbp), %rax
	addq	%rdx, %rax
	movq	$-1, (%rax)
	jmp	.L9
.L15:
	movl	-60(%rbp), %eax
	cltq
	leaq	0(,%rax,8), %rdx
	movq	-80(%rbp), %rax
	addq	%rdx, %rax
	movq	$0, (%rax)
	nop
.L9:
	leave
	.cfi_def_cfa 7, 8
	ret
	.cfi_endproc
.LFE5:
	.size	parse_input, .-parse_input
	.section	.rodata
.LC4:
	.string	"Your command> "
.LC5:
	.string	"exit"
.LC6:
	.string	"Exiting shell...\n"
.LC7:
	.string	"Exiting shell..."
	.text
	.globl	main
	.type	main, @function
main:
.LFB7:
	.cfi_startproc
	endbr64
	pushq	%rbp
	.cfi_def_cfa_offset 16
	.cfi_offset 6, -16
	movq	%rsp, %rbp
	.cfi_def_cfa_register 6
	subq	$272, %rsp
	movl	%edi, -244(%rbp)
	movq	%rsi, -256(%rbp)
	movq	%rdx, -264(%rbp)
	movq	%fs:40, %rax
	movq	%rax, -8(%rbp)
	xorl	%eax, %eax
	movq	$0, _TIG_IZ_Byo2_envp(%rip)
	nop
.L18:
	movq	$0, _TIG_IZ_Byo2_argv(%rip)
	nop
.L19:
	movl	$0, _TIG_IZ_Byo2_argc(%rip)
	nop
	nop
.L20:
.L21:
#APP
# 125 "/usr/include/x86_64-linux-gnu/bits/byteswap.h" 1
	##_ANNOTATION_INITIALREGION_-TIG-IZ-Byo2--0
# 0 "" 2
#NO_APP
	movl	-244(%rbp), %eax
	movl	%eax, _TIG_IZ_Byo2_argc(%rip)
	movq	-256(%rbp), %rax
	movq	%rax, _TIG_IZ_Byo2_argv(%rip)
	movq	-264(%rbp), %rax
	movq	%rax, _TIG_IZ_Byo2_envp(%rip)
#APP
# 132 "/usr/include/x86_64-linux-gnu/bits/byteswap.h" 1
	##_ANNOTATION_ATOMICREGION_-TIG-iO-Byo2-1-main--15
# 0 "" 2
#NO_APP
	movl	$24, %edi
	call	malloc@PLT
	movq	%rax, -224(%rbp)
	movq	-224(%rbp), %rax
	movq	-224(%rbp), %rdx
	movq	%rdx, 16(%rax)
	movq	-224(%rbp), %rax
	movq	-224(%rbp), %rdx
	movq	%rdx, 8(%rax)
	movq	-224(%rbp), %rax
	movq	%rax, _TIG_iO_Byo2_1_main_1_opaque_list_1(%rip)
	call	rand@PLT
	movl	%eax, -236(%rbp)
	movl	$24, %edi
	call	malloc@PLT
	movq	%rax, -216(%rbp)
	movq	-216(%rbp), %rax
	movl	$0, (%rax)
	movq	_TIG_iO_Byo2_1_main_1_opaque_list_1(%rip), %rax
	movq	16(%rax), %rdx
	movq	-216(%rbp), %rax
	movq	%rdx, 16(%rax)
	movq	_TIG_iO_Byo2_1_main_1_opaque_list_1(%rip), %rdx
	movq	-216(%rbp), %rax
	movq	%rdx, 8(%rax)
	movq	_TIG_iO_Byo2_1_main_1_opaque_list_1(%rip), %rax
	movq	16(%rax), %rax
	movq	-216(%rbp), %rdx
	movq	%rdx, 8(%rax)
	movq	_TIG_iO_Byo2_1_main_1_opaque_list_1(%rip), %rax
	movq	-216(%rbp), %rdx
	movq	%rdx, 16(%rax)
	call	rand@PLT
	movl	%eax, -232(%rbp)
	movl	$24, %edi
	call	malloc@PLT
	movq	%rax, -208(%rbp)
	movq	-208(%rbp), %rax
	movl	-232(%rbp), %edx
	movl	%edx, (%rax)
	movq	_TIG_iO_Byo2_1_main_1_opaque_list_1(%rip), %rax
	movq	16(%rax), %rdx
	movq	-208(%rbp), %rax
	movq	%rdx, 16(%rax)
	movq	_TIG_iO_Byo2_1_main_1_opaque_list_1(%rip), %rdx
	movq	-208(%rbp), %rax
	movq	%rdx, 8(%rax)
	movq	_TIG_iO_Byo2_1_main_1_opaque_list_1(%rip), %rax
	movq	16(%rax), %rax
	movq	-208(%rbp), %rdx
	movq	%rdx, 8(%rax)
	movq	_TIG_iO_Byo2_1_main_1_opaque_list_1(%rip), %rax
	movq	-208(%rbp), %rdx
	movq	%rdx, 16(%rax)
	movq	_TIG_iO_Byo2_1_main_1_opaque_list_1(%rip), %rax
	movq	16(%rax), %rax
	movq	%rax, _TIG_iO_Byo2_1_main_1_opaque_ptr_1(%rip)
	movq	_TIG_iO_Byo2_1_main_1_opaque_ptr_1(%rip), %rax
	movq	%rax, _TIG_iO_Byo2_1_main_1_opaque_ptr_2(%rip)
	nop
	nop
.L27:
	leaq	.LC4(%rip), %rax
	movq	%rax, %rdi
	movl	$0, %eax
	call	printf@PLT
	movq	stdout(%rip), %rax
	movq	%rax, %rdi
	call	fflush@PLT
	movq	stdin(%rip), %rdx
	leaq	-112(%rbp), %rax
	movl	$10, %esi
	movq	%rax, %rdi
	call	fgets@PLT
	movq	%rax, -200(%rbp)
	cmpq	$0, -200(%rbp)
	je	.L32
	leaq	-240(%rbp), %rdx
	leaq	-192(%rbp), %rcx
	leaq	-112(%rbp), %rax
	movq	%rcx, %rsi
	movq	%rax, %rdi
	call	parse_input
	movq	-184(%rbp), %rax
	testq	%rax, %rax
	jne	.L33
	movq	-192(%rbp), %rax
	leaq	.LC5(%rip), %rdx
	movq	%rdx, %rsi
	movq	%rax, %rdi
	call	strcmp@PLT
	movl	%eax, -228(%rbp)
	cmpl	$0, -228(%rbp)
	je	.L34
	movl	-240(%rbp), %edx
	leaq	-192(%rbp), %rax
	movl	%edx, %esi
	movq	%rax, %rdi
	call	execute_command
	jmp	.L27
.L33:
	nop
	jmp	.L27
.L32:
	nop
	jmp	.L23
.L34:
	nop
.L23:
	movq	_TIG_iO_Byo2_1_parse_input_1_opaque_ptr_1(%rip), %rdx
	movq	_TIG_iO_Byo2_1_parse_input_1_opaque_ptr_2(%rip), %rax
	cmpq	%rax, %rdx
	jne	.L28
	leaq	1+.LC6(%rip), %rax
	movq	%rax, %rdi
	movl	$0, %eax
	call	printf@PLT
	jmp	.L29
.L28:
	leaq	.LC7(%rip), %rax
	movq	%rax, %rdi
	call	puts@PLT
.L29:
	movl	$0, %eax
	movq	-8(%rbp), %rdx
	subq	%fs:40, %rdx
	je	.L31
	call	__stack_chk_fail@PLT
.L31:
	leave
	.cfi_def_cfa 7, 8
	ret
	.cfi_endproc
.LFE7:
	.size	main, .-main
	.ident	"GCC: (Ubuntu 11.4.0-1ubuntu1~22.04) 11.4.0"
	.section	.note.GNU-stack,"",@progbits
	.section	.note.gnu.property,"a"
	.align 8
	.long	1f - 0f
	.long	4f - 1f
	.long	5
0:
	.string	"GNU"
1:
	.align 8
	.long	0xc0000002
	.long	3f - 2f
2:
	.long	0x3
3:
	.align 8
4:
