	.file	"Avgilboa_OS---EX2_}_opaque.c"
	.text
	.globl	_TIG_iO_8HrJ_1_func_1_opaque_list_1
	.bss
	.align 8
	.type	_TIG_iO_8HrJ_1_func_1_opaque_list_1, @object
	.size	_TIG_iO_8HrJ_1_func_1_opaque_list_1, 8
_TIG_iO_8HrJ_1_func_1_opaque_list_1:
	.zero	8
	.globl	_TIG_iO_8HrJ_1___bswap_64_1_opaque_ptr_1
	.align 8
	.type	_TIG_iO_8HrJ_1___bswap_64_1_opaque_ptr_1, @object
	.size	_TIG_iO_8HrJ_1___bswap_64_1_opaque_ptr_1, 8
_TIG_iO_8HrJ_1___bswap_64_1_opaque_ptr_1:
	.zero	8
	.globl	_TIG_iO_8HrJ_1_unix_command_1_opaque_list_1
	.align 8
	.type	_TIG_iO_8HrJ_1_unix_command_1_opaque_list_1, @object
	.size	_TIG_iO_8HrJ_1_unix_command_1_opaque_list_1, 8
_TIG_iO_8HrJ_1_unix_command_1_opaque_list_1:
	.zero	8
	.globl	_TIG_iO_8HrJ_1___uint32_identity_1_opaque_list_2
	.align 8
	.type	_TIG_iO_8HrJ_1___uint32_identity_1_opaque_list_2, @object
	.size	_TIG_iO_8HrJ_1___uint32_identity_1_opaque_list_2, 8
_TIG_iO_8HrJ_1___uint32_identity_1_opaque_list_2:
	.zero	8
	.globl	_TIG_iO_8HrJ_1___uint32_identity_1_opaque_list_1
	.align 8
	.type	_TIG_iO_8HrJ_1___uint32_identity_1_opaque_list_1, @object
	.size	_TIG_iO_8HrJ_1___uint32_identity_1_opaque_list_1, 8
_TIG_iO_8HrJ_1___uint32_identity_1_opaque_list_1:
	.zero	8
	.globl	_TIG_iO_8HrJ_1_main_1_opaque_list_2
	.align 8
	.type	_TIG_iO_8HrJ_1_main_1_opaque_list_2, @object
	.size	_TIG_iO_8HrJ_1_main_1_opaque_list_2, 8
_TIG_iO_8HrJ_1_main_1_opaque_list_2:
	.zero	8
	.globl	_TIG_iO_8HrJ_1___uint32_identity_1_opaque_ptr_1
	.align 8
	.type	_TIG_iO_8HrJ_1___uint32_identity_1_opaque_ptr_1, @object
	.size	_TIG_iO_8HrJ_1___uint32_identity_1_opaque_ptr_1, 8
_TIG_iO_8HrJ_1___uint32_identity_1_opaque_ptr_1:
	.zero	8
	.globl	_TIG_IZ_8HrJ_envp
	.align 8
	.type	_TIG_IZ_8HrJ_envp, @object
	.size	_TIG_IZ_8HrJ_envp, 8
_TIG_IZ_8HrJ_envp:
	.zero	8
	.globl	_TIG_iO_8HrJ_1___bswap_64_1_opaque_list_2
	.align 8
	.type	_TIG_iO_8HrJ_1___bswap_64_1_opaque_list_2, @object
	.size	_TIG_iO_8HrJ_1___bswap_64_1_opaque_list_2, 8
_TIG_iO_8HrJ_1___bswap_64_1_opaque_list_2:
	.zero	8
	.globl	_TIG_iO_8HrJ_1___uint16_identity_1_opaque_list_1
	.align 8
	.type	_TIG_iO_8HrJ_1___uint16_identity_1_opaque_list_1, @object
	.size	_TIG_iO_8HrJ_1___uint16_identity_1_opaque_list_1, 8
_TIG_iO_8HrJ_1___uint16_identity_1_opaque_list_1:
	.zero	8
	.globl	_TIG_iO_8HrJ_1___bswap_32_1_opaque_ptr_2
	.align 8
	.type	_TIG_iO_8HrJ_1___bswap_32_1_opaque_ptr_2, @object
	.size	_TIG_iO_8HrJ_1___bswap_32_1_opaque_ptr_2, 8
_TIG_iO_8HrJ_1___bswap_32_1_opaque_ptr_2:
	.zero	8
	.globl	_TIG_iO_8HrJ_1_main_1_opaque_list_1
	.align 8
	.type	_TIG_iO_8HrJ_1_main_1_opaque_list_1, @object
	.size	_TIG_iO_8HrJ_1_main_1_opaque_list_1, 8
_TIG_iO_8HrJ_1_main_1_opaque_list_1:
	.zero	8
	.globl	_TIG_iO_8HrJ_1___uint64_identity_1_opaque_ptr_1
	.align 8
	.type	_TIG_iO_8HrJ_1___uint64_identity_1_opaque_ptr_1, @object
	.size	_TIG_iO_8HrJ_1___uint64_identity_1_opaque_ptr_1, 8
_TIG_iO_8HrJ_1___uint64_identity_1_opaque_ptr_1:
	.zero	8
	.globl	_TIG_iO_8HrJ_1_func_1_opaque_ptr_2
	.align 8
	.type	_TIG_iO_8HrJ_1_func_1_opaque_ptr_2, @object
	.size	_TIG_iO_8HrJ_1_func_1_opaque_ptr_2, 8
_TIG_iO_8HrJ_1_func_1_opaque_ptr_2:
	.zero	8
	.globl	_TIG_iO_8HrJ_1___bswap_64_1_opaque_ptr_2
	.align 8
	.type	_TIG_iO_8HrJ_1___bswap_64_1_opaque_ptr_2, @object
	.size	_TIG_iO_8HrJ_1___bswap_64_1_opaque_ptr_2, 8
_TIG_iO_8HrJ_1___bswap_64_1_opaque_ptr_2:
	.zero	8
	.globl	_TIG_iO_8HrJ_1_main_1_opaque_ptr_2
	.align 8
	.type	_TIG_iO_8HrJ_1_main_1_opaque_ptr_2, @object
	.size	_TIG_iO_8HrJ_1_main_1_opaque_ptr_2, 8
_TIG_iO_8HrJ_1_main_1_opaque_ptr_2:
	.zero	8
	.globl	_TIG_IZ_8HrJ_argv
	.align 8
	.type	_TIG_IZ_8HrJ_argv, @object
	.size	_TIG_IZ_8HrJ_argv, 8
_TIG_IZ_8HrJ_argv:
	.zero	8
	.globl	_TIG_iO_8HrJ_1___bswap_16_1_opaque_ptr_2
	.align 8
	.type	_TIG_iO_8HrJ_1___bswap_16_1_opaque_ptr_2, @object
	.size	_TIG_iO_8HrJ_1___bswap_16_1_opaque_ptr_2, 8
_TIG_iO_8HrJ_1___bswap_16_1_opaque_ptr_2:
	.zero	8
	.globl	_TIG_iO_8HrJ_1___bswap_32_1_opaque_ptr_1
	.align 8
	.type	_TIG_iO_8HrJ_1___bswap_32_1_opaque_ptr_1, @object
	.size	_TIG_iO_8HrJ_1___bswap_32_1_opaque_ptr_1, 8
_TIG_iO_8HrJ_1___bswap_32_1_opaque_ptr_1:
	.zero	8
	.globl	_TIG_iO_8HrJ_1___bswap_16_1_opaque_list_2
	.align 8
	.type	_TIG_iO_8HrJ_1___bswap_16_1_opaque_list_2, @object
	.size	_TIG_iO_8HrJ_1___bswap_16_1_opaque_list_2, 8
_TIG_iO_8HrJ_1___bswap_16_1_opaque_list_2:
	.zero	8
	.globl	_TIG_iO_8HrJ_1___uint16_identity_1_opaque_list_2
	.align 8
	.type	_TIG_iO_8HrJ_1___uint16_identity_1_opaque_list_2, @object
	.size	_TIG_iO_8HrJ_1___uint16_identity_1_opaque_list_2, 8
_TIG_iO_8HrJ_1___uint16_identity_1_opaque_list_2:
	.zero	8
	.globl	_TIG_iO_8HrJ_1___uint32_identity_1_opaque_ptr_2
	.align 8
	.type	_TIG_iO_8HrJ_1___uint32_identity_1_opaque_ptr_2, @object
	.size	_TIG_iO_8HrJ_1___uint32_identity_1_opaque_ptr_2, 8
_TIG_iO_8HrJ_1___uint32_identity_1_opaque_ptr_2:
	.zero	8
	.globl	_TIG_iO_8HrJ_1___uint64_identity_1_opaque_list_1
	.align 8
	.type	_TIG_iO_8HrJ_1___uint64_identity_1_opaque_list_1, @object
	.size	_TIG_iO_8HrJ_1___uint64_identity_1_opaque_list_1, 8
_TIG_iO_8HrJ_1___uint64_identity_1_opaque_list_1:
	.zero	8
	.globl	_TIG_iO_8HrJ_1___bswap_64_1_opaque_list_1
	.align 8
	.type	_TIG_iO_8HrJ_1___bswap_64_1_opaque_list_1, @object
	.size	_TIG_iO_8HrJ_1___bswap_64_1_opaque_list_1, 8
_TIG_iO_8HrJ_1___bswap_64_1_opaque_list_1:
	.zero	8
	.globl	_TIG_iO_8HrJ_1___bswap_32_1_opaque_list_2
	.align 8
	.type	_TIG_iO_8HrJ_1___bswap_32_1_opaque_list_2, @object
	.size	_TIG_iO_8HrJ_1___bswap_32_1_opaque_list_2, 8
_TIG_iO_8HrJ_1___bswap_32_1_opaque_list_2:
	.zero	8
	.globl	_TIG_iO_8HrJ_1___bswap_16_1_opaque_ptr_1
	.align 8
	.type	_TIG_iO_8HrJ_1___bswap_16_1_opaque_ptr_1, @object
	.size	_TIG_iO_8HrJ_1___bswap_16_1_opaque_ptr_1, 8
_TIG_iO_8HrJ_1___bswap_16_1_opaque_ptr_1:
	.zero	8
	.globl	_TIG_iO_8HrJ_1_func_1_opaque_ptr_1
	.align 8
	.type	_TIG_iO_8HrJ_1_func_1_opaque_ptr_1, @object
	.size	_TIG_iO_8HrJ_1_func_1_opaque_ptr_1, 8
_TIG_iO_8HrJ_1_func_1_opaque_ptr_1:
	.zero	8
	.globl	_TIG_iO_8HrJ_1_unix_command_1_opaque_ptr_1
	.align 8
	.type	_TIG_iO_8HrJ_1_unix_command_1_opaque_ptr_1, @object
	.size	_TIG_iO_8HrJ_1_unix_command_1_opaque_ptr_1, 8
_TIG_iO_8HrJ_1_unix_command_1_opaque_ptr_1:
	.zero	8
	.globl	_TIG_iO_8HrJ_1_main_1_opaque_ptr_1
	.align 8
	.type	_TIG_iO_8HrJ_1_main_1_opaque_ptr_1, @object
	.size	_TIG_iO_8HrJ_1_main_1_opaque_ptr_1, 8
_TIG_iO_8HrJ_1_main_1_opaque_ptr_1:
	.zero	8
	.globl	_TIG_iO_8HrJ_1___uint64_identity_1_opaque_list_2
	.align 8
	.type	_TIG_iO_8HrJ_1___uint64_identity_1_opaque_list_2, @object
	.size	_TIG_iO_8HrJ_1___uint64_identity_1_opaque_list_2, 8
_TIG_iO_8HrJ_1___uint64_identity_1_opaque_list_2:
	.zero	8
	.globl	_TIG_iO_8HrJ_1___bswap_32_1_opaque_list_1
	.align 8
	.type	_TIG_iO_8HrJ_1___bswap_32_1_opaque_list_1, @object
	.size	_TIG_iO_8HrJ_1___bswap_32_1_opaque_list_1, 8
_TIG_iO_8HrJ_1___bswap_32_1_opaque_list_1:
	.zero	8
	.globl	_TIG_iO_8HrJ_1___uint16_identity_1_opaque_ptr_2
	.align 8
	.type	_TIG_iO_8HrJ_1___uint16_identity_1_opaque_ptr_2, @object
	.size	_TIG_iO_8HrJ_1___uint16_identity_1_opaque_ptr_2, 8
_TIG_iO_8HrJ_1___uint16_identity_1_opaque_ptr_2:
	.zero	8
	.globl	_TIG_iO_8HrJ_1_func_1_opaque_list_2
	.align 8
	.type	_TIG_iO_8HrJ_1_func_1_opaque_list_2, @object
	.size	_TIG_iO_8HrJ_1_func_1_opaque_list_2, 8
_TIG_iO_8HrJ_1_func_1_opaque_list_2:
	.zero	8
	.globl	_TIG_IZ_8HrJ_argc
	.align 4
	.type	_TIG_IZ_8HrJ_argc, @object
	.size	_TIG_IZ_8HrJ_argc, 4
_TIG_IZ_8HrJ_argc:
	.zero	4
	.globl	_TIG_iO_8HrJ_1___bswap_16_1_opaque_list_1
	.align 8
	.type	_TIG_iO_8HrJ_1___bswap_16_1_opaque_list_1, @object
	.size	_TIG_iO_8HrJ_1___bswap_16_1_opaque_list_1, 8
_TIG_iO_8HrJ_1___bswap_16_1_opaque_list_1:
	.zero	8
	.globl	_TIG_iO_8HrJ_1_unix_command_1_opaque_list_2
	.align 8
	.type	_TIG_iO_8HrJ_1_unix_command_1_opaque_list_2, @object
	.size	_TIG_iO_8HrJ_1_unix_command_1_opaque_list_2, 8
_TIG_iO_8HrJ_1_unix_command_1_opaque_list_2:
	.zero	8
	.globl	_TIG_iO_8HrJ_1___uint16_identity_1_opaque_ptr_1
	.align 8
	.type	_TIG_iO_8HrJ_1___uint16_identity_1_opaque_ptr_1, @object
	.size	_TIG_iO_8HrJ_1___uint16_identity_1_opaque_ptr_1, 8
_TIG_iO_8HrJ_1___uint16_identity_1_opaque_ptr_1:
	.zero	8
	.globl	_TIG_iO_8HrJ_1___uint64_identity_1_opaque_ptr_2
	.align 8
	.type	_TIG_iO_8HrJ_1___uint64_identity_1_opaque_ptr_2, @object
	.size	_TIG_iO_8HrJ_1___uint64_identity_1_opaque_ptr_2, 8
_TIG_iO_8HrJ_1___uint64_identity_1_opaque_ptr_2:
	.zero	8
	.globl	_TIG_iO_8HrJ_1_unix_command_1_opaque_ptr_2
	.align 8
	.type	_TIG_iO_8HrJ_1_unix_command_1_opaque_ptr_2, @object
	.size	_TIG_iO_8HrJ_1_unix_command_1_opaque_ptr_2, 8
_TIG_iO_8HrJ_1_unix_command_1_opaque_ptr_2:
	.zero	8
	.section	.rodata
.LC0:
	.string	"pipe"
.LC1:
	.string	"%s"
	.text
	.globl	func
	.type	func, @function
func:
.LFB0:
	.cfi_startproc
	endbr64
	pushq	%rbp
	.cfi_def_cfa_offset 16
	.cfi_offset 6, -16
	movq	%rsp, %rbp
	.cfi_def_cfa_register 6
	subq	$224, %rsp
	movl	%edi, -212(%rbp)
	movq	%fs:40, %rax
	movq	%rax, -8(%rbp)
	xorl	%eax, %eax
#APP
# 92 "/usr/include/stdlib.h" 1
	##_ANNOTATION_INITIALREGION_-TIG-iO-8HrJ-1-func--14
# 0 "" 2
# 96 "/usr/include/stdlib.h" 1
	##_ANNOTATION_ATOMICREGION_-TIG-iO-8HrJ-1-func--13
# 0 "" 2
#NO_APP
	movl	$24, %edi
	call	malloc@PLT
	movq	%rax, -160(%rbp)
	movq	-160(%rbp), %rax
	movq	-160(%rbp), %rdx
	movq	%rdx, (%rax)
	movq	-160(%rbp), %rax
	movq	-160(%rbp), %rdx
	movq	%rdx, 8(%rax)
	movq	-160(%rbp), %rax
	movq	%rax, _TIG_iO_8HrJ_1_func_1_opaque_list_1(%rip)
	call	rand@PLT
	movl	%eax, -196(%rbp)
	movl	$24, %edi
	call	malloc@PLT
	movq	%rax, -152(%rbp)
	movq	-152(%rbp), %rax
	movl	$0, 16(%rax)
	movq	_TIG_iO_8HrJ_1_func_1_opaque_list_1(%rip), %rax
	movq	(%rax), %rdx
	movq	-152(%rbp), %rax
	movq	%rdx, (%rax)
	movq	_TIG_iO_8HrJ_1_func_1_opaque_list_1(%rip), %rdx
	movq	-152(%rbp), %rax
	movq	%rdx, 8(%rax)
	movq	_TIG_iO_8HrJ_1_func_1_opaque_list_1(%rip), %rax
	movq	(%rax), %rax
	movq	-152(%rbp), %rdx
	movq	%rdx, 8(%rax)
	movq	_TIG_iO_8HrJ_1_func_1_opaque_list_1(%rip), %rax
	movq	-152(%rbp), %rdx
	movq	%rdx, (%rax)
	call	rand@PLT
	movl	%eax, -192(%rbp)
	movl	$24, %edi
	call	malloc@PLT
	movq	%rax, -144(%rbp)
	movq	-144(%rbp), %rax
	movl	-192(%rbp), %edx
	movl	%edx, 16(%rax)
	movq	_TIG_iO_8HrJ_1_func_1_opaque_list_1(%rip), %rax
	movq	(%rax), %rdx
	movq	-144(%rbp), %rax
	movq	%rdx, (%rax)
	movq	_TIG_iO_8HrJ_1_func_1_opaque_list_1(%rip), %rdx
	movq	-144(%rbp), %rax
	movq	%rdx, 8(%rax)
	movq	_TIG_iO_8HrJ_1_func_1_opaque_list_1(%rip), %rax
	movq	(%rax), %rax
	movq	-144(%rbp), %rdx
	movq	%rdx, 8(%rax)
	movq	_TIG_iO_8HrJ_1_func_1_opaque_list_1(%rip), %rax
	movq	-144(%rbp), %rdx
	movq	%rdx, (%rax)
	call	rand@PLT
	movl	%eax, -188(%rbp)
	movl	$24, %edi
	call	malloc@PLT
	movq	%rax, -136(%rbp)
	movl	-188(%rbp), %eax
	leal	(%rax,%rax), %edx
	movq	-136(%rbp), %rax
	movl	%edx, 16(%rax)
	movq	_TIG_iO_8HrJ_1_func_1_opaque_list_1(%rip), %rax
	movq	(%rax), %rdx
	movq	-136(%rbp), %rax
	movq	%rdx, (%rax)
	movq	_TIG_iO_8HrJ_1_func_1_opaque_list_1(%rip), %rdx
	movq	-136(%rbp), %rax
	movq	%rdx, 8(%rax)
	movq	_TIG_iO_8HrJ_1_func_1_opaque_list_1(%rip), %rax
	movq	(%rax), %rax
	movq	-136(%rbp), %rdx
	movq	%rdx, 8(%rax)
	movq	_TIG_iO_8HrJ_1_func_1_opaque_list_1(%rip), %rax
	movq	-136(%rbp), %rdx
	movq	%rdx, (%rax)
	call	rand@PLT
	movl	%eax, -184(%rbp)
	movl	$24, %edi
	call	malloc@PLT
	movq	%rax, -128(%rbp)
	movl	-184(%rbp), %edx
	movl	%edx, %eax
	addl	%eax, %eax
	addl	%eax, %edx
	movq	-128(%rbp), %rax
	movl	%edx, 16(%rax)
	movq	_TIG_iO_8HrJ_1_func_1_opaque_list_1(%rip), %rax
	movq	(%rax), %rdx
	movq	-128(%rbp), %rax
	movq	%rdx, (%rax)
	movq	_TIG_iO_8HrJ_1_func_1_opaque_list_1(%rip), %rdx
	movq	-128(%rbp), %rax
	movq	%rdx, 8(%rax)
	movq	_TIG_iO_8HrJ_1_func_1_opaque_list_1(%rip), %rax
	movq	(%rax), %rax
	movq	-128(%rbp), %rdx
	movq	%rdx, 8(%rax)
	movq	_TIG_iO_8HrJ_1_func_1_opaque_list_1(%rip), %rax
	movq	-128(%rbp), %rdx
	movq	%rdx, (%rax)
	movq	_TIG_iO_8HrJ_1_func_1_opaque_list_1(%rip), %rax
	movq	(%rax), %rax
	movq	%rax, _TIG_iO_8HrJ_1_func_1_opaque_ptr_1(%rip)
	movq	_TIG_iO_8HrJ_1_func_1_opaque_ptr_1(%rip), %rax
	movq	%rax, _TIG_iO_8HrJ_1_func_1_opaque_ptr_2(%rip)
	movq	_TIG_iO_8HrJ_1_func_1_opaque_ptr_2(%rip), %rax
	movq	(%rax), %rax
	movq	%rax, _TIG_iO_8HrJ_1_func_1_opaque_ptr_2(%rip)
	nop
	nop
.L10:
	leaq	-96(%rbp), %rax
	movq	$0, (%rax)
	movq	$0, 8(%rax)
	movq	$0, 16(%rax)
	movq	$0, 24(%rax)
	movq	$0, 32(%rax)
	movq	$0, 40(%rax)
	movq	$0, 48(%rax)
	movq	$0, 56(%rax)
	movq	$0, 64(%rax)
	movq	$0, 72(%rax)
	leaq	-112(%rbp), %rax
	movq	%rax, %rdi
	call	pipe@PLT
	movl	%eax, -180(%rbp)
	cmpl	$0, -180(%rbp)
	jns	.L2
	leaq	.LC0(%rip), %rax
	movq	%rax, %rdi
	call	perror@PLT
	movl	$2, %edi
	call	exit@PLT
.L2:
	movq	_TIG_iO_8HrJ_1_unix_command_1_opaque_ptr_1(%rip), %rdx
	movq	_TIG_iO_8HrJ_1_unix_command_1_opaque_ptr_2(%rip), %rax
	cmpq	%rax, %rdx
	je	.L3
	call	fork@PLT
	movl	%eax, -176(%rbp)
	movl	-176(%rbp), %eax
	movl	%eax, -200(%rbp)
.L3:
	cmpl	$0, -200(%rbp)
	jne	.L4
	movl	-108(%rbp), %eax
	movl	$1, %esi
	movl	%eax, %edi
	call	dup2@PLT
	movl	-108(%rbp), %eax
	movl	%eax, %edi
	call	close@PLT
	movl	-112(%rbp), %eax
	movl	%eax, %edi
	call	close@PLT
	leaq	-96(%rbp), %rcx
	movl	-212(%rbp), %eax
	movl	$80, %edx
	movq	%rcx, %rsi
	movl	%eax, %edi
	call	read@PLT
	movq	%rax, -120(%rbp)
	cmpq	$0, -120(%rbp)
	jle	.L10
	leaq	-96(%rbp), %rax
	movq	%rax, %rsi
	leaq	.LC1(%rip), %rax
	movq	%rax, %rdi
	movl	$0, %eax
	call	printf@PLT
	leaq	-96(%rbp), %rax
	movq	$0, (%rax)
	movq	$0, 8(%rax)
	movq	$0, 16(%rax)
	movq	$0, 24(%rax)
	movq	$0, 32(%rax)
	movq	$0, 40(%rax)
	movq	$0, 48(%rax)
	movq	$0, 56(%rax)
	movq	$0, 64(%rax)
	movq	$0, 72(%rax)
	jmp	.L10
.L4:
	movl	-112(%rbp), %eax
	movl	$0, %esi
	movl	%eax, %edi
	call	dup2@PLT
	movl	-108(%rbp), %eax
	movl	%eax, %edi
	call	close@PLT
	movl	-112(%rbp), %eax
	movl	%eax, %edi
	call	close@PLT
	leaq	-96(%rbp), %rax
	movq	$0, (%rax)
	movq	$0, 8(%rax)
	movq	$0, 16(%rax)
	movq	$0, 24(%rax)
	movq	$0, 32(%rax)
	movq	$0, 40(%rax)
	movq	$0, 48(%rax)
	movq	$0, 56(%rax)
	movq	$0, 64(%rax)
	movq	$0, 72(%rax)
	movl	$0, -204(%rbp)
.L8:
	movl	-204(%rbp), %eax
	movl	%eax, -172(%rbp)
	addl	$1, -204(%rbp)
	call	getchar@PLT
	movl	%eax, -168(%rbp)
	movl	-168(%rbp), %eax
	movb	%al, -205(%rbp)
	movl	-172(%rbp), %eax
	cltq
	movzbl	-205(%rbp), %edx
	movb	%dl, -96(%rbp,%rax)
	cmpb	$10, -205(%rbp)
	je	.L13
	jmp	.L8
.L13:
	nop
	leaq	-104(%rbp), %rax
	movq	%rax, %rdi
	call	pipe@PLT
	movl	%eax, -164(%rbp)
	cmpl	$0, -164(%rbp)
	jns	.L9
	leaq	.LC0(%rip), %rax
	movq	%rax, %rdi
	call	perror@PLT
.L9:
	movl	-100(%rbp), %eax
	movl	$1, %esi
	movl	%eax, %edi
	call	dup2@PLT
	leaq	-96(%rbp), %rax
	movq	%rax, %rdi
	call	unix_command
	movl	-104(%rbp), %eax
	leaq	-96(%rbp), %rcx
	movl	$80, %edx
	movq	%rcx, %rsi
	movl	%eax, %edi
	call	read@PLT
	leaq	-96(%rbp), %rcx
	movl	-212(%rbp), %eax
	movl	$80, %edx
	movq	%rcx, %rsi
	movl	%eax, %edi
	call	write@PLT
	jmp	.L10
	.cfi_endproc
.LFE0:
	.size	func, .-func
	.section	.rodata
.LC2:
	.string	"Usage : ./ncL [port] \n"
.LC3:
	.string	"socket creation failed..."
.LC4:
	.string	"socket bind failed..."
.LC5:
	.string	"Listen failed..."
.LC6:
	.string	"listening.."
.LC7:
	.string	"server accept failed..."
.LC8:
	.string	"listen to [any] in port %s \n"
	.text
	.globl	main
	.type	main, @function
main:
.LFB4:
	.cfi_startproc
	endbr64
	pushq	%rbp
	.cfi_def_cfa_offset 16
	.cfi_offset 6, -16
	movq	%rsp, %rbp
	.cfi_def_cfa_register 6
	subq	$160, %rsp
	movl	%edi, -132(%rbp)
	movq	%rsi, -144(%rbp)
	movq	%rdx, -152(%rbp)
	movq	%fs:40, %rax
	movq	%rax, -8(%rbp)
	xorl	%eax, %eax
	movq	$0, _TIG_IZ_8HrJ_envp(%rip)
	nop
.L15:
	movq	$0, _TIG_IZ_8HrJ_argv(%rip)
	nop
.L16:
	movl	$0, _TIG_IZ_8HrJ_argc(%rip)
	nop
	nop
.L17:
.L18:
#APP
# 131 "/usr/include/x86_64-linux-gnu/bits/byteswap.h" 1
	##_ANNOTATION_INITIALREGION_-TIG-IZ-8HrJ--0
# 0 "" 2
#NO_APP
	movl	-132(%rbp), %eax
	movl	%eax, _TIG_IZ_8HrJ_argc(%rip)
	movq	-144(%rbp), %rax
	movq	%rax, _TIG_IZ_8HrJ_argv(%rip)
	movq	-152(%rbp), %rax
	movq	%rax, _TIG_IZ_8HrJ_envp(%rip)
#APP
# 138 "/usr/include/x86_64-linux-gnu/bits/byteswap.h" 1
	##_ANNOTATION_ATOMICREGION_-TIG-iO-8HrJ-1-main--15
# 0 "" 2
#NO_APP
	movl	$24, %edi
	call	malloc@PLT
	movq	%rax, -72(%rbp)
	movq	-72(%rbp), %rax
	movq	-72(%rbp), %rdx
	movq	%rdx, 16(%rax)
	movq	-72(%rbp), %rax
	movq	-72(%rbp), %rdx
	movq	%rdx, 8(%rax)
	movq	-72(%rbp), %rax
	movq	%rax, _TIG_iO_8HrJ_1_main_1_opaque_list_1(%rip)
	call	rand@PLT
	movl	%eax, -104(%rbp)
	movl	$24, %edi
	call	malloc@PLT
	movq	%rax, -64(%rbp)
	movq	-64(%rbp), %rax
	movl	$0, (%rax)
	movq	_TIG_iO_8HrJ_1_main_1_opaque_list_1(%rip), %rax
	movq	16(%rax), %rdx
	movq	-64(%rbp), %rax
	movq	%rdx, 16(%rax)
	movq	_TIG_iO_8HrJ_1_main_1_opaque_list_1(%rip), %rdx
	movq	-64(%rbp), %rax
	movq	%rdx, 8(%rax)
	movq	_TIG_iO_8HrJ_1_main_1_opaque_list_1(%rip), %rax
	movq	16(%rax), %rax
	movq	-64(%rbp), %rdx
	movq	%rdx, 8(%rax)
	movq	_TIG_iO_8HrJ_1_main_1_opaque_list_1(%rip), %rax
	movq	-64(%rbp), %rdx
	movq	%rdx, 16(%rax)
	call	rand@PLT
	movl	%eax, -100(%rbp)
	movl	$24, %edi
	call	malloc@PLT
	movq	%rax, -56(%rbp)
	movq	-56(%rbp), %rax
	movl	-100(%rbp), %edx
	movl	%edx, (%rax)
	movq	_TIG_iO_8HrJ_1_main_1_opaque_list_1(%rip), %rax
	movq	16(%rax), %rdx
	movq	-56(%rbp), %rax
	movq	%rdx, 16(%rax)
	movq	_TIG_iO_8HrJ_1_main_1_opaque_list_1(%rip), %rdx
	movq	-56(%rbp), %rax
	movq	%rdx, 8(%rax)
	movq	_TIG_iO_8HrJ_1_main_1_opaque_list_1(%rip), %rax
	movq	16(%rax), %rax
	movq	-56(%rbp), %rdx
	movq	%rdx, 8(%rax)
	movq	_TIG_iO_8HrJ_1_main_1_opaque_list_1(%rip), %rax
	movq	-56(%rbp), %rdx
	movq	%rdx, 16(%rax)
	movq	_TIG_iO_8HrJ_1_main_1_opaque_list_1(%rip), %rax
	movq	16(%rax), %rax
	movq	%rax, _TIG_iO_8HrJ_1_main_1_opaque_ptr_1(%rip)
	movq	_TIG_iO_8HrJ_1_main_1_opaque_ptr_1(%rip), %rax
	movq	%rax, _TIG_iO_8HrJ_1_main_1_opaque_ptr_2(%rip)
	nop
	nop
	cmpl	$2, -132(%rbp)
	je	.L19
	leaq	.LC2(%rip), %rax
	movq	%rax, %rdi
	call	perror@PLT
	movl	$1, %edi
	call	exit@PLT
.L19:
	movq	-144(%rbp), %rax
	addq	$8, %rax
	movq	(%rax), %rax
	movq	%rax, %rdi
	call	atoi@PLT
	movl	%eax, -96(%rbp)
	movl	-96(%rbp), %eax
	movw	%ax, -114(%rbp)
	movl	$0, %edi
	call	htonl@PLT
	movl	%eax, -92(%rbp)
	movl	-92(%rbp), %eax
	movl	%eax, -88(%rbp)
	movl	$0, %edx
	movl	$1, %esi
	movl	$2, %edi
	call	socket@PLT
	movl	%eax, -84(%rbp)
	cmpl	$-1, -84(%rbp)
	jne	.L20
	leaq	.LC3(%rip), %rax
	movq	%rax, %rdi
	call	puts@PLT
	movl	$0, %edi
	call	exit@PLT
.L20:
	movq	_TIG_iO_8HrJ_1_unix_command_1_opaque_ptr_1(%rip), %rdx
	movq	_TIG_iO_8HrJ_1_unix_command_1_opaque_ptr_2(%rip), %rax
	cmpq	%rax, %rdx
	jne	.L21
#APP
# 88 "Avgilboa_OS---EX2_}.c" 1
	.byte 0xfd,0xff,0xff
# 0 "" 2
#NO_APP
	jmp	.L22
.L21:
	leaq	-48(%rbp), %rax
	movq	$0, (%rax)
	movq	$0, 8(%rax)
	movw	$2, -48(%rbp)
	movl	-88(%rbp), %eax
	movl	%eax, -44(%rbp)
	movzwl	-114(%rbp), %eax
	movw	%ax, -46(%rbp)
	leaq	-48(%rbp), %rcx
	movl	-84(%rbp), %eax
	movl	$16, %edx
	movq	%rcx, %rsi
	movl	%eax, %edi
	call	bind@PLT
	movl	%eax, -108(%rbp)
.L22:
	cmpl	$0, -108(%rbp)
	je	.L23
	leaq	.LC4(%rip), %rax
	movq	%rax, %rdi
	call	puts@PLT
	movl	$0, %edi
	call	exit@PLT
.L23:
	movl	-84(%rbp), %eax
	movl	$5, %esi
	movl	%eax, %edi
	call	listen@PLT
	movl	%eax, -80(%rbp)
	cmpl	$0, -80(%rbp)
	je	.L24
	leaq	.LC5(%rip), %rax
	movq	%rax, %rdi
	call	puts@PLT
	movl	$0, %edi
	call	exit@PLT
.L24:
	leaq	.LC6(%rip), %rax
	movq	%rax, %rdi
	call	puts@PLT
	movl	$16, -112(%rbp)
	leaq	-112(%rbp), %rdx
	leaq	-32(%rbp), %rcx
	movl	-84(%rbp), %eax
	movq	%rcx, %rsi
	movl	%eax, %edi
	call	accept@PLT
	movl	%eax, -76(%rbp)
	cmpl	$0, -76(%rbp)
	jns	.L25
	leaq	.LC7(%rip), %rax
	movq	%rax, %rdi
	call	puts@PLT
	movl	$0, %edi
	call	exit@PLT
.L25:
	movq	-144(%rbp), %rax
	addq	$8, %rax
	movq	(%rax), %rax
	movq	%rax, %rsi
	leaq	.LC8(%rip), %rax
	movq	%rax, %rdi
	movl	$0, %eax
	call	printf@PLT
	movl	-76(%rbp), %eax
	movl	%eax, %edi
	call	func
	movl	-84(%rbp), %eax
	movl	%eax, %edi
	call	close@PLT
	movl	$0, %eax
	movq	-8(%rbp), %rdx
	subq	%fs:40, %rdx
	je	.L27
	call	__stack_chk_fail@PLT
.L27:
	leave
	.cfi_def_cfa 7, 8
	ret
	.cfi_endproc
.LFE4:
	.size	main, .-main
	.section	.rodata
	.align 8
.LC9:
	.string	"This process the unix command: %s"
	.text
	.globl	unix_command
	.type	unix_command, @function
unix_command:
.LFB6:
	.cfi_startproc
	endbr64
	pushq	%rbp
	.cfi_def_cfa_offset 16
	.cfi_offset 6, -16
	movq	%rsp, %rbp
	.cfi_def_cfa_register 6
	subq	$48, %rsp
	movq	%rdi, -40(%rbp)
#APP
# 69 "/usr/include/x86_64-linux-gnu/bits/byteswap.h" 1
	##_ANNOTATION_INITIALREGION_-TIG-iO-8HrJ-1-unix-command--18
# 0 "" 2
# 73 "/usr/include/x86_64-linux-gnu/bits/byteswap.h" 1
	##_ANNOTATION_ATOMICREGION_-TIG-iO-8HrJ-1-unix-command--17
# 0 "" 2
#NO_APP
	movl	$24, %edi
	call	malloc@PLT
	movq	%rax, -24(%rbp)
	movq	-24(%rbp), %rax
	movq	-24(%rbp), %rdx
	movq	%rdx, 8(%rax)
	movq	-24(%rbp), %rax
	movq	-24(%rbp), %rdx
	movq	%rdx, (%rax)
	movq	-24(%rbp), %rax
	movq	%rax, _TIG_iO_8HrJ_1_unix_command_1_opaque_list_1(%rip)
	call	rand@PLT
	movl	%eax, -32(%rbp)
	movl	$24, %edi
	call	malloc@PLT
	movq	%rax, -16(%rbp)
	movq	-16(%rbp), %rax
	movl	$0, 16(%rax)
	movq	_TIG_iO_8HrJ_1_unix_command_1_opaque_list_1(%rip), %rax
	movq	8(%rax), %rdx
	movq	-16(%rbp), %rax
	movq	%rdx, 8(%rax)
	movq	_TIG_iO_8HrJ_1_unix_command_1_opaque_list_1(%rip), %rdx
	movq	-16(%rbp), %rax
	movq	%rdx, (%rax)
	movq	_TIG_iO_8HrJ_1_unix_command_1_opaque_list_1(%rip), %rax
	movq	8(%rax), %rax
	movq	-16(%rbp), %rdx
	movq	%rdx, (%rax)
	movq	_TIG_iO_8HrJ_1_unix_command_1_opaque_list_1(%rip), %rax
	movq	-16(%rbp), %rdx
	movq	%rdx, 8(%rax)
	call	rand@PLT
	movl	%eax, -28(%rbp)
	movl	$24, %edi
	call	malloc@PLT
	movq	%rax, -8(%rbp)
	movq	-8(%rbp), %rax
	movl	-28(%rbp), %edx
	movl	%edx, 16(%rax)
	movq	_TIG_iO_8HrJ_1_unix_command_1_opaque_list_1(%rip), %rax
	movq	8(%rax), %rdx
	movq	-8(%rbp), %rax
	movq	%rdx, 8(%rax)
	movq	_TIG_iO_8HrJ_1_unix_command_1_opaque_list_1(%rip), %rdx
	movq	-8(%rbp), %rax
	movq	%rdx, (%rax)
	movq	_TIG_iO_8HrJ_1_unix_command_1_opaque_list_1(%rip), %rax
	movq	8(%rax), %rax
	movq	-8(%rbp), %rdx
	movq	%rdx, (%rax)
	movq	_TIG_iO_8HrJ_1_unix_command_1_opaque_list_1(%rip), %rax
	movq	-8(%rbp), %rdx
	movq	%rdx, 8(%rax)
	movq	_TIG_iO_8HrJ_1_unix_command_1_opaque_list_1(%rip), %rax
	movq	8(%rax), %rax
	movq	%rax, _TIG_iO_8HrJ_1_unix_command_1_opaque_ptr_1(%rip)
	movq	_TIG_iO_8HrJ_1_unix_command_1_opaque_ptr_1(%rip), %rax
	movq	%rax, _TIG_iO_8HrJ_1_unix_command_1_opaque_ptr_2(%rip)
	movq	_TIG_iO_8HrJ_1_unix_command_1_opaque_ptr_2(%rip), %rax
	movq	8(%rax), %rax
	movq	%rax, _TIG_iO_8HrJ_1_unix_command_1_opaque_ptr_2(%rip)
	nop
	nop
	movq	-40(%rbp), %rax
	movq	%rax, %rsi
	leaq	.LC9(%rip), %rax
	movq	%rax, %rdi
	movl	$0, %eax
	call	printf@PLT
	movq	_TIG_iO_8HrJ_1_unix_command_1_opaque_ptr_1(%rip), %rdx
	movq	_TIG_iO_8HrJ_1_unix_command_1_opaque_ptr_2(%rip), %rax
	cmpq	%rax, %rdx
	jne	.L31
	movq	-40(%rbp), %rax
	movq	%rax, %rdi
	call	unix_command
	nop
.L31:
	nop
	leave
	.cfi_def_cfa 7, 8
	ret
	.cfi_endproc
.LFE6:
	.size	unix_command, .-unix_command
	.ident	"GCC: (Ubuntu 11.4.0-1ubuntu1~22.04) 11.4.0"
	.section	.note.GNU-stack,"",@progbits
	.section	.note.gnu.property,"a"
	.align 8
	.long	1f - 0f
	.long	4f - 1f
	.long	5
0:
	.string	"GNU"
1:
	.align 8
	.long	0xc0000002
	.long	3f - 2f
2:
	.long	0x3
3:
	.align 8
4:
