	.file	"gaurshivangi_k-core_kcore_opaque.c"
	.text
	.globl	_TIG_iO_sjtM_1_remove_node_1_opaque_list_2
	.bss
	.align 8
	.type	_TIG_iO_sjtM_1_remove_node_1_opaque_list_2, @object
	.size	_TIG_iO_sjtM_1_remove_node_1_opaque_list_2, 8
_TIG_iO_sjtM_1_remove_node_1_opaque_list_2:
	.zero	8
	.globl	_TIG_iO_sjtM_1___uint32_identity_1_opaque_ptr_1
	.align 8
	.type	_TIG_iO_sjtM_1___uint32_identity_1_opaque_ptr_1, @object
	.size	_TIG_iO_sjtM_1___uint32_identity_1_opaque_ptr_1, 8
_TIG_iO_sjtM_1___uint32_identity_1_opaque_ptr_1:
	.zero	8
	.globl	_TIG_iO_sjtM_1___uint16_identity_1_opaque_ptr_2
	.align 8
	.type	_TIG_iO_sjtM_1___uint16_identity_1_opaque_ptr_2, @object
	.size	_TIG_iO_sjtM_1___uint16_identity_1_opaque_ptr_2, 8
_TIG_iO_sjtM_1___uint16_identity_1_opaque_ptr_2:
	.zero	8
	.globl	_TIG_iO_sjtM_1___uint16_identity_1_opaque_ptr_1
	.align 8
	.type	_TIG_iO_sjtM_1___uint16_identity_1_opaque_ptr_1, @object
	.size	_TIG_iO_sjtM_1___uint16_identity_1_opaque_ptr_1, 8
_TIG_iO_sjtM_1___uint16_identity_1_opaque_ptr_1:
	.zero	8
	.globl	_TIG_iO_sjtM_1_degree_1_opaque_list_2
	.align 8
	.type	_TIG_iO_sjtM_1_degree_1_opaque_list_2, @object
	.size	_TIG_iO_sjtM_1_degree_1_opaque_list_2, 8
_TIG_iO_sjtM_1_degree_1_opaque_list_2:
	.zero	8
	.globl	_TIG_iO_sjtM_1___bswap_32_1_opaque_ptr_2
	.align 8
	.type	_TIG_iO_sjtM_1___bswap_32_1_opaque_ptr_2, @object
	.size	_TIG_iO_sjtM_1___bswap_32_1_opaque_ptr_2, 8
_TIG_iO_sjtM_1___bswap_32_1_opaque_ptr_2:
	.zero	8
	.globl	_TIG_iO_sjtM_1___uint32_identity_1_opaque_ptr_2
	.align 8
	.type	_TIG_iO_sjtM_1___uint32_identity_1_opaque_ptr_2, @object
	.size	_TIG_iO_sjtM_1___uint32_identity_1_opaque_ptr_2, 8
_TIG_iO_sjtM_1___uint32_identity_1_opaque_ptr_2:
	.zero	8
	.globl	_TIG_iO_sjtM_1___uint64_identity_1_opaque_list_2
	.align 8
	.type	_TIG_iO_sjtM_1___uint64_identity_1_opaque_list_2, @object
	.size	_TIG_iO_sjtM_1___uint64_identity_1_opaque_list_2, 8
_TIG_iO_sjtM_1___uint64_identity_1_opaque_list_2:
	.zero	8
	.globl	_TIG_iO_sjtM_1_remove_node_1_opaque_ptr_1
	.align 8
	.type	_TIG_iO_sjtM_1_remove_node_1_opaque_ptr_1, @object
	.size	_TIG_iO_sjtM_1_remove_node_1_opaque_ptr_1, 8
_TIG_iO_sjtM_1_remove_node_1_opaque_ptr_1:
	.zero	8
	.globl	_TIG_iO_sjtM_1___uint16_identity_1_opaque_list_1
	.align 8
	.type	_TIG_iO_sjtM_1___uint16_identity_1_opaque_list_1, @object
	.size	_TIG_iO_sjtM_1___uint16_identity_1_opaque_list_1, 8
_TIG_iO_sjtM_1___uint16_identity_1_opaque_list_1:
	.zero	8
	.globl	_TIG_iO_sjtM_1___uint64_identity_1_opaque_ptr_2
	.align 8
	.type	_TIG_iO_sjtM_1___uint64_identity_1_opaque_ptr_2, @object
	.size	_TIG_iO_sjtM_1___uint64_identity_1_opaque_ptr_2, 8
_TIG_iO_sjtM_1___uint64_identity_1_opaque_ptr_2:
	.zero	8
	.globl	_TIG_iO_sjtM_1___uint64_identity_1_opaque_list_1
	.align 8
	.type	_TIG_iO_sjtM_1___uint64_identity_1_opaque_list_1, @object
	.size	_TIG_iO_sjtM_1___uint64_identity_1_opaque_list_1, 8
_TIG_iO_sjtM_1___uint64_identity_1_opaque_list_1:
	.zero	8
	.globl	_TIG_iO_sjtM_1___bswap_32_1_opaque_ptr_1
	.align 8
	.type	_TIG_iO_sjtM_1___bswap_32_1_opaque_ptr_1, @object
	.size	_TIG_iO_sjtM_1___bswap_32_1_opaque_ptr_1, 8
_TIG_iO_sjtM_1___bswap_32_1_opaque_ptr_1:
	.zero	8
	.globl	_TIG_iO_sjtM_1___bswap_16_1_opaque_ptr_2
	.align 8
	.type	_TIG_iO_sjtM_1___bswap_16_1_opaque_ptr_2, @object
	.size	_TIG_iO_sjtM_1___bswap_16_1_opaque_ptr_2, 8
_TIG_iO_sjtM_1___bswap_16_1_opaque_ptr_2:
	.zero	8
	.globl	_TIG_iO_sjtM_1___uint32_identity_1_opaque_list_1
	.align 8
	.type	_TIG_iO_sjtM_1___uint32_identity_1_opaque_list_1, @object
	.size	_TIG_iO_sjtM_1___uint32_identity_1_opaque_list_1, 8
_TIG_iO_sjtM_1___uint32_identity_1_opaque_list_1:
	.zero	8
	.globl	_TIG_iO_sjtM_1_main_1_opaque_list_1
	.align 8
	.type	_TIG_iO_sjtM_1_main_1_opaque_list_1, @object
	.size	_TIG_iO_sjtM_1_main_1_opaque_list_1, 8
_TIG_iO_sjtM_1_main_1_opaque_list_1:
	.zero	8
	.globl	_TIG_iO_sjtM_1___bswap_64_1_opaque_ptr_1
	.align 8
	.type	_TIG_iO_sjtM_1___bswap_64_1_opaque_ptr_1, @object
	.size	_TIG_iO_sjtM_1___bswap_64_1_opaque_ptr_1, 8
_TIG_iO_sjtM_1___bswap_64_1_opaque_ptr_1:
	.zero	8
	.globl	_TIG_iO_sjtM_1___bswap_16_1_opaque_ptr_1
	.align 8
	.type	_TIG_iO_sjtM_1___bswap_16_1_opaque_ptr_1, @object
	.size	_TIG_iO_sjtM_1___bswap_16_1_opaque_ptr_1, 8
_TIG_iO_sjtM_1___bswap_16_1_opaque_ptr_1:
	.zero	8
	.globl	_TIG_iO_sjtM_1_remove_node_1_opaque_ptr_2
	.align 8
	.type	_TIG_iO_sjtM_1_remove_node_1_opaque_ptr_2, @object
	.size	_TIG_iO_sjtM_1_remove_node_1_opaque_ptr_2, 8
_TIG_iO_sjtM_1_remove_node_1_opaque_ptr_2:
	.zero	8
	.globl	_TIG_iO_sjtM_1_degree_1_opaque_ptr_1
	.align 8
	.type	_TIG_iO_sjtM_1_degree_1_opaque_ptr_1, @object
	.size	_TIG_iO_sjtM_1_degree_1_opaque_ptr_1, 8
_TIG_iO_sjtM_1_degree_1_opaque_ptr_1:
	.zero	8
	.globl	_TIG_iO_sjtM_1_main_1_opaque_ptr_1
	.align 8
	.type	_TIG_iO_sjtM_1_main_1_opaque_ptr_1, @object
	.size	_TIG_iO_sjtM_1_main_1_opaque_ptr_1, 8
_TIG_iO_sjtM_1_main_1_opaque_ptr_1:
	.zero	8
	.globl	_TIG_iO_sjtM_1___bswap_64_1_opaque_list_2
	.align 8
	.type	_TIG_iO_sjtM_1___bswap_64_1_opaque_list_2, @object
	.size	_TIG_iO_sjtM_1___bswap_64_1_opaque_list_2, 8
_TIG_iO_sjtM_1___bswap_64_1_opaque_list_2:
	.zero	8
	.globl	_TIG_iO_sjtM_1_main_1_opaque_ptr_2
	.align 8
	.type	_TIG_iO_sjtM_1_main_1_opaque_ptr_2, @object
	.size	_TIG_iO_sjtM_1_main_1_opaque_ptr_2, 8
_TIG_iO_sjtM_1_main_1_opaque_ptr_2:
	.zero	8
	.globl	_TIG_iO_sjtM_1_degree_1_opaque_ptr_2
	.align 8
	.type	_TIG_iO_sjtM_1_degree_1_opaque_ptr_2, @object
	.size	_TIG_iO_sjtM_1_degree_1_opaque_ptr_2, 8
_TIG_iO_sjtM_1_degree_1_opaque_ptr_2:
	.zero	8
	.globl	_TIG_iO_sjtM_1___uint32_identity_1_opaque_list_2
	.align 8
	.type	_TIG_iO_sjtM_1___uint32_identity_1_opaque_list_2, @object
	.size	_TIG_iO_sjtM_1___uint32_identity_1_opaque_list_2, 8
_TIG_iO_sjtM_1___uint32_identity_1_opaque_list_2:
	.zero	8
	.globl	_TIG_iO_sjtM_1___uint16_identity_1_opaque_list_2
	.align 8
	.type	_TIG_iO_sjtM_1___uint16_identity_1_opaque_list_2, @object
	.size	_TIG_iO_sjtM_1___uint16_identity_1_opaque_list_2, 8
_TIG_iO_sjtM_1___uint16_identity_1_opaque_list_2:
	.zero	8
	.globl	_TIG_iO_sjtM_1___bswap_32_1_opaque_list_2
	.align 8
	.type	_TIG_iO_sjtM_1___bswap_32_1_opaque_list_2, @object
	.size	_TIG_iO_sjtM_1___bswap_32_1_opaque_list_2, 8
_TIG_iO_sjtM_1___bswap_32_1_opaque_list_2:
	.zero	8
	.globl	_TIG_iO_sjtM_1___bswap_16_1_opaque_list_2
	.align 8
	.type	_TIG_iO_sjtM_1___bswap_16_1_opaque_list_2, @object
	.size	_TIG_iO_sjtM_1___bswap_16_1_opaque_list_2, 8
_TIG_iO_sjtM_1___bswap_16_1_opaque_list_2:
	.zero	8
	.globl	_TIG_IZ_sjtM_argc
	.align 4
	.type	_TIG_IZ_sjtM_argc, @object
	.size	_TIG_IZ_sjtM_argc, 4
_TIG_IZ_sjtM_argc:
	.zero	4
	.globl	_TIG_iO_sjtM_1_degree_1_opaque_list_1
	.align 8
	.type	_TIG_iO_sjtM_1_degree_1_opaque_list_1, @object
	.size	_TIG_iO_sjtM_1_degree_1_opaque_list_1, 8
_TIG_iO_sjtM_1_degree_1_opaque_list_1:
	.zero	8
	.globl	_TIG_iO_sjtM_1___uint64_identity_1_opaque_ptr_1
	.align 8
	.type	_TIG_iO_sjtM_1___uint64_identity_1_opaque_ptr_1, @object
	.size	_TIG_iO_sjtM_1___uint64_identity_1_opaque_ptr_1, 8
_TIG_iO_sjtM_1___uint64_identity_1_opaque_ptr_1:
	.zero	8
	.globl	_TIG_IZ_sjtM_envp
	.align 8
	.type	_TIG_IZ_sjtM_envp, @object
	.size	_TIG_IZ_sjtM_envp, 8
_TIG_IZ_sjtM_envp:
	.zero	8
	.globl	_TIG_IZ_sjtM_argv
	.align 8
	.type	_TIG_IZ_sjtM_argv, @object
	.size	_TIG_IZ_sjtM_argv, 8
_TIG_IZ_sjtM_argv:
	.zero	8
	.globl	_TIG_iO_sjtM_1___bswap_32_1_opaque_list_1
	.align 8
	.type	_TIG_iO_sjtM_1___bswap_32_1_opaque_list_1, @object
	.size	_TIG_iO_sjtM_1___bswap_32_1_opaque_list_1, 8
_TIG_iO_sjtM_1___bswap_32_1_opaque_list_1:
	.zero	8
	.globl	_TIG_iO_sjtM_1_main_1_opaque_list_2
	.align 8
	.type	_TIG_iO_sjtM_1_main_1_opaque_list_2, @object
	.size	_TIG_iO_sjtM_1_main_1_opaque_list_2, 8
_TIG_iO_sjtM_1_main_1_opaque_list_2:
	.zero	8
	.globl	_TIG_iO_sjtM_1___bswap_16_1_opaque_list_1
	.align 8
	.type	_TIG_iO_sjtM_1___bswap_16_1_opaque_list_1, @object
	.size	_TIG_iO_sjtM_1___bswap_16_1_opaque_list_1, 8
_TIG_iO_sjtM_1___bswap_16_1_opaque_list_1:
	.zero	8
	.globl	_TIG_iO_sjtM_1_remove_node_1_opaque_list_1
	.align 8
	.type	_TIG_iO_sjtM_1_remove_node_1_opaque_list_1, @object
	.size	_TIG_iO_sjtM_1_remove_node_1_opaque_list_1, 8
_TIG_iO_sjtM_1_remove_node_1_opaque_list_1:
	.zero	8
	.globl	_TIG_iO_sjtM_1___bswap_64_1_opaque_ptr_2
	.align 8
	.type	_TIG_iO_sjtM_1___bswap_64_1_opaque_ptr_2, @object
	.size	_TIG_iO_sjtM_1___bswap_64_1_opaque_ptr_2, 8
_TIG_iO_sjtM_1___bswap_64_1_opaque_ptr_2:
	.zero	8
	.globl	_TIG_iO_sjtM_1___bswap_64_1_opaque_list_1
	.align 8
	.type	_TIG_iO_sjtM_1___bswap_64_1_opaque_list_1, @object
	.size	_TIG_iO_sjtM_1___bswap_64_1_opaque_list_1, 8
_TIG_iO_sjtM_1___bswap_64_1_opaque_list_1:
	.zero	8
	.section	.rodata
.LC0:
	.string	"r"
.LC1:
	.string	"kcoregraph"
.LC2:
	.string	"%d"
.LC3:
	.string	"enter core size: "
.LC4:
	.string	"%d "
	.text
	.globl	main
	.type	main, @function
main:
.LFB0:
	.cfi_startproc
	endbr64
	pushq	%rbp
	.cfi_def_cfa_offset 16
	.cfi_offset 6, -16
	movq	%rsp, %rbp
	.cfi_def_cfa_register 6
	subq	$176, %rsp
	movl	%edi, -148(%rbp)
	movq	%rsi, -160(%rbp)
	movq	%rdx, -168(%rbp)
	movq	%fs:40, %rax
	movq	%rax, -8(%rbp)
	xorl	%eax, %eax
	movq	$0, _TIG_IZ_sjtM_envp(%rip)
	nop
.L2:
	movq	$0, _TIG_IZ_sjtM_argv(%rip)
	nop
.L3:
	movl	$0, _TIG_IZ_sjtM_argc(%rip)
	nop
	nop
.L4:
.L5:
#APP
# 122 "/usr/include/stdlib.h" 1
	##_ANNOTATION_INITIALREGION_-TIG-IZ-sjtM--0
# 0 "" 2
#NO_APP
	movl	-148(%rbp), %eax
	movl	%eax, _TIG_IZ_sjtM_argc(%rip)
	movq	-160(%rbp), %rax
	movq	%rax, _TIG_IZ_sjtM_argv(%rip)
	movq	-168(%rbp), %rax
	movq	%rax, _TIG_IZ_sjtM_envp(%rip)
#APP
# 129 "/usr/include/stdlib.h" 1
	##_ANNOTATION_ATOMICREGION_-TIG-iO-sjtM-1-main--15
# 0 "" 2
#NO_APP
	movl	$24, %edi
	call	malloc@PLT
	movq	%rax, -80(%rbp)
	movq	-80(%rbp), %rax
	movq	-80(%rbp), %rdx
	movq	%rdx, 16(%rax)
	movq	-80(%rbp), %rax
	movq	-80(%rbp), %rdx
	movq	%rdx, 8(%rax)
	movq	-80(%rbp), %rax
	movq	%rax, _TIG_iO_sjtM_1_main_1_opaque_list_1(%rip)
	call	rand@PLT
	movl	%eax, -104(%rbp)
	movl	$24, %edi
	call	malloc@PLT
	movq	%rax, -72(%rbp)
	movq	-72(%rbp), %rax
	movl	$0, (%rax)
	movq	_TIG_iO_sjtM_1_main_1_opaque_list_1(%rip), %rax
	movq	16(%rax), %rdx
	movq	-72(%rbp), %rax
	movq	%rdx, 16(%rax)
	movq	_TIG_iO_sjtM_1_main_1_opaque_list_1(%rip), %rdx
	movq	-72(%rbp), %rax
	movq	%rdx, 8(%rax)
	movq	_TIG_iO_sjtM_1_main_1_opaque_list_1(%rip), %rax
	movq	16(%rax), %rax
	movq	-72(%rbp), %rdx
	movq	%rdx, 8(%rax)
	movq	_TIG_iO_sjtM_1_main_1_opaque_list_1(%rip), %rax
	movq	-72(%rbp), %rdx
	movq	%rdx, 16(%rax)
	call	rand@PLT
	movl	%eax, -100(%rbp)
	movl	$24, %edi
	call	malloc@PLT
	movq	%rax, -64(%rbp)
	movq	-64(%rbp), %rax
	movl	-100(%rbp), %edx
	movl	%edx, (%rax)
	movq	_TIG_iO_sjtM_1_main_1_opaque_list_1(%rip), %rax
	movq	16(%rax), %rdx
	movq	-64(%rbp), %rax
	movq	%rdx, 16(%rax)
	movq	_TIG_iO_sjtM_1_main_1_opaque_list_1(%rip), %rdx
	movq	-64(%rbp), %rax
	movq	%rdx, 8(%rax)
	movq	_TIG_iO_sjtM_1_main_1_opaque_list_1(%rip), %rax
	movq	16(%rax), %rax
	movq	-64(%rbp), %rdx
	movq	%rdx, 8(%rax)
	movq	_TIG_iO_sjtM_1_main_1_opaque_list_1(%rip), %rax
	movq	-64(%rbp), %rdx
	movq	%rdx, 16(%rax)
	movq	_TIG_iO_sjtM_1_main_1_opaque_list_1(%rip), %rax
	movq	16(%rax), %rax
	movq	%rax, _TIG_iO_sjtM_1_main_1_opaque_ptr_1(%rip)
	movq	_TIG_iO_sjtM_1_main_1_opaque_ptr_1(%rip), %rax
	movq	%rax, _TIG_iO_sjtM_1_main_1_opaque_ptr_2(%rip)
	nop
	nop
	leaq	.LC0(%rip), %rax
	movq	%rax, %rsi
	leaq	.LC1(%rip), %rax
	movq	%rax, %rdi
	call	fopen@PLT
	movq	%rax, -56(%rbp)
	movq	-56(%rbp), %rax
	movq	%rax, -48(%rbp)
	leaq	-136(%rbp), %rdx
	movq	-48(%rbp), %rax
	leaq	.LC2(%rip), %rcx
	movq	%rcx, %rsi
	movq	%rax, %rdi
	movl	$0, %eax
	call	__isoc99_fscanf@PLT
	leaq	-140(%rbp), %rdx
	movq	-48(%rbp), %rax
	leaq	.LC2(%rip), %rcx
	movq	%rcx, %rsi
	movq	%rax, %rdi
	movl	$0, %eax
	call	__isoc99_fscanf@PLT
	movl	-140(%rbp), %eax
	addl	%eax, %eax
	movl	%eax, -140(%rbp)
	movl	-136(%rbp), %eax
	addl	$2, %eax
	cltq
	salq	$2, %rax
	movq	%rax, %rdi
	call	malloc@PLT
	movq	%rax, -40(%rbp)
	movq	-40(%rbp), %rax
	movq	%rax, -32(%rbp)
	movl	-140(%rbp), %eax
	cltq
	salq	$2, %rax
	movq	%rax, %rdi
	call	malloc@PLT
	movq	%rax, -24(%rbp)
	movq	-24(%rbp), %rax
	movq	%rax, -16(%rbp)
	movl	$0, -128(%rbp)
	jmp	.L6
.L7:
	movl	-128(%rbp), %eax
	cltq
	leaq	0(,%rax,4), %rdx
	movq	-32(%rbp), %rax
	addq	%rax, %rdx
	movq	-48(%rbp), %rax
	leaq	.LC2(%rip), %rcx
	movq	%rcx, %rsi
	movq	%rax, %rdi
	movl	$0, %eax
	call	__isoc99_fscanf@PLT
	addl	$1, -128(%rbp)
.L6:
	movl	-136(%rbp), %eax
	cmpl	%eax, -128(%rbp)
	jl	.L7
	movl	$0, -124(%rbp)
	jmp	.L8
.L9:
	movl	-124(%rbp), %eax
	cltq
	leaq	0(,%rax,4), %rdx
	movq	-16(%rbp), %rax
	addq	%rax, %rdx
	movq	-48(%rbp), %rax
	leaq	.LC2(%rip), %rcx
	movq	%rcx, %rsi
	movq	%rax, %rdi
	movl	$0, %eax
	call	__isoc99_fscanf@PLT
	addl	$1, -124(%rbp)
.L8:
	movl	-140(%rbp), %eax
	cmpl	%eax, -124(%rbp)
	jl	.L9
	movl	-136(%rbp), %eax
	cltq
	leaq	0(,%rax,4), %rdx
	movq	-32(%rbp), %rax
	addq	%rax, %rdx
	movl	-140(%rbp), %eax
	movl	%eax, (%rdx)
	leaq	.LC3(%rip), %rax
	movq	%rax, %rdi
	movl	$0, %eax
	call	printf@PLT
	leaq	-132(%rbp), %rax
	movq	%rax, %rsi
	leaq	.LC2(%rip), %rax
	movq	%rax, %rdi
	movl	$0, %eax
	call	__isoc99_scanf@PLT
	movl	$1, -120(%rbp)
	jmp	.L10
.L22:
	movl	$0, -120(%rbp)
	movl	$0, -116(%rbp)
.L21:
	movq	_TIG_iO_sjtM_1_remove_node_1_opaque_ptr_1(%rip), %rdx
	movq	_TIG_iO_sjtM_1_remove_node_1_opaque_ptr_2(%rip), %rax
	cmpq	%rax, %rdx
	je	.L11
	movl	-136(%rbp), %eax
	cmpl	%eax, -116(%rbp)
	jl	.L12
	jmp	.L10
.L11:
#APP
# 93 "gaurshivangi_k-core_kcore.c" 1
	.byte 0xff,0x75,0x9b,0xe9,0xc5,0x3,0x0,0xc7
# 0 "" 2
#NO_APP
.L12:
	movl	-116(%rbp), %edx
	movq	-32(%rbp), %rax
	movl	%edx, %esi
	movq	%rax, %rdi
	call	degree
	movl	%eax, -92(%rbp)
	movl	-132(%rbp), %eax
	cmpl	%eax, -92(%rbp)
	jge	.L13
	movl	-116(%rbp), %eax
	cltq
	leaq	0(,%rax,4), %rdx
	movq	-32(%rbp), %rax
	addq	%rdx, %rax
	movl	(%rax), %eax
	cltq
	leaq	0(,%rax,4), %rdx
	movq	-16(%rbp), %rax
	addq	%rdx, %rax
	movl	(%rax), %eax
	cmpl	$-1, %eax
	je	.L14
	movl	$1, -120(%rbp)
	movl	-116(%rbp), %eax
	cltq
	leaq	0(,%rax,4), %rdx
	movq	-32(%rbp), %rax
	addq	%rdx, %rax
	movl	(%rax), %eax
	movl	%eax, -112(%rbp)
	jmp	.L15
.L19:
	movl	-112(%rbp), %eax
	cltq
	leaq	0(,%rax,4), %rdx
	movq	-16(%rbp), %rax
	addq	%rdx, %rax
	movl	(%rax), %eax
	cmpl	$-1, %eax
	je	.L28
	movl	-112(%rbp), %eax
	cltq
	leaq	0(,%rax,4), %rdx
	movq	-16(%rbp), %rax
	addq	%rdx, %rax
	movl	(%rax), %eax
	movl	%eax, -88(%rbp)
	movl	-112(%rbp), %eax
	cltq
	leaq	0(,%rax,4), %rdx
	movq	-16(%rbp), %rax
	addq	%rdx, %rax
	movl	$-1, (%rax)
	movl	-116(%rbp), %r8d
	leaq	-136(%rbp), %rdi
	leaq	-140(%rbp), %rcx
	movl	-88(%rbp), %edx
	movq	-16(%rbp), %rsi
	movq	-32(%rbp), %rax
	movl	%r8d, %r9d
	movq	%rdi, %r8
	movq	%rax, %rdi
	call	remove_node
	movl	-88(%rbp), %edx
	movq	-32(%rbp), %rax
	movl	%edx, %esi
	movq	%rax, %rdi
	call	degree
	movl	%eax, -84(%rbp)
	movl	-132(%rbp), %eax
	cmpl	%eax, -84(%rbp)
	jge	.L18
	movl	$1, -120(%rbp)
.L18:
	addl	$1, -112(%rbp)
.L15:
	movl	-116(%rbp), %eax
	cltq
	addq	$1, %rax
	leaq	0(,%rax,4), %rdx
	movq	-32(%rbp), %rax
	addq	%rdx, %rax
	movl	(%rax), %eax
	cmpl	%eax, -112(%rbp)
	jl	.L19
	jmp	.L20
.L14:
	movl	$0, -120(%rbp)
	jmp	.L20
.L13:
	movl	$0, -120(%rbp)
	jmp	.L20
.L28:
	nop
.L20:
	addl	$1, -116(%rbp)
	jmp	.L21
.L10:
	cmpl	$0, -120(%rbp)
	jne	.L22
	movl	$0, -108(%rbp)
	jmp	.L23
.L25:
	movl	-108(%rbp), %edx
	movq	-32(%rbp), %rax
	movl	%edx, %esi
	movq	%rax, %rdi
	call	degree
	movl	%eax, -96(%rbp)
	movl	-132(%rbp), %eax
	cmpl	%eax, -96(%rbp)
	jl	.L24
	movl	-108(%rbp), %eax
	movl	%eax, %esi
	leaq	.LC4(%rip), %rax
	movq	%rax, %rdi
	movl	$0, %eax
	call	printf@PLT
.L24:
	addl	$1, -108(%rbp)
.L23:
	movl	-136(%rbp), %eax
	cmpl	%eax, -108(%rbp)
	jl	.L25
	movl	$0, %eax
	movq	-8(%rbp), %rdx
	subq	%fs:40, %rdx
	je	.L27
	call	__stack_chk_fail@PLT
.L27:
	leave
	.cfi_def_cfa 7, 8
	ret
	.cfi_endproc
.LFE0:
	.size	main, .-main
	.globl	degree
	.type	degree, @function
degree:
.LFB2:
	.cfi_startproc
	endbr64
	pushq	%rbp
	.cfi_def_cfa_offset 16
	.cfi_offset 6, -16
	movq	%rsp, %rbp
	.cfi_def_cfa_register 6
	subq	$80, %rsp
	movq	%rdi, -72(%rbp)
	movl	%esi, -76(%rbp)
#APP
# 73 "/usr/include/x86_64-linux-gnu/bits/byteswap.h" 1
	##_ANNOTATION_INITIALREGION_-TIG-iO-sjtM-1-degree--14
# 0 "" 2
# 77 "/usr/include/x86_64-linux-gnu/bits/byteswap.h" 1
	##_ANNOTATION_ATOMICREGION_-TIG-iO-sjtM-1-degree--13
# 0 "" 2
#NO_APP
	movl	$24, %edi
	call	malloc@PLT
	movq	%rax, -40(%rbp)
	movq	-40(%rbp), %rax
	movq	-40(%rbp), %rdx
	movq	%rdx, (%rax)
	movq	-40(%rbp), %rax
	movq	-40(%rbp), %rdx
	movq	%rdx, 8(%rax)
	movq	-40(%rbp), %rax
	movq	%rax, _TIG_iO_sjtM_1_degree_1_opaque_list_1(%rip)
	call	rand@PLT
	movl	%eax, -56(%rbp)
	movl	$24, %edi
	call	malloc@PLT
	movq	%rax, -32(%rbp)
	movq	-32(%rbp), %rax
	movl	$0, 16(%rax)
	movq	_TIG_iO_sjtM_1_degree_1_opaque_list_1(%rip), %rax
	movq	(%rax), %rdx
	movq	-32(%rbp), %rax
	movq	%rdx, (%rax)
	movq	_TIG_iO_sjtM_1_degree_1_opaque_list_1(%rip), %rdx
	movq	-32(%rbp), %rax
	movq	%rdx, 8(%rax)
	movq	_TIG_iO_sjtM_1_degree_1_opaque_list_1(%rip), %rax
	movq	(%rax), %rax
	movq	-32(%rbp), %rdx
	movq	%rdx, 8(%rax)
	movq	_TIG_iO_sjtM_1_degree_1_opaque_list_1(%rip), %rax
	movq	-32(%rbp), %rdx
	movq	%rdx, (%rax)
	call	rand@PLT
	movl	%eax, -52(%rbp)
	movl	$24, %edi
	call	malloc@PLT
	movq	%rax, -24(%rbp)
	movq	-24(%rbp), %rax
	movl	-52(%rbp), %edx
	movl	%edx, 16(%rax)
	movq	_TIG_iO_sjtM_1_degree_1_opaque_list_1(%rip), %rax
	movq	(%rax), %rdx
	movq	-24(%rbp), %rax
	movq	%rdx, (%rax)
	movq	_TIG_iO_sjtM_1_degree_1_opaque_list_1(%rip), %rdx
	movq	-24(%rbp), %rax
	movq	%rdx, 8(%rax)
	movq	_TIG_iO_sjtM_1_degree_1_opaque_list_1(%rip), %rax
	movq	(%rax), %rax
	movq	-24(%rbp), %rdx
	movq	%rdx, 8(%rax)
	movq	_TIG_iO_sjtM_1_degree_1_opaque_list_1(%rip), %rax
	movq	-24(%rbp), %rdx
	movq	%rdx, (%rax)
	call	rand@PLT
	movl	%eax, -48(%rbp)
	movl	$24, %edi
	call	malloc@PLT
	movq	%rax, -16(%rbp)
	movl	-48(%rbp), %eax
	leal	(%rax,%rax), %edx
	movq	-16(%rbp), %rax
	movl	%edx, 16(%rax)
	movq	_TIG_iO_sjtM_1_degree_1_opaque_list_1(%rip), %rax
	movq	(%rax), %rdx
	movq	-16(%rbp), %rax
	movq	%rdx, (%rax)
	movq	_TIG_iO_sjtM_1_degree_1_opaque_list_1(%rip), %rdx
	movq	-16(%rbp), %rax
	movq	%rdx, 8(%rax)
	movq	_TIG_iO_sjtM_1_degree_1_opaque_list_1(%rip), %rax
	movq	(%rax), %rax
	movq	-16(%rbp), %rdx
	movq	%rdx, 8(%rax)
	movq	_TIG_iO_sjtM_1_degree_1_opaque_list_1(%rip), %rax
	movq	-16(%rbp), %rdx
	movq	%rdx, (%rax)
	call	rand@PLT
	movl	%eax, -44(%rbp)
	movl	$24, %edi
	call	malloc@PLT
	movq	%rax, -8(%rbp)
	movl	-44(%rbp), %edx
	movl	%edx, %eax
	addl	%eax, %eax
	addl	%eax, %edx
	movq	-8(%rbp), %rax
	movl	%edx, 16(%rax)
	movq	_TIG_iO_sjtM_1_degree_1_opaque_list_1(%rip), %rax
	movq	(%rax), %rdx
	movq	-8(%rbp), %rax
	movq	%rdx, (%rax)
	movq	_TIG_iO_sjtM_1_degree_1_opaque_list_1(%rip), %rdx
	movq	-8(%rbp), %rax
	movq	%rdx, 8(%rax)
	movq	_TIG_iO_sjtM_1_degree_1_opaque_list_1(%rip), %rax
	movq	(%rax), %rax
	movq	-8(%rbp), %rdx
	movq	%rdx, 8(%rax)
	movq	_TIG_iO_sjtM_1_degree_1_opaque_list_1(%rip), %rax
	movq	-8(%rbp), %rdx
	movq	%rdx, (%rax)
	movq	_TIG_iO_sjtM_1_degree_1_opaque_list_1(%rip), %rax
	movq	(%rax), %rax
	movq	%rax, _TIG_iO_sjtM_1_degree_1_opaque_ptr_1(%rip)
	movq	_TIG_iO_sjtM_1_degree_1_opaque_ptr_1(%rip), %rax
	movq	%rax, _TIG_iO_sjtM_1_degree_1_opaque_ptr_2(%rip)
	movq	_TIG_iO_sjtM_1_degree_1_opaque_ptr_2(%rip), %rax
	movq	(%rax), %rax
	movq	%rax, _TIG_iO_sjtM_1_degree_1_opaque_ptr_2(%rip)
	nop
	nop
	movq	_TIG_iO_sjtM_1_remove_node_1_opaque_ptr_1(%rip), %rdx
	movq	_TIG_iO_sjtM_1_remove_node_1_opaque_ptr_2(%rip), %rax
	cmpq	%rax, %rdx
	je	.L30
	movl	-76(%rbp), %eax
	cltq
	addq	$1, %rax
	leaq	0(,%rax,4), %rdx
	movq	-72(%rbp), %rax
	addq	%rdx, %rax
	movl	(%rax), %eax
	movl	-76(%rbp), %edx
	movslq	%edx, %rdx
	leaq	0(,%rdx,4), %rcx
	movq	-72(%rbp), %rdx
	addq	%rcx, %rdx
	movl	(%rdx), %edx
	subl	%edx, %eax
	movl	%eax, -60(%rbp)
.L30:
	movl	-60(%rbp), %eax
	leave
	.cfi_def_cfa 7, 8
	ret
	.cfi_endproc
.LFE2:
	.size	degree, .-degree
	.globl	remove_node
	.type	remove_node, @function
remove_node:
.LFB6:
	.cfi_startproc
	endbr64
	pushq	%rbp
	.cfi_def_cfa_offset 16
	.cfi_offset 6, -16
	movq	%rsp, %rbp
	.cfi_def_cfa_register 6
	subq	$96, %rsp
	movq	%rdi, -56(%rbp)
	movq	%rsi, -64(%rbp)
	movl	%edx, -68(%rbp)
	movq	%rcx, -80(%rbp)
	movq	%r8, -88(%rbp)
	movl	%r9d, -72(%rbp)
#APP
# 56 "/usr/include/x86_64-linux-gnu/bits/uintn-identity.h" 1
	##_ANNOTATION_INITIALREGION_-TIG-iO-sjtM-1-remove-node--18
# 0 "" 2
# 60 "/usr/include/x86_64-linux-gnu/bits/uintn-identity.h" 1
	##_ANNOTATION_ATOMICREGION_-TIG-iO-sjtM-1-remove-node--17
# 0 "" 2
#NO_APP
	movl	$24, %edi
	call	malloc@PLT
	movq	%rax, -24(%rbp)
	movq	-24(%rbp), %rax
	movq	-24(%rbp), %rdx
	movq	%rdx, 8(%rax)
	movq	-24(%rbp), %rax
	movq	-24(%rbp), %rdx
	movq	%rdx, (%rax)
	movq	-24(%rbp), %rax
	movq	%rax, _TIG_iO_sjtM_1_remove_node_1_opaque_list_1(%rip)
	call	rand@PLT
	movl	%eax, -32(%rbp)
	movl	$24, %edi
	call	malloc@PLT
	movq	%rax, -16(%rbp)
	movq	-16(%rbp), %rax
	movl	$0, 16(%rax)
	movq	_TIG_iO_sjtM_1_remove_node_1_opaque_list_1(%rip), %rax
	movq	8(%rax), %rdx
	movq	-16(%rbp), %rax
	movq	%rdx, 8(%rax)
	movq	_TIG_iO_sjtM_1_remove_node_1_opaque_list_1(%rip), %rdx
	movq	-16(%rbp), %rax
	movq	%rdx, (%rax)
	movq	_TIG_iO_sjtM_1_remove_node_1_opaque_list_1(%rip), %rax
	movq	8(%rax), %rax
	movq	-16(%rbp), %rdx
	movq	%rdx, (%rax)
	movq	_TIG_iO_sjtM_1_remove_node_1_opaque_list_1(%rip), %rax
	movq	-16(%rbp), %rdx
	movq	%rdx, 8(%rax)
	call	rand@PLT
	movl	%eax, -28(%rbp)
	movl	$24, %edi
	call	malloc@PLT
	movq	%rax, -8(%rbp)
	movq	-8(%rbp), %rax
	movl	-28(%rbp), %edx
	movl	%edx, 16(%rax)
	movq	_TIG_iO_sjtM_1_remove_node_1_opaque_list_1(%rip), %rax
	movq	8(%rax), %rdx
	movq	-8(%rbp), %rax
	movq	%rdx, 8(%rax)
	movq	_TIG_iO_sjtM_1_remove_node_1_opaque_list_1(%rip), %rdx
	movq	-8(%rbp), %rax
	movq	%rdx, (%rax)
	movq	_TIG_iO_sjtM_1_remove_node_1_opaque_list_1(%rip), %rax
	movq	8(%rax), %rax
	movq	-8(%rbp), %rdx
	movq	%rdx, (%rax)
	movq	_TIG_iO_sjtM_1_remove_node_1_opaque_list_1(%rip), %rax
	movq	-8(%rbp), %rdx
	movq	%rdx, 8(%rax)
	movq	_TIG_iO_sjtM_1_remove_node_1_opaque_list_1(%rip), %rax
	movq	8(%rax), %rax
	movq	%rax, _TIG_iO_sjtM_1_remove_node_1_opaque_ptr_1(%rip)
	movq	_TIG_iO_sjtM_1_remove_node_1_opaque_ptr_1(%rip), %rax
	movq	%rax, _TIG_iO_sjtM_1_remove_node_1_opaque_ptr_2(%rip)
	movq	_TIG_iO_sjtM_1_remove_node_1_opaque_ptr_2(%rip), %rax
	movq	8(%rax), %rax
	movq	%rax, _TIG_iO_sjtM_1_remove_node_1_opaque_ptr_2(%rip)
	nop
	nop
	movl	-68(%rbp), %eax
	cltq
	leaq	0(,%rax,4), %rdx
	movq	-56(%rbp), %rax
	addq	%rdx, %rax
	movl	(%rax), %eax
	movl	%eax, -44(%rbp)
.L36:
	movq	-80(%rbp), %rax
	movl	(%rax), %eax
	cmpl	%eax, -44(%rbp)
	jge	.L45
	movl	-44(%rbp), %eax
	cltq
	leaq	0(,%rax,4), %rdx
	movq	-64(%rbp), %rax
	addq	%rdx, %rax
	movl	(%rax), %eax
	cmpl	%eax, -72(%rbp)
	je	.L46
	addl	$1, -44(%rbp)
	jmp	.L36
.L45:
	nop
	jmp	.L35
.L46:
	nop
.L35:
	movq	-80(%rbp), %rax
	movl	(%rax), %eax
	cmpl	%eax, -44(%rbp)
	jge	.L47
	movl	-44(%rbp), %eax
	movl	%eax, -40(%rbp)
	jmp	.L38
.L39:
	movl	-40(%rbp), %eax
	cltq
	addq	$1, %rax
	leaq	0(,%rax,4), %rdx
	movq	-64(%rbp), %rax
	addq	%rdx, %rax
	movl	-40(%rbp), %edx
	movslq	%edx, %rdx
	leaq	0(,%rdx,4), %rcx
	movq	-64(%rbp), %rdx
	addq	%rcx, %rdx
	movl	(%rax), %eax
	movl	%eax, (%rdx)
	addl	$1, -40(%rbp)
.L38:
	movq	-80(%rbp), %rax
	movl	(%rax), %eax
	cmpl	%eax, -40(%rbp)
	jl	.L39
	movl	-68(%rbp), %eax
	addl	$1, %eax
	movl	%eax, -36(%rbp)
.L42:
	movq	-88(%rbp), %rax
	movl	(%rax), %eax
	cmpl	%eax, -36(%rbp)
	jle	.L40
	movq	_TIG_iO_sjtM_1_remove_node_1_opaque_ptr_1(%rip), %rdx
	movq	_TIG_iO_sjtM_1_remove_node_1_opaque_ptr_2(%rip), %rax
	cmpq	%rax, %rdx
	jne	.L48
.L40:
	movl	-36(%rbp), %eax
	cltq
	leaq	0(,%rax,4), %rdx
	movq	-56(%rbp), %rax
	addq	%rdx, %rax
	movl	(%rax), %edx
	subl	$1, %edx
	movl	%edx, (%rax)
	addl	$1, -36(%rbp)
	jmp	.L42
.L48:
	nop
	movq	-80(%rbp), %rax
	movl	(%rax), %eax
	leal	-1(%rax), %edx
	movq	-80(%rbp), %rax
	movl	%edx, (%rax)
	nop
.L47:
	nop
	leave
	.cfi_def_cfa 7, 8
	ret
	.cfi_endproc
.LFE6:
	.size	remove_node, .-remove_node
	.ident	"GCC: (Ubuntu 11.4.0-1ubuntu1~22.04) 11.4.0"
	.section	.note.GNU-stack,"",@progbits
	.section	.note.gnu.property,"a"
	.align 8
	.long	1f - 0f
	.long	4f - 1f
	.long	5
0:
	.string	"GNU"
1:
	.align 8
	.long	0xc0000002
	.long	3f - 2f
2:
	.long	0x3
3:
	.align 8
4:
