	.file	"rodnydevcujae_C-IntArray-Practice_main_opaque.c"
	.text
	.globl	_TIG_iO_7vMq_1_main_1_opaque_ptr_2
	.bss
	.align 8
	.type	_TIG_iO_7vMq_1_main_1_opaque_ptr_2, @object
	.size	_TIG_iO_7vMq_1_main_1_opaque_ptr_2, 8
_TIG_iO_7vMq_1_main_1_opaque_ptr_2:
	.zero	8
	.globl	_TIG_iO_7vMq_1___uint32_identity_1_opaque_ptr_2
	.align 8
	.type	_TIG_iO_7vMq_1___uint32_identity_1_opaque_ptr_2, @object
	.size	_TIG_iO_7vMq_1___uint32_identity_1_opaque_ptr_2, 8
_TIG_iO_7vMq_1___uint32_identity_1_opaque_ptr_2:
	.zero	8
	.globl	_TIG_iO_7vMq_1___bswap_16_1_opaque_ptr_2
	.align 8
	.type	_TIG_iO_7vMq_1___bswap_16_1_opaque_ptr_2, @object
	.size	_TIG_iO_7vMq_1___bswap_16_1_opaque_ptr_2, 8
_TIG_iO_7vMq_1___bswap_16_1_opaque_ptr_2:
	.zero	8
	.globl	_TIG_iO_7vMq_1_filter_1_opaque_list_1
	.align 8
	.type	_TIG_iO_7vMq_1_filter_1_opaque_list_1, @object
	.size	_TIG_iO_7vMq_1_filter_1_opaque_list_1, 8
_TIG_iO_7vMq_1_filter_1_opaque_list_1:
	.zero	8
	.globl	_TIG_iO_7vMq_1_filter_1_opaque_ptr_2
	.align 8
	.type	_TIG_iO_7vMq_1_filter_1_opaque_ptr_2, @object
	.size	_TIG_iO_7vMq_1_filter_1_opaque_ptr_2, 8
_TIG_iO_7vMq_1_filter_1_opaque_ptr_2:
	.zero	8
	.globl	_TIG_IZ_7vMq_argv
	.align 8
	.type	_TIG_IZ_7vMq_argv, @object
	.size	_TIG_IZ_7vMq_argv, 8
_TIG_IZ_7vMq_argv:
	.zero	8
	.globl	_TIG_iO_7vMq_1_printArray_1_opaque_list_1
	.align 8
	.type	_TIG_iO_7vMq_1_printArray_1_opaque_list_1, @object
	.size	_TIG_iO_7vMq_1_printArray_1_opaque_list_1, 8
_TIG_iO_7vMq_1_printArray_1_opaque_list_1:
	.zero	8
	.globl	_TIG_iO_7vMq_1___uint64_identity_1_opaque_list_1
	.align 8
	.type	_TIG_iO_7vMq_1___uint64_identity_1_opaque_list_1, @object
	.size	_TIG_iO_7vMq_1___uint64_identity_1_opaque_list_1, 8
_TIG_iO_7vMq_1___uint64_identity_1_opaque_list_1:
	.zero	8
	.globl	_TIG_iO_7vMq_1_printArray_1_opaque_ptr_1
	.align 8
	.type	_TIG_iO_7vMq_1_printArray_1_opaque_ptr_1, @object
	.size	_TIG_iO_7vMq_1_printArray_1_opaque_ptr_1, 8
_TIG_iO_7vMq_1_printArray_1_opaque_ptr_1:
	.zero	8
	.globl	_TIG_iO_7vMq_1_printArray_1_opaque_list_2
	.align 8
	.type	_TIG_iO_7vMq_1_printArray_1_opaque_list_2, @object
	.size	_TIG_iO_7vMq_1_printArray_1_opaque_list_2, 8
_TIG_iO_7vMq_1_printArray_1_opaque_list_2:
	.zero	8
	.globl	_TIG_iO_7vMq_1___uint16_identity_1_opaque_list_2
	.align 8
	.type	_TIG_iO_7vMq_1___uint16_identity_1_opaque_list_2, @object
	.size	_TIG_iO_7vMq_1___uint16_identity_1_opaque_list_2, 8
_TIG_iO_7vMq_1___uint16_identity_1_opaque_list_2:
	.zero	8
	.globl	_TIG_iO_7vMq_1___bswap_64_1_opaque_ptr_1
	.align 8
	.type	_TIG_iO_7vMq_1___bswap_64_1_opaque_ptr_1, @object
	.size	_TIG_iO_7vMq_1___bswap_64_1_opaque_ptr_1, 8
_TIG_iO_7vMq_1___bswap_64_1_opaque_ptr_1:
	.zero	8
	.globl	_TIG_iO_7vMq_1___bswap_32_1_opaque_ptr_2
	.align 8
	.type	_TIG_iO_7vMq_1___bswap_32_1_opaque_ptr_2, @object
	.size	_TIG_iO_7vMq_1___bswap_32_1_opaque_ptr_2, 8
_TIG_iO_7vMq_1___bswap_32_1_opaque_ptr_2:
	.zero	8
	.globl	_TIG_iO_7vMq_1___uint16_identity_1_opaque_ptr_1
	.align 8
	.type	_TIG_iO_7vMq_1___uint16_identity_1_opaque_ptr_1, @object
	.size	_TIG_iO_7vMq_1___uint16_identity_1_opaque_ptr_1, 8
_TIG_iO_7vMq_1___uint16_identity_1_opaque_ptr_1:
	.zero	8
	.globl	_TIG_iO_7vMq_1___uint16_identity_1_opaque_list_1
	.align 8
	.type	_TIG_iO_7vMq_1___uint16_identity_1_opaque_list_1, @object
	.size	_TIG_iO_7vMq_1___uint16_identity_1_opaque_list_1, 8
_TIG_iO_7vMq_1___uint16_identity_1_opaque_list_1:
	.zero	8
	.globl	_TIG_IZ_7vMq_envp
	.align 8
	.type	_TIG_IZ_7vMq_envp, @object
	.size	_TIG_IZ_7vMq_envp, 8
_TIG_IZ_7vMq_envp:
	.zero	8
	.globl	_TIG_iO_7vMq_1_main_1_opaque_ptr_1
	.align 8
	.type	_TIG_iO_7vMq_1_main_1_opaque_ptr_1, @object
	.size	_TIG_iO_7vMq_1_main_1_opaque_ptr_1, 8
_TIG_iO_7vMq_1_main_1_opaque_ptr_1:
	.zero	8
	.globl	_TIG_iO_7vMq_1___uint32_identity_1_opaque_list_2
	.align 8
	.type	_TIG_iO_7vMq_1___uint32_identity_1_opaque_list_2, @object
	.size	_TIG_iO_7vMq_1___uint32_identity_1_opaque_list_2, 8
_TIG_iO_7vMq_1___uint32_identity_1_opaque_list_2:
	.zero	8
	.globl	_TIG_iO_7vMq_1___bswap_16_1_opaque_list_2
	.align 8
	.type	_TIG_iO_7vMq_1___bswap_16_1_opaque_list_2, @object
	.size	_TIG_iO_7vMq_1___bswap_16_1_opaque_list_2, 8
_TIG_iO_7vMq_1___bswap_16_1_opaque_list_2:
	.zero	8
	.globl	_TIG_iO_7vMq_1___uint64_identity_1_opaque_ptr_1
	.align 8
	.type	_TIG_iO_7vMq_1___uint64_identity_1_opaque_ptr_1, @object
	.size	_TIG_iO_7vMq_1___uint64_identity_1_opaque_ptr_1, 8
_TIG_iO_7vMq_1___uint64_identity_1_opaque_ptr_1:
	.zero	8
	.globl	_TIG_iO_7vMq_1_filter_1_opaque_list_2
	.align 8
	.type	_TIG_iO_7vMq_1_filter_1_opaque_list_2, @object
	.size	_TIG_iO_7vMq_1_filter_1_opaque_list_2, 8
_TIG_iO_7vMq_1_filter_1_opaque_list_2:
	.zero	8
	.globl	_TIG_iO_7vMq_1___uint64_identity_1_opaque_list_2
	.align 8
	.type	_TIG_iO_7vMq_1___uint64_identity_1_opaque_list_2, @object
	.size	_TIG_iO_7vMq_1___uint64_identity_1_opaque_list_2, 8
_TIG_iO_7vMq_1___uint64_identity_1_opaque_list_2:
	.zero	8
	.globl	_TIG_iO_7vMq_1___uint32_identity_1_opaque_ptr_1
	.align 8
	.type	_TIG_iO_7vMq_1___uint32_identity_1_opaque_ptr_1, @object
	.size	_TIG_iO_7vMq_1___uint32_identity_1_opaque_ptr_1, 8
_TIG_iO_7vMq_1___uint32_identity_1_opaque_ptr_1:
	.zero	8
	.globl	_TIG_iO_7vMq_1___bswap_32_1_opaque_list_1
	.align 8
	.type	_TIG_iO_7vMq_1___bswap_32_1_opaque_list_1, @object
	.size	_TIG_iO_7vMq_1___bswap_32_1_opaque_list_1, 8
_TIG_iO_7vMq_1___bswap_32_1_opaque_list_1:
	.zero	8
	.globl	_TIG_iO_7vMq_1___bswap_64_1_opaque_list_2
	.align 8
	.type	_TIG_iO_7vMq_1___bswap_64_1_opaque_list_2, @object
	.size	_TIG_iO_7vMq_1___bswap_64_1_opaque_list_2, 8
_TIG_iO_7vMq_1___bswap_64_1_opaque_list_2:
	.zero	8
	.globl	_TIG_iO_7vMq_1___uint64_identity_1_opaque_ptr_2
	.align 8
	.type	_TIG_iO_7vMq_1___uint64_identity_1_opaque_ptr_2, @object
	.size	_TIG_iO_7vMq_1___uint64_identity_1_opaque_ptr_2, 8
_TIG_iO_7vMq_1___uint64_identity_1_opaque_ptr_2:
	.zero	8
	.globl	_TIG_IZ_7vMq_argc
	.align 4
	.type	_TIG_IZ_7vMq_argc, @object
	.size	_TIG_IZ_7vMq_argc, 4
_TIG_IZ_7vMq_argc:
	.zero	4
	.globl	_TIG_iO_7vMq_1___uint16_identity_1_opaque_ptr_2
	.align 8
	.type	_TIG_iO_7vMq_1___uint16_identity_1_opaque_ptr_2, @object
	.size	_TIG_iO_7vMq_1___uint16_identity_1_opaque_ptr_2, 8
_TIG_iO_7vMq_1___uint16_identity_1_opaque_ptr_2:
	.zero	8
	.globl	_TIG_iO_7vMq_1___bswap_64_1_opaque_ptr_2
	.align 8
	.type	_TIG_iO_7vMq_1___bswap_64_1_opaque_ptr_2, @object
	.size	_TIG_iO_7vMq_1___bswap_64_1_opaque_ptr_2, 8
_TIG_iO_7vMq_1___bswap_64_1_opaque_ptr_2:
	.zero	8
	.globl	_TIG_iO_7vMq_1_printArray_1_opaque_ptr_2
	.align 8
	.type	_TIG_iO_7vMq_1_printArray_1_opaque_ptr_2, @object
	.size	_TIG_iO_7vMq_1_printArray_1_opaque_ptr_2, 8
_TIG_iO_7vMq_1_printArray_1_opaque_ptr_2:
	.zero	8
	.globl	_TIG_iO_7vMq_1___bswap_32_1_opaque_list_2
	.align 8
	.type	_TIG_iO_7vMq_1___bswap_32_1_opaque_list_2, @object
	.size	_TIG_iO_7vMq_1___bswap_32_1_opaque_list_2, 8
_TIG_iO_7vMq_1___bswap_32_1_opaque_list_2:
	.zero	8
	.globl	_TIG_iO_7vMq_1___bswap_64_1_opaque_list_1
	.align 8
	.type	_TIG_iO_7vMq_1___bswap_64_1_opaque_list_1, @object
	.size	_TIG_iO_7vMq_1___bswap_64_1_opaque_list_1, 8
_TIG_iO_7vMq_1___bswap_64_1_opaque_list_1:
	.zero	8
	.globl	_TIG_iO_7vMq_1___bswap_16_1_opaque_ptr_1
	.align 8
	.type	_TIG_iO_7vMq_1___bswap_16_1_opaque_ptr_1, @object
	.size	_TIG_iO_7vMq_1___bswap_16_1_opaque_ptr_1, 8
_TIG_iO_7vMq_1___bswap_16_1_opaque_ptr_1:
	.zero	8
	.globl	_TIG_iO_7vMq_1___bswap_32_1_opaque_ptr_1
	.align 8
	.type	_TIG_iO_7vMq_1___bswap_32_1_opaque_ptr_1, @object
	.size	_TIG_iO_7vMq_1___bswap_32_1_opaque_ptr_1, 8
_TIG_iO_7vMq_1___bswap_32_1_opaque_ptr_1:
	.zero	8
	.globl	_TIG_iO_7vMq_1_main_1_opaque_list_2
	.align 8
	.type	_TIG_iO_7vMq_1_main_1_opaque_list_2, @object
	.size	_TIG_iO_7vMq_1_main_1_opaque_list_2, 8
_TIG_iO_7vMq_1_main_1_opaque_list_2:
	.zero	8
	.globl	_TIG_iO_7vMq_1___uint32_identity_1_opaque_list_1
	.align 8
	.type	_TIG_iO_7vMq_1___uint32_identity_1_opaque_list_1, @object
	.size	_TIG_iO_7vMq_1___uint32_identity_1_opaque_list_1, 8
_TIG_iO_7vMq_1___uint32_identity_1_opaque_list_1:
	.zero	8
	.globl	_TIG_iO_7vMq_1_filter_1_opaque_ptr_1
	.align 8
	.type	_TIG_iO_7vMq_1_filter_1_opaque_ptr_1, @object
	.size	_TIG_iO_7vMq_1_filter_1_opaque_ptr_1, 8
_TIG_iO_7vMq_1_filter_1_opaque_ptr_1:
	.zero	8
	.globl	_TIG_iO_7vMq_1_main_1_opaque_list_1
	.align 8
	.type	_TIG_iO_7vMq_1_main_1_opaque_list_1, @object
	.size	_TIG_iO_7vMq_1_main_1_opaque_list_1, 8
_TIG_iO_7vMq_1_main_1_opaque_list_1:
	.zero	8
	.globl	_TIG_iO_7vMq_1___bswap_16_1_opaque_list_1
	.align 8
	.type	_TIG_iO_7vMq_1___bswap_16_1_opaque_list_1, @object
	.size	_TIG_iO_7vMq_1___bswap_16_1_opaque_list_1, 8
_TIG_iO_7vMq_1___bswap_16_1_opaque_list_1:
	.zero	8
	.section	.rodata
.LC0:
	.string	" %d "
.LC1:
	.string	"]"
	.text
	.globl	printArray
	.type	printArray, @function
printArray:
.LFB0:
	.cfi_startproc
	endbr64
	pushq	%rbp
	.cfi_def_cfa_offset 16
	.cfi_offset 6, -16
	movq	%rsp, %rbp
	.cfi_def_cfa_register 6
	subq	$64, %rsp
	movq	%rdi, -56(%rbp)
	movl	%esi, -60(%rbp)
#APP
# 77 "/usr/include/stdlib.h" 1
	##_ANNOTATION_INITIALREGION_-TIG-iO-7vMq-1-printArray--18
# 0 "" 2
# 81 "/usr/include/stdlib.h" 1
	##_ANNOTATION_ATOMICREGION_-TIG-iO-7vMq-1-printArray--17
# 0 "" 2
#NO_APP
	movl	$24, %edi
	call	malloc@PLT
	movq	%rax, -24(%rbp)
	movq	-24(%rbp), %rax
	movq	-24(%rbp), %rdx
	movq	%rdx, 8(%rax)
	movq	-24(%rbp), %rax
	movq	-24(%rbp), %rdx
	movq	%rdx, (%rax)
	movq	-24(%rbp), %rax
	movq	%rax, _TIG_iO_7vMq_1_printArray_1_opaque_list_1(%rip)
	call	rand@PLT
	movl	%eax, -32(%rbp)
	movl	$24, %edi
	call	malloc@PLT
	movq	%rax, -16(%rbp)
	movq	-16(%rbp), %rax
	movl	$0, 16(%rax)
	movq	_TIG_iO_7vMq_1_printArray_1_opaque_list_1(%rip), %rax
	movq	8(%rax), %rdx
	movq	-16(%rbp), %rax
	movq	%rdx, 8(%rax)
	movq	_TIG_iO_7vMq_1_printArray_1_opaque_list_1(%rip), %rdx
	movq	-16(%rbp), %rax
	movq	%rdx, (%rax)
	movq	_TIG_iO_7vMq_1_printArray_1_opaque_list_1(%rip), %rax
	movq	8(%rax), %rax
	movq	-16(%rbp), %rdx
	movq	%rdx, (%rax)
	movq	_TIG_iO_7vMq_1_printArray_1_opaque_list_1(%rip), %rax
	movq	-16(%rbp), %rdx
	movq	%rdx, 8(%rax)
	call	rand@PLT
	movl	%eax, -28(%rbp)
	movl	$24, %edi
	call	malloc@PLT
	movq	%rax, -8(%rbp)
	movq	-8(%rbp), %rax
	movl	-28(%rbp), %edx
	movl	%edx, 16(%rax)
	movq	_TIG_iO_7vMq_1_printArray_1_opaque_list_1(%rip), %rax
	movq	8(%rax), %rdx
	movq	-8(%rbp), %rax
	movq	%rdx, 8(%rax)
	movq	_TIG_iO_7vMq_1_printArray_1_opaque_list_1(%rip), %rdx
	movq	-8(%rbp), %rax
	movq	%rdx, (%rax)
	movq	_TIG_iO_7vMq_1_printArray_1_opaque_list_1(%rip), %rax
	movq	8(%rax), %rax
	movq	-8(%rbp), %rdx
	movq	%rdx, (%rax)
	movq	_TIG_iO_7vMq_1_printArray_1_opaque_list_1(%rip), %rax
	movq	-8(%rbp), %rdx
	movq	%rdx, 8(%rax)
	movq	_TIG_iO_7vMq_1_printArray_1_opaque_list_1(%rip), %rax
	movq	8(%rax), %rax
	movq	%rax, _TIG_iO_7vMq_1_printArray_1_opaque_ptr_1(%rip)
	movq	_TIG_iO_7vMq_1_printArray_1_opaque_ptr_1(%rip), %rax
	movq	%rax, _TIG_iO_7vMq_1_printArray_1_opaque_ptr_2(%rip)
	movq	_TIG_iO_7vMq_1_printArray_1_opaque_ptr_2(%rip), %rax
	movq	8(%rax), %rax
	movq	%rax, _TIG_iO_7vMq_1_printArray_1_opaque_ptr_2(%rip)
	nop
	nop
	movl	$91, %edi
	call	putchar@PLT
	movl	$0, -36(%rbp)
	movq	_TIG_iO_7vMq_1_printArray_1_opaque_ptr_1(%rip), %rdx
	movq	_TIG_iO_7vMq_1_printArray_1_opaque_ptr_2(%rip), %rax
	cmpq	%rax, %rdx
	jne	.L5
.L4:
	nop
.L3:
	movl	-36(%rbp), %eax
	cmpl	-60(%rbp), %eax
	setl	%al
	movzbl	%al, %eax
	cmpl	%eax, -36(%rbp)
	jg	.L3
	leaq	-1+.LC0(%rip), %rdx
	movl	-60(%rbp), %eax
	movl	%eax, %esi
	movq	%rdx, %rdi
	movl	$0, %eax
	call	printf@PLT
	movl	$3, -36(%rbp)
	jmp	.L4
.L6:
	movl	-36(%rbp), %eax
	cltq
	leaq	0(,%rax,4), %rdx
	movq	-56(%rbp), %rax
	addq	%rdx, %rax
	movl	(%rax), %eax
	movl	%eax, %esi
	leaq	.LC0(%rip), %rax
	movq	%rax, %rdi
	movl	$0, %eax
	call	printf@PLT
	addl	$1, -36(%rbp)
.L5:
	movl	-36(%rbp), %eax
	cmpl	-60(%rbp), %eax
	jl	.L6
	leaq	.LC1(%rip), %rax
	movq	%rax, %rdi
	call	puts@PLT
	nop
	leave
	.cfi_def_cfa 7, 8
	ret
	.cfi_endproc
.LFE0:
	.size	printArray, .-printArray
	.globl	filter
	.type	filter, @function
filter:
.LFB1:
	.cfi_startproc
	endbr64
	pushq	%rbp
	.cfi_def_cfa_offset 16
	.cfi_offset 6, -16
	movq	%rsp, %rbp
	.cfi_def_cfa_register 6
	subq	$112, %rsp
	movq	%rdi, -88(%rbp)
	movl	%esi, -92(%rbp)
	movq	%rdx, -104(%rbp)
#APP
# 57 "rodnydevcujae_C-IntArray-Practice_main.c" 1
	##_ANNOTATION_INITIALREGION_-TIG-iO-7vMq-1-filter--14
# 0 "" 2
# 61 "rodnydevcujae_C-IntArray-Practice_main.c" 1
	##_ANNOTATION_ATOMICREGION_-TIG-iO-7vMq-1-filter--13
# 0 "" 2
#NO_APP
	movl	$24, %edi
	call	malloc@PLT
	movq	%rax, -40(%rbp)
	movq	-40(%rbp), %rax
	movq	-40(%rbp), %rdx
	movq	%rdx, (%rax)
	movq	-40(%rbp), %rax
	movq	-40(%rbp), %rdx
	movq	%rdx, 8(%rax)
	movq	-40(%rbp), %rax
	movq	%rax, _TIG_iO_7vMq_1_filter_1_opaque_list_1(%rip)
	call	rand@PLT
	movl	%eax, -60(%rbp)
	movl	$24, %edi
	call	malloc@PLT
	movq	%rax, -32(%rbp)
	movq	-32(%rbp), %rax
	movl	$0, 16(%rax)
	movq	_TIG_iO_7vMq_1_filter_1_opaque_list_1(%rip), %rax
	movq	(%rax), %rdx
	movq	-32(%rbp), %rax
	movq	%rdx, (%rax)
	movq	_TIG_iO_7vMq_1_filter_1_opaque_list_1(%rip), %rdx
	movq	-32(%rbp), %rax
	movq	%rdx, 8(%rax)
	movq	_TIG_iO_7vMq_1_filter_1_opaque_list_1(%rip), %rax
	movq	(%rax), %rax
	movq	-32(%rbp), %rdx
	movq	%rdx, 8(%rax)
	movq	_TIG_iO_7vMq_1_filter_1_opaque_list_1(%rip), %rax
	movq	-32(%rbp), %rdx
	movq	%rdx, (%rax)
	call	rand@PLT
	movl	%eax, -56(%rbp)
	movl	$24, %edi
	call	malloc@PLT
	movq	%rax, -24(%rbp)
	movq	-24(%rbp), %rax
	movl	-56(%rbp), %edx
	movl	%edx, 16(%rax)
	movq	_TIG_iO_7vMq_1_filter_1_opaque_list_1(%rip), %rax
	movq	(%rax), %rdx
	movq	-24(%rbp), %rax
	movq	%rdx, (%rax)
	movq	_TIG_iO_7vMq_1_filter_1_opaque_list_1(%rip), %rdx
	movq	-24(%rbp), %rax
	movq	%rdx, 8(%rax)
	movq	_TIG_iO_7vMq_1_filter_1_opaque_list_1(%rip), %rax
	movq	(%rax), %rax
	movq	-24(%rbp), %rdx
	movq	%rdx, 8(%rax)
	movq	_TIG_iO_7vMq_1_filter_1_opaque_list_1(%rip), %rax
	movq	-24(%rbp), %rdx
	movq	%rdx, (%rax)
	call	rand@PLT
	movl	%eax, -52(%rbp)
	movl	$24, %edi
	call	malloc@PLT
	movq	%rax, -16(%rbp)
	movl	-52(%rbp), %eax
	leal	(%rax,%rax), %edx
	movq	-16(%rbp), %rax
	movl	%edx, 16(%rax)
	movq	_TIG_iO_7vMq_1_filter_1_opaque_list_1(%rip), %rax
	movq	(%rax), %rdx
	movq	-16(%rbp), %rax
	movq	%rdx, (%rax)
	movq	_TIG_iO_7vMq_1_filter_1_opaque_list_1(%rip), %rdx
	movq	-16(%rbp), %rax
	movq	%rdx, 8(%rax)
	movq	_TIG_iO_7vMq_1_filter_1_opaque_list_1(%rip), %rax
	movq	(%rax), %rax
	movq	-16(%rbp), %rdx
	movq	%rdx, 8(%rax)
	movq	_TIG_iO_7vMq_1_filter_1_opaque_list_1(%rip), %rax
	movq	-16(%rbp), %rdx
	movq	%rdx, (%rax)
	call	rand@PLT
	movl	%eax, -48(%rbp)
	movl	$24, %edi
	call	malloc@PLT
	movq	%rax, -8(%rbp)
	movl	-48(%rbp), %edx
	movl	%edx, %eax
	addl	%eax, %eax
	addl	%eax, %edx
	movq	-8(%rbp), %rax
	movl	%edx, 16(%rax)
	movq	_TIG_iO_7vMq_1_filter_1_opaque_list_1(%rip), %rax
	movq	(%rax), %rdx
	movq	-8(%rbp), %rax
	movq	%rdx, (%rax)
	movq	_TIG_iO_7vMq_1_filter_1_opaque_list_1(%rip), %rdx
	movq	-8(%rbp), %rax
	movq	%rdx, 8(%rax)
	movq	_TIG_iO_7vMq_1_filter_1_opaque_list_1(%rip), %rax
	movq	(%rax), %rax
	movq	-8(%rbp), %rdx
	movq	%rdx, 8(%rax)
	movq	_TIG_iO_7vMq_1_filter_1_opaque_list_1(%rip), %rax
	movq	-8(%rbp), %rdx
	movq	%rdx, (%rax)
	movq	_TIG_iO_7vMq_1_filter_1_opaque_list_1(%rip), %rax
	movq	(%rax), %rax
	movq	%rax, _TIG_iO_7vMq_1_filter_1_opaque_ptr_1(%rip)
	movq	_TIG_iO_7vMq_1_filter_1_opaque_ptr_1(%rip), %rax
	movq	%rax, _TIG_iO_7vMq_1_filter_1_opaque_ptr_2(%rip)
	movq	_TIG_iO_7vMq_1_filter_1_opaque_ptr_2(%rip), %rax
	movq	(%rax), %rax
	movq	%rax, _TIG_iO_7vMq_1_filter_1_opaque_ptr_2(%rip)
	nop
	nop
	movq	_TIG_iO_7vMq_1_printArray_1_opaque_ptr_1(%rip), %rdx
	movq	_TIG_iO_7vMq_1_printArray_1_opaque_ptr_2(%rip), %rax
	cmpq	%rax, %rdx
	je	.L9
	movl	$0, -68(%rbp)
	movl	$0, -64(%rbp)
	jmp	.L11
.L9:
#APP
# 17 "rodnydevcujae_C-IntArray-Practice_main.c" 1
	.byte 0x3b,0x51,0xa0,0xf7,0xb9,0x45,0x2f,0x8e
# 0 "" 2
#NO_APP
	jmp	.L11
.L13:
	movl	-64(%rbp), %eax
	cltq
	leaq	0(,%rax,4), %rdx
	movq	-88(%rbp), %rax
	addq	%rdx, %rax
	movl	(%rax), %eax
	andl	$1, %eax
	testl	%eax, %eax
	jne	.L12
	movl	-68(%rbp), %eax
	movl	%eax, -44(%rbp)
	addl	$1, -68(%rbp)
	movl	-64(%rbp), %eax
	cltq
	leaq	0(,%rax,4), %rdx
	movq	-88(%rbp), %rax
	addq	%rdx, %rax
	movl	-44(%rbp), %edx
	movslq	%edx, %rdx
	leaq	0(,%rdx,4), %rcx
	movq	-104(%rbp), %rdx
	addq	%rcx, %rdx
	movl	(%rax), %eax
	movl	%eax, (%rdx)
.L12:
	addl	$1, -64(%rbp)
.L11:
	movl	-64(%rbp), %eax
	cmpl	-92(%rbp), %eax
	jl	.L13
	movl	-68(%rbp), %eax
	leave
	.cfi_def_cfa 7, 8
	ret
	.cfi_endproc
.LFE1:
	.size	filter, .-filter
	.globl	main
	.type	main, @function
main:
.LFB3:
	.cfi_startproc
	endbr64
	pushq	%rbp
	.cfi_def_cfa_offset 16
	.cfi_offset 6, -16
	movq	%rsp, %rbp
	.cfi_def_cfa_register 6
	subq	$896, %rsp
	movl	%edi, -868(%rbp)
	movq	%rsi, -880(%rbp)
	movq	%rdx, -888(%rbp)
	movq	%fs:40, %rax
	movq	%rax, -8(%rbp)
	xorl	%eax, %eax
	movq	$0, _TIG_IZ_7vMq_envp(%rip)
	nop
.L16:
	movq	$0, _TIG_IZ_7vMq_argv(%rip)
	nop
.L17:
	movl	$0, _TIG_IZ_7vMq_argc(%rip)
	nop
	nop
.L18:
.L19:
#APP
# 101 "/usr/include/x86_64-linux-gnu/bits/byteswap.h" 1
	##_ANNOTATION_INITIALREGION_-TIG-IZ-7vMq--0
# 0 "" 2
#NO_APP
	movl	-868(%rbp), %eax
	movl	%eax, _TIG_IZ_7vMq_argc(%rip)
	movq	-880(%rbp), %rax
	movq	%rax, _TIG_IZ_7vMq_argv(%rip)
	movq	-888(%rbp), %rax
	movq	%rax, _TIG_IZ_7vMq_envp(%rip)
#APP
# 108 "/usr/include/x86_64-linux-gnu/bits/byteswap.h" 1
	##_ANNOTATION_ATOMICREGION_-TIG-iO-7vMq-1-main--15
# 0 "" 2
#NO_APP
	movl	$24, %edi
	call	malloc@PLT
	movq	%rax, -840(%rbp)
	movq	-840(%rbp), %rax
	movq	-840(%rbp), %rdx
	movq	%rdx, 16(%rax)
	movq	-840(%rbp), %rax
	movq	-840(%rbp), %rdx
	movq	%rdx, 8(%rax)
	movq	-840(%rbp), %rax
	movq	%rax, _TIG_iO_7vMq_1_main_1_opaque_list_1(%rip)
	call	rand@PLT
	movl	%eax, -856(%rbp)
	movl	$24, %edi
	call	malloc@PLT
	movq	%rax, -832(%rbp)
	movq	-832(%rbp), %rax
	movl	$0, (%rax)
	movq	_TIG_iO_7vMq_1_main_1_opaque_list_1(%rip), %rax
	movq	16(%rax), %rdx
	movq	-832(%rbp), %rax
	movq	%rdx, 16(%rax)
	movq	_TIG_iO_7vMq_1_main_1_opaque_list_1(%rip), %rdx
	movq	-832(%rbp), %rax
	movq	%rdx, 8(%rax)
	movq	_TIG_iO_7vMq_1_main_1_opaque_list_1(%rip), %rax
	movq	16(%rax), %rax
	movq	-832(%rbp), %rdx
	movq	%rdx, 8(%rax)
	movq	_TIG_iO_7vMq_1_main_1_opaque_list_1(%rip), %rax
	movq	-832(%rbp), %rdx
	movq	%rdx, 16(%rax)
	call	rand@PLT
	movl	%eax, -852(%rbp)
	movl	$24, %edi
	call	malloc@PLT
	movq	%rax, -824(%rbp)
	movq	-824(%rbp), %rax
	movl	-852(%rbp), %edx
	movl	%edx, (%rax)
	movq	_TIG_iO_7vMq_1_main_1_opaque_list_1(%rip), %rax
	movq	16(%rax), %rdx
	movq	-824(%rbp), %rax
	movq	%rdx, 16(%rax)
	movq	_TIG_iO_7vMq_1_main_1_opaque_list_1(%rip), %rdx
	movq	-824(%rbp), %rax
	movq	%rdx, 8(%rax)
	movq	_TIG_iO_7vMq_1_main_1_opaque_list_1(%rip), %rax
	movq	16(%rax), %rax
	movq	-824(%rbp), %rdx
	movq	%rdx, 8(%rax)
	movq	_TIG_iO_7vMq_1_main_1_opaque_list_1(%rip), %rax
	movq	-824(%rbp), %rdx
	movq	%rdx, 16(%rax)
	movq	_TIG_iO_7vMq_1_main_1_opaque_list_1(%rip), %rax
	movq	16(%rax), %rax
	movq	%rax, _TIG_iO_7vMq_1_main_1_opaque_ptr_1(%rip)
	movq	_TIG_iO_7vMq_1_main_1_opaque_ptr_1(%rip), %rax
	movq	%rax, _TIG_iO_7vMq_1_main_1_opaque_ptr_2(%rip)
	nop
	nop
	movl	$5, -816(%rbp)
	movl	$-9, -812(%rbp)
	movl	$16, -808(%rbp)
	movl	$2, -804(%rbp)
	movl	$4, -860(%rbp)
.L22:
	cmpl	$99, -860(%rbp)
	jbe	.L20
	movq	_TIG_iO_7vMq_1_printArray_1_opaque_ptr_1(%rip), %rdx
	movq	_TIG_iO_7vMq_1_printArray_1_opaque_ptr_2(%rip), %rax
	cmpq	%rax, %rdx
	jne	.L26
.L20:
	movl	-860(%rbp), %eax
	movl	$0, -816(%rbp,%rax,4)
	addl	$1, -860(%rbp)
	jmp	.L22
.L26:
	nop
	movl	$4, -848(%rbp)
	movl	$0, -844(%rbp)
	leaq	-416(%rbp), %rdx
	movl	-848(%rbp), %ecx
	leaq	-816(%rbp), %rax
	movl	%ecx, %esi
	movq	%rax, %rdi
	call	filter
	movl	%eax, -844(%rbp)
	movl	-848(%rbp), %edx
	leaq	-816(%rbp), %rax
	movl	%edx, %esi
	movq	%rax, %rdi
	call	printArray
	movl	-844(%rbp), %edx
	leaq	-416(%rbp), %rax
	movl	%edx, %esi
	movq	%rax, %rdi
	call	printArray
	movl	$0, %eax
	movq	-8(%rbp), %rdx
	subq	%fs:40, %rdx
	je	.L24
	call	__stack_chk_fail@PLT
.L24:
	leave
	.cfi_def_cfa 7, 8
	ret
	.cfi_endproc
.LFE3:
	.size	main, .-main
	.ident	"GCC: (Ubuntu 11.4.0-1ubuntu1~22.04) 11.4.0"
	.section	.note.GNU-stack,"",@progbits
	.section	.note.gnu.property,"a"
	.align 8
	.long	1f - 0f
	.long	4f - 1f
	.long	5
0:
	.string	"GNU"
1:
	.align 8
	.long	0xc0000002
	.long	3f - 2f
2:
	.long	0x3
3:
	.align 8
4:
