	.file	"Ageliques_Module3_1_opaque.c"
	.text
	.globl	_TIG_iO_JUCB_1___bswap_32_1_opaque_list_2
	.bss
	.align 8
	.type	_TIG_iO_JUCB_1___bswap_32_1_opaque_list_2, @object
	.size	_TIG_iO_JUCB_1___bswap_32_1_opaque_list_2, 8
_TIG_iO_JUCB_1___bswap_32_1_opaque_list_2:
	.zero	8
	.globl	_TIG_iO_JUCB_1_calculate_area_1_opaque_list_2
	.align 8
	.type	_TIG_iO_JUCB_1_calculate_area_1_opaque_list_2, @object
	.size	_TIG_iO_JUCB_1_calculate_area_1_opaque_list_2, 8
_TIG_iO_JUCB_1_calculate_area_1_opaque_list_2:
	.zero	8
	.globl	_TIG_iO_JUCB_1_main_1_opaque_ptr_1
	.align 8
	.type	_TIG_iO_JUCB_1_main_1_opaque_ptr_1, @object
	.size	_TIG_iO_JUCB_1_main_1_opaque_ptr_1, 8
_TIG_iO_JUCB_1_main_1_opaque_ptr_1:
	.zero	8
	.globl	_TIG_iO_JUCB_1_main_1_opaque_list_2
	.align 8
	.type	_TIG_iO_JUCB_1_main_1_opaque_list_2, @object
	.size	_TIG_iO_JUCB_1_main_1_opaque_list_2, 8
_TIG_iO_JUCB_1_main_1_opaque_list_2:
	.zero	8
	.globl	_TIG_iO_JUCB_1___bswap_16_1_opaque_ptr_2
	.align 8
	.type	_TIG_iO_JUCB_1___bswap_16_1_opaque_ptr_2, @object
	.size	_TIG_iO_JUCB_1___bswap_16_1_opaque_ptr_2, 8
_TIG_iO_JUCB_1___bswap_16_1_opaque_ptr_2:
	.zero	8
	.globl	_TIG_iO_JUCB_1___uint64_identity_1_opaque_ptr_1
	.align 8
	.type	_TIG_iO_JUCB_1___uint64_identity_1_opaque_ptr_1, @object
	.size	_TIG_iO_JUCB_1___uint64_identity_1_opaque_ptr_1, 8
_TIG_iO_JUCB_1___uint64_identity_1_opaque_ptr_1:
	.zero	8
	.globl	_TIG_iO_JUCB_1_calculate_area_1_opaque_ptr_1
	.align 8
	.type	_TIG_iO_JUCB_1_calculate_area_1_opaque_ptr_1, @object
	.size	_TIG_iO_JUCB_1_calculate_area_1_opaque_ptr_1, 8
_TIG_iO_JUCB_1_calculate_area_1_opaque_ptr_1:
	.zero	8
	.globl	_TIG_iO_JUCB_1___uint16_identity_1_opaque_list_2
	.align 8
	.type	_TIG_iO_JUCB_1___uint16_identity_1_opaque_list_2, @object
	.size	_TIG_iO_JUCB_1___uint16_identity_1_opaque_list_2, 8
_TIG_iO_JUCB_1___uint16_identity_1_opaque_list_2:
	.zero	8
	.globl	_TIG_iO_JUCB_1___bswap_32_1_opaque_ptr_1
	.align 8
	.type	_TIG_iO_JUCB_1___bswap_32_1_opaque_ptr_1, @object
	.size	_TIG_iO_JUCB_1___bswap_32_1_opaque_ptr_1, 8
_TIG_iO_JUCB_1___bswap_32_1_opaque_ptr_1:
	.zero	8
	.globl	_TIG_iO_JUCB_1_main_1_opaque_list_1
	.align 8
	.type	_TIG_iO_JUCB_1_main_1_opaque_list_1, @object
	.size	_TIG_iO_JUCB_1_main_1_opaque_list_1, 8
_TIG_iO_JUCB_1_main_1_opaque_list_1:
	.zero	8
	.globl	_TIG_iO_JUCB_1_main_1_opaque_ptr_2
	.align 8
	.type	_TIG_iO_JUCB_1_main_1_opaque_ptr_2, @object
	.size	_TIG_iO_JUCB_1_main_1_opaque_ptr_2, 8
_TIG_iO_JUCB_1_main_1_opaque_ptr_2:
	.zero	8
	.globl	_TIG_iO_JUCB_1___uint64_identity_1_opaque_ptr_2
	.align 8
	.type	_TIG_iO_JUCB_1___uint64_identity_1_opaque_ptr_2, @object
	.size	_TIG_iO_JUCB_1___uint64_identity_1_opaque_ptr_2, 8
_TIG_iO_JUCB_1___uint64_identity_1_opaque_ptr_2:
	.zero	8
	.globl	_TIG_iO_JUCB_1___uint32_identity_1_opaque_list_1
	.align 8
	.type	_TIG_iO_JUCB_1___uint32_identity_1_opaque_list_1, @object
	.size	_TIG_iO_JUCB_1___uint32_identity_1_opaque_list_1, 8
_TIG_iO_JUCB_1___uint32_identity_1_opaque_list_1:
	.zero	8
	.globl	_TIG_iO_JUCB_1___bswap_32_1_opaque_ptr_2
	.align 8
	.type	_TIG_iO_JUCB_1___bswap_32_1_opaque_ptr_2, @object
	.size	_TIG_iO_JUCB_1___bswap_32_1_opaque_ptr_2, 8
_TIG_iO_JUCB_1___bswap_32_1_opaque_ptr_2:
	.zero	8
	.globl	_TIG_iO_JUCB_1___uint16_identity_1_opaque_ptr_1
	.align 8
	.type	_TIG_iO_JUCB_1___uint16_identity_1_opaque_ptr_1, @object
	.size	_TIG_iO_JUCB_1___uint16_identity_1_opaque_ptr_1, 8
_TIG_iO_JUCB_1___uint16_identity_1_opaque_ptr_1:
	.zero	8
	.globl	_TIG_iO_JUCB_1___bswap_32_1_opaque_list_1
	.align 8
	.type	_TIG_iO_JUCB_1___bswap_32_1_opaque_list_1, @object
	.size	_TIG_iO_JUCB_1___bswap_32_1_opaque_list_1, 8
_TIG_iO_JUCB_1___bswap_32_1_opaque_list_1:
	.zero	8
	.globl	_TIG_iO_JUCB_1___bswap_64_1_opaque_ptr_2
	.align 8
	.type	_TIG_iO_JUCB_1___bswap_64_1_opaque_ptr_2, @object
	.size	_TIG_iO_JUCB_1___bswap_64_1_opaque_ptr_2, 8
_TIG_iO_JUCB_1___bswap_64_1_opaque_ptr_2:
	.zero	8
	.globl	_TIG_iO_JUCB_1___uint64_identity_1_opaque_list_1
	.align 8
	.type	_TIG_iO_JUCB_1___uint64_identity_1_opaque_list_1, @object
	.size	_TIG_iO_JUCB_1___uint64_identity_1_opaque_list_1, 8
_TIG_iO_JUCB_1___uint64_identity_1_opaque_list_1:
	.zero	8
	.globl	_TIG_iO_JUCB_1___uint32_identity_1_opaque_ptr_2
	.align 8
	.type	_TIG_iO_JUCB_1___uint32_identity_1_opaque_ptr_2, @object
	.size	_TIG_iO_JUCB_1___uint32_identity_1_opaque_ptr_2, 8
_TIG_iO_JUCB_1___uint32_identity_1_opaque_ptr_2:
	.zero	8
	.globl	_TIG_iO_JUCB_1___uint64_identity_1_opaque_list_2
	.align 8
	.type	_TIG_iO_JUCB_1___uint64_identity_1_opaque_list_2, @object
	.size	_TIG_iO_JUCB_1___uint64_identity_1_opaque_list_2, 8
_TIG_iO_JUCB_1___uint64_identity_1_opaque_list_2:
	.zero	8
	.globl	_TIG_iO_JUCB_1___uint32_identity_1_opaque_list_2
	.align 8
	.type	_TIG_iO_JUCB_1___uint32_identity_1_opaque_list_2, @object
	.size	_TIG_iO_JUCB_1___uint32_identity_1_opaque_list_2, 8
_TIG_iO_JUCB_1___uint32_identity_1_opaque_list_2:
	.zero	8
	.globl	_TIG_IZ_JUCB_argv
	.align 8
	.type	_TIG_IZ_JUCB_argv, @object
	.size	_TIG_IZ_JUCB_argv, 8
_TIG_IZ_JUCB_argv:
	.zero	8
	.globl	_TIG_iO_JUCB_1___bswap_16_1_opaque_list_2
	.align 8
	.type	_TIG_iO_JUCB_1___bswap_16_1_opaque_list_2, @object
	.size	_TIG_iO_JUCB_1___bswap_16_1_opaque_list_2, 8
_TIG_iO_JUCB_1___bswap_16_1_opaque_list_2:
	.zero	8
	.globl	_TIG_iO_JUCB_1___uint32_identity_1_opaque_ptr_1
	.align 8
	.type	_TIG_iO_JUCB_1___uint32_identity_1_opaque_ptr_1, @object
	.size	_TIG_iO_JUCB_1___uint32_identity_1_opaque_ptr_1, 8
_TIG_iO_JUCB_1___uint32_identity_1_opaque_ptr_1:
	.zero	8
	.globl	_TIG_IZ_JUCB_argc
	.align 4
	.type	_TIG_IZ_JUCB_argc, @object
	.size	_TIG_IZ_JUCB_argc, 4
_TIG_IZ_JUCB_argc:
	.zero	4
	.globl	_TIG_iO_JUCB_1___bswap_64_1_opaque_ptr_1
	.align 8
	.type	_TIG_iO_JUCB_1___bswap_64_1_opaque_ptr_1, @object
	.size	_TIG_iO_JUCB_1___bswap_64_1_opaque_ptr_1, 8
_TIG_iO_JUCB_1___bswap_64_1_opaque_ptr_1:
	.zero	8
	.globl	_TIG_IZ_JUCB_envp
	.align 8
	.type	_TIG_IZ_JUCB_envp, @object
	.size	_TIG_IZ_JUCB_envp, 8
_TIG_IZ_JUCB_envp:
	.zero	8
	.globl	_TIG_iO_JUCB_1_calculate_area_1_opaque_ptr_2
	.align 8
	.type	_TIG_iO_JUCB_1_calculate_area_1_opaque_ptr_2, @object
	.size	_TIG_iO_JUCB_1_calculate_area_1_opaque_ptr_2, 8
_TIG_iO_JUCB_1_calculate_area_1_opaque_ptr_2:
	.zero	8
	.globl	_TIG_iO_JUCB_1___bswap_64_1_opaque_list_2
	.align 8
	.type	_TIG_iO_JUCB_1___bswap_64_1_opaque_list_2, @object
	.size	_TIG_iO_JUCB_1___bswap_64_1_opaque_list_2, 8
_TIG_iO_JUCB_1___bswap_64_1_opaque_list_2:
	.zero	8
	.globl	_TIG_iO_JUCB_1___bswap_16_1_opaque_list_1
	.align 8
	.type	_TIG_iO_JUCB_1___bswap_16_1_opaque_list_1, @object
	.size	_TIG_iO_JUCB_1___bswap_16_1_opaque_list_1, 8
_TIG_iO_JUCB_1___bswap_16_1_opaque_list_1:
	.zero	8
	.globl	_TIG_iO_JUCB_1___uint16_identity_1_opaque_list_1
	.align 8
	.type	_TIG_iO_JUCB_1___uint16_identity_1_opaque_list_1, @object
	.size	_TIG_iO_JUCB_1___uint16_identity_1_opaque_list_1, 8
_TIG_iO_JUCB_1___uint16_identity_1_opaque_list_1:
	.zero	8
	.globl	_TIG_iO_JUCB_1_calculate_area_1_opaque_list_1
	.align 8
	.type	_TIG_iO_JUCB_1_calculate_area_1_opaque_list_1, @object
	.size	_TIG_iO_JUCB_1_calculate_area_1_opaque_list_1, 8
_TIG_iO_JUCB_1_calculate_area_1_opaque_list_1:
	.zero	8
	.globl	_TIG_iO_JUCB_1___bswap_16_1_opaque_ptr_1
	.align 8
	.type	_TIG_iO_JUCB_1___bswap_16_1_opaque_ptr_1, @object
	.size	_TIG_iO_JUCB_1___bswap_16_1_opaque_ptr_1, 8
_TIG_iO_JUCB_1___bswap_16_1_opaque_ptr_1:
	.zero	8
	.globl	_TIG_iO_JUCB_1___bswap_64_1_opaque_list_1
	.align 8
	.type	_TIG_iO_JUCB_1___bswap_64_1_opaque_list_1, @object
	.size	_TIG_iO_JUCB_1___bswap_64_1_opaque_list_1, 8
_TIG_iO_JUCB_1___bswap_64_1_opaque_list_1:
	.zero	8
	.globl	_TIG_iO_JUCB_1___uint16_identity_1_opaque_ptr_2
	.align 8
	.type	_TIG_iO_JUCB_1___uint16_identity_1_opaque_ptr_2, @object
	.size	_TIG_iO_JUCB_1___uint16_identity_1_opaque_ptr_2, 8
_TIG_iO_JUCB_1___uint16_identity_1_opaque_ptr_2:
	.zero	8
	.section	.rodata
.LC0:
	.string	"Side: %.2f, Square: %.2f\n"
	.text
	.globl	calculate_area
	.type	calculate_area, @function
calculate_area:
.LFB2:
	.cfi_startproc
	endbr64
	pushq	%rbp
	.cfi_def_cfa_offset 16
	.cfi_offset 6, -16
	movq	%rsp, %rbp
	.cfi_def_cfa_register 6
	subq	$80, %rsp
	movss	%xmm0, -68(%rbp)
#APP
# 69 "/usr/include/x86_64-linux-gnu/bits/uintn-identity.h" 1
	##_ANNOTATION_INITIALREGION_-TIG-iO-JUCB-1-calculate-area--14
# 0 "" 2
# 73 "/usr/include/x86_64-linux-gnu/bits/uintn-identity.h" 1
	##_ANNOTATION_ATOMICREGION_-TIG-iO-JUCB-1-calculate-area--13
# 0 "" 2
#NO_APP
	movl	$24, %edi
	call	malloc@PLT
	movq	%rax, -40(%rbp)
	movq	-40(%rbp), %rax
	movq	-40(%rbp), %rdx
	movq	%rdx, (%rax)
	movq	-40(%rbp), %rax
	movq	-40(%rbp), %rdx
	movq	%rdx, 8(%rax)
	movq	-40(%rbp), %rax
	movq	%rax, _TIG_iO_JUCB_1_calculate_area_1_opaque_list_1(%rip)
	call	rand@PLT
	movl	%eax, -60(%rbp)
	movl	$24, %edi
	call	malloc@PLT
	movq	%rax, -32(%rbp)
	movq	-32(%rbp), %rax
	movl	$0, 16(%rax)
	movq	_TIG_iO_JUCB_1_calculate_area_1_opaque_list_1(%rip), %rax
	movq	(%rax), %rdx
	movq	-32(%rbp), %rax
	movq	%rdx, (%rax)
	movq	_TIG_iO_JUCB_1_calculate_area_1_opaque_list_1(%rip), %rdx
	movq	-32(%rbp), %rax
	movq	%rdx, 8(%rax)
	movq	_TIG_iO_JUCB_1_calculate_area_1_opaque_list_1(%rip), %rax
	movq	(%rax), %rax
	movq	-32(%rbp), %rdx
	movq	%rdx, 8(%rax)
	movq	_TIG_iO_JUCB_1_calculate_area_1_opaque_list_1(%rip), %rax
	movq	-32(%rbp), %rdx
	movq	%rdx, (%rax)
	call	rand@PLT
	movl	%eax, -56(%rbp)
	movl	$24, %edi
	call	malloc@PLT
	movq	%rax, -24(%rbp)
	movq	-24(%rbp), %rax
	movl	-56(%rbp), %edx
	movl	%edx, 16(%rax)
	movq	_TIG_iO_JUCB_1_calculate_area_1_opaque_list_1(%rip), %rax
	movq	(%rax), %rdx
	movq	-24(%rbp), %rax
	movq	%rdx, (%rax)
	movq	_TIG_iO_JUCB_1_calculate_area_1_opaque_list_1(%rip), %rdx
	movq	-24(%rbp), %rax
	movq	%rdx, 8(%rax)
	movq	_TIG_iO_JUCB_1_calculate_area_1_opaque_list_1(%rip), %rax
	movq	(%rax), %rax
	movq	-24(%rbp), %rdx
	movq	%rdx, 8(%rax)
	movq	_TIG_iO_JUCB_1_calculate_area_1_opaque_list_1(%rip), %rax
	movq	-24(%rbp), %rdx
	movq	%rdx, (%rax)
	call	rand@PLT
	movl	%eax, -52(%rbp)
	movl	$24, %edi
	call	malloc@PLT
	movq	%rax, -16(%rbp)
	movl	-52(%rbp), %eax
	leal	(%rax,%rax), %edx
	movq	-16(%rbp), %rax
	movl	%edx, 16(%rax)
	movq	_TIG_iO_JUCB_1_calculate_area_1_opaque_list_1(%rip), %rax
	movq	(%rax), %rdx
	movq	-16(%rbp), %rax
	movq	%rdx, (%rax)
	movq	_TIG_iO_JUCB_1_calculate_area_1_opaque_list_1(%rip), %rdx
	movq	-16(%rbp), %rax
	movq	%rdx, 8(%rax)
	movq	_TIG_iO_JUCB_1_calculate_area_1_opaque_list_1(%rip), %rax
	movq	(%rax), %rax
	movq	-16(%rbp), %rdx
	movq	%rdx, 8(%rax)
	movq	_TIG_iO_JUCB_1_calculate_area_1_opaque_list_1(%rip), %rax
	movq	-16(%rbp), %rdx
	movq	%rdx, (%rax)
	call	rand@PLT
	movl	%eax, -48(%rbp)
	movl	$24, %edi
	call	malloc@PLT
	movq	%rax, -8(%rbp)
	movl	-48(%rbp), %edx
	movl	%edx, %eax
	addl	%eax, %eax
	addl	%eax, %edx
	movq	-8(%rbp), %rax
	movl	%edx, 16(%rax)
	movq	_TIG_iO_JUCB_1_calculate_area_1_opaque_list_1(%rip), %rax
	movq	(%rax), %rdx
	movq	-8(%rbp), %rax
	movq	%rdx, (%rax)
	movq	_TIG_iO_JUCB_1_calculate_area_1_opaque_list_1(%rip), %rdx
	movq	-8(%rbp), %rax
	movq	%rdx, 8(%rax)
	movq	_TIG_iO_JUCB_1_calculate_area_1_opaque_list_1(%rip), %rax
	movq	(%rax), %rax
	movq	-8(%rbp), %rdx
	movq	%rdx, 8(%rax)
	movq	_TIG_iO_JUCB_1_calculate_area_1_opaque_list_1(%rip), %rax
	movq	-8(%rbp), %rdx
	movq	%rdx, (%rax)
	movq	_TIG_iO_JUCB_1_calculate_area_1_opaque_list_1(%rip), %rax
	movq	(%rax), %rax
	movq	%rax, _TIG_iO_JUCB_1_calculate_area_1_opaque_ptr_1(%rip)
	movq	_TIG_iO_JUCB_1_calculate_area_1_opaque_ptr_1(%rip), %rax
	movq	%rax, _TIG_iO_JUCB_1_calculate_area_1_opaque_ptr_2(%rip)
	movq	_TIG_iO_JUCB_1_calculate_area_1_opaque_ptr_2(%rip), %rax
	movq	(%rax), %rax
	movq	%rax, _TIG_iO_JUCB_1_calculate_area_1_opaque_ptr_2(%rip)
	nop
	nop
	movss	-68(%rbp), %xmm0
	mulss	%xmm0, %xmm0
	movss	%xmm0, -44(%rbp)
	pxor	%xmm0, %xmm0
	cvtss2sd	-44(%rbp), %xmm0
	pxor	%xmm2, %xmm2
	cvtss2sd	-68(%rbp), %xmm2
	movq	%xmm2, %rax
	movapd	%xmm0, %xmm1
	movq	%rax, %xmm0
	leaq	.LC0(%rip), %rax
	movq	%rax, %rdi
	movl	$2, %eax
	call	printf@PLT
	movq	_TIG_iO_JUCB_1_main_1_opaque_ptr_1(%rip), %rdx
	movq	_TIG_iO_JUCB_1_main_1_opaque_ptr_2(%rip), %rax
	cmpq	%rax, %rdx
	leave
	.cfi_def_cfa 7, 8
	ret
	.cfi_endproc
.LFE2:
	.size	calculate_area, .-calculate_area
	.section	.rodata
.LC1:
	.string	"Use: %s <side1> <side2> ...n"
.LC2:
	.string	"num_sides: %d \n"
.LC3:
	.string	"MID: %d \n"
.LC4:
	.string	"Error fork"
.LC5:
	.string	"Doughter"
.LC6:
	.string	"Parent"
	.text
	.globl	main
	.type	main, @function
main:
.LFB5:
	.cfi_startproc
	endbr64
	pushq	%rbp
	.cfi_def_cfa_offset 16
	.cfi_offset 6, -16
	movq	%rsp, %rbp
	.cfi_def_cfa_register 6
	subq	$112, %rsp
	movl	%edi, -84(%rbp)
	movq	%rsi, -96(%rbp)
	movq	%rdx, -104(%rbp)
	movq	$0, _TIG_IZ_JUCB_envp(%rip)
	nop
.L4:
	movq	$0, _TIG_IZ_JUCB_argv(%rip)
	nop
.L5:
	movl	$0, _TIG_IZ_JUCB_argc(%rip)
	nop
	nop
.L6:
.L7:
#APP
# 126 "/usr/include/x86_64-linux-gnu/bits/byteswap.h" 1
	##_ANNOTATION_INITIALREGION_-TIG-IZ-JUCB--0
# 0 "" 2
#NO_APP
	movl	-84(%rbp), %eax
	movl	%eax, _TIG_IZ_JUCB_argc(%rip)
	movq	-96(%rbp), %rax
	movq	%rax, _TIG_IZ_JUCB_argv(%rip)
	movq	-104(%rbp), %rax
	movq	%rax, _TIG_IZ_JUCB_envp(%rip)
#APP
# 133 "/usr/include/x86_64-linux-gnu/bits/byteswap.h" 1
	##_ANNOTATION_ATOMICREGION_-TIG-iO-JUCB-1-main--15
# 0 "" 2
#NO_APP
	movl	$24, %edi
	call	malloc@PLT
	movq	%rax, -40(%rbp)
	movq	-40(%rbp), %rax
	movq	-40(%rbp), %rdx
	movq	%rdx, 16(%rax)
	movq	-40(%rbp), %rax
	movq	-40(%rbp), %rdx
	movq	%rdx, 8(%rax)
	movq	-40(%rbp), %rax
	movq	%rax, _TIG_iO_JUCB_1_main_1_opaque_list_1(%rip)
	call	rand@PLT
	movl	%eax, -72(%rbp)
	movl	$24, %edi
	call	malloc@PLT
	movq	%rax, -32(%rbp)
	movq	-32(%rbp), %rax
	movl	$0, (%rax)
	movq	_TIG_iO_JUCB_1_main_1_opaque_list_1(%rip), %rax
	movq	16(%rax), %rdx
	movq	-32(%rbp), %rax
	movq	%rdx, 16(%rax)
	movq	_TIG_iO_JUCB_1_main_1_opaque_list_1(%rip), %rdx
	movq	-32(%rbp), %rax
	movq	%rdx, 8(%rax)
	movq	_TIG_iO_JUCB_1_main_1_opaque_list_1(%rip), %rax
	movq	16(%rax), %rax
	movq	-32(%rbp), %rdx
	movq	%rdx, 8(%rax)
	movq	_TIG_iO_JUCB_1_main_1_opaque_list_1(%rip), %rax
	movq	-32(%rbp), %rdx
	movq	%rdx, 16(%rax)
	call	rand@PLT
	movl	%eax, -68(%rbp)
	movl	$24, %edi
	call	malloc@PLT
	movq	%rax, -24(%rbp)
	movq	-24(%rbp), %rax
	movl	-68(%rbp), %edx
	movl	%edx, (%rax)
	movq	_TIG_iO_JUCB_1_main_1_opaque_list_1(%rip), %rax
	movq	16(%rax), %rdx
	movq	-24(%rbp), %rax
	movq	%rdx, 16(%rax)
	movq	_TIG_iO_JUCB_1_main_1_opaque_list_1(%rip), %rdx
	movq	-24(%rbp), %rax
	movq	%rdx, 8(%rax)
	movq	_TIG_iO_JUCB_1_main_1_opaque_list_1(%rip), %rax
	movq	16(%rax), %rax
	movq	-24(%rbp), %rdx
	movq	%rdx, 8(%rax)
	movq	_TIG_iO_JUCB_1_main_1_opaque_list_1(%rip), %rax
	movq	-24(%rbp), %rdx
	movq	%rdx, 16(%rax)
	movq	_TIG_iO_JUCB_1_main_1_opaque_list_1(%rip), %rax
	movq	16(%rax), %rax
	movq	%rax, _TIG_iO_JUCB_1_main_1_opaque_ptr_1(%rip)
	movq	_TIG_iO_JUCB_1_main_1_opaque_ptr_1(%rip), %rax
	movq	%rax, _TIG_iO_JUCB_1_main_1_opaque_ptr_2(%rip)
	nop
	nop
	cmpl	$1, -84(%rbp)
	jg	.L8
	movq	-96(%rbp), %rax
	movq	(%rax), %rdx
	movq	stderr(%rip), %rax
	leaq	.LC1(%rip), %rcx
	movq	%rcx, %rsi
	movq	%rax, %rdi
	movl	$0, %eax
	call	fprintf@PLT
	movl	$1, %eax
	jmp	.L9
.L8:
	movl	-84(%rbp), %eax
	subl	$1, %eax
	movl	%eax, -64(%rbp)
	movl	-64(%rbp), %eax
	movl	%eax, %esi
	leaq	.LC2(%rip), %rax
	movq	%rax, %rdi
	movl	$0, %eax
	call	printf@PLT
	movl	-64(%rbp), %eax
	movl	%eax, %edx
	shrl	$31, %edx
	addl	%edx, %eax
	sarl	%eax
	movl	%eax, -60(%rbp)
	movl	-60(%rbp), %eax
	movl	%eax, %esi
	leaq	.LC3(%rip), %rax
	movq	%rax, %rdi
	movl	$0, %eax
	call	printf@PLT
	call	fork@PLT
	movl	%eax, -56(%rbp)
	movl	-56(%rbp), %eax
	movl	%eax, -52(%rbp)
	cmpl	$0, -52(%rbp)
	jns	.L10
	leaq	.LC4(%rip), %rax
	movq	%rax, %rdi
	call	perror@PLT
	movl	$1, %eax
	jmp	.L9
.L10:
	cmpl	$0, -52(%rbp)
	jne	.L11
	movl	-60(%rbp), %eax
	movl	%eax, -80(%rbp)
	jmp	.L12
.L13:
	movl	-80(%rbp), %eax
	cltq
	addq	$1, %rax
	leaq	0(,%rax,8), %rdx
	movq	-96(%rbp), %rax
	addq	%rdx, %rax
	movq	(%rax), %rax
	movq	%rax, %rdi
	call	atof@PLT
	movq	%xmm0, %rax
	movq	%rax, -8(%rbp)
	pxor	%xmm0, %xmm0
	cvtsd2ss	-8(%rbp), %xmm0
	movss	%xmm0, -44(%rbp)
	movl	-44(%rbp), %eax
	movd	%eax, %xmm0
	call	calculate_area
	leaq	.LC5(%rip), %rax
	movq	%rax, %rdi
	call	puts@PLT
	addl	$1, -80(%rbp)
.L12:
	movl	-80(%rbp), %eax
	cmpl	-64(%rbp), %eax
	jl	.L13
	movl	$0, %edi
	call	exit@PLT
.L11:
	movl	$1, -76(%rbp)
	jmp	.L14
.L16:
	movq	_TIG_iO_JUCB_1_main_1_opaque_ptr_1(%rip), %rdx
	movq	_TIG_iO_JUCB_1_main_1_opaque_ptr_2(%rip), %rax
	cmpq	%rax, %rdx
	jne	.L15
	movl	-76(%rbp), %eax
	cltq
	leaq	0(,%rax,8), %rdx
	movq	-96(%rbp), %rax
	addq	%rdx, %rax
	movq	(%rax), %rax
	movq	%rax, %rdi
	call	atof@PLT
	movq	%xmm0, %rax
	movq	%rax, -16(%rbp)
	pxor	%xmm0, %xmm0
	cvtsd2ss	-16(%rbp), %xmm0
	movss	%xmm0, -48(%rbp)
	movl	-48(%rbp), %eax
	movd	%eax, %xmm0
	call	calculate_area
	leaq	.LC6(%rip), %rax
	movq	%rax, %rdi
	call	puts@PLT
	addl	$1, -76(%rbp)
	jmp	.L14
.L15:
#APP
# 40 "Ageliques_Module3_1.c" 1
	.byte 0xff
# 0 "" 2
#NO_APP
.L14:
	movl	-76(%rbp), %eax
	cmpl	-60(%rbp), %eax
	jle	.L16
	movl	$0, %eax
.L9:
	leave
	.cfi_def_cfa 7, 8
	ret
	.cfi_endproc
.LFE5:
	.size	main, .-main
	.ident	"GCC: (Ubuntu 11.4.0-1ubuntu1~22.04) 11.4.0"
	.section	.note.GNU-stack,"",@progbits
	.section	.note.gnu.property,"a"
	.align 8
	.long	1f - 0f
	.long	4f - 1f
	.long	5
0:
	.string	"GNU"
1:
	.align 8
	.long	0xc0000002
	.long	3f - 2f
2:
	.long	0x3
3:
	.align 8
4:
