	.file	"akmalscript_data-structure_coret_opaque.c"
	.text
	.globl	_TIG_iO_cxF5_1___uint32_identity_1_opaque_ptr_2
	.bss
	.align 8
	.type	_TIG_iO_cxF5_1___uint32_identity_1_opaque_ptr_2, @object
	.size	_TIG_iO_cxF5_1___uint32_identity_1_opaque_ptr_2, 8
_TIG_iO_cxF5_1___uint32_identity_1_opaque_ptr_2:
	.zero	8
	.globl	_TIG_iO_cxF5_1_insertAtFront_1_opaque_list_2
	.align 8
	.type	_TIG_iO_cxF5_1_insertAtFront_1_opaque_list_2, @object
	.size	_TIG_iO_cxF5_1_insertAtFront_1_opaque_list_2, 8
_TIG_iO_cxF5_1_insertAtFront_1_opaque_list_2:
	.zero	8
	.globl	_TIG_iO_cxF5_1_insertAtEnd_1_opaque_list_2
	.align 8
	.type	_TIG_iO_cxF5_1_insertAtEnd_1_opaque_list_2, @object
	.size	_TIG_iO_cxF5_1_insertAtEnd_1_opaque_list_2, 8
_TIG_iO_cxF5_1_insertAtEnd_1_opaque_list_2:
	.zero	8
	.globl	_TIG_iO_cxF5_1_insertAtPosition_1_opaque_ptr_2
	.align 8
	.type	_TIG_iO_cxF5_1_insertAtPosition_1_opaque_ptr_2, @object
	.size	_TIG_iO_cxF5_1_insertAtPosition_1_opaque_ptr_2, 8
_TIG_iO_cxF5_1_insertAtPosition_1_opaque_ptr_2:
	.zero	8
	.globl	_TIG_iO_cxF5_1_createNode_1_opaque_list_1
	.align 8
	.type	_TIG_iO_cxF5_1_createNode_1_opaque_list_1, @object
	.size	_TIG_iO_cxF5_1_createNode_1_opaque_list_1, 8
_TIG_iO_cxF5_1_createNode_1_opaque_list_1:
	.zero	8
	.globl	_TIG_iO_cxF5_1___uint64_identity_1_opaque_list_1
	.align 8
	.type	_TIG_iO_cxF5_1___uint64_identity_1_opaque_list_1, @object
	.size	_TIG_iO_cxF5_1___uint64_identity_1_opaque_list_1, 8
_TIG_iO_cxF5_1___uint64_identity_1_opaque_list_1:
	.zero	8
	.globl	_TIG_iO_cxF5_1_insertAtEnd_1_opaque_ptr_2
	.align 8
	.type	_TIG_iO_cxF5_1_insertAtEnd_1_opaque_ptr_2, @object
	.size	_TIG_iO_cxF5_1_insertAtEnd_1_opaque_ptr_2, 8
_TIG_iO_cxF5_1_insertAtEnd_1_opaque_ptr_2:
	.zero	8
	.globl	_TIG_iO_cxF5_1___uint64_identity_1_opaque_ptr_2
	.align 8
	.type	_TIG_iO_cxF5_1___uint64_identity_1_opaque_ptr_2, @object
	.size	_TIG_iO_cxF5_1___uint64_identity_1_opaque_ptr_2, 8
_TIG_iO_cxF5_1___uint64_identity_1_opaque_ptr_2:
	.zero	8
	.globl	_TIG_iO_cxF5_1_insertAtPosition_1_opaque_list_1
	.align 8
	.type	_TIG_iO_cxF5_1_insertAtPosition_1_opaque_list_1, @object
	.size	_TIG_iO_cxF5_1_insertAtPosition_1_opaque_list_1, 8
_TIG_iO_cxF5_1_insertAtPosition_1_opaque_list_1:
	.zero	8
	.globl	_TIG_iO_cxF5_1_createNode_1_opaque_list_2
	.align 8
	.type	_TIG_iO_cxF5_1_createNode_1_opaque_list_2, @object
	.size	_TIG_iO_cxF5_1_createNode_1_opaque_list_2, 8
_TIG_iO_cxF5_1_createNode_1_opaque_list_2:
	.zero	8
	.globl	_TIG_iO_cxF5_1___bswap_64_1_opaque_ptr_2
	.align 8
	.type	_TIG_iO_cxF5_1___bswap_64_1_opaque_ptr_2, @object
	.size	_TIG_iO_cxF5_1___bswap_64_1_opaque_ptr_2, 8
_TIG_iO_cxF5_1___bswap_64_1_opaque_ptr_2:
	.zero	8
	.globl	_TIG_iO_cxF5_1___uint64_identity_1_opaque_list_2
	.align 8
	.type	_TIG_iO_cxF5_1___uint64_identity_1_opaque_list_2, @object
	.size	_TIG_iO_cxF5_1___uint64_identity_1_opaque_list_2, 8
_TIG_iO_cxF5_1___uint64_identity_1_opaque_list_2:
	.zero	8
	.globl	_TIG_IZ_cxF5_envp
	.align 8
	.type	_TIG_IZ_cxF5_envp, @object
	.size	_TIG_IZ_cxF5_envp, 8
_TIG_IZ_cxF5_envp:
	.zero	8
	.globl	_TIG_iO_cxF5_1___bswap_16_1_opaque_ptr_2
	.align 8
	.type	_TIG_iO_cxF5_1___bswap_16_1_opaque_ptr_2, @object
	.size	_TIG_iO_cxF5_1___bswap_16_1_opaque_ptr_2, 8
_TIG_iO_cxF5_1___bswap_16_1_opaque_ptr_2:
	.zero	8
	.globl	_TIG_iO_cxF5_1_main_1_opaque_ptr_2
	.align 8
	.type	_TIG_iO_cxF5_1_main_1_opaque_ptr_2, @object
	.size	_TIG_iO_cxF5_1_main_1_opaque_ptr_2, 8
_TIG_iO_cxF5_1_main_1_opaque_ptr_2:
	.zero	8
	.globl	_TIG_iO_cxF5_1___bswap_16_1_opaque_ptr_1
	.align 8
	.type	_TIG_iO_cxF5_1___bswap_16_1_opaque_ptr_1, @object
	.size	_TIG_iO_cxF5_1___bswap_16_1_opaque_ptr_1, 8
_TIG_iO_cxF5_1___bswap_16_1_opaque_ptr_1:
	.zero	8
	.globl	_TIG_iO_cxF5_1_insertAtPosition_1_opaque_ptr_1
	.align 8
	.type	_TIG_iO_cxF5_1_insertAtPosition_1_opaque_ptr_1, @object
	.size	_TIG_iO_cxF5_1_insertAtPosition_1_opaque_ptr_1, 8
_TIG_iO_cxF5_1_insertAtPosition_1_opaque_ptr_1:
	.zero	8
	.globl	_TIG_iO_cxF5_1_insertAfter_1_opaque_ptr_2
	.align 8
	.type	_TIG_iO_cxF5_1_insertAfter_1_opaque_ptr_2, @object
	.size	_TIG_iO_cxF5_1_insertAfter_1_opaque_ptr_2, 8
_TIG_iO_cxF5_1_insertAfter_1_opaque_ptr_2:
	.zero	8
	.globl	_TIG_iO_cxF5_1_insertAtPosition_1_opaque_list_2
	.align 8
	.type	_TIG_iO_cxF5_1_insertAtPosition_1_opaque_list_2, @object
	.size	_TIG_iO_cxF5_1_insertAtPosition_1_opaque_list_2, 8
_TIG_iO_cxF5_1_insertAtPosition_1_opaque_list_2:
	.zero	8
	.globl	_TIG_iO_cxF5_1_printList_1_opaque_list_1
	.align 8
	.type	_TIG_iO_cxF5_1_printList_1_opaque_list_1, @object
	.size	_TIG_iO_cxF5_1_printList_1_opaque_list_1, 8
_TIG_iO_cxF5_1_printList_1_opaque_list_1:
	.zero	8
	.globl	_TIG_IZ_cxF5_argv
	.align 8
	.type	_TIG_IZ_cxF5_argv, @object
	.size	_TIG_IZ_cxF5_argv, 8
_TIG_IZ_cxF5_argv:
	.zero	8
	.globl	_TIG_iO_cxF5_1___uint16_identity_1_opaque_ptr_1
	.align 8
	.type	_TIG_iO_cxF5_1___uint16_identity_1_opaque_ptr_1, @object
	.size	_TIG_iO_cxF5_1___uint16_identity_1_opaque_ptr_1, 8
_TIG_iO_cxF5_1___uint16_identity_1_opaque_ptr_1:
	.zero	8
	.globl	_TIG_iO_cxF5_1___uint32_identity_1_opaque_ptr_1
	.align 8
	.type	_TIG_iO_cxF5_1___uint32_identity_1_opaque_ptr_1, @object
	.size	_TIG_iO_cxF5_1___uint32_identity_1_opaque_ptr_1, 8
_TIG_iO_cxF5_1___uint32_identity_1_opaque_ptr_1:
	.zero	8
	.globl	_TIG_iO_cxF5_1___uint16_identity_1_opaque_list_1
	.align 8
	.type	_TIG_iO_cxF5_1___uint16_identity_1_opaque_list_1, @object
	.size	_TIG_iO_cxF5_1___uint16_identity_1_opaque_list_1, 8
_TIG_iO_cxF5_1___uint16_identity_1_opaque_list_1:
	.zero	8
	.globl	_TIG_iO_cxF5_1_insertAtFront_1_opaque_ptr_2
	.align 8
	.type	_TIG_iO_cxF5_1_insertAtFront_1_opaque_ptr_2, @object
	.size	_TIG_iO_cxF5_1_insertAtFront_1_opaque_ptr_2, 8
_TIG_iO_cxF5_1_insertAtFront_1_opaque_ptr_2:
	.zero	8
	.globl	_TIG_iO_cxF5_1_printList_1_opaque_list_2
	.align 8
	.type	_TIG_iO_cxF5_1_printList_1_opaque_list_2, @object
	.size	_TIG_iO_cxF5_1_printList_1_opaque_list_2, 8
_TIG_iO_cxF5_1_printList_1_opaque_list_2:
	.zero	8
	.globl	_TIG_iO_cxF5_1___uint32_identity_1_opaque_list_1
	.align 8
	.type	_TIG_iO_cxF5_1___uint32_identity_1_opaque_list_1, @object
	.size	_TIG_iO_cxF5_1___uint32_identity_1_opaque_list_1, 8
_TIG_iO_cxF5_1___uint32_identity_1_opaque_list_1:
	.zero	8
	.globl	_TIG_iO_cxF5_1___bswap_32_1_opaque_list_1
	.align 8
	.type	_TIG_iO_cxF5_1___bswap_32_1_opaque_list_1, @object
	.size	_TIG_iO_cxF5_1___bswap_32_1_opaque_list_1, 8
_TIG_iO_cxF5_1___bswap_32_1_opaque_list_1:
	.zero	8
	.globl	_TIG_iO_cxF5_1_createNode_1_opaque_ptr_2
	.align 8
	.type	_TIG_iO_cxF5_1_createNode_1_opaque_ptr_2, @object
	.size	_TIG_iO_cxF5_1_createNode_1_opaque_ptr_2, 8
_TIG_iO_cxF5_1_createNode_1_opaque_ptr_2:
	.zero	8
	.globl	_TIG_iO_cxF5_1___bswap_16_1_opaque_list_1
	.align 8
	.type	_TIG_iO_cxF5_1___bswap_16_1_opaque_list_1, @object
	.size	_TIG_iO_cxF5_1___bswap_16_1_opaque_list_1, 8
_TIG_iO_cxF5_1___bswap_16_1_opaque_list_1:
	.zero	8
	.globl	_TIG_iO_cxF5_1_insertAtEnd_1_opaque_list_1
	.align 8
	.type	_TIG_iO_cxF5_1_insertAtEnd_1_opaque_list_1, @object
	.size	_TIG_iO_cxF5_1_insertAtEnd_1_opaque_list_1, 8
_TIG_iO_cxF5_1_insertAtEnd_1_opaque_list_1:
	.zero	8
	.globl	_TIG_iO_cxF5_1___bswap_32_1_opaque_list_2
	.align 8
	.type	_TIG_iO_cxF5_1___bswap_32_1_opaque_list_2, @object
	.size	_TIG_iO_cxF5_1___bswap_32_1_opaque_list_2, 8
_TIG_iO_cxF5_1___bswap_32_1_opaque_list_2:
	.zero	8
	.globl	_TIG_iO_cxF5_1_insertAfter_1_opaque_ptr_1
	.align 8
	.type	_TIG_iO_cxF5_1_insertAfter_1_opaque_ptr_1, @object
	.size	_TIG_iO_cxF5_1_insertAfter_1_opaque_ptr_1, 8
_TIG_iO_cxF5_1_insertAfter_1_opaque_ptr_1:
	.zero	8
	.globl	_TIG_iO_cxF5_1___uint32_identity_1_opaque_list_2
	.align 8
	.type	_TIG_iO_cxF5_1___uint32_identity_1_opaque_list_2, @object
	.size	_TIG_iO_cxF5_1___uint32_identity_1_opaque_list_2, 8
_TIG_iO_cxF5_1___uint32_identity_1_opaque_list_2:
	.zero	8
	.globl	_TIG_iO_cxF5_1_insertAtFront_1_opaque_ptr_1
	.align 8
	.type	_TIG_iO_cxF5_1_insertAtFront_1_opaque_ptr_1, @object
	.size	_TIG_iO_cxF5_1_insertAtFront_1_opaque_ptr_1, 8
_TIG_iO_cxF5_1_insertAtFront_1_opaque_ptr_1:
	.zero	8
	.globl	_TIG_iO_cxF5_1_insertAtFront_1_opaque_list_1
	.align 8
	.type	_TIG_iO_cxF5_1_insertAtFront_1_opaque_list_1, @object
	.size	_TIG_iO_cxF5_1_insertAtFront_1_opaque_list_1, 8
_TIG_iO_cxF5_1_insertAtFront_1_opaque_list_1:
	.zero	8
	.globl	_TIG_iO_cxF5_1___uint16_identity_1_opaque_ptr_2
	.align 8
	.type	_TIG_iO_cxF5_1___uint16_identity_1_opaque_ptr_2, @object
	.size	_TIG_iO_cxF5_1___uint16_identity_1_opaque_ptr_2, 8
_TIG_iO_cxF5_1___uint16_identity_1_opaque_ptr_2:
	.zero	8
	.globl	_TIG_iO_cxF5_1___bswap_16_1_opaque_list_2
	.align 8
	.type	_TIG_iO_cxF5_1___bswap_16_1_opaque_list_2, @object
	.size	_TIG_iO_cxF5_1___bswap_16_1_opaque_list_2, 8
_TIG_iO_cxF5_1___bswap_16_1_opaque_list_2:
	.zero	8
	.globl	_TIG_iO_cxF5_1___bswap_32_1_opaque_ptr_2
	.align 8
	.type	_TIG_iO_cxF5_1___bswap_32_1_opaque_ptr_2, @object
	.size	_TIG_iO_cxF5_1___bswap_32_1_opaque_ptr_2, 8
_TIG_iO_cxF5_1___bswap_32_1_opaque_ptr_2:
	.zero	8
	.globl	_TIG_iO_cxF5_1___bswap_64_1_opaque_ptr_1
	.align 8
	.type	_TIG_iO_cxF5_1___bswap_64_1_opaque_ptr_1, @object
	.size	_TIG_iO_cxF5_1___bswap_64_1_opaque_ptr_1, 8
_TIG_iO_cxF5_1___bswap_64_1_opaque_ptr_1:
	.zero	8
	.globl	_TIG_iO_cxF5_1_main_1_opaque_list_1
	.align 8
	.type	_TIG_iO_cxF5_1_main_1_opaque_list_1, @object
	.size	_TIG_iO_cxF5_1_main_1_opaque_list_1, 8
_TIG_iO_cxF5_1_main_1_opaque_list_1:
	.zero	8
	.globl	_TIG_iO_cxF5_1___bswap_64_1_opaque_list_1
	.align 8
	.type	_TIG_iO_cxF5_1___bswap_64_1_opaque_list_1, @object
	.size	_TIG_iO_cxF5_1___bswap_64_1_opaque_list_1, 8
_TIG_iO_cxF5_1___bswap_64_1_opaque_list_1:
	.zero	8
	.globl	_TIG_iO_cxF5_1_insertAtEnd_1_opaque_ptr_1
	.align 8
	.type	_TIG_iO_cxF5_1_insertAtEnd_1_opaque_ptr_1, @object
	.size	_TIG_iO_cxF5_1_insertAtEnd_1_opaque_ptr_1, 8
_TIG_iO_cxF5_1_insertAtEnd_1_opaque_ptr_1:
	.zero	8
	.globl	_TIG_iO_cxF5_1_insertAfter_1_opaque_list_1
	.align 8
	.type	_TIG_iO_cxF5_1_insertAfter_1_opaque_list_1, @object
	.size	_TIG_iO_cxF5_1_insertAfter_1_opaque_list_1, 8
_TIG_iO_cxF5_1_insertAfter_1_opaque_list_1:
	.zero	8
	.globl	_TIG_iO_cxF5_1_main_1_opaque_ptr_1
	.align 8
	.type	_TIG_iO_cxF5_1_main_1_opaque_ptr_1, @object
	.size	_TIG_iO_cxF5_1_main_1_opaque_ptr_1, 8
_TIG_iO_cxF5_1_main_1_opaque_ptr_1:
	.zero	8
	.globl	_TIG_IZ_cxF5_argc
	.align 4
	.type	_TIG_IZ_cxF5_argc, @object
	.size	_TIG_IZ_cxF5_argc, 4
_TIG_IZ_cxF5_argc:
	.zero	4
	.globl	_TIG_iO_cxF5_1_createNode_1_opaque_ptr_1
	.align 8
	.type	_TIG_iO_cxF5_1_createNode_1_opaque_ptr_1, @object
	.size	_TIG_iO_cxF5_1_createNode_1_opaque_ptr_1, 8
_TIG_iO_cxF5_1_createNode_1_opaque_ptr_1:
	.zero	8
	.globl	_TIG_iO_cxF5_1___bswap_32_1_opaque_ptr_1
	.align 8
	.type	_TIG_iO_cxF5_1___bswap_32_1_opaque_ptr_1, @object
	.size	_TIG_iO_cxF5_1___bswap_32_1_opaque_ptr_1, 8
_TIG_iO_cxF5_1___bswap_32_1_opaque_ptr_1:
	.zero	8
	.globl	_TIG_iO_cxF5_1___bswap_64_1_opaque_list_2
	.align 8
	.type	_TIG_iO_cxF5_1___bswap_64_1_opaque_list_2, @object
	.size	_TIG_iO_cxF5_1___bswap_64_1_opaque_list_2, 8
_TIG_iO_cxF5_1___bswap_64_1_opaque_list_2:
	.zero	8
	.globl	_TIG_iO_cxF5_1_main_1_opaque_list_2
	.align 8
	.type	_TIG_iO_cxF5_1_main_1_opaque_list_2, @object
	.size	_TIG_iO_cxF5_1_main_1_opaque_list_2, 8
_TIG_iO_cxF5_1_main_1_opaque_list_2:
	.zero	8
	.globl	_TIG_iO_cxF5_1_insertAfter_1_opaque_list_2
	.align 8
	.type	_TIG_iO_cxF5_1_insertAfter_1_opaque_list_2, @object
	.size	_TIG_iO_cxF5_1_insertAfter_1_opaque_list_2, 8
_TIG_iO_cxF5_1_insertAfter_1_opaque_list_2:
	.zero	8
	.globl	_TIG_iO_cxF5_1_printList_1_opaque_ptr_1
	.align 8
	.type	_TIG_iO_cxF5_1_printList_1_opaque_ptr_1, @object
	.size	_TIG_iO_cxF5_1_printList_1_opaque_ptr_1, 8
_TIG_iO_cxF5_1_printList_1_opaque_ptr_1:
	.zero	8
	.globl	_TIG_iO_cxF5_1_printList_1_opaque_ptr_2
	.align 8
	.type	_TIG_iO_cxF5_1_printList_1_opaque_ptr_2, @object
	.size	_TIG_iO_cxF5_1_printList_1_opaque_ptr_2, 8
_TIG_iO_cxF5_1_printList_1_opaque_ptr_2:
	.zero	8
	.globl	_TIG_iO_cxF5_1___uint16_identity_1_opaque_list_2
	.align 8
	.type	_TIG_iO_cxF5_1___uint16_identity_1_opaque_list_2, @object
	.size	_TIG_iO_cxF5_1___uint16_identity_1_opaque_list_2, 8
_TIG_iO_cxF5_1___uint16_identity_1_opaque_list_2:
	.zero	8
	.globl	_TIG_iO_cxF5_1___uint64_identity_1_opaque_ptr_1
	.align 8
	.type	_TIG_iO_cxF5_1___uint64_identity_1_opaque_ptr_1, @object
	.size	_TIG_iO_cxF5_1___uint64_identity_1_opaque_ptr_1, 8
_TIG_iO_cxF5_1___uint64_identity_1_opaque_ptr_1:
	.zero	8
	.text
	.globl	createNode
	.type	createNode, @function
createNode:
.LFB0:
	.cfi_startproc
	endbr64
	pushq	%rbp
	.cfi_def_cfa_offset 16
	.cfi_offset 6, -16
	movq	%rsp, %rbp
	.cfi_def_cfa_register 6
	subq	$96, %rsp
	movl	%edi, -84(%rbp)
#APP
# 82 "/usr/include/stdlib.h" 1
	##_ANNOTATION_INITIALREGION_-TIG-iO-cxF5-1-createNode--14
# 0 "" 2
# 86 "/usr/include/stdlib.h" 1
	##_ANNOTATION_ATOMICREGION_-TIG-iO-cxF5-1-createNode--13
# 0 "" 2
#NO_APP
	movl	$24, %edi
	call	malloc@PLT
	movq	%rax, -56(%rbp)
	movq	-56(%rbp), %rax
	movq	-56(%rbp), %rdx
	movq	%rdx, (%rax)
	movq	-56(%rbp), %rax
	movq	-56(%rbp), %rdx
	movq	%rdx, 8(%rax)
	movq	-56(%rbp), %rax
	movq	%rax, _TIG_iO_cxF5_1_createNode_1_opaque_list_1(%rip)
	call	rand@PLT
	movl	%eax, -72(%rbp)
	movl	$24, %edi
	call	malloc@PLT
	movq	%rax, -48(%rbp)
	movq	-48(%rbp), %rax
	movl	$0, 16(%rax)
	movq	_TIG_iO_cxF5_1_createNode_1_opaque_list_1(%rip), %rax
	movq	(%rax), %rdx
	movq	-48(%rbp), %rax
	movq	%rdx, (%rax)
	movq	_TIG_iO_cxF5_1_createNode_1_opaque_list_1(%rip), %rdx
	movq	-48(%rbp), %rax
	movq	%rdx, 8(%rax)
	movq	_TIG_iO_cxF5_1_createNode_1_opaque_list_1(%rip), %rax
	movq	(%rax), %rax
	movq	-48(%rbp), %rdx
	movq	%rdx, 8(%rax)
	movq	_TIG_iO_cxF5_1_createNode_1_opaque_list_1(%rip), %rax
	movq	-48(%rbp), %rdx
	movq	%rdx, (%rax)
	call	rand@PLT
	movl	%eax, -68(%rbp)
	movl	$24, %edi
	call	malloc@PLT
	movq	%rax, -40(%rbp)
	movq	-40(%rbp), %rax
	movl	-68(%rbp), %edx
	movl	%edx, 16(%rax)
	movq	_TIG_iO_cxF5_1_createNode_1_opaque_list_1(%rip), %rax
	movq	(%rax), %rdx
	movq	-40(%rbp), %rax
	movq	%rdx, (%rax)
	movq	_TIG_iO_cxF5_1_createNode_1_opaque_list_1(%rip), %rdx
	movq	-40(%rbp), %rax
	movq	%rdx, 8(%rax)
	movq	_TIG_iO_cxF5_1_createNode_1_opaque_list_1(%rip), %rax
	movq	(%rax), %rax
	movq	-40(%rbp), %rdx
	movq	%rdx, 8(%rax)
	movq	_TIG_iO_cxF5_1_createNode_1_opaque_list_1(%rip), %rax
	movq	-40(%rbp), %rdx
	movq	%rdx, (%rax)
	call	rand@PLT
	movl	%eax, -64(%rbp)
	movl	$24, %edi
	call	malloc@PLT
	movq	%rax, -32(%rbp)
	movl	-64(%rbp), %eax
	leal	(%rax,%rax), %edx
	movq	-32(%rbp), %rax
	movl	%edx, 16(%rax)
	movq	_TIG_iO_cxF5_1_createNode_1_opaque_list_1(%rip), %rax
	movq	(%rax), %rdx
	movq	-32(%rbp), %rax
	movq	%rdx, (%rax)
	movq	_TIG_iO_cxF5_1_createNode_1_opaque_list_1(%rip), %rdx
	movq	-32(%rbp), %rax
	movq	%rdx, 8(%rax)
	movq	_TIG_iO_cxF5_1_createNode_1_opaque_list_1(%rip), %rax
	movq	(%rax), %rax
	movq	-32(%rbp), %rdx
	movq	%rdx, 8(%rax)
	movq	_TIG_iO_cxF5_1_createNode_1_opaque_list_1(%rip), %rax
	movq	-32(%rbp), %rdx
	movq	%rdx, (%rax)
	call	rand@PLT
	movl	%eax, -60(%rbp)
	movl	$24, %edi
	call	malloc@PLT
	movq	%rax, -24(%rbp)
	movl	-60(%rbp), %edx
	movl	%edx, %eax
	addl	%eax, %eax
	addl	%eax, %edx
	movq	-24(%rbp), %rax
	movl	%edx, 16(%rax)
	movq	_TIG_iO_cxF5_1_createNode_1_opaque_list_1(%rip), %rax
	movq	(%rax), %rdx
	movq	-24(%rbp), %rax
	movq	%rdx, (%rax)
	movq	_TIG_iO_cxF5_1_createNode_1_opaque_list_1(%rip), %rdx
	movq	-24(%rbp), %rax
	movq	%rdx, 8(%rax)
	movq	_TIG_iO_cxF5_1_createNode_1_opaque_list_1(%rip), %rax
	movq	(%rax), %rax
	movq	-24(%rbp), %rdx
	movq	%rdx, 8(%rax)
	movq	_TIG_iO_cxF5_1_createNode_1_opaque_list_1(%rip), %rax
	movq	-24(%rbp), %rdx
	movq	%rdx, (%rax)
	movq	_TIG_iO_cxF5_1_createNode_1_opaque_list_1(%rip), %rax
	movq	(%rax), %rax
	movq	%rax, _TIG_iO_cxF5_1_createNode_1_opaque_ptr_1(%rip)
	movq	_TIG_iO_cxF5_1_createNode_1_opaque_ptr_1(%rip), %rax
	movq	%rax, _TIG_iO_cxF5_1_createNode_1_opaque_ptr_2(%rip)
	movq	_TIG_iO_cxF5_1_createNode_1_opaque_ptr_2(%rip), %rax
	movq	(%rax), %rax
	movq	%rax, _TIG_iO_cxF5_1_createNode_1_opaque_ptr_2(%rip)
	nop
	nop
	movl	$16, %edi
	call	malloc@PLT
	movq	%rax, -16(%rbp)
	movq	-16(%rbp), %rax
	movq	%rax, -8(%rbp)
	movq	-8(%rbp), %rax
	movl	-84(%rbp), %edx
	movl	%edx, (%rax)
	movq	-8(%rbp), %rax
	movq	$0, 8(%rax)
	movq	_TIG_iO_cxF5_1_printList_1_opaque_ptr_1(%rip), %rdx
	movq	_TIG_iO_cxF5_1_printList_1_opaque_ptr_2(%rip), %rax
	cmpq	%rax, %rdx
	je	.L2
	movq	-8(%rbp), %rax
	subq	$16, %rax
	jmp	.L3
.L2:
	movq	-8(%rbp), %rax
.L3:
	leave
	.cfi_def_cfa 7, 8
	ret
	.cfi_endproc
.LFE0:
	.size	createNode, .-createNode
	.globl	main
	.type	main, @function
main:
.LFB1:
	.cfi_startproc
	endbr64
	pushq	%rbp
	.cfi_def_cfa_offset 16
	.cfi_offset 6, -16
	movq	%rsp, %rbp
	.cfi_def_cfa_register 6
	pushq	%rbx
	subq	$168, %rsp
	.cfi_offset 3, -24
	movl	%edi, -148(%rbp)
	movq	%rsi, -160(%rbp)
	movq	%rdx, -168(%rbp)
	movq	$0, _TIG_IZ_cxF5_envp(%rip)
	nop
.L5:
	movq	$0, _TIG_IZ_cxF5_argv(%rip)
	nop
.L6:
	movl	$0, _TIG_IZ_cxF5_argc(%rip)
	nop
	nop
.L7:
.L8:
#APP
# 72 "akmalscript_data-structure_coret.c" 1
	##_ANNOTATION_INITIALREGION_-TIG-IZ-cxF5--0
# 0 "" 2
#NO_APP
	movl	-148(%rbp), %eax
	movl	%eax, _TIG_IZ_cxF5_argc(%rip)
	movq	-160(%rbp), %rax
	movq	%rax, _TIG_IZ_cxF5_argv(%rip)
	movq	-168(%rbp), %rax
	movq	%rax, _TIG_IZ_cxF5_envp(%rip)
#APP
# 79 "akmalscript_data-structure_coret.c" 1
	##_ANNOTATION_ATOMICREGION_-TIG-iO-cxF5-1-main--23
# 0 "" 2
#NO_APP
	movl	$24, %edi
	call	malloc@PLT
	movq	%rax, -112(%rbp)
	movq	-112(%rbp), %rax
	movq	-112(%rbp), %rdx
	movq	%rdx, (%rax)
	movq	-112(%rbp), %rax
	movq	-112(%rbp), %rdx
	movq	%rdx, 8(%rax)
	movq	-112(%rbp), %rax
	movq	%rax, _TIG_iO_cxF5_1_main_1_opaque_list_1(%rip)
	call	rand@PLT
	movl	%eax, -144(%rbp)
	movl	$24, %edi
	call	malloc@PLT
	movq	%rax, -104(%rbp)
	movq	-104(%rbp), %rax
	movl	$0, 16(%rax)
	movq	_TIG_iO_cxF5_1_main_1_opaque_list_1(%rip), %rax
	movq	(%rax), %rdx
	movq	-104(%rbp), %rax
	movq	%rdx, (%rax)
	movq	_TIG_iO_cxF5_1_main_1_opaque_list_1(%rip), %rdx
	movq	-104(%rbp), %rax
	movq	%rdx, 8(%rax)
	movq	_TIG_iO_cxF5_1_main_1_opaque_list_1(%rip), %rax
	movq	(%rax), %rax
	movq	-104(%rbp), %rdx
	movq	%rdx, 8(%rax)
	movq	_TIG_iO_cxF5_1_main_1_opaque_list_1(%rip), %rax
	movq	-104(%rbp), %rdx
	movq	%rdx, (%rax)
	call	rand@PLT
	movl	%eax, -140(%rbp)
	movl	$24, %edi
	call	malloc@PLT
	movq	%rax, -96(%rbp)
	movq	-96(%rbp), %rax
	movl	-140(%rbp), %edx
	movl	%edx, 16(%rax)
	movq	_TIG_iO_cxF5_1_main_1_opaque_list_1(%rip), %rax
	movq	(%rax), %rdx
	movq	-96(%rbp), %rax
	movq	%rdx, (%rax)
	movq	_TIG_iO_cxF5_1_main_1_opaque_list_1(%rip), %rdx
	movq	-96(%rbp), %rax
	movq	%rdx, 8(%rax)
	movq	_TIG_iO_cxF5_1_main_1_opaque_list_1(%rip), %rax
	movq	(%rax), %rax
	movq	-96(%rbp), %rdx
	movq	%rdx, 8(%rax)
	movq	_TIG_iO_cxF5_1_main_1_opaque_list_1(%rip), %rax
	movq	-96(%rbp), %rdx
	movq	%rdx, (%rax)
	call	rand@PLT
	movl	%eax, -136(%rbp)
	movl	$24, %edi
	call	malloc@PLT
	movq	%rax, -88(%rbp)
	movl	-136(%rbp), %eax
	leal	(%rax,%rax), %edx
	movq	-88(%rbp), %rax
	movl	%edx, 16(%rax)
	movq	_TIG_iO_cxF5_1_main_1_opaque_list_1(%rip), %rax
	movq	(%rax), %rdx
	movq	-88(%rbp), %rax
	movq	%rdx, (%rax)
	movq	_TIG_iO_cxF5_1_main_1_opaque_list_1(%rip), %rdx
	movq	-88(%rbp), %rax
	movq	%rdx, 8(%rax)
	movq	_TIG_iO_cxF5_1_main_1_opaque_list_1(%rip), %rax
	movq	(%rax), %rax
	movq	-88(%rbp), %rdx
	movq	%rdx, 8(%rax)
	movq	_TIG_iO_cxF5_1_main_1_opaque_list_1(%rip), %rax
	movq	-88(%rbp), %rdx
	movq	%rdx, (%rax)
	movq	_TIG_iO_cxF5_1_main_1_opaque_list_1(%rip), %rax
	movq	(%rax), %rax
	movq	%rax, _TIG_iO_cxF5_1_main_1_opaque_ptr_1(%rip)
	movq	_TIG_iO_cxF5_1_main_1_opaque_ptr_1(%rip), %rax
	movq	%rax, _TIG_iO_cxF5_1_main_1_opaque_ptr_2(%rip)
	movq	_TIG_iO_cxF5_1_main_1_opaque_ptr_2(%rip), %rax
	movq	(%rax), %rax
	movq	%rax, _TIG_iO_cxF5_1_main_1_opaque_ptr_2(%rip)
	nop
	nop
	movq	_TIG_iO_cxF5_1_printList_1_opaque_ptr_1(%rip), %rdx
	movq	_TIG_iO_cxF5_1_printList_1_opaque_ptr_2(%rip), %rax
	cmpq	%rax, %rdx
	jne	.L9
	movl	$1, %edi
	call	createNode
	movq	%rax, -80(%rbp)
	movq	-80(%rbp), %rax
	movq	%rax, -72(%rbp)
	movl	$2, %edi
	call	createNode
	movq	%rax, -64(%rbp)
	movq	-64(%rbp), %rax
	movq	%rax, -56(%rbp)
	movl	$3, %edi
	call	createNode
	movq	%rax, -48(%rbp)
	movq	-48(%rbp), %rax
	movq	%rax, -40(%rbp)
	movq	-72(%rbp), %rax
	movq	-56(%rbp), %rdx
	movq	%rdx, 8(%rax)
	movq	-56(%rbp), %rax
	movq	-40(%rbp), %rdx
	movq	%rdx, 8(%rax)
	movl	$2, %edi
	call	createNode
	movq	%rax, -32(%rbp)
	movq	-32(%rbp), %rax
	movq	%rax, -24(%rbp)
	movl	$3, %edi
	call	createNode
	movq	-24(%rbp), %rdx
	movq	%rax, 8(%rdx)
	movq	-24(%rbp), %rax
	movq	8(%rax), %rbx
	movl	$5, %edi
	call	createNode
	movq	%rax, 8(%rbx)
	movq	-24(%rbp), %rax
	movq	8(%rax), %rax
	movq	8(%rax), %rbx
	movl	$6, %edi
	call	createNode
	movq	%rax, 8(%rbx)
	movl	$1, -132(%rbp)
	movl	-132(%rbp), %edx
	movq	-24(%rbp), %rax
	movl	%edx, %esi
	movq	%rax, %rdi
	call	insertAtFront
	movq	%rax, -24(%rbp)
	movq	-24(%rbp), %rax
	movl	$7, %esi
	movq	%rax, %rdi
	call	insertAtEnd
	movq	%rax, -24(%rbp)
	movl	$12, -128(%rbp)
	movl	$4, -124(%rbp)
	movl	-128(%rbp), %edx
	movl	-124(%rbp), %ecx
	movq	-24(%rbp), %rax
	movl	%ecx, %esi
	movq	%rax, %rdi
	call	insertAtPosition
	movq	%rax, -24(%rbp)
	movl	$12, -120(%rbp)
	movl	$4, -116(%rbp)
	movl	-116(%rbp), %edx
	movl	-120(%rbp), %ecx
	movq	-24(%rbp), %rax
	movl	%ecx, %esi
	movq	%rax, %rdi
	call	insertAfter
	movq	%rax, -24(%rbp)
	movq	-24(%rbp), %rax
	movq	%rax, %rdi
	call	printList
	movq	-72(%rbp), %rax
	movq	%rax, %rdi
	call	free@PLT
	movq	-56(%rbp), %rax
	movq	%rax, %rdi
	call	free@PLT
	movq	-40(%rbp), %rax
	movq	%rax, %rdi
	call	free@PLT
	jmp	.L10
.L9:
#APP
# 116 "akmalscript_data-structure_coret.c" 1
	.byte 0x6,0x25,0x7c
# 0 "" 2
#NO_APP
.L10:
	movl	$0, %eax
	movq	-8(%rbp), %rbx
	leave
	.cfi_def_cfa 7, 8
	ret
	.cfi_endproc
.LFE1:
	.size	main, .-main
	.globl	insertAtFront
	.type	insertAtFront, @function
insertAtFront:
.LFB3:
	.cfi_startproc
	endbr64
	pushq	%rbp
	.cfi_def_cfa_offset 16
	.cfi_offset 6, -16
	movq	%rsp, %rbp
	.cfi_def_cfa_register 6
	subq	$64, %rsp
	movq	%rdi, -56(%rbp)
	movl	%esi, -60(%rbp)
#APP
# 66 "/usr/include/x86_64-linux-gnu/bits/uintn-identity.h" 1
	##_ANNOTATION_INITIALREGION_-TIG-iO-cxF5-1-insertAtFront--20
# 0 "" 2
# 70 "/usr/include/x86_64-linux-gnu/bits/uintn-identity.h" 1
	##_ANNOTATION_ATOMICREGION_-TIG-iO-cxF5-1-insertAtFront--19
# 0 "" 2
#NO_APP
	movl	$24, %edi
	call	malloc@PLT
	movq	%rax, -40(%rbp)
	movq	-40(%rbp), %rax
	movq	-40(%rbp), %rdx
	movq	%rdx, 8(%rax)
	movq	-40(%rbp), %rax
	movq	-40(%rbp), %rdx
	movq	%rdx, 16(%rax)
	movq	-40(%rbp), %rax
	movq	%rax, _TIG_iO_cxF5_1_insertAtFront_1_opaque_list_1(%rip)
	call	rand@PLT
	movl	%eax, -48(%rbp)
	movl	$24, %edi
	call	malloc@PLT
	movq	%rax, -32(%rbp)
	movq	-32(%rbp), %rax
	movl	$0, (%rax)
	movq	_TIG_iO_cxF5_1_insertAtFront_1_opaque_list_1(%rip), %rax
	movq	8(%rax), %rdx
	movq	-32(%rbp), %rax
	movq	%rdx, 8(%rax)
	movq	_TIG_iO_cxF5_1_insertAtFront_1_opaque_list_1(%rip), %rdx
	movq	-32(%rbp), %rax
	movq	%rdx, 16(%rax)
	movq	_TIG_iO_cxF5_1_insertAtFront_1_opaque_list_1(%rip), %rax
	movq	8(%rax), %rax
	movq	-32(%rbp), %rdx
	movq	%rdx, 16(%rax)
	movq	_TIG_iO_cxF5_1_insertAtFront_1_opaque_list_1(%rip), %rax
	movq	-32(%rbp), %rdx
	movq	%rdx, 8(%rax)
	call	rand@PLT
	movl	%eax, -44(%rbp)
	movl	$24, %edi
	call	malloc@PLT
	movq	%rax, -24(%rbp)
	movq	-24(%rbp), %rax
	movl	-44(%rbp), %edx
	movl	%edx, (%rax)
	movq	_TIG_iO_cxF5_1_insertAtFront_1_opaque_list_1(%rip), %rax
	movq	8(%rax), %rdx
	movq	-24(%rbp), %rax
	movq	%rdx, 8(%rax)
	movq	_TIG_iO_cxF5_1_insertAtFront_1_opaque_list_1(%rip), %rdx
	movq	-24(%rbp), %rax
	movq	%rdx, 16(%rax)
	movq	_TIG_iO_cxF5_1_insertAtFront_1_opaque_list_1(%rip), %rax
	movq	8(%rax), %rax
	movq	-24(%rbp), %rdx
	movq	%rdx, 16(%rax)
	movq	_TIG_iO_cxF5_1_insertAtFront_1_opaque_list_1(%rip), %rax
	movq	-24(%rbp), %rdx
	movq	%rdx, 8(%rax)
	movq	_TIG_iO_cxF5_1_insertAtFront_1_opaque_list_1(%rip), %rax
	movq	8(%rax), %rax
	movq	%rax, _TIG_iO_cxF5_1_insertAtFront_1_opaque_ptr_1(%rip)
	movq	_TIG_iO_cxF5_1_insertAtFront_1_opaque_ptr_1(%rip), %rax
	movq	%rax, _TIG_iO_cxF5_1_insertAtFront_1_opaque_ptr_2(%rip)
	nop
	nop
	movl	-60(%rbp), %eax
	movl	%eax, %edi
	call	createNode
	movq	%rax, -16(%rbp)
	movq	-16(%rbp), %rax
	movq	%rax, -8(%rbp)
	movq	-8(%rbp), %rax
	movq	-56(%rbp), %rdx
	movq	%rdx, 8(%rax)
	movq	_TIG_iO_cxF5_1_printList_1_opaque_ptr_1(%rip), %rdx
	movq	_TIG_iO_cxF5_1_printList_1_opaque_ptr_2(%rip), %rax
	cmpq	%rax, %rdx
	je	.L13
#APP
# 29 "akmalscript_data-structure_coret.c" 1
	.byte 0x7e,0x60
# 0 "" 2
#NO_APP
	jmp	.L12
.L13:
	movq	-8(%rbp), %rax
.L12:
	leave
	.cfi_def_cfa 7, 8
	ret
	.cfi_endproc
.LFE3:
	.size	insertAtFront, .-insertAtFront
	.globl	insertAtEnd
	.type	insertAtEnd, @function
insertAtEnd:
.LFB4:
	.cfi_startproc
	endbr64
	pushq	%rbp
	.cfi_def_cfa_offset 16
	.cfi_offset 6, -16
	movq	%rsp, %rbp
	.cfi_def_cfa_register 6
	subq	$80, %rsp
	movq	%rdi, -72(%rbp)
	movl	%esi, -76(%rbp)
#APP
# 48 "akmalscript_data-structure_coret.c" 1
	##_ANNOTATION_INITIALREGION_-TIG-iO-cxF5-1-insertAtEnd--18
# 0 "" 2
# 52 "akmalscript_data-structure_coret.c" 1
	##_ANNOTATION_ATOMICREGION_-TIG-iO-cxF5-1-insertAtEnd--17
# 0 "" 2
#NO_APP
	movl	$24, %edi
	call	malloc@PLT
	movq	%rax, -40(%rbp)
	movq	-40(%rbp), %rax
	movq	-40(%rbp), %rdx
	movq	%rdx, 8(%rax)
	movq	-40(%rbp), %rax
	movq	-40(%rbp), %rdx
	movq	%rdx, (%rax)
	movq	-40(%rbp), %rax
	movq	%rax, _TIG_iO_cxF5_1_insertAtEnd_1_opaque_list_1(%rip)
	call	rand@PLT
	movl	%eax, -56(%rbp)
	movl	$24, %edi
	call	malloc@PLT
	movq	%rax, -32(%rbp)
	movq	-32(%rbp), %rax
	movl	$0, 16(%rax)
	movq	_TIG_iO_cxF5_1_insertAtEnd_1_opaque_list_1(%rip), %rax
	movq	8(%rax), %rdx
	movq	-32(%rbp), %rax
	movq	%rdx, 8(%rax)
	movq	_TIG_iO_cxF5_1_insertAtEnd_1_opaque_list_1(%rip), %rdx
	movq	-32(%rbp), %rax
	movq	%rdx, (%rax)
	movq	_TIG_iO_cxF5_1_insertAtEnd_1_opaque_list_1(%rip), %rax
	movq	8(%rax), %rax
	movq	-32(%rbp), %rdx
	movq	%rdx, (%rax)
	movq	_TIG_iO_cxF5_1_insertAtEnd_1_opaque_list_1(%rip), %rax
	movq	-32(%rbp), %rdx
	movq	%rdx, 8(%rax)
	call	rand@PLT
	movl	%eax, -52(%rbp)
	movl	$24, %edi
	call	malloc@PLT
	movq	%rax, -24(%rbp)
	movq	-24(%rbp), %rax
	movl	-52(%rbp), %edx
	movl	%edx, 16(%rax)
	movq	_TIG_iO_cxF5_1_insertAtEnd_1_opaque_list_1(%rip), %rax
	movq	8(%rax), %rdx
	movq	-24(%rbp), %rax
	movq	%rdx, 8(%rax)
	movq	_TIG_iO_cxF5_1_insertAtEnd_1_opaque_list_1(%rip), %rdx
	movq	-24(%rbp), %rax
	movq	%rdx, (%rax)
	movq	_TIG_iO_cxF5_1_insertAtEnd_1_opaque_list_1(%rip), %rax
	movq	8(%rax), %rax
	movq	-24(%rbp), %rdx
	movq	%rdx, (%rax)
	movq	_TIG_iO_cxF5_1_insertAtEnd_1_opaque_list_1(%rip), %rax
	movq	-24(%rbp), %rdx
	movq	%rdx, 8(%rax)
	movq	_TIG_iO_cxF5_1_insertAtEnd_1_opaque_list_1(%rip), %rax
	movq	8(%rax), %rax
	movq	%rax, _TIG_iO_cxF5_1_insertAtEnd_1_opaque_ptr_1(%rip)
	movq	_TIG_iO_cxF5_1_insertAtEnd_1_opaque_ptr_1(%rip), %rax
	movq	%rax, _TIG_iO_cxF5_1_insertAtEnd_1_opaque_ptr_2(%rip)
	movq	_TIG_iO_cxF5_1_insertAtEnd_1_opaque_ptr_2(%rip), %rax
	movq	8(%rax), %rax
	movq	%rax, _TIG_iO_cxF5_1_insertAtEnd_1_opaque_ptr_2(%rip)
	nop
	nop
	movl	-76(%rbp), %eax
	movl	%eax, %edi
	call	createNode
	movq	%rax, -16(%rbp)
	movq	-16(%rbp), %rax
	movq	%rax, -8(%rbp)
	cmpq	$0, -72(%rbp)
	jne	.L17
	movq	-8(%rbp), %rax
	jmp	.L18
.L17:
	movq	-72(%rbp), %rax
	movq	%rax, -48(%rbp)
	jmp	.L19
.L21:
	movq	_TIG_iO_cxF5_1_printList_1_opaque_ptr_1(%rip), %rdx
	movq	_TIG_iO_cxF5_1_printList_1_opaque_ptr_2(%rip), %rax
	cmpq	%rax, %rdx
	jne	.L20
	movq	-48(%rbp), %rax
	movq	8(%rax), %rax
	movq	%rax, -48(%rbp)
	jmp	.L19
.L20:
#APP
# 40 "akmalscript_data-structure_coret.c" 1
	.byte 0x15,0x2a,0xe4,0xde,0xa6,0xc0
# 0 "" 2
#NO_APP
.L19:
	movq	-48(%rbp), %rax
	movq	8(%rax), %rax
	testq	%rax, %rax
	jne	.L21
	movq	-48(%rbp), %rax
	movq	-8(%rbp), %rdx
	movq	%rdx, 8(%rax)
	movq	-72(%rbp), %rax
.L18:
	leave
	.cfi_def_cfa 7, 8
	ret
	.cfi_endproc
.LFE4:
	.size	insertAtEnd, .-insertAtEnd
	.globl	insertAfter
	.type	insertAfter, @function
insertAfter:
.LFB6:
	.cfi_startproc
	endbr64
	pushq	%rbp
	.cfi_def_cfa_offset 16
	.cfi_offset 6, -16
	movq	%rsp, %rbp
	.cfi_def_cfa_register 6
	subq	$80, %rsp
	movq	%rdi, -72(%rbp)
	movl	%esi, -76(%rbp)
	movl	%edx, -80(%rbp)
#APP
# 75 "/usr/include/x86_64-linux-gnu/bits/byteswap.h" 1
	##_ANNOTATION_INITIALREGION_-TIG-iO-cxF5-1-insertAfter--16
# 0 "" 2
# 79 "/usr/include/x86_64-linux-gnu/bits/byteswap.h" 1
	##_ANNOTATION_ATOMICREGION_-TIG-iO-cxF5-1-insertAfter--15
# 0 "" 2
#NO_APP
	movl	$24, %edi
	call	malloc@PLT
	movq	%rax, -40(%rbp)
	movq	-40(%rbp), %rax
	movq	-40(%rbp), %rdx
	movq	%rdx, 16(%rax)
	movq	-40(%rbp), %rax
	movq	-40(%rbp), %rdx
	movq	%rdx, 8(%rax)
	movq	-40(%rbp), %rax
	movq	%rax, _TIG_iO_cxF5_1_insertAfter_1_opaque_list_1(%rip)
	call	rand@PLT
	movl	%eax, -56(%rbp)
	movl	$24, %edi
	call	malloc@PLT
	movq	%rax, -32(%rbp)
	movq	-32(%rbp), %rax
	movl	$0, (%rax)
	movq	_TIG_iO_cxF5_1_insertAfter_1_opaque_list_1(%rip), %rax
	movq	16(%rax), %rdx
	movq	-32(%rbp), %rax
	movq	%rdx, 16(%rax)
	movq	_TIG_iO_cxF5_1_insertAfter_1_opaque_list_1(%rip), %rdx
	movq	-32(%rbp), %rax
	movq	%rdx, 8(%rax)
	movq	_TIG_iO_cxF5_1_insertAfter_1_opaque_list_1(%rip), %rax
	movq	16(%rax), %rax
	movq	-32(%rbp), %rdx
	movq	%rdx, 8(%rax)
	movq	_TIG_iO_cxF5_1_insertAfter_1_opaque_list_1(%rip), %rax
	movq	-32(%rbp), %rdx
	movq	%rdx, 16(%rax)
	call	rand@PLT
	movl	%eax, -52(%rbp)
	movl	$24, %edi
	call	malloc@PLT
	movq	%rax, -24(%rbp)
	movq	-24(%rbp), %rax
	movl	-52(%rbp), %edx
	movl	%edx, (%rax)
	movq	_TIG_iO_cxF5_1_insertAfter_1_opaque_list_1(%rip), %rax
	movq	16(%rax), %rdx
	movq	-24(%rbp), %rax
	movq	%rdx, 16(%rax)
	movq	_TIG_iO_cxF5_1_insertAfter_1_opaque_list_1(%rip), %rdx
	movq	-24(%rbp), %rax
	movq	%rdx, 8(%rax)
	movq	_TIG_iO_cxF5_1_insertAfter_1_opaque_list_1(%rip), %rax
	movq	16(%rax), %rax
	movq	-24(%rbp), %rdx
	movq	%rdx, 8(%rax)
	movq	_TIG_iO_cxF5_1_insertAfter_1_opaque_list_1(%rip), %rax
	movq	-24(%rbp), %rdx
	movq	%rdx, 16(%rax)
	movq	_TIG_iO_cxF5_1_insertAfter_1_opaque_list_1(%rip), %rax
	movq	16(%rax), %rax
	movq	%rax, _TIG_iO_cxF5_1_insertAfter_1_opaque_ptr_1(%rip)
	movq	_TIG_iO_cxF5_1_insertAfter_1_opaque_ptr_1(%rip), %rax
	movq	%rax, _TIG_iO_cxF5_1_insertAfter_1_opaque_ptr_2(%rip)
	nop
	nop
	movq	-72(%rbp), %rax
	movq	%rax, -48(%rbp)
	jmp	.L23
.L26:
	movq	-48(%rbp), %rax
	movl	(%rax), %eax
	cmpl	%eax, -76(%rbp)
	je	.L30
	movq	-48(%rbp), %rax
	movq	8(%rax), %rax
	movq	%rax, -48(%rbp)
.L23:
	cmpq	$0, -48(%rbp)
	jne	.L26
	jmp	.L25
.L30:
	nop
.L25:
	cmpq	$0, -48(%rbp)
	jne	.L27
	movq	-72(%rbp), %rax
	jmp	.L22
.L27:
	movl	-80(%rbp), %eax
	movl	%eax, %edi
	call	createNode
	movq	%rax, -16(%rbp)
	movq	-16(%rbp), %rax
	movq	%rax, -8(%rbp)
	movq	-48(%rbp), %rax
	movq	8(%rax), %rdx
	movq	-8(%rbp), %rax
	movq	%rdx, 8(%rax)
	movq	-48(%rbp), %rax
	movq	-8(%rbp), %rdx
	movq	%rdx, 8(%rax)
	movq	_TIG_iO_cxF5_1_printList_1_opaque_ptr_1(%rip), %rdx
	movq	_TIG_iO_cxF5_1_printList_1_opaque_ptr_2(%rip), %rax
	cmpq	%rax, %rdx
	jne	.L29
	movq	-72(%rbp), %rax
	jmp	.L22
.L29:
.L22:
	leave
	.cfi_def_cfa 7, 8
	ret
	.cfi_endproc
.LFE6:
	.size	insertAfter, .-insertAfter
	.section	.rodata
.LC0:
	.string	"Position is out of bounds."
	.text
	.globl	insertAtPosition
	.type	insertAtPosition, @function
insertAtPosition:
.LFB10:
	.cfi_startproc
	endbr64
	pushq	%rbp
	.cfi_def_cfa_offset 16
	.cfi_offset 6, -16
	movq	%rsp, %rbp
	.cfi_def_cfa_register 6
	subq	$96, %rsp
	movq	%rdi, -88(%rbp)
	movl	%esi, -92(%rbp)
	movl	%edx, -96(%rbp)
#APP
# 97 "/usr/include/x86_64-linux-gnu/bits/byteswap.h" 1
	##_ANNOTATION_INITIALREGION_-TIG-iO-cxF5-1-insertAtPosition--22
# 0 "" 2
# 101 "/usr/include/x86_64-linux-gnu/bits/byteswap.h" 1
	##_ANNOTATION_ATOMICREGION_-TIG-iO-cxF5-1-insertAtPosition--21
# 0 "" 2
#NO_APP
	movl	$24, %edi
	call	malloc@PLT
	movq	%rax, -48(%rbp)
	movq	-48(%rbp), %rax
	movq	-48(%rbp), %rdx
	movq	%rdx, (%rax)
	movq	-48(%rbp), %rax
	movq	-48(%rbp), %rdx
	movq	%rdx, 16(%rax)
	movq	-48(%rbp), %rax
	movq	%rax, _TIG_iO_cxF5_1_insertAtPosition_1_opaque_list_1(%rip)
	call	rand@PLT
	movl	%eax, -68(%rbp)
	movl	$24, %edi
	call	malloc@PLT
	movq	%rax, -40(%rbp)
	movq	-40(%rbp), %rax
	movl	$0, 8(%rax)
	movq	_TIG_iO_cxF5_1_insertAtPosition_1_opaque_list_1(%rip), %rax
	movq	(%rax), %rdx
	movq	-40(%rbp), %rax
	movq	%rdx, (%rax)
	movq	_TIG_iO_cxF5_1_insertAtPosition_1_opaque_list_1(%rip), %rdx
	movq	-40(%rbp), %rax
	movq	%rdx, 16(%rax)
	movq	_TIG_iO_cxF5_1_insertAtPosition_1_opaque_list_1(%rip), %rax
	movq	(%rax), %rax
	movq	-40(%rbp), %rdx
	movq	%rdx, 16(%rax)
	movq	_TIG_iO_cxF5_1_insertAtPosition_1_opaque_list_1(%rip), %rax
	movq	-40(%rbp), %rdx
	movq	%rdx, (%rax)
	call	rand@PLT
	movl	%eax, -64(%rbp)
	movl	$24, %edi
	call	malloc@PLT
	movq	%rax, -32(%rbp)
	movq	-32(%rbp), %rax
	movl	-64(%rbp), %edx
	movl	%edx, 8(%rax)
	movq	_TIG_iO_cxF5_1_insertAtPosition_1_opaque_list_1(%rip), %rax
	movq	(%rax), %rdx
	movq	-32(%rbp), %rax
	movq	%rdx, (%rax)
	movq	_TIG_iO_cxF5_1_insertAtPosition_1_opaque_list_1(%rip), %rdx
	movq	-32(%rbp), %rax
	movq	%rdx, 16(%rax)
	movq	_TIG_iO_cxF5_1_insertAtPosition_1_opaque_list_1(%rip), %rax
	movq	(%rax), %rax
	movq	-32(%rbp), %rdx
	movq	%rdx, 16(%rax)
	movq	_TIG_iO_cxF5_1_insertAtPosition_1_opaque_list_1(%rip), %rax
	movq	-32(%rbp), %rdx
	movq	%rdx, (%rax)
	call	rand@PLT
	movl	%eax, -60(%rbp)
	movl	$24, %edi
	call	malloc@PLT
	movq	%rax, -24(%rbp)
	movl	-60(%rbp), %eax
	leal	(%rax,%rax), %edx
	movq	-24(%rbp), %rax
	movl	%edx, 8(%rax)
	movq	_TIG_iO_cxF5_1_insertAtPosition_1_opaque_list_1(%rip), %rax
	movq	(%rax), %rdx
	movq	-24(%rbp), %rax
	movq	%rdx, (%rax)
	movq	_TIG_iO_cxF5_1_insertAtPosition_1_opaque_list_1(%rip), %rdx
	movq	-24(%rbp), %rax
	movq	%rdx, 16(%rax)
	movq	_TIG_iO_cxF5_1_insertAtPosition_1_opaque_list_1(%rip), %rax
	movq	(%rax), %rax
	movq	-24(%rbp), %rdx
	movq	%rdx, 16(%rax)
	movq	_TIG_iO_cxF5_1_insertAtPosition_1_opaque_list_1(%rip), %rax
	movq	-24(%rbp), %rdx
	movq	%rdx, (%rax)
	movq	_TIG_iO_cxF5_1_insertAtPosition_1_opaque_list_1(%rip), %rax
	movq	(%rax), %rax
	movq	%rax, _TIG_iO_cxF5_1_insertAtPosition_1_opaque_ptr_1(%rip)
	movq	_TIG_iO_cxF5_1_insertAtPosition_1_opaque_ptr_1(%rip), %rax
	movq	%rax, _TIG_iO_cxF5_1_insertAtPosition_1_opaque_ptr_2(%rip)
	movq	_TIG_iO_cxF5_1_insertAtPosition_1_opaque_ptr_2(%rip), %rax
	movq	(%rax), %rax
	movq	%rax, _TIG_iO_cxF5_1_insertAtPosition_1_opaque_ptr_2(%rip)
	nop
	nop
	movl	-96(%rbp), %eax
	movl	%eax, %edi
	call	createNode
	movq	%rax, -16(%rbp)
	movq	-16(%rbp), %rax
	movq	%rax, -8(%rbp)
	cmpl	$1, -92(%rbp)
	jne	.L32
	movq	-8(%rbp), %rax
	movq	-88(%rbp), %rdx
	movq	%rdx, 8(%rax)
	movq	-8(%rbp), %rax
	movq	%rax, -88(%rbp)
	movq	-88(%rbp), %rax
	jmp	.L33
.L32:
	movq	-88(%rbp), %rax
	movq	%rax, -56(%rbp)
	movl	$1, -72(%rbp)
	movq	_TIG_iO_cxF5_1_printList_1_opaque_ptr_1(%rip), %rdx
	movq	_TIG_iO_cxF5_1_printList_1_opaque_ptr_2(%rip), %rax
	cmpq	%rax, %rdx
	je	.L34
.L37:
	movl	-92(%rbp), %eax
	subl	$1, %eax
	cmpl	%eax, -72(%rbp)
	setl	%al
	movzbl	%al, %eax
	cmpl	%eax, -96(%rbp)
	jle	.L35
	movq	-8(%rbp), %rax
	jmp	.L33
.L35:
	cmpq	$0, -56(%rbp)
	setne	%al
	movzbl	%al, %eax
	cmpl	%eax, -92(%rbp)
	jg	.L36
	movq	-8(%rbp), %rax
	jmp	.L33
.L36:
	movq	-56(%rbp), %rax
	movq	8(%rax), %rax
	subq	$16, %rax
	movq	%rax, -56(%rbp)
	movl	$10, -72(%rbp)
	jmp	.L37
.L34:
	movl	-92(%rbp), %eax
	subl	$1, %eax
	cmpl	%eax, -72(%rbp)
	jge	.L42
	cmpq	$0, -56(%rbp)
	je	.L43
	movq	-56(%rbp), %rax
	movq	8(%rax), %rax
	movq	%rax, -56(%rbp)
	addl	$1, -72(%rbp)
	jmp	.L34
.L42:
	nop
	jmp	.L40
.L43:
	nop
.L40:
	cmpq	$0, -56(%rbp)
	jne	.L41
	leaq	.LC0(%rip), %rax
	movq	%rax, %rdi
	call	puts@PLT
	movq	-8(%rbp), %rax
	movq	%rax, %rdi
	call	free@PLT
	movq	-88(%rbp), %rax
	jmp	.L33
.L41:
	movq	-56(%rbp), %rax
	movq	8(%rax), %rdx
	movq	-8(%rbp), %rax
	movq	%rdx, 8(%rax)
	movq	-56(%rbp), %rax
	movq	-8(%rbp), %rdx
	movq	%rdx, 8(%rax)
	movq	-88(%rbp), %rax
.L33:
	leave
	.cfi_def_cfa 7, 8
	ret
	.cfi_endproc
.LFE10:
	.size	insertAtPosition, .-insertAtPosition
	.section	.rodata
.LC1:
	.string	"%d "
	.text
	.globl	printList
	.type	printList, @function
printList:
.LFB11:
	.cfi_startproc
	endbr64
	pushq	%rbp
	.cfi_def_cfa_offset 16
	.cfi_offset 6, -16
	movq	%rsp, %rbp
	.cfi_def_cfa_register 6
	subq	$80, %rsp
	movq	%rdi, -72(%rbp)
#APP
# 105 "akmalscript_data-structure_coret.c" 1
	##_ANNOTATION_INITIALREGION_-TIG-iO-cxF5-1-printList--26
# 0 "" 2
# 109 "akmalscript_data-structure_coret.c" 1
	##_ANNOTATION_ATOMICREGION_-TIG-iO-cxF5-1-printList--25
# 0 "" 2
#NO_APP
	movl	$24, %edi
	call	malloc@PLT
	movq	%rax, -40(%rbp)
	movq	-40(%rbp), %rax
	movq	-40(%rbp), %rdx
	movq	%rdx, (%rax)
	movq	-40(%rbp), %rax
	movq	-40(%rbp), %rdx
	movq	%rdx, 16(%rax)
	movq	-40(%rbp), %rax
	movq	%rax, _TIG_iO_cxF5_1_printList_1_opaque_list_1(%rip)
	call	rand@PLT
	movl	%eax, -64(%rbp)
	movl	$24, %edi
	call	malloc@PLT
	movq	%rax, -32(%rbp)
	movq	-32(%rbp), %rax
	movl	$0, 8(%rax)
	movq	_TIG_iO_cxF5_1_printList_1_opaque_list_1(%rip), %rax
	movq	(%rax), %rdx
	movq	-32(%rbp), %rax
	movq	%rdx, (%rax)
	movq	_TIG_iO_cxF5_1_printList_1_opaque_list_1(%rip), %rdx
	movq	-32(%rbp), %rax
	movq	%rdx, 16(%rax)
	movq	_TIG_iO_cxF5_1_printList_1_opaque_list_1(%rip), %rax
	movq	(%rax), %rax
	movq	-32(%rbp), %rdx
	movq	%rdx, 16(%rax)
	movq	_TIG_iO_cxF5_1_printList_1_opaque_list_1(%rip), %rax
	movq	-32(%rbp), %rdx
	movq	%rdx, (%rax)
	call	rand@PLT
	movl	%eax, -60(%rbp)
	movl	$24, %edi
	call	malloc@PLT
	movq	%rax, -24(%rbp)
	movq	-24(%rbp), %rax
	movl	-60(%rbp), %edx
	movl	%edx, 8(%rax)
	movq	_TIG_iO_cxF5_1_printList_1_opaque_list_1(%rip), %rax
	movq	(%rax), %rdx
	movq	-24(%rbp), %rax
	movq	%rdx, (%rax)
	movq	_TIG_iO_cxF5_1_printList_1_opaque_list_1(%rip), %rdx
	movq	-24(%rbp), %rax
	movq	%rdx, 16(%rax)
	movq	_TIG_iO_cxF5_1_printList_1_opaque_list_1(%rip), %rax
	movq	(%rax), %rax
	movq	-24(%rbp), %rdx
	movq	%rdx, 16(%rax)
	movq	_TIG_iO_cxF5_1_printList_1_opaque_list_1(%rip), %rax
	movq	-24(%rbp), %rdx
	movq	%rdx, (%rax)
	call	rand@PLT
	movl	%eax, -56(%rbp)
	movl	$24, %edi
	call	malloc@PLT
	movq	%rax, -16(%rbp)
	movl	-56(%rbp), %eax
	leal	(%rax,%rax), %edx
	movq	-16(%rbp), %rax
	movl	%edx, 8(%rax)
	movq	_TIG_iO_cxF5_1_printList_1_opaque_list_1(%rip), %rax
	movq	(%rax), %rdx
	movq	-16(%rbp), %rax
	movq	%rdx, (%rax)
	movq	_TIG_iO_cxF5_1_printList_1_opaque_list_1(%rip), %rdx
	movq	-16(%rbp), %rax
	movq	%rdx, 16(%rax)
	movq	_TIG_iO_cxF5_1_printList_1_opaque_list_1(%rip), %rax
	movq	(%rax), %rax
	movq	-16(%rbp), %rdx
	movq	%rdx, 16(%rax)
	movq	_TIG_iO_cxF5_1_printList_1_opaque_list_1(%rip), %rax
	movq	-16(%rbp), %rdx
	movq	%rdx, (%rax)
	call	rand@PLT
	movl	%eax, -52(%rbp)
	movl	$24, %edi
	call	malloc@PLT
	movq	%rax, -8(%rbp)
	movl	-52(%rbp), %edx
	movl	%edx, %eax
	addl	%eax, %eax
	addl	%eax, %edx
	movq	-8(%rbp), %rax
	movl	%edx, 8(%rax)
	movq	_TIG_iO_cxF5_1_printList_1_opaque_list_1(%rip), %rax
	movq	(%rax), %rdx
	movq	-8(%rbp), %rax
	movq	%rdx, (%rax)
	movq	_TIG_iO_cxF5_1_printList_1_opaque_list_1(%rip), %rdx
	movq	-8(%rbp), %rax
	movq	%rdx, 16(%rax)
	movq	_TIG_iO_cxF5_1_printList_1_opaque_list_1(%rip), %rax
	movq	(%rax), %rax
	movq	-8(%rbp), %rdx
	movq	%rdx, 16(%rax)
	movq	_TIG_iO_cxF5_1_printList_1_opaque_list_1(%rip), %rax
	movq	-8(%rbp), %rdx
	movq	%rdx, (%rax)
	movq	_TIG_iO_cxF5_1_printList_1_opaque_list_1(%rip), %rax
	movq	(%rax), %rax
	movq	%rax, _TIG_iO_cxF5_1_printList_1_opaque_ptr_1(%rip)
	movq	_TIG_iO_cxF5_1_printList_1_opaque_ptr_1(%rip), %rax
	movq	%rax, _TIG_iO_cxF5_1_printList_1_opaque_ptr_2(%rip)
	nop
	nop
	movq	-72(%rbp), %rax
	movq	%rax, -48(%rbp)
.L47:
	movq	_TIG_iO_cxF5_1_printList_1_opaque_ptr_1(%rip), %rdx
	movq	_TIG_iO_cxF5_1_printList_1_opaque_ptr_2(%rip), %rax
	cmpq	%rax, %rdx
	jne	.L45
	cmpq	$0, -48(%rbp)
	je	.L50
.L45:
	movq	-48(%rbp), %rax
	movl	(%rax), %eax
	movl	%eax, %esi
	leaq	.LC1(%rip), %rax
	movq	%rax, %rdi
	movl	$0, %eax
	call	printf@PLT
	movq	-48(%rbp), %rax
	movq	8(%rax), %rax
	movq	%rax, -48(%rbp)
	jmp	.L47
.L50:
	nop
	movl	$10, %edi
	call	putchar@PLT
	nop
	leave
	.cfi_def_cfa 7, 8
	ret
	.cfi_endproc
.LFE11:
	.size	printList, .-printList
	.ident	"GCC: (Ubuntu 11.4.0-1ubuntu1~22.04) 11.4.0"
	.section	.note.GNU-stack,"",@progbits
	.section	.note.gnu.property,"a"
	.align 8
	.long	1f - 0f
	.long	4f - 1f
	.long	5
0:
	.string	"GNU"
1:
	.align 8
	.long	0xc0000002
	.long	3f - 2f
2:
	.long	0x3
3:
	.align 8
4:
