	.file	"Apoorva0915_problem-Sol_ls_bs_opaque.c"
	.text
	.globl	_TIG_iO_3LOi_1___uint32_identity_1_opaque_ptr_1
	.bss
	.align 8
	.type	_TIG_iO_3LOi_1___uint32_identity_1_opaque_ptr_1, @object
	.size	_TIG_iO_3LOi_1___uint32_identity_1_opaque_ptr_1, 8
_TIG_iO_3LOi_1___uint32_identity_1_opaque_ptr_1:
	.zero	8
	.globl	_TIG_iO_3LOi_1___uint32_identity_1_opaque_list_1
	.align 8
	.type	_TIG_iO_3LOi_1___uint32_identity_1_opaque_list_1, @object
	.size	_TIG_iO_3LOi_1___uint32_identity_1_opaque_list_1, 8
_TIG_iO_3LOi_1___uint32_identity_1_opaque_list_1:
	.zero	8
	.globl	_TIG_iO_3LOi_1_linearSearch_1_opaque_list_2
	.align 8
	.type	_TIG_iO_3LOi_1_linearSearch_1_opaque_list_2, @object
	.size	_TIG_iO_3LOi_1_linearSearch_1_opaque_list_2, 8
_TIG_iO_3LOi_1_linearSearch_1_opaque_list_2:
	.zero	8
	.globl	_TIG_iO_3LOi_1___uint64_identity_1_opaque_ptr_1
	.align 8
	.type	_TIG_iO_3LOi_1___uint64_identity_1_opaque_ptr_1, @object
	.size	_TIG_iO_3LOi_1___uint64_identity_1_opaque_ptr_1, 8
_TIG_iO_3LOi_1___uint64_identity_1_opaque_ptr_1:
	.zero	8
	.globl	_TIG_iO_3LOi_1___uint64_identity_1_opaque_list_1
	.align 8
	.type	_TIG_iO_3LOi_1___uint64_identity_1_opaque_list_1, @object
	.size	_TIG_iO_3LOi_1___uint64_identity_1_opaque_list_1, 8
_TIG_iO_3LOi_1___uint64_identity_1_opaque_list_1:
	.zero	8
	.globl	_TIG_iO_3LOi_1___uint16_identity_1_opaque_list_1
	.align 8
	.type	_TIG_iO_3LOi_1___uint16_identity_1_opaque_list_1, @object
	.size	_TIG_iO_3LOi_1___uint16_identity_1_opaque_list_1, 8
_TIG_iO_3LOi_1___uint16_identity_1_opaque_list_1:
	.zero	8
	.globl	_TIG_iO_3LOi_1___bswap_32_1_opaque_ptr_2
	.align 8
	.type	_TIG_iO_3LOi_1___bswap_32_1_opaque_ptr_2, @object
	.size	_TIG_iO_3LOi_1___bswap_32_1_opaque_ptr_2, 8
_TIG_iO_3LOi_1___bswap_32_1_opaque_ptr_2:
	.zero	8
	.globl	_TIG_iO_3LOi_1_binarySearch_1_opaque_ptr_1
	.align 8
	.type	_TIG_iO_3LOi_1_binarySearch_1_opaque_ptr_1, @object
	.size	_TIG_iO_3LOi_1_binarySearch_1_opaque_ptr_1, 8
_TIG_iO_3LOi_1_binarySearch_1_opaque_ptr_1:
	.zero	8
	.globl	d
	.align 4
	.type	d, @object
	.size	d, 4
d:
	.zero	4
	.globl	_TIG_iO_3LOi_1_linearSearch_1_opaque_ptr_2
	.align 8
	.type	_TIG_iO_3LOi_1_linearSearch_1_opaque_ptr_2, @object
	.size	_TIG_iO_3LOi_1_linearSearch_1_opaque_ptr_2, 8
_TIG_iO_3LOi_1_linearSearch_1_opaque_ptr_2:
	.zero	8
	.globl	_TIG_iO_3LOi_1_linearSearch_1_opaque_ptr_1
	.align 8
	.type	_TIG_iO_3LOi_1_linearSearch_1_opaque_ptr_1, @object
	.size	_TIG_iO_3LOi_1_linearSearch_1_opaque_ptr_1, 8
_TIG_iO_3LOi_1_linearSearch_1_opaque_ptr_1:
	.zero	8
	.globl	_TIG_IZ_3LOi_envp
	.align 8
	.type	_TIG_IZ_3LOi_envp, @object
	.size	_TIG_IZ_3LOi_envp, 8
_TIG_IZ_3LOi_envp:
	.zero	8
	.globl	_TIG_IZ_3LOi_argc
	.align 4
	.type	_TIG_IZ_3LOi_argc, @object
	.size	_TIG_IZ_3LOi_argc, 4
_TIG_IZ_3LOi_argc:
	.zero	4
	.globl	_TIG_iO_3LOi_1_main_1_opaque_list_1
	.align 8
	.type	_TIG_iO_3LOi_1_main_1_opaque_list_1, @object
	.size	_TIG_iO_3LOi_1_main_1_opaque_list_1, 8
_TIG_iO_3LOi_1_main_1_opaque_list_1:
	.zero	8
	.globl	_TIG_iO_3LOi_1___bswap_64_1_opaque_list_1
	.align 8
	.type	_TIG_iO_3LOi_1___bswap_64_1_opaque_list_1, @object
	.size	_TIG_iO_3LOi_1___bswap_64_1_opaque_list_1, 8
_TIG_iO_3LOi_1___bswap_64_1_opaque_list_1:
	.zero	8
	.globl	_TIG_iO_3LOi_1___bswap_16_1_opaque_list_1
	.align 8
	.type	_TIG_iO_3LOi_1___bswap_16_1_opaque_list_1, @object
	.size	_TIG_iO_3LOi_1___bswap_16_1_opaque_list_1, 8
_TIG_iO_3LOi_1___bswap_16_1_opaque_list_1:
	.zero	8
	.globl	_TIG_iO_3LOi_1___uint16_identity_1_opaque_ptr_2
	.align 8
	.type	_TIG_iO_3LOi_1___uint16_identity_1_opaque_ptr_2, @object
	.size	_TIG_iO_3LOi_1___uint16_identity_1_opaque_ptr_2, 8
_TIG_iO_3LOi_1___uint16_identity_1_opaque_ptr_2:
	.zero	8
	.globl	_TIG_iO_3LOi_1___uint32_identity_1_opaque_list_2
	.align 8
	.type	_TIG_iO_3LOi_1___uint32_identity_1_opaque_list_2, @object
	.size	_TIG_iO_3LOi_1___uint32_identity_1_opaque_list_2, 8
_TIG_iO_3LOi_1___uint32_identity_1_opaque_list_2:
	.zero	8
	.globl	_TIG_iO_3LOi_1___uint32_identity_1_opaque_ptr_2
	.align 8
	.type	_TIG_iO_3LOi_1___uint32_identity_1_opaque_ptr_2, @object
	.size	_TIG_iO_3LOi_1___uint32_identity_1_opaque_ptr_2, 8
_TIG_iO_3LOi_1___uint32_identity_1_opaque_ptr_2:
	.zero	8
	.globl	_TIG_iO_3LOi_1_binarySearch_1_opaque_ptr_2
	.align 8
	.type	_TIG_iO_3LOi_1_binarySearch_1_opaque_ptr_2, @object
	.size	_TIG_iO_3LOi_1_binarySearch_1_opaque_ptr_2, 8
_TIG_iO_3LOi_1_binarySearch_1_opaque_ptr_2:
	.zero	8
	.globl	_TIG_IZ_3LOi_argv
	.align 8
	.type	_TIG_IZ_3LOi_argv, @object
	.size	_TIG_IZ_3LOi_argv, 8
_TIG_IZ_3LOi_argv:
	.zero	8
	.globl	_TIG_iO_3LOi_1___uint64_identity_1_opaque_ptr_2
	.align 8
	.type	_TIG_iO_3LOi_1___uint64_identity_1_opaque_ptr_2, @object
	.size	_TIG_iO_3LOi_1___uint64_identity_1_opaque_ptr_2, 8
_TIG_iO_3LOi_1___uint64_identity_1_opaque_ptr_2:
	.zero	8
	.globl	_TIG_iO_3LOi_1___uint64_identity_1_opaque_list_2
	.align 8
	.type	_TIG_iO_3LOi_1___uint64_identity_1_opaque_list_2, @object
	.size	_TIG_iO_3LOi_1___uint64_identity_1_opaque_list_2, 8
_TIG_iO_3LOi_1___uint64_identity_1_opaque_list_2:
	.zero	8
	.globl	_TIG_iO_3LOi_1_linearSearch_1_opaque_list_1
	.align 8
	.type	_TIG_iO_3LOi_1_linearSearch_1_opaque_list_1, @object
	.size	_TIG_iO_3LOi_1_linearSearch_1_opaque_list_1, 8
_TIG_iO_3LOi_1_linearSearch_1_opaque_list_1:
	.zero	8
	.globl	_TIG_iO_3LOi_1___bswap_64_1_opaque_ptr_1
	.align 8
	.type	_TIG_iO_3LOi_1___bswap_64_1_opaque_ptr_1, @object
	.size	_TIG_iO_3LOi_1___bswap_64_1_opaque_ptr_1, 8
_TIG_iO_3LOi_1___bswap_64_1_opaque_ptr_1:
	.zero	8
	.globl	_TIG_iO_3LOi_1___bswap_16_1_opaque_ptr_1
	.align 8
	.type	_TIG_iO_3LOi_1___bswap_16_1_opaque_ptr_1, @object
	.size	_TIG_iO_3LOi_1___bswap_16_1_opaque_ptr_1, 8
_TIG_iO_3LOi_1___bswap_16_1_opaque_ptr_1:
	.zero	8
	.globl	_TIG_iO_3LOi_1_main_1_opaque_ptr_2
	.align 8
	.type	_TIG_iO_3LOi_1_main_1_opaque_ptr_2, @object
	.size	_TIG_iO_3LOi_1_main_1_opaque_ptr_2, 8
_TIG_iO_3LOi_1_main_1_opaque_ptr_2:
	.zero	8
	.globl	c
	.align 4
	.type	c, @object
	.size	c, 4
c:
	.zero	4
	.globl	_TIG_iO_3LOi_1___bswap_16_1_opaque_ptr_2
	.align 8
	.type	_TIG_iO_3LOi_1___bswap_16_1_opaque_ptr_2, @object
	.size	_TIG_iO_3LOi_1___bswap_16_1_opaque_ptr_2, 8
_TIG_iO_3LOi_1___bswap_16_1_opaque_ptr_2:
	.zero	8
	.globl	_TIG_iO_3LOi_1___bswap_64_1_opaque_ptr_2
	.align 8
	.type	_TIG_iO_3LOi_1___bswap_64_1_opaque_ptr_2, @object
	.size	_TIG_iO_3LOi_1___bswap_64_1_opaque_ptr_2, 8
_TIG_iO_3LOi_1___bswap_64_1_opaque_ptr_2:
	.zero	8
	.globl	_TIG_iO_3LOi_1___bswap_32_1_opaque_list_2
	.align 8
	.type	_TIG_iO_3LOi_1___bswap_32_1_opaque_list_2, @object
	.size	_TIG_iO_3LOi_1___bswap_32_1_opaque_list_2, 8
_TIG_iO_3LOi_1___bswap_32_1_opaque_list_2:
	.zero	8
	.globl	_TIG_iO_3LOi_1___bswap_16_1_opaque_list_2
	.align 8
	.type	_TIG_iO_3LOi_1___bswap_16_1_opaque_list_2, @object
	.size	_TIG_iO_3LOi_1___bswap_16_1_opaque_list_2, 8
_TIG_iO_3LOi_1___bswap_16_1_opaque_list_2:
	.zero	8
	.globl	_TIG_iO_3LOi_1___bswap_32_1_opaque_ptr_1
	.align 8
	.type	_TIG_iO_3LOi_1___bswap_32_1_opaque_ptr_1, @object
	.size	_TIG_iO_3LOi_1___bswap_32_1_opaque_ptr_1, 8
_TIG_iO_3LOi_1___bswap_32_1_opaque_ptr_1:
	.zero	8
	.globl	_TIG_iO_3LOi_1___uint16_identity_1_opaque_ptr_1
	.align 8
	.type	_TIG_iO_3LOi_1___uint16_identity_1_opaque_ptr_1, @object
	.size	_TIG_iO_3LOi_1___uint16_identity_1_opaque_ptr_1, 8
_TIG_iO_3LOi_1___uint16_identity_1_opaque_ptr_1:
	.zero	8
	.globl	_TIG_iO_3LOi_1_main_1_opaque_ptr_1
	.align 8
	.type	_TIG_iO_3LOi_1_main_1_opaque_ptr_1, @object
	.size	_TIG_iO_3LOi_1_main_1_opaque_ptr_1, 8
_TIG_iO_3LOi_1_main_1_opaque_ptr_1:
	.zero	8
	.globl	_TIG_iO_3LOi_1_main_1_opaque_list_2
	.align 8
	.type	_TIG_iO_3LOi_1_main_1_opaque_list_2, @object
	.size	_TIG_iO_3LOi_1_main_1_opaque_list_2, 8
_TIG_iO_3LOi_1_main_1_opaque_list_2:
	.zero	8
	.globl	_TIG_iO_3LOi_1_binarySearch_1_opaque_list_1
	.align 8
	.type	_TIG_iO_3LOi_1_binarySearch_1_opaque_list_1, @object
	.size	_TIG_iO_3LOi_1_binarySearch_1_opaque_list_1, 8
_TIG_iO_3LOi_1_binarySearch_1_opaque_list_1:
	.zero	8
	.globl	_TIG_iO_3LOi_1___uint16_identity_1_opaque_list_2
	.align 8
	.type	_TIG_iO_3LOi_1___uint16_identity_1_opaque_list_2, @object
	.size	_TIG_iO_3LOi_1___uint16_identity_1_opaque_list_2, 8
_TIG_iO_3LOi_1___uint16_identity_1_opaque_list_2:
	.zero	8
	.globl	_TIG_iO_3LOi_1___bswap_32_1_opaque_list_1
	.align 8
	.type	_TIG_iO_3LOi_1___bswap_32_1_opaque_list_1, @object
	.size	_TIG_iO_3LOi_1___bswap_32_1_opaque_list_1, 8
_TIG_iO_3LOi_1___bswap_32_1_opaque_list_1:
	.zero	8
	.globl	_TIG_iO_3LOi_1_binarySearch_1_opaque_list_2
	.align 8
	.type	_TIG_iO_3LOi_1_binarySearch_1_opaque_list_2, @object
	.size	_TIG_iO_3LOi_1_binarySearch_1_opaque_list_2, 8
_TIG_iO_3LOi_1_binarySearch_1_opaque_list_2:
	.zero	8
	.globl	_TIG_iO_3LOi_1___bswap_64_1_opaque_list_2
	.align 8
	.type	_TIG_iO_3LOi_1___bswap_64_1_opaque_list_2, @object
	.size	_TIG_iO_3LOi_1___bswap_64_1_opaque_list_2, 8
_TIG_iO_3LOi_1___bswap_64_1_opaque_list_2:
	.zero	8
	.text
	.globl	linearSearch
	.type	linearSearch, @function
linearSearch:
.LFB0:
	.cfi_startproc
	endbr64
	pushq	%rbp
	.cfi_def_cfa_offset 16
	.cfi_offset 6, -16
	movq	%rsp, %rbp
	.cfi_def_cfa_register 6
	subq	$64, %rsp
	movq	%rdi, -56(%rbp)
	movl	%esi, -60(%rbp)
	movl	%edx, -64(%rbp)
#APP
# 77 "/usr/include/stdlib.h" 1
	##_ANNOTATION_INITIALREGION_-TIG-iO-3LOi-1-linearSearch--16
# 0 "" 2
# 81 "/usr/include/stdlib.h" 1
	##_ANNOTATION_ATOMICREGION_-TIG-iO-3LOi-1-linearSearch--15
# 0 "" 2
#NO_APP
	movl	$24, %edi
	call	malloc@PLT
	movq	%rax, -24(%rbp)
	movq	-24(%rbp), %rax
	movq	-24(%rbp), %rdx
	movq	%rdx, 16(%rax)
	movq	-24(%rbp), %rax
	movq	-24(%rbp), %rdx
	movq	%rdx, 8(%rax)
	movq	-24(%rbp), %rax
	movq	%rax, _TIG_iO_3LOi_1_linearSearch_1_opaque_list_1(%rip)
	call	rand@PLT
	movl	%eax, -32(%rbp)
	movl	$24, %edi
	call	malloc@PLT
	movq	%rax, -16(%rbp)
	movq	-16(%rbp), %rax
	movl	$0, (%rax)
	movq	_TIG_iO_3LOi_1_linearSearch_1_opaque_list_1(%rip), %rax
	movq	16(%rax), %rdx
	movq	-16(%rbp), %rax
	movq	%rdx, 16(%rax)
	movq	_TIG_iO_3LOi_1_linearSearch_1_opaque_list_1(%rip), %rdx
	movq	-16(%rbp), %rax
	movq	%rdx, 8(%rax)
	movq	_TIG_iO_3LOi_1_linearSearch_1_opaque_list_1(%rip), %rax
	movq	16(%rax), %rax
	movq	-16(%rbp), %rdx
	movq	%rdx, 8(%rax)
	movq	_TIG_iO_3LOi_1_linearSearch_1_opaque_list_1(%rip), %rax
	movq	-16(%rbp), %rdx
	movq	%rdx, 16(%rax)
	call	rand@PLT
	movl	%eax, -28(%rbp)
	movl	$24, %edi
	call	malloc@PLT
	movq	%rax, -8(%rbp)
	movq	-8(%rbp), %rax
	movl	-28(%rbp), %edx
	movl	%edx, (%rax)
	movq	_TIG_iO_3LOi_1_linearSearch_1_opaque_list_1(%rip), %rax
	movq	16(%rax), %rdx
	movq	-8(%rbp), %rax
	movq	%rdx, 16(%rax)
	movq	_TIG_iO_3LOi_1_linearSearch_1_opaque_list_1(%rip), %rdx
	movq	-8(%rbp), %rax
	movq	%rdx, 8(%rax)
	movq	_TIG_iO_3LOi_1_linearSearch_1_opaque_list_1(%rip), %rax
	movq	16(%rax), %rax
	movq	-8(%rbp), %rdx
	movq	%rdx, 8(%rax)
	movq	_TIG_iO_3LOi_1_linearSearch_1_opaque_list_1(%rip), %rax
	movq	-8(%rbp), %rdx
	movq	%rdx, 16(%rax)
	movq	_TIG_iO_3LOi_1_linearSearch_1_opaque_list_1(%rip), %rax
	movq	16(%rax), %rax
	movq	%rax, _TIG_iO_3LOi_1_linearSearch_1_opaque_ptr_1(%rip)
	movq	_TIG_iO_3LOi_1_linearSearch_1_opaque_ptr_1(%rip), %rax
	movq	%rax, _TIG_iO_3LOi_1_linearSearch_1_opaque_ptr_2(%rip)
	nop
	nop
	movq	_TIG_iO_3LOi_1_main_1_opaque_ptr_1(%rip), %rdx
	movq	_TIG_iO_3LOi_1_main_1_opaque_ptr_2(%rip), %rax
	cmpq	%rax, %rdx
	jne	.L2
	movl	-36(%rbp), %edx
	movl	-64(%rbp), %ecx
	movq	-56(%rbp), %rax
	movl	%ecx, %esi
	movq	%rax, %rdi
	call	binarySearch
	movl	%eax, -32(%rbp)
.L2:
	movl	$0, -36(%rbp)
	jmp	.L3
.L6:
	movl	c(%rip), %eax
	addl	$1, %eax
	movl	%eax, c(%rip)
	movl	-36(%rbp), %eax
	cltq
	leaq	0(,%rax,4), %rdx
	movq	-56(%rbp), %rax
	addq	%rdx, %rax
	movl	(%rax), %eax
	cmpl	%eax, -64(%rbp)
	je	.L8
	addl	$1, -36(%rbp)
.L3:
	movl	-36(%rbp), %eax
	cmpl	-60(%rbp), %eax
	jle	.L6
	jmp	.L5
.L8:
	nop
.L5:
	movl	c(%rip), %eax
	leave
	.cfi_def_cfa 7, 8
	ret
	.cfi_endproc
.LFE0:
	.size	linearSearch, .-linearSearch
	.globl	binarySearch
	.type	binarySearch, @function
binarySearch:
.LFB2:
	.cfi_startproc
	endbr64
	pushq	%rbp
	.cfi_def_cfa_offset 16
	.cfi_offset 6, -16
	movq	%rsp, %rbp
	.cfi_def_cfa_register 6
	subq	$96, %rsp
	movq	%rdi, -88(%rbp)
	movl	%esi, -92(%rbp)
	movl	%edx, -96(%rbp)
#APP
# 71 "/usr/include/x86_64-linux-gnu/bits/uintn-identity.h" 1
	##_ANNOTATION_INITIALREGION_-TIG-iO-3LOi-1-binarySearch--14
# 0 "" 2
# 75 "/usr/include/x86_64-linux-gnu/bits/uintn-identity.h" 1
	##_ANNOTATION_ATOMICREGION_-TIG-iO-3LOi-1-binarySearch--13
# 0 "" 2
#NO_APP
	movl	$24, %edi
	call	malloc@PLT
	movq	%rax, -40(%rbp)
	movq	-40(%rbp), %rax
	movq	-40(%rbp), %rdx
	movq	%rdx, (%rax)
	movq	-40(%rbp), %rax
	movq	-40(%rbp), %rdx
	movq	%rdx, 8(%rax)
	movq	-40(%rbp), %rax
	movq	%rax, _TIG_iO_3LOi_1_binarySearch_1_opaque_list_1(%rip)
	call	rand@PLT
	movl	%eax, -56(%rbp)
	movl	$24, %edi
	call	malloc@PLT
	movq	%rax, -32(%rbp)
	movq	-32(%rbp), %rax
	movl	$0, 16(%rax)
	movq	_TIG_iO_3LOi_1_binarySearch_1_opaque_list_1(%rip), %rax
	movq	(%rax), %rdx
	movq	-32(%rbp), %rax
	movq	%rdx, (%rax)
	movq	_TIG_iO_3LOi_1_binarySearch_1_opaque_list_1(%rip), %rdx
	movq	-32(%rbp), %rax
	movq	%rdx, 8(%rax)
	movq	_TIG_iO_3LOi_1_binarySearch_1_opaque_list_1(%rip), %rax
	movq	(%rax), %rax
	movq	-32(%rbp), %rdx
	movq	%rdx, 8(%rax)
	movq	_TIG_iO_3LOi_1_binarySearch_1_opaque_list_1(%rip), %rax
	movq	-32(%rbp), %rdx
	movq	%rdx, (%rax)
	call	rand@PLT
	movl	%eax, -52(%rbp)
	movl	$24, %edi
	call	malloc@PLT
	movq	%rax, -24(%rbp)
	movq	-24(%rbp), %rax
	movl	-52(%rbp), %edx
	movl	%edx, 16(%rax)
	movq	_TIG_iO_3LOi_1_binarySearch_1_opaque_list_1(%rip), %rax
	movq	(%rax), %rdx
	movq	-24(%rbp), %rax
	movq	%rdx, (%rax)
	movq	_TIG_iO_3LOi_1_binarySearch_1_opaque_list_1(%rip), %rdx
	movq	-24(%rbp), %rax
	movq	%rdx, 8(%rax)
	movq	_TIG_iO_3LOi_1_binarySearch_1_opaque_list_1(%rip), %rax
	movq	(%rax), %rax
	movq	-24(%rbp), %rdx
	movq	%rdx, 8(%rax)
	movq	_TIG_iO_3LOi_1_binarySearch_1_opaque_list_1(%rip), %rax
	movq	-24(%rbp), %rdx
	movq	%rdx, (%rax)
	call	rand@PLT
	movl	%eax, -48(%rbp)
	movl	$24, %edi
	call	malloc@PLT
	movq	%rax, -16(%rbp)
	movl	-48(%rbp), %eax
	leal	(%rax,%rax), %edx
	movq	-16(%rbp), %rax
	movl	%edx, 16(%rax)
	movq	_TIG_iO_3LOi_1_binarySearch_1_opaque_list_1(%rip), %rax
	movq	(%rax), %rdx
	movq	-16(%rbp), %rax
	movq	%rdx, (%rax)
	movq	_TIG_iO_3LOi_1_binarySearch_1_opaque_list_1(%rip), %rdx
	movq	-16(%rbp), %rax
	movq	%rdx, 8(%rax)
	movq	_TIG_iO_3LOi_1_binarySearch_1_opaque_list_1(%rip), %rax
	movq	(%rax), %rax
	movq	-16(%rbp), %rdx
	movq	%rdx, 8(%rax)
	movq	_TIG_iO_3LOi_1_binarySearch_1_opaque_list_1(%rip), %rax
	movq	-16(%rbp), %rdx
	movq	%rdx, (%rax)
	call	rand@PLT
	movl	%eax, -44(%rbp)
	movl	$24, %edi
	call	malloc@PLT
	movq	%rax, -8(%rbp)
	movl	-44(%rbp), %edx
	movl	%edx, %eax
	addl	%eax, %eax
	addl	%eax, %edx
	movq	-8(%rbp), %rax
	movl	%edx, 16(%rax)
	movq	_TIG_iO_3LOi_1_binarySearch_1_opaque_list_1(%rip), %rax
	movq	(%rax), %rdx
	movq	-8(%rbp), %rax
	movq	%rdx, (%rax)
	movq	_TIG_iO_3LOi_1_binarySearch_1_opaque_list_1(%rip), %rdx
	movq	-8(%rbp), %rax
	movq	%rdx, 8(%rax)
	movq	_TIG_iO_3LOi_1_binarySearch_1_opaque_list_1(%rip), %rax
	movq	(%rax), %rax
	movq	-8(%rbp), %rdx
	movq	%rdx, 8(%rax)
	movq	_TIG_iO_3LOi_1_binarySearch_1_opaque_list_1(%rip), %rax
	movq	-8(%rbp), %rdx
	movq	%rdx, (%rax)
	movq	_TIG_iO_3LOi_1_binarySearch_1_opaque_list_1(%rip), %rax
	movq	(%rax), %rax
	movq	%rax, _TIG_iO_3LOi_1_binarySearch_1_opaque_ptr_1(%rip)
	movq	_TIG_iO_3LOi_1_binarySearch_1_opaque_ptr_1(%rip), %rax
	movq	%rax, _TIG_iO_3LOi_1_binarySearch_1_opaque_ptr_2(%rip)
	movq	_TIG_iO_3LOi_1_binarySearch_1_opaque_ptr_2(%rip), %rax
	movq	(%rax), %rax
	movq	%rax, _TIG_iO_3LOi_1_binarySearch_1_opaque_ptr_2(%rip)
	nop
	nop
	movl	$0, -68(%rbp)
	movl	-92(%rbp), %eax
	subl	$1, %eax
	movl	%eax, -64(%rbp)
	movq	_TIG_iO_3LOi_1_main_1_opaque_ptr_1(%rip), %rdx
	movq	_TIG_iO_3LOi_1_main_1_opaque_ptr_2(%rip), %rax
	cmpq	%rax, %rdx
	jne	.L17
.L16:
	nop
.L11:
	movl	-68(%rbp), %eax
	cmpl	-64(%rbp), %eax
	setle	%al
	movzbl	%al, %eax
	cmpl	%eax, -60(%rbp)
	jne	.L11
	movl	-44(%rbp), %eax
	movl	%eax, -60(%rbp)
	movl	d(%rip), %eax
	movl	%eax, d(%rip)
	movl	-60(%rbp), %eax
	cltq
	leaq	0(,%rax,4), %rdx
	movq	-88(%rbp), %rax
	addq	%rdx, %rax
	movl	(%rax), %eax
	cmpl	%eax, -96(%rbp)
	sete	%al
	movzbl	%al, %eax
	cmpl	%eax, -92(%rbp)
	jg	.L12
	movl	-60(%rbp), %eax
	cltq
	leaq	0(,%rax,4), %rdx
	movq	-88(%rbp), %rax
	addq	%rdx, %rax
	movl	(%rax), %eax
	cmpl	%eax, -96(%rbp)
	setl	%al
	movzbl	%al, %eax
	cmpl	%eax, -56(%rbp)
	jne	.L13
	movl	-60(%rbp), %eax
	subl	$8, %eax
	movl	%eax, -68(%rbp)
	jmp	.L16
.L13:
	movl	-68(%rbp), %eax
	movl	%eax, -64(%rbp)
	jmp	.L16
.L12:
	movl	-96(%rbp), %eax
	jmp	.L15
.L21:
	movl	-68(%rbp), %edx
	movl	-64(%rbp), %eax
	addl	%edx, %eax
	movl	%eax, %edx
	shrl	$31, %edx
	addl	%edx, %eax
	sarl	%eax
	movl	%eax, -60(%rbp)
	movl	d(%rip), %eax
	addl	$1, %eax
	movl	%eax, d(%rip)
	movl	-60(%rbp), %eax
	cltq
	leaq	0(,%rax,4), %rdx
	movq	-88(%rbp), %rax
	addq	%rdx, %rax
	movl	(%rax), %eax
	cmpl	%eax, -96(%rbp)
	je	.L22
	movl	-60(%rbp), %eax
	cltq
	leaq	0(,%rax,4), %rdx
	movq	-88(%rbp), %rax
	addq	%rdx, %rax
	movl	(%rax), %eax
	cmpl	%eax, -96(%rbp)
	jge	.L20
	movl	-60(%rbp), %eax
	subl	$1, %eax
	movl	%eax, -64(%rbp)
	jmp	.L17
.L20:
	movl	-60(%rbp), %eax
	addl	$1, %eax
	movl	%eax, -68(%rbp)
.L17:
	movl	-68(%rbp), %eax
	cmpl	-64(%rbp), %eax
	jle	.L21
	jmp	.L19
.L22:
	nop
.L19:
	movl	d(%rip), %eax
.L15:
	leave
	.cfi_def_cfa 7, 8
	ret
	.cfi_endproc
.LFE2:
	.size	binarySearch, .-binarySearch
	.section	.rodata
.LC0:
	.string	"%d %d"
	.text
	.globl	main
	.type	main, @function
main:
.LFB5:
	.cfi_startproc
	endbr64
	pushq	%rbp
	.cfi_def_cfa_offset 16
	.cfi_offset 6, -16
	movq	%rsp, %rbp
	.cfi_def_cfa_register 6
	addq	$-128, %rsp
	movl	%edi, -100(%rbp)
	movq	%rsi, -112(%rbp)
	movq	%rdx, -120(%rbp)
	movq	%fs:40, %rax
	movq	%rax, -8(%rbp)
	xorl	%eax, %eax
	movl	$0, d(%rip)
	nop
.L24:
	movl	$0, c(%rip)
	nop
.L25:
	movq	$0, _TIG_IZ_3LOi_envp(%rip)
	nop
.L26:
	movq	$0, _TIG_IZ_3LOi_argv(%rip)
	nop
.L27:
	movl	$0, _TIG_IZ_3LOi_argc(%rip)
	nop
	nop
.L28:
.L29:
#APP
# 112 "/usr/include/x86_64-linux-gnu/bits/byteswap.h" 1
	##_ANNOTATION_INITIALREGION_-TIG-IZ-3LOi--0
# 0 "" 2
#NO_APP
	movl	-100(%rbp), %eax
	movl	%eax, _TIG_IZ_3LOi_argc(%rip)
	movq	-112(%rbp), %rax
	movq	%rax, _TIG_IZ_3LOi_argv(%rip)
	movq	-120(%rbp), %rax
	movq	%rax, _TIG_IZ_3LOi_envp(%rip)
#APP
# 119 "/usr/include/x86_64-linux-gnu/bits/byteswap.h" 1
	##_ANNOTATION_ATOMICREGION_-TIG-iO-3LOi-1-main--17
# 0 "" 2
#NO_APP
	movl	$24, %edi
	call	malloc@PLT
	movq	%rax, -72(%rbp)
	movq	-72(%rbp), %rax
	movq	-72(%rbp), %rdx
	movq	%rdx, 8(%rax)
	movq	-72(%rbp), %rax
	movq	-72(%rbp), %rdx
	movq	%rdx, (%rax)
	movq	-72(%rbp), %rax
	movq	%rax, _TIG_iO_3LOi_1_main_1_opaque_list_1(%rip)
	call	rand@PLT
	movl	%eax, -88(%rbp)
	movl	$24, %edi
	call	malloc@PLT
	movq	%rax, -64(%rbp)
	movq	-64(%rbp), %rax
	movl	$0, 16(%rax)
	movq	_TIG_iO_3LOi_1_main_1_opaque_list_1(%rip), %rax
	movq	8(%rax), %rdx
	movq	-64(%rbp), %rax
	movq	%rdx, 8(%rax)
	movq	_TIG_iO_3LOi_1_main_1_opaque_list_1(%rip), %rdx
	movq	-64(%rbp), %rax
	movq	%rdx, (%rax)
	movq	_TIG_iO_3LOi_1_main_1_opaque_list_1(%rip), %rax
	movq	8(%rax), %rax
	movq	-64(%rbp), %rdx
	movq	%rdx, (%rax)
	movq	_TIG_iO_3LOi_1_main_1_opaque_list_1(%rip), %rax
	movq	-64(%rbp), %rdx
	movq	%rdx, 8(%rax)
	call	rand@PLT
	movl	%eax, -84(%rbp)
	movl	$24, %edi
	call	malloc@PLT
	movq	%rax, -56(%rbp)
	movq	-56(%rbp), %rax
	movl	-84(%rbp), %edx
	movl	%edx, 16(%rax)
	movq	_TIG_iO_3LOi_1_main_1_opaque_list_1(%rip), %rax
	movq	8(%rax), %rdx
	movq	-56(%rbp), %rax
	movq	%rdx, 8(%rax)
	movq	_TIG_iO_3LOi_1_main_1_opaque_list_1(%rip), %rdx
	movq	-56(%rbp), %rax
	movq	%rdx, (%rax)
	movq	_TIG_iO_3LOi_1_main_1_opaque_list_1(%rip), %rax
	movq	8(%rax), %rax
	movq	-56(%rbp), %rdx
	movq	%rdx, (%rax)
	movq	_TIG_iO_3LOi_1_main_1_opaque_list_1(%rip), %rax
	movq	-56(%rbp), %rdx
	movq	%rdx, 8(%rax)
	movq	_TIG_iO_3LOi_1_main_1_opaque_list_1(%rip), %rax
	movq	8(%rax), %rax
	movq	%rax, _TIG_iO_3LOi_1_main_1_opaque_ptr_1(%rip)
	movq	_TIG_iO_3LOi_1_main_1_opaque_ptr_1(%rip), %rax
	movq	%rax, _TIG_iO_3LOi_1_main_1_opaque_ptr_2(%rip)
	movq	_TIG_iO_3LOi_1_main_1_opaque_ptr_2(%rip), %rax
	movq	8(%rax), %rax
	movq	%rax, _TIG_iO_3LOi_1_main_1_opaque_ptr_2(%rip)
	nop
	nop
	movl	$1, -48(%rbp)
	movl	$3, -44(%rbp)
	movl	$5, -40(%rbp)
	movl	$7, -36(%rbp)
	movl	$9, -32(%rbp)
	movl	$11, -28(%rbp)
	movl	$13, -24(%rbp)
	movl	$15, -20(%rbp)
	movl	$17, -16(%rbp)
	movl	$19, -12(%rbp)
	leaq	-48(%rbp), %rax
	movl	$13, %edx
	movl	$10, %esi
	movq	%rax, %rdi
	call	binarySearch
	movl	%eax, -80(%rbp)
	leaq	-48(%rbp), %rax
	movl	$13, %edx
	movl	$10, %esi
	movq	%rax, %rdi
	call	linearSearch
	movl	%eax, -76(%rbp)
	movl	-80(%rbp), %edx
	movl	-76(%rbp), %eax
	movl	%eax, %esi
	leaq	.LC0(%rip), %rax
	movq	%rax, %rdi
	movl	$0, %eax
	call	printf@PLT
	movq	_TIG_iO_3LOi_1_main_1_opaque_ptr_1(%rip), %rdx
	movq	_TIG_iO_3LOi_1_main_1_opaque_ptr_2(%rip), %rax
	cmpq	%rax, %rdx
	je	.L30
	movl	$0, %eax
	jmp	.L31
.L30:
#APP
# 41 "Apoorva0915_problem-Sol_ls_bs.c" 1
	.byte 0x7d
# 0 "" 2
#NO_APP
	movl	$0, %eax
.L31:
	movq	-8(%rbp), %rdx
	subq	%fs:40, %rdx
	je	.L32
	call	__stack_chk_fail@PLT
.L32:
	leave
	.cfi_def_cfa 7, 8
	ret
	.cfi_endproc
.LFE5:
	.size	main, .-main
	.ident	"GCC: (Ubuntu 11.4.0-1ubuntu1~22.04) 11.4.0"
	.section	.note.GNU-stack,"",@progbits
	.section	.note.gnu.property,"a"
	.align 8
	.long	1f - 0f
	.long	4f - 1f
	.long	5
0:
	.string	"GNU"
1:
	.align 8
	.long	0xc0000002
	.long	3f - 2f
2:
	.long	0x3
3:
	.align 8
4:
