	.file	"arpondark_final-solve-spl-lab_1_opaque.c"
	.text
	.globl	_TIG_IZ_ufmb_argc
	.bss
	.align 4
	.type	_TIG_IZ_ufmb_argc, @object
	.size	_TIG_IZ_ufmb_argc, 4
_TIG_IZ_ufmb_argc:
	.zero	4
	.globl	_TIG_iO_ufmb_1___bswap_64_1_opaque_list_1
	.align 8
	.type	_TIG_iO_ufmb_1___bswap_64_1_opaque_list_1, @object
	.size	_TIG_iO_ufmb_1___bswap_64_1_opaque_list_1, 8
_TIG_iO_ufmb_1___bswap_64_1_opaque_list_1:
	.zero	8
	.globl	_TIG_iO_ufmb_1_countWords_1_opaque_ptr_1
	.align 8
	.type	_TIG_iO_ufmb_1_countWords_1_opaque_ptr_1, @object
	.size	_TIG_iO_ufmb_1_countWords_1_opaque_ptr_1, 8
_TIG_iO_ufmb_1_countWords_1_opaque_ptr_1:
	.zero	8
	.globl	_TIG_iO_ufmb_1_isDragon_1_opaque_list_1
	.align 8
	.type	_TIG_iO_ufmb_1_isDragon_1_opaque_list_1, @object
	.size	_TIG_iO_ufmb_1_isDragon_1_opaque_list_1, 8
_TIG_iO_ufmb_1_isDragon_1_opaque_list_1:
	.zero	8
	.globl	_TIG_iO_ufmb_1_isDragon_1_opaque_list_2
	.align 8
	.type	_TIG_iO_ufmb_1_isDragon_1_opaque_list_2, @object
	.size	_TIG_iO_ufmb_1_isDragon_1_opaque_list_2, 8
_TIG_iO_ufmb_1_isDragon_1_opaque_list_2:
	.zero	8
	.globl	_TIG_iO_ufmb_1___uint64_identity_1_opaque_list_1
	.align 8
	.type	_TIG_iO_ufmb_1___uint64_identity_1_opaque_list_1, @object
	.size	_TIG_iO_ufmb_1___uint64_identity_1_opaque_list_1, 8
_TIG_iO_ufmb_1___uint64_identity_1_opaque_list_1:
	.zero	8
	.globl	_TIG_IZ_ufmb_argv
	.align 8
	.type	_TIG_IZ_ufmb_argv, @object
	.size	_TIG_IZ_ufmb_argv, 8
_TIG_IZ_ufmb_argv:
	.zero	8
	.globl	_TIG_iO_ufmb_1___uint64_identity_1_opaque_ptr_2
	.align 8
	.type	_TIG_iO_ufmb_1___uint64_identity_1_opaque_ptr_2, @object
	.size	_TIG_iO_ufmb_1___uint64_identity_1_opaque_ptr_2, 8
_TIG_iO_ufmb_1___uint64_identity_1_opaque_ptr_2:
	.zero	8
	.globl	_TIG_iO_ufmb_1___bswap_16_1_opaque_list_1
	.align 8
	.type	_TIG_iO_ufmb_1___bswap_16_1_opaque_list_1, @object
	.size	_TIG_iO_ufmb_1___bswap_16_1_opaque_list_1, 8
_TIG_iO_ufmb_1___bswap_16_1_opaque_list_1:
	.zero	8
	.globl	_TIG_iO_ufmb_1_isDragon_1_opaque_ptr_2
	.align 8
	.type	_TIG_iO_ufmb_1_isDragon_1_opaque_ptr_2, @object
	.size	_TIG_iO_ufmb_1_isDragon_1_opaque_ptr_2, 8
_TIG_iO_ufmb_1_isDragon_1_opaque_ptr_2:
	.zero	8
	.globl	_TIG_iO_ufmb_1___uint16_identity_1_opaque_list_1
	.align 8
	.type	_TIG_iO_ufmb_1___uint16_identity_1_opaque_list_1, @object
	.size	_TIG_iO_ufmb_1___uint16_identity_1_opaque_list_1, 8
_TIG_iO_ufmb_1___uint16_identity_1_opaque_list_1:
	.zero	8
	.globl	_TIG_iO_ufmb_1_countWords_1_opaque_ptr_2
	.align 8
	.type	_TIG_iO_ufmb_1_countWords_1_opaque_ptr_2, @object
	.size	_TIG_iO_ufmb_1_countWords_1_opaque_ptr_2, 8
_TIG_iO_ufmb_1_countWords_1_opaque_ptr_2:
	.zero	8
	.globl	_TIG_iO_ufmb_1_countWords_1_opaque_list_2
	.align 8
	.type	_TIG_iO_ufmb_1_countWords_1_opaque_list_2, @object
	.size	_TIG_iO_ufmb_1_countWords_1_opaque_list_2, 8
_TIG_iO_ufmb_1_countWords_1_opaque_list_2:
	.zero	8
	.globl	_TIG_iO_ufmb_1_main_1_opaque_list_1
	.align 8
	.type	_TIG_iO_ufmb_1_main_1_opaque_list_1, @object
	.size	_TIG_iO_ufmb_1_main_1_opaque_list_1, 8
_TIG_iO_ufmb_1_main_1_opaque_list_1:
	.zero	8
	.globl	_TIG_iO_ufmb_1_getMiddleWord_1_opaque_ptr_1
	.align 8
	.type	_TIG_iO_ufmb_1_getMiddleWord_1_opaque_ptr_1, @object
	.size	_TIG_iO_ufmb_1_getMiddleWord_1_opaque_ptr_1, 8
_TIG_iO_ufmb_1_getMiddleWord_1_opaque_ptr_1:
	.zero	8
	.globl	_TIG_iO_ufmb_1___bswap_64_1_opaque_ptr_1
	.align 8
	.type	_TIG_iO_ufmb_1___bswap_64_1_opaque_ptr_1, @object
	.size	_TIG_iO_ufmb_1___bswap_64_1_opaque_ptr_1, 8
_TIG_iO_ufmb_1___bswap_64_1_opaque_ptr_1:
	.zero	8
	.globl	_TIG_iO_ufmb_1___uint16_identity_1_opaque_list_2
	.align 8
	.type	_TIG_iO_ufmb_1___uint16_identity_1_opaque_list_2, @object
	.size	_TIG_iO_ufmb_1___uint16_identity_1_opaque_list_2, 8
_TIG_iO_ufmb_1___uint16_identity_1_opaque_list_2:
	.zero	8
	.globl	_TIG_iO_ufmb_1___uint16_identity_1_opaque_ptr_2
	.align 8
	.type	_TIG_iO_ufmb_1___uint16_identity_1_opaque_ptr_2, @object
	.size	_TIG_iO_ufmb_1___uint16_identity_1_opaque_ptr_2, 8
_TIG_iO_ufmb_1___uint16_identity_1_opaque_ptr_2:
	.zero	8
	.globl	_TIG_iO_ufmb_1___uint32_identity_1_opaque_ptr_2
	.align 8
	.type	_TIG_iO_ufmb_1___uint32_identity_1_opaque_ptr_2, @object
	.size	_TIG_iO_ufmb_1___uint32_identity_1_opaque_ptr_2, 8
_TIG_iO_ufmb_1___uint32_identity_1_opaque_ptr_2:
	.zero	8
	.globl	_TIG_iO_ufmb_1___bswap_32_1_opaque_ptr_1
	.align 8
	.type	_TIG_iO_ufmb_1___bswap_32_1_opaque_ptr_1, @object
	.size	_TIG_iO_ufmb_1___bswap_32_1_opaque_ptr_1, 8
_TIG_iO_ufmb_1___bswap_32_1_opaque_ptr_1:
	.zero	8
	.globl	_TIG_iO_ufmb_1___bswap_16_1_opaque_ptr_2
	.align 8
	.type	_TIG_iO_ufmb_1___bswap_16_1_opaque_ptr_2, @object
	.size	_TIG_iO_ufmb_1___bswap_16_1_opaque_ptr_2, 8
_TIG_iO_ufmb_1___bswap_16_1_opaque_ptr_2:
	.zero	8
	.globl	_TIG_iO_ufmb_1_main_1_opaque_ptr_1
	.align 8
	.type	_TIG_iO_ufmb_1_main_1_opaque_ptr_1, @object
	.size	_TIG_iO_ufmb_1_main_1_opaque_ptr_1, 8
_TIG_iO_ufmb_1_main_1_opaque_ptr_1:
	.zero	8
	.globl	_TIG_iO_ufmb_1___bswap_64_1_opaque_ptr_2
	.align 8
	.type	_TIG_iO_ufmb_1___bswap_64_1_opaque_ptr_2, @object
	.size	_TIG_iO_ufmb_1___bswap_64_1_opaque_ptr_2, 8
_TIG_iO_ufmb_1___bswap_64_1_opaque_ptr_2:
	.zero	8
	.globl	_TIG_iO_ufmb_1_getMiddleWord_1_opaque_ptr_2
	.align 8
	.type	_TIG_iO_ufmb_1_getMiddleWord_1_opaque_ptr_2, @object
	.size	_TIG_iO_ufmb_1_getMiddleWord_1_opaque_ptr_2, 8
_TIG_iO_ufmb_1_getMiddleWord_1_opaque_ptr_2:
	.zero	8
	.globl	_TIG_iO_ufmb_1___uint32_identity_1_opaque_list_1
	.align 8
	.type	_TIG_iO_ufmb_1___uint32_identity_1_opaque_list_1, @object
	.size	_TIG_iO_ufmb_1___uint32_identity_1_opaque_list_1, 8
_TIG_iO_ufmb_1___uint32_identity_1_opaque_list_1:
	.zero	8
	.globl	_TIG_iO_ufmb_1_getMiddleWord_1_opaque_list_1
	.align 8
	.type	_TIG_iO_ufmb_1_getMiddleWord_1_opaque_list_1, @object
	.size	_TIG_iO_ufmb_1_getMiddleWord_1_opaque_list_1, 8
_TIG_iO_ufmb_1_getMiddleWord_1_opaque_list_1:
	.zero	8
	.globl	_TIG_iO_ufmb_1___bswap_32_1_opaque_list_1
	.align 8
	.type	_TIG_iO_ufmb_1___bswap_32_1_opaque_list_1, @object
	.size	_TIG_iO_ufmb_1___bswap_32_1_opaque_list_1, 8
_TIG_iO_ufmb_1___bswap_32_1_opaque_list_1:
	.zero	8
	.globl	_TIG_iO_ufmb_1_getMiddleWord_1_opaque_list_2
	.align 8
	.type	_TIG_iO_ufmb_1_getMiddleWord_1_opaque_list_2, @object
	.size	_TIG_iO_ufmb_1_getMiddleWord_1_opaque_list_2, 8
_TIG_iO_ufmb_1_getMiddleWord_1_opaque_list_2:
	.zero	8
	.globl	_TIG_iO_ufmb_1___bswap_16_1_opaque_ptr_1
	.align 8
	.type	_TIG_iO_ufmb_1___bswap_16_1_opaque_ptr_1, @object
	.size	_TIG_iO_ufmb_1___bswap_16_1_opaque_ptr_1, 8
_TIG_iO_ufmb_1___bswap_16_1_opaque_ptr_1:
	.zero	8
	.globl	_TIG_iO_ufmb_1___bswap_16_1_opaque_list_2
	.align 8
	.type	_TIG_iO_ufmb_1___bswap_16_1_opaque_list_2, @object
	.size	_TIG_iO_ufmb_1___bswap_16_1_opaque_list_2, 8
_TIG_iO_ufmb_1___bswap_16_1_opaque_list_2:
	.zero	8
	.globl	_TIG_iO_ufmb_1___uint16_identity_1_opaque_ptr_1
	.align 8
	.type	_TIG_iO_ufmb_1___uint16_identity_1_opaque_ptr_1, @object
	.size	_TIG_iO_ufmb_1___uint16_identity_1_opaque_ptr_1, 8
_TIG_iO_ufmb_1___uint16_identity_1_opaque_ptr_1:
	.zero	8
	.globl	_TIG_iO_ufmb_1___bswap_32_1_opaque_list_2
	.align 8
	.type	_TIG_iO_ufmb_1___bswap_32_1_opaque_list_2, @object
	.size	_TIG_iO_ufmb_1___bswap_32_1_opaque_list_2, 8
_TIG_iO_ufmb_1___bswap_32_1_opaque_list_2:
	.zero	8
	.globl	_TIG_iO_ufmb_1___uint32_identity_1_opaque_list_2
	.align 8
	.type	_TIG_iO_ufmb_1___uint32_identity_1_opaque_list_2, @object
	.size	_TIG_iO_ufmb_1___uint32_identity_1_opaque_list_2, 8
_TIG_iO_ufmb_1___uint32_identity_1_opaque_list_2:
	.zero	8
	.globl	_TIG_IZ_ufmb_envp
	.align 8
	.type	_TIG_IZ_ufmb_envp, @object
	.size	_TIG_IZ_ufmb_envp, 8
_TIG_IZ_ufmb_envp:
	.zero	8
	.globl	_TIG_iO_ufmb_1_isDragon_1_opaque_ptr_1
	.align 8
	.type	_TIG_iO_ufmb_1_isDragon_1_opaque_ptr_1, @object
	.size	_TIG_iO_ufmb_1_isDragon_1_opaque_ptr_1, 8
_TIG_iO_ufmb_1_isDragon_1_opaque_ptr_1:
	.zero	8
	.globl	_TIG_iO_ufmb_1_main_1_opaque_ptr_2
	.align 8
	.type	_TIG_iO_ufmb_1_main_1_opaque_ptr_2, @object
	.size	_TIG_iO_ufmb_1_main_1_opaque_ptr_2, 8
_TIG_iO_ufmb_1_main_1_opaque_ptr_2:
	.zero	8
	.globl	_TIG_iO_ufmb_1___bswap_32_1_opaque_ptr_2
	.align 8
	.type	_TIG_iO_ufmb_1___bswap_32_1_opaque_ptr_2, @object
	.size	_TIG_iO_ufmb_1___bswap_32_1_opaque_ptr_2, 8
_TIG_iO_ufmb_1___bswap_32_1_opaque_ptr_2:
	.zero	8
	.globl	_TIG_iO_ufmb_1_countWords_1_opaque_list_1
	.align 8
	.type	_TIG_iO_ufmb_1_countWords_1_opaque_list_1, @object
	.size	_TIG_iO_ufmb_1_countWords_1_opaque_list_1, 8
_TIG_iO_ufmb_1_countWords_1_opaque_list_1:
	.zero	8
	.globl	_TIG_iO_ufmb_1___uint64_identity_1_opaque_list_2
	.align 8
	.type	_TIG_iO_ufmb_1___uint64_identity_1_opaque_list_2, @object
	.size	_TIG_iO_ufmb_1___uint64_identity_1_opaque_list_2, 8
_TIG_iO_ufmb_1___uint64_identity_1_opaque_list_2:
	.zero	8
	.globl	_TIG_iO_ufmb_1___uint32_identity_1_opaque_ptr_1
	.align 8
	.type	_TIG_iO_ufmb_1___uint32_identity_1_opaque_ptr_1, @object
	.size	_TIG_iO_ufmb_1___uint32_identity_1_opaque_ptr_1, 8
_TIG_iO_ufmb_1___uint32_identity_1_opaque_ptr_1:
	.zero	8
	.globl	_TIG_iO_ufmb_1_main_1_opaque_list_2
	.align 8
	.type	_TIG_iO_ufmb_1_main_1_opaque_list_2, @object
	.size	_TIG_iO_ufmb_1_main_1_opaque_list_2, 8
_TIG_iO_ufmb_1_main_1_opaque_list_2:
	.zero	8
	.globl	_TIG_iO_ufmb_1___uint64_identity_1_opaque_ptr_1
	.align 8
	.type	_TIG_iO_ufmb_1___uint64_identity_1_opaque_ptr_1, @object
	.size	_TIG_iO_ufmb_1___uint64_identity_1_opaque_ptr_1, 8
_TIG_iO_ufmb_1___uint64_identity_1_opaque_ptr_1:
	.zero	8
	.globl	_TIG_iO_ufmb_1___bswap_64_1_opaque_list_2
	.align 8
	.type	_TIG_iO_ufmb_1___bswap_64_1_opaque_list_2, @object
	.size	_TIG_iO_ufmb_1___bswap_64_1_opaque_list_2, 8
_TIG_iO_ufmb_1___bswap_64_1_opaque_list_2:
	.zero	8
	.text
	.globl	getMiddleWord
	.type	getMiddleWord, @function
getMiddleWord:
.LFB1:
	.cfi_startproc
	endbr64
	pushq	%rbp
	.cfi_def_cfa_offset 16
	.cfi_offset 6, -16
	movq	%rsp, %rbp
	.cfi_def_cfa_register 6
	subq	$96, %rsp
	movq	%rdi, -72(%rbp)
	movq	%rsi, -80(%rbp)
	movq	%rdx, -88(%rbp)
#APP
# 72 "/usr/include/x86_64-linux-gnu/bits/uintn-identity.h" 1
	##_ANNOTATION_INITIALREGION_-TIG-iO-ufmb-1-getMiddleWord--16
# 0 "" 2
# 76 "/usr/include/x86_64-linux-gnu/bits/uintn-identity.h" 1
	##_ANNOTATION_ATOMICREGION_-TIG-iO-ufmb-1-getMiddleWord--15
# 0 "" 2
#NO_APP
	movl	$24, %edi
	call	malloc@PLT
	movq	%rax, -24(%rbp)
	movq	-24(%rbp), %rax
	movq	-24(%rbp), %rdx
	movq	%rdx, 16(%rax)
	movq	-24(%rbp), %rax
	movq	-24(%rbp), %rdx
	movq	%rdx, 8(%rax)
	movq	-24(%rbp), %rax
	movq	%rax, _TIG_iO_ufmb_1_getMiddleWord_1_opaque_list_1(%rip)
	call	rand@PLT
	movl	%eax, -44(%rbp)
	movl	$24, %edi
	call	malloc@PLT
	movq	%rax, -16(%rbp)
	movq	-16(%rbp), %rax
	movl	$0, (%rax)
	movq	_TIG_iO_ufmb_1_getMiddleWord_1_opaque_list_1(%rip), %rax
	movq	16(%rax), %rdx
	movq	-16(%rbp), %rax
	movq	%rdx, 16(%rax)
	movq	_TIG_iO_ufmb_1_getMiddleWord_1_opaque_list_1(%rip), %rdx
	movq	-16(%rbp), %rax
	movq	%rdx, 8(%rax)
	movq	_TIG_iO_ufmb_1_getMiddleWord_1_opaque_list_1(%rip), %rax
	movq	16(%rax), %rax
	movq	-16(%rbp), %rdx
	movq	%rdx, 8(%rax)
	movq	_TIG_iO_ufmb_1_getMiddleWord_1_opaque_list_1(%rip), %rax
	movq	-16(%rbp), %rdx
	movq	%rdx, 16(%rax)
	call	rand@PLT
	movl	%eax, -40(%rbp)
	movl	$24, %edi
	call	malloc@PLT
	movq	%rax, -8(%rbp)
	movq	-8(%rbp), %rax
	movl	-40(%rbp), %edx
	movl	%edx, (%rax)
	movq	_TIG_iO_ufmb_1_getMiddleWord_1_opaque_list_1(%rip), %rax
	movq	16(%rax), %rdx
	movq	-8(%rbp), %rax
	movq	%rdx, 16(%rax)
	movq	_TIG_iO_ufmb_1_getMiddleWord_1_opaque_list_1(%rip), %rdx
	movq	-8(%rbp), %rax
	movq	%rdx, 8(%rax)
	movq	_TIG_iO_ufmb_1_getMiddleWord_1_opaque_list_1(%rip), %rax
	movq	16(%rax), %rax
	movq	-8(%rbp), %rdx
	movq	%rdx, 8(%rax)
	movq	_TIG_iO_ufmb_1_getMiddleWord_1_opaque_list_1(%rip), %rax
	movq	-8(%rbp), %rdx
	movq	%rdx, 16(%rax)
	movq	_TIG_iO_ufmb_1_getMiddleWord_1_opaque_list_1(%rip), %rax
	movq	16(%rax), %rax
	movq	%rax, _TIG_iO_ufmb_1_getMiddleWord_1_opaque_ptr_1(%rip)
	movq	_TIG_iO_ufmb_1_getMiddleWord_1_opaque_ptr_1(%rip), %rax
	movq	%rax, _TIG_iO_ufmb_1_getMiddleWord_1_opaque_ptr_2(%rip)
	nop
	nop
	movq	-72(%rbp), %rax
	movq	%rax, %rdi
	call	countWords
	movl	%eax, -36(%rbp)
	movl	-36(%rbp), %eax
	movl	%eax, -32(%rbp)
	movl	-32(%rbp), %eax
	movl	%eax, %edx
	shrl	$31, %edx
	addl	%edx, %eax
	sarl	%eax
	addl	$1, %eax
	movl	%eax, -28(%rbp)
	movl	$0, -52(%rbp)
	movl	$0, -48(%rbp)
.L15:
	movl	-48(%rbp), %eax
	movslq	%eax, %rdx
	movq	-72(%rbp), %rax
	addq	%rdx, %rax
	movzbl	(%rax), %eax
	testb	%al, %al
	je	.L17
	movl	-52(%rbp), %eax
	cmpl	-28(%rbp), %eax
	jge	.L18
	jmp	.L5
.L6:
	addl	$1, -48(%rbp)
.L5:
	movl	-48(%rbp), %eax
	movslq	%eax, %rdx
	movq	-72(%rbp), %rax
	addq	%rdx, %rax
	movzbl	(%rax), %eax
	cmpb	$32, %al
	je	.L6
	addl	$1, -52(%rbp)
	movl	-52(%rbp), %eax
	cmpl	-28(%rbp), %eax
	jne	.L7
	movq	-80(%rbp), %rax
	movl	-48(%rbp), %edx
	movl	%edx, (%rax)
.L11:
	movl	-48(%rbp), %eax
	movslq	%eax, %rdx
	movq	-72(%rbp), %rax
	addq	%rdx, %rax
	movzbl	(%rax), %eax
	testb	%al, %al
	je	.L19
	movl	-48(%rbp), %eax
	movslq	%eax, %rdx
	movq	-72(%rbp), %rax
	addq	%rdx, %rax
	movzbl	(%rax), %eax
	cmpb	$32, %al
	je	.L20
	addl	$1, -48(%rbp)
	jmp	.L11
.L19:
	nop
	jmp	.L10
.L20:
	nop
.L10:
	movq	-88(%rbp), %rax
	movl	-48(%rbp), %edx
	movl	%edx, (%rax)
	jmp	.L4
.L7:
	movl	-48(%rbp), %eax
	movslq	%eax, %rdx
	movq	-72(%rbp), %rax
	addq	%rdx, %rax
	movzbl	(%rax), %eax
	testb	%al, %al
	je	.L21
	movl	-48(%rbp), %eax
	movslq	%eax, %rdx
	movq	-72(%rbp), %rax
	addq	%rdx, %rax
	movzbl	(%rax), %eax
	cmpb	$32, %al
	je	.L22
	addl	$1, -48(%rbp)
	jmp	.L7
.L21:
	nop
	jmp	.L15
.L22:
	nop
	jmp	.L15
.L17:
	nop
	jmp	.L4
.L18:
	nop
.L4:
	movq	_TIG_iO_ufmb_1_main_1_opaque_ptr_1(%rip), %rdx
	movq	_TIG_iO_ufmb_1_main_1_opaque_ptr_2(%rip), %rax
	cmpq	%rax, %rdx
	leave
	.cfi_def_cfa 7, 8
	ret
	.cfi_endproc
.LFE1:
	.size	getMiddleWord, .-getMiddleWord
	.globl	countWords
	.type	countWords, @function
countWords:
.LFB4:
	.cfi_startproc
	endbr64
	pushq	%rbp
	.cfi_def_cfa_offset 16
	.cfi_offset 6, -16
	movq	%rsp, %rbp
	.cfi_def_cfa_register 6
	subq	$80, %rsp
	movq	%rdi, -72(%rbp)
#APP
# 59 "/usr/include/x86_64-linux-gnu/bits/uintn-identity.h" 1
	##_ANNOTATION_INITIALREGION_-TIG-iO-ufmb-1-countWords--14
# 0 "" 2
# 63 "/usr/include/x86_64-linux-gnu/bits/uintn-identity.h" 1
	##_ANNOTATION_ATOMICREGION_-TIG-iO-ufmb-1-countWords--13
# 0 "" 2
#NO_APP
	movl	$24, %edi
	call	malloc@PLT
	movq	%rax, -40(%rbp)
	movq	-40(%rbp), %rax
	movq	-40(%rbp), %rdx
	movq	%rdx, (%rax)
	movq	-40(%rbp), %rax
	movq	-40(%rbp), %rdx
	movq	%rdx, 8(%rax)
	movq	-40(%rbp), %rax
	movq	%rax, _TIG_iO_ufmb_1_countWords_1_opaque_list_1(%rip)
	call	rand@PLT
	movl	%eax, -56(%rbp)
	movl	$24, %edi
	call	malloc@PLT
	movq	%rax, -32(%rbp)
	movq	-32(%rbp), %rax
	movl	$0, 16(%rax)
	movq	_TIG_iO_ufmb_1_countWords_1_opaque_list_1(%rip), %rax
	movq	(%rax), %rdx
	movq	-32(%rbp), %rax
	movq	%rdx, (%rax)
	movq	_TIG_iO_ufmb_1_countWords_1_opaque_list_1(%rip), %rdx
	movq	-32(%rbp), %rax
	movq	%rdx, 8(%rax)
	movq	_TIG_iO_ufmb_1_countWords_1_opaque_list_1(%rip), %rax
	movq	(%rax), %rax
	movq	-32(%rbp), %rdx
	movq	%rdx, 8(%rax)
	movq	_TIG_iO_ufmb_1_countWords_1_opaque_list_1(%rip), %rax
	movq	-32(%rbp), %rdx
	movq	%rdx, (%rax)
	call	rand@PLT
	movl	%eax, -52(%rbp)
	movl	$24, %edi
	call	malloc@PLT
	movq	%rax, -24(%rbp)
	movq	-24(%rbp), %rax
	movl	-52(%rbp), %edx
	movl	%edx, 16(%rax)
	movq	_TIG_iO_ufmb_1_countWords_1_opaque_list_1(%rip), %rax
	movq	(%rax), %rdx
	movq	-24(%rbp), %rax
	movq	%rdx, (%rax)
	movq	_TIG_iO_ufmb_1_countWords_1_opaque_list_1(%rip), %rdx
	movq	-24(%rbp), %rax
	movq	%rdx, 8(%rax)
	movq	_TIG_iO_ufmb_1_countWords_1_opaque_list_1(%rip), %rax
	movq	(%rax), %rax
	movq	-24(%rbp), %rdx
	movq	%rdx, 8(%rax)
	movq	_TIG_iO_ufmb_1_countWords_1_opaque_list_1(%rip), %rax
	movq	-24(%rbp), %rdx
	movq	%rdx, (%rax)
	call	rand@PLT
	movl	%eax, -48(%rbp)
	movl	$24, %edi
	call	malloc@PLT
	movq	%rax, -16(%rbp)
	movl	-48(%rbp), %eax
	leal	(%rax,%rax), %edx
	movq	-16(%rbp), %rax
	movl	%edx, 16(%rax)
	movq	_TIG_iO_ufmb_1_countWords_1_opaque_list_1(%rip), %rax
	movq	(%rax), %rdx
	movq	-16(%rbp), %rax
	movq	%rdx, (%rax)
	movq	_TIG_iO_ufmb_1_countWords_1_opaque_list_1(%rip), %rdx
	movq	-16(%rbp), %rax
	movq	%rdx, 8(%rax)
	movq	_TIG_iO_ufmb_1_countWords_1_opaque_list_1(%rip), %rax
	movq	(%rax), %rax
	movq	-16(%rbp), %rdx
	movq	%rdx, 8(%rax)
	movq	_TIG_iO_ufmb_1_countWords_1_opaque_list_1(%rip), %rax
	movq	-16(%rbp), %rdx
	movq	%rdx, (%rax)
	call	rand@PLT
	movl	%eax, -44(%rbp)
	movl	$24, %edi
	call	malloc@PLT
	movq	%rax, -8(%rbp)
	movl	-44(%rbp), %edx
	movl	%edx, %eax
	addl	%eax, %eax
	addl	%eax, %edx
	movq	-8(%rbp), %rax
	movl	%edx, 16(%rax)
	movq	_TIG_iO_ufmb_1_countWords_1_opaque_list_1(%rip), %rax
	movq	(%rax), %rdx
	movq	-8(%rbp), %rax
	movq	%rdx, (%rax)
	movq	_TIG_iO_ufmb_1_countWords_1_opaque_list_1(%rip), %rdx
	movq	-8(%rbp), %rax
	movq	%rdx, 8(%rax)
	movq	_TIG_iO_ufmb_1_countWords_1_opaque_list_1(%rip), %rax
	movq	(%rax), %rax
	movq	-8(%rbp), %rdx
	movq	%rdx, 8(%rax)
	movq	_TIG_iO_ufmb_1_countWords_1_opaque_list_1(%rip), %rax
	movq	-8(%rbp), %rdx
	movq	%rdx, (%rax)
	movq	_TIG_iO_ufmb_1_countWords_1_opaque_list_1(%rip), %rax
	movq	(%rax), %rax
	movq	%rax, _TIG_iO_ufmb_1_countWords_1_opaque_ptr_1(%rip)
	movq	_TIG_iO_ufmb_1_countWords_1_opaque_ptr_1(%rip), %rax
	movq	%rax, _TIG_iO_ufmb_1_countWords_1_opaque_ptr_2(%rip)
	movq	_TIG_iO_ufmb_1_countWords_1_opaque_ptr_2(%rip), %rax
	movq	(%rax), %rax
	movq	%rax, _TIG_iO_ufmb_1_countWords_1_opaque_ptr_2(%rip)
	nop
	nop
	movl	$0, -64(%rbp)
	movl	$0, -60(%rbp)
	jmp	.L24
.L27:
	movq	-72(%rbp), %rax
	movzbl	(%rax), %eax
	cmpb	$32, %al
	jne	.L25
	movl	$0, -60(%rbp)
	jmp	.L26
.L25:
	cmpl	$0, -60(%rbp)
	jne	.L26
	movl	$1, -60(%rbp)
	addl	$1, -64(%rbp)
.L26:
	addq	$1, -72(%rbp)
.L24:
	movq	-72(%rbp), %rax
	movzbl	(%rax), %eax
	testb	%al, %al
	jne	.L27
	movq	_TIG_iO_ufmb_1_main_1_opaque_ptr_1(%rip), %rdx
	movq	_TIG_iO_ufmb_1_main_1_opaque_ptr_2(%rip), %rax
	cmpq	%rax, %rdx
	je	.L28
	movl	-52(%rbp), %eax
	movl	$0, %edx
	movl	$0, %esi
	movl	%eax, %edi
	call	main
	movl	%eax, -64(%rbp)
.L28:
	movl	-64(%rbp), %eax
	leave
	.cfi_def_cfa 7, 8
	ret
	.cfi_endproc
.LFE4:
	.size	countWords, .-countWords
	.globl	isDragon
	.type	isDragon, @function
isDragon:
.LFB8:
	.cfi_startproc
	endbr64
	pushq	%rbp
	.cfi_def_cfa_offset 16
	.cfi_offset 6, -16
	movq	%rsp, %rbp
	.cfi_def_cfa_register 6
	subq	$80, %rsp
	movq	%rdi, -72(%rbp)
	movq	%fs:40, %rax
	movq	%rax, -8(%rbp)
	xorl	%eax, %eax
#APP
# 95 "/usr/include/x86_64-linux-gnu/bits/byteswap.h" 1
	##_ANNOTATION_INITIALREGION_-TIG-iO-ufmb-1-isDragon--18
# 0 "" 2
# 99 "/usr/include/x86_64-linux-gnu/bits/byteswap.h" 1
	##_ANNOTATION_ATOMICREGION_-TIG-iO-ufmb-1-isDragon--17
# 0 "" 2
#NO_APP
	movl	$24, %edi
	call	malloc@PLT
	movq	%rax, -40(%rbp)
	movq	-40(%rbp), %rax
	movq	-40(%rbp), %rdx
	movq	%rdx, 8(%rax)
	movq	-40(%rbp), %rax
	movq	-40(%rbp), %rdx
	movq	%rdx, (%rax)
	movq	-40(%rbp), %rax
	movq	%rax, _TIG_iO_ufmb_1_isDragon_1_opaque_list_1(%rip)
	call	rand@PLT
	movl	%eax, -48(%rbp)
	movl	$24, %edi
	call	malloc@PLT
	movq	%rax, -32(%rbp)
	movq	-32(%rbp), %rax
	movl	$0, 16(%rax)
	movq	_TIG_iO_ufmb_1_isDragon_1_opaque_list_1(%rip), %rax
	movq	8(%rax), %rdx
	movq	-32(%rbp), %rax
	movq	%rdx, 8(%rax)
	movq	_TIG_iO_ufmb_1_isDragon_1_opaque_list_1(%rip), %rdx
	movq	-32(%rbp), %rax
	movq	%rdx, (%rax)
	movq	_TIG_iO_ufmb_1_isDragon_1_opaque_list_1(%rip), %rax
	movq	8(%rax), %rax
	movq	-32(%rbp), %rdx
	movq	%rdx, (%rax)
	movq	_TIG_iO_ufmb_1_isDragon_1_opaque_list_1(%rip), %rax
	movq	-32(%rbp), %rdx
	movq	%rdx, 8(%rax)
	call	rand@PLT
	movl	%eax, -44(%rbp)
	movl	$24, %edi
	call	malloc@PLT
	movq	%rax, -24(%rbp)
	movq	-24(%rbp), %rax
	movl	-44(%rbp), %edx
	movl	%edx, 16(%rax)
	movq	_TIG_iO_ufmb_1_isDragon_1_opaque_list_1(%rip), %rax
	movq	8(%rax), %rdx
	movq	-24(%rbp), %rax
	movq	%rdx, 8(%rax)
	movq	_TIG_iO_ufmb_1_isDragon_1_opaque_list_1(%rip), %rdx
	movq	-24(%rbp), %rax
	movq	%rdx, (%rax)
	movq	_TIG_iO_ufmb_1_isDragon_1_opaque_list_1(%rip), %rax
	movq	8(%rax), %rax
	movq	-24(%rbp), %rdx
	movq	%rdx, (%rax)
	movq	_TIG_iO_ufmb_1_isDragon_1_opaque_list_1(%rip), %rax
	movq	-24(%rbp), %rdx
	movq	%rdx, 8(%rax)
	movq	_TIG_iO_ufmb_1_isDragon_1_opaque_list_1(%rip), %rax
	movq	8(%rax), %rax
	movq	%rax, _TIG_iO_ufmb_1_isDragon_1_opaque_ptr_1(%rip)
	movq	_TIG_iO_ufmb_1_isDragon_1_opaque_ptr_1(%rip), %rax
	movq	%rax, _TIG_iO_ufmb_1_isDragon_1_opaque_ptr_2(%rip)
	movq	_TIG_iO_ufmb_1_isDragon_1_opaque_ptr_2(%rip), %rax
	movq	8(%rax), %rax
	movq	%rax, _TIG_iO_ufmb_1_isDragon_1_opaque_ptr_2(%rip)
	nop
	nop
	leaq	-56(%rbp), %rdx
	leaq	-60(%rbp), %rcx
	movq	-72(%rbp), %rax
	movq	%rcx, %rsi
	movq	%rax, %rdi
	call	getMiddleWord
	movl	-60(%rbp), %eax
	movslq	%eax, %rdx
	movq	-72(%rbp), %rax
	addq	%rdx, %rax
	movzbl	(%rax), %eax
	cmpb	$63, %al
	jne	.L31
	movq	_TIG_iO_ufmb_1_main_1_opaque_ptr_1(%rip), %rdx
	movq	_TIG_iO_ufmb_1_main_1_opaque_ptr_2(%rip), %rax
	cmpq	%rax, %rdx
	jne	.L31
	movl	-56(%rbp), %eax
	cltq
	leaq	-1(%rax), %rdx
	movq	-72(%rbp), %rax
	addq	%rdx, %rax
	movzbl	(%rax), %eax
	cmpb	$35, %al
	jne	.L31
	movl	-60(%rbp), %eax
	addl	$1, %eax
	movl	%eax, -52(%rbp)
	jmp	.L32
.L35:
	call	__ctype_b_loc@PLT
	movq	%rax, -16(%rbp)
	movq	-16(%rbp), %rax
	movq	(%rax), %rdx
	movl	-52(%rbp), %eax
	movslq	%eax, %rcx
	movq	-72(%rbp), %rax
	addq	%rcx, %rax
	movzbl	(%rax), %eax
	movsbq	%al, %rax
	addq	%rax, %rax
	addq	%rdx, %rax
	movzwl	(%rax), %eax
	movzwl	%ax, %eax
	andl	$1024, %eax
	testl	%eax, %eax
	jne	.L33
	movl	$0, %eax
	jmp	.L36
.L33:
	addl	$1, -52(%rbp)
.L32:
	movl	-56(%rbp), %eax
	subl	$1, %eax
	cmpl	%eax, -52(%rbp)
	jl	.L35
	movl	$1, %eax
	jmp	.L36
.L31:
	movl	$0, %eax
.L36:
	movq	-8(%rbp), %rdx
	subq	%fs:40, %rdx
	je	.L37
	call	__stack_chk_fail@PLT
.L37:
	leave
	.cfi_def_cfa 7, 8
	ret
	.cfi_endproc
.LFE8:
	.size	isDragon, .-isDragon
	.section	.rodata
.LC0:
	.string	"Enter a string: "
.LC1:
	.string	"Yes, it's a Dragon String."
.LC2:
	.string	"No, it's not a Dragon String."
	.text
	.globl	main
	.type	main, @function
main:
.LFB9:
	.cfi_startproc
	endbr64
	pushq	%rbp
	.cfi_def_cfa_offset 16
	.cfi_offset 6, -16
	movq	%rsp, %rbp
	.cfi_def_cfa_register 6
	subq	$192, %rsp
	movl	%edi, -164(%rbp)
	movq	%rsi, -176(%rbp)
	movq	%rdx, -184(%rbp)
	movq	%fs:40, %rax
	movq	%rax, -8(%rbp)
	xorl	%eax, %eax
	movq	$0, _TIG_IZ_ufmb_envp(%rip)
	nop
.L39:
	movq	$0, _TIG_IZ_ufmb_argv(%rip)
	nop
.L40:
	movl	$0, _TIG_IZ_ufmb_argc(%rip)
	nop
	nop
.L41:
.L42:
#APP
# 96 "arpondark_final-solve-spl-lab_1.c" 1
	##_ANNOTATION_INITIALREGION_-TIG-IZ-ufmb--0
# 0 "" 2
#NO_APP
	movl	-164(%rbp), %eax
	movl	%eax, _TIG_IZ_ufmb_argc(%rip)
	movq	-176(%rbp), %rax
	movq	%rax, _TIG_IZ_ufmb_argv(%rip)
	movq	-184(%rbp), %rax
	movq	%rax, _TIG_IZ_ufmb_envp(%rip)
#APP
# 103 "arpondark_final-solve-spl-lab_1.c" 1
	##_ANNOTATION_ATOMICREGION_-TIG-iO-ufmb-1-main--19
# 0 "" 2
#NO_APP
	movl	$24, %edi
	call	malloc@PLT
	movq	%rax, -136(%rbp)
	movq	-136(%rbp), %rax
	movq	-136(%rbp), %rdx
	movq	%rdx, 8(%rax)
	movq	-136(%rbp), %rax
	movq	-136(%rbp), %rdx
	movq	%rdx, 16(%rax)
	movq	-136(%rbp), %rax
	movq	%rax, _TIG_iO_ufmb_1_main_1_opaque_list_1(%rip)
	call	rand@PLT
	movl	%eax, -148(%rbp)
	movl	$24, %edi
	call	malloc@PLT
	movq	%rax, -128(%rbp)
	movq	-128(%rbp), %rax
	movl	$0, (%rax)
	movq	_TIG_iO_ufmb_1_main_1_opaque_list_1(%rip), %rax
	movq	8(%rax), %rdx
	movq	-128(%rbp), %rax
	movq	%rdx, 8(%rax)
	movq	_TIG_iO_ufmb_1_main_1_opaque_list_1(%rip), %rdx
	movq	-128(%rbp), %rax
	movq	%rdx, 16(%rax)
	movq	_TIG_iO_ufmb_1_main_1_opaque_list_1(%rip), %rax
	movq	8(%rax), %rax
	movq	-128(%rbp), %rdx
	movq	%rdx, 16(%rax)
	movq	_TIG_iO_ufmb_1_main_1_opaque_list_1(%rip), %rax
	movq	-128(%rbp), %rdx
	movq	%rdx, 8(%rax)
	call	rand@PLT
	movl	%eax, -144(%rbp)
	movl	$24, %edi
	call	malloc@PLT
	movq	%rax, -120(%rbp)
	movq	-120(%rbp), %rax
	movl	-144(%rbp), %edx
	movl	%edx, (%rax)
	movq	_TIG_iO_ufmb_1_main_1_opaque_list_1(%rip), %rax
	movq	8(%rax), %rdx
	movq	-120(%rbp), %rax
	movq	%rdx, 8(%rax)
	movq	_TIG_iO_ufmb_1_main_1_opaque_list_1(%rip), %rdx
	movq	-120(%rbp), %rax
	movq	%rdx, 16(%rax)
	movq	_TIG_iO_ufmb_1_main_1_opaque_list_1(%rip), %rax
	movq	8(%rax), %rax
	movq	-120(%rbp), %rdx
	movq	%rdx, 16(%rax)
	movq	_TIG_iO_ufmb_1_main_1_opaque_list_1(%rip), %rax
	movq	-120(%rbp), %rdx
	movq	%rdx, 8(%rax)
	movq	_TIG_iO_ufmb_1_main_1_opaque_list_1(%rip), %rax
	movq	8(%rax), %rax
	movq	%rax, _TIG_iO_ufmb_1_main_1_opaque_ptr_1(%rip)
	movq	_TIG_iO_ufmb_1_main_1_opaque_ptr_1(%rip), %rax
	movq	%rax, _TIG_iO_ufmb_1_main_1_opaque_ptr_2(%rip)
	nop
	nop
	leaq	.LC0(%rip), %rax
	movq	%rax, %rdi
	movl	$0, %eax
	call	printf@PLT
	leaq	-112(%rbp), %rax
	movq	%rax, %rdi
	movl	$0, %eax
	call	gets@PLT
	leaq	-112(%rbp), %rax
	movq	%rax, %rdi
	call	isDragon
	movl	%eax, -140(%rbp)
	cmpl	$0, -140(%rbp)
	je	.L43
	leaq	.LC1(%rip), %rax
	movq	%rax, %rdi
	call	puts@PLT
	jmp	.L44
.L43:
	leaq	.LC2(%rip), %rax
	movq	%rax, %rdi
	call	puts@PLT
.L44:
	movq	_TIG_iO_ufmb_1_main_1_opaque_ptr_1(%rip), %rdx
	movq	_TIG_iO_ufmb_1_main_1_opaque_ptr_2(%rip), %rax
	cmpq	%rax, %rdx
	jne	.L45
	movl	$0, %eax
	jmp	.L47
.L45:
	movl	$7, %eax
.L47:
	movq	-8(%rbp), %rdx
	subq	%fs:40, %rdx
	je	.L48
	call	__stack_chk_fail@PLT
.L48:
	leave
	.cfi_def_cfa 7, 8
	ret
	.cfi_endproc
.LFE9:
	.size	main, .-main
	.ident	"GCC: (Ubuntu 11.4.0-1ubuntu1~22.04) 11.4.0"
	.section	.note.GNU-stack,"",@progbits
	.section	.note.gnu.property,"a"
	.align 8
	.long	1f - 0f
	.long	4f - 1f
	.long	5
0:
	.string	"GNU"
1:
	.align 8
	.long	0xc0000002
	.long	3f - 2f
2:
	.long	0x3
3:
	.align 8
4:
