	.file	"Ch3shireDev_WIT-Zajecia_Prg_0010_opaque.c"
	.text
	.globl	_TIG_iO_Z75t_1___bswap_64_1_opaque_list_2
	.bss
	.align 8
	.type	_TIG_iO_Z75t_1___bswap_64_1_opaque_list_2, @object
	.size	_TIG_iO_Z75t_1___bswap_64_1_opaque_list_2, 8
_TIG_iO_Z75t_1___bswap_64_1_opaque_list_2:
	.zero	8
	.globl	_TIG_iO_Z75t_1_main_1_opaque_list_2
	.align 8
	.type	_TIG_iO_Z75t_1_main_1_opaque_list_2, @object
	.size	_TIG_iO_Z75t_1_main_1_opaque_list_2, 8
_TIG_iO_Z75t_1_main_1_opaque_list_2:
	.zero	8
	.globl	_TIG_iO_Z75t_1___uint16_identity_1_opaque_ptr_2
	.align 8
	.type	_TIG_iO_Z75t_1___uint16_identity_1_opaque_ptr_2, @object
	.size	_TIG_iO_Z75t_1___uint16_identity_1_opaque_ptr_2, 8
_TIG_iO_Z75t_1___uint16_identity_1_opaque_ptr_2:
	.zero	8
	.globl	_TIG_IZ_Z75t_envp
	.align 8
	.type	_TIG_IZ_Z75t_envp, @object
	.size	_TIG_IZ_Z75t_envp, 8
_TIG_IZ_Z75t_envp:
	.zero	8
	.globl	_TIG_iO_Z75t_1_main_1_opaque_ptr_2
	.align 8
	.type	_TIG_iO_Z75t_1_main_1_opaque_ptr_2, @object
	.size	_TIG_iO_Z75t_1_main_1_opaque_ptr_2, 8
_TIG_iO_Z75t_1_main_1_opaque_ptr_2:
	.zero	8
	.globl	_TIG_IZ_Z75t_argv
	.align 8
	.type	_TIG_IZ_Z75t_argv, @object
	.size	_TIG_IZ_Z75t_argv, 8
_TIG_IZ_Z75t_argv:
	.zero	8
	.globl	_TIG_iO_Z75t_1___bswap_32_1_opaque_ptr_1
	.align 8
	.type	_TIG_iO_Z75t_1___bswap_32_1_opaque_ptr_1, @object
	.size	_TIG_iO_Z75t_1___bswap_32_1_opaque_ptr_1, 8
_TIG_iO_Z75t_1___bswap_32_1_opaque_ptr_1:
	.zero	8
	.globl	_TIG_iO_Z75t_1___uint16_identity_1_opaque_list_2
	.align 8
	.type	_TIG_iO_Z75t_1___uint16_identity_1_opaque_list_2, @object
	.size	_TIG_iO_Z75t_1___uint16_identity_1_opaque_list_2, 8
_TIG_iO_Z75t_1___uint16_identity_1_opaque_list_2:
	.zero	8
	.globl	_TIG_iO_Z75t_1___uint32_identity_1_opaque_list_2
	.align 8
	.type	_TIG_iO_Z75t_1___uint32_identity_1_opaque_list_2, @object
	.size	_TIG_iO_Z75t_1___uint32_identity_1_opaque_list_2, 8
_TIG_iO_Z75t_1___uint32_identity_1_opaque_list_2:
	.zero	8
	.globl	_TIG_iO_Z75t_1___uint32_identity_1_opaque_ptr_1
	.align 8
	.type	_TIG_iO_Z75t_1___uint32_identity_1_opaque_ptr_1, @object
	.size	_TIG_iO_Z75t_1___uint32_identity_1_opaque_ptr_1, 8
_TIG_iO_Z75t_1___uint32_identity_1_opaque_ptr_1:
	.zero	8
	.globl	_TIG_iO_Z75t_1___uint16_identity_1_opaque_list_1
	.align 8
	.type	_TIG_iO_Z75t_1___uint16_identity_1_opaque_list_1, @object
	.size	_TIG_iO_Z75t_1___uint16_identity_1_opaque_list_1, 8
_TIG_iO_Z75t_1___uint16_identity_1_opaque_list_1:
	.zero	8
	.globl	_TIG_iO_Z75t_1___uint32_identity_1_opaque_list_1
	.align 8
	.type	_TIG_iO_Z75t_1___uint32_identity_1_opaque_list_1, @object
	.size	_TIG_iO_Z75t_1___uint32_identity_1_opaque_list_1, 8
_TIG_iO_Z75t_1___uint32_identity_1_opaque_list_1:
	.zero	8
	.globl	_TIG_iO_Z75t_1___bswap_64_1_opaque_ptr_1
	.align 8
	.type	_TIG_iO_Z75t_1___bswap_64_1_opaque_ptr_1, @object
	.size	_TIG_iO_Z75t_1___bswap_64_1_opaque_ptr_1, 8
_TIG_iO_Z75t_1___bswap_64_1_opaque_ptr_1:
	.zero	8
	.globl	_TIG_iO_Z75t_1___bswap_32_1_opaque_ptr_2
	.align 8
	.type	_TIG_iO_Z75t_1___bswap_32_1_opaque_ptr_2, @object
	.size	_TIG_iO_Z75t_1___bswap_32_1_opaque_ptr_2, 8
_TIG_iO_Z75t_1___bswap_32_1_opaque_ptr_2:
	.zero	8
	.globl	_TIG_iO_Z75t_1___uint64_identity_1_opaque_ptr_2
	.align 8
	.type	_TIG_iO_Z75t_1___uint64_identity_1_opaque_ptr_2, @object
	.size	_TIG_iO_Z75t_1___uint64_identity_1_opaque_ptr_2, 8
_TIG_iO_Z75t_1___uint64_identity_1_opaque_ptr_2:
	.zero	8
	.globl	_TIG_IZ_Z75t_argc
	.align 4
	.type	_TIG_IZ_Z75t_argc, @object
	.size	_TIG_IZ_Z75t_argc, 4
_TIG_IZ_Z75t_argc:
	.zero	4
	.globl	_TIG_iO_Z75t_1___bswap_32_1_opaque_list_2
	.align 8
	.type	_TIG_iO_Z75t_1___bswap_32_1_opaque_list_2, @object
	.size	_TIG_iO_Z75t_1___bswap_32_1_opaque_list_2, 8
_TIG_iO_Z75t_1___bswap_32_1_opaque_list_2:
	.zero	8
	.globl	_TIG_iO_Z75t_1___uint16_identity_1_opaque_ptr_1
	.align 8
	.type	_TIG_iO_Z75t_1___uint16_identity_1_opaque_ptr_1, @object
	.size	_TIG_iO_Z75t_1___uint16_identity_1_opaque_ptr_1, 8
_TIG_iO_Z75t_1___uint16_identity_1_opaque_ptr_1:
	.zero	8
	.globl	_TIG_iO_Z75t_1_main_1_opaque_ptr_1
	.align 8
	.type	_TIG_iO_Z75t_1_main_1_opaque_ptr_1, @object
	.size	_TIG_iO_Z75t_1_main_1_opaque_ptr_1, 8
_TIG_iO_Z75t_1_main_1_opaque_ptr_1:
	.zero	8
	.globl	_TIG_iO_Z75t_1___uint32_identity_1_opaque_ptr_2
	.align 8
	.type	_TIG_iO_Z75t_1___uint32_identity_1_opaque_ptr_2, @object
	.size	_TIG_iO_Z75t_1___uint32_identity_1_opaque_ptr_2, 8
_TIG_iO_Z75t_1___uint32_identity_1_opaque_ptr_2:
	.zero	8
	.globl	_TIG_iO_Z75t_1___uint64_identity_1_opaque_ptr_1
	.align 8
	.type	_TIG_iO_Z75t_1___uint64_identity_1_opaque_ptr_1, @object
	.size	_TIG_iO_Z75t_1___uint64_identity_1_opaque_ptr_1, 8
_TIG_iO_Z75t_1___uint64_identity_1_opaque_ptr_1:
	.zero	8
	.globl	_TIG_iO_Z75t_1___bswap_16_1_opaque_ptr_2
	.align 8
	.type	_TIG_iO_Z75t_1___bswap_16_1_opaque_ptr_2, @object
	.size	_TIG_iO_Z75t_1___bswap_16_1_opaque_ptr_2, 8
_TIG_iO_Z75t_1___bswap_16_1_opaque_ptr_2:
	.zero	8
	.globl	_TIG_iO_Z75t_1___bswap_64_1_opaque_ptr_2
	.align 8
	.type	_TIG_iO_Z75t_1___bswap_64_1_opaque_ptr_2, @object
	.size	_TIG_iO_Z75t_1___bswap_64_1_opaque_ptr_2, 8
_TIG_iO_Z75t_1___bswap_64_1_opaque_ptr_2:
	.zero	8
	.globl	_TIG_iO_Z75t_1___bswap_16_1_opaque_list_2
	.align 8
	.type	_TIG_iO_Z75t_1___bswap_16_1_opaque_list_2, @object
	.size	_TIG_iO_Z75t_1___bswap_16_1_opaque_list_2, 8
_TIG_iO_Z75t_1___bswap_16_1_opaque_list_2:
	.zero	8
	.globl	_TIG_iO_Z75t_1___uint64_identity_1_opaque_list_2
	.align 8
	.type	_TIG_iO_Z75t_1___uint64_identity_1_opaque_list_2, @object
	.size	_TIG_iO_Z75t_1___uint64_identity_1_opaque_list_2, 8
_TIG_iO_Z75t_1___uint64_identity_1_opaque_list_2:
	.zero	8
	.globl	_TIG_iO_Z75t_1_main_1_opaque_list_1
	.align 8
	.type	_TIG_iO_Z75t_1_main_1_opaque_list_1, @object
	.size	_TIG_iO_Z75t_1_main_1_opaque_list_1, 8
_TIG_iO_Z75t_1_main_1_opaque_list_1:
	.zero	8
	.globl	_TIG_iO_Z75t_1___bswap_64_1_opaque_list_1
	.align 8
	.type	_TIG_iO_Z75t_1___bswap_64_1_opaque_list_1, @object
	.size	_TIG_iO_Z75t_1___bswap_64_1_opaque_list_1, 8
_TIG_iO_Z75t_1___bswap_64_1_opaque_list_1:
	.zero	8
	.globl	_TIG_iO_Z75t_1___bswap_16_1_opaque_ptr_1
	.align 8
	.type	_TIG_iO_Z75t_1___bswap_16_1_opaque_ptr_1, @object
	.size	_TIG_iO_Z75t_1___bswap_16_1_opaque_ptr_1, 8
_TIG_iO_Z75t_1___bswap_16_1_opaque_ptr_1:
	.zero	8
	.globl	_TIG_iO_Z75t_1___bswap_16_1_opaque_list_1
	.align 8
	.type	_TIG_iO_Z75t_1___bswap_16_1_opaque_list_1, @object
	.size	_TIG_iO_Z75t_1___bswap_16_1_opaque_list_1, 8
_TIG_iO_Z75t_1___bswap_16_1_opaque_list_1:
	.zero	8
	.globl	_TIG_iO_Z75t_1___bswap_32_1_opaque_list_1
	.align 8
	.type	_TIG_iO_Z75t_1___bswap_32_1_opaque_list_1, @object
	.size	_TIG_iO_Z75t_1___bswap_32_1_opaque_list_1, 8
_TIG_iO_Z75t_1___bswap_32_1_opaque_list_1:
	.zero	8
	.globl	_TIG_iO_Z75t_1___uint64_identity_1_opaque_list_1
	.align 8
	.type	_TIG_iO_Z75t_1___uint64_identity_1_opaque_list_1, @object
	.size	_TIG_iO_Z75t_1___uint64_identity_1_opaque_list_1, 8
_TIG_iO_Z75t_1___uint64_identity_1_opaque_list_1:
	.zero	8
	.section	.rodata
.LC0:
	.string	"size ?= "
.LC1:
	.string	"%d"
.LC2:
	.string	"T[%2d] ?="
.LC3:
	.string	"T[%2d] = %3d\n"
.LC4:
	.string	"\n\n\tMax[%d] = %d\n"
	.text
	.globl	main
	.type	main, @function
main:
.LFB3:
	.cfi_startproc
	endbr64
	pushq	%rbp
	.cfi_def_cfa_offset 16
	.cfi_offset 6, -16
	movq	%rsp, %rbp
	.cfi_def_cfa_register 6
	addq	$-128, %rsp
	movl	%edi, -100(%rbp)
	movq	%rsi, -112(%rbp)
	movq	%rdx, -120(%rbp)
	movq	%fs:40, %rax
	movq	%rax, -8(%rbp)
	xorl	%eax, %eax
	movq	$0, _TIG_IZ_Z75t_envp(%rip)
	nop
.L2:
	movq	$0, _TIG_IZ_Z75t_argv(%rip)
	nop
.L3:
	movl	$0, _TIG_IZ_Z75t_argc(%rip)
	nop
	nop
.L4:
.L5:
#APP
# 89 "/usr/include/x86_64-linux-gnu/bits/uintn-identity.h" 1
	##_ANNOTATION_INITIALREGION_-TIG-IZ-Z75t--0
# 0 "" 2
#NO_APP
	movl	-100(%rbp), %eax
	movl	%eax, _TIG_IZ_Z75t_argc(%rip)
	movq	-112(%rbp), %rax
	movq	%rax, _TIG_IZ_Z75t_argv(%rip)
	movq	-120(%rbp), %rax
	movq	%rax, _TIG_IZ_Z75t_envp(%rip)
#APP
# 96 "/usr/include/x86_64-linux-gnu/bits/uintn-identity.h" 1
	##_ANNOTATION_ATOMICREGION_-TIG-iO-Z75t-1-main--13
# 0 "" 2
#NO_APP
	movl	$24, %edi
	call	malloc@PLT
	movq	%rax, -64(%rbp)
	movq	-64(%rbp), %rax
	movq	-64(%rbp), %rdx
	movq	%rdx, (%rax)
	movq	-64(%rbp), %rax
	movq	-64(%rbp), %rdx
	movq	%rdx, 8(%rax)
	movq	-64(%rbp), %rax
	movq	%rax, _TIG_iO_Z75t_1_main_1_opaque_list_1(%rip)
	call	rand@PLT
	movl	%eax, -80(%rbp)
	movl	$24, %edi
	call	malloc@PLT
	movq	%rax, -56(%rbp)
	movq	-56(%rbp), %rax
	movl	$0, 16(%rax)
	movq	_TIG_iO_Z75t_1_main_1_opaque_list_1(%rip), %rax
	movq	(%rax), %rdx
	movq	-56(%rbp), %rax
	movq	%rdx, (%rax)
	movq	_TIG_iO_Z75t_1_main_1_opaque_list_1(%rip), %rdx
	movq	-56(%rbp), %rax
	movq	%rdx, 8(%rax)
	movq	_TIG_iO_Z75t_1_main_1_opaque_list_1(%rip), %rax
	movq	(%rax), %rax
	movq	-56(%rbp), %rdx
	movq	%rdx, 8(%rax)
	movq	_TIG_iO_Z75t_1_main_1_opaque_list_1(%rip), %rax
	movq	-56(%rbp), %rdx
	movq	%rdx, (%rax)
	call	rand@PLT
	movl	%eax, -76(%rbp)
	movl	$24, %edi
	call	malloc@PLT
	movq	%rax, -48(%rbp)
	movq	-48(%rbp), %rax
	movl	-76(%rbp), %edx
	movl	%edx, 16(%rax)
	movq	_TIG_iO_Z75t_1_main_1_opaque_list_1(%rip), %rax
	movq	(%rax), %rdx
	movq	-48(%rbp), %rax
	movq	%rdx, (%rax)
	movq	_TIG_iO_Z75t_1_main_1_opaque_list_1(%rip), %rdx
	movq	-48(%rbp), %rax
	movq	%rdx, 8(%rax)
	movq	_TIG_iO_Z75t_1_main_1_opaque_list_1(%rip), %rax
	movq	(%rax), %rax
	movq	-48(%rbp), %rdx
	movq	%rdx, 8(%rax)
	movq	_TIG_iO_Z75t_1_main_1_opaque_list_1(%rip), %rax
	movq	-48(%rbp), %rdx
	movq	%rdx, (%rax)
	call	rand@PLT
	movl	%eax, -72(%rbp)
	movl	$24, %edi
	call	malloc@PLT
	movq	%rax, -40(%rbp)
	movl	-72(%rbp), %eax
	leal	(%rax,%rax), %edx
	movq	-40(%rbp), %rax
	movl	%edx, 16(%rax)
	movq	_TIG_iO_Z75t_1_main_1_opaque_list_1(%rip), %rax
	movq	(%rax), %rdx
	movq	-40(%rbp), %rax
	movq	%rdx, (%rax)
	movq	_TIG_iO_Z75t_1_main_1_opaque_list_1(%rip), %rdx
	movq	-40(%rbp), %rax
	movq	%rdx, 8(%rax)
	movq	_TIG_iO_Z75t_1_main_1_opaque_list_1(%rip), %rax
	movq	(%rax), %rax
	movq	-40(%rbp), %rdx
	movq	%rdx, 8(%rax)
	movq	_TIG_iO_Z75t_1_main_1_opaque_list_1(%rip), %rax
	movq	-40(%rbp), %rdx
	movq	%rdx, (%rax)
	call	rand@PLT
	movl	%eax, -68(%rbp)
	movl	$24, %edi
	call	malloc@PLT
	movq	%rax, -32(%rbp)
	movl	-68(%rbp), %edx
	movl	%edx, %eax
	addl	%eax, %eax
	addl	%eax, %edx
	movq	-32(%rbp), %rax
	movl	%edx, 16(%rax)
	movq	_TIG_iO_Z75t_1_main_1_opaque_list_1(%rip), %rax
	movq	(%rax), %rdx
	movq	-32(%rbp), %rax
	movq	%rdx, (%rax)
	movq	_TIG_iO_Z75t_1_main_1_opaque_list_1(%rip), %rdx
	movq	-32(%rbp), %rax
	movq	%rdx, 8(%rax)
	movq	_TIG_iO_Z75t_1_main_1_opaque_list_1(%rip), %rax
	movq	(%rax), %rax
	movq	-32(%rbp), %rdx
	movq	%rdx, 8(%rax)
	movq	_TIG_iO_Z75t_1_main_1_opaque_list_1(%rip), %rax
	movq	-32(%rbp), %rdx
	movq	%rdx, (%rax)
	movq	_TIG_iO_Z75t_1_main_1_opaque_list_1(%rip), %rax
	movq	(%rax), %rax
	movq	%rax, _TIG_iO_Z75t_1_main_1_opaque_ptr_1(%rip)
	movq	_TIG_iO_Z75t_1_main_1_opaque_ptr_1(%rip), %rax
	movq	%rax, _TIG_iO_Z75t_1_main_1_opaque_ptr_2(%rip)
	movq	_TIG_iO_Z75t_1_main_1_opaque_ptr_2(%rip), %rax
	movq	(%rax), %rax
	movq	%rax, _TIG_iO_Z75t_1_main_1_opaque_ptr_2(%rip)
	nop
	nop
	leaq	.LC0(%rip), %rax
	movq	%rax, %rdi
	movl	$0, %eax
	call	printf@PLT
	leaq	-92(%rbp), %rax
	movq	%rax, %rsi
	leaq	.LC1(%rip), %rax
	movq	%rax, %rdi
	movl	$0, %eax
	call	__isoc99_scanf@PLT
	movl	-92(%rbp), %eax
	cltq
	salq	$2, %rax
	movq	%rax, %rdi
	call	malloc@PLT
	movq	%rax, -24(%rbp)
	movq	-24(%rbp), %rax
	movq	%rax, -16(%rbp)
	movl	$0, -88(%rbp)
	jmp	.L6
.L7:
	movl	-88(%rbp), %eax
	movl	%eax, %esi
	leaq	.LC2(%rip), %rax
	movq	%rax, %rdi
	movl	$0, %eax
	call	printf@PLT
	movl	-88(%rbp), %eax
	cltq
	leaq	0(,%rax,4), %rdx
	movq	-16(%rbp), %rax
	addq	%rdx, %rax
	movq	%rax, %rsi
	leaq	.LC1(%rip), %rax
	movq	%rax, %rdi
	movl	$0, %eax
	call	__isoc99_scanf@PLT
	addl	$1, -88(%rbp)
.L6:
	movl	-92(%rbp), %eax
	cmpl	%eax, -88(%rbp)
	jl	.L7
	movl	$1, -88(%rbp)
	movl	$0, -84(%rbp)
	jmp	.L8
.L10:
	movl	-84(%rbp), %eax
	cltq
	leaq	0(,%rax,4), %rdx
	movq	-16(%rbp), %rax
	addq	%rdx, %rax
	movl	(%rax), %edx
	movl	-88(%rbp), %eax
	cltq
	leaq	0(,%rax,4), %rcx
	movq	-16(%rbp), %rax
	addq	%rcx, %rax
	movl	(%rax), %eax
	cmpl	%eax, %edx
	jg	.L9
	movl	-88(%rbp), %eax
	movl	%eax, -84(%rbp)
.L9:
	addl	$1, -88(%rbp)
.L8:
	movl	-92(%rbp), %eax
	cmpl	%eax, -88(%rbp)
	jl	.L10
	movl	$0, -88(%rbp)
	jmp	.L11
.L12:
	movl	-88(%rbp), %eax
	cltq
	leaq	0(,%rax,4), %rdx
	movq	-16(%rbp), %rax
	addq	%rdx, %rax
	movl	(%rax), %edx
	movl	-88(%rbp), %eax
	movl	%eax, %esi
	leaq	.LC3(%rip), %rax
	movq	%rax, %rdi
	movl	$0, %eax
	call	printf@PLT
	addl	$1, -88(%rbp)
.L11:
	movl	-92(%rbp), %eax
	cmpl	%eax, -88(%rbp)
	jl	.L12
	movq	_TIG_iO_Z75t_1_main_1_opaque_ptr_1(%rip), %rdx
	movq	_TIG_iO_Z75t_1_main_1_opaque_ptr_2(%rip), %rax
	cmpq	%rax, %rdx
	jne	.L13
	movq	-112(%rbp), %rdx
	movq	-120(%rbp), %rcx
	movl	-80(%rbp), %eax
	movq	%rcx, %rsi
	movl	%eax, %edi
	call	main
	movl	%eax, -76(%rbp)
.L13:
	movl	-84(%rbp), %eax
	cltq
	leaq	0(,%rax,4), %rdx
	movq	-16(%rbp), %rax
	addq	%rdx, %rax
	movl	(%rax), %edx
	movl	-84(%rbp), %eax
	movl	%eax, %esi
	leaq	.LC4(%rip), %rax
	movq	%rax, %rdi
	movl	$0, %eax
	call	printf@PLT
	movl	$0, %eax
	movq	-8(%rbp), %rdx
	subq	%fs:40, %rdx
	je	.L15
	call	__stack_chk_fail@PLT
.L15:
	leave
	.cfi_def_cfa 7, 8
	ret
	.cfi_endproc
.LFE3:
	.size	main, .-main
	.ident	"GCC: (Ubuntu 11.4.0-1ubuntu1~22.04) 11.4.0"
	.section	.note.GNU-stack,"",@progbits
	.section	.note.gnu.property,"a"
	.align 8
	.long	1f - 0f
	.long	4f - 1f
	.long	5
0:
	.string	"GNU"
1:
	.align 8
	.long	0xc0000002
	.long	3f - 2f
2:
	.long	0x3
3:
	.align 8
4:
