	.file	"davicarmo10_C-and-Geometry_main_opaque.c"
	.text
	.globl	_TIG_iO_o0y9_1___bswap_16_1_opaque_ptr_2
	.bss
	.align 8
	.type	_TIG_iO_o0y9_1___bswap_16_1_opaque_ptr_2, @object
	.size	_TIG_iO_o0y9_1___bswap_16_1_opaque_ptr_2, 8
_TIG_iO_o0y9_1___bswap_16_1_opaque_ptr_2:
	.zero	8
	.globl	_TIG_iO_o0y9_1_determinant_1_opaque_list_1
	.align 8
	.type	_TIG_iO_o0y9_1_determinant_1_opaque_list_1, @object
	.size	_TIG_iO_o0y9_1_determinant_1_opaque_list_1, 8
_TIG_iO_o0y9_1_determinant_1_opaque_list_1:
	.zero	8
	.globl	_TIG_iO_o0y9_1___bswap_32_1_opaque_list_1
	.align 8
	.type	_TIG_iO_o0y9_1___bswap_32_1_opaque_list_1, @object
	.size	_TIG_iO_o0y9_1___bswap_32_1_opaque_list_1, 8
_TIG_iO_o0y9_1___bswap_32_1_opaque_list_1:
	.zero	8
	.globl	_TIG_IZ_o0y9_envp
	.align 8
	.type	_TIG_IZ_o0y9_envp, @object
	.size	_TIG_IZ_o0y9_envp, 8
_TIG_IZ_o0y9_envp:
	.zero	8
	.globl	_TIG_iO_o0y9_1___bswap_64_1_opaque_list_1
	.align 8
	.type	_TIG_iO_o0y9_1___bswap_64_1_opaque_list_1, @object
	.size	_TIG_iO_o0y9_1___bswap_64_1_opaque_list_1, 8
_TIG_iO_o0y9_1___bswap_64_1_opaque_list_1:
	.zero	8
	.globl	_TIG_iO_o0y9_1___uint32_identity_1_opaque_list_1
	.align 8
	.type	_TIG_iO_o0y9_1___uint32_identity_1_opaque_list_1, @object
	.size	_TIG_iO_o0y9_1___uint32_identity_1_opaque_list_1, 8
_TIG_iO_o0y9_1___uint32_identity_1_opaque_list_1:
	.zero	8
	.globl	_TIG_iO_o0y9_1___bswap_32_1_opaque_ptr_1
	.align 8
	.type	_TIG_iO_o0y9_1___bswap_32_1_opaque_ptr_1, @object
	.size	_TIG_iO_o0y9_1___bswap_32_1_opaque_ptr_1, 8
_TIG_iO_o0y9_1___bswap_32_1_opaque_ptr_1:
	.zero	8
	.globl	_TIG_iO_o0y9_1___bswap_16_1_opaque_ptr_1
	.align 8
	.type	_TIG_iO_o0y9_1___bswap_16_1_opaque_ptr_1, @object
	.size	_TIG_iO_o0y9_1___bswap_16_1_opaque_ptr_1, 8
_TIG_iO_o0y9_1___bswap_16_1_opaque_ptr_1:
	.zero	8
	.globl	_TIG_iO_o0y9_1_main_1_opaque_list_2
	.align 8
	.type	_TIG_iO_o0y9_1_main_1_opaque_list_2, @object
	.size	_TIG_iO_o0y9_1_main_1_opaque_list_2, 8
_TIG_iO_o0y9_1_main_1_opaque_list_2:
	.zero	8
	.globl	_TIG_iO_o0y9_1_determinant_1_opaque_ptr_1
	.align 8
	.type	_TIG_iO_o0y9_1_determinant_1_opaque_ptr_1, @object
	.size	_TIG_iO_o0y9_1_determinant_1_opaque_ptr_1, 8
_TIG_iO_o0y9_1_determinant_1_opaque_ptr_1:
	.zero	8
	.globl	_TIG_iO_o0y9_1___bswap_16_1_opaque_list_2
	.align 8
	.type	_TIG_iO_o0y9_1___bswap_16_1_opaque_list_2, @object
	.size	_TIG_iO_o0y9_1___bswap_16_1_opaque_list_2, 8
_TIG_iO_o0y9_1___bswap_16_1_opaque_list_2:
	.zero	8
	.globl	_TIG_IZ_o0y9_argv
	.align 8
	.type	_TIG_IZ_o0y9_argv, @object
	.size	_TIG_IZ_o0y9_argv, 8
_TIG_IZ_o0y9_argv:
	.zero	8
	.globl	_TIG_iO_o0y9_1___bswap_32_1_opaque_list_2
	.align 8
	.type	_TIG_iO_o0y9_1___bswap_32_1_opaque_list_2, @object
	.size	_TIG_iO_o0y9_1___bswap_32_1_opaque_list_2, 8
_TIG_iO_o0y9_1___bswap_32_1_opaque_list_2:
	.zero	8
	.globl	_TIG_iO_o0y9_1___bswap_32_1_opaque_ptr_2
	.align 8
	.type	_TIG_iO_o0y9_1___bswap_32_1_opaque_ptr_2, @object
	.size	_TIG_iO_o0y9_1___bswap_32_1_opaque_ptr_2, 8
_TIG_iO_o0y9_1___bswap_32_1_opaque_ptr_2:
	.zero	8
	.globl	_TIG_iO_o0y9_1___uint32_identity_1_opaque_list_2
	.align 8
	.type	_TIG_iO_o0y9_1___uint32_identity_1_opaque_list_2, @object
	.size	_TIG_iO_o0y9_1___uint32_identity_1_opaque_list_2, 8
_TIG_iO_o0y9_1___uint32_identity_1_opaque_list_2:
	.zero	8
	.globl	_TIG_iO_o0y9_1___bswap_64_1_opaque_ptr_1
	.align 8
	.type	_TIG_iO_o0y9_1___bswap_64_1_opaque_ptr_1, @object
	.size	_TIG_iO_o0y9_1___bswap_64_1_opaque_ptr_1, 8
_TIG_iO_o0y9_1___bswap_64_1_opaque_ptr_1:
	.zero	8
	.globl	_TIG_iO_o0y9_1___uint16_identity_1_opaque_list_1
	.align 8
	.type	_TIG_iO_o0y9_1___uint16_identity_1_opaque_list_1, @object
	.size	_TIG_iO_o0y9_1___uint16_identity_1_opaque_list_1, 8
_TIG_iO_o0y9_1___uint16_identity_1_opaque_list_1:
	.zero	8
	.globl	_TIG_iO_o0y9_1___bswap_16_1_opaque_list_1
	.align 8
	.type	_TIG_iO_o0y9_1___bswap_16_1_opaque_list_1, @object
	.size	_TIG_iO_o0y9_1___bswap_16_1_opaque_list_1, 8
_TIG_iO_o0y9_1___bswap_16_1_opaque_list_1:
	.zero	8
	.globl	_TIG_iO_o0y9_1_determinant_1_opaque_list_2
	.align 8
	.type	_TIG_iO_o0y9_1_determinant_1_opaque_list_2, @object
	.size	_TIG_iO_o0y9_1_determinant_1_opaque_list_2, 8
_TIG_iO_o0y9_1_determinant_1_opaque_list_2:
	.zero	8
	.globl	_TIG_iO_o0y9_1___bswap_64_1_opaque_ptr_2
	.align 8
	.type	_TIG_iO_o0y9_1___bswap_64_1_opaque_ptr_2, @object
	.size	_TIG_iO_o0y9_1___bswap_64_1_opaque_ptr_2, 8
_TIG_iO_o0y9_1___bswap_64_1_opaque_ptr_2:
	.zero	8
	.globl	_TIG_iO_o0y9_1___uint16_identity_1_opaque_list_2
	.align 8
	.type	_TIG_iO_o0y9_1___uint16_identity_1_opaque_list_2, @object
	.size	_TIG_iO_o0y9_1___uint16_identity_1_opaque_list_2, 8
_TIG_iO_o0y9_1___uint16_identity_1_opaque_list_2:
	.zero	8
	.globl	_TIG_iO_o0y9_1___uint32_identity_1_opaque_ptr_1
	.align 8
	.type	_TIG_iO_o0y9_1___uint32_identity_1_opaque_ptr_1, @object
	.size	_TIG_iO_o0y9_1___uint32_identity_1_opaque_ptr_1, 8
_TIG_iO_o0y9_1___uint32_identity_1_opaque_ptr_1:
	.zero	8
	.globl	_TIG_iO_o0y9_1_main_1_opaque_ptr_2
	.align 8
	.type	_TIG_iO_o0y9_1_main_1_opaque_ptr_2, @object
	.size	_TIG_iO_o0y9_1_main_1_opaque_ptr_2, 8
_TIG_iO_o0y9_1_main_1_opaque_ptr_2:
	.zero	8
	.globl	_TIG_iO_o0y9_1_determinant_1_opaque_ptr_2
	.align 8
	.type	_TIG_iO_o0y9_1_determinant_1_opaque_ptr_2, @object
	.size	_TIG_iO_o0y9_1_determinant_1_opaque_ptr_2, 8
_TIG_iO_o0y9_1_determinant_1_opaque_ptr_2:
	.zero	8
	.globl	_TIG_iO_o0y9_1___uint16_identity_1_opaque_ptr_2
	.align 8
	.type	_TIG_iO_o0y9_1___uint16_identity_1_opaque_ptr_2, @object
	.size	_TIG_iO_o0y9_1___uint16_identity_1_opaque_ptr_2, 8
_TIG_iO_o0y9_1___uint16_identity_1_opaque_ptr_2:
	.zero	8
	.globl	_TIG_iO_o0y9_1_main_1_opaque_ptr_1
	.align 8
	.type	_TIG_iO_o0y9_1_main_1_opaque_ptr_1, @object
	.size	_TIG_iO_o0y9_1_main_1_opaque_ptr_1, 8
_TIG_iO_o0y9_1_main_1_opaque_ptr_1:
	.zero	8
	.globl	_TIG_iO_o0y9_1___bswap_64_1_opaque_list_2
	.align 8
	.type	_TIG_iO_o0y9_1___bswap_64_1_opaque_list_2, @object
	.size	_TIG_iO_o0y9_1___bswap_64_1_opaque_list_2, 8
_TIG_iO_o0y9_1___bswap_64_1_opaque_list_2:
	.zero	8
	.globl	_TIG_iO_o0y9_1___uint64_identity_1_opaque_ptr_1
	.align 8
	.type	_TIG_iO_o0y9_1___uint64_identity_1_opaque_ptr_1, @object
	.size	_TIG_iO_o0y9_1___uint64_identity_1_opaque_ptr_1, 8
_TIG_iO_o0y9_1___uint64_identity_1_opaque_ptr_1:
	.zero	8
	.globl	_TIG_iO_o0y9_1_main_1_opaque_list_1
	.align 8
	.type	_TIG_iO_o0y9_1_main_1_opaque_list_1, @object
	.size	_TIG_iO_o0y9_1_main_1_opaque_list_1, 8
_TIG_iO_o0y9_1_main_1_opaque_list_1:
	.zero	8
	.globl	_TIG_iO_o0y9_1___uint64_identity_1_opaque_ptr_2
	.align 8
	.type	_TIG_iO_o0y9_1___uint64_identity_1_opaque_ptr_2, @object
	.size	_TIG_iO_o0y9_1___uint64_identity_1_opaque_ptr_2, 8
_TIG_iO_o0y9_1___uint64_identity_1_opaque_ptr_2:
	.zero	8
	.globl	_TIG_iO_o0y9_1___uint64_identity_1_opaque_list_2
	.align 8
	.type	_TIG_iO_o0y9_1___uint64_identity_1_opaque_list_2, @object
	.size	_TIG_iO_o0y9_1___uint64_identity_1_opaque_list_2, 8
_TIG_iO_o0y9_1___uint64_identity_1_opaque_list_2:
	.zero	8
	.globl	_TIG_iO_o0y9_1___uint32_identity_1_opaque_ptr_2
	.align 8
	.type	_TIG_iO_o0y9_1___uint32_identity_1_opaque_ptr_2, @object
	.size	_TIG_iO_o0y9_1___uint32_identity_1_opaque_ptr_2, 8
_TIG_iO_o0y9_1___uint32_identity_1_opaque_ptr_2:
	.zero	8
	.globl	_TIG_iO_o0y9_1___uint64_identity_1_opaque_list_1
	.align 8
	.type	_TIG_iO_o0y9_1___uint64_identity_1_opaque_list_1, @object
	.size	_TIG_iO_o0y9_1___uint64_identity_1_opaque_list_1, 8
_TIG_iO_o0y9_1___uint64_identity_1_opaque_list_1:
	.zero	8
	.globl	_TIG_IZ_o0y9_argc
	.align 4
	.type	_TIG_IZ_o0y9_argc, @object
	.size	_TIG_IZ_o0y9_argc, 4
_TIG_IZ_o0y9_argc:
	.zero	4
	.globl	_TIG_iO_o0y9_1___uint16_identity_1_opaque_ptr_1
	.align 8
	.type	_TIG_iO_o0y9_1___uint16_identity_1_opaque_ptr_1, @object
	.size	_TIG_iO_o0y9_1___uint16_identity_1_opaque_ptr_1, 8
_TIG_iO_o0y9_1___uint16_identity_1_opaque_ptr_1:
	.zero	8
	.text
	.globl	determinant
	.type	determinant, @function
determinant:
.LFB0:
	.cfi_startproc
	endbr64
	pushq	%rbp
	.cfi_def_cfa_offset 16
	.cfi_offset 6, -16
	movq	%rsp, %rbp
	.cfi_def_cfa_register 6
	subq	$944, %rsp
	movq	%rdi, -936(%rbp)
	movl	%esi, -940(%rbp)
	movq	%fs:40, %rax
	movq	%rax, -8(%rbp)
	xorl	%eax, %eax
#APP
# 90 "/usr/include/stdlib.h" 1
	##_ANNOTATION_INITIALREGION_-TIG-iO-o0y9-1-determinant--14
# 0 "" 2
# 94 "/usr/include/stdlib.h" 1
	##_ANNOTATION_ATOMICREGION_-TIG-iO-o0y9-1-determinant--13
# 0 "" 2
#NO_APP
	movl	$24, %edi
	call	malloc@PLT
	movq	%rax, -872(%rbp)
	movq	-872(%rbp), %rax
	movq	-872(%rbp), %rdx
	movq	%rdx, (%rax)
	movq	-872(%rbp), %rax
	movq	-872(%rbp), %rdx
	movq	%rdx, 8(%rax)
	movq	-872(%rbp), %rax
	movq	%rax, _TIG_iO_o0y9_1_determinant_1_opaque_list_1(%rip)
	call	rand@PLT
	movl	%eax, -896(%rbp)
	movl	$24, %edi
	call	malloc@PLT
	movq	%rax, -864(%rbp)
	movq	-864(%rbp), %rax
	movl	$0, 16(%rax)
	movq	_TIG_iO_o0y9_1_determinant_1_opaque_list_1(%rip), %rax
	movq	(%rax), %rdx
	movq	-864(%rbp), %rax
	movq	%rdx, (%rax)
	movq	_TIG_iO_o0y9_1_determinant_1_opaque_list_1(%rip), %rdx
	movq	-864(%rbp), %rax
	movq	%rdx, 8(%rax)
	movq	_TIG_iO_o0y9_1_determinant_1_opaque_list_1(%rip), %rax
	movq	(%rax), %rax
	movq	-864(%rbp), %rdx
	movq	%rdx, 8(%rax)
	movq	_TIG_iO_o0y9_1_determinant_1_opaque_list_1(%rip), %rax
	movq	-864(%rbp), %rdx
	movq	%rdx, (%rax)
	call	rand@PLT
	movl	%eax, -892(%rbp)
	movl	$24, %edi
	call	malloc@PLT
	movq	%rax, -856(%rbp)
	movq	-856(%rbp), %rax
	movl	-892(%rbp), %edx
	movl	%edx, 16(%rax)
	movq	_TIG_iO_o0y9_1_determinant_1_opaque_list_1(%rip), %rax
	movq	(%rax), %rdx
	movq	-856(%rbp), %rax
	movq	%rdx, (%rax)
	movq	_TIG_iO_o0y9_1_determinant_1_opaque_list_1(%rip), %rdx
	movq	-856(%rbp), %rax
	movq	%rdx, 8(%rax)
	movq	_TIG_iO_o0y9_1_determinant_1_opaque_list_1(%rip), %rax
	movq	(%rax), %rax
	movq	-856(%rbp), %rdx
	movq	%rdx, 8(%rax)
	movq	_TIG_iO_o0y9_1_determinant_1_opaque_list_1(%rip), %rax
	movq	-856(%rbp), %rdx
	movq	%rdx, (%rax)
	call	rand@PLT
	movl	%eax, -888(%rbp)
	movl	$24, %edi
	call	malloc@PLT
	movq	%rax, -848(%rbp)
	movl	-888(%rbp), %eax
	leal	(%rax,%rax), %edx
	movq	-848(%rbp), %rax
	movl	%edx, 16(%rax)
	movq	_TIG_iO_o0y9_1_determinant_1_opaque_list_1(%rip), %rax
	movq	(%rax), %rdx
	movq	-848(%rbp), %rax
	movq	%rdx, (%rax)
	movq	_TIG_iO_o0y9_1_determinant_1_opaque_list_1(%rip), %rdx
	movq	-848(%rbp), %rax
	movq	%rdx, 8(%rax)
	movq	_TIG_iO_o0y9_1_determinant_1_opaque_list_1(%rip), %rax
	movq	(%rax), %rax
	movq	-848(%rbp), %rdx
	movq	%rdx, 8(%rax)
	movq	_TIG_iO_o0y9_1_determinant_1_opaque_list_1(%rip), %rax
	movq	-848(%rbp), %rdx
	movq	%rdx, (%rax)
	call	rand@PLT
	movl	%eax, -884(%rbp)
	movl	$24, %edi
	call	malloc@PLT
	movq	%rax, -840(%rbp)
	movl	-884(%rbp), %edx
	movl	%edx, %eax
	addl	%eax, %eax
	addl	%eax, %edx
	movq	-840(%rbp), %rax
	movl	%edx, 16(%rax)
	movq	_TIG_iO_o0y9_1_determinant_1_opaque_list_1(%rip), %rax
	movq	(%rax), %rdx
	movq	-840(%rbp), %rax
	movq	%rdx, (%rax)
	movq	_TIG_iO_o0y9_1_determinant_1_opaque_list_1(%rip), %rdx
	movq	-840(%rbp), %rax
	movq	%rdx, 8(%rax)
	movq	_TIG_iO_o0y9_1_determinant_1_opaque_list_1(%rip), %rax
	movq	(%rax), %rax
	movq	-840(%rbp), %rdx
	movq	%rdx, 8(%rax)
	movq	_TIG_iO_o0y9_1_determinant_1_opaque_list_1(%rip), %rax
	movq	-840(%rbp), %rdx
	movq	%rdx, (%rax)
	movq	_TIG_iO_o0y9_1_determinant_1_opaque_list_1(%rip), %rax
	movq	(%rax), %rax
	movq	%rax, _TIG_iO_o0y9_1_determinant_1_opaque_ptr_1(%rip)
	movq	_TIG_iO_o0y9_1_determinant_1_opaque_ptr_1(%rip), %rax
	movq	%rax, _TIG_iO_o0y9_1_determinant_1_opaque_ptr_2(%rip)
	movq	_TIG_iO_o0y9_1_determinant_1_opaque_ptr_2(%rip), %rax
	movq	(%rax), %rax
	movq	%rax, _TIG_iO_o0y9_1_determinant_1_opaque_ptr_2(%rip)
	nop
	nop
	pxor	%xmm0, %xmm0
	movsd	%xmm0, -880(%rbp)
	movq	_TIG_iO_o0y9_1_main_1_opaque_ptr_1(%rip), %rdx
	movq	_TIG_iO_o0y9_1_main_1_opaque_ptr_2(%rip), %rax
	cmpq	%rax, %rdx
	jne	.L2
	cmpl	$1, -940(%rbp)
	jne	.L2
	movq	-936(%rbp), %rax
	movsd	(%rax), %xmm0
	jmp	.L15
.L2:
	cmpl	$2, -940(%rbp)
	jne	.L4
	movq	-936(%rbp), %rax
	movsd	(%rax), %xmm1
	movq	-936(%rbp), %rax
	addq	$80, %rax
	movsd	8(%rax), %xmm0
	mulsd	%xmm1, %xmm0
	movq	-936(%rbp), %rax
	movsd	8(%rax), %xmm2
	movq	-936(%rbp), %rax
	addq	$80, %rax
	movsd	(%rax), %xmm1
	mulsd	%xmm2, %xmm1
	subsd	%xmm1, %xmm0
	jmp	.L15
.L4:
	movl	$0, -920(%rbp)
	jmp	.L5
.L14:
	movl	$0, -916(%rbp)
	movl	$1, -912(%rbp)
	jmp	.L6
.L11:
	movl	$0, -908(%rbp)
	movl	$0, -904(%rbp)
	jmp	.L7
.L10:
	movl	-904(%rbp), %eax
	cmpl	-920(%rbp), %eax
	je	.L17
	movl	-912(%rbp), %eax
	movslq	%eax, %rdx
	movq	%rdx, %rax
	salq	$2, %rax
	addq	%rdx, %rax
	salq	$4, %rax
	movq	%rax, %rdx
	movq	-936(%rbp), %rax
	addq	%rax, %rdx
	movl	-904(%rbp), %eax
	cltq
	movsd	(%rdx,%rax,8), %xmm0
	movl	-908(%rbp), %eax
	movslq	%eax, %rcx
	movl	-916(%rbp), %eax
	movslq	%eax, %rdx
	movq	%rdx, %rax
	salq	$2, %rax
	addq	%rdx, %rax
	addq	%rax, %rax
	addq	%rcx, %rax
	movsd	%xmm0, -816(%rbp,%rax,8)
	addl	$1, -908(%rbp)
	jmp	.L9
.L17:
	nop
.L9:
	addl	$1, -904(%rbp)
.L7:
	movl	-904(%rbp), %eax
	cmpl	-940(%rbp), %eax
	jl	.L10
	addl	$1, -916(%rbp)
	addl	$1, -912(%rbp)
.L6:
	movl	-912(%rbp), %eax
	cmpl	-940(%rbp), %eax
	jl	.L11
	movl	-940(%rbp), %eax
	leal	-1(%rax), %edx
	leaq	-816(%rbp), %rax
	movl	%edx, %esi
	movq	%rax, %rdi
	call	determinant
	movq	%xmm0, %rax
	movq	%rax, -832(%rbp)
	movsd	-832(%rbp), %xmm0
	movsd	%xmm0, -824(%rbp)
	movl	-920(%rbp), %eax
	andl	$1, %eax
	testl	%eax, %eax
	jne	.L12
	movl	$1, -900(%rbp)
	jmp	.L13
.L12:
	movl	$-1, -900(%rbp)
.L13:
	pxor	%xmm1, %xmm1
	cvtsi2sdl	-900(%rbp), %xmm1
	movq	-936(%rbp), %rax
	movl	-920(%rbp), %edx
	movslq	%edx, %rdx
	movsd	(%rax,%rdx,8), %xmm0
	mulsd	%xmm1, %xmm0
	mulsd	-824(%rbp), %xmm0
	movsd	-880(%rbp), %xmm1
	addsd	%xmm1, %xmm0
	movsd	%xmm0, -880(%rbp)
	addl	$1, -920(%rbp)
.L5:
	movl	-920(%rbp), %eax
	cmpl	-940(%rbp), %eax
	jl	.L14
	movsd	-880(%rbp), %xmm0
.L15:
	movq	%xmm0, %rax
	movq	-8(%rbp), %rdx
	subq	%fs:40, %rdx
	je	.L16
	call	__stack_chk_fail@PLT
.L16:
	movq	%rax, %xmm0
	leave
	.cfi_def_cfa 7, 8
	ret
	.cfi_endproc
.LFE0:
	.size	determinant, .-determinant
	.section	.rodata
	.align 8
.LC1:
	.string	"Digite a ordem da matriz (1 a %d): "
.LC2:
	.string	"%d"
	.align 8
.LC3:
	.string	"Erro: Entrada inv\303\241lida. Certifique-se de fornecer um n\303\272mero entre 1 e %d.\n"
	.align 8
.LC4:
	.string	"Digite os elementos da matriz, linha por linha:"
.LC5:
	.string	"Elemento [%d][%d]: "
.LC6:
	.string	"%lf"
	.align 8
.LC7:
	.string	"Erro: Entrada inv\303\241lida. Certifique-se de fornecer um n\303\272mero real."
.LC8:
	.string	"\nMatriz inserida:"
.LC9:
	.string	"%8.2lf "
	.align 8
.LC10:
	.string	"\nDeterminante da matriz: %.2lf\n"
	.text
	.globl	main
	.type	main, @function
main:
.LFB1:
	.cfi_startproc
	endbr64
	pushq	%rbp
	.cfi_def_cfa_offset 16
	.cfi_offset 6, -16
	movq	%rsp, %rbp
	.cfi_def_cfa_register 6
	subq	$928, %rsp
	movl	%edi, -900(%rbp)
	movq	%rsi, -912(%rbp)
	movq	%rdx, -920(%rbp)
	movq	%fs:40, %rax
	movq	%rax, -8(%rbp)
	xorl	%eax, %eax
	movq	$0, _TIG_IZ_o0y9_envp(%rip)
	nop
.L19:
	movq	$0, _TIG_IZ_o0y9_argv(%rip)
	nop
.L20:
	movl	$0, _TIG_IZ_o0y9_argc(%rip)
	nop
	nop
.L21:
.L22:
#APP
# 95 "davicarmo10_C-and-Geometry_main.c" 1
	##_ANNOTATION_INITIALREGION_-TIG-IZ-o0y9--0
# 0 "" 2
#NO_APP
	movl	-900(%rbp), %eax
	movl	%eax, _TIG_IZ_o0y9_argc(%rip)
	movq	-912(%rbp), %rax
	movq	%rax, _TIG_IZ_o0y9_argv(%rip)
	movq	-920(%rbp), %rax
	movq	%rax, _TIG_IZ_o0y9_envp(%rip)
#APP
# 102 "davicarmo10_C-and-Geometry_main.c" 1
	##_ANNOTATION_ATOMICREGION_-TIG-iO-o0y9-1-main--15
# 0 "" 2
#NO_APP
	movl	$24, %edi
	call	malloc@PLT
	movq	%rax, -856(%rbp)
	movq	-856(%rbp), %rax
	movq	-856(%rbp), %rdx
	movq	%rdx, 16(%rax)
	movq	-856(%rbp), %rax
	movq	-856(%rbp), %rdx
	movq	%rdx, 8(%rax)
	movq	-856(%rbp), %rax
	movq	%rax, _TIG_iO_o0y9_1_main_1_opaque_list_1(%rip)
	call	rand@PLT
	movl	%eax, -872(%rbp)
	movl	$24, %edi
	call	malloc@PLT
	movq	%rax, -848(%rbp)
	movq	-848(%rbp), %rax
	movl	$0, (%rax)
	movq	_TIG_iO_o0y9_1_main_1_opaque_list_1(%rip), %rax
	movq	16(%rax), %rdx
	movq	-848(%rbp), %rax
	movq	%rdx, 16(%rax)
	movq	_TIG_iO_o0y9_1_main_1_opaque_list_1(%rip), %rdx
	movq	-848(%rbp), %rax
	movq	%rdx, 8(%rax)
	movq	_TIG_iO_o0y9_1_main_1_opaque_list_1(%rip), %rax
	movq	16(%rax), %rax
	movq	-848(%rbp), %rdx
	movq	%rdx, 8(%rax)
	movq	_TIG_iO_o0y9_1_main_1_opaque_list_1(%rip), %rax
	movq	-848(%rbp), %rdx
	movq	%rdx, 16(%rax)
	call	rand@PLT
	movl	%eax, -868(%rbp)
	movl	$24, %edi
	call	malloc@PLT
	movq	%rax, -840(%rbp)
	movq	-840(%rbp), %rax
	movl	-868(%rbp), %edx
	movl	%edx, (%rax)
	movq	_TIG_iO_o0y9_1_main_1_opaque_list_1(%rip), %rax
	movq	16(%rax), %rdx
	movq	-840(%rbp), %rax
	movq	%rdx, 16(%rax)
	movq	_TIG_iO_o0y9_1_main_1_opaque_list_1(%rip), %rdx
	movq	-840(%rbp), %rax
	movq	%rdx, 8(%rax)
	movq	_TIG_iO_o0y9_1_main_1_opaque_list_1(%rip), %rax
	movq	16(%rax), %rax
	movq	-840(%rbp), %rdx
	movq	%rdx, 8(%rax)
	movq	_TIG_iO_o0y9_1_main_1_opaque_list_1(%rip), %rax
	movq	-840(%rbp), %rdx
	movq	%rdx, 16(%rax)
	movq	_TIG_iO_o0y9_1_main_1_opaque_list_1(%rip), %rax
	movq	16(%rax), %rax
	movq	%rax, _TIG_iO_o0y9_1_main_1_opaque_ptr_1(%rip)
	movq	_TIG_iO_o0y9_1_main_1_opaque_ptr_1(%rip), %rax
	movq	%rax, _TIG_iO_o0y9_1_main_1_opaque_ptr_2(%rip)
	nop
	nop
	movl	$10, %esi
	leaq	.LC1(%rip), %rax
	movq	%rax, %rdi
	movl	$0, %eax
	call	printf@PLT
	leaq	-892(%rbp), %rax
	movq	%rax, %rsi
	leaq	.LC2(%rip), %rax
	movq	%rax, %rdi
	movl	$0, %eax
	call	__isoc99_scanf@PLT
	movl	%eax, -864(%rbp)
	cmpl	$1, -864(%rbp)
	je	.L23
	movl	$10, %esi
	leaq	.LC3(%rip), %rax
	movq	%rax, %rdi
	movl	$0, %eax
	call	printf@PLT
	movl	$1, %eax
	jmp	.L37
.L23:
	movl	-892(%rbp), %eax
	testl	%eax, %eax
	jg	.L25
	movl	$10, %esi
	leaq	.LC3(%rip), %rax
	movq	%rax, %rdi
	movl	$0, %eax
	call	printf@PLT
	movl	$1, %eax
	jmp	.L37
.L25:
	movl	-892(%rbp), %eax
	cmpl	$10, %eax
	jle	.L26
	movl	$10, %esi
	leaq	.LC3(%rip), %rax
	movq	%rax, %rdi
	movl	$0, %eax
	call	printf@PLT
	movl	$1, %eax
	jmp	.L37
.L26:
	leaq	.LC4(%rip), %rax
	movq	%rax, %rdi
	call	puts@PLT
	movl	$0, -888(%rbp)
	jmp	.L27
.L31:
	movl	$0, -884(%rbp)
	jmp	.L28
.L30:
	movl	-884(%rbp), %eax
	leal	1(%rax), %edx
	movl	-888(%rbp), %eax
	addl	$1, %eax
	movl	%eax, %esi
	leaq	.LC5(%rip), %rax
	movq	%rax, %rdi
	movl	$0, %eax
	call	printf@PLT
	leaq	-816(%rbp), %rcx
	movl	-884(%rbp), %eax
	movslq	%eax, %rsi
	movl	-888(%rbp), %eax
	movslq	%eax, %rdx
	movq	%rdx, %rax
	salq	$2, %rax
	addq	%rdx, %rax
	addq	%rax, %rax
	addq	%rsi, %rax
	salq	$3, %rax
	addq	%rcx, %rax
	movq	%rax, %rsi
	leaq	.LC6(%rip), %rax
	movq	%rax, %rdi
	movl	$0, %eax
	call	__isoc99_scanf@PLT
	movl	%eax, -860(%rbp)
	cmpl	$1, -860(%rbp)
	je	.L29
	leaq	.LC7(%rip), %rax
	movq	%rax, %rdi
	call	puts@PLT
	movl	$1, %eax
	jmp	.L37
.L29:
	addl	$1, -884(%rbp)
.L28:
	movl	-892(%rbp), %eax
	cmpl	%eax, -884(%rbp)
	jl	.L30
	addl	$1, -888(%rbp)
.L27:
	movl	-892(%rbp), %eax
	cmpl	%eax, -888(%rbp)
	jl	.L31
	leaq	.LC8(%rip), %rax
	movq	%rax, %rdi
	call	puts@PLT
	movl	$0, -880(%rbp)
	jmp	.L32
.L36:
	movl	$0, -876(%rbp)
	jmp	.L33
.L35:
	movq	_TIG_iO_o0y9_1_main_1_opaque_ptr_1(%rip), %rdx
	movq	_TIG_iO_o0y9_1_main_1_opaque_ptr_2(%rip), %rax
	cmpq	%rax, %rdx
	jne	.L34
	movl	-876(%rbp), %eax
	movslq	%eax, %rcx
	movl	-880(%rbp), %eax
	movslq	%eax, %rdx
	movq	%rdx, %rax
	salq	$2, %rax
	addq	%rdx, %rax
	addq	%rax, %rax
	addq	%rcx, %rax
	movq	-816(%rbp,%rax,8), %rax
	movq	%rax, %xmm0
	leaq	.LC9(%rip), %rax
	movq	%rax, %rdi
	movl	$1, %eax
	call	printf@PLT
	addl	$1, -876(%rbp)
	jmp	.L33
.L34:
#APP
# 73 "davicarmo10_C-and-Geometry_main.c" 1
	.byte 0x57,0xfa,0x36,0x51,0x76,0xaa
# 0 "" 2
#NO_APP
.L33:
	movl	-892(%rbp), %eax
	cmpl	%eax, -876(%rbp)
	jl	.L35
	movl	$10, %edi
	call	putchar@PLT
	addl	$1, -880(%rbp)
.L32:
	movl	-892(%rbp), %eax
	cmpl	%eax, -880(%rbp)
	jl	.L36
	movl	-892(%rbp), %edx
	leaq	-816(%rbp), %rax
	movl	%edx, %esi
	movq	%rax, %rdi
	call	determinant
	movq	%xmm0, %rax
	movq	%rax, -832(%rbp)
	movsd	-832(%rbp), %xmm0
	movsd	%xmm0, -824(%rbp)
	movq	-824(%rbp), %rax
	movq	%rax, %xmm0
	leaq	.LC10(%rip), %rax
	movq	%rax, %rdi
	movl	$1, %eax
	call	printf@PLT
	movl	$0, %eax
.L37:
	movq	-8(%rbp), %rdx
	subq	%fs:40, %rdx
	je	.L38
	call	__stack_chk_fail@PLT
.L38:
	leave
	.cfi_def_cfa 7, 8
	ret
	.cfi_endproc
.LFE1:
	.size	main, .-main
	.ident	"GCC: (Ubuntu 11.4.0-1ubuntu1~22.04) 11.4.0"
	.section	.note.GNU-stack,"",@progbits
	.section	.note.gnu.property,"a"
	.align 8
	.long	1f - 0f
	.long	4f - 1f
	.long	5
0:
	.string	"GNU"
1:
	.align 8
	.long	0xc0000002
	.long	3f - 2f
2:
	.long	0x3
3:
	.align 8
4:
