	.file	"Deadlock-exe_sem3-DSfile_6_opaque.c"
	.text
	.globl	_TIG_iO_areD_1___uint64_identity_1_opaque_list_2
	.bss
	.align 8
	.type	_TIG_iO_areD_1___uint64_identity_1_opaque_list_2, @object
	.size	_TIG_iO_areD_1___uint64_identity_1_opaque_list_2, 8
_TIG_iO_areD_1___uint64_identity_1_opaque_list_2:
	.zero	8
	.globl	_TIG_iO_areD_1___uint32_identity_1_opaque_list_1
	.align 8
	.type	_TIG_iO_areD_1___uint32_identity_1_opaque_list_1, @object
	.size	_TIG_iO_areD_1___uint32_identity_1_opaque_list_1, 8
_TIG_iO_areD_1___uint32_identity_1_opaque_list_1:
	.zero	8
	.globl	_TIG_iO_areD_1_display_array_1_opaque_ptr_1
	.align 8
	.type	_TIG_iO_areD_1_display_array_1_opaque_ptr_1, @object
	.size	_TIG_iO_areD_1_display_array_1_opaque_ptr_1, 8
_TIG_iO_areD_1_display_array_1_opaque_ptr_1:
	.zero	8
	.globl	_TIG_iO_areD_1___bswap_32_1_opaque_ptr_2
	.align 8
	.type	_TIG_iO_areD_1___bswap_32_1_opaque_ptr_2, @object
	.size	_TIG_iO_areD_1___bswap_32_1_opaque_ptr_2, 8
_TIG_iO_areD_1___bswap_32_1_opaque_ptr_2:
	.zero	8
	.globl	_TIG_iO_areD_1___bswap_16_1_opaque_list_1
	.align 8
	.type	_TIG_iO_areD_1___bswap_16_1_opaque_list_1, @object
	.size	_TIG_iO_areD_1___bswap_16_1_opaque_list_1, 8
_TIG_iO_areD_1___bswap_16_1_opaque_list_1:
	.zero	8
	.globl	_TIG_iO_areD_1_display_sparse_matrix_1_opaque_list_2
	.align 8
	.type	_TIG_iO_areD_1_display_sparse_matrix_1_opaque_list_2, @object
	.size	_TIG_iO_areD_1_display_sparse_matrix_1_opaque_list_2, 8
_TIG_iO_areD_1_display_sparse_matrix_1_opaque_list_2:
	.zero	8
	.globl	_TIG_iO_areD_1_add_sparsematrix_1_opaque_ptr_2
	.align 8
	.type	_TIG_iO_areD_1_add_sparsematrix_1_opaque_ptr_2, @object
	.size	_TIG_iO_areD_1_add_sparsematrix_1_opaque_ptr_2, 8
_TIG_iO_areD_1_add_sparsematrix_1_opaque_ptr_2:
	.zero	8
	.globl	_TIG_iO_areD_1_main_1_opaque_ptr_1
	.align 8
	.type	_TIG_iO_areD_1_main_1_opaque_ptr_1, @object
	.size	_TIG_iO_areD_1_main_1_opaque_ptr_1, 8
_TIG_iO_areD_1_main_1_opaque_ptr_1:
	.zero	8
	.globl	_TIG_IZ_areD_envp
	.align 8
	.type	_TIG_IZ_areD_envp, @object
	.size	_TIG_IZ_areD_envp, 8
_TIG_IZ_areD_envp:
	.zero	8
	.globl	_TIG_iO_areD_1_main_1_opaque_list_2
	.align 8
	.type	_TIG_iO_areD_1_main_1_opaque_list_2, @object
	.size	_TIG_iO_areD_1_main_1_opaque_list_2, 8
_TIG_iO_areD_1_main_1_opaque_list_2:
	.zero	8
	.globl	_TIG_iO_areD_1_read_array_1_opaque_ptr_2
	.align 8
	.type	_TIG_iO_areD_1_read_array_1_opaque_ptr_2, @object
	.size	_TIG_iO_areD_1_read_array_1_opaque_ptr_2, 8
_TIG_iO_areD_1_read_array_1_opaque_ptr_2:
	.zero	8
	.globl	_TIG_iO_areD_1_display_array_1_opaque_ptr_2
	.align 8
	.type	_TIG_iO_areD_1_display_array_1_opaque_ptr_2, @object
	.size	_TIG_iO_areD_1_display_array_1_opaque_ptr_2, 8
_TIG_iO_areD_1_display_array_1_opaque_ptr_2:
	.zero	8
	.globl	_TIG_iO_areD_1___uint16_identity_1_opaque_list_2
	.align 8
	.type	_TIG_iO_areD_1___uint16_identity_1_opaque_list_2, @object
	.size	_TIG_iO_areD_1___uint16_identity_1_opaque_list_2, 8
_TIG_iO_areD_1___uint16_identity_1_opaque_list_2:
	.zero	8
	.globl	_TIG_IZ_areD_argc
	.align 4
	.type	_TIG_IZ_areD_argc, @object
	.size	_TIG_IZ_areD_argc, 4
_TIG_IZ_areD_argc:
	.zero	4
	.globl	_TIG_iO_areD_1___uint64_identity_1_opaque_ptr_2
	.align 8
	.type	_TIG_iO_areD_1___uint64_identity_1_opaque_ptr_2, @object
	.size	_TIG_iO_areD_1___uint64_identity_1_opaque_ptr_2, 8
_TIG_iO_areD_1___uint64_identity_1_opaque_ptr_2:
	.zero	8
	.globl	_TIG_iO_areD_1_conv_2D_to_sparse_1_opaque_list_1
	.align 8
	.type	_TIG_iO_areD_1_conv_2D_to_sparse_1_opaque_list_1, @object
	.size	_TIG_iO_areD_1_conv_2D_to_sparse_1_opaque_list_1, 8
_TIG_iO_areD_1_conv_2D_to_sparse_1_opaque_list_1:
	.zero	8
	.globl	_TIG_iO_areD_1_display_sparse_matrix_1_opaque_ptr_2
	.align 8
	.type	_TIG_iO_areD_1_display_sparse_matrix_1_opaque_ptr_2, @object
	.size	_TIG_iO_areD_1_display_sparse_matrix_1_opaque_ptr_2, 8
_TIG_iO_areD_1_display_sparse_matrix_1_opaque_ptr_2:
	.zero	8
	.globl	_TIG_iO_areD_1___bswap_16_1_opaque_ptr_2
	.align 8
	.type	_TIG_iO_areD_1___bswap_16_1_opaque_ptr_2, @object
	.size	_TIG_iO_areD_1___bswap_16_1_opaque_ptr_2, 8
_TIG_iO_areD_1___bswap_16_1_opaque_ptr_2:
	.zero	8
	.globl	_TIG_iO_areD_1_read_array_1_opaque_ptr_1
	.align 8
	.type	_TIG_iO_areD_1_read_array_1_opaque_ptr_1, @object
	.size	_TIG_iO_areD_1_read_array_1_opaque_ptr_1, 8
_TIG_iO_areD_1_read_array_1_opaque_ptr_1:
	.zero	8
	.globl	_TIG_iO_areD_1_conv_2D_to_sparse_1_opaque_ptr_2
	.align 8
	.type	_TIG_iO_areD_1_conv_2D_to_sparse_1_opaque_ptr_2, @object
	.size	_TIG_iO_areD_1_conv_2D_to_sparse_1_opaque_ptr_2, 8
_TIG_iO_areD_1_conv_2D_to_sparse_1_opaque_ptr_2:
	.zero	8
	.globl	_TIG_iO_areD_1_main_1_opaque_list_1
	.align 8
	.type	_TIG_iO_areD_1_main_1_opaque_list_1, @object
	.size	_TIG_iO_areD_1_main_1_opaque_list_1, 8
_TIG_iO_areD_1_main_1_opaque_list_1:
	.zero	8
	.globl	_TIG_iO_areD_1_create_sparse_element_1_opaque_ptr_1
	.align 8
	.type	_TIG_iO_areD_1_create_sparse_element_1_opaque_ptr_1, @object
	.size	_TIG_iO_areD_1_create_sparse_element_1_opaque_ptr_1, 8
_TIG_iO_areD_1_create_sparse_element_1_opaque_ptr_1:
	.zero	8
	.globl	_TIG_iO_areD_1_display_sparse_matrix_1_opaque_ptr_1
	.align 8
	.type	_TIG_iO_areD_1_display_sparse_matrix_1_opaque_ptr_1, @object
	.size	_TIG_iO_areD_1_display_sparse_matrix_1_opaque_ptr_1, 8
_TIG_iO_areD_1_display_sparse_matrix_1_opaque_ptr_1:
	.zero	8
	.globl	_TIG_iO_areD_1___bswap_64_1_opaque_ptr_2
	.align 8
	.type	_TIG_iO_areD_1___bswap_64_1_opaque_ptr_2, @object
	.size	_TIG_iO_areD_1___bswap_64_1_opaque_ptr_2, 8
_TIG_iO_areD_1___bswap_64_1_opaque_ptr_2:
	.zero	8
	.globl	_TIG_iO_areD_1___bswap_64_1_opaque_list_1
	.align 8
	.type	_TIG_iO_areD_1___bswap_64_1_opaque_list_1, @object
	.size	_TIG_iO_areD_1___bswap_64_1_opaque_list_1, 8
_TIG_iO_areD_1___bswap_64_1_opaque_list_1:
	.zero	8
	.globl	_TIG_iO_areD_1_display_sparse_matrix_1_opaque_list_1
	.align 8
	.type	_TIG_iO_areD_1_display_sparse_matrix_1_opaque_list_1, @object
	.size	_TIG_iO_areD_1_display_sparse_matrix_1_opaque_list_1, 8
_TIG_iO_areD_1_display_sparse_matrix_1_opaque_list_1:
	.zero	8
	.globl	_TIG_iO_areD_1_main_1_opaque_ptr_2
	.align 8
	.type	_TIG_iO_areD_1_main_1_opaque_ptr_2, @object
	.size	_TIG_iO_areD_1_main_1_opaque_ptr_2, 8
_TIG_iO_areD_1_main_1_opaque_ptr_2:
	.zero	8
	.globl	_TIG_iO_areD_1___bswap_16_1_opaque_ptr_1
	.align 8
	.type	_TIG_iO_areD_1___bswap_16_1_opaque_ptr_1, @object
	.size	_TIG_iO_areD_1___bswap_16_1_opaque_ptr_1, 8
_TIG_iO_areD_1___bswap_16_1_opaque_ptr_1:
	.zero	8
	.globl	_TIG_iO_areD_1___uint16_identity_1_opaque_ptr_2
	.align 8
	.type	_TIG_iO_areD_1___uint16_identity_1_opaque_ptr_2, @object
	.size	_TIG_iO_areD_1___uint16_identity_1_opaque_ptr_2, 8
_TIG_iO_areD_1___uint16_identity_1_opaque_ptr_2:
	.zero	8
	.globl	_TIG_iO_areD_1___uint64_identity_1_opaque_list_1
	.align 8
	.type	_TIG_iO_areD_1___uint64_identity_1_opaque_list_1, @object
	.size	_TIG_iO_areD_1___uint64_identity_1_opaque_list_1, 8
_TIG_iO_areD_1___uint64_identity_1_opaque_list_1:
	.zero	8
	.globl	_TIG_iO_areD_1___bswap_16_1_opaque_list_2
	.align 8
	.type	_TIG_iO_areD_1___bswap_16_1_opaque_list_2, @object
	.size	_TIG_iO_areD_1___bswap_16_1_opaque_list_2, 8
_TIG_iO_areD_1___bswap_16_1_opaque_list_2:
	.zero	8
	.globl	_TIG_iO_areD_1_create_sparse_element_1_opaque_list_2
	.align 8
	.type	_TIG_iO_areD_1_create_sparse_element_1_opaque_list_2, @object
	.size	_TIG_iO_areD_1_create_sparse_element_1_opaque_list_2, 8
_TIG_iO_areD_1_create_sparse_element_1_opaque_list_2:
	.zero	8
	.globl	_TIG_iO_areD_1_conv_sparse_to_normal_1_opaque_list_2
	.align 8
	.type	_TIG_iO_areD_1_conv_sparse_to_normal_1_opaque_list_2, @object
	.size	_TIG_iO_areD_1_conv_sparse_to_normal_1_opaque_list_2, 8
_TIG_iO_areD_1_conv_sparse_to_normal_1_opaque_list_2:
	.zero	8
	.globl	_TIG_iO_areD_1___bswap_64_1_opaque_ptr_1
	.align 8
	.type	_TIG_iO_areD_1___bswap_64_1_opaque_ptr_1, @object
	.size	_TIG_iO_areD_1___bswap_64_1_opaque_ptr_1, 8
_TIG_iO_areD_1___bswap_64_1_opaque_ptr_1:
	.zero	8
	.globl	_TIG_iO_areD_1___uint16_identity_1_opaque_ptr_1
	.align 8
	.type	_TIG_iO_areD_1___uint16_identity_1_opaque_ptr_1, @object
	.size	_TIG_iO_areD_1___uint16_identity_1_opaque_ptr_1, 8
_TIG_iO_areD_1___uint16_identity_1_opaque_ptr_1:
	.zero	8
	.globl	_TIG_iO_areD_1_conv_sparse_to_normal_1_opaque_ptr_2
	.align 8
	.type	_TIG_iO_areD_1_conv_sparse_to_normal_1_opaque_ptr_2, @object
	.size	_TIG_iO_areD_1_conv_sparse_to_normal_1_opaque_ptr_2, 8
_TIG_iO_areD_1_conv_sparse_to_normal_1_opaque_ptr_2:
	.zero	8
	.globl	_TIG_iO_areD_1___uint16_identity_1_opaque_list_1
	.align 8
	.type	_TIG_iO_areD_1___uint16_identity_1_opaque_list_1, @object
	.size	_TIG_iO_areD_1___uint16_identity_1_opaque_list_1, 8
_TIG_iO_areD_1___uint16_identity_1_opaque_list_1:
	.zero	8
	.globl	_TIG_iO_areD_1_conv_2D_to_sparse_1_opaque_ptr_1
	.align 8
	.type	_TIG_iO_areD_1_conv_2D_to_sparse_1_opaque_ptr_1, @object
	.size	_TIG_iO_areD_1_conv_2D_to_sparse_1_opaque_ptr_1, 8
_TIG_iO_areD_1_conv_2D_to_sparse_1_opaque_ptr_1:
	.zero	8
	.globl	_TIG_iO_areD_1___bswap_32_1_opaque_list_2
	.align 8
	.type	_TIG_iO_areD_1___bswap_32_1_opaque_list_2, @object
	.size	_TIG_iO_areD_1___bswap_32_1_opaque_list_2, 8
_TIG_iO_areD_1___bswap_32_1_opaque_list_2:
	.zero	8
	.globl	_TIG_iO_areD_1___bswap_64_1_opaque_list_2
	.align 8
	.type	_TIG_iO_areD_1___bswap_64_1_opaque_list_2, @object
	.size	_TIG_iO_areD_1___bswap_64_1_opaque_list_2, 8
_TIG_iO_areD_1___bswap_64_1_opaque_list_2:
	.zero	8
	.globl	_TIG_iO_areD_1_conv_2D_to_sparse_1_opaque_list_2
	.align 8
	.type	_TIG_iO_areD_1_conv_2D_to_sparse_1_opaque_list_2, @object
	.size	_TIG_iO_areD_1_conv_2D_to_sparse_1_opaque_list_2, 8
_TIG_iO_areD_1_conv_2D_to_sparse_1_opaque_list_2:
	.zero	8
	.globl	_TIG_iO_areD_1___uint32_identity_1_opaque_ptr_1
	.align 8
	.type	_TIG_iO_areD_1___uint32_identity_1_opaque_ptr_1, @object
	.size	_TIG_iO_areD_1___uint32_identity_1_opaque_ptr_1, 8
_TIG_iO_areD_1___uint32_identity_1_opaque_ptr_1:
	.zero	8
	.globl	_TIG_iO_areD_1_add_sparsematrix_1_opaque_list_2
	.align 8
	.type	_TIG_iO_areD_1_add_sparsematrix_1_opaque_list_2, @object
	.size	_TIG_iO_areD_1_add_sparsematrix_1_opaque_list_2, 8
_TIG_iO_areD_1_add_sparsematrix_1_opaque_list_2:
	.zero	8
	.globl	_TIG_iO_areD_1_read_array_1_opaque_list_2
	.align 8
	.type	_TIG_iO_areD_1_read_array_1_opaque_list_2, @object
	.size	_TIG_iO_areD_1_read_array_1_opaque_list_2, 8
_TIG_iO_areD_1_read_array_1_opaque_list_2:
	.zero	8
	.globl	_TIG_iO_areD_1_conv_sparse_to_normal_1_opaque_list_1
	.align 8
	.type	_TIG_iO_areD_1_conv_sparse_to_normal_1_opaque_list_1, @object
	.size	_TIG_iO_areD_1_conv_sparse_to_normal_1_opaque_list_1, 8
_TIG_iO_areD_1_conv_sparse_to_normal_1_opaque_list_1:
	.zero	8
	.globl	_TIG_iO_areD_1_add_sparsematrix_1_opaque_list_1
	.align 8
	.type	_TIG_iO_areD_1_add_sparsematrix_1_opaque_list_1, @object
	.size	_TIG_iO_areD_1_add_sparsematrix_1_opaque_list_1, 8
_TIG_iO_areD_1_add_sparsematrix_1_opaque_list_1:
	.zero	8
	.globl	_TIG_iO_areD_1_add_sparsematrix_1_opaque_ptr_1
	.align 8
	.type	_TIG_iO_areD_1_add_sparsematrix_1_opaque_ptr_1, @object
	.size	_TIG_iO_areD_1_add_sparsematrix_1_opaque_ptr_1, 8
_TIG_iO_areD_1_add_sparsematrix_1_opaque_ptr_1:
	.zero	8
	.globl	_TIG_iO_areD_1_conv_sparse_to_normal_1_opaque_ptr_1
	.align 8
	.type	_TIG_iO_areD_1_conv_sparse_to_normal_1_opaque_ptr_1, @object
	.size	_TIG_iO_areD_1_conv_sparse_to_normal_1_opaque_ptr_1, 8
_TIG_iO_areD_1_conv_sparse_to_normal_1_opaque_ptr_1:
	.zero	8
	.globl	_TIG_iO_areD_1_display_array_1_opaque_list_1
	.align 8
	.type	_TIG_iO_areD_1_display_array_1_opaque_list_1, @object
	.size	_TIG_iO_areD_1_display_array_1_opaque_list_1, 8
_TIG_iO_areD_1_display_array_1_opaque_list_1:
	.zero	8
	.globl	_TIG_IZ_areD_argv
	.align 8
	.type	_TIG_IZ_areD_argv, @object
	.size	_TIG_IZ_areD_argv, 8
_TIG_IZ_areD_argv:
	.zero	8
	.globl	_TIG_iO_areD_1___uint64_identity_1_opaque_ptr_1
	.align 8
	.type	_TIG_iO_areD_1___uint64_identity_1_opaque_ptr_1, @object
	.size	_TIG_iO_areD_1___uint64_identity_1_opaque_ptr_1, 8
_TIG_iO_areD_1___uint64_identity_1_opaque_ptr_1:
	.zero	8
	.globl	_TIG_iO_areD_1_create_sparse_element_1_opaque_list_1
	.align 8
	.type	_TIG_iO_areD_1_create_sparse_element_1_opaque_list_1, @object
	.size	_TIG_iO_areD_1_create_sparse_element_1_opaque_list_1, 8
_TIG_iO_areD_1_create_sparse_element_1_opaque_list_1:
	.zero	8
	.globl	_TIG_iO_areD_1___uint32_identity_1_opaque_ptr_2
	.align 8
	.type	_TIG_iO_areD_1___uint32_identity_1_opaque_ptr_2, @object
	.size	_TIG_iO_areD_1___uint32_identity_1_opaque_ptr_2, 8
_TIG_iO_areD_1___uint32_identity_1_opaque_ptr_2:
	.zero	8
	.globl	_TIG_iO_areD_1___bswap_32_1_opaque_ptr_1
	.align 8
	.type	_TIG_iO_areD_1___bswap_32_1_opaque_ptr_1, @object
	.size	_TIG_iO_areD_1___bswap_32_1_opaque_ptr_1, 8
_TIG_iO_areD_1___bswap_32_1_opaque_ptr_1:
	.zero	8
	.globl	_TIG_iO_areD_1_display_array_1_opaque_list_2
	.align 8
	.type	_TIG_iO_areD_1_display_array_1_opaque_list_2, @object
	.size	_TIG_iO_areD_1_display_array_1_opaque_list_2, 8
_TIG_iO_areD_1_display_array_1_opaque_list_2:
	.zero	8
	.globl	_TIG_iO_areD_1_create_sparse_element_1_opaque_ptr_2
	.align 8
	.type	_TIG_iO_areD_1_create_sparse_element_1_opaque_ptr_2, @object
	.size	_TIG_iO_areD_1_create_sparse_element_1_opaque_ptr_2, 8
_TIG_iO_areD_1_create_sparse_element_1_opaque_ptr_2:
	.zero	8
	.globl	_TIG_iO_areD_1___uint32_identity_1_opaque_list_2
	.align 8
	.type	_TIG_iO_areD_1___uint32_identity_1_opaque_list_2, @object
	.size	_TIG_iO_areD_1___uint32_identity_1_opaque_list_2, 8
_TIG_iO_areD_1___uint32_identity_1_opaque_list_2:
	.zero	8
	.globl	_TIG_iO_areD_1_read_array_1_opaque_list_1
	.align 8
	.type	_TIG_iO_areD_1_read_array_1_opaque_list_1, @object
	.size	_TIG_iO_areD_1_read_array_1_opaque_list_1, 8
_TIG_iO_areD_1_read_array_1_opaque_list_1:
	.zero	8
	.globl	_TIG_iO_areD_1___bswap_32_1_opaque_list_1
	.align 8
	.type	_TIG_iO_areD_1___bswap_32_1_opaque_list_1, @object
	.size	_TIG_iO_areD_1___bswap_32_1_opaque_list_1, 8
_TIG_iO_areD_1___bswap_32_1_opaque_list_1:
	.zero	8
	.section	.rodata
.LC0:
	.string	"enter matrix a :\n"
.LC1:
	.string	"enter matrix b :\n"
.LC2:
	.string	"matrix A\n"
.LC3:
	.string	"\nsparse matrix as1 : \n"
.LC4:
	.string	"\nsparse matrix as2 : \n"
	.align 8
.LC5:
	.string	"\nbefore displaying sparse matirx\n"
	.align 8
.LC6:
	.string	"after displaying sparse matirx"
.LC7:
	.string	"enter matrix a :"
.LC8:
	.string	"enter matrix b :"
.LC9:
	.string	"matrix A"
.LC10:
	.string	"\nsparse matrix as1 : "
.LC11:
	.string	"\nsparse matrix as2 : "
	.align 8
.LC12:
	.string	"\nbefore displaying sparse matirx"
	.text
	.globl	main
	.type	main, @function
main:
.LFB1:
	.cfi_startproc
	endbr64
	pushq	%rbp
	.cfi_def_cfa_offset 16
	.cfi_offset 6, -16
	movq	%rsp, %rbp
	.cfi_def_cfa_register 6
	subq	$144, %rsp
	movl	%edi, -116(%rbp)
	movq	%rsi, -128(%rbp)
	movq	%rdx, -136(%rbp)
	movq	$0, _TIG_IZ_areD_envp(%rip)
	nop
.L2:
	movq	$0, _TIG_IZ_areD_argv(%rip)
	nop
.L3:
	movl	$0, _TIG_IZ_areD_argc(%rip)
	nop
	nop
.L4:
.L5:
#APP
# 132 "/usr/include/x86_64-linux-gnu/bits/byteswap.h" 1
	##_ANNOTATION_INITIALREGION_-TIG-IZ-areD--0
# 0 "" 2
#NO_APP
	movl	-116(%rbp), %eax
	movl	%eax, _TIG_IZ_areD_argc(%rip)
	movq	-128(%rbp), %rax
	movq	%rax, _TIG_IZ_areD_argv(%rip)
	movq	-136(%rbp), %rax
	movq	%rax, _TIG_IZ_areD_envp(%rip)
#APP
# 139 "/usr/include/x86_64-linux-gnu/bits/byteswap.h" 1
	##_ANNOTATION_ATOMICREGION_-TIG-iO-areD-1-main--25
# 0 "" 2
#NO_APP
	movl	$24, %edi
	call	malloc@PLT
	movq	%rax, -88(%rbp)
	movq	-88(%rbp), %rax
	movq	-88(%rbp), %rdx
	movq	%rdx, (%rax)
	movq	-88(%rbp), %rax
	movq	-88(%rbp), %rdx
	movq	%rdx, 16(%rax)
	movq	-88(%rbp), %rax
	movq	%rax, _TIG_iO_areD_1_main_1_opaque_list_1(%rip)
	call	rand@PLT
	movl	%eax, -112(%rbp)
	movl	$24, %edi
	call	malloc@PLT
	movq	%rax, -80(%rbp)
	movq	-80(%rbp), %rax
	movl	$0, 8(%rax)
	movq	_TIG_iO_areD_1_main_1_opaque_list_1(%rip), %rax
	movq	(%rax), %rdx
	movq	-80(%rbp), %rax
	movq	%rdx, (%rax)
	movq	_TIG_iO_areD_1_main_1_opaque_list_1(%rip), %rdx
	movq	-80(%rbp), %rax
	movq	%rdx, 16(%rax)
	movq	_TIG_iO_areD_1_main_1_opaque_list_1(%rip), %rax
	movq	(%rax), %rax
	movq	-80(%rbp), %rdx
	movq	%rdx, 16(%rax)
	movq	_TIG_iO_areD_1_main_1_opaque_list_1(%rip), %rax
	movq	-80(%rbp), %rdx
	movq	%rdx, (%rax)
	call	rand@PLT
	movl	%eax, -108(%rbp)
	movl	$24, %edi
	call	malloc@PLT
	movq	%rax, -72(%rbp)
	movq	-72(%rbp), %rax
	movl	-108(%rbp), %edx
	movl	%edx, 8(%rax)
	movq	_TIG_iO_areD_1_main_1_opaque_list_1(%rip), %rax
	movq	(%rax), %rdx
	movq	-72(%rbp), %rax
	movq	%rdx, (%rax)
	movq	_TIG_iO_areD_1_main_1_opaque_list_1(%rip), %rdx
	movq	-72(%rbp), %rax
	movq	%rdx, 16(%rax)
	movq	_TIG_iO_areD_1_main_1_opaque_list_1(%rip), %rax
	movq	(%rax), %rax
	movq	-72(%rbp), %rdx
	movq	%rdx, 16(%rax)
	movq	_TIG_iO_areD_1_main_1_opaque_list_1(%rip), %rax
	movq	-72(%rbp), %rdx
	movq	%rdx, (%rax)
	call	rand@PLT
	movl	%eax, -104(%rbp)
	movl	$24, %edi
	call	malloc@PLT
	movq	%rax, -64(%rbp)
	movl	-104(%rbp), %eax
	leal	(%rax,%rax), %edx
	movq	-64(%rbp), %rax
	movl	%edx, 8(%rax)
	movq	_TIG_iO_areD_1_main_1_opaque_list_1(%rip), %rax
	movq	(%rax), %rdx
	movq	-64(%rbp), %rax
	movq	%rdx, (%rax)
	movq	_TIG_iO_areD_1_main_1_opaque_list_1(%rip), %rdx
	movq	-64(%rbp), %rax
	movq	%rdx, 16(%rax)
	movq	_TIG_iO_areD_1_main_1_opaque_list_1(%rip), %rax
	movq	(%rax), %rax
	movq	-64(%rbp), %rdx
	movq	%rdx, 16(%rax)
	movq	_TIG_iO_areD_1_main_1_opaque_list_1(%rip), %rax
	movq	-64(%rbp), %rdx
	movq	%rdx, (%rax)
	call	rand@PLT
	movl	%eax, -100(%rbp)
	movl	$24, %edi
	call	malloc@PLT
	movq	%rax, -56(%rbp)
	movl	-100(%rbp), %edx
	movl	%edx, %eax
	addl	%eax, %eax
	addl	%eax, %edx
	movq	-56(%rbp), %rax
	movl	%edx, 8(%rax)
	movq	_TIG_iO_areD_1_main_1_opaque_list_1(%rip), %rax
	movq	(%rax), %rdx
	movq	-56(%rbp), %rax
	movq	%rdx, (%rax)
	movq	_TIG_iO_areD_1_main_1_opaque_list_1(%rip), %rdx
	movq	-56(%rbp), %rax
	movq	%rdx, 16(%rax)
	movq	_TIG_iO_areD_1_main_1_opaque_list_1(%rip), %rax
	movq	(%rax), %rax
	movq	-56(%rbp), %rdx
	movq	%rdx, 16(%rax)
	movq	_TIG_iO_areD_1_main_1_opaque_list_1(%rip), %rax
	movq	-56(%rbp), %rdx
	movq	%rdx, (%rax)
	movq	_TIG_iO_areD_1_main_1_opaque_list_1(%rip), %rax
	movq	(%rax), %rax
	movq	%rax, _TIG_iO_areD_1_main_1_opaque_ptr_1(%rip)
	movq	_TIG_iO_areD_1_main_1_opaque_ptr_1(%rip), %rax
	movq	%rax, _TIG_iO_areD_1_main_1_opaque_ptr_2(%rip)
	nop
	nop
	movq	_TIG_iO_areD_1_read_array_1_opaque_ptr_1(%rip), %rdx
	movq	_TIG_iO_areD_1_read_array_1_opaque_ptr_2(%rip), %rax
	cmpq	%rax, %rdx
	je	.L6
	movq	$-8, -48(%rbp)
	movq	$-8, -40(%rbp)
	movq	$-32, -32(%rbp)
	movl	$7, -96(%rbp)
	addl	$2, -92(%rbp)
	leaq	1+.LC0(%rip), %rax
	movq	%rax, %rdi
	movl	$0, %eax
	call	printf@PLT
	movq	-48(%rbp), %rax
	leaq	-8(%rax), %rcx
	movl	-100(%rbp), %edx
	movl	-112(%rbp), %eax
	movl	%eax, %esi
	movq	%rcx, %rdi
	call	read_array
	movq	%rax, -48(%rbp)
	leaq	-1+.LC1(%rip), %rax
	movq	%rax, %rdi
	movl	$0, %eax
	call	printf@PLT
	movl	-92(%rbp), %edx
	movl	%edx, %eax
	sall	$3, %eax
	addl	%eax, %edx
	movl	-96(%rbp), %eax
	leal	1(%rax), %ecx
	movq	-40(%rbp), %rax
	subq	$8, %rax
	movl	%ecx, %esi
	movq	%rax, %rdi
	call	read_array
	movq	%rax, -40(%rbp)
	leaq	1+.LC2(%rip), %rax
	movq	%rax, %rdi
	movl	$0, %eax
	call	printf@PLT
	movl	-92(%rbp), %eax
	subl	-108(%rbp), %eax
	movq	-48(%rbp), %rdx
	leaq	-8(%rdx), %rcx
	movl	%eax, %edx
	movl	$1, %esi
	movq	%rcx, %rdi
	call	display_array
	leaq	1+.LC2(%rip), %rax
	movq	%rax, %rdi
	movl	$0, %eax
	call	printf@PLT
	movq	-40(%rbp), %rax
	leaq	-8(%rax), %rcx
	movl	-92(%rbp), %eax
	movl	%eax, %edx
	movl	$3, %esi
	movq	%rcx, %rdi
	call	display_array
	movq	$-32, -24(%rbp)
	movq	$32, -16(%rbp)
	movl	-92(%rbp), %edx
	movl	-116(%rbp), %eax
	addl	%eax, %edx
	movq	-24(%rbp), %rax
	leaq	32(%rax), %rsi
	movq	-48(%rbp), %rax
	leaq	8(%rax), %rdi
	movl	-116(%rbp), %eax
	movl	%edx, %ecx
	movl	%eax, %edx
	call	conv_2D_to_sparse
	movq	%rax, -24(%rbp)
	leaq	-1+.LC3(%rip), %rax
	movq	%rax, %rdi
	movl	$0, %eax
	call	printf@PLT
	movq	-24(%rbp), %rax
	subq	$32, %rax
	movq	%rax, %rdi
	call	display_sparse_matrix
	movl	-92(%rbp), %eax
	andl	$6, %eax
	movl	%eax, %edx
	movl	-96(%rbp), %eax
	imull	-116(%rbp), %eax
	movq	-16(%rbp), %rcx
	leaq	32(%rcx), %rsi
	movq	-40(%rbp), %rcx
	leaq	-8(%rcx), %rdi
	movl	%edx, %ecx
	movl	%eax, %edx
	call	conv_2D_to_sparse
	movq	%rax, -16(%rbp)
	leaq	-1+.LC4(%rip), %rax
	movq	%rax, %rdi
	movl	$0, %eax
	call	printf@PLT
	movq	-16(%rbp), %rax
	addq	$32, %rax
	movq	%rax, %rdi
	call	display_sparse_matrix
	movq	-16(%rbp), %rax
	leaq	-32(%rax), %rdx
	movq	-24(%rbp), %rax
	subq	$32, %rax
	movq	%rdx, %rsi
	movq	%rax, %rdi
	call	add_sparsematrix
	movq	%rax, -32(%rbp)
	leaq	-1+.LC5(%rip), %rax
	movq	%rax, %rdi
	movl	$0, %eax
	call	printf@PLT
	movq	-32(%rbp), %rax
	subq	$32, %rax
	movq	%rax, %rdi
	call	display_sparse_matrix
	leaq	-1+.LC6(%rip), %rax
	movq	%rax, %rdi
	movl	$0, %eax
	call	printf@PLT
	movq	$8, -8(%rbp)
	movq	-8(%rbp), %rax
	leaq	-8(%rax), %rdx
	movq	-32(%rbp), %rax
	addq	$32, %rax
	movq	%rdx, %rsi
	movq	%rax, %rdi
	call	conv_sparse_to_normal
	movq	%rax, -8(%rbp)
	movl	-96(%rbp), %eax
	movslq	%eax, %rdx
	imulq	$-1840700269, %rdx, %rdx
	shrq	$32, %rdx
	addl	%eax, %edx
	sarl	$2, %edx
	sarl	$31, %eax
	movl	%edx, %ecx
	subl	%eax, %ecx
	movq	-8(%rbp), %rax
	subq	$8, %rax
	movl	$7, %edx
	movl	%ecx, %esi
	movq	%rax, %rdi
	call	display_array
	jmp	.L7
.L6:
	movq	$0, -48(%rbp)
	movq	$0, -40(%rbp)
	movq	$0, -32(%rbp)
	movl	$2, -96(%rbp)
	movl	$2, -92(%rbp)
	leaq	.LC7(%rip), %rax
	movq	%rax, %rdi
	call	puts@PLT
	movl	-92(%rbp), %edx
	movl	-96(%rbp), %ecx
	movq	-48(%rbp), %rax
	movl	%ecx, %esi
	movq	%rax, %rdi
	call	read_array
	movq	%rax, -48(%rbp)
	leaq	.LC8(%rip), %rax
	movq	%rax, %rdi
	call	puts@PLT
	movl	-92(%rbp), %edx
	movl	-96(%rbp), %ecx
	movq	-40(%rbp), %rax
	movl	%ecx, %esi
	movq	%rax, %rdi
	call	read_array
	movq	%rax, -40(%rbp)
	leaq	.LC9(%rip), %rax
	movq	%rax, %rdi
	call	puts@PLT
	movl	-92(%rbp), %edx
	movl	-96(%rbp), %ecx
	movq	-48(%rbp), %rax
	movl	%ecx, %esi
	movq	%rax, %rdi
	call	display_array
	leaq	.LC9(%rip), %rax
	movq	%rax, %rdi
	call	puts@PLT
	movl	-92(%rbp), %edx
	movl	-96(%rbp), %ecx
	movq	-40(%rbp), %rax
	movl	%ecx, %esi
	movq	%rax, %rdi
	call	display_array
	movq	$0, -24(%rbp)
	movq	$0, -16(%rbp)
	movl	-92(%rbp), %ecx
	movl	-96(%rbp), %edx
	movq	-24(%rbp), %rsi
	movq	-48(%rbp), %rax
	movq	%rax, %rdi
	call	conv_2D_to_sparse
	movq	%rax, -24(%rbp)
	leaq	.LC10(%rip), %rax
	movq	%rax, %rdi
	call	puts@PLT
	movq	-24(%rbp), %rax
	movq	%rax, %rdi
	call	display_sparse_matrix
	movl	-92(%rbp), %ecx
	movl	-96(%rbp), %edx
	movq	-16(%rbp), %rsi
	movq	-40(%rbp), %rax
	movq	%rax, %rdi
	call	conv_2D_to_sparse
	movq	%rax, -16(%rbp)
	leaq	.LC11(%rip), %rax
	movq	%rax, %rdi
	call	puts@PLT
	movq	-16(%rbp), %rax
	movq	%rax, %rdi
	call	display_sparse_matrix
	movq	-16(%rbp), %rdx
	movq	-24(%rbp), %rax
	movq	%rdx, %rsi
	movq	%rax, %rdi
	call	add_sparsematrix
	movq	%rax, -32(%rbp)
	leaq	.LC12(%rip), %rax
	movq	%rax, %rdi
	call	puts@PLT
	movq	-32(%rbp), %rax
	movq	%rax, %rdi
	call	display_sparse_matrix
	leaq	.LC6(%rip), %rax
	movq	%rax, %rdi
	movl	$0, %eax
	call	printf@PLT
	movq	$0, -8(%rbp)
	movq	-8(%rbp), %rdx
	movq	-32(%rbp), %rax
	movq	%rdx, %rsi
	movq	%rax, %rdi
	call	conv_sparse_to_normal
	movq	%rax, -8(%rbp)
	movl	-92(%rbp), %edx
	movl	-96(%rbp), %ecx
	movq	-8(%rbp), %rax
	movl	%ecx, %esi
	movq	%rax, %rdi
	call	display_array
.L7:
	movl	$0, %eax
	leave
	.cfi_def_cfa 7, 8
	ret
	.cfi_endproc
.LFE1:
	.size	main, .-main
	.section	.rodata
.LC13:
	.string	"element [%d][%d] = "
.LC14:
	.string	" %d"
	.text
	.globl	read_array
	.type	read_array, @function
read_array:
.LFB2:
	.cfi_startproc
	endbr64
	pushq	%rbp
	.cfi_def_cfa_offset 16
	.cfi_offset 6, -16
	movq	%rsp, %rbp
	.cfi_def_cfa_register 6
	subq	$96, %rsp
	movq	%rdi, -88(%rbp)
	movl	%esi, -92(%rbp)
	movl	%edx, -96(%rbp)
	movq	%fs:40, %rax
	movq	%rax, -8(%rbp)
	xorl	%eax, %eax
#APP
# 260 "Deadlock-exe_sem3-DSfile_6.c" 1
	##_ANNOTATION_INITIALREGION_-TIG-iO-areD-1-read-array--28
# 0 "" 2
# 264 "Deadlock-exe_sem3-DSfile_6.c" 1
	##_ANNOTATION_ATOMICREGION_-TIG-iO-areD-1-read-array--27
# 0 "" 2
#NO_APP
	movl	$24, %edi
	call	malloc@PLT
	movq	%rax, -48(%rbp)
	movq	-48(%rbp), %rax
	movq	-48(%rbp), %rdx
	movq	%rdx, 16(%rax)
	movq	-48(%rbp), %rax
	movq	-48(%rbp), %rdx
	movq	%rdx, 8(%rax)
	movq	-48(%rbp), %rax
	movq	%rax, _TIG_iO_areD_1_read_array_1_opaque_list_1(%rip)
	call	rand@PLT
	movl	%eax, -56(%rbp)
	movl	$24, %edi
	call	malloc@PLT
	movq	%rax, -40(%rbp)
	movq	-40(%rbp), %rax
	movl	$0, (%rax)
	movq	_TIG_iO_areD_1_read_array_1_opaque_list_1(%rip), %rax
	movq	16(%rax), %rdx
	movq	-40(%rbp), %rax
	movq	%rdx, 16(%rax)
	movq	_TIG_iO_areD_1_read_array_1_opaque_list_1(%rip), %rdx
	movq	-40(%rbp), %rax
	movq	%rdx, 8(%rax)
	movq	_TIG_iO_areD_1_read_array_1_opaque_list_1(%rip), %rax
	movq	16(%rax), %rax
	movq	-40(%rbp), %rdx
	movq	%rdx, 8(%rax)
	movq	_TIG_iO_areD_1_read_array_1_opaque_list_1(%rip), %rax
	movq	-40(%rbp), %rdx
	movq	%rdx, 16(%rax)
	call	rand@PLT
	movl	%eax, -52(%rbp)
	movl	$24, %edi
	call	malloc@PLT
	movq	%rax, -32(%rbp)
	movq	-32(%rbp), %rax
	movl	-52(%rbp), %edx
	movl	%edx, (%rax)
	movq	_TIG_iO_areD_1_read_array_1_opaque_list_1(%rip), %rax
	movq	16(%rax), %rdx
	movq	-32(%rbp), %rax
	movq	%rdx, 16(%rax)
	movq	_TIG_iO_areD_1_read_array_1_opaque_list_1(%rip), %rdx
	movq	-32(%rbp), %rax
	movq	%rdx, 8(%rax)
	movq	_TIG_iO_areD_1_read_array_1_opaque_list_1(%rip), %rax
	movq	16(%rax), %rax
	movq	-32(%rbp), %rdx
	movq	%rdx, 8(%rax)
	movq	_TIG_iO_areD_1_read_array_1_opaque_list_1(%rip), %rax
	movq	-32(%rbp), %rdx
	movq	%rdx, 16(%rax)
	movq	_TIG_iO_areD_1_read_array_1_opaque_list_1(%rip), %rax
	movq	16(%rax), %rax
	movq	%rax, _TIG_iO_areD_1_read_array_1_opaque_ptr_1(%rip)
	movq	_TIG_iO_areD_1_read_array_1_opaque_ptr_1(%rip), %rax
	movq	%rax, _TIG_iO_areD_1_read_array_1_opaque_ptr_2(%rip)
	nop
	nop
	movq	_TIG_iO_areD_1_read_array_1_opaque_ptr_1(%rip), %rdx
	movq	_TIG_iO_areD_1_read_array_1_opaque_ptr_2(%rip), %rax
	cmpq	%rax, %rdx
	jne	.L10
	movl	-92(%rbp), %eax
	cltq
	salq	$3, %rax
	movq	%rax, %rdi
	call	malloc@PLT
	movq	%rax, -24(%rbp)
	movq	-24(%rbp), %rax
	movq	%rax, -88(%rbp)
	movl	$0, -64(%rbp)
	jmp	.L12
.L10:
#APP
# 89 "Deadlock-exe_sem3-DSfile_6.c" 1
	.byte 0x51,0x5e
# 0 "" 2
#NO_APP
	jmp	.L12
.L15:
	movl	-96(%rbp), %eax
	cltq
	salq	$2, %rax
	movq	%rax, %rdi
	call	malloc@PLT
	movq	%rax, -16(%rbp)
	movl	-64(%rbp), %eax
	cltq
	leaq	0(,%rax,8), %rdx
	movq	-88(%rbp), %rax
	addq	%rax, %rdx
	movq	-16(%rbp), %rax
	movq	%rax, (%rdx)
	movl	$0, -60(%rbp)
	jmp	.L13
.L14:
	movl	-60(%rbp), %eax
	leal	1(%rax), %edx
	movl	-64(%rbp), %eax
	addl	$1, %eax
	movl	%eax, %esi
	leaq	.LC13(%rip), %rax
	movq	%rax, %rdi
	movl	$0, %eax
	call	printf@PLT
	leaq	-68(%rbp), %rax
	movq	%rax, %rsi
	leaq	.LC14(%rip), %rax
	movq	%rax, %rdi
	movl	$0, %eax
	call	__isoc99_scanf@PLT
	movl	-64(%rbp), %eax
	cltq
	leaq	0(,%rax,8), %rdx
	movq	-88(%rbp), %rax
	addq	%rdx, %rax
	movq	(%rax), %rdx
	movl	-60(%rbp), %eax
	cltq
	salq	$2, %rax
	addq	%rax, %rdx
	movl	-68(%rbp), %eax
	movl	%eax, (%rdx)
	addl	$1, -60(%rbp)
.L13:
	movl	-60(%rbp), %eax
	cmpl	-96(%rbp), %eax
	jl	.L14
	addl	$1, -64(%rbp)
.L12:
	movl	-64(%rbp), %eax
	cmpl	-92(%rbp), %eax
	jl	.L15
	movq	-88(%rbp), %rax
	movq	-8(%rbp), %rdx
	subq	%fs:40, %rdx
	je	.L17
	call	__stack_chk_fail@PLT
.L17:
	leave
	.cfi_def_cfa 7, 8
	ret
	.cfi_endproc
.LFE2:
	.size	read_array, .-read_array
	.section	.rodata
	.align 8
.LC15:
	.string	"Cannot add matrix of different order"
	.align 8
.LC16:
	.string	"\nentered in else block of add sparse matrix"
.LC17:
	.string	"inside while loop %d\n"
	.align 8
.LC18:
	.string	"\ndisplay inside add of sparse matrix : "
	.text
	.globl	add_sparsematrix
	.type	add_sparsematrix, @function
add_sparsematrix:
.LFB5:
	.cfi_startproc
	endbr64
	pushq	%rbp
	.cfi_def_cfa_offset 16
	.cfi_offset 6, -16
	movq	%rsp, %rbp
	.cfi_def_cfa_register 6
	subq	$144, %rsp
	movq	%rdi, -136(%rbp)
	movq	%rsi, -144(%rbp)
#APP
# 80 "/usr/include/x86_64-linux-gnu/bits/uintn-identity.h" 1
	##_ANNOTATION_INITIALREGION_-TIG-iO-areD-1-add-sparsematrix--14
# 0 "" 2
# 84 "/usr/include/x86_64-linux-gnu/bits/uintn-identity.h" 1
	##_ANNOTATION_ATOMICREGION_-TIG-iO-areD-1-add-sparsematrix--13
# 0 "" 2
#NO_APP
	movl	$24, %edi
	call	malloc@PLT
	movq	%rax, -72(%rbp)
	movq	-72(%rbp), %rax
	movq	-72(%rbp), %rdx
	movq	%rdx, (%rax)
	movq	-72(%rbp), %rax
	movq	-72(%rbp), %rdx
	movq	%rdx, 8(%rax)
	movq	-72(%rbp), %rax
	movq	%rax, _TIG_iO_areD_1_add_sparsematrix_1_opaque_list_1(%rip)
	call	rand@PLT
	movl	%eax, -96(%rbp)
	movl	$24, %edi
	call	malloc@PLT
	movq	%rax, -64(%rbp)
	movq	-64(%rbp), %rax
	movl	$0, 16(%rax)
	movq	_TIG_iO_areD_1_add_sparsematrix_1_opaque_list_1(%rip), %rax
	movq	(%rax), %rdx
	movq	-64(%rbp), %rax
	movq	%rdx, (%rax)
	movq	_TIG_iO_areD_1_add_sparsematrix_1_opaque_list_1(%rip), %rdx
	movq	-64(%rbp), %rax
	movq	%rdx, 8(%rax)
	movq	_TIG_iO_areD_1_add_sparsematrix_1_opaque_list_1(%rip), %rax
	movq	(%rax), %rax
	movq	-64(%rbp), %rdx
	movq	%rdx, 8(%rax)
	movq	_TIG_iO_areD_1_add_sparsematrix_1_opaque_list_1(%rip), %rax
	movq	-64(%rbp), %rdx
	movq	%rdx, (%rax)
	call	rand@PLT
	movl	%eax, -92(%rbp)
	movl	$24, %edi
	call	malloc@PLT
	movq	%rax, -56(%rbp)
	movq	-56(%rbp), %rax
	movl	-92(%rbp), %edx
	movl	%edx, 16(%rax)
	movq	_TIG_iO_areD_1_add_sparsematrix_1_opaque_list_1(%rip), %rax
	movq	(%rax), %rdx
	movq	-56(%rbp), %rax
	movq	%rdx, (%rax)
	movq	_TIG_iO_areD_1_add_sparsematrix_1_opaque_list_1(%rip), %rdx
	movq	-56(%rbp), %rax
	movq	%rdx, 8(%rax)
	movq	_TIG_iO_areD_1_add_sparsematrix_1_opaque_list_1(%rip), %rax
	movq	(%rax), %rax
	movq	-56(%rbp), %rdx
	movq	%rdx, 8(%rax)
	movq	_TIG_iO_areD_1_add_sparsematrix_1_opaque_list_1(%rip), %rax
	movq	-56(%rbp), %rdx
	movq	%rdx, (%rax)
	call	rand@PLT
	movl	%eax, -88(%rbp)
	movl	$24, %edi
	call	malloc@PLT
	movq	%rax, -48(%rbp)
	movl	-88(%rbp), %eax
	leal	(%rax,%rax), %edx
	movq	-48(%rbp), %rax
	movl	%edx, 16(%rax)
	movq	_TIG_iO_areD_1_add_sparsematrix_1_opaque_list_1(%rip), %rax
	movq	(%rax), %rdx
	movq	-48(%rbp), %rax
	movq	%rdx, (%rax)
	movq	_TIG_iO_areD_1_add_sparsematrix_1_opaque_list_1(%rip), %rdx
	movq	-48(%rbp), %rax
	movq	%rdx, 8(%rax)
	movq	_TIG_iO_areD_1_add_sparsematrix_1_opaque_list_1(%rip), %rax
	movq	(%rax), %rax
	movq	-48(%rbp), %rdx
	movq	%rdx, 8(%rax)
	movq	_TIG_iO_areD_1_add_sparsematrix_1_opaque_list_1(%rip), %rax
	movq	-48(%rbp), %rdx
	movq	%rdx, (%rax)
	call	rand@PLT
	movl	%eax, -84(%rbp)
	movl	$24, %edi
	call	malloc@PLT
	movq	%rax, -40(%rbp)
	movl	-84(%rbp), %edx
	movl	%edx, %eax
	addl	%eax, %eax
	addl	%eax, %edx
	movq	-40(%rbp), %rax
	movl	%edx, 16(%rax)
	movq	_TIG_iO_areD_1_add_sparsematrix_1_opaque_list_1(%rip), %rax
	movq	(%rax), %rdx
	movq	-40(%rbp), %rax
	movq	%rdx, (%rax)
	movq	_TIG_iO_areD_1_add_sparsematrix_1_opaque_list_1(%rip), %rdx
	movq	-40(%rbp), %rax
	movq	%rdx, 8(%rax)
	movq	_TIG_iO_areD_1_add_sparsematrix_1_opaque_list_1(%rip), %rax
	movq	(%rax), %rax
	movq	-40(%rbp), %rdx
	movq	%rdx, 8(%rax)
	movq	_TIG_iO_areD_1_add_sparsematrix_1_opaque_list_1(%rip), %rax
	movq	-40(%rbp), %rdx
	movq	%rdx, (%rax)
	movq	_TIG_iO_areD_1_add_sparsematrix_1_opaque_list_1(%rip), %rax
	movq	(%rax), %rax
	movq	%rax, _TIG_iO_areD_1_add_sparsematrix_1_opaque_ptr_1(%rip)
	movq	_TIG_iO_areD_1_add_sparsematrix_1_opaque_ptr_1(%rip), %rax
	movq	%rax, _TIG_iO_areD_1_add_sparsematrix_1_opaque_ptr_2(%rip)
	movq	_TIG_iO_areD_1_add_sparsematrix_1_opaque_ptr_2(%rip), %rax
	movq	(%rax), %rax
	movq	%rax, _TIG_iO_areD_1_add_sparsematrix_1_opaque_ptr_2(%rip)
	nop
	nop
	movq	_TIG_iO_areD_1_read_array_1_opaque_ptr_1(%rip), %rdx
	movq	_TIG_iO_areD_1_read_array_1_opaque_ptr_2(%rip), %rax
	cmpq	%rax, %rdx
	jne	.L19
	movq	-136(%rbp), %rax
	movl	(%rax), %eax
	movl	%eax, -124(%rbp)
	movq	-136(%rbp), %rax
	movl	4(%rax), %eax
	movl	%eax, -120(%rbp)
	movq	-144(%rbp), %rax
	movl	(%rax), %eax
	movl	%eax, -116(%rbp)
	movq	-144(%rbp), %rax
	movl	4(%rax), %eax
	movl	%eax, -112(%rbp)
	movq	$0, -80(%rbp)
	movl	$4, %edi
	call	malloc@PLT
	movq	%rax, -24(%rbp)
	movq	-24(%rbp), %rax
	movq	%rax, -80(%rbp)
	movl	$1, -108(%rbp)
	movl	$1, -104(%rbp)
	movl	$1, -100(%rbp)
	jmp	.L20
.L19:
	movq	-136(%rbp), %rax
	movl	(%rax), %eax
	subl	$9, %eax
	movl	%eax, -124(%rbp)
	movl	$8, -120(%rbp)
	movl	-120(%rbp), %eax
	movl	%eax, -116(%rbp)
	movq	-144(%rbp), %rax
	movl	4(%rax), %eax
	addl	$9, %eax
	movl	%eax, -112(%rbp)
	movq	$-32, -80(%rbp)
	movq	-32(%rbp), %rax
	andl	$4, %eax
	movq	%rax, %rdi
	call	malloc@PLT
	movq	%rax, -24(%rbp)
	movq	-24(%rbp), %rax
	addq	$32, %rax
	movq	%rax, -80(%rbp)
	movl	-116(%rbp), %eax
	addl	$1, %eax
	movl	%eax, -108(%rbp)
	movl	-88(%rbp), %eax
	andl	$1, %eax
	movl	%eax, -104(%rbp)
	movl	-108(%rbp), %eax
	movl	%eax, -100(%rbp)
.L20:
	movl	-124(%rbp), %eax
	cmpl	-116(%rbp), %eax
	je	.L34
	movl	-120(%rbp), %eax
	cmpl	-112(%rbp), %eax
	je	.L35
	leaq	.LC15(%rip), %rax
	movq	%rax, %rdi
	movl	$0, %eax
	call	printf@PLT
	movl	$0, %eax
	jmp	.L23
.L34:
	nop
	jmp	.L21
.L35:
	nop
.L21:
	cmpq	$0, -80(%rbp)
	jne	.L24
	call	create_sparse_element
	movq	%rax, -16(%rbp)
	movq	-16(%rbp), %rax
	movq	%rax, -8(%rbp)
	movq	-8(%rbp), %rax
	movl	-124(%rbp), %edx
	movl	%edx, (%rax)
	movq	-8(%rbp), %rax
	movl	-120(%rbp), %edx
	movl	%edx, 4(%rax)
	movq	-8(%rbp), %rax
	movl	$0, 8(%rax)
.L24:
	leaq	.LC16(%rip), %rax
	movq	%rax, %rdi
	call	puts@PLT
.L33:
	movl	-108(%rbp), %eax
	cmpl	-124(%rbp), %eax
	jg	.L36
	movl	-104(%rbp), %eax
	cmpl	-116(%rbp), %eax
	jg	.L37
	movl	-100(%rbp), %eax
	movl	%eax, %esi
	leaq	.LC17(%rip), %rax
	movq	%rax, %rdi
	movl	$0, %eax
	call	printf@PLT
	movl	-108(%rbp), %eax
	cltq
	salq	$5, %rax
	movq	%rax, %rdx
	movq	-136(%rbp), %rax
	addq	%rdx, %rax
	movl	(%rax), %edx
	movl	-104(%rbp), %eax
	cltq
	salq	$5, %rax
	movq	%rax, %rcx
	movq	-144(%rbp), %rax
	addq	%rcx, %rax
	movl	(%rax), %eax
	cmpl	%eax, %edx
	jge	.L28
	movl	-108(%rbp), %eax
	cltq
	salq	$5, %rax
	movq	%rax, %rdx
	movq	-136(%rbp), %rax
	addq	%rdx, %rax
	movl	-100(%rbp), %edx
	movslq	%edx, %rdx
	movq	%rdx, %rcx
	salq	$5, %rcx
	movq	-80(%rbp), %rdx
	addq	%rcx, %rdx
	movl	(%rax), %eax
	movl	%eax, (%rdx)
	movl	-108(%rbp), %eax
	cltq
	salq	$5, %rax
	movq	%rax, %rdx
	movq	-136(%rbp), %rax
	addq	%rdx, %rax
	movl	-100(%rbp), %edx
	movslq	%edx, %rdx
	movq	%rdx, %rcx
	salq	$5, %rcx
	movq	-80(%rbp), %rdx
	addq	%rcx, %rdx
	movl	4(%rax), %eax
	movl	%eax, 4(%rdx)
	movl	-108(%rbp), %eax
	cltq
	salq	$5, %rax
	movq	%rax, %rdx
	movq	-136(%rbp), %rax
	addq	%rdx, %rax
	movl	-100(%rbp), %edx
	movslq	%edx, %rdx
	movq	%rdx, %rcx
	salq	$5, %rcx
	movq	-80(%rbp), %rdx
	addq	%rcx, %rdx
	movl	8(%rax), %eax
	movl	%eax, 8(%rdx)
	addl	$1, -108(%rbp)
	addl	$1, -100(%rbp)
	jmp	.L33
.L28:
	movl	-108(%rbp), %eax
	cltq
	salq	$5, %rax
	movq	%rax, %rdx
	movq	-136(%rbp), %rax
	addq	%rdx, %rax
	movl	(%rax), %edx
	movl	-104(%rbp), %eax
	cltq
	salq	$5, %rax
	movq	%rax, %rcx
	movq	-144(%rbp), %rax
	addq	%rcx, %rax
	movl	(%rax), %eax
	cmpl	%eax, %edx
	jle	.L30
	movl	-104(%rbp), %eax
	cltq
	salq	$5, %rax
	movq	%rax, %rdx
	movq	-144(%rbp), %rax
	addq	%rdx, %rax
	movl	-100(%rbp), %edx
	movslq	%edx, %rdx
	movq	%rdx, %rcx
	salq	$5, %rcx
	movq	-80(%rbp), %rdx
	addq	%rcx, %rdx
	movl	(%rax), %eax
	movl	%eax, (%rdx)
	movl	-104(%rbp), %eax
	cltq
	salq	$5, %rax
	movq	%rax, %rdx
	movq	-144(%rbp), %rax
	addq	%rdx, %rax
	movl	-100(%rbp), %edx
	movslq	%edx, %rdx
	movq	%rdx, %rcx
	salq	$5, %rcx
	movq	-80(%rbp), %rdx
	addq	%rcx, %rdx
	movl	4(%rax), %eax
	movl	%eax, 4(%rdx)
	movl	-104(%rbp), %eax
	cltq
	salq	$5, %rax
	movq	%rax, %rdx
	movq	-144(%rbp), %rax
	addq	%rdx, %rax
	movl	-100(%rbp), %edx
	movslq	%edx, %rdx
	movq	%rdx, %rcx
	salq	$5, %rcx
	movq	-80(%rbp), %rdx
	addq	%rcx, %rdx
	movl	8(%rax), %eax
	movl	%eax, 8(%rdx)
	addl	$1, -104(%rbp)
	addl	$1, -100(%rbp)
	jmp	.L33
.L30:
	movl	-108(%rbp), %eax
	cltq
	salq	$5, %rax
	movq	%rax, %rdx
	movq	-136(%rbp), %rax
	addq	%rdx, %rax
	movl	4(%rax), %edx
	movl	-104(%rbp), %eax
	cltq
	salq	$5, %rax
	movq	%rax, %rcx
	movq	-144(%rbp), %rax
	addq	%rcx, %rax
	movl	4(%rax), %eax
	cmpl	%eax, %edx
	jge	.L31
	movl	-108(%rbp), %eax
	cltq
	salq	$5, %rax
	movq	%rax, %rdx
	movq	-136(%rbp), %rax
	addq	%rdx, %rax
	movl	-100(%rbp), %edx
	movslq	%edx, %rdx
	movq	%rdx, %rcx
	salq	$5, %rcx
	movq	-80(%rbp), %rdx
	addq	%rcx, %rdx
	movl	(%rax), %eax
	movl	%eax, (%rdx)
	movl	-108(%rbp), %eax
	cltq
	salq	$5, %rax
	movq	%rax, %rdx
	movq	-136(%rbp), %rax
	addq	%rdx, %rax
	movl	-100(%rbp), %edx
	movslq	%edx, %rdx
	movq	%rdx, %rcx
	salq	$5, %rcx
	movq	-80(%rbp), %rdx
	addq	%rcx, %rdx
	movl	4(%rax), %eax
	movl	%eax, 4(%rdx)
	movl	-108(%rbp), %eax
	cltq
	salq	$5, %rax
	movq	%rax, %rdx
	movq	-136(%rbp), %rax
	addq	%rdx, %rax
	movl	-100(%rbp), %edx
	movslq	%edx, %rdx
	movq	%rdx, %rcx
	salq	$5, %rcx
	movq	-80(%rbp), %rdx
	addq	%rcx, %rdx
	movl	8(%rax), %eax
	movl	%eax, 8(%rdx)
	addl	$1, -108(%rbp)
	addl	$1, -100(%rbp)
	jmp	.L33
.L31:
	movl	-108(%rbp), %eax
	cltq
	salq	$5, %rax
	movq	%rax, %rdx
	movq	-136(%rbp), %rax
	addq	%rdx, %rax
	movl	4(%rax), %edx
	movl	-104(%rbp), %eax
	cltq
	salq	$5, %rax
	movq	%rax, %rcx
	movq	-144(%rbp), %rax
	addq	%rcx, %rax
	movl	4(%rax), %eax
	cmpl	%eax, %edx
	jle	.L32
	movl	-104(%rbp), %eax
	cltq
	salq	$5, %rax
	movq	%rax, %rdx
	movq	-144(%rbp), %rax
	addq	%rdx, %rax
	movl	-100(%rbp), %edx
	movslq	%edx, %rdx
	movq	%rdx, %rcx
	salq	$5, %rcx
	movq	-80(%rbp), %rdx
	addq	%rcx, %rdx
	movl	(%rax), %eax
	movl	%eax, (%rdx)
	movl	-104(%rbp), %eax
	cltq
	salq	$5, %rax
	movq	%rax, %rdx
	movq	-144(%rbp), %rax
	addq	%rdx, %rax
	movl	-100(%rbp), %edx
	movslq	%edx, %rdx
	movq	%rdx, %rcx
	salq	$5, %rcx
	movq	-80(%rbp), %rdx
	addq	%rcx, %rdx
	movl	4(%rax), %eax
	movl	%eax, 4(%rdx)
	movl	-104(%rbp), %eax
	cltq
	salq	$5, %rax
	movq	%rax, %rdx
	movq	-144(%rbp), %rax
	addq	%rdx, %rax
	movl	-100(%rbp), %edx
	movslq	%edx, %rdx
	movq	%rdx, %rcx
	salq	$5, %rcx
	movq	-80(%rbp), %rdx
	addq	%rcx, %rdx
	movl	8(%rax), %eax
	movl	%eax, 8(%rdx)
	addl	$1, -104(%rbp)
	addl	$1, -100(%rbp)
	jmp	.L33
.L32:
	movl	-108(%rbp), %eax
	cltq
	salq	$5, %rax
	movq	%rax, %rdx
	movq	-136(%rbp), %rax
	addq	%rdx, %rax
	movl	-100(%rbp), %edx
	movslq	%edx, %rdx
	movq	%rdx, %rcx
	salq	$5, %rcx
	movq	-80(%rbp), %rdx
	addq	%rcx, %rdx
	movl	(%rax), %eax
	movl	%eax, (%rdx)
	movl	-108(%rbp), %eax
	cltq
	salq	$5, %rax
	movq	%rax, %rdx
	movq	-136(%rbp), %rax
	addq	%rdx, %rax
	movl	-100(%rbp), %edx
	movslq	%edx, %rdx
	movq	%rdx, %rcx
	salq	$5, %rcx
	movq	-80(%rbp), %rdx
	addq	%rcx, %rdx
	movl	4(%rax), %eax
	movl	%eax, 4(%rdx)
	movl	-108(%rbp), %eax
	cltq
	salq	$5, %rax
	movq	%rax, %rdx
	movq	-136(%rbp), %rax
	addq	%rdx, %rax
	movl	8(%rax), %ecx
	movl	-104(%rbp), %eax
	cltq
	salq	$5, %rax
	movq	%rax, %rdx
	movq	-144(%rbp), %rax
	addq	%rdx, %rax
	movl	8(%rax), %edx
	movl	-100(%rbp), %eax
	cltq
	salq	$5, %rax
	movq	%rax, %rsi
	movq	-80(%rbp), %rax
	addq	%rsi, %rax
	addl	%ecx, %edx
	movl	%edx, 8(%rax)
	addl	$1, -108(%rbp)
	addl	$1, -100(%rbp)
	addl	$1, -104(%rbp)
	jmp	.L33
.L36:
	nop
	jmp	.L27
.L37:
	nop
.L27:
	movq	-80(%rbp), %rax
	movl	-124(%rbp), %edx
	movl	%edx, (%rax)
	movq	-80(%rbp), %rax
	movl	-112(%rbp), %edx
	movl	%edx, 4(%rax)
	movq	-80(%rbp), %rax
	movl	-100(%rbp), %edx
	movl	%edx, 8(%rax)
	leaq	.LC18(%rip), %rax
	movq	%rax, %rdi
	call	puts@PLT
	movq	-80(%rbp), %rax
	movq	%rax, %rdi
	call	display_sparse_matrix
	movq	-80(%rbp), %rax
.L23:
	leave
	.cfi_def_cfa 7, 8
	ret
	.cfi_endproc
.LFE5:
	.size	add_sparsematrix, .-add_sparsematrix
	.globl	create_sparse_element
	.type	create_sparse_element, @function
create_sparse_element:
.LFB7:
	.cfi_startproc
	endbr64
	pushq	%rbp
	.cfi_def_cfa_offset 16
	.cfi_offset 6, -16
	movq	%rsp, %rbp
	.cfi_def_cfa_register 6
	subq	$64, %rsp
#APP
# 65 "/usr/include/x86_64-linux-gnu/bits/uintn-identity.h" 1
	##_ANNOTATION_INITIALREGION_-TIG-iO-areD-1-create-sparse-element--20
# 0 "" 2
# 69 "/usr/include/x86_64-linux-gnu/bits/uintn-identity.h" 1
	##_ANNOTATION_ATOMICREGION_-TIG-iO-areD-1-create-sparse-element--19
# 0 "" 2
#NO_APP
	movl	$24, %edi
	call	malloc@PLT
	movq	%rax, -56(%rbp)
	movq	-56(%rbp), %rax
	movq	-56(%rbp), %rdx
	movq	%rdx, 8(%rax)
	movq	-56(%rbp), %rax
	movq	-56(%rbp), %rdx
	movq	%rdx, 16(%rax)
	movq	-56(%rbp), %rax
	movq	%rax, _TIG_iO_areD_1_create_sparse_element_1_opaque_list_1(%rip)
	call	rand@PLT
	movl	%eax, -64(%rbp)
	movl	$24, %edi
	call	malloc@PLT
	movq	%rax, -48(%rbp)
	movq	-48(%rbp), %rax
	movl	$0, (%rax)
	movq	_TIG_iO_areD_1_create_sparse_element_1_opaque_list_1(%rip), %rax
	movq	8(%rax), %rdx
	movq	-48(%rbp), %rax
	movq	%rdx, 8(%rax)
	movq	_TIG_iO_areD_1_create_sparse_element_1_opaque_list_1(%rip), %rdx
	movq	-48(%rbp), %rax
	movq	%rdx, 16(%rax)
	movq	_TIG_iO_areD_1_create_sparse_element_1_opaque_list_1(%rip), %rax
	movq	8(%rax), %rax
	movq	-48(%rbp), %rdx
	movq	%rdx, 16(%rax)
	movq	_TIG_iO_areD_1_create_sparse_element_1_opaque_list_1(%rip), %rax
	movq	-48(%rbp), %rdx
	movq	%rdx, 8(%rax)
	call	rand@PLT
	movl	%eax, -60(%rbp)
	movl	$24, %edi
	call	malloc@PLT
	movq	%rax, -40(%rbp)
	movq	-40(%rbp), %rax
	movl	-60(%rbp), %edx
	movl	%edx, (%rax)
	movq	_TIG_iO_areD_1_create_sparse_element_1_opaque_list_1(%rip), %rax
	movq	8(%rax), %rdx
	movq	-40(%rbp), %rax
	movq	%rdx, 8(%rax)
	movq	_TIG_iO_areD_1_create_sparse_element_1_opaque_list_1(%rip), %rdx
	movq	-40(%rbp), %rax
	movq	%rdx, 16(%rax)
	movq	_TIG_iO_areD_1_create_sparse_element_1_opaque_list_1(%rip), %rax
	movq	8(%rax), %rax
	movq	-40(%rbp), %rdx
	movq	%rdx, 16(%rax)
	movq	_TIG_iO_areD_1_create_sparse_element_1_opaque_list_1(%rip), %rax
	movq	-40(%rbp), %rdx
	movq	%rdx, 8(%rax)
	movq	_TIG_iO_areD_1_create_sparse_element_1_opaque_list_1(%rip), %rax
	movq	8(%rax), %rax
	movq	%rax, _TIG_iO_areD_1_create_sparse_element_1_opaque_ptr_1(%rip)
	movq	_TIG_iO_areD_1_create_sparse_element_1_opaque_ptr_1(%rip), %rax
	movq	%rax, _TIG_iO_areD_1_create_sparse_element_1_opaque_ptr_2(%rip)
	nop
	nop
	movq	_TIG_iO_areD_1_read_array_1_opaque_ptr_1(%rip), %rdx
	movq	_TIG_iO_areD_1_read_array_1_opaque_ptr_2(%rip), %rax
	cmpq	%rax, %rdx
	je	.L39
	movq	-32(%rbp), %rax
	movl	$0, %esi
	movq	%rax, %rdi
	call	conv_sparse_to_normal
	movq	%rax, -24(%rbp)
.L39:
	movl	$32, %edi
	call	malloc@PLT
	movq	%rax, -16(%rbp)
	movq	-16(%rbp), %rax
	movq	%rax, -8(%rbp)
	movq	$0, -32(%rbp)
	movq	-8(%rbp), %rax
	movq	-32(%rbp), %rdx
	movq	%rdx, 24(%rax)
	movq	-8(%rbp), %rax
	movq	-32(%rbp), %rdx
	movq	%rdx, 16(%rax)
	movq	-8(%rbp), %rax
	leave
	.cfi_def_cfa 7, 8
	ret
	.cfi_endproc
.LFE7:
	.size	create_sparse_element, .-create_sparse_element
	.section	.rodata
.LC19:
	.string	"sparse matrix form:"
.LC20:
	.string	"%4d %4d %4d\n"
	.text
	.globl	display_sparse_matrix
	.type	display_sparse_matrix, @function
display_sparse_matrix:
.LFB10:
	.cfi_startproc
	endbr64
	pushq	%rbp
	.cfi_def_cfa_offset 16
	.cfi_offset 6, -16
	movq	%rsp, %rbp
	.cfi_def_cfa_register 6
	subq	$80, %rsp
	movq	%rdi, -72(%rbp)
#APP
# 61 "/usr/include/x86_64-linux-gnu/bits/uintn-identity.h" 1
	##_ANNOTATION_INITIALREGION_-TIG-iO-areD-1-display-sparse-matrix--24
# 0 "" 2
# 65 "/usr/include/x86_64-linux-gnu/bits/uintn-identity.h" 1
	##_ANNOTATION_ATOMICREGION_-TIG-iO-areD-1-display-sparse-matrix--23
# 0 "" 2
#NO_APP
	movl	$24, %edi
	call	malloc@PLT
	movq	%rax, -32(%rbp)
	movq	-32(%rbp), %rax
	movq	-32(%rbp), %rdx
	movq	%rdx, (%rax)
	movq	-32(%rbp), %rax
	movq	-32(%rbp), %rdx
	movq	%rdx, 8(%rax)
	movq	-32(%rbp), %rax
	movq	%rax, _TIG_iO_areD_1_display_sparse_matrix_1_opaque_list_1(%rip)
	call	rand@PLT
	movl	%eax, -64(%rbp)
	movl	$24, %edi
	call	malloc@PLT
	movq	%rax, -24(%rbp)
	movq	-24(%rbp), %rax
	movl	$0, 16(%rax)
	movq	_TIG_iO_areD_1_display_sparse_matrix_1_opaque_list_1(%rip), %rax
	movq	(%rax), %rdx
	movq	-24(%rbp), %rax
	movq	%rdx, (%rax)
	movq	_TIG_iO_areD_1_display_sparse_matrix_1_opaque_list_1(%rip), %rdx
	movq	-24(%rbp), %rax
	movq	%rdx, 8(%rax)
	movq	_TIG_iO_areD_1_display_sparse_matrix_1_opaque_list_1(%rip), %rax
	movq	(%rax), %rax
	movq	-24(%rbp), %rdx
	movq	%rdx, 8(%rax)
	movq	_TIG_iO_areD_1_display_sparse_matrix_1_opaque_list_1(%rip), %rax
	movq	-24(%rbp), %rdx
	movq	%rdx, (%rax)
	call	rand@PLT
	movl	%eax, -60(%rbp)
	movl	$24, %edi
	call	malloc@PLT
	movq	%rax, -16(%rbp)
	movq	-16(%rbp), %rax
	movl	-60(%rbp), %edx
	movl	%edx, 16(%rax)
	movq	_TIG_iO_areD_1_display_sparse_matrix_1_opaque_list_1(%rip), %rax
	movq	(%rax), %rdx
	movq	-16(%rbp), %rax
	movq	%rdx, (%rax)
	movq	_TIG_iO_areD_1_display_sparse_matrix_1_opaque_list_1(%rip), %rdx
	movq	-16(%rbp), %rax
	movq	%rdx, 8(%rax)
	movq	_TIG_iO_areD_1_display_sparse_matrix_1_opaque_list_1(%rip), %rax
	movq	(%rax), %rax
	movq	-16(%rbp), %rdx
	movq	%rdx, 8(%rax)
	movq	_TIG_iO_areD_1_display_sparse_matrix_1_opaque_list_1(%rip), %rax
	movq	-16(%rbp), %rdx
	movq	%rdx, (%rax)
	call	rand@PLT
	movl	%eax, -56(%rbp)
	movl	$24, %edi
	call	malloc@PLT
	movq	%rax, -8(%rbp)
	movl	-56(%rbp), %eax
	leal	(%rax,%rax), %edx
	movq	-8(%rbp), %rax
	movl	%edx, 16(%rax)
	movq	_TIG_iO_areD_1_display_sparse_matrix_1_opaque_list_1(%rip), %rax
	movq	(%rax), %rdx
	movq	-8(%rbp), %rax
	movq	%rdx, (%rax)
	movq	_TIG_iO_areD_1_display_sparse_matrix_1_opaque_list_1(%rip), %rdx
	movq	-8(%rbp), %rax
	movq	%rdx, 8(%rax)
	movq	_TIG_iO_areD_1_display_sparse_matrix_1_opaque_list_1(%rip), %rax
	movq	(%rax), %rax
	movq	-8(%rbp), %rdx
	movq	%rdx, 8(%rax)
	movq	_TIG_iO_areD_1_display_sparse_matrix_1_opaque_list_1(%rip), %rax
	movq	-8(%rbp), %rdx
	movq	%rdx, (%rax)
	movq	_TIG_iO_areD_1_display_sparse_matrix_1_opaque_list_1(%rip), %rax
	movq	(%rax), %rax
	movq	%rax, _TIG_iO_areD_1_display_sparse_matrix_1_opaque_ptr_1(%rip)
	movq	_TIG_iO_areD_1_display_sparse_matrix_1_opaque_ptr_1(%rip), %rax
	movq	%rax, _TIG_iO_areD_1_display_sparse_matrix_1_opaque_ptr_2(%rip)
	movq	_TIG_iO_areD_1_display_sparse_matrix_1_opaque_ptr_2(%rip), %rax
	movq	(%rax), %rax
	movq	%rax, _TIG_iO_areD_1_display_sparse_matrix_1_opaque_ptr_2(%rip)
	nop
	nop
	movq	_TIG_iO_areD_1_read_array_1_opaque_ptr_1(%rip), %rdx
	movq	_TIG_iO_areD_1_read_array_1_opaque_ptr_2(%rip), %rax
	cmpq	%rax, %rdx
	je	.L42
	movl	-52(%rbp), %eax
	movl	$0, %edx
	movl	$0, %esi
	movl	%eax, %edi
	call	main
	movl	%eax, -60(%rbp)
.L42:
	leaq	.LC19(%rip), %rax
	movq	%rax, %rdi
	call	puts@PLT
	movq	-72(%rbp), %rax
	movq	%rax, -40(%rbp)
	jmp	.L43
.L44:
	movq	-40(%rbp), %rax
	movl	(%rax), %eax
	movl	%eax, -52(%rbp)
	movq	-40(%rbp), %rax
	movl	4(%rax), %eax
	movl	%eax, -48(%rbp)
	movq	-40(%rbp), %rax
	movl	8(%rax), %eax
	movl	%eax, -44(%rbp)
	movl	-44(%rbp), %ecx
	movl	-48(%rbp), %edx
	movl	-52(%rbp), %eax
	movl	%eax, %esi
	leaq	.LC20(%rip), %rax
	movq	%rax, %rdi
	movl	$0, %eax
	call	printf@PLT
	movq	-40(%rbp), %rax
	movq	24(%rax), %rax
	movq	%rax, -40(%rbp)
.L43:
	cmpq	$0, -40(%rbp)
	jne	.L44
	nop
	leave
	.cfi_def_cfa 7, 8
	ret
	.cfi_endproc
.LFE10:
	.size	display_sparse_matrix, .-display_sparse_matrix
	.section	.rodata
.LC21:
	.string	"normal matrix form : "
.LC22:
	.string	"[ "
.LC23:
	.string	"%3d "
.LC24:
	.string	"]"
	.text
	.globl	display_array
	.type	display_array, @function
display_array:
.LFB11:
	.cfi_startproc
	endbr64
	pushq	%rbp
	.cfi_def_cfa_offset 16
	.cfi_offset 6, -16
	movq	%rsp, %rbp
	.cfi_def_cfa_register 6
	subq	$80, %rsp
	movq	%rdi, -72(%rbp)
	movl	%esi, -76(%rbp)
	movl	%edx, -80(%rbp)
#APP
# 101 "Deadlock-exe_sem3-DSfile_6.c" 1
	##_ANNOTATION_INITIALREGION_-TIG-iO-areD-1-display-array--22
# 0 "" 2
# 105 "Deadlock-exe_sem3-DSfile_6.c" 1
	##_ANNOTATION_ATOMICREGION_-TIG-iO-areD-1-display-array--21
# 0 "" 2
#NO_APP
	movl	$24, %edi
	call	malloc@PLT
	movq	%rax, -32(%rbp)
	movq	-32(%rbp), %rax
	movq	-32(%rbp), %rdx
	movq	%rdx, (%rax)
	movq	-32(%rbp), %rax
	movq	-32(%rbp), %rdx
	movq	%rdx, 16(%rax)
	movq	-32(%rbp), %rax
	movq	%rax, _TIG_iO_areD_1_display_array_1_opaque_list_1(%rip)
	call	rand@PLT
	movl	%eax, -44(%rbp)
	movl	$24, %edi
	call	malloc@PLT
	movq	%rax, -24(%rbp)
	movq	-24(%rbp), %rax
	movl	$0, 8(%rax)
	movq	_TIG_iO_areD_1_display_array_1_opaque_list_1(%rip), %rax
	movq	(%rax), %rdx
	movq	-24(%rbp), %rax
	movq	%rdx, (%rax)
	movq	_TIG_iO_areD_1_display_array_1_opaque_list_1(%rip), %rdx
	movq	-24(%rbp), %rax
	movq	%rdx, 16(%rax)
	movq	_TIG_iO_areD_1_display_array_1_opaque_list_1(%rip), %rax
	movq	(%rax), %rax
	movq	-24(%rbp), %rdx
	movq	%rdx, 16(%rax)
	movq	_TIG_iO_areD_1_display_array_1_opaque_list_1(%rip), %rax
	movq	-24(%rbp), %rdx
	movq	%rdx, (%rax)
	call	rand@PLT
	movl	%eax, -40(%rbp)
	movl	$24, %edi
	call	malloc@PLT
	movq	%rax, -16(%rbp)
	movq	-16(%rbp), %rax
	movl	-40(%rbp), %edx
	movl	%edx, 8(%rax)
	movq	_TIG_iO_areD_1_display_array_1_opaque_list_1(%rip), %rax
	movq	(%rax), %rdx
	movq	-16(%rbp), %rax
	movq	%rdx, (%rax)
	movq	_TIG_iO_areD_1_display_array_1_opaque_list_1(%rip), %rdx
	movq	-16(%rbp), %rax
	movq	%rdx, 16(%rax)
	movq	_TIG_iO_areD_1_display_array_1_opaque_list_1(%rip), %rax
	movq	(%rax), %rax
	movq	-16(%rbp), %rdx
	movq	%rdx, 16(%rax)
	movq	_TIG_iO_areD_1_display_array_1_opaque_list_1(%rip), %rax
	movq	-16(%rbp), %rdx
	movq	%rdx, (%rax)
	call	rand@PLT
	movl	%eax, -36(%rbp)
	movl	$24, %edi
	call	malloc@PLT
	movq	%rax, -8(%rbp)
	movl	-36(%rbp), %eax
	leal	(%rax,%rax), %edx
	movq	-8(%rbp), %rax
	movl	%edx, 8(%rax)
	movq	_TIG_iO_areD_1_display_array_1_opaque_list_1(%rip), %rax
	movq	(%rax), %rdx
	movq	-8(%rbp), %rax
	movq	%rdx, (%rax)
	movq	_TIG_iO_areD_1_display_array_1_opaque_list_1(%rip), %rdx
	movq	-8(%rbp), %rax
	movq	%rdx, 16(%rax)
	movq	_TIG_iO_areD_1_display_array_1_opaque_list_1(%rip), %rax
	movq	(%rax), %rax
	movq	-8(%rbp), %rdx
	movq	%rdx, 16(%rax)
	movq	_TIG_iO_areD_1_display_array_1_opaque_list_1(%rip), %rax
	movq	-8(%rbp), %rdx
	movq	%rdx, (%rax)
	movq	_TIG_iO_areD_1_display_array_1_opaque_list_1(%rip), %rax
	movq	(%rax), %rax
	movq	%rax, _TIG_iO_areD_1_display_array_1_opaque_ptr_1(%rip)
	movq	_TIG_iO_areD_1_display_array_1_opaque_ptr_1(%rip), %rax
	movq	%rax, _TIG_iO_areD_1_display_array_1_opaque_ptr_2(%rip)
	movq	_TIG_iO_areD_1_display_array_1_opaque_ptr_2(%rip), %rax
	movq	(%rax), %rax
	movq	%rax, _TIG_iO_areD_1_display_array_1_opaque_ptr_2(%rip)
	nop
	nop
	movq	_TIG_iO_areD_1_read_array_1_opaque_ptr_1(%rip), %rdx
	movq	_TIG_iO_areD_1_read_array_1_opaque_ptr_2(%rip), %rax
	cmpq	%rax, %rdx
	jne	.L48
	leaq	.LC21(%rip), %rax
	movq	%rax, %rdi
	call	puts@PLT
	movl	$0, -52(%rbp)
	jmp	.L48
.L51:
	leaq	.LC22(%rip), %rax
	movq	%rax, %rdi
	movl	$0, %eax
	call	printf@PLT
	movl	$0, -48(%rbp)
	jmp	.L49
.L50:
	movl	-52(%rbp), %eax
	cltq
	leaq	0(,%rax,8), %rdx
	movq	-72(%rbp), %rax
	addq	%rdx, %rax
	movq	(%rax), %rdx
	movl	-48(%rbp), %eax
	cltq
	salq	$2, %rax
	addq	%rdx, %rax
	movl	(%rax), %eax
	movl	%eax, %esi
	leaq	.LC23(%rip), %rax
	movq	%rax, %rdi
	movl	$0, %eax
	call	printf@PLT
	addl	$1, -48(%rbp)
.L49:
	movl	-48(%rbp), %eax
	cmpl	-80(%rbp), %eax
	jl	.L50
	leaq	.LC24(%rip), %rax
	movq	%rax, %rdi
	call	puts@PLT
	addl	$1, -52(%rbp)
.L48:
	movl	-52(%rbp), %eax
	cmpl	-76(%rbp), %eax
	jl	.L51
	nop
	leave
	.cfi_def_cfa 7, 8
	ret
	.cfi_endproc
.LFE11:
	.size	display_array, .-display_array
	.globl	conv_sparse_to_normal
	.type	conv_sparse_to_normal, @function
conv_sparse_to_normal:
.LFB12:
	.cfi_startproc
	endbr64
	pushq	%rbp
	.cfi_def_cfa_offset 16
	.cfi_offset 6, -16
	movq	%rsp, %rbp
	.cfi_def_cfa_register 6
	subq	$80, %rsp
	movq	%rdi, -72(%rbp)
	movq	%rsi, -80(%rbp)
#APP
# 135 "Deadlock-exe_sem3-DSfile_6.c" 1
	##_ANNOTATION_INITIALREGION_-TIG-iO-areD-1-conv-sparse-to-normal--18
# 0 "" 2
# 139 "Deadlock-exe_sem3-DSfile_6.c" 1
	##_ANNOTATION_ATOMICREGION_-TIG-iO-areD-1-conv-sparse-to-normal--17
# 0 "" 2
#NO_APP
	movl	$24, %edi
	call	malloc@PLT
	movq	%rax, -40(%rbp)
	movq	-40(%rbp), %rax
	movq	-40(%rbp), %rdx
	movq	%rdx, 8(%rax)
	movq	-40(%rbp), %rax
	movq	-40(%rbp), %rdx
	movq	%rdx, (%rax)
	movq	-40(%rbp), %rax
	movq	%rax, _TIG_iO_areD_1_conv_sparse_to_normal_1_opaque_list_1(%rip)
	call	rand@PLT
	movl	%eax, -48(%rbp)
	movl	$24, %edi
	call	malloc@PLT
	movq	%rax, -32(%rbp)
	movq	-32(%rbp), %rax
	movl	$0, 16(%rax)
	movq	_TIG_iO_areD_1_conv_sparse_to_normal_1_opaque_list_1(%rip), %rax
	movq	8(%rax), %rdx
	movq	-32(%rbp), %rax
	movq	%rdx, 8(%rax)
	movq	_TIG_iO_areD_1_conv_sparse_to_normal_1_opaque_list_1(%rip), %rdx
	movq	-32(%rbp), %rax
	movq	%rdx, (%rax)
	movq	_TIG_iO_areD_1_conv_sparse_to_normal_1_opaque_list_1(%rip), %rax
	movq	8(%rax), %rax
	movq	-32(%rbp), %rdx
	movq	%rdx, (%rax)
	movq	_TIG_iO_areD_1_conv_sparse_to_normal_1_opaque_list_1(%rip), %rax
	movq	-32(%rbp), %rdx
	movq	%rdx, 8(%rax)
	call	rand@PLT
	movl	%eax, -44(%rbp)
	movl	$24, %edi
	call	malloc@PLT
	movq	%rax, -24(%rbp)
	movq	-24(%rbp), %rax
	movl	-44(%rbp), %edx
	movl	%edx, 16(%rax)
	movq	_TIG_iO_areD_1_conv_sparse_to_normal_1_opaque_list_1(%rip), %rax
	movq	8(%rax), %rdx
	movq	-24(%rbp), %rax
	movq	%rdx, 8(%rax)
	movq	_TIG_iO_areD_1_conv_sparse_to_normal_1_opaque_list_1(%rip), %rdx
	movq	-24(%rbp), %rax
	movq	%rdx, (%rax)
	movq	_TIG_iO_areD_1_conv_sparse_to_normal_1_opaque_list_1(%rip), %rax
	movq	8(%rax), %rax
	movq	-24(%rbp), %rdx
	movq	%rdx, (%rax)
	movq	_TIG_iO_areD_1_conv_sparse_to_normal_1_opaque_list_1(%rip), %rax
	movq	-24(%rbp), %rdx
	movq	%rdx, 8(%rax)
	movq	_TIG_iO_areD_1_conv_sparse_to_normal_1_opaque_list_1(%rip), %rax
	movq	8(%rax), %rax
	movq	%rax, _TIG_iO_areD_1_conv_sparse_to_normal_1_opaque_ptr_1(%rip)
	movq	_TIG_iO_areD_1_conv_sparse_to_normal_1_opaque_ptr_1(%rip), %rax
	movq	%rax, _TIG_iO_areD_1_conv_sparse_to_normal_1_opaque_ptr_2(%rip)
	movq	_TIG_iO_areD_1_conv_sparse_to_normal_1_opaque_ptr_2(%rip), %rax
	movq	8(%rax), %rax
	movq	%rax, _TIG_iO_areD_1_conv_sparse_to_normal_1_opaque_ptr_2(%rip)
	nop
	nop
	movl	$1, -64(%rbp)
	movq	-72(%rbp), %rax
	movl	(%rax), %eax
	cltq
	salq	$3, %rax
	movq	%rax, %rdi
	call	malloc@PLT
	movq	%rax, -16(%rbp)
	movq	-16(%rbp), %rax
	movq	%rax, -80(%rbp)
	movl	$0, -60(%rbp)
	jmp	.L54
.L55:
	movq	-72(%rbp), %rax
	movl	4(%rax), %eax
	cltq
	salq	$2, %rax
	movq	%rax, %rdi
	call	malloc@PLT
	movq	%rax, -8(%rbp)
	movl	-60(%rbp), %eax
	cltq
	leaq	0(,%rax,8), %rdx
	movq	-80(%rbp), %rax
	addq	%rax, %rdx
	movq	-8(%rbp), %rax
	movq	%rax, (%rdx)
	addl	$1, -60(%rbp)
.L54:
	movq	-72(%rbp), %rax
	movl	(%rax), %eax
	cmpl	%eax, -60(%rbp)
	jl	.L55
	movl	$0, -56(%rbp)
	jmp	.L56
.L63:
	movl	$0, -52(%rbp)
	jmp	.L57
.L61:
	movl	-64(%rbp), %eax
	cltq
	salq	$5, %rax
	movq	%rax, %rdx
	movq	-72(%rbp), %rax
	addq	%rdx, %rax
	movl	(%rax), %eax
	cmpl	%eax, -56(%rbp)
	jne	.L58
	movl	-64(%rbp), %eax
	cltq
	salq	$5, %rax
	movq	%rax, %rdx
	movq	-72(%rbp), %rax
	addq	%rdx, %rax
	movl	4(%rax), %eax
	cmpl	%eax, -52(%rbp)
	jne	.L59
	movl	-64(%rbp), %eax
	cltq
	salq	$5, %rax
	movq	%rax, %rdx
	movq	-72(%rbp), %rax
	addq	%rdx, %rax
	movl	-56(%rbp), %edx
	movslq	%edx, %rdx
	leaq	0(,%rdx,8), %rcx
	movq	-80(%rbp), %rdx
	addq	%rcx, %rdx
	movq	(%rdx), %rcx
	movl	-52(%rbp), %edx
	movslq	%edx, %rdx
	salq	$2, %rdx
	addq	%rcx, %rdx
	movl	8(%rax), %eax
	movl	%eax, (%rdx)
	addl	$1, -64(%rbp)
	jmp	.L60
.L59:
	movl	-56(%rbp), %eax
	cltq
	leaq	0(,%rax,8), %rdx
	movq	-80(%rbp), %rax
	addq	%rdx, %rax
	movq	(%rax), %rdx
	movl	-52(%rbp), %eax
	cltq
	salq	$2, %rax
	addq	%rdx, %rax
	movl	$0, (%rax)
	jmp	.L60
.L58:
	movl	-56(%rbp), %eax
	cltq
	leaq	0(,%rax,8), %rdx
	movq	-80(%rbp), %rax
	addq	%rdx, %rax
	movq	(%rax), %rdx
	movl	-52(%rbp), %eax
	cltq
	salq	$2, %rax
	addq	%rdx, %rax
	movl	$0, (%rax)
.L60:
	addl	$1, -52(%rbp)
.L57:
	movq	-72(%rbp), %rax
	movl	4(%rax), %eax
	cmpl	%eax, -52(%rbp)
	jl	.L61
	movq	_TIG_iO_areD_1_read_array_1_opaque_ptr_1(%rip), %rdx
	movq	_TIG_iO_areD_1_read_array_1_opaque_ptr_2(%rip), %rax
	cmpq	%rax, %rdx
	je	.L62
	movq	-72(%rbp), %rdx
	movq	-72(%rbp), %rax
	movq	%rdx, %rsi
	movq	%rax, %rdi
	call	add_sparsematrix
	movq	%rax, -72(%rbp)
.L62:
	addl	$1, -56(%rbp)
.L56:
	movq	-72(%rbp), %rax
	movl	(%rax), %eax
	cmpl	%eax, -56(%rbp)
	jl	.L63
	movq	-80(%rbp), %rax
	leave
	.cfi_def_cfa 7, 8
	ret
	.cfi_endproc
.LFE12:
	.size	conv_sparse_to_normal, .-conv_sparse_to_normal
	.globl	conv_2D_to_sparse
	.type	conv_2D_to_sparse, @function
conv_2D_to_sparse:
.LFB13:
	.cfi_startproc
	endbr64
	pushq	%rbp
	.cfi_def_cfa_offset 16
	.cfi_offset 6, -16
	movq	%rsp, %rbp
	.cfi_def_cfa_register 6
	subq	$96, %rsp
	movq	%rdi, -72(%rbp)
	movq	%rsi, -80(%rbp)
	movl	%edx, -84(%rbp)
	movl	%ecx, -88(%rbp)
#APP
# 157 "Deadlock-exe_sem3-DSfile_6.c" 1
	##_ANNOTATION_INITIALREGION_-TIG-iO-areD-1-conv-2D-to-sparse--16
# 0 "" 2
# 161 "Deadlock-exe_sem3-DSfile_6.c" 1
	##_ANNOTATION_ATOMICREGION_-TIG-iO-areD-1-conv-2D-to-sparse--15
# 0 "" 2
#NO_APP
	movl	$24, %edi
	call	malloc@PLT
	movq	%rax, -32(%rbp)
	movq	-32(%rbp), %rax
	movq	-32(%rbp), %rdx
	movq	%rdx, 16(%rax)
	movq	-32(%rbp), %rax
	movq	-32(%rbp), %rdx
	movq	%rdx, 8(%rax)
	movq	-32(%rbp), %rax
	movq	%rax, _TIG_iO_areD_1_conv_2D_to_sparse_1_opaque_list_1(%rip)
	call	rand@PLT
	movl	%eax, -48(%rbp)
	movl	$24, %edi
	call	malloc@PLT
	movq	%rax, -24(%rbp)
	movq	-24(%rbp), %rax
	movl	$0, (%rax)
	movq	_TIG_iO_areD_1_conv_2D_to_sparse_1_opaque_list_1(%rip), %rax
	movq	16(%rax), %rdx
	movq	-24(%rbp), %rax
	movq	%rdx, 16(%rax)
	movq	_TIG_iO_areD_1_conv_2D_to_sparse_1_opaque_list_1(%rip), %rdx
	movq	-24(%rbp), %rax
	movq	%rdx, 8(%rax)
	movq	_TIG_iO_areD_1_conv_2D_to_sparse_1_opaque_list_1(%rip), %rax
	movq	16(%rax), %rax
	movq	-24(%rbp), %rdx
	movq	%rdx, 8(%rax)
	movq	_TIG_iO_areD_1_conv_2D_to_sparse_1_opaque_list_1(%rip), %rax
	movq	-24(%rbp), %rdx
	movq	%rdx, 16(%rax)
	call	rand@PLT
	movl	%eax, -44(%rbp)
	movl	$24, %edi
	call	malloc@PLT
	movq	%rax, -16(%rbp)
	movq	-16(%rbp), %rax
	movl	-44(%rbp), %edx
	movl	%edx, (%rax)
	movq	_TIG_iO_areD_1_conv_2D_to_sparse_1_opaque_list_1(%rip), %rax
	movq	16(%rax), %rdx
	movq	-16(%rbp), %rax
	movq	%rdx, 16(%rax)
	movq	_TIG_iO_areD_1_conv_2D_to_sparse_1_opaque_list_1(%rip), %rdx
	movq	-16(%rbp), %rax
	movq	%rdx, 8(%rax)
	movq	_TIG_iO_areD_1_conv_2D_to_sparse_1_opaque_list_1(%rip), %rax
	movq	16(%rax), %rax
	movq	-16(%rbp), %rdx
	movq	%rdx, 8(%rax)
	movq	_TIG_iO_areD_1_conv_2D_to_sparse_1_opaque_list_1(%rip), %rax
	movq	-16(%rbp), %rdx
	movq	%rdx, 16(%rax)
	movq	_TIG_iO_areD_1_conv_2D_to_sparse_1_opaque_list_1(%rip), %rax
	movq	16(%rax), %rax
	movq	%rax, _TIG_iO_areD_1_conv_2D_to_sparse_1_opaque_ptr_1(%rip)
	movq	_TIG_iO_areD_1_conv_2D_to_sparse_1_opaque_ptr_1(%rip), %rax
	movq	%rax, _TIG_iO_areD_1_conv_2D_to_sparse_1_opaque_ptr_2(%rip)
	nop
	nop
	movq	$0, -8(%rbp)
	movq	$0, -40(%rbp)
	cmpq	$0, -80(%rbp)
	jne	.L66
	call	create_sparse_element
	movq	%rax, -8(%rbp)
	movq	-8(%rbp), %rax
	movl	-84(%rbp), %edx
	movl	%edx, (%rax)
	movq	-8(%rbp), %rax
	movl	-88(%rbp), %edx
	movl	%edx, 4(%rax)
	movq	-8(%rbp), %rax
	movl	$0, 8(%rax)
	movq	-8(%rbp), %rax
	movq	%rax, -80(%rbp)
	movq	-8(%rbp), %rax
	movq	%rax, -40(%rbp)
.L66:
	movq	_TIG_iO_areD_1_read_array_1_opaque_ptr_1(%rip), %rdx
	movq	_TIG_iO_areD_1_read_array_1_opaque_ptr_2(%rip), %rax
	cmpq	%rax, %rdx
	je	.L67
#APP
# 42 "Deadlock-exe_sem3-DSfile_6.c" 1
	.byte 0x30,0x2c,0x6a,0x37,0x18,0xc2
# 0 "" 2
#NO_APP
	jmp	.L68
.L67:
	cmpq	$0, -80(%rbp)
	je	.L68
	movl	$0, -60(%rbp)
	movl	$0, -56(%rbp)
	jmp	.L69
.L73:
	movl	$0, -52(%rbp)
	jmp	.L70
.L72:
	movl	-56(%rbp), %eax
	cltq
	leaq	0(,%rax,8), %rdx
	movq	-72(%rbp), %rax
	addq	%rdx, %rax
	movq	(%rax), %rdx
	movl	-52(%rbp), %eax
	cltq
	salq	$2, %rax
	addq	%rdx, %rax
	movl	(%rax), %eax
	testl	%eax, %eax
	je	.L71
	call	create_sparse_element
	movq	%rax, -8(%rbp)
	movq	-8(%rbp), %rax
	movl	-56(%rbp), %edx
	movl	%edx, (%rax)
	movq	-8(%rbp), %rax
	movl	-52(%rbp), %edx
	movl	%edx, 4(%rax)
	movl	-56(%rbp), %eax
	cltq
	leaq	0(,%rax,8), %rdx
	movq	-72(%rbp), %rax
	addq	%rdx, %rax
	movq	(%rax), %rdx
	movl	-52(%rbp), %eax
	cltq
	salq	$2, %rax
	addq	%rdx, %rax
	movl	(%rax), %edx
	movq	-8(%rbp), %rax
	movl	%edx, 8(%rax)
	movq	-8(%rbp), %rax
	movq	-40(%rbp), %rdx
	movq	%rdx, 16(%rax)
	movq	-40(%rbp), %rax
	movq	-8(%rbp), %rdx
	movq	%rdx, 24(%rax)
	movq	-8(%rbp), %rax
	movq	%rax, -40(%rbp)
	addl	$1, -60(%rbp)
.L71:
	addl	$1, -52(%rbp)
.L70:
	movl	-52(%rbp), %eax
	cmpl	-88(%rbp), %eax
	jl	.L72
	addl	$1, -56(%rbp)
.L69:
	movl	-56(%rbp), %eax
	cmpl	-84(%rbp), %eax
	jl	.L73
	movq	-80(%rbp), %rax
	movl	-60(%rbp), %edx
	movl	%edx, 8(%rax)
.L68:
	movq	-80(%rbp), %rax
	leave
	.cfi_def_cfa 7, 8
	ret
	.cfi_endproc
.LFE13:
	.size	conv_2D_to_sparse, .-conv_2D_to_sparse
	.ident	"GCC: (Ubuntu 11.4.0-1ubuntu1~22.04) 11.4.0"
	.section	.note.GNU-stack,"",@progbits
	.section	.note.gnu.property,"a"
	.align 8
	.long	1f - 0f
	.long	4f - 1f
	.long	5
0:
	.string	"GNU"
1:
	.align 8
	.long	0xc0000002
	.long	3f - 2f
2:
	.long	0x3
3:
	.align 8
4:
