	.file	"demon90s_CppStudy_ex_09_opaque.c"
	.text
	.globl	_TIG_iO_fXon_1_f2_1_opaque_list_1
	.bss
	.align 8
	.type	_TIG_iO_fXon_1_f2_1_opaque_list_1, @object
	.size	_TIG_iO_fXon_1_f2_1_opaque_list_1, 8
_TIG_iO_fXon_1_f2_1_opaque_list_1:
	.zero	8
	.globl	_TIG_iO_fXon_1___bswap_32_1_opaque_ptr_1
	.align 8
	.type	_TIG_iO_fXon_1___bswap_32_1_opaque_ptr_1, @object
	.size	_TIG_iO_fXon_1___bswap_32_1_opaque_ptr_1, 8
_TIG_iO_fXon_1___bswap_32_1_opaque_ptr_1:
	.zero	8
	.globl	_TIG_iO_fXon_1_f1_1_opaque_list_1
	.align 8
	.type	_TIG_iO_fXon_1_f1_1_opaque_list_1, @object
	.size	_TIG_iO_fXon_1_f1_1_opaque_list_1, 8
_TIG_iO_fXon_1_f1_1_opaque_list_1:
	.zero	8
	.globl	_TIG_iO_fXon_1_main_1_opaque_ptr_2
	.align 8
	.type	_TIG_iO_fXon_1_main_1_opaque_ptr_2, @object
	.size	_TIG_iO_fXon_1_main_1_opaque_ptr_2, 8
_TIG_iO_fXon_1_main_1_opaque_ptr_2:
	.zero	8
	.globl	_TIG_iO_fXon_1___uint16_identity_1_opaque_list_2
	.align 8
	.type	_TIG_iO_fXon_1___uint16_identity_1_opaque_list_2, @object
	.size	_TIG_iO_fXon_1___uint16_identity_1_opaque_list_2, 8
_TIG_iO_fXon_1___uint16_identity_1_opaque_list_2:
	.zero	8
	.globl	_TIG_IZ_fXon_argv
	.align 8
	.type	_TIG_IZ_fXon_argv, @object
	.size	_TIG_IZ_fXon_argv, 8
_TIG_IZ_fXon_argv:
	.zero	8
	.globl	_TIG_iO_fXon_1_main_1_opaque_list_2
	.align 8
	.type	_TIG_iO_fXon_1_main_1_opaque_list_2, @object
	.size	_TIG_iO_fXon_1_main_1_opaque_list_2, 8
_TIG_iO_fXon_1_main_1_opaque_list_2:
	.zero	8
	.globl	_TIG_iO_fXon_1_f1_1_opaque_ptr_2
	.align 8
	.type	_TIG_iO_fXon_1_f1_1_opaque_ptr_2, @object
	.size	_TIG_iO_fXon_1_f1_1_opaque_ptr_2, 8
_TIG_iO_fXon_1_f1_1_opaque_ptr_2:
	.zero	8
	.globl	_TIG_iO_fXon_1_f2_1_opaque_list_2
	.align 8
	.type	_TIG_iO_fXon_1_f2_1_opaque_list_2, @object
	.size	_TIG_iO_fXon_1_f2_1_opaque_list_2, 8
_TIG_iO_fXon_1_f2_1_opaque_list_2:
	.zero	8
	.globl	_TIG_iO_fXon_1___bswap_16_1_opaque_list_2
	.align 8
	.type	_TIG_iO_fXon_1___bswap_16_1_opaque_list_2, @object
	.size	_TIG_iO_fXon_1___bswap_16_1_opaque_list_2, 8
_TIG_iO_fXon_1___bswap_16_1_opaque_list_2:
	.zero	8
	.globl	_TIG_iO_fXon_1___uint64_identity_1_opaque_list_2
	.align 8
	.type	_TIG_iO_fXon_1___uint64_identity_1_opaque_list_2, @object
	.size	_TIG_iO_fXon_1___uint64_identity_1_opaque_list_2, 8
_TIG_iO_fXon_1___uint64_identity_1_opaque_list_2:
	.zero	8
	.globl	_TIG_iO_fXon_1___uint64_identity_1_opaque_ptr_2
	.align 8
	.type	_TIG_iO_fXon_1___uint64_identity_1_opaque_ptr_2, @object
	.size	_TIG_iO_fXon_1___uint64_identity_1_opaque_ptr_2, 8
_TIG_iO_fXon_1___uint64_identity_1_opaque_ptr_2:
	.zero	8
	.globl	_TIG_iO_fXon_1___uint32_identity_1_opaque_list_1
	.align 8
	.type	_TIG_iO_fXon_1___uint32_identity_1_opaque_list_1, @object
	.size	_TIG_iO_fXon_1___uint32_identity_1_opaque_list_1, 8
_TIG_iO_fXon_1___uint32_identity_1_opaque_list_1:
	.zero	8
	.globl	_TIG_iO_fXon_1___uint64_identity_1_opaque_list_1
	.align 8
	.type	_TIG_iO_fXon_1___uint64_identity_1_opaque_list_1, @object
	.size	_TIG_iO_fXon_1___uint64_identity_1_opaque_list_1, 8
_TIG_iO_fXon_1___uint64_identity_1_opaque_list_1:
	.zero	8
	.globl	_TIG_iO_fXon_1_f1_1_opaque_list_2
	.align 8
	.type	_TIG_iO_fXon_1_f1_1_opaque_list_2, @object
	.size	_TIG_iO_fXon_1_f1_1_opaque_list_2, 8
_TIG_iO_fXon_1_f1_1_opaque_list_2:
	.zero	8
	.globl	_TIG_iO_fXon_1_f1_1_opaque_ptr_1
	.align 8
	.type	_TIG_iO_fXon_1_f1_1_opaque_ptr_1, @object
	.size	_TIG_iO_fXon_1_f1_1_opaque_ptr_1, 8
_TIG_iO_fXon_1_f1_1_opaque_ptr_1:
	.zero	8
	.globl	_TIG_iO_fXon_1___bswap_16_1_opaque_ptr_1
	.align 8
	.type	_TIG_iO_fXon_1___bswap_16_1_opaque_ptr_1, @object
	.size	_TIG_iO_fXon_1___bswap_16_1_opaque_ptr_1, 8
_TIG_iO_fXon_1___bswap_16_1_opaque_ptr_1:
	.zero	8
	.globl	_TIG_iO_fXon_1___bswap_32_1_opaque_list_2
	.align 8
	.type	_TIG_iO_fXon_1___bswap_32_1_opaque_list_2, @object
	.size	_TIG_iO_fXon_1___bswap_32_1_opaque_list_2, 8
_TIG_iO_fXon_1___bswap_32_1_opaque_list_2:
	.zero	8
	.globl	_TIG_iO_fXon_1___uint16_identity_1_opaque_ptr_2
	.align 8
	.type	_TIG_iO_fXon_1___uint16_identity_1_opaque_ptr_2, @object
	.size	_TIG_iO_fXon_1___uint16_identity_1_opaque_ptr_2, 8
_TIG_iO_fXon_1___uint16_identity_1_opaque_ptr_2:
	.zero	8
	.globl	_TIG_iO_fXon_1___uint64_identity_1_opaque_ptr_1
	.align 8
	.type	_TIG_iO_fXon_1___uint64_identity_1_opaque_ptr_1, @object
	.size	_TIG_iO_fXon_1___uint64_identity_1_opaque_ptr_1, 8
_TIG_iO_fXon_1___uint64_identity_1_opaque_ptr_1:
	.zero	8
	.globl	_TIG_iO_fXon_1___bswap_32_1_opaque_list_1
	.align 8
	.type	_TIG_iO_fXon_1___bswap_32_1_opaque_list_1, @object
	.size	_TIG_iO_fXon_1___bswap_32_1_opaque_list_1, 8
_TIG_iO_fXon_1___bswap_32_1_opaque_list_1:
	.zero	8
	.globl	_TIG_iO_fXon_1_main_1_opaque_ptr_1
	.align 8
	.type	_TIG_iO_fXon_1_main_1_opaque_ptr_1, @object
	.size	_TIG_iO_fXon_1_main_1_opaque_ptr_1, 8
_TIG_iO_fXon_1_main_1_opaque_ptr_1:
	.zero	8
	.globl	_TIG_iO_fXon_1___bswap_64_1_opaque_ptr_1
	.align 8
	.type	_TIG_iO_fXon_1___bswap_64_1_opaque_ptr_1, @object
	.size	_TIG_iO_fXon_1___bswap_64_1_opaque_ptr_1, 8
_TIG_iO_fXon_1___bswap_64_1_opaque_ptr_1:
	.zero	8
	.globl	_TIG_iO_fXon_1___bswap_16_1_opaque_list_1
	.align 8
	.type	_TIG_iO_fXon_1___bswap_16_1_opaque_list_1, @object
	.size	_TIG_iO_fXon_1___bswap_16_1_opaque_list_1, 8
_TIG_iO_fXon_1___bswap_16_1_opaque_list_1:
	.zero	8
	.globl	_TIG_iO_fXon_1___uint16_identity_1_opaque_list_1
	.align 8
	.type	_TIG_iO_fXon_1___uint16_identity_1_opaque_list_1, @object
	.size	_TIG_iO_fXon_1___uint16_identity_1_opaque_list_1, 8
_TIG_iO_fXon_1___uint16_identity_1_opaque_list_1:
	.zero	8
	.globl	_TIG_IZ_fXon_argc
	.align 4
	.type	_TIG_IZ_fXon_argc, @object
	.size	_TIG_IZ_fXon_argc, 4
_TIG_IZ_fXon_argc:
	.zero	4
	.globl	_TIG_iO_fXon_1___bswap_16_1_opaque_ptr_2
	.align 8
	.type	_TIG_iO_fXon_1___bswap_16_1_opaque_ptr_2, @object
	.size	_TIG_iO_fXon_1___bswap_16_1_opaque_ptr_2, 8
_TIG_iO_fXon_1___bswap_16_1_opaque_ptr_2:
	.zero	8
	.globl	_TIG_iO_fXon_1___uint16_identity_1_opaque_ptr_1
	.align 8
	.type	_TIG_iO_fXon_1___uint16_identity_1_opaque_ptr_1, @object
	.size	_TIG_iO_fXon_1___uint16_identity_1_opaque_ptr_1, 8
_TIG_iO_fXon_1___uint16_identity_1_opaque_ptr_1:
	.zero	8
	.globl	_TIG_IZ_fXon_envp
	.align 8
	.type	_TIG_IZ_fXon_envp, @object
	.size	_TIG_IZ_fXon_envp, 8
_TIG_IZ_fXon_envp:
	.zero	8
	.globl	_TIG_iO_fXon_1___uint32_identity_1_opaque_list_2
	.align 8
	.type	_TIG_iO_fXon_1___uint32_identity_1_opaque_list_2, @object
	.size	_TIG_iO_fXon_1___uint32_identity_1_opaque_list_2, 8
_TIG_iO_fXon_1___uint32_identity_1_opaque_list_2:
	.zero	8
	.globl	_TIG_iO_fXon_1___bswap_32_1_opaque_ptr_2
	.align 8
	.type	_TIG_iO_fXon_1___bswap_32_1_opaque_ptr_2, @object
	.size	_TIG_iO_fXon_1___bswap_32_1_opaque_ptr_2, 8
_TIG_iO_fXon_1___bswap_32_1_opaque_ptr_2:
	.zero	8
	.globl	_TIG_iO_fXon_1___uint32_identity_1_opaque_ptr_2
	.align 8
	.type	_TIG_iO_fXon_1___uint32_identity_1_opaque_ptr_2, @object
	.size	_TIG_iO_fXon_1___uint32_identity_1_opaque_ptr_2, 8
_TIG_iO_fXon_1___uint32_identity_1_opaque_ptr_2:
	.zero	8
	.globl	_TIG_iO_fXon_1___uint32_identity_1_opaque_ptr_1
	.align 8
	.type	_TIG_iO_fXon_1___uint32_identity_1_opaque_ptr_1, @object
	.size	_TIG_iO_fXon_1___uint32_identity_1_opaque_ptr_1, 8
_TIG_iO_fXon_1___uint32_identity_1_opaque_ptr_1:
	.zero	8
	.globl	_TIG_iO_fXon_1___bswap_64_1_opaque_list_2
	.align 8
	.type	_TIG_iO_fXon_1___bswap_64_1_opaque_list_2, @object
	.size	_TIG_iO_fXon_1___bswap_64_1_opaque_list_2, 8
_TIG_iO_fXon_1___bswap_64_1_opaque_list_2:
	.zero	8
	.globl	_TIG_iO_fXon_1_f2_1_opaque_ptr_1
	.align 8
	.type	_TIG_iO_fXon_1_f2_1_opaque_ptr_1, @object
	.size	_TIG_iO_fXon_1_f2_1_opaque_ptr_1, 8
_TIG_iO_fXon_1_f2_1_opaque_ptr_1:
	.zero	8
	.globl	_TIG_iO_fXon_1_f2_1_opaque_ptr_2
	.align 8
	.type	_TIG_iO_fXon_1_f2_1_opaque_ptr_2, @object
	.size	_TIG_iO_fXon_1_f2_1_opaque_ptr_2, 8
_TIG_iO_fXon_1_f2_1_opaque_ptr_2:
	.zero	8
	.globl	_TIG_iO_fXon_1___bswap_64_1_opaque_ptr_2
	.align 8
	.type	_TIG_iO_fXon_1___bswap_64_1_opaque_ptr_2, @object
	.size	_TIG_iO_fXon_1___bswap_64_1_opaque_ptr_2, 8
_TIG_iO_fXon_1___bswap_64_1_opaque_ptr_2:
	.zero	8
	.globl	_TIG_iO_fXon_1_main_1_opaque_list_1
	.align 8
	.type	_TIG_iO_fXon_1_main_1_opaque_list_1, @object
	.size	_TIG_iO_fXon_1_main_1_opaque_list_1, 8
_TIG_iO_fXon_1_main_1_opaque_list_1:
	.zero	8
	.globl	_TIG_iO_fXon_1___bswap_64_1_opaque_list_1
	.align 8
	.type	_TIG_iO_fXon_1___bswap_64_1_opaque_list_1, @object
	.size	_TIG_iO_fXon_1___bswap_64_1_opaque_list_1, 8
_TIG_iO_fXon_1___bswap_64_1_opaque_list_1:
	.zero	8
	.text
	.globl	main
	.type	main, @function
main:
.LFB3:
	.cfi_startproc
	endbr64
	pushq	%rbp
	.cfi_def_cfa_offset 16
	.cfi_offset 6, -16
	movq	%rsp, %rbp
	.cfi_def_cfa_register 6
	subq	$64, %rsp
	movl	%edi, -36(%rbp)
	movq	%rsi, -48(%rbp)
	movq	%rdx, -56(%rbp)
	movq	$0, _TIG_IZ_fXon_envp(%rip)
	nop
.L2:
	movq	$0, _TIG_IZ_fXon_argv(%rip)
	nop
.L3:
	movl	$0, _TIG_IZ_fXon_argc(%rip)
	nop
	nop
.L4:
.L5:
#APP
# 120 "/usr/include/x86_64-linux-gnu/bits/byteswap.h" 1
	##_ANNOTATION_INITIALREGION_-TIG-IZ-fXon--0
# 0 "" 2
#NO_APP
	movl	-36(%rbp), %eax
	movl	%eax, _TIG_IZ_fXon_argc(%rip)
	movq	-48(%rbp), %rax
	movq	%rax, _TIG_IZ_fXon_argv(%rip)
	movq	-56(%rbp), %rax
	movq	%rax, _TIG_IZ_fXon_envp(%rip)
#APP
# 127 "/usr/include/x86_64-linux-gnu/bits/byteswap.h" 1
	##_ANNOTATION_ATOMICREGION_-TIG-iO-fXon-1-main--17
# 0 "" 2
#NO_APP
	movl	$24, %edi
	call	malloc@PLT
	movq	%rax, -24(%rbp)
	movq	-24(%rbp), %rax
	movq	-24(%rbp), %rdx
	movq	%rdx, 8(%rax)
	movq	-24(%rbp), %rax
	movq	-24(%rbp), %rdx
	movq	%rdx, (%rax)
	movq	-24(%rbp), %rax
	movq	%rax, _TIG_iO_fXon_1_main_1_opaque_list_1(%rip)
	call	rand@PLT
	movl	%eax, -32(%rbp)
	movl	$24, %edi
	call	malloc@PLT
	movq	%rax, -16(%rbp)
	movq	-16(%rbp), %rax
	movl	$0, 16(%rax)
	movq	_TIG_iO_fXon_1_main_1_opaque_list_1(%rip), %rax
	movq	8(%rax), %rdx
	movq	-16(%rbp), %rax
	movq	%rdx, 8(%rax)
	movq	_TIG_iO_fXon_1_main_1_opaque_list_1(%rip), %rdx
	movq	-16(%rbp), %rax
	movq	%rdx, (%rax)
	movq	_TIG_iO_fXon_1_main_1_opaque_list_1(%rip), %rax
	movq	8(%rax), %rax
	movq	-16(%rbp), %rdx
	movq	%rdx, (%rax)
	movq	_TIG_iO_fXon_1_main_1_opaque_list_1(%rip), %rax
	movq	-16(%rbp), %rdx
	movq	%rdx, 8(%rax)
	call	rand@PLT
	movl	%eax, -28(%rbp)
	movl	$24, %edi
	call	malloc@PLT
	movq	%rax, -8(%rbp)
	movq	-8(%rbp), %rax
	movl	-28(%rbp), %edx
	movl	%edx, 16(%rax)
	movq	_TIG_iO_fXon_1_main_1_opaque_list_1(%rip), %rax
	movq	8(%rax), %rdx
	movq	-8(%rbp), %rax
	movq	%rdx, 8(%rax)
	movq	_TIG_iO_fXon_1_main_1_opaque_list_1(%rip), %rdx
	movq	-8(%rbp), %rax
	movq	%rdx, (%rax)
	movq	_TIG_iO_fXon_1_main_1_opaque_list_1(%rip), %rax
	movq	8(%rax), %rax
	movq	-8(%rbp), %rdx
	movq	%rdx, (%rax)
	movq	_TIG_iO_fXon_1_main_1_opaque_list_1(%rip), %rax
	movq	-8(%rbp), %rdx
	movq	%rdx, 8(%rax)
	movq	_TIG_iO_fXon_1_main_1_opaque_list_1(%rip), %rax
	movq	8(%rax), %rax
	movq	%rax, _TIG_iO_fXon_1_main_1_opaque_ptr_1(%rip)
	movq	_TIG_iO_fXon_1_main_1_opaque_ptr_1(%rip), %rax
	movq	%rax, _TIG_iO_fXon_1_main_1_opaque_ptr_2(%rip)
	movq	_TIG_iO_fXon_1_main_1_opaque_ptr_2(%rip), %rax
	movq	8(%rax), %rax
	movq	%rax, _TIG_iO_fXon_1_main_1_opaque_ptr_2(%rip)
	nop
	nop
	movq	_TIG_iO_fXon_1_main_1_opaque_ptr_1(%rip), %rdx
	movq	_TIG_iO_fXon_1_main_1_opaque_ptr_2(%rip), %rax
	cmpq	%rax, %rdx
	jne	.L6
	call	f2
.L6:
	leaq	f2(%rip), %rax
	movq	%rax, %rdi
	call	atexit@PLT
	leaq	f1(%rip), %rax
	movq	%rax, %rdi
	call	atexit@PLT
	movl	$0, %eax
	leave
	.cfi_def_cfa 7, 8
	ret
	.cfi_endproc
.LFE3:
	.size	main, .-main
	.section	.rodata
.LC0:
	.string	"folks!"
	.text
	.globl	f2
	.type	f2, @function
f2:
.LFB5:
	.cfi_startproc
	endbr64
	pushq	%rbp
	.cfi_def_cfa_offset 16
	.cfi_offset 6, -16
	movq	%rsp, %rbp
	.cfi_def_cfa_register 6
	subq	$32, %rsp
#APP
# 53 "/usr/include/x86_64-linux-gnu/bits/uintn-identity.h" 1
	##_ANNOTATION_INITIALREGION_-TIG-iO-fXon-1-f2--16
# 0 "" 2
# 57 "/usr/include/x86_64-linux-gnu/bits/uintn-identity.h" 1
	##_ANNOTATION_ATOMICREGION_-TIG-iO-fXon-1-f2--15
# 0 "" 2
#NO_APP
	movl	$24, %edi
	call	malloc@PLT
	movq	%rax, -24(%rbp)
	movq	-24(%rbp), %rax
	movq	-24(%rbp), %rdx
	movq	%rdx, 16(%rax)
	movq	-24(%rbp), %rax
	movq	-24(%rbp), %rdx
	movq	%rdx, 8(%rax)
	movq	-24(%rbp), %rax
	movq	%rax, _TIG_iO_fXon_1_f2_1_opaque_list_1(%rip)
	call	rand@PLT
	movl	%eax, -32(%rbp)
	movl	$24, %edi
	call	malloc@PLT
	movq	%rax, -16(%rbp)
	movq	-16(%rbp), %rax
	movl	$0, (%rax)
	movq	_TIG_iO_fXon_1_f2_1_opaque_list_1(%rip), %rax
	movq	16(%rax), %rdx
	movq	-16(%rbp), %rax
	movq	%rdx, 16(%rax)
	movq	_TIG_iO_fXon_1_f2_1_opaque_list_1(%rip), %rdx
	movq	-16(%rbp), %rax
	movq	%rdx, 8(%rax)
	movq	_TIG_iO_fXon_1_f2_1_opaque_list_1(%rip), %rax
	movq	16(%rax), %rax
	movq	-16(%rbp), %rdx
	movq	%rdx, 8(%rax)
	movq	_TIG_iO_fXon_1_f2_1_opaque_list_1(%rip), %rax
	movq	-16(%rbp), %rdx
	movq	%rdx, 16(%rax)
	call	rand@PLT
	movl	%eax, -28(%rbp)
	movl	$24, %edi
	call	malloc@PLT
	movq	%rax, -8(%rbp)
	movq	-8(%rbp), %rax
	movl	-28(%rbp), %edx
	movl	%edx, (%rax)
	movq	_TIG_iO_fXon_1_f2_1_opaque_list_1(%rip), %rax
	movq	16(%rax), %rdx
	movq	-8(%rbp), %rax
	movq	%rdx, 16(%rax)
	movq	_TIG_iO_fXon_1_f2_1_opaque_list_1(%rip), %rdx
	movq	-8(%rbp), %rax
	movq	%rdx, 8(%rax)
	movq	_TIG_iO_fXon_1_f2_1_opaque_list_1(%rip), %rax
	movq	16(%rax), %rax
	movq	-8(%rbp), %rdx
	movq	%rdx, 8(%rax)
	movq	_TIG_iO_fXon_1_f2_1_opaque_list_1(%rip), %rax
	movq	-8(%rbp), %rdx
	movq	%rdx, 16(%rax)
	movq	_TIG_iO_fXon_1_f2_1_opaque_list_1(%rip), %rax
	movq	16(%rax), %rax
	movq	%rax, _TIG_iO_fXon_1_f2_1_opaque_ptr_1(%rip)
	movq	_TIG_iO_fXon_1_f2_1_opaque_ptr_1(%rip), %rax
	movq	%rax, _TIG_iO_fXon_1_f2_1_opaque_ptr_2(%rip)
	nop
	nop
	movq	_TIG_iO_fXon_1_main_1_opaque_ptr_1(%rip), %rdx
	movq	_TIG_iO_fXon_1_main_1_opaque_ptr_2(%rip), %rax
	cmpq	%rax, %rdx
	jne	.L9
#APP
# 86 "/usr/include/x86_64-linux-gnu/bits/uintn-identity.h" 1
	.byte 0x0
# 0 "" 2
#NO_APP
	jmp	.L8
.L9:
	leaq	.LC0(%rip), %rax
	movq	%rax, %rdi
	call	puts@PLT
	nop
.L8:
	leave
	.cfi_def_cfa 7, 8
	ret
	.cfi_endproc
.LFE5:
	.size	f2, .-f2
	.section	.rodata
.LC1:
	.string	"That's all, "
	.text
	.globl	f1
	.type	f1, @function
f1:
.LFB8:
	.cfi_startproc
	endbr64
	pushq	%rbp
	.cfi_def_cfa_offset 16
	.cfi_offset 6, -16
	movq	%rsp, %rbp
	.cfi_def_cfa_register 6
	subq	$64, %rsp
#APP
# 62 "/usr/include/x86_64-linux-gnu/bits/uintn-identity.h" 1
	##_ANNOTATION_INITIALREGION_-TIG-iO-fXon-1-f1--14
# 0 "" 2
# 66 "/usr/include/x86_64-linux-gnu/bits/uintn-identity.h" 1
	##_ANNOTATION_ATOMICREGION_-TIG-iO-fXon-1-f1--13
# 0 "" 2
#NO_APP
	movl	$24, %edi
	call	malloc@PLT
	movq	%rax, -40(%rbp)
	movq	-40(%rbp), %rax
	movq	-40(%rbp), %rdx
	movq	%rdx, (%rax)
	movq	-40(%rbp), %rax
	movq	-40(%rbp), %rdx
	movq	%rdx, 8(%rax)
	movq	-40(%rbp), %rax
	movq	%rax, _TIG_iO_fXon_1_f1_1_opaque_list_1(%rip)
	call	rand@PLT
	movl	%eax, -56(%rbp)
	movl	$24, %edi
	call	malloc@PLT
	movq	%rax, -32(%rbp)
	movq	-32(%rbp), %rax
	movl	$0, 16(%rax)
	movq	_TIG_iO_fXon_1_f1_1_opaque_list_1(%rip), %rax
	movq	(%rax), %rdx
	movq	-32(%rbp), %rax
	movq	%rdx, (%rax)
	movq	_TIG_iO_fXon_1_f1_1_opaque_list_1(%rip), %rdx
	movq	-32(%rbp), %rax
	movq	%rdx, 8(%rax)
	movq	_TIG_iO_fXon_1_f1_1_opaque_list_1(%rip), %rax
	movq	(%rax), %rax
	movq	-32(%rbp), %rdx
	movq	%rdx, 8(%rax)
	movq	_TIG_iO_fXon_1_f1_1_opaque_list_1(%rip), %rax
	movq	-32(%rbp), %rdx
	movq	%rdx, (%rax)
	call	rand@PLT
	movl	%eax, -52(%rbp)
	movl	$24, %edi
	call	malloc@PLT
	movq	%rax, -24(%rbp)
	movq	-24(%rbp), %rax
	movl	-52(%rbp), %edx
	movl	%edx, 16(%rax)
	movq	_TIG_iO_fXon_1_f1_1_opaque_list_1(%rip), %rax
	movq	(%rax), %rdx
	movq	-24(%rbp), %rax
	movq	%rdx, (%rax)
	movq	_TIG_iO_fXon_1_f1_1_opaque_list_1(%rip), %rdx
	movq	-24(%rbp), %rax
	movq	%rdx, 8(%rax)
	movq	_TIG_iO_fXon_1_f1_1_opaque_list_1(%rip), %rax
	movq	(%rax), %rax
	movq	-24(%rbp), %rdx
	movq	%rdx, 8(%rax)
	movq	_TIG_iO_fXon_1_f1_1_opaque_list_1(%rip), %rax
	movq	-24(%rbp), %rdx
	movq	%rdx, (%rax)
	call	rand@PLT
	movl	%eax, -48(%rbp)
	movl	$24, %edi
	call	malloc@PLT
	movq	%rax, -16(%rbp)
	movl	-48(%rbp), %eax
	leal	(%rax,%rax), %edx
	movq	-16(%rbp), %rax
	movl	%edx, 16(%rax)
	movq	_TIG_iO_fXon_1_f1_1_opaque_list_1(%rip), %rax
	movq	(%rax), %rdx
	movq	-16(%rbp), %rax
	movq	%rdx, (%rax)
	movq	_TIG_iO_fXon_1_f1_1_opaque_list_1(%rip), %rdx
	movq	-16(%rbp), %rax
	movq	%rdx, 8(%rax)
	movq	_TIG_iO_fXon_1_f1_1_opaque_list_1(%rip), %rax
	movq	(%rax), %rax
	movq	-16(%rbp), %rdx
	movq	%rdx, 8(%rax)
	movq	_TIG_iO_fXon_1_f1_1_opaque_list_1(%rip), %rax
	movq	-16(%rbp), %rdx
	movq	%rdx, (%rax)
	call	rand@PLT
	movl	%eax, -44(%rbp)
	movl	$24, %edi
	call	malloc@PLT
	movq	%rax, -8(%rbp)
	movl	-44(%rbp), %edx
	movl	%edx, %eax
	addl	%eax, %eax
	addl	%eax, %edx
	movq	-8(%rbp), %rax
	movl	%edx, 16(%rax)
	movq	_TIG_iO_fXon_1_f1_1_opaque_list_1(%rip), %rax
	movq	(%rax), %rdx
	movq	-8(%rbp), %rax
	movq	%rdx, (%rax)
	movq	_TIG_iO_fXon_1_f1_1_opaque_list_1(%rip), %rdx
	movq	-8(%rbp), %rax
	movq	%rdx, 8(%rax)
	movq	_TIG_iO_fXon_1_f1_1_opaque_list_1(%rip), %rax
	movq	(%rax), %rax
	movq	-8(%rbp), %rdx
	movq	%rdx, 8(%rax)
	movq	_TIG_iO_fXon_1_f1_1_opaque_list_1(%rip), %rax
	movq	-8(%rbp), %rdx
	movq	%rdx, (%rax)
	movq	_TIG_iO_fXon_1_f1_1_opaque_list_1(%rip), %rax
	movq	(%rax), %rax
	movq	%rax, _TIG_iO_fXon_1_f1_1_opaque_ptr_1(%rip)
	movq	_TIG_iO_fXon_1_f1_1_opaque_ptr_1(%rip), %rax
	movq	%rax, _TIG_iO_fXon_1_f1_1_opaque_ptr_2(%rip)
	movq	_TIG_iO_fXon_1_f1_1_opaque_ptr_2(%rip), %rax
	movq	(%rax), %rax
	movq	%rax, _TIG_iO_fXon_1_f1_1_opaque_ptr_2(%rip)
	nop
	nop
	leaq	.LC1(%rip), %rax
	movq	%rax, %rdi
	movl	$0, %eax
	call	printf@PLT
	movq	_TIG_iO_fXon_1_main_1_opaque_ptr_1(%rip), %rdx
	movq	_TIG_iO_fXon_1_main_1_opaque_ptr_2(%rip), %rax
	cmpq	%rax, %rdx
	jne	.L15
	call	f2
	nop
.L15:
	nop
	leave
	.cfi_def_cfa 7, 8
	ret
	.cfi_endproc
.LFE8:
	.size	f1, .-f1
	.ident	"GCC: (Ubuntu 11.4.0-1ubuntu1~22.04) 11.4.0"
	.section	.note.GNU-stack,"",@progbits
	.section	.note.gnu.property,"a"
	.align 8
	.long	1f - 0f
	.long	4f - 1f
	.long	5
0:
	.string	"GNU"
1:
	.align 8
	.long	0xc0000002
	.long	3f - 2f
2:
	.long	0x3
3:
	.align 8
4:
