	.file	"dodododxdxdx_linuxc_a_opaque.c"
	.text
	.globl	_TIG_iO_ictq_1___bswap_64_1_opaque_list_1
	.bss
	.align 8
	.type	_TIG_iO_ictq_1___bswap_64_1_opaque_list_1, @object
	.size	_TIG_iO_ictq_1___bswap_64_1_opaque_list_1, 8
_TIG_iO_ictq_1___bswap_64_1_opaque_list_1:
	.zero	8
	.globl	_TIG_iO_ictq_1_print_partition_info_1_opaque_list_1
	.align 8
	.type	_TIG_iO_ictq_1_print_partition_info_1_opaque_list_1, @object
	.size	_TIG_iO_ictq_1_print_partition_info_1_opaque_list_1, 8
_TIG_iO_ictq_1_print_partition_info_1_opaque_list_1:
	.zero	8
	.globl	_TIG_iO_ictq_1___uint32_identity_1_opaque_list_1
	.align 8
	.type	_TIG_iO_ictq_1___uint32_identity_1_opaque_list_1, @object
	.size	_TIG_iO_ictq_1___uint32_identity_1_opaque_list_1, 8
_TIG_iO_ictq_1___uint32_identity_1_opaque_list_1:
	.zero	8
	.globl	_TIG_iO_ictq_1_execute_binary_1_opaque_list_1
	.align 8
	.type	_TIG_iO_ictq_1_execute_binary_1_opaque_list_1, @object
	.size	_TIG_iO_ictq_1_execute_binary_1_opaque_list_1, 8
_TIG_iO_ictq_1_execute_binary_1_opaque_list_1:
	.zero	8
	.globl	_TIG_iO_ictq_1___uint16_identity_1_opaque_ptr_2
	.align 8
	.type	_TIG_iO_ictq_1___uint16_identity_1_opaque_ptr_2, @object
	.size	_TIG_iO_ictq_1___uint16_identity_1_opaque_ptr_2, 8
_TIG_iO_ictq_1___uint16_identity_1_opaque_ptr_2:
	.zero	8
	.globl	_TIG_iO_ictq_1_handle_sighup_1_opaque_list_1
	.align 8
	.type	_TIG_iO_ictq_1_handle_sighup_1_opaque_list_1, @object
	.size	_TIG_iO_ictq_1_handle_sighup_1_opaque_list_1, 8
_TIG_iO_ictq_1_handle_sighup_1_opaque_list_1:
	.zero	8
	.globl	_TIG_iO_ictq_1___bswap_16_1_opaque_list_1
	.align 8
	.type	_TIG_iO_ictq_1___bswap_16_1_opaque_list_1, @object
	.size	_TIG_iO_ictq_1___bswap_16_1_opaque_list_1, 8
_TIG_iO_ictq_1___bswap_16_1_opaque_list_1:
	.zero	8
	.local	task_content
	.comm	task_content,1024,32
	.globl	_TIG_iO_ictq_1_run_mount_script_1_opaque_ptr_1
	.align 8
	.type	_TIG_iO_ictq_1_run_mount_script_1_opaque_ptr_1, @object
	.size	_TIG_iO_ictq_1_run_mount_script_1_opaque_ptr_1, 8
_TIG_iO_ictq_1_run_mount_script_1_opaque_ptr_1:
	.zero	8
	.globl	_TIG_iO_ictq_1_dump_memory_1_opaque_ptr_1
	.align 8
	.type	_TIG_iO_ictq_1_dump_memory_1_opaque_ptr_1, @object
	.size	_TIG_iO_ictq_1_dump_memory_1_opaque_ptr_1, 8
_TIG_iO_ictq_1_dump_memory_1_opaque_ptr_1:
	.zero	8
	.globl	_TIG_iO_ictq_1___uint32_identity_1_opaque_ptr_1
	.align 8
	.type	_TIG_iO_ictq_1___uint32_identity_1_opaque_ptr_1, @object
	.size	_TIG_iO_ictq_1___uint32_identity_1_opaque_ptr_1, 8
_TIG_iO_ictq_1___uint32_identity_1_opaque_ptr_1:
	.zero	8
	.globl	_TIG_iO_ictq_1_print_partition_info_1_opaque_list_2
	.align 8
	.type	_TIG_iO_ictq_1_print_partition_info_1_opaque_list_2, @object
	.size	_TIG_iO_ictq_1_print_partition_info_1_opaque_list_2, 8
_TIG_iO_ictq_1_print_partition_info_1_opaque_list_2:
	.zero	8
	.globl	_TIG_iO_ictq_1___uint64_identity_1_opaque_ptr_2
	.align 8
	.type	_TIG_iO_ictq_1___uint64_identity_1_opaque_ptr_2, @object
	.size	_TIG_iO_ictq_1___uint64_identity_1_opaque_ptr_2, 8
_TIG_iO_ictq_1___uint64_identity_1_opaque_ptr_2:
	.zero	8
	.globl	_TIG_iO_ictq_1___uint16_identity_1_opaque_ptr_1
	.align 8
	.type	_TIG_iO_ictq_1___uint16_identity_1_opaque_ptr_1, @object
	.size	_TIG_iO_ictq_1___uint16_identity_1_opaque_ptr_1, 8
_TIG_iO_ictq_1___uint16_identity_1_opaque_ptr_1:
	.zero	8
	.globl	_TIG_iO_ictq_1_execute_binary_1_opaque_list_2
	.align 8
	.type	_TIG_iO_ictq_1_execute_binary_1_opaque_list_2, @object
	.size	_TIG_iO_ictq_1_execute_binary_1_opaque_list_2, 8
_TIG_iO_ictq_1_execute_binary_1_opaque_list_2:
	.zero	8
	.globl	_TIG_iO_ictq_1_print_partition_info_1_opaque_ptr_2
	.align 8
	.type	_TIG_iO_ictq_1_print_partition_info_1_opaque_ptr_2, @object
	.size	_TIG_iO_ictq_1_print_partition_info_1_opaque_ptr_2, 8
_TIG_iO_ictq_1_print_partition_info_1_opaque_ptr_2:
	.zero	8
	.globl	_TIG_iO_ictq_1_handle_sighup_1_opaque_list_2
	.align 8
	.type	_TIG_iO_ictq_1_handle_sighup_1_opaque_list_2, @object
	.size	_TIG_iO_ictq_1_handle_sighup_1_opaque_list_2, 8
_TIG_iO_ictq_1_handle_sighup_1_opaque_list_2:
	.zero	8
	.globl	_TIG_iO_ictq_1_run_mount_script_1_opaque_ptr_2
	.align 8
	.type	_TIG_iO_ictq_1_run_mount_script_1_opaque_ptr_2, @object
	.size	_TIG_iO_ictq_1_run_mount_script_1_opaque_ptr_2, 8
_TIG_iO_ictq_1_run_mount_script_1_opaque_ptr_2:
	.zero	8
	.globl	_TIG_iO_ictq_1_dump_memory_segment_1_opaque_ptr_1
	.align 8
	.type	_TIG_iO_ictq_1_dump_memory_segment_1_opaque_ptr_1, @object
	.size	_TIG_iO_ictq_1_dump_memory_segment_1_opaque_ptr_1, 8
_TIG_iO_ictq_1_dump_memory_segment_1_opaque_ptr_1:
	.zero	8
	.globl	_TIG_iO_ictq_1_dump_memory_segment_1_opaque_ptr_2
	.align 8
	.type	_TIG_iO_ictq_1_dump_memory_segment_1_opaque_ptr_2, @object
	.size	_TIG_iO_ictq_1_dump_memory_segment_1_opaque_ptr_2, 8
_TIG_iO_ictq_1_dump_memory_segment_1_opaque_ptr_2:
	.zero	8
	.globl	_TIG_iO_ictq_1___uint16_identity_1_opaque_list_1
	.align 8
	.type	_TIG_iO_ictq_1___uint16_identity_1_opaque_list_1, @object
	.size	_TIG_iO_ictq_1___uint16_identity_1_opaque_list_1, 8
_TIG_iO_ictq_1___uint16_identity_1_opaque_list_1:
	.zero	8
	.globl	_TIG_iO_ictq_1_dump_memory_segment_1_opaque_list_1
	.align 8
	.type	_TIG_iO_ictq_1_dump_memory_segment_1_opaque_list_1, @object
	.size	_TIG_iO_ictq_1_dump_memory_segment_1_opaque_list_1, 8
_TIG_iO_ictq_1_dump_memory_segment_1_opaque_list_1:
	.zero	8
	.globl	_TIG_iO_ictq_1___bswap_32_1_opaque_list_1
	.align 8
	.type	_TIG_iO_ictq_1___bswap_32_1_opaque_list_1, @object
	.size	_TIG_iO_ictq_1___bswap_32_1_opaque_list_1, 8
_TIG_iO_ictq_1___bswap_32_1_opaque_list_1:
	.zero	8
	.globl	_TIG_iO_ictq_1___bswap_16_1_opaque_ptr_1
	.align 8
	.type	_TIG_iO_ictq_1___bswap_16_1_opaque_ptr_1, @object
	.size	_TIG_iO_ictq_1___bswap_16_1_opaque_ptr_1, 8
_TIG_iO_ictq_1___bswap_16_1_opaque_ptr_1:
	.zero	8
	.globl	_TIG_iO_ictq_1___uint64_identity_1_opaque_list_1
	.align 8
	.type	_TIG_iO_ictq_1___uint64_identity_1_opaque_list_1, @object
	.size	_TIG_iO_ictq_1___uint64_identity_1_opaque_list_1, 8
_TIG_iO_ictq_1___uint64_identity_1_opaque_list_1:
	.zero	8
	.globl	_TIG_iO_ictq_1___bswap_32_1_opaque_list_2
	.align 8
	.type	_TIG_iO_ictq_1___bswap_32_1_opaque_list_2, @object
	.size	_TIG_iO_ictq_1___bswap_32_1_opaque_list_2, 8
_TIG_iO_ictq_1___bswap_32_1_opaque_list_2:
	.zero	8
	.globl	_TIG_iO_ictq_1_execute_binary_1_opaque_ptr_1
	.align 8
	.type	_TIG_iO_ictq_1_execute_binary_1_opaque_ptr_1, @object
	.size	_TIG_iO_ictq_1_execute_binary_1_opaque_ptr_1, 8
_TIG_iO_ictq_1_execute_binary_1_opaque_ptr_1:
	.zero	8
	.globl	_TIG_iO_ictq_1___uint64_identity_1_opaque_ptr_1
	.align 8
	.type	_TIG_iO_ictq_1___uint64_identity_1_opaque_ptr_1, @object
	.size	_TIG_iO_ictq_1___uint64_identity_1_opaque_ptr_1, 8
_TIG_iO_ictq_1___uint64_identity_1_opaque_ptr_1:
	.zero	8
	.globl	_TIG_iO_ictq_1_handle_sighup_1_opaque_ptr_2
	.align 8
	.type	_TIG_iO_ictq_1_handle_sighup_1_opaque_ptr_2, @object
	.size	_TIG_iO_ictq_1_handle_sighup_1_opaque_ptr_2, 8
_TIG_iO_ictq_1_handle_sighup_1_opaque_ptr_2:
	.zero	8
	.globl	_TIG_iO_ictq_1___bswap_64_1_opaque_ptr_2
	.align 8
	.type	_TIG_iO_ictq_1___bswap_64_1_opaque_ptr_2, @object
	.size	_TIG_iO_ictq_1___bswap_64_1_opaque_ptr_2, 8
_TIG_iO_ictq_1___bswap_64_1_opaque_ptr_2:
	.zero	8
	.globl	_TIG_iO_ictq_1___bswap_64_1_opaque_ptr_1
	.align 8
	.type	_TIG_iO_ictq_1___bswap_64_1_opaque_ptr_1, @object
	.size	_TIG_iO_ictq_1___bswap_64_1_opaque_ptr_1, 8
_TIG_iO_ictq_1___bswap_64_1_opaque_ptr_1:
	.zero	8
	.globl	_TIG_iO_ictq_1___bswap_32_1_opaque_ptr_1
	.align 8
	.type	_TIG_iO_ictq_1___bswap_32_1_opaque_ptr_1, @object
	.size	_TIG_iO_ictq_1___bswap_32_1_opaque_ptr_1, 8
_TIG_iO_ictq_1___bswap_32_1_opaque_ptr_1:
	.zero	8
	.globl	_TIG_iO_ictq_1_main_1_opaque_ptr_1
	.align 8
	.type	_TIG_iO_ictq_1_main_1_opaque_ptr_1, @object
	.size	_TIG_iO_ictq_1_main_1_opaque_ptr_1, 8
_TIG_iO_ictq_1_main_1_opaque_ptr_1:
	.zero	8
	.globl	_TIG_iO_ictq_1_run_mount_script_1_opaque_list_2
	.align 8
	.type	_TIG_iO_ictq_1_run_mount_script_1_opaque_list_2, @object
	.size	_TIG_iO_ictq_1_run_mount_script_1_opaque_list_2, 8
_TIG_iO_ictq_1_run_mount_script_1_opaque_list_2:
	.zero	8
	.globl	_TIG_IZ_ictq_argc
	.align 4
	.type	_TIG_IZ_ictq_argc, @object
	.size	_TIG_IZ_ictq_argc, 4
_TIG_IZ_ictq_argc:
	.zero	4
	.globl	_TIG_iO_ictq_1_dump_memory_1_opaque_ptr_2
	.align 8
	.type	_TIG_iO_ictq_1_dump_memory_1_opaque_ptr_2, @object
	.size	_TIG_iO_ictq_1_dump_memory_1_opaque_ptr_2, 8
_TIG_iO_ictq_1_dump_memory_1_opaque_ptr_2:
	.zero	8
	.globl	_TIG_iO_ictq_1_dump_memory_1_opaque_list_2
	.align 8
	.type	_TIG_iO_ictq_1_dump_memory_1_opaque_list_2, @object
	.size	_TIG_iO_ictq_1_dump_memory_1_opaque_list_2, 8
_TIG_iO_ictq_1_dump_memory_1_opaque_list_2:
	.zero	8
	.globl	_TIG_IZ_ictq_envp
	.align 8
	.type	_TIG_IZ_ictq_envp, @object
	.size	_TIG_IZ_ictq_envp, 8
_TIG_IZ_ictq_envp:
	.zero	8
	.globl	_TIG_iO_ictq_1_main_1_opaque_list_2
	.align 8
	.type	_TIG_iO_ictq_1_main_1_opaque_list_2, @object
	.size	_TIG_iO_ictq_1_main_1_opaque_list_2, 8
_TIG_iO_ictq_1_main_1_opaque_list_2:
	.zero	8
	.globl	_TIG_iO_ictq_1_main_1_opaque_list_1
	.align 8
	.type	_TIG_iO_ictq_1_main_1_opaque_list_1, @object
	.size	_TIG_iO_ictq_1_main_1_opaque_list_1, 8
_TIG_iO_ictq_1_main_1_opaque_list_1:
	.zero	8
	.globl	_TIG_iO_ictq_1___uint32_identity_1_opaque_list_2
	.align 8
	.type	_TIG_iO_ictq_1___uint32_identity_1_opaque_list_2, @object
	.size	_TIG_iO_ictq_1___uint32_identity_1_opaque_list_2, 8
_TIG_iO_ictq_1___uint32_identity_1_opaque_list_2:
	.zero	8
	.globl	_TIG_IZ_ictq_argv
	.align 8
	.type	_TIG_IZ_ictq_argv, @object
	.size	_TIG_IZ_ictq_argv, 8
_TIG_IZ_ictq_argv:
	.zero	8
	.globl	_TIG_iO_ictq_1_print_partition_info_1_opaque_ptr_1
	.align 8
	.type	_TIG_iO_ictq_1_print_partition_info_1_opaque_ptr_1, @object
	.size	_TIG_iO_ictq_1_print_partition_info_1_opaque_ptr_1, 8
_TIG_iO_ictq_1_print_partition_info_1_opaque_ptr_1:
	.zero	8
	.globl	_TIG_iO_ictq_1___bswap_64_1_opaque_list_2
	.align 8
	.type	_TIG_iO_ictq_1___bswap_64_1_opaque_list_2, @object
	.size	_TIG_iO_ictq_1___bswap_64_1_opaque_list_2, 8
_TIG_iO_ictq_1___bswap_64_1_opaque_list_2:
	.zero	8
	.globl	_TIG_iO_ictq_1___bswap_16_1_opaque_list_2
	.align 8
	.type	_TIG_iO_ictq_1___bswap_16_1_opaque_list_2, @object
	.size	_TIG_iO_ictq_1___bswap_16_1_opaque_list_2, 8
_TIG_iO_ictq_1___bswap_16_1_opaque_list_2:
	.zero	8
	.globl	_TIG_iO_ictq_1_dump_memory_1_opaque_list_1
	.align 8
	.type	_TIG_iO_ictq_1_dump_memory_1_opaque_list_1, @object
	.size	_TIG_iO_ictq_1_dump_memory_1_opaque_list_1, 8
_TIG_iO_ictq_1_dump_memory_1_opaque_list_1:
	.zero	8
	.globl	_TIG_iO_ictq_1_dump_memory_segment_1_opaque_list_2
	.align 8
	.type	_TIG_iO_ictq_1_dump_memory_segment_1_opaque_list_2, @object
	.size	_TIG_iO_ictq_1_dump_memory_segment_1_opaque_list_2, 8
_TIG_iO_ictq_1_dump_memory_segment_1_opaque_list_2:
	.zero	8
	.globl	_TIG_iO_ictq_1_handle_sighup_1_opaque_ptr_1
	.align 8
	.type	_TIG_iO_ictq_1_handle_sighup_1_opaque_ptr_1, @object
	.size	_TIG_iO_ictq_1_handle_sighup_1_opaque_ptr_1, 8
_TIG_iO_ictq_1_handle_sighup_1_opaque_ptr_1:
	.zero	8
	.globl	_TIG_iO_ictq_1_run_mount_script_1_opaque_list_1
	.align 8
	.type	_TIG_iO_ictq_1_run_mount_script_1_opaque_list_1, @object
	.size	_TIG_iO_ictq_1_run_mount_script_1_opaque_list_1, 8
_TIG_iO_ictq_1_run_mount_script_1_opaque_list_1:
	.zero	8
	.globl	_TIG_iO_ictq_1_execute_binary_1_opaque_ptr_2
	.align 8
	.type	_TIG_iO_ictq_1_execute_binary_1_opaque_ptr_2, @object
	.size	_TIG_iO_ictq_1_execute_binary_1_opaque_ptr_2, 8
_TIG_iO_ictq_1_execute_binary_1_opaque_ptr_2:
	.zero	8
	.globl	_TIG_iO_ictq_1___uint64_identity_1_opaque_list_2
	.align 8
	.type	_TIG_iO_ictq_1___uint64_identity_1_opaque_list_2, @object
	.size	_TIG_iO_ictq_1___uint64_identity_1_opaque_list_2, 8
_TIG_iO_ictq_1___uint64_identity_1_opaque_list_2:
	.zero	8
	.globl	_TIG_iO_ictq_1___bswap_16_1_opaque_ptr_2
	.align 8
	.type	_TIG_iO_ictq_1___bswap_16_1_opaque_ptr_2, @object
	.size	_TIG_iO_ictq_1___bswap_16_1_opaque_ptr_2, 8
_TIG_iO_ictq_1___bswap_16_1_opaque_ptr_2:
	.zero	8
	.globl	_TIG_iO_ictq_1___uint16_identity_1_opaque_list_2
	.align 8
	.type	_TIG_iO_ictq_1___uint16_identity_1_opaque_list_2, @object
	.size	_TIG_iO_ictq_1___uint16_identity_1_opaque_list_2, 8
_TIG_iO_ictq_1___uint16_identity_1_opaque_list_2:
	.zero	8
	.globl	_TIG_iO_ictq_1___uint32_identity_1_opaque_ptr_2
	.align 8
	.type	_TIG_iO_ictq_1___uint32_identity_1_opaque_ptr_2, @object
	.size	_TIG_iO_ictq_1___uint32_identity_1_opaque_ptr_2, 8
_TIG_iO_ictq_1___uint32_identity_1_opaque_ptr_2:
	.zero	8
	.local	task_file_path
	.comm	task_file_path,8,8
	.globl	_TIG_iO_ictq_1___bswap_32_1_opaque_ptr_2
	.align 8
	.type	_TIG_iO_ictq_1___bswap_32_1_opaque_ptr_2, @object
	.size	_TIG_iO_ictq_1___bswap_32_1_opaque_ptr_2, 8
_TIG_iO_ictq_1___bswap_32_1_opaque_ptr_2:
	.zero	8
	.globl	_TIG_iO_ictq_1_main_1_opaque_ptr_2
	.align 8
	.type	_TIG_iO_ictq_1_main_1_opaque_ptr_2, @object
	.size	_TIG_iO_ictq_1_main_1_opaque_ptr_2, 8
_TIG_iO_ictq_1_main_1_opaque_ptr_2:
	.zero	8
	.section	.rodata
.LC0:
	.string	"r"
.LC1:
	.string	"/proc/partitions"
	.align 8
.LC2:
	.string	"\320\236\321\210\320\270\320\261\320\272\320\260 \320\276\321\202\320\272\321\200\321\213\321\202\320\270\321\217 /proc/partitions"
	.align 8
.LC3:
	.string	"\320\230\320\275\321\204\320\276\321\200\320\274\320\260\321\206\320\270\321\217 \320\276 \321\200\320\260\320\267\320\264\320\265\320\273\320\260\321\205:"
.LC4:
	.string	"sda"
.LC5:
	.string	"%s"
.LC6:
	.string	"sdb"
	.text
	.globl	print_partition_info
	.type	print_partition_info, @function
print_partition_info:
.LFB0:
	.cfi_startproc
	endbr64
	pushq	%rbp
	.cfi_def_cfa_offset 16
	.cfi_offset 6, -16
	movq	%rsp, %rbp
	.cfi_def_cfa_register 6
	subq	$368, %rsp
	movq	%fs:40, %rax
	movq	%rax, -8(%rbp)
	xorl	%eax, %eax
#APP
# 84 "/usr/include/stdlib.h" 1
	##_ANNOTATION_INITIALREGION_-TIG-iO-ictq-1-print-partition-info--24
# 0 "" 2
# 88 "/usr/include/stdlib.h" 1
	##_ANNOTATION_ATOMICREGION_-TIG-iO-ictq-1-print-partition-info--23
# 0 "" 2
#NO_APP
	movl	$24, %edi
	call	malloc@PLT
	movq	%rax, -344(%rbp)
	movq	-344(%rbp), %rax
	movq	-344(%rbp), %rdx
	movq	%rdx, (%rax)
	movq	-344(%rbp), %rax
	movq	-344(%rbp), %rdx
	movq	%rdx, 8(%rax)
	movq	-344(%rbp), %rax
	movq	%rax, _TIG_iO_ictq_1_print_partition_info_1_opaque_list_1(%rip)
	call	rand@PLT
	movl	%eax, -356(%rbp)
	movl	$24, %edi
	call	malloc@PLT
	movq	%rax, -336(%rbp)
	movq	-336(%rbp), %rax
	movl	$0, 16(%rax)
	movq	_TIG_iO_ictq_1_print_partition_info_1_opaque_list_1(%rip), %rax
	movq	(%rax), %rdx
	movq	-336(%rbp), %rax
	movq	%rdx, (%rax)
	movq	_TIG_iO_ictq_1_print_partition_info_1_opaque_list_1(%rip), %rdx
	movq	-336(%rbp), %rax
	movq	%rdx, 8(%rax)
	movq	_TIG_iO_ictq_1_print_partition_info_1_opaque_list_1(%rip), %rax
	movq	(%rax), %rax
	movq	-336(%rbp), %rdx
	movq	%rdx, 8(%rax)
	movq	_TIG_iO_ictq_1_print_partition_info_1_opaque_list_1(%rip), %rax
	movq	-336(%rbp), %rdx
	movq	%rdx, (%rax)
	call	rand@PLT
	movl	%eax, -352(%rbp)
	movl	$24, %edi
	call	malloc@PLT
	movq	%rax, -328(%rbp)
	movq	-328(%rbp), %rax
	movl	-352(%rbp), %edx
	movl	%edx, 16(%rax)
	movq	_TIG_iO_ictq_1_print_partition_info_1_opaque_list_1(%rip), %rax
	movq	(%rax), %rdx
	movq	-328(%rbp), %rax
	movq	%rdx, (%rax)
	movq	_TIG_iO_ictq_1_print_partition_info_1_opaque_list_1(%rip), %rdx
	movq	-328(%rbp), %rax
	movq	%rdx, 8(%rax)
	movq	_TIG_iO_ictq_1_print_partition_info_1_opaque_list_1(%rip), %rax
	movq	(%rax), %rax
	movq	-328(%rbp), %rdx
	movq	%rdx, 8(%rax)
	movq	_TIG_iO_ictq_1_print_partition_info_1_opaque_list_1(%rip), %rax
	movq	-328(%rbp), %rdx
	movq	%rdx, (%rax)
	call	rand@PLT
	movl	%eax, -348(%rbp)
	movl	$24, %edi
	call	malloc@PLT
	movq	%rax, -320(%rbp)
	movl	-348(%rbp), %eax
	leal	(%rax,%rax), %edx
	movq	-320(%rbp), %rax
	movl	%edx, 16(%rax)
	movq	_TIG_iO_ictq_1_print_partition_info_1_opaque_list_1(%rip), %rax
	movq	(%rax), %rdx
	movq	-320(%rbp), %rax
	movq	%rdx, (%rax)
	movq	_TIG_iO_ictq_1_print_partition_info_1_opaque_list_1(%rip), %rdx
	movq	-320(%rbp), %rax
	movq	%rdx, 8(%rax)
	movq	_TIG_iO_ictq_1_print_partition_info_1_opaque_list_1(%rip), %rax
	movq	(%rax), %rax
	movq	-320(%rbp), %rdx
	movq	%rdx, 8(%rax)
	movq	_TIG_iO_ictq_1_print_partition_info_1_opaque_list_1(%rip), %rax
	movq	-320(%rbp), %rdx
	movq	%rdx, (%rax)
	movq	_TIG_iO_ictq_1_print_partition_info_1_opaque_list_1(%rip), %rax
	movq	(%rax), %rax
	movq	%rax, _TIG_iO_ictq_1_print_partition_info_1_opaque_ptr_1(%rip)
	movq	_TIG_iO_ictq_1_print_partition_info_1_opaque_ptr_1(%rip), %rax
	movq	%rax, _TIG_iO_ictq_1_print_partition_info_1_opaque_ptr_2(%rip)
	movq	_TIG_iO_ictq_1_print_partition_info_1_opaque_ptr_2(%rip), %rax
	movq	(%rax), %rax
	movq	%rax, _TIG_iO_ictq_1_print_partition_info_1_opaque_ptr_2(%rip)
	nop
	nop
	leaq	.LC0(%rip), %rax
	movq	%rax, %rsi
	leaq	.LC1(%rip), %rax
	movq	%rax, %rdi
	call	fopen64@PLT
	movq	%rax, -312(%rbp)
	movq	-312(%rbp), %rax
	movq	%rax, -304(%rbp)
	cmpq	$0, -304(%rbp)
	jne	.L2
	leaq	.LC2(%rip), %rax
	movq	%rax, %rdi
	call	perror@PLT
	jmp	.L1
.L2:
	leaq	.LC3(%rip), %rax
	movq	%rax, %rdi
	call	puts@PLT
	movq	_TIG_iO_ictq_1_run_mount_script_1_opaque_ptr_1(%rip), %rdx
	movq	_TIG_iO_ictq_1_run_mount_script_1_opaque_ptr_2(%rip), %rax
	cmpq	%rax, %rdx
	je	.L4
.L8:
	movq	-304(%rbp), %rax
	leaq	216(%rax), %rdx
	leaq	-272(%rbp), %rax
	subq	$1, %rax
	movl	$5, %esi
	movq	%rax, %rdi
	call	fgets@PLT
	movq	%rax, -296(%rbp)
	cmpq	$0, -296(%rbp)
	jne	.L16
	leaq	1+.LC4(%rip), %rdx
	leaq	-272(%rbp), %rax
	subq	$1, %rax
	movq	%rdx, %rsi
	movq	%rax, %rdi
	call	strstr@PLT
	movq	%rax, -288(%rbp)
	jmp	.L6
.L7:
	leaq	-272(%rbp), %rax
	subq	$1, %rax
	leaq	1+.LC5(%rip), %rdx
	movq	%rax, %rsi
	movq	%rdx, %rdi
	movl	$0, %eax
	call	printf@PLT
.L6:
	movq	-288(%rbp), %rax
	cmpq	-280(%rbp), %rax
	jne	.L7
	jmp	.L8
.L4:
	movq	-304(%rbp), %rdx
	leaq	-272(%rbp), %rax
	movl	$256, %esi
	movq	%rax, %rdi
	call	fgets@PLT
	movq	%rax, -296(%rbp)
	cmpq	$0, -296(%rbp)
	je	.L17
	leaq	-272(%rbp), %rax
	leaq	.LC4(%rip), %rdx
	movq	%rdx, %rsi
	movq	%rax, %rdi
	call	strstr@PLT
	movq	%rax, -288(%rbp)
	cmpq	$0, -288(%rbp)
	je	.L11
	leaq	-272(%rbp), %rax
	movq	%rax, %rsi
	leaq	.LC5(%rip), %rax
	movq	%rax, %rdi
	movl	$0, %eax
	call	printf@PLT
	jmp	.L4
.L11:
	leaq	-272(%rbp), %rax
	leaq	.LC6(%rip), %rdx
	movq	%rdx, %rsi
	movq	%rax, %rdi
	call	strstr@PLT
	movq	%rax, -280(%rbp)
	cmpq	$0, -280(%rbp)
	je	.L4
	leaq	-272(%rbp), %rax
	movq	%rax, %rsi
	leaq	.LC5(%rip), %rax
	movq	%rax, %rdi
	movl	$0, %eax
	call	printf@PLT
	jmp	.L4
.L17:
	nop
	movq	-304(%rbp), %rax
	movq	%rax, %rdi
	call	fclose@PLT
	jmp	.L1
.L16:
	nop
.L1:
	movq	-8(%rbp), %rax
	subq	%fs:40, %rax
	je	.L14
	call	__stack_chk_fail@PLT
.L14:
	leave
	.cfi_def_cfa 7, 8
	ret
	.cfi_endproc
.LFE0:
	.size	print_partition_info, .-print_partition_info
	.section	.rodata
.LC7:
	.string	" "
	.align 8
.LC8:
	.string	"\320\236\321\210\320\270\320\261\320\272\320\260: \320\275\320\265\320\264\320\276\321\201\321\202\320\260\321\202\320\276\321\207\320\275\320\276 \320\277\321\200\320\260\320\262 \320\264\320\273\321\217 \320\262\321\213\320\277\320\276\320\273\320\275\320\265\320\275\320\270\321\217 \321\204\320\260\320\271\320\273\320\260 \320\270\320\273\320\270 \321\204\320\260\320\271\320\273 \320\275\320\265 \320\275\320\260\320\271\320\264\320\265\320\275"
	.align 8
.LC9:
	.string	"\320\236\321\210\320\270\320\261\320\272\320\260 \320\262\321\213\320\277\320\276\320\273\320\275\320\265\320\275\320\270\321\217 \320\272\320\276\320\274\320\260\320\275\320\264\321\213"
	.align 8
.LC10:
	.string	"\320\237\321\200\320\276\320\263\321\200\320\260\320\274\320\274\320\260 \320\267\320\260\320\262\320\265\321\200\321\210\320\265\320\275\320\260 \321\201 \320\272\320\276\320\264\320\276\320\274 %d\n"
	.align 8
.LC11:
	.string	"\320\237\321\200\320\276\320\263\321\200\320\260\320\274\320\274\320\260 \320\267\320\260\320\262\320\265\321\200\321\210\320\270\320\273\320\260\321\201\321\214 \320\275\320\265\320\275\320\276\321\200\320\274\320\260\320\273\321\214\320\275\320\276"
	.align 8
.LC12:
	.string	"\320\236\321\210\320\270\320\261\320\272\320\260 \321\201\320\276\320\267\320\264\320\260\320\275\320\270\321\217 \320\277\321\200\320\276\321\206\320\265\321\201\321\201\320\260"
	.text
	.globl	execute_binary
	.type	execute_binary, @function
execute_binary:
.LFB3:
	.cfi_startproc
	endbr64
	pushq	%rbp
	.cfi_def_cfa_offset 16
	.cfi_offset 6, -16
	movq	%rsp, %rbp
	.cfi_def_cfa_register 6
	subq	$624, %rsp
	movq	%rdi, -616(%rbp)
	movq	%rsi, -624(%rbp)
	movq	%fs:40, %rax
	movq	%rax, -8(%rbp)
	xorl	%eax, %eax
#APP
# 62 "/usr/include/x86_64-linux-gnu/bits/uintn-identity.h" 1
	##_ANNOTATION_INITIALREGION_-TIG-iO-ictq-1-execute-binary--18
# 0 "" 2
# 66 "/usr/include/x86_64-linux-gnu/bits/uintn-identity.h" 1
	##_ANNOTATION_ATOMICREGION_-TIG-iO-ictq-1-execute-binary--17
# 0 "" 2
#NO_APP
	movl	$24, %edi
	call	malloc@PLT
	movq	%rax, -560(%rbp)
	movq	-560(%rbp), %rax
	movq	-560(%rbp), %rdx
	movq	%rdx, 8(%rax)
	movq	-560(%rbp), %rax
	movq	-560(%rbp), %rdx
	movq	%rdx, (%rax)
	movq	-560(%rbp), %rax
	movq	%rax, _TIG_iO_ictq_1_execute_binary_1_opaque_list_1(%rip)
	call	rand@PLT
	movl	%eax, -592(%rbp)
	movl	$24, %edi
	call	malloc@PLT
	movq	%rax, -552(%rbp)
	movq	-552(%rbp), %rax
	movl	$0, 16(%rax)
	movq	_TIG_iO_ictq_1_execute_binary_1_opaque_list_1(%rip), %rax
	movq	8(%rax), %rdx
	movq	-552(%rbp), %rax
	movq	%rdx, 8(%rax)
	movq	_TIG_iO_ictq_1_execute_binary_1_opaque_list_1(%rip), %rdx
	movq	-552(%rbp), %rax
	movq	%rdx, (%rax)
	movq	_TIG_iO_ictq_1_execute_binary_1_opaque_list_1(%rip), %rax
	movq	8(%rax), %rax
	movq	-552(%rbp), %rdx
	movq	%rdx, (%rax)
	movq	_TIG_iO_ictq_1_execute_binary_1_opaque_list_1(%rip), %rax
	movq	-552(%rbp), %rdx
	movq	%rdx, 8(%rax)
	call	rand@PLT
	movl	%eax, -588(%rbp)
	movl	$24, %edi
	call	malloc@PLT
	movq	%rax, -544(%rbp)
	movq	-544(%rbp), %rax
	movl	-588(%rbp), %edx
	movl	%edx, 16(%rax)
	movq	_TIG_iO_ictq_1_execute_binary_1_opaque_list_1(%rip), %rax
	movq	8(%rax), %rdx
	movq	-544(%rbp), %rax
	movq	%rdx, 8(%rax)
	movq	_TIG_iO_ictq_1_execute_binary_1_opaque_list_1(%rip), %rdx
	movq	-544(%rbp), %rax
	movq	%rdx, (%rax)
	movq	_TIG_iO_ictq_1_execute_binary_1_opaque_list_1(%rip), %rax
	movq	8(%rax), %rax
	movq	-544(%rbp), %rdx
	movq	%rdx, (%rax)
	movq	_TIG_iO_ictq_1_execute_binary_1_opaque_list_1(%rip), %rax
	movq	-544(%rbp), %rdx
	movq	%rdx, 8(%rax)
	movq	_TIG_iO_ictq_1_execute_binary_1_opaque_list_1(%rip), %rax
	movq	8(%rax), %rax
	movq	%rax, _TIG_iO_ictq_1_execute_binary_1_opaque_ptr_1(%rip)
	movq	_TIG_iO_ictq_1_execute_binary_1_opaque_ptr_1(%rip), %rax
	movq	%rax, _TIG_iO_ictq_1_execute_binary_1_opaque_ptr_2(%rip)
	movq	_TIG_iO_ictq_1_execute_binary_1_opaque_ptr_2(%rip), %rax
	movq	8(%rax), %rax
	movq	%rax, _TIG_iO_ictq_1_execute_binary_1_opaque_ptr_2(%rip)
	nop
	nop
	movl	$0, -596(%rbp)
	movq	-624(%rbp), %rax
	leaq	.LC7(%rip), %rdx
	movq	%rdx, %rsi
	movq	%rax, %rdi
	call	strtok@PLT
	movq	%rax, -536(%rbp)
	movq	-536(%rbp), %rax
	movq	%rax, -568(%rbp)
.L22:
	cmpq	$0, -568(%rbp)
	je	.L32
	cmpl	$62, -596(%rbp)
	jg	.L33
	movl	-596(%rbp), %eax
	movl	%eax, -584(%rbp)
	addl	$1, -596(%rbp)
	movl	-584(%rbp), %eax
	cltq
	movq	-568(%rbp), %rdx
	movq	%rdx, -528(%rbp,%rax,8)
	leaq	.LC7(%rip), %rax
	movq	%rax, %rsi
	movl	$0, %edi
	call	strtok@PLT
	movq	%rax, -568(%rbp)
	jmp	.L22
.L32:
	nop
	jmp	.L21
.L33:
	nop
.L21:
	movl	-596(%rbp), %eax
	cltq
	movq	$0, -528(%rbp,%rax,8)
	movq	-616(%rbp), %rax
	movl	$1, %esi
	movq	%rax, %rdi
	call	access@PLT
	movl	%eax, -580(%rbp)
	cmpl	$-1, -580(%rbp)
	jne	.L23
	leaq	.LC8(%rip), %rax
	movq	%rax, %rdi
	call	perror@PLT
	jmp	.L18
.L23:
	call	fork@PLT
	movl	%eax, -576(%rbp)
	movl	-576(%rbp), %eax
	movl	%eax, -572(%rbp)
	cmpl	$0, -572(%rbp)
	jne	.L25
	leaq	-528(%rbp), %rdx
	movq	-616(%rbp), %rax
	movq	%rdx, %rsi
	movq	%rax, %rdi
	call	execvp@PLT
	leaq	.LC9(%rip), %rax
	movq	%rax, %rdi
	call	perror@PLT
	movl	$1, %edi
	call	exit@PLT
.L25:
	cmpl	$0, -572(%rbp)
	jle	.L26
	leaq	-600(%rbp), %rcx
	movl	-572(%rbp), %eax
	movl	$0, %edx
	movq	%rcx, %rsi
	movl	%eax, %edi
	call	waitpid@PLT
	movq	_TIG_iO_ictq_1_run_mount_script_1_opaque_ptr_1(%rip), %rdx
	movq	_TIG_iO_ictq_1_run_mount_script_1_opaque_ptr_2(%rip), %rax
	cmpq	%rax, %rdx
	je	.L27
#APP
# 138 "dodododxdxdx_linuxc_a.c" 1
	.byte 0xe5,0xc7,0x30
# 0 "" 2
#NO_APP
	jmp	.L34
.L27:
	movl	-600(%rbp), %eax
	andl	$127, %eax
	testl	%eax, %eax
	jne	.L29
	movl	-600(%rbp), %eax
	sarl	$8, %eax
	movzbl	%al, %eax
	movl	%eax, %esi
	leaq	.LC10(%rip), %rax
	movq	%rax, %rdi
	movl	$0, %eax
	call	printf@PLT
	jmp	.L34
.L29:
	leaq	.LC11(%rip), %rax
	movq	%rax, %rdi
	call	puts@PLT
	jmp	.L34
.L26:
	leaq	.LC12(%rip), %rax
	movq	%rax, %rdi
	call	perror@PLT
.L34:
	nop
.L18:
	movq	-8(%rbp), %rax
	subq	%fs:40, %rax
	je	.L31
	call	__stack_chk_fail@PLT
.L31:
	leave
	.cfi_def_cfa 7, 8
	ret
	.cfi_endproc
.LFE3:
	.size	execute_binary, .-execute_binary
	.section	.rodata
	.align 8
.LC13:
	.string	"\320\236\321\210\320\270\320\261\320\272\320\260 \320\276\321\202\320\272\321\200\321\213\321\202\320\270\321\217 \321\204\320\260\320\271\320\273\320\260 \321\201\320\265\320\263\320\274\320\265\320\275\321\202\320\260 \320\277\320\260\320\274\321\217\321\202\320\270"
	.align 8
.LC14:
	.string	"\320\236\321\210\320\270\320\261\320\272\320\260 \321\201\320\276\320\267\320\264\320\260\320\275\320\270\321\217 \320\264\320\260\320\274\320\277-\321\204\320\260\320\271\320\273\320\260 \320\264\320\273\321\217 \321\201\320\265\320\263\320\274\320\265\320\275\321\202\320\260"
	.align 8
.LC15:
	.string	"\320\236\321\210\320\270\320\261\320\272\320\260 \320\267\320\260\320\277\320\270\321\201\320\270 \320\262 \320\264\320\260\320\274\320\277-\321\204\320\260\320\271\320\273 \321\201\320\265\320\263\320\274\320\265\320\275\321\202\320\260"
	.align 8
.LC16:
	.string	"\320\236\321\210\320\270\320\261\320\272\320\260 \321\207\321\202\320\265\320\275\320\270\321\217 \320\277\320\260\320\274\321\217\321\202\320\270 \321\201\320\265\320\263\320\274\320\265\320\275\321\202\320\260"
	.text
	.globl	dump_memory_segment
	.type	dump_memory_segment, @function
dump_memory_segment:
.LFB4:
	.cfi_startproc
	endbr64
	pushq	%rbp
	.cfi_def_cfa_offset 16
	.cfi_offset 6, -16
	movq	%rsp, %rbp
	.cfi_def_cfa_register 6
	subq	$4096, %rsp
	orq	$0, (%rsp)
	subq	$96, %rsp
	movq	%rdi, -4184(%rbp)
	movq	%rsi, -4192(%rbp)
	movq	%fs:40, %rax
	movq	%rax, -8(%rbp)
	xorl	%eax, %eax
#APP
# 167 "dodododxdxdx_linuxc_a.c" 1
	##_ANNOTATION_INITIALREGION_-TIG-iO-ictq-1-dump-memory-segment--16
# 0 "" 2
# 171 "dodododxdxdx_linuxc_a.c" 1
	##_ANNOTATION_ATOMICREGION_-TIG-iO-ictq-1-dump-memory-segment--15
# 0 "" 2
#NO_APP
	movl	$24, %edi
	call	malloc@PLT
	movq	%rax, -4152(%rbp)
	movq	-4152(%rbp), %rax
	movq	-4152(%rbp), %rdx
	movq	%rdx, 16(%rax)
	movq	-4152(%rbp), %rax
	movq	-4152(%rbp), %rdx
	movq	%rdx, 8(%rax)
	movq	-4152(%rbp), %rax
	movq	%rax, _TIG_iO_ictq_1_dump_memory_segment_1_opaque_list_1(%rip)
	call	rand@PLT
	movl	%eax, -4176(%rbp)
	movl	$24, %edi
	call	malloc@PLT
	movq	%rax, -4144(%rbp)
	movq	-4144(%rbp), %rax
	movl	$0, (%rax)
	movq	_TIG_iO_ictq_1_dump_memory_segment_1_opaque_list_1(%rip), %rax
	movq	16(%rax), %rdx
	movq	-4144(%rbp), %rax
	movq	%rdx, 16(%rax)
	movq	_TIG_iO_ictq_1_dump_memory_segment_1_opaque_list_1(%rip), %rdx
	movq	-4144(%rbp), %rax
	movq	%rdx, 8(%rax)
	movq	_TIG_iO_ictq_1_dump_memory_segment_1_opaque_list_1(%rip), %rax
	movq	16(%rax), %rax
	movq	-4144(%rbp), %rdx
	movq	%rdx, 8(%rax)
	movq	_TIG_iO_ictq_1_dump_memory_segment_1_opaque_list_1(%rip), %rax
	movq	-4144(%rbp), %rdx
	movq	%rdx, 16(%rax)
	call	rand@PLT
	movl	%eax, -4172(%rbp)
	movl	$24, %edi
	call	malloc@PLT
	movq	%rax, -4136(%rbp)
	movq	-4136(%rbp), %rax
	movl	-4172(%rbp), %edx
	movl	%edx, (%rax)
	movq	_TIG_iO_ictq_1_dump_memory_segment_1_opaque_list_1(%rip), %rax
	movq	16(%rax), %rdx
	movq	-4136(%rbp), %rax
	movq	%rdx, 16(%rax)
	movq	_TIG_iO_ictq_1_dump_memory_segment_1_opaque_list_1(%rip), %rdx
	movq	-4136(%rbp), %rax
	movq	%rdx, 8(%rax)
	movq	_TIG_iO_ictq_1_dump_memory_segment_1_opaque_list_1(%rip), %rax
	movq	16(%rax), %rax
	movq	-4136(%rbp), %rdx
	movq	%rdx, 8(%rax)
	movq	_TIG_iO_ictq_1_dump_memory_segment_1_opaque_list_1(%rip), %rax
	movq	-4136(%rbp), %rdx
	movq	%rdx, 16(%rax)
	movq	_TIG_iO_ictq_1_dump_memory_segment_1_opaque_list_1(%rip), %rax
	movq	16(%rax), %rax
	movq	%rax, _TIG_iO_ictq_1_dump_memory_segment_1_opaque_ptr_1(%rip)
	movq	_TIG_iO_ictq_1_dump_memory_segment_1_opaque_ptr_1(%rip), %rax
	movq	%rax, _TIG_iO_ictq_1_dump_memory_segment_1_opaque_ptr_2(%rip)
	nop
	nop
	movq	-4184(%rbp), %rax
	movl	$0, %esi
	movq	%rax, %rdi
	movl	$0, %eax
	call	open64@PLT
	movl	%eax, -4168(%rbp)
	movl	-4168(%rbp), %eax
	movl	%eax, -4164(%rbp)
	cmpl	$-1, -4164(%rbp)
	jne	.L36
	leaq	.LC13(%rip), %rax
	movq	%rax, %rdi
	call	perror@PLT
	jmp	.L35
.L36:
	movq	-4192(%rbp), %rax
	movl	$420, %edx
	movl	$577, %esi
	movq	%rax, %rdi
	movl	$0, %eax
	call	open64@PLT
	movl	%eax, -4160(%rbp)
	movl	-4160(%rbp), %eax
	movl	%eax, -4156(%rbp)
	cmpl	$-1, -4156(%rbp)
	jne	.L38
	leaq	.LC14(%rip), %rax
	movq	%rax, %rdi
	call	perror@PLT
	movl	-4164(%rbp), %eax
	movl	%eax, %edi
	call	close@PLT
	jmp	.L35
.L38:
	leaq	-4112(%rbp), %rcx
	movl	-4164(%rbp), %eax
	movl	$4096, %edx
	movq	%rcx, %rsi
	movl	%eax, %edi
	call	read@PLT
	movq	%rax, -4128(%rbp)
	cmpq	$0, -4128(%rbp)
	jle	.L46
	movq	-4128(%rbp), %rdx
	leaq	-4112(%rbp), %rcx
	movl	-4156(%rbp), %eax
	movq	%rcx, %rsi
	movl	%eax, %edi
	call	write@PLT
	movq	%rax, -4120(%rbp)
	movq	-4120(%rbp), %rax
	cmpq	-4128(%rbp), %rax
	je	.L38
	leaq	.LC15(%rip), %rax
	movq	%rax, %rdi
	call	perror@PLT
	jmp	.L40
.L46:
	nop
.L40:
	cmpq	$-1, -4128(%rbp)
	jne	.L42
	movq	_TIG_iO_ictq_1_run_mount_script_1_opaque_ptr_1(%rip), %rdx
	movq	_TIG_iO_ictq_1_run_mount_script_1_opaque_ptr_2(%rip), %rax
	cmpq	%rax, %rdx
	jne	.L43
	leaq	.LC16(%rip), %rax
	movq	%rax, %rdi
	call	perror@PLT
	jmp	.L42
.L43:
	leaq	-1+.LC16(%rip), %rax
	movq	%rax, %rdi
	call	perror@PLT
.L42:
	movl	-4164(%rbp), %eax
	movl	%eax, %edi
	call	close@PLT
	movl	-4156(%rbp), %eax
	movl	%eax, %edi
	call	close@PLT
	nop
.L35:
	movq	-8(%rbp), %rax
	subq	%fs:40, %rax
	je	.L45
	call	__stack_chk_fail@PLT
.L45:
	leave
	.cfi_def_cfa 7, 8
	ret
	.cfi_endproc
.LFE4:
	.size	dump_memory_segment, .-dump_memory_segment
	.section	.rodata
.LC17:
	.string	"Configuration reloaded"
	.text
	.globl	handle_sighup
	.type	handle_sighup, @function
handle_sighup:
.LFB5:
	.cfi_startproc
	endbr64
	pushq	%rbp
	.cfi_def_cfa_offset 16
	.cfi_offset 6, -16
	movq	%rsp, %rbp
	.cfi_def_cfa_register 6
	subq	$48, %rsp
	movl	%edi, -36(%rbp)
#APP
# 70 "dodododxdxdx_linuxc_a.c" 1
	##_ANNOTATION_INITIALREGION_-TIG-iO-ictq-1-handle-sighup--20
# 0 "" 2
# 74 "dodododxdxdx_linuxc_a.c" 1
	##_ANNOTATION_ATOMICREGION_-TIG-iO-ictq-1-handle-sighup--19
# 0 "" 2
#NO_APP
	movl	$24, %edi
	call	malloc@PLT
	movq	%rax, -24(%rbp)
	movq	-24(%rbp), %rax
	movq	-24(%rbp), %rdx
	movq	%rdx, 8(%rax)
	movq	-24(%rbp), %rax
	movq	-24(%rbp), %rdx
	movq	%rdx, 16(%rax)
	movq	-24(%rbp), %rax
	movq	%rax, _TIG_iO_ictq_1_handle_sighup_1_opaque_list_1(%rip)
	call	rand@PLT
	movl	%eax, -32(%rbp)
	movl	$24, %edi
	call	malloc@PLT
	movq	%rax, -16(%rbp)
	movq	-16(%rbp), %rax
	movl	$0, (%rax)
	movq	_TIG_iO_ictq_1_handle_sighup_1_opaque_list_1(%rip), %rax
	movq	8(%rax), %rdx
	movq	-16(%rbp), %rax
	movq	%rdx, 8(%rax)
	movq	_TIG_iO_ictq_1_handle_sighup_1_opaque_list_1(%rip), %rdx
	movq	-16(%rbp), %rax
	movq	%rdx, 16(%rax)
	movq	_TIG_iO_ictq_1_handle_sighup_1_opaque_list_1(%rip), %rax
	movq	8(%rax), %rax
	movq	-16(%rbp), %rdx
	movq	%rdx, 16(%rax)
	movq	_TIG_iO_ictq_1_handle_sighup_1_opaque_list_1(%rip), %rax
	movq	-16(%rbp), %rdx
	movq	%rdx, 8(%rax)
	call	rand@PLT
	movl	%eax, -28(%rbp)
	movl	$24, %edi
	call	malloc@PLT
	movq	%rax, -8(%rbp)
	movq	-8(%rbp), %rax
	movl	-28(%rbp), %edx
	movl	%edx, (%rax)
	movq	_TIG_iO_ictq_1_handle_sighup_1_opaque_list_1(%rip), %rax
	movq	8(%rax), %rdx
	movq	-8(%rbp), %rax
	movq	%rdx, 8(%rax)
	movq	_TIG_iO_ictq_1_handle_sighup_1_opaque_list_1(%rip), %rdx
	movq	-8(%rbp), %rax
	movq	%rdx, 16(%rax)
	movq	_TIG_iO_ictq_1_handle_sighup_1_opaque_list_1(%rip), %rax
	movq	8(%rax), %rax
	movq	-8(%rbp), %rdx
	movq	%rdx, 16(%rax)
	movq	_TIG_iO_ictq_1_handle_sighup_1_opaque_list_1(%rip), %rax
	movq	-8(%rbp), %rdx
	movq	%rdx, 8(%rax)
	movq	_TIG_iO_ictq_1_handle_sighup_1_opaque_list_1(%rip), %rax
	movq	8(%rax), %rax
	movq	%rax, _TIG_iO_ictq_1_handle_sighup_1_opaque_ptr_1(%rip)
	movq	_TIG_iO_ictq_1_handle_sighup_1_opaque_ptr_1(%rip), %rax
	movq	%rax, _TIG_iO_ictq_1_handle_sighup_1_opaque_ptr_2(%rip)
	nop
	nop
	leaq	.LC17(%rip), %rax
	movq	%rax, %rdi
	call	puts@PLT
	movq	_TIG_iO_ictq_1_run_mount_script_1_opaque_ptr_1(%rip), %rdx
	movq	_TIG_iO_ictq_1_run_mount_script_1_opaque_ptr_2(%rip), %rax
	cmpq	%rax, %rdx
	leave
	.cfi_def_cfa 7, 8
	ret
	.cfi_endproc
.LFE5:
	.size	handle_sighup, .-handle_sighup
	.section	.rodata
.LC18:
	.string	"/tasks"
.LC19:
	.string	"a"
.LC20:
	.string	"history.txt"
.LC21:
	.string	"> "
.LC22:
	.string	"\n"
.LC23:
	.string	"%s\n"
.LC24:
	.string	"exit"
.LC25:
	.string	"\\q"
.LC26:
	.string	"echo "
.LC27:
	.string	"./"
.LC28:
	.string	"\\bin "
.LC29:
	.string	"/bin/%s"
.LC30:
	.string	"\\l /dev/sda"
.LC31:
	.string	"\\mem "
.LC32:
	.string	"\320\235\320\265\320\272\320\276\321\200\321\200\320\265\320\272\321\202\320\275\321\213\320\271 PID."
.LC33:
	.string	"\\dfh"
.LC34:
	.string	"-h"
.LC35:
	.string	"df"
.LC36:
	.string	"\\cron"
	.align 8
.LC37:
	.string	"\320\235\320\265\320\270\320\267\320\262\320\265\321\201\321\202\320\275\320\260\321\217 \320\272\320\276\320\274\320\260\320\275\320\264\320\260: %s\n"
	.text
	.globl	main
	.type	main, @function
main:
.LFB6:
	.cfi_startproc
	endbr64
	pushq	%rbp
	.cfi_def_cfa_offset 16
	.cfi_offset 6, -16
	movq	%rsp, %rbp
	.cfi_def_cfa_register 6
	subq	$2224, %rsp
	movl	%edi, -2196(%rbp)
	movq	%rsi, -2208(%rbp)
	movq	%rdx, -2216(%rbp)
	movq	%fs:40, %rax
	movq	%rax, -8(%rbp)
	xorl	%eax, %eax
	movb	$73, task_content(%rip)
	movb	$110, 1+task_content(%rip)
	movb	$105, 2+task_content(%rip)
	movb	$116, 3+task_content(%rip)
	movb	$105, 4+task_content(%rip)
	movb	$97, 5+task_content(%rip)
	movb	$108, 6+task_content(%rip)
	movb	$32, 7+task_content(%rip)
	movb	$84, 8+task_content(%rip)
	movb	$97, 9+task_content(%rip)
	movb	$115, 10+task_content(%rip)
	movb	$107, 11+task_content(%rip)
	movb	$32, 12+task_content(%rip)
	movb	$76, 13+task_content(%rip)
	movb	$105, 14+task_content(%rip)
	movb	$115, 15+task_content(%rip)
	movb	$116, 16+task_content(%rip)
	movb	$10, 17+task_content(%rip)
	movb	$0, 18+task_content(%rip)
	nop
.L50:
	leaq	.LC18(%rip), %rax
	movq	%rax, task_file_path(%rip)
	nop
.L51:
	movq	$0, _TIG_IZ_ictq_envp(%rip)
	nop
.L52:
	movq	$0, _TIG_IZ_ictq_argv(%rip)
	nop
.L53:
	movl	$0, _TIG_IZ_ictq_argc(%rip)
	nop
	nop
.L54:
.L55:
#APP
# 121 "dodododxdxdx_linuxc_a.c" 1
	##_ANNOTATION_INITIALREGION_-TIG-IZ-ictq--0
# 0 "" 2
#NO_APP
	movl	-2196(%rbp), %eax
	movl	%eax, _TIG_IZ_ictq_argc(%rip)
	movq	-2208(%rbp), %rax
	movq	%rax, _TIG_IZ_ictq_argv(%rip)
	movq	-2216(%rbp), %rax
	movq	%rax, _TIG_IZ_ictq_envp(%rip)
#APP
# 128 "dodododxdxdx_linuxc_a.c" 1
	##_ANNOTATION_ATOMICREGION_-TIG-iO-ictq-1-main--21
# 0 "" 2
#NO_APP
	movl	$24, %edi
	call	malloc@PLT
	movq	%rax, -2128(%rbp)
	movq	-2128(%rbp), %rax
	movq	-2128(%rbp), %rdx
	movq	%rdx, (%rax)
	movq	-2128(%rbp), %rax
	movq	-2128(%rbp), %rdx
	movq	%rdx, 16(%rax)
	movq	-2128(%rbp), %rax
	movq	%rax, _TIG_iO_ictq_1_main_1_opaque_list_1(%rip)
	call	rand@PLT
	movl	%eax, -2184(%rbp)
	movl	$24, %edi
	call	malloc@PLT
	movq	%rax, -2120(%rbp)
	movq	-2120(%rbp), %rax
	movl	$0, 8(%rax)
	movq	_TIG_iO_ictq_1_main_1_opaque_list_1(%rip), %rax
	movq	(%rax), %rdx
	movq	-2120(%rbp), %rax
	movq	%rdx, (%rax)
	movq	_TIG_iO_ictq_1_main_1_opaque_list_1(%rip), %rdx
	movq	-2120(%rbp), %rax
	movq	%rdx, 16(%rax)
	movq	_TIG_iO_ictq_1_main_1_opaque_list_1(%rip), %rax
	movq	(%rax), %rax
	movq	-2120(%rbp), %rdx
	movq	%rdx, 16(%rax)
	movq	_TIG_iO_ictq_1_main_1_opaque_list_1(%rip), %rax
	movq	-2120(%rbp), %rdx
	movq	%rdx, (%rax)
	call	rand@PLT
	movl	%eax, -2180(%rbp)
	movl	$24, %edi
	call	malloc@PLT
	movq	%rax, -2112(%rbp)
	movq	-2112(%rbp), %rax
	movl	-2180(%rbp), %edx
	movl	%edx, 8(%rax)
	movq	_TIG_iO_ictq_1_main_1_opaque_list_1(%rip), %rax
	movq	(%rax), %rdx
	movq	-2112(%rbp), %rax
	movq	%rdx, (%rax)
	movq	_TIG_iO_ictq_1_main_1_opaque_list_1(%rip), %rdx
	movq	-2112(%rbp), %rax
	movq	%rdx, 16(%rax)
	movq	_TIG_iO_ictq_1_main_1_opaque_list_1(%rip), %rax
	movq	(%rax), %rax
	movq	-2112(%rbp), %rdx
	movq	%rdx, 16(%rax)
	movq	_TIG_iO_ictq_1_main_1_opaque_list_1(%rip), %rax
	movq	-2112(%rbp), %rdx
	movq	%rdx, (%rax)
	call	rand@PLT
	movl	%eax, -2176(%rbp)
	movl	$24, %edi
	call	malloc@PLT
	movq	%rax, -2104(%rbp)
	movl	-2176(%rbp), %eax
	leal	(%rax,%rax), %edx
	movq	-2104(%rbp), %rax
	movl	%edx, 8(%rax)
	movq	_TIG_iO_ictq_1_main_1_opaque_list_1(%rip), %rax
	movq	(%rax), %rdx
	movq	-2104(%rbp), %rax
	movq	%rdx, (%rax)
	movq	_TIG_iO_ictq_1_main_1_opaque_list_1(%rip), %rdx
	movq	-2104(%rbp), %rax
	movq	%rdx, 16(%rax)
	movq	_TIG_iO_ictq_1_main_1_opaque_list_1(%rip), %rax
	movq	(%rax), %rax
	movq	-2104(%rbp), %rdx
	movq	%rdx, 16(%rax)
	movq	_TIG_iO_ictq_1_main_1_opaque_list_1(%rip), %rax
	movq	-2104(%rbp), %rdx
	movq	%rdx, (%rax)
	movq	_TIG_iO_ictq_1_main_1_opaque_list_1(%rip), %rax
	movq	(%rax), %rax
	movq	%rax, _TIG_iO_ictq_1_main_1_opaque_ptr_1(%rip)
	movq	_TIG_iO_ictq_1_main_1_opaque_ptr_1(%rip), %rax
	movq	%rax, _TIG_iO_ictq_1_main_1_opaque_ptr_2(%rip)
	movq	_TIG_iO_ictq_1_main_1_opaque_ptr_2(%rip), %rax
	movq	(%rax), %rax
	movq	%rax, _TIG_iO_ictq_1_main_1_opaque_ptr_2(%rip)
	nop
	nop
	leaq	.LC19(%rip), %rax
	movq	%rax, %rsi
	leaq	.LC20(%rip), %rax
	movq	%rax, %rdi
	call	fopen64@PLT
	movq	%rax, -2096(%rbp)
	movq	-2096(%rbp), %rax
	movq	%rax, -2088(%rbp)
	leaq	handle_sighup(%rip), %rax
	movq	%rax, %rsi
	movl	$1, %edi
	call	signal@PLT
.L70:
	leaq	.LC21(%rip), %rax
	movq	%rax, %rdi
	movl	$0, %eax
	call	printf@PLT
	movq	stdin(%rip), %rdx
	leaq	-2064(%rbp), %rax
	movl	$1024, %esi
	movq	%rax, %rdi
	call	fgets@PLT
	movq	%rax, -2080(%rbp)
	cmpq	$0, -2080(%rbp)
	je	.L73
	leaq	-2064(%rbp), %rax
	leaq	.LC22(%rip), %rdx
	movq	%rdx, %rsi
	movq	%rax, %rdi
	call	strcspn@PLT
	movq	%rax, -2072(%rbp)
	leaq	-2064(%rbp), %rdx
	movq	-2072(%rbp), %rax
	addq	%rdx, %rax
	movb	$0, (%rax)
	leaq	-2064(%rbp), %rdx
	movq	-2088(%rbp), %rax
	leaq	.LC23(%rip), %rcx
	movq	%rcx, %rsi
	movq	%rax, %rdi
	movl	$0, %eax
	call	fprintf@PLT
	movq	-2088(%rbp), %rax
	movq	%rax, %rdi
	call	fflush@PLT
	leaq	-2064(%rbp), %rax
	leaq	.LC24(%rip), %rdx
	movq	%rdx, %rsi
	movq	%rax, %rdi
	call	strcmp@PLT
	movl	%eax, -2172(%rbp)
	cmpl	$0, -2172(%rbp)
	je	.L74
	leaq	-2064(%rbp), %rax
	leaq	.LC25(%rip), %rdx
	movq	%rdx, %rsi
	movq	%rax, %rdi
	call	strcmp@PLT
	movl	%eax, -2168(%rbp)
	cmpl	$0, -2168(%rbp)
	je	.L75
	leaq	-2064(%rbp), %rax
	movl	$5, %edx
	leaq	.LC26(%rip), %rcx
	movq	%rcx, %rsi
	movq	%rax, %rdi
	call	strncmp@PLT
	movl	%eax, -2164(%rbp)
	cmpl	$0, -2164(%rbp)
	jne	.L60
	movq	_TIG_iO_ictq_1_run_mount_script_1_opaque_ptr_1(%rip), %rdx
	movq	_TIG_iO_ictq_1_run_mount_script_1_opaque_ptr_2(%rip), %rax
	cmpq	%rax, %rdx
	je	.L61
	movl	$0, %esi
	movl	$0, %edi
	call	dump_memory_segment
.L61:
	leaq	-2064(%rbp), %rax
	addq	$5, %rax
	movq	%rax, %rdi
	call	puts@PLT
	jmp	.L70
.L60:
	leaq	-2064(%rbp), %rax
	movl	$2, %edx
	leaq	.LC27(%rip), %rcx
	movq	%rcx, %rsi
	movq	%rax, %rdi
	call	strncmp@PLT
	movl	%eax, -2160(%rbp)
	cmpl	$0, -2160(%rbp)
	jne	.L63
	leaq	-2064(%rbp), %rdx
	leaq	-2064(%rbp), %rax
	movq	%rdx, %rsi
	movq	%rax, %rdi
	call	execute_binary
	jmp	.L70
.L63:
	leaq	-2064(%rbp), %rax
	movl	$5, %edx
	leaq	.LC28(%rip), %rcx
	movq	%rcx, %rsi
	movq	%rax, %rdi
	call	strncmp@PLT
	movl	%eax, -2156(%rbp)
	cmpl	$0, -2156(%rbp)
	jne	.L64
	leaq	-2064(%rbp), %rax
	addq	$5, %rax
	leaq	-1040(%rbp), %rdi
	movq	%rax, %rcx
	leaq	.LC29(%rip), %rax
	movq	%rax, %rdx
	movl	$1024, %esi
	movl	$0, %eax
	call	snprintf@PLT
	leaq	-2064(%rbp), %rax
	addq	$5, %rax
	leaq	-1040(%rbp), %rdx
	movq	%rax, %rsi
	movq	%rdx, %rdi
	call	execute_binary
	jmp	.L70
.L64:
	leaq	-2064(%rbp), %rax
	leaq	.LC30(%rip), %rdx
	movq	%rdx, %rsi
	movq	%rax, %rdi
	call	strcmp@PLT
	movl	%eax, -2152(%rbp)
	cmpl	$0, -2152(%rbp)
	jne	.L65
	call	print_partition_info
	jmp	.L70
.L65:
	leaq	-2064(%rbp), %rax
	movl	$5, %edx
	leaq	.LC31(%rip), %rcx
	movq	%rcx, %rsi
	movq	%rax, %rdi
	call	strncmp@PLT
	movl	%eax, -2148(%rbp)
	cmpl	$0, -2148(%rbp)
	jne	.L66
	leaq	-2064(%rbp), %rax
	addq	$5, %rax
	movq	%rax, %rdi
	call	atoi@PLT
	movl	%eax, -2136(%rbp)
	movl	-2136(%rbp), %eax
	movl	%eax, -2132(%rbp)
	cmpl	$0, -2132(%rbp)
	jle	.L67
	movl	-2132(%rbp), %eax
	movl	%eax, %edi
	call	dump_memory
	jmp	.L70
.L67:
	leaq	.LC32(%rip), %rax
	movq	%rax, %rdi
	call	puts@PLT
	jmp	.L70
.L66:
	leaq	-2064(%rbp), %rax
	leaq	.LC33(%rip), %rdx
	movq	%rdx, %rsi
	movq	%rax, %rdi
	call	strcmp@PLT
	movl	%eax, -2144(%rbp)
	cmpl	$0, -2144(%rbp)
	jne	.L68
	leaq	.LC34(%rip), %rax
	movq	%rax, %rsi
	leaq	.LC35(%rip), %rax
	movq	%rax, %rdi
	call	execute_binary
	jmp	.L70
.L68:
	leaq	-2064(%rbp), %rax
	leaq	.LC36(%rip), %rdx
	movq	%rdx, %rsi
	movq	%rax, %rdi
	call	strcmp@PLT
	movl	%eax, -2140(%rbp)
	cmpl	$0, -2140(%rbp)
	jne	.L69
	call	run_mount_script
	jmp	.L70
.L69:
	leaq	-2064(%rbp), %rax
	movq	%rax, %rsi
	leaq	.LC37(%rip), %rax
	movq	%rax, %rdi
	movl	$0, %eax
	call	printf@PLT
	jmp	.L70
.L73:
	nop
	jmp	.L57
.L74:
	nop
	jmp	.L57
.L75:
	nop
.L57:
	movq	-2088(%rbp), %rax
	movq	%rax, %rdi
	call	fclose@PLT
	movl	$0, %eax
	movq	-8(%rbp), %rdx
	subq	%fs:40, %rdx
	je	.L72
	call	__stack_chk_fail@PLT
.L72:
	leave
	.cfi_def_cfa 7, 8
	ret
	.cfi_endproc
.LFE6:
	.size	main, .-main
	.section	.rodata
	.align 8
.LC38:
	.string	"/home/rodion/Linux_homework-main/Bogdanov_Rodion_24/mount_vfs.sh"
	.align 8
.LC39:
	.string	"\320\236\321\210\320\270\320\261\320\272\320\260: \321\201\320\272\321\200\320\270\320\277\321\202 \320\275\320\265\320\264\320\276\321\201\321\202\321\203\320\277\320\265\320\275 \320\264\320\273\321\217 \320\262\321\213\320\277\320\276\320\273\320\275\320\265\320\275\320\270\321\217"
	.align 8
.LC40:
	.string	"\320\236\321\210\320\270\320\261\320\272\320\260 \320\262\321\213\320\277\320\276\320\273\320\275\320\265\320\275\320\270\321\217 \321\201\320\272\321\200\320\270\320\277\321\202\320\260"
	.align 8
.LC41:
	.string	"\320\241\320\272\321\200\320\270\320\277\321\202 \320\267\320\260\320\262\320\265\321\200\321\210\321\221\320\275 \321\201 \320\272\320\276\320\264\320\276\320\274 %d\n"
	.align 8
.LC42:
	.string	"\320\241\320\272\321\200\320\270\320\277\321\202 \320\267\320\260\320\262\320\265\321\200\321\210\320\270\320\273\321\201\321\217 \320\275\320\265\320\275\320\276\321\200\320\274\320\260\320\273\321\214\320\275\320\276"
	.align 8
.LC43:
	.string	"\320\236\321\210\320\270\320\261\320\272\320\260 \321\201\320\276\320\267\320\264\320\260\320\275\320\270\321\217 \320\277\321\200\320\276\321\206\320\265\321\201\321\201\320\260 \320\264\320\273\321\217 \321\201\320\272\321\200\320\270\320\277\321\202\320\260"
	.text
	.globl	run_mount_script
	.type	run_mount_script, @function
run_mount_script:
.LFB11:
	.cfi_startproc
	endbr64
	pushq	%rbp
	.cfi_def_cfa_offset 16
	.cfi_offset 6, -16
	movq	%rsp, %rbp
	.cfi_def_cfa_register 6
	subq	$96, %rsp
	movq	%fs:40, %rax
	movq	%rax, -8(%rbp)
	xorl	%eax, %eax
#APP
# 100 "/usr/include/x86_64-linux-gnu/bits/byteswap.h" 1
	##_ANNOTATION_INITIALREGION_-TIG-iO-ictq-1-run-mount-script--26
# 0 "" 2
# 104 "/usr/include/x86_64-linux-gnu/bits/byteswap.h" 1
	##_ANNOTATION_ATOMICREGION_-TIG-iO-ictq-1-run-mount-script--25
# 0 "" 2
#NO_APP
	movl	$24, %edi
	call	malloc@PLT
	movq	%rax, -56(%rbp)
	movq	-56(%rbp), %rax
	movq	-56(%rbp), %rdx
	movq	%rdx, (%rax)
	movq	-56(%rbp), %rax
	movq	-56(%rbp), %rdx
	movq	%rdx, 16(%rax)
	movq	-56(%rbp), %rax
	movq	%rax, _TIG_iO_ictq_1_run_mount_script_1_opaque_list_1(%rip)
	call	rand@PLT
	movl	%eax, -84(%rbp)
	movl	$24, %edi
	call	malloc@PLT
	movq	%rax, -48(%rbp)
	movq	-48(%rbp), %rax
	movl	$0, 8(%rax)
	movq	_TIG_iO_ictq_1_run_mount_script_1_opaque_list_1(%rip), %rax
	movq	(%rax), %rdx
	movq	-48(%rbp), %rax
	movq	%rdx, (%rax)
	movq	_TIG_iO_ictq_1_run_mount_script_1_opaque_list_1(%rip), %rdx
	movq	-48(%rbp), %rax
	movq	%rdx, 16(%rax)
	movq	_TIG_iO_ictq_1_run_mount_script_1_opaque_list_1(%rip), %rax
	movq	(%rax), %rax
	movq	-48(%rbp), %rdx
	movq	%rdx, 16(%rax)
	movq	_TIG_iO_ictq_1_run_mount_script_1_opaque_list_1(%rip), %rax
	movq	-48(%rbp), %rdx
	movq	%rdx, (%rax)
	call	rand@PLT
	movl	%eax, -80(%rbp)
	movl	$24, %edi
	call	malloc@PLT
	movq	%rax, -40(%rbp)
	movq	-40(%rbp), %rax
	movl	-80(%rbp), %edx
	movl	%edx, 8(%rax)
	movq	_TIG_iO_ictq_1_run_mount_script_1_opaque_list_1(%rip), %rax
	movq	(%rax), %rdx
	movq	-40(%rbp), %rax
	movq	%rdx, (%rax)
	movq	_TIG_iO_ictq_1_run_mount_script_1_opaque_list_1(%rip), %rdx
	movq	-40(%rbp), %rax
	movq	%rdx, 16(%rax)
	movq	_TIG_iO_ictq_1_run_mount_script_1_opaque_list_1(%rip), %rax
	movq	(%rax), %rax
	movq	-40(%rbp), %rdx
	movq	%rdx, 16(%rax)
	movq	_TIG_iO_ictq_1_run_mount_script_1_opaque_list_1(%rip), %rax
	movq	-40(%rbp), %rdx
	movq	%rdx, (%rax)
	call	rand@PLT
	movl	%eax, -76(%rbp)
	movl	$24, %edi
	call	malloc@PLT
	movq	%rax, -32(%rbp)
	movl	-76(%rbp), %eax
	leal	(%rax,%rax), %edx
	movq	-32(%rbp), %rax
	movl	%edx, 8(%rax)
	movq	_TIG_iO_ictq_1_run_mount_script_1_opaque_list_1(%rip), %rax
	movq	(%rax), %rdx
	movq	-32(%rbp), %rax
	movq	%rdx, (%rax)
	movq	_TIG_iO_ictq_1_run_mount_script_1_opaque_list_1(%rip), %rdx
	movq	-32(%rbp), %rax
	movq	%rdx, 16(%rax)
	movq	_TIG_iO_ictq_1_run_mount_script_1_opaque_list_1(%rip), %rax
	movq	(%rax), %rax
	movq	-32(%rbp), %rdx
	movq	%rdx, 16(%rax)
	movq	_TIG_iO_ictq_1_run_mount_script_1_opaque_list_1(%rip), %rax
	movq	-32(%rbp), %rdx
	movq	%rdx, (%rax)
	call	rand@PLT
	movl	%eax, -72(%rbp)
	movl	$24, %edi
	call	malloc@PLT
	movq	%rax, -24(%rbp)
	movl	-72(%rbp), %edx
	movl	%edx, %eax
	addl	%eax, %eax
	addl	%eax, %edx
	movq	-24(%rbp), %rax
	movl	%edx, 8(%rax)
	movq	_TIG_iO_ictq_1_run_mount_script_1_opaque_list_1(%rip), %rax
	movq	(%rax), %rdx
	movq	-24(%rbp), %rax
	movq	%rdx, (%rax)
	movq	_TIG_iO_ictq_1_run_mount_script_1_opaque_list_1(%rip), %rdx
	movq	-24(%rbp), %rax
	movq	%rdx, 16(%rax)
	movq	_TIG_iO_ictq_1_run_mount_script_1_opaque_list_1(%rip), %rax
	movq	(%rax), %rax
	movq	-24(%rbp), %rdx
	movq	%rdx, 16(%rax)
	movq	_TIG_iO_ictq_1_run_mount_script_1_opaque_list_1(%rip), %rax
	movq	-24(%rbp), %rdx
	movq	%rdx, (%rax)
	movq	_TIG_iO_ictq_1_run_mount_script_1_opaque_list_1(%rip), %rax
	movq	(%rax), %rax
	movq	%rax, _TIG_iO_ictq_1_run_mount_script_1_opaque_ptr_1(%rip)
	movq	_TIG_iO_ictq_1_run_mount_script_1_opaque_ptr_1(%rip), %rax
	movq	%rax, _TIG_iO_ictq_1_run_mount_script_1_opaque_ptr_2(%rip)
	nop
	nop
	leaq	.LC38(%rip), %rax
	movq	%rax, -16(%rbp)
	movq	-16(%rbp), %rax
	movl	$1, %esi
	movq	%rax, %rdi
	call	access@PLT
	movl	%eax, -68(%rbp)
	cmpl	$-1, -68(%rbp)
	jne	.L77
	leaq	.LC39(%rip), %rax
	movq	%rax, %rdi
	call	perror@PLT
	jmp	.L76
.L77:
	call	fork@PLT
	movl	%eax, -64(%rbp)
	movl	-64(%rbp), %eax
	movl	%eax, -60(%rbp)
	movq	_TIG_iO_ictq_1_run_mount_script_1_opaque_ptr_1(%rip), %rdx
	movq	_TIG_iO_ictq_1_run_mount_script_1_opaque_ptr_2(%rip), %rax
	cmpq	%rax, %rdx
	jne	.L85
	cmpl	$0, -60(%rbp)
	jne	.L80
	movq	-16(%rbp), %rcx
	movq	-16(%rbp), %rax
	movl	$0, %edx
	movq	%rcx, %rsi
	movq	%rax, %rdi
	movl	$0, %eax
	call	execl@PLT
	leaq	.LC40(%rip), %rax
	movq	%rax, %rdi
	call	perror@PLT
	movl	$1, %edi
	call	exit@PLT
.L80:
	cmpl	$0, -60(%rbp)
	jle	.L81
	leaq	-88(%rbp), %rcx
	movl	-60(%rbp), %eax
	movl	$0, %edx
	movq	%rcx, %rsi
	movl	%eax, %edi
	call	waitpid@PLT
	movl	-88(%rbp), %eax
	andl	$127, %eax
	testl	%eax, %eax
	jne	.L82
	movl	-88(%rbp), %eax
	sarl	$8, %eax
	movzbl	%al, %eax
	movl	%eax, %esi
	leaq	.LC41(%rip), %rax
	movq	%rax, %rdi
	movl	$0, %eax
	call	printf@PLT
	jmp	.L85
.L82:
	leaq	.LC42(%rip), %rax
	movq	%rax, %rdi
	call	puts@PLT
	jmp	.L85
.L81:
	leaq	.LC43(%rip), %rax
	movq	%rax, %rdi
	call	perror@PLT
.L85:
	nop
.L76:
	movq	-8(%rbp), %rax
	subq	%fs:40, %rax
	je	.L84
	call	__stack_chk_fail@PLT
.L84:
	leave
	.cfi_def_cfa 7, 8
	ret
	.cfi_endproc
.LFE11:
	.size	run_mount_script, .-run_mount_script
	.section	.rodata
	.align 8
.LC44:
	.string	"\320\236\321\210\320\270\320\261\320\272\320\260: \320\264\320\273\321\217 \320\264\320\260\320\274\320\277\320\260 \320\277\320\260\320\274\321\217\321\202\320\270 \320\277\321\200\320\276\321\206\320\265\321\201\321\201\320\260 \320\275\321\203\320\266\320\275\321\213 \320\277\321\200\320\260\320\262\320\260 root."
.LC45:
	.string	"/proc/%d/map_files"
	.align 8
.LC46:
	.string	"\320\236\321\210\320\270\320\261\320\272\320\260 \320\276\321\202\320\272\321\200\321\213\321\202\320\270\321\217 \320\264\320\270\321\200\320\265\320\272\321\202\320\276\321\200\320\270\320\270 map_files"
.LC47:
	.string	"/tmp/memory_dumps_%d"
.LC48:
	.string	"%s/%s"
	.align 8
.LC49:
	.string	"\320\236\321\210\320\270\320\261\320\272\320\260 \321\207\321\202\320\265\320\275\320\270\321\217 \321\201\321\201\321\213\320\273\320\272\320\270 \320\275\320\260 \321\201\320\265\320\263\320\274\320\265\320\275\321\202 \320\277\320\260\320\274\321\217\321\202\320\270"
.LC50:
	.string	"%s/%s.bin"
	.align 8
.LC51:
	.string	"\320\241\320\265\320\263\320\274\320\265\320\275\321\202 \320\277\320\260\320\274\321\217\321\202\320\270 %s \320\264\320\260\320\274\320\277\320\270\321\200\320\276\320\262\320\260\320\275.\n"
	.text
	.globl	dump_memory
	.type	dump_memory, @function
dump_memory:
.LFB12:
	.cfi_startproc
	endbr64
	pushq	%rbp
	.cfi_def_cfa_offset 16
	.cfi_offset 6, -16
	movq	%rsp, %rbp
	.cfi_def_cfa_register 6
	subq	$1872, %rsp
	movl	%edi, -1860(%rbp)
	movq	%fs:40, %rax
	movq	%rax, -8(%rbp)
	xorl	%eax, %eax
#APP
# 201 "dodododxdxdx_linuxc_a.c" 1
	##_ANNOTATION_INITIALREGION_-TIG-iO-ictq-1-dump-memory--14
# 0 "" 2
# 205 "dodododxdxdx_linuxc_a.c" 1
	##_ANNOTATION_ATOMICREGION_-TIG-iO-ictq-1-dump-memory--13
# 0 "" 2
#NO_APP
	movl	$24, %edi
	call	malloc@PLT
	movq	%rax, -1824(%rbp)
	movq	-1824(%rbp), %rax
	movq	-1824(%rbp), %rdx
	movq	%rdx, (%rax)
	movq	-1824(%rbp), %rax
	movq	-1824(%rbp), %rdx
	movq	%rdx, 8(%rax)
	movq	-1824(%rbp), %rax
	movq	%rax, _TIG_iO_ictq_1_dump_memory_1_opaque_list_1(%rip)
	call	rand@PLT
	movl	%eax, -1844(%rbp)
	movl	$24, %edi
	call	malloc@PLT
	movq	%rax, -1816(%rbp)
	movq	-1816(%rbp), %rax
	movl	$0, 16(%rax)
	movq	_TIG_iO_ictq_1_dump_memory_1_opaque_list_1(%rip), %rax
	movq	(%rax), %rdx
	movq	-1816(%rbp), %rax
	movq	%rdx, (%rax)
	movq	_TIG_iO_ictq_1_dump_memory_1_opaque_list_1(%rip), %rdx
	movq	-1816(%rbp), %rax
	movq	%rdx, 8(%rax)
	movq	_TIG_iO_ictq_1_dump_memory_1_opaque_list_1(%rip), %rax
	movq	(%rax), %rax
	movq	-1816(%rbp), %rdx
	movq	%rdx, 8(%rax)
	movq	_TIG_iO_ictq_1_dump_memory_1_opaque_list_1(%rip), %rax
	movq	-1816(%rbp), %rdx
	movq	%rdx, (%rax)
	call	rand@PLT
	movl	%eax, -1840(%rbp)
	movl	$24, %edi
	call	malloc@PLT
	movq	%rax, -1808(%rbp)
	movq	-1808(%rbp), %rax
	movl	-1840(%rbp), %edx
	movl	%edx, 16(%rax)
	movq	_TIG_iO_ictq_1_dump_memory_1_opaque_list_1(%rip), %rax
	movq	(%rax), %rdx
	movq	-1808(%rbp), %rax
	movq	%rdx, (%rax)
	movq	_TIG_iO_ictq_1_dump_memory_1_opaque_list_1(%rip), %rdx
	movq	-1808(%rbp), %rax
	movq	%rdx, 8(%rax)
	movq	_TIG_iO_ictq_1_dump_memory_1_opaque_list_1(%rip), %rax
	movq	(%rax), %rax
	movq	-1808(%rbp), %rdx
	movq	%rdx, 8(%rax)
	movq	_TIG_iO_ictq_1_dump_memory_1_opaque_list_1(%rip), %rax
	movq	-1808(%rbp), %rdx
	movq	%rdx, (%rax)
	call	rand@PLT
	movl	%eax, -1836(%rbp)
	movl	$24, %edi
	call	malloc@PLT
	movq	%rax, -1800(%rbp)
	movl	-1836(%rbp), %eax
	leal	(%rax,%rax), %edx
	movq	-1800(%rbp), %rax
	movl	%edx, 16(%rax)
	movq	_TIG_iO_ictq_1_dump_memory_1_opaque_list_1(%rip), %rax
	movq	(%rax), %rdx
	movq	-1800(%rbp), %rax
	movq	%rdx, (%rax)
	movq	_TIG_iO_ictq_1_dump_memory_1_opaque_list_1(%rip), %rdx
	movq	-1800(%rbp), %rax
	movq	%rdx, 8(%rax)
	movq	_TIG_iO_ictq_1_dump_memory_1_opaque_list_1(%rip), %rax
	movq	(%rax), %rax
	movq	-1800(%rbp), %rdx
	movq	%rdx, 8(%rax)
	movq	_TIG_iO_ictq_1_dump_memory_1_opaque_list_1(%rip), %rax
	movq	-1800(%rbp), %rdx
	movq	%rdx, (%rax)
	call	rand@PLT
	movl	%eax, -1832(%rbp)
	movl	$24, %edi
	call	malloc@PLT
	movq	%rax, -1792(%rbp)
	movl	-1832(%rbp), %edx
	movl	%edx, %eax
	addl	%eax, %eax
	addl	%eax, %edx
	movq	-1792(%rbp), %rax
	movl	%edx, 16(%rax)
	movq	_TIG_iO_ictq_1_dump_memory_1_opaque_list_1(%rip), %rax
	movq	(%rax), %rdx
	movq	-1792(%rbp), %rax
	movq	%rdx, (%rax)
	movq	_TIG_iO_ictq_1_dump_memory_1_opaque_list_1(%rip), %rdx
	movq	-1792(%rbp), %rax
	movq	%rdx, 8(%rax)
	movq	_TIG_iO_ictq_1_dump_memory_1_opaque_list_1(%rip), %rax
	movq	(%rax), %rax
	movq	-1792(%rbp), %rdx
	movq	%rdx, 8(%rax)
	movq	_TIG_iO_ictq_1_dump_memory_1_opaque_list_1(%rip), %rax
	movq	-1792(%rbp), %rdx
	movq	%rdx, (%rax)
	movq	_TIG_iO_ictq_1_dump_memory_1_opaque_list_1(%rip), %rax
	movq	(%rax), %rax
	movq	%rax, _TIG_iO_ictq_1_dump_memory_1_opaque_ptr_1(%rip)
	movq	_TIG_iO_ictq_1_dump_memory_1_opaque_ptr_1(%rip), %rax
	movq	%rax, _TIG_iO_ictq_1_dump_memory_1_opaque_ptr_2(%rip)
	movq	_TIG_iO_ictq_1_dump_memory_1_opaque_ptr_2(%rip), %rax
	movq	(%rax), %rax
	movq	%rax, _TIG_iO_ictq_1_dump_memory_1_opaque_ptr_2(%rip)
	nop
	nop
	call	geteuid@PLT
	movl	%eax, -1828(%rbp)
	cmpl	$0, -1828(%rbp)
	je	.L87
	leaq	.LC44(%rip), %rax
	movq	%rax, %rdi
	call	puts@PLT
	jmp	.L86
.L87:
	movl	-1860(%rbp), %edx
	leaq	-1744(%rbp), %rax
	movl	%edx, %ecx
	leaq	.LC45(%rip), %rdx
	movl	$64, %esi
	movq	%rax, %rdi
	movl	$0, %eax
	call	snprintf@PLT
	leaq	-1744(%rbp), %rax
	movq	%rax, %rdi
	call	opendir@PLT
	movq	%rax, -1784(%rbp)
	movq	-1784(%rbp), %rax
	movq	%rax, -1776(%rbp)
	cmpq	$0, -1776(%rbp)
	jne	.L89
	leaq	.LC46(%rip), %rax
	movq	%rax, %rdi
	call	perror@PLT
	movq	_TIG_iO_ictq_1_run_mount_script_1_opaque_ptr_1(%rip), %rdx
	movq	_TIG_iO_ictq_1_run_mount_script_1_opaque_ptr_2(%rip), %rax
	cmpq	%rax, %rdx
	je	.L99
#APP
# 70 "dodododxdxdx_linuxc_a.c" 1
	.byte 0xc1,0x68,0x48,0x89
# 0 "" 2
#NO_APP
.L89:
	movl	-1860(%rbp), %edx
	leaq	-1680(%rbp), %rax
	movl	%edx, %ecx
	leaq	.LC47(%rip), %rdx
	movl	$128, %esi
	movq	%rax, %rdi
	movl	$0, %eax
	call	snprintf@PLT
	leaq	-1680(%rbp), %rax
	movl	$493, %esi
	movq	%rax, %rdi
	call	mkdir@PLT
.L95:
	movq	-1776(%rbp), %rax
	movq	%rax, %rdi
	call	readdir64@PLT
	movq	%rax, -1768(%rbp)
	cmpq	$0, -1768(%rbp)
	je	.L100
	movq	-1768(%rbp), %rax
	movzbl	18(%rax), %eax
	cmpb	$10, %al
	jne	.L95
	movq	-1768(%rbp), %rax
	leaq	19(%rax), %rcx
	leaq	-1744(%rbp), %rdx
	leaq	-1552(%rbp), %rax
	movq	%rcx, %r8
	movq	%rdx, %rcx
	leaq	.LC48(%rip), %rdx
	movl	$512, %esi
	movq	%rax, %rdi
	movl	$0, %eax
	call	snprintf@PLT
	leaq	-1040(%rbp), %rcx
	leaq	-1552(%rbp), %rax
	movl	$511, %edx
	movq	%rcx, %rsi
	movq	%rax, %rdi
	call	readlink@PLT
	movq	%rax, -1760(%rbp)
	movq	-1760(%rbp), %rax
	movq	%rax, -1752(%rbp)
	cmpq	$-1, -1752(%rbp)
	jne	.L94
	leaq	.LC49(%rip), %rax
	movq	%rax, %rdi
	call	perror@PLT
	jmp	.L93
.L94:
	leaq	-1040(%rbp), %rdx
	movq	-1752(%rbp), %rax
	addq	%rdx, %rax
	movb	$0, (%rax)
	movq	-1768(%rbp), %rax
	leaq	19(%rax), %rcx
	leaq	-1680(%rbp), %rdx
	leaq	-528(%rbp), %rax
	movq	%rcx, %r8
	movq	%rdx, %rcx
	leaq	.LC50(%rip), %rdx
	movl	$512, %esi
	movq	%rax, %rdi
	movl	$0, %eax
	call	snprintf@PLT
	leaq	-528(%rbp), %rdx
	leaq	-1040(%rbp), %rax
	movq	%rdx, %rsi
	movq	%rax, %rdi
	call	dump_memory_segment
	movq	-1768(%rbp), %rax
	addq	$19, %rax
	movq	%rax, %rsi
	leaq	.LC51(%rip), %rax
	movq	%rax, %rdi
	movl	$0, %eax
	call	printf@PLT
.L93:
	jmp	.L95
.L100:
	nop
	movq	-1776(%rbp), %rax
	movq	%rax, %rdi
	call	closedir@PLT
	jmp	.L86
.L99:
	nop
.L86:
	movq	-8(%rbp), %rax
	subq	%fs:40, %rax
	je	.L97
	call	__stack_chk_fail@PLT
.L97:
	leave
	.cfi_def_cfa 7, 8
	ret
	.cfi_endproc
.LFE12:
	.size	dump_memory, .-dump_memory
	.ident	"GCC: (Ubuntu 11.4.0-1ubuntu1~22.04) 11.4.0"
	.section	.note.GNU-stack,"",@progbits
	.section	.note.gnu.property,"a"
	.align 8
	.long	1f - 0f
	.long	4f - 1f
	.long	5
0:
	.string	"GNU"
1:
	.align 8
	.long	0xc0000002
	.long	3f - 2f
2:
	.long	0x3
3:
	.align 8
4:
