	.file	"DominicWKelley_C-Programming-Exercises_firstUniqueChar_opaque.c"
	.text
	.globl	_TIG_iO_WCN3_1___bswap_64_1_opaque_ptr_1
	.bss
	.align 8
	.type	_TIG_iO_WCN3_1___bswap_64_1_opaque_ptr_1, @object
	.size	_TIG_iO_WCN3_1___bswap_64_1_opaque_ptr_1, 8
_TIG_iO_WCN3_1___bswap_64_1_opaque_ptr_1:
	.zero	8
	.globl	_TIG_iO_WCN3_1___uint16_identity_1_opaque_list_2
	.align 8
	.type	_TIG_iO_WCN3_1___uint16_identity_1_opaque_list_2, @object
	.size	_TIG_iO_WCN3_1___uint16_identity_1_opaque_list_2, 8
_TIG_iO_WCN3_1___uint16_identity_1_opaque_list_2:
	.zero	8
	.globl	_TIG_iO_WCN3_1_main_1_opaque_list_1
	.align 8
	.type	_TIG_iO_WCN3_1_main_1_opaque_list_1, @object
	.size	_TIG_iO_WCN3_1_main_1_opaque_list_1, 8
_TIG_iO_WCN3_1_main_1_opaque_list_1:
	.zero	8
	.globl	_TIG_iO_WCN3_1___bswap_64_1_opaque_list_1
	.align 8
	.type	_TIG_iO_WCN3_1___bswap_64_1_opaque_list_1, @object
	.size	_TIG_iO_WCN3_1___bswap_64_1_opaque_list_1, 8
_TIG_iO_WCN3_1___bswap_64_1_opaque_list_1:
	.zero	8
	.globl	_TIG_IZ_WCN3_envp
	.align 8
	.type	_TIG_IZ_WCN3_envp, @object
	.size	_TIG_IZ_WCN3_envp, 8
_TIG_IZ_WCN3_envp:
	.zero	8
	.globl	_TIG_iO_WCN3_1___uint32_identity_1_opaque_ptr_2
	.align 8
	.type	_TIG_iO_WCN3_1___uint32_identity_1_opaque_ptr_2, @object
	.size	_TIG_iO_WCN3_1___uint32_identity_1_opaque_ptr_2, 8
_TIG_iO_WCN3_1___uint32_identity_1_opaque_ptr_2:
	.zero	8
	.globl	_TIG_iO_WCN3_1___uint64_identity_1_opaque_list_1
	.align 8
	.type	_TIG_iO_WCN3_1___uint64_identity_1_opaque_list_1, @object
	.size	_TIG_iO_WCN3_1___uint64_identity_1_opaque_list_1, 8
_TIG_iO_WCN3_1___uint64_identity_1_opaque_list_1:
	.zero	8
	.globl	_TIG_iO_WCN3_1___uint16_identity_1_opaque_ptr_2
	.align 8
	.type	_TIG_iO_WCN3_1___uint16_identity_1_opaque_ptr_2, @object
	.size	_TIG_iO_WCN3_1___uint16_identity_1_opaque_ptr_2, 8
_TIG_iO_WCN3_1___uint16_identity_1_opaque_ptr_2:
	.zero	8
	.globl	_TIG_iO_WCN3_1___uint16_identity_1_opaque_list_1
	.align 8
	.type	_TIG_iO_WCN3_1___uint16_identity_1_opaque_list_1, @object
	.size	_TIG_iO_WCN3_1___uint16_identity_1_opaque_list_1, 8
_TIG_iO_WCN3_1___uint16_identity_1_opaque_list_1:
	.zero	8
	.globl	_TIG_iO_WCN3_1___bswap_64_1_opaque_list_2
	.align 8
	.type	_TIG_iO_WCN3_1___bswap_64_1_opaque_list_2, @object
	.size	_TIG_iO_WCN3_1___bswap_64_1_opaque_list_2, 8
_TIG_iO_WCN3_1___bswap_64_1_opaque_list_2:
	.zero	8
	.globl	_TIG_iO_WCN3_1___uint16_identity_1_opaque_ptr_1
	.align 8
	.type	_TIG_iO_WCN3_1___uint16_identity_1_opaque_ptr_1, @object
	.size	_TIG_iO_WCN3_1___uint16_identity_1_opaque_ptr_1, 8
_TIG_iO_WCN3_1___uint16_identity_1_opaque_ptr_1:
	.zero	8
	.globl	_TIG_iO_WCN3_1_main_1_opaque_ptr_1
	.align 8
	.type	_TIG_iO_WCN3_1_main_1_opaque_ptr_1, @object
	.size	_TIG_iO_WCN3_1_main_1_opaque_ptr_1, 8
_TIG_iO_WCN3_1_main_1_opaque_ptr_1:
	.zero	8
	.globl	_TIG_iO_WCN3_1_print_first_unique_1_opaque_ptr_1
	.align 8
	.type	_TIG_iO_WCN3_1_print_first_unique_1_opaque_ptr_1, @object
	.size	_TIG_iO_WCN3_1_print_first_unique_1_opaque_ptr_1, 8
_TIG_iO_WCN3_1_print_first_unique_1_opaque_ptr_1:
	.zero	8
	.globl	_TIG_iO_WCN3_1___uint64_identity_1_opaque_ptr_1
	.align 8
	.type	_TIG_iO_WCN3_1___uint64_identity_1_opaque_ptr_1, @object
	.size	_TIG_iO_WCN3_1___uint64_identity_1_opaque_ptr_1, 8
_TIG_iO_WCN3_1___uint64_identity_1_opaque_ptr_1:
	.zero	8
	.globl	_TIG_iO_WCN3_1___bswap_16_1_opaque_ptr_1
	.align 8
	.type	_TIG_iO_WCN3_1___bswap_16_1_opaque_ptr_1, @object
	.size	_TIG_iO_WCN3_1___bswap_16_1_opaque_ptr_1, 8
_TIG_iO_WCN3_1___bswap_16_1_opaque_ptr_1:
	.zero	8
	.globl	_TIG_iO_WCN3_1___bswap_16_1_opaque_list_2
	.align 8
	.type	_TIG_iO_WCN3_1___bswap_16_1_opaque_list_2, @object
	.size	_TIG_iO_WCN3_1___bswap_16_1_opaque_list_2, 8
_TIG_iO_WCN3_1___bswap_16_1_opaque_list_2:
	.zero	8
	.globl	_TIG_IZ_WCN3_argv
	.align 8
	.type	_TIG_IZ_WCN3_argv, @object
	.size	_TIG_IZ_WCN3_argv, 8
_TIG_IZ_WCN3_argv:
	.zero	8
	.globl	_TIG_iO_WCN3_1_print_first_unique_1_opaque_list_2
	.align 8
	.type	_TIG_iO_WCN3_1_print_first_unique_1_opaque_list_2, @object
	.size	_TIG_iO_WCN3_1_print_first_unique_1_opaque_list_2, 8
_TIG_iO_WCN3_1_print_first_unique_1_opaque_list_2:
	.zero	8
	.globl	_TIG_iO_WCN3_1___bswap_32_1_opaque_ptr_1
	.align 8
	.type	_TIG_iO_WCN3_1___bswap_32_1_opaque_ptr_1, @object
	.size	_TIG_iO_WCN3_1___bswap_32_1_opaque_ptr_1, 8
_TIG_iO_WCN3_1___bswap_32_1_opaque_ptr_1:
	.zero	8
	.globl	_TIG_iO_WCN3_1_main_1_opaque_ptr_2
	.align 8
	.type	_TIG_iO_WCN3_1_main_1_opaque_ptr_2, @object
	.size	_TIG_iO_WCN3_1_main_1_opaque_ptr_2, 8
_TIG_iO_WCN3_1_main_1_opaque_ptr_2:
	.zero	8
	.globl	_TIG_iO_WCN3_1___bswap_32_1_opaque_ptr_2
	.align 8
	.type	_TIG_iO_WCN3_1___bswap_32_1_opaque_ptr_2, @object
	.size	_TIG_iO_WCN3_1___bswap_32_1_opaque_ptr_2, 8
_TIG_iO_WCN3_1___bswap_32_1_opaque_ptr_2:
	.zero	8
	.globl	_TIG_iO_WCN3_1___bswap_64_1_opaque_ptr_2
	.align 8
	.type	_TIG_iO_WCN3_1___bswap_64_1_opaque_ptr_2, @object
	.size	_TIG_iO_WCN3_1___bswap_64_1_opaque_ptr_2, 8
_TIG_iO_WCN3_1___bswap_64_1_opaque_ptr_2:
	.zero	8
	.globl	_TIG_iO_WCN3_1_main_1_opaque_list_2
	.align 8
	.type	_TIG_iO_WCN3_1_main_1_opaque_list_2, @object
	.size	_TIG_iO_WCN3_1_main_1_opaque_list_2, 8
_TIG_iO_WCN3_1_main_1_opaque_list_2:
	.zero	8
	.globl	_TIG_IZ_WCN3_argc
	.align 4
	.type	_TIG_IZ_WCN3_argc, @object
	.size	_TIG_IZ_WCN3_argc, 4
_TIG_IZ_WCN3_argc:
	.zero	4
	.globl	_TIG_iO_WCN3_1___uint32_identity_1_opaque_ptr_1
	.align 8
	.type	_TIG_iO_WCN3_1___uint32_identity_1_opaque_ptr_1, @object
	.size	_TIG_iO_WCN3_1___uint32_identity_1_opaque_ptr_1, 8
_TIG_iO_WCN3_1___uint32_identity_1_opaque_ptr_1:
	.zero	8
	.globl	_TIG_iO_WCN3_1___uint32_identity_1_opaque_list_2
	.align 8
	.type	_TIG_iO_WCN3_1___uint32_identity_1_opaque_list_2, @object
	.size	_TIG_iO_WCN3_1___uint32_identity_1_opaque_list_2, 8
_TIG_iO_WCN3_1___uint32_identity_1_opaque_list_2:
	.zero	8
	.globl	_TIG_iO_WCN3_1___bswap_32_1_opaque_list_1
	.align 8
	.type	_TIG_iO_WCN3_1___bswap_32_1_opaque_list_1, @object
	.size	_TIG_iO_WCN3_1___bswap_32_1_opaque_list_1, 8
_TIG_iO_WCN3_1___bswap_32_1_opaque_list_1:
	.zero	8
	.globl	_TIG_iO_WCN3_1___bswap_16_1_opaque_ptr_2
	.align 8
	.type	_TIG_iO_WCN3_1___bswap_16_1_opaque_ptr_2, @object
	.size	_TIG_iO_WCN3_1___bswap_16_1_opaque_ptr_2, 8
_TIG_iO_WCN3_1___bswap_16_1_opaque_ptr_2:
	.zero	8
	.globl	_TIG_iO_WCN3_1___uint32_identity_1_opaque_list_1
	.align 8
	.type	_TIG_iO_WCN3_1___uint32_identity_1_opaque_list_1, @object
	.size	_TIG_iO_WCN3_1___uint32_identity_1_opaque_list_1, 8
_TIG_iO_WCN3_1___uint32_identity_1_opaque_list_1:
	.zero	8
	.globl	_TIG_iO_WCN3_1_print_first_unique_1_opaque_ptr_2
	.align 8
	.type	_TIG_iO_WCN3_1_print_first_unique_1_opaque_ptr_2, @object
	.size	_TIG_iO_WCN3_1_print_first_unique_1_opaque_ptr_2, 8
_TIG_iO_WCN3_1_print_first_unique_1_opaque_ptr_2:
	.zero	8
	.globl	_TIG_iO_WCN3_1___bswap_16_1_opaque_list_1
	.align 8
	.type	_TIG_iO_WCN3_1___bswap_16_1_opaque_list_1, @object
	.size	_TIG_iO_WCN3_1___bswap_16_1_opaque_list_1, 8
_TIG_iO_WCN3_1___bswap_16_1_opaque_list_1:
	.zero	8
	.globl	_TIG_iO_WCN3_1___bswap_32_1_opaque_list_2
	.align 8
	.type	_TIG_iO_WCN3_1___bswap_32_1_opaque_list_2, @object
	.size	_TIG_iO_WCN3_1___bswap_32_1_opaque_list_2, 8
_TIG_iO_WCN3_1___bswap_32_1_opaque_list_2:
	.zero	8
	.globl	_TIG_iO_WCN3_1___uint64_identity_1_opaque_list_2
	.align 8
	.type	_TIG_iO_WCN3_1___uint64_identity_1_opaque_list_2, @object
	.size	_TIG_iO_WCN3_1___uint64_identity_1_opaque_list_2, 8
_TIG_iO_WCN3_1___uint64_identity_1_opaque_list_2:
	.zero	8
	.globl	_TIG_iO_WCN3_1_print_first_unique_1_opaque_list_1
	.align 8
	.type	_TIG_iO_WCN3_1_print_first_unique_1_opaque_list_1, @object
	.size	_TIG_iO_WCN3_1_print_first_unique_1_opaque_list_1, 8
_TIG_iO_WCN3_1_print_first_unique_1_opaque_list_1:
	.zero	8
	.globl	_TIG_iO_WCN3_1___uint64_identity_1_opaque_ptr_2
	.align 8
	.type	_TIG_iO_WCN3_1___uint64_identity_1_opaque_ptr_2, @object
	.size	_TIG_iO_WCN3_1___uint64_identity_1_opaque_ptr_2, 8
_TIG_iO_WCN3_1___uint64_identity_1_opaque_ptr_2:
	.zero	8
	.section	.rodata
.LC0:
	.string	"%c\n"
.LC1:
	.string	"No unique character found!"
	.text
	.globl	print_first_unique
	.type	print_first_unique, @function
print_first_unique:
.LFB3:
	.cfi_startproc
	endbr64
	pushq	%rbp
	.cfi_def_cfa_offset 16
	.cfi_offset 6, -16
	movq	%rsp, %rbp
	.cfi_def_cfa_register 6
	subq	$80, %rsp
	movq	%rdi, -72(%rbp)
#APP
# 65 "/usr/include/x86_64-linux-gnu/bits/uintn-identity.h" 1
	##_ANNOTATION_INITIALREGION_-TIG-iO-WCN3-1-print-first-unique--16
# 0 "" 2
# 69 "/usr/include/x86_64-linux-gnu/bits/uintn-identity.h" 1
	##_ANNOTATION_ATOMICREGION_-TIG-iO-WCN3-1-print-first-unique--15
# 0 "" 2
#NO_APP
	movl	$24, %edi
	call	malloc@PLT
	movq	%rax, -32(%rbp)
	movq	-32(%rbp), %rax
	movq	-32(%rbp), %rdx
	movq	%rdx, 16(%rax)
	movq	-32(%rbp), %rax
	movq	-32(%rbp), %rdx
	movq	%rdx, 8(%rax)
	movq	-32(%rbp), %rax
	movq	%rax, _TIG_iO_WCN3_1_print_first_unique_1_opaque_list_1(%rip)
	call	rand@PLT
	movl	%eax, -44(%rbp)
	movl	$24, %edi
	call	malloc@PLT
	movq	%rax, -24(%rbp)
	movq	-24(%rbp), %rax
	movl	$0, (%rax)
	movq	_TIG_iO_WCN3_1_print_first_unique_1_opaque_list_1(%rip), %rax
	movq	16(%rax), %rdx
	movq	-24(%rbp), %rax
	movq	%rdx, 16(%rax)
	movq	_TIG_iO_WCN3_1_print_first_unique_1_opaque_list_1(%rip), %rdx
	movq	-24(%rbp), %rax
	movq	%rdx, 8(%rax)
	movq	_TIG_iO_WCN3_1_print_first_unique_1_opaque_list_1(%rip), %rax
	movq	16(%rax), %rax
	movq	-24(%rbp), %rdx
	movq	%rdx, 8(%rax)
	movq	_TIG_iO_WCN3_1_print_first_unique_1_opaque_list_1(%rip), %rax
	movq	-24(%rbp), %rdx
	movq	%rdx, 16(%rax)
	call	rand@PLT
	movl	%eax, -40(%rbp)
	movl	$24, %edi
	call	malloc@PLT
	movq	%rax, -16(%rbp)
	movq	-16(%rbp), %rax
	movl	-40(%rbp), %edx
	movl	%edx, (%rax)
	movq	_TIG_iO_WCN3_1_print_first_unique_1_opaque_list_1(%rip), %rax
	movq	16(%rax), %rdx
	movq	-16(%rbp), %rax
	movq	%rdx, 16(%rax)
	movq	_TIG_iO_WCN3_1_print_first_unique_1_opaque_list_1(%rip), %rdx
	movq	-16(%rbp), %rax
	movq	%rdx, 8(%rax)
	movq	_TIG_iO_WCN3_1_print_first_unique_1_opaque_list_1(%rip), %rax
	movq	16(%rax), %rax
	movq	-16(%rbp), %rdx
	movq	%rdx, 8(%rax)
	movq	_TIG_iO_WCN3_1_print_first_unique_1_opaque_list_1(%rip), %rax
	movq	-16(%rbp), %rdx
	movq	%rdx, 16(%rax)
	movq	_TIG_iO_WCN3_1_print_first_unique_1_opaque_list_1(%rip), %rax
	movq	16(%rax), %rax
	movq	%rax, _TIG_iO_WCN3_1_print_first_unique_1_opaque_ptr_1(%rip)
	movq	_TIG_iO_WCN3_1_print_first_unique_1_opaque_ptr_1(%rip), %rax
	movq	%rax, _TIG_iO_WCN3_1_print_first_unique_1_opaque_ptr_2(%rip)
	nop
	nop
	movq	-72(%rbp), %rax
	movq	%rax, %rdi
	call	strlen@PLT
	movq	%rax, -8(%rbp)
	movq	-8(%rbp), %rax
	movl	%eax, -36(%rbp)
	movb	$0, -54(%rbp)
	movb	$0, -53(%rbp)
	movl	$0, -52(%rbp)
.L9:
	movq	_TIG_iO_WCN3_1_print_first_unique_1_opaque_ptr_1(%rip), %rdx
	movq	_TIG_iO_WCN3_1_print_first_unique_1_opaque_ptr_2(%rip), %rax
	cmpq	%rax, %rdx
	jne	.L2
	movl	-52(%rbp), %eax
	cmpl	-36(%rbp), %eax
	jl	.L3
	jmp	.L4
.L2:
#APP
# 27 "DominicWKelley_C-Programming-Exercises_firstUniqueChar.c" 1
	.byte 0xd4,0x26,0x28,0x80,0xc4,0x8e,0xf1
# 0 "" 2
#NO_APP
.L3:
	movb	$0, -54(%rbp)
	movl	$0, -48(%rbp)
	jmp	.L5
.L7:
	movl	-52(%rbp), %eax
	movslq	%eax, %rdx
	movq	-72(%rbp), %rax
	addq	%rdx, %rax
	movzbl	(%rax), %edx
	movl	-48(%rbp), %eax
	movslq	%eax, %rcx
	movq	-72(%rbp), %rax
	addq	%rcx, %rax
	movzbl	(%rax), %eax
	cmpb	%al, %dl
	jne	.L6
	movl	-52(%rbp), %eax
	cmpl	-48(%rbp), %eax
	je	.L6
	movb	$1, -54(%rbp)
.L6:
	addl	$1, -48(%rbp)
.L5:
	movl	-48(%rbp), %eax
	cmpl	-36(%rbp), %eax
	jl	.L7
	movzbl	-54(%rbp), %eax
	xorl	$1, %eax
	testb	%al, %al
	je	.L8
	movl	-52(%rbp), %eax
	movslq	%eax, %rdx
	movq	-72(%rbp), %rax
	addq	%rdx, %rax
	movzbl	(%rax), %eax
	movsbl	%al, %eax
	movl	%eax, %esi
	leaq	.LC0(%rip), %rax
	movq	%rax, %rdi
	movl	$0, %eax
	call	printf@PLT
	movb	$1, -53(%rbp)
	jmp	.L4
.L8:
	addl	$1, -52(%rbp)
	jmp	.L9
.L4:
	movzbl	-53(%rbp), %eax
	xorl	$1, %eax
	testb	%al, %al
	je	.L12
	leaq	.LC1(%rip), %rax
	movq	%rax, %rdi
	call	puts@PLT
	nop
.L12:
	nop
	leave
	.cfi_def_cfa 7, 8
	ret
	.cfi_endproc
.LFE3:
	.size	print_first_unique, .-print_first_unique
	.globl	main
	.type	main, @function
main:
.LFB5:
	.cfi_startproc
	endbr64
	pushq	%rbp
	.cfi_def_cfa_offset 16
	.cfi_offset 6, -16
	movq	%rsp, %rbp
	.cfi_def_cfa_register 6
	subq	$144, %rsp
	movl	%edi, -116(%rbp)
	movq	%rsi, -128(%rbp)
	movq	%rdx, -136(%rbp)
	movq	%fs:40, %rax
	movq	%rax, -8(%rbp)
	xorl	%eax, %eax
	movq	$0, _TIG_IZ_WCN3_envp(%rip)
	nop
.L14:
	movq	$0, _TIG_IZ_WCN3_argv(%rip)
	nop
.L15:
	movl	$0, _TIG_IZ_WCN3_argc(%rip)
	nop
	nop
.L16:
.L17:
#APP
# 96 "/usr/include/x86_64-linux-gnu/bits/uintn-identity.h" 1
	##_ANNOTATION_INITIALREGION_-TIG-IZ-WCN3--0
# 0 "" 2
#NO_APP
	movl	-116(%rbp), %eax
	movl	%eax, _TIG_IZ_WCN3_argc(%rip)
	movq	-128(%rbp), %rax
	movq	%rax, _TIG_IZ_WCN3_argv(%rip)
	movq	-136(%rbp), %rax
	movq	%rax, _TIG_IZ_WCN3_envp(%rip)
#APP
# 103 "/usr/include/x86_64-linux-gnu/bits/uintn-identity.h" 1
	##_ANNOTATION_ATOMICREGION_-TIG-iO-WCN3-1-main--13
# 0 "" 2
#NO_APP
	movl	$24, %edi
	call	malloc@PLT
	movq	%rax, -88(%rbp)
	movq	-88(%rbp), %rax
	movq	-88(%rbp), %rdx
	movq	%rdx, (%rax)
	movq	-88(%rbp), %rax
	movq	-88(%rbp), %rdx
	movq	%rdx, 8(%rax)
	movq	-88(%rbp), %rax
	movq	%rax, _TIG_iO_WCN3_1_main_1_opaque_list_1(%rip)
	call	rand@PLT
	movl	%eax, -104(%rbp)
	movl	$24, %edi
	call	malloc@PLT
	movq	%rax, -80(%rbp)
	movq	-80(%rbp), %rax
	movl	$0, 16(%rax)
	movq	_TIG_iO_WCN3_1_main_1_opaque_list_1(%rip), %rax
	movq	(%rax), %rdx
	movq	-80(%rbp), %rax
	movq	%rdx, (%rax)
	movq	_TIG_iO_WCN3_1_main_1_opaque_list_1(%rip), %rdx
	movq	-80(%rbp), %rax
	movq	%rdx, 8(%rax)
	movq	_TIG_iO_WCN3_1_main_1_opaque_list_1(%rip), %rax
	movq	(%rax), %rax
	movq	-80(%rbp), %rdx
	movq	%rdx, 8(%rax)
	movq	_TIG_iO_WCN3_1_main_1_opaque_list_1(%rip), %rax
	movq	-80(%rbp), %rdx
	movq	%rdx, (%rax)
	call	rand@PLT
	movl	%eax, -100(%rbp)
	movl	$24, %edi
	call	malloc@PLT
	movq	%rax, -72(%rbp)
	movq	-72(%rbp), %rax
	movl	-100(%rbp), %edx
	movl	%edx, 16(%rax)
	movq	_TIG_iO_WCN3_1_main_1_opaque_list_1(%rip), %rax
	movq	(%rax), %rdx
	movq	-72(%rbp), %rax
	movq	%rdx, (%rax)
	movq	_TIG_iO_WCN3_1_main_1_opaque_list_1(%rip), %rdx
	movq	-72(%rbp), %rax
	movq	%rdx, 8(%rax)
	movq	_TIG_iO_WCN3_1_main_1_opaque_list_1(%rip), %rax
	movq	(%rax), %rax
	movq	-72(%rbp), %rdx
	movq	%rdx, 8(%rax)
	movq	_TIG_iO_WCN3_1_main_1_opaque_list_1(%rip), %rax
	movq	-72(%rbp), %rdx
	movq	%rdx, (%rax)
	call	rand@PLT
	movl	%eax, -96(%rbp)
	movl	$24, %edi
	call	malloc@PLT
	movq	%rax, -64(%rbp)
	movl	-96(%rbp), %eax
	leal	(%rax,%rax), %edx
	movq	-64(%rbp), %rax
	movl	%edx, 16(%rax)
	movq	_TIG_iO_WCN3_1_main_1_opaque_list_1(%rip), %rax
	movq	(%rax), %rdx
	movq	-64(%rbp), %rax
	movq	%rdx, (%rax)
	movq	_TIG_iO_WCN3_1_main_1_opaque_list_1(%rip), %rdx
	movq	-64(%rbp), %rax
	movq	%rdx, 8(%rax)
	movq	_TIG_iO_WCN3_1_main_1_opaque_list_1(%rip), %rax
	movq	(%rax), %rax
	movq	-64(%rbp), %rdx
	movq	%rdx, 8(%rax)
	movq	_TIG_iO_WCN3_1_main_1_opaque_list_1(%rip), %rax
	movq	-64(%rbp), %rdx
	movq	%rdx, (%rax)
	call	rand@PLT
	movl	%eax, -92(%rbp)
	movl	$24, %edi
	call	malloc@PLT
	movq	%rax, -56(%rbp)
	movl	-92(%rbp), %edx
	movl	%edx, %eax
	addl	%eax, %eax
	addl	%eax, %edx
	movq	-56(%rbp), %rax
	movl	%edx, 16(%rax)
	movq	_TIG_iO_WCN3_1_main_1_opaque_list_1(%rip), %rax
	movq	(%rax), %rdx
	movq	-56(%rbp), %rax
	movq	%rdx, (%rax)
	movq	_TIG_iO_WCN3_1_main_1_opaque_list_1(%rip), %rdx
	movq	-56(%rbp), %rax
	movq	%rdx, 8(%rax)
	movq	_TIG_iO_WCN3_1_main_1_opaque_list_1(%rip), %rax
	movq	(%rax), %rax
	movq	-56(%rbp), %rdx
	movq	%rdx, 8(%rax)
	movq	_TIG_iO_WCN3_1_main_1_opaque_list_1(%rip), %rax
	movq	-56(%rbp), %rdx
	movq	%rdx, (%rax)
	movq	_TIG_iO_WCN3_1_main_1_opaque_list_1(%rip), %rax
	movq	(%rax), %rax
	movq	%rax, _TIG_iO_WCN3_1_main_1_opaque_ptr_1(%rip)
	movq	_TIG_iO_WCN3_1_main_1_opaque_ptr_1(%rip), %rax
	movq	%rax, _TIG_iO_WCN3_1_main_1_opaque_ptr_2(%rip)
	movq	_TIG_iO_WCN3_1_main_1_opaque_ptr_2(%rip), %rax
	movq	(%rax), %rax
	movq	%rax, _TIG_iO_WCN3_1_main_1_opaque_ptr_2(%rip)
	nop
	nop
	movq	_TIG_iO_WCN3_1_print_first_unique_1_opaque_ptr_1(%rip), %rdx
	movq	_TIG_iO_WCN3_1_print_first_unique_1_opaque_ptr_2(%rip), %rax
	cmpq	%rax, %rdx
	jne	.L18
	movb	$97, -48(%rbp)
	movb	$98, -47(%rbp)
	movb	$99, -46(%rbp)
	movb	$100, -45(%rbp)
	movb	$101, -44(%rbp)
	movb	$102, -43(%rbp)
	movb	$103, -42(%rbp)
	movb	$104, -41(%rbp)
	movb	$105, -40(%rbp)
	movb	$106, -39(%rbp)
	movb	$107, -38(%rbp)
	movb	$108, -37(%rbp)
	movb	$109, -36(%rbp)
	movb	$110, -35(%rbp)
	movb	$111, -34(%rbp)
	movb	$112, -33(%rbp)
	movb	$97, -32(%rbp)
	movb	$98, -31(%rbp)
	movb	$99, -30(%rbp)
	movb	$100, -29(%rbp)
	movb	$101, -28(%rbp)
	movb	$102, -27(%rbp)
	movb	$103, -26(%rbp)
	movb	$104, -25(%rbp)
	movb	$105, -24(%rbp)
	movb	$0, -23(%rbp)
	leaq	-48(%rbp), %rax
	movq	%rax, %rdi
	call	print_first_unique
.L18:
	movl	$0, %eax
	movq	-8(%rbp), %rdx
	subq	%fs:40, %rdx
	je	.L20
	call	__stack_chk_fail@PLT
.L20:
	leave
	.cfi_def_cfa 7, 8
	ret
	.cfi_endproc
.LFE5:
	.size	main, .-main
	.ident	"GCC: (Ubuntu 11.4.0-1ubuntu1~22.04) 11.4.0"
	.section	.note.GNU-stack,"",@progbits
	.section	.note.gnu.property,"a"
	.align 8
	.long	1f - 0f
	.long	4f - 1f
	.long	5
0:
	.string	"GNU"
1:
	.align 8
	.long	0xc0000002
	.long	3f - 2f
2:
	.long	0x3
3:
	.align 8
4:
