	.file	"DraganValeriu_SM_maincc_opaque.c"
	.text
	.globl	_TIG_iO_qj22_1___uint64_identity_1_opaque_list_1
	.bss
	.align 8
	.type	_TIG_iO_qj22_1___uint64_identity_1_opaque_list_1, @object
	.size	_TIG_iO_qj22_1___uint64_identity_1_opaque_list_1, 8
_TIG_iO_qj22_1___uint64_identity_1_opaque_list_1:
	.zero	8
	.globl	_TIG_iO_qj22_1_histogram_1_opaque_ptr_2
	.align 8
	.type	_TIG_iO_qj22_1_histogram_1_opaque_ptr_2, @object
	.size	_TIG_iO_qj22_1_histogram_1_opaque_ptr_2, 8
_TIG_iO_qj22_1_histogram_1_opaque_ptr_2:
	.zero	8
	.globl	_TIG_iO_qj22_1_interclasare_1_opaque_list_2
	.align 8
	.type	_TIG_iO_qj22_1_interclasare_1_opaque_list_2, @object
	.size	_TIG_iO_qj22_1_interclasare_1_opaque_list_2, 8
_TIG_iO_qj22_1_interclasare_1_opaque_list_2:
	.zero	8
	.globl	_TIG_iO_qj22_1_histogram_1_opaque_list_1
	.align 8
	.type	_TIG_iO_qj22_1_histogram_1_opaque_list_1, @object
	.size	_TIG_iO_qj22_1_histogram_1_opaque_list_1, 8
_TIG_iO_qj22_1_histogram_1_opaque_list_1:
	.zero	8
	.globl	_TIG_iO_qj22_1_interclasare_1_opaque_list_1
	.align 8
	.type	_TIG_iO_qj22_1_interclasare_1_opaque_list_1, @object
	.size	_TIG_iO_qj22_1_interclasare_1_opaque_list_1, 8
_TIG_iO_qj22_1_interclasare_1_opaque_list_1:
	.zero	8
	.globl	_TIG_iO_qj22_1_printArray_1_opaque_ptr_1
	.align 8
	.type	_TIG_iO_qj22_1_printArray_1_opaque_ptr_1, @object
	.size	_TIG_iO_qj22_1_printArray_1_opaque_ptr_1, 8
_TIG_iO_qj22_1_printArray_1_opaque_ptr_1:
	.zero	8
	.globl	_TIG_iO_qj22_1___bswap_64_1_opaque_ptr_2
	.align 8
	.type	_TIG_iO_qj22_1___bswap_64_1_opaque_ptr_2, @object
	.size	_TIG_iO_qj22_1___bswap_64_1_opaque_ptr_2, 8
_TIG_iO_qj22_1___bswap_64_1_opaque_ptr_2:
	.zero	8
	.globl	_TIG_iO_qj22_1___bswap_32_1_opaque_ptr_2
	.align 8
	.type	_TIG_iO_qj22_1___bswap_32_1_opaque_ptr_2, @object
	.size	_TIG_iO_qj22_1___bswap_32_1_opaque_ptr_2, 8
_TIG_iO_qj22_1___bswap_32_1_opaque_ptr_2:
	.zero	8
	.globl	_TIG_iO_qj22_1_main_1_opaque_ptr_2
	.align 8
	.type	_TIG_iO_qj22_1_main_1_opaque_ptr_2, @object
	.size	_TIG_iO_qj22_1_main_1_opaque_ptr_2, 8
_TIG_iO_qj22_1_main_1_opaque_ptr_2:
	.zero	8
	.globl	_TIG_iO_qj22_1___uint16_identity_1_opaque_ptr_1
	.align 8
	.type	_TIG_iO_qj22_1___uint16_identity_1_opaque_ptr_1, @object
	.size	_TIG_iO_qj22_1___uint16_identity_1_opaque_ptr_1, 8
_TIG_iO_qj22_1___uint16_identity_1_opaque_ptr_1:
	.zero	8
	.globl	_TIG_iO_qj22_1_print_hist_1_opaque_ptr_1
	.align 8
	.type	_TIG_iO_qj22_1_print_hist_1_opaque_ptr_1, @object
	.size	_TIG_iO_qj22_1_print_hist_1_opaque_ptr_1, 8
_TIG_iO_qj22_1_print_hist_1_opaque_ptr_1:
	.zero	8
	.globl	_TIG_iO_qj22_1___uint64_identity_1_opaque_ptr_1
	.align 8
	.type	_TIG_iO_qj22_1___uint64_identity_1_opaque_ptr_1, @object
	.size	_TIG_iO_qj22_1___uint64_identity_1_opaque_ptr_1, 8
_TIG_iO_qj22_1___uint64_identity_1_opaque_ptr_1:
	.zero	8
	.globl	_TIG_iO_qj22_1___uint16_identity_1_opaque_ptr_2
	.align 8
	.type	_TIG_iO_qj22_1___uint16_identity_1_opaque_ptr_2, @object
	.size	_TIG_iO_qj22_1___uint16_identity_1_opaque_ptr_2, 8
_TIG_iO_qj22_1___uint16_identity_1_opaque_ptr_2:
	.zero	8
	.globl	_TIG_iO_qj22_1_print_hist_1_opaque_ptr_2
	.align 8
	.type	_TIG_iO_qj22_1_print_hist_1_opaque_ptr_2, @object
	.size	_TIG_iO_qj22_1_print_hist_1_opaque_ptr_2, 8
_TIG_iO_qj22_1_print_hist_1_opaque_ptr_2:
	.zero	8
	.globl	_TIG_iO_qj22_1___uint32_identity_1_opaque_ptr_2
	.align 8
	.type	_TIG_iO_qj22_1___uint32_identity_1_opaque_ptr_2, @object
	.size	_TIG_iO_qj22_1___uint32_identity_1_opaque_ptr_2, 8
_TIG_iO_qj22_1___uint32_identity_1_opaque_ptr_2:
	.zero	8
	.globl	_TIG_iO_qj22_1___uint32_identity_1_opaque_list_1
	.align 8
	.type	_TIG_iO_qj22_1___uint32_identity_1_opaque_list_1, @object
	.size	_TIG_iO_qj22_1___uint32_identity_1_opaque_list_1, 8
_TIG_iO_qj22_1___uint32_identity_1_opaque_list_1:
	.zero	8
	.globl	_TIG_iO_qj22_1___uint64_identity_1_opaque_list_2
	.align 8
	.type	_TIG_iO_qj22_1___uint64_identity_1_opaque_list_2, @object
	.size	_TIG_iO_qj22_1___uint64_identity_1_opaque_list_2, 8
_TIG_iO_qj22_1___uint64_identity_1_opaque_list_2:
	.zero	8
	.globl	_TIG_iO_qj22_1_main_1_opaque_ptr_1
	.align 8
	.type	_TIG_iO_qj22_1_main_1_opaque_ptr_1, @object
	.size	_TIG_iO_qj22_1_main_1_opaque_ptr_1, 8
_TIG_iO_qj22_1_main_1_opaque_ptr_1:
	.zero	8
	.globl	n
	.align 4
	.type	n, @object
	.size	n, 4
n:
	.zero	4
	.globl	_TIG_iO_qj22_1___bswap_32_1_opaque_list_2
	.align 8
	.type	_TIG_iO_qj22_1___bswap_32_1_opaque_list_2, @object
	.size	_TIG_iO_qj22_1___bswap_32_1_opaque_list_2, 8
_TIG_iO_qj22_1___bswap_32_1_opaque_list_2:
	.zero	8
	.globl	_TIG_iO_qj22_1_main_1_opaque_list_1
	.align 8
	.type	_TIG_iO_qj22_1_main_1_opaque_list_1, @object
	.size	_TIG_iO_qj22_1_main_1_opaque_list_1, 8
_TIG_iO_qj22_1_main_1_opaque_list_1:
	.zero	8
	.globl	_TIG_iO_qj22_1_print_hist_1_opaque_list_2
	.align 8
	.type	_TIG_iO_qj22_1_print_hist_1_opaque_list_2, @object
	.size	_TIG_iO_qj22_1_print_hist_1_opaque_list_2, 8
_TIG_iO_qj22_1_print_hist_1_opaque_list_2:
	.zero	8
	.globl	_TIG_iO_qj22_1___bswap_16_1_opaque_ptr_2
	.align 8
	.type	_TIG_iO_qj22_1___bswap_16_1_opaque_ptr_2, @object
	.size	_TIG_iO_qj22_1___bswap_16_1_opaque_ptr_2, 8
_TIG_iO_qj22_1___bswap_16_1_opaque_ptr_2:
	.zero	8
	.globl	_TIG_iO_qj22_1___uint16_identity_1_opaque_list_2
	.align 8
	.type	_TIG_iO_qj22_1___uint16_identity_1_opaque_list_2, @object
	.size	_TIG_iO_qj22_1___uint16_identity_1_opaque_list_2, 8
_TIG_iO_qj22_1___uint16_identity_1_opaque_list_2:
	.zero	8
	.globl	_TIG_iO_qj22_1___bswap_64_1_opaque_list_2
	.align 8
	.type	_TIG_iO_qj22_1___bswap_64_1_opaque_list_2, @object
	.size	_TIG_iO_qj22_1___bswap_64_1_opaque_list_2, 8
_TIG_iO_qj22_1___bswap_64_1_opaque_list_2:
	.zero	8
	.globl	_TIG_IZ_qj22_argc
	.align 4
	.type	_TIG_IZ_qj22_argc, @object
	.size	_TIG_IZ_qj22_argc, 4
_TIG_IZ_qj22_argc:
	.zero	4
	.globl	_TIG_iO_qj22_1_histogram_1_opaque_ptr_1
	.align 8
	.type	_TIG_iO_qj22_1_histogram_1_opaque_ptr_1, @object
	.size	_TIG_iO_qj22_1_histogram_1_opaque_ptr_1, 8
_TIG_iO_qj22_1_histogram_1_opaque_ptr_1:
	.zero	8
	.globl	_TIG_iO_qj22_1_printArray_1_opaque_list_1
	.align 8
	.type	_TIG_iO_qj22_1_printArray_1_opaque_list_1, @object
	.size	_TIG_iO_qj22_1_printArray_1_opaque_list_1, 8
_TIG_iO_qj22_1_printArray_1_opaque_list_1:
	.zero	8
	.globl	_TIG_iO_qj22_1___bswap_16_1_opaque_ptr_1
	.align 8
	.type	_TIG_iO_qj22_1___bswap_16_1_opaque_ptr_1, @object
	.size	_TIG_iO_qj22_1___bswap_16_1_opaque_ptr_1, 8
_TIG_iO_qj22_1___bswap_16_1_opaque_ptr_1:
	.zero	8
	.globl	_TIG_iO_qj22_1_main_1_opaque_list_2
	.align 8
	.type	_TIG_iO_qj22_1_main_1_opaque_list_2, @object
	.size	_TIG_iO_qj22_1_main_1_opaque_list_2, 8
_TIG_iO_qj22_1_main_1_opaque_list_2:
	.zero	8
	.globl	_TIG_iO_qj22_1_printArray_1_opaque_ptr_2
	.align 8
	.type	_TIG_iO_qj22_1_printArray_1_opaque_ptr_2, @object
	.size	_TIG_iO_qj22_1_printArray_1_opaque_ptr_2, 8
_TIG_iO_qj22_1_printArray_1_opaque_ptr_2:
	.zero	8
	.globl	_TIG_IZ_qj22_argv
	.align 8
	.type	_TIG_IZ_qj22_argv, @object
	.size	_TIG_IZ_qj22_argv, 8
_TIG_IZ_qj22_argv:
	.zero	8
	.globl	_TIG_iO_qj22_1_interclasare_1_opaque_ptr_2
	.align 8
	.type	_TIG_iO_qj22_1_interclasare_1_opaque_ptr_2, @object
	.size	_TIG_iO_qj22_1_interclasare_1_opaque_ptr_2, 8
_TIG_iO_qj22_1_interclasare_1_opaque_ptr_2:
	.zero	8
	.globl	_TIG_iO_qj22_1_printArray_1_opaque_list_2
	.align 8
	.type	_TIG_iO_qj22_1_printArray_1_opaque_list_2, @object
	.size	_TIG_iO_qj22_1_printArray_1_opaque_list_2, 8
_TIG_iO_qj22_1_printArray_1_opaque_list_2:
	.zero	8
	.globl	_TIG_iO_qj22_1___bswap_64_1_opaque_list_1
	.align 8
	.type	_TIG_iO_qj22_1___bswap_64_1_opaque_list_1, @object
	.size	_TIG_iO_qj22_1___bswap_64_1_opaque_list_1, 8
_TIG_iO_qj22_1___bswap_64_1_opaque_list_1:
	.zero	8
	.globl	_TIG_iO_qj22_1___bswap_16_1_opaque_list_1
	.align 8
	.type	_TIG_iO_qj22_1___bswap_16_1_opaque_list_1, @object
	.size	_TIG_iO_qj22_1___bswap_16_1_opaque_list_1, 8
_TIG_iO_qj22_1___bswap_16_1_opaque_list_1:
	.zero	8
	.globl	_TIG_iO_qj22_1___uint64_identity_1_opaque_ptr_2
	.align 8
	.type	_TIG_iO_qj22_1___uint64_identity_1_opaque_ptr_2, @object
	.size	_TIG_iO_qj22_1___uint64_identity_1_opaque_ptr_2, 8
_TIG_iO_qj22_1___uint64_identity_1_opaque_ptr_2:
	.zero	8
	.globl	_TIG_iO_qj22_1___bswap_32_1_opaque_ptr_1
	.align 8
	.type	_TIG_iO_qj22_1___bswap_32_1_opaque_ptr_1, @object
	.size	_TIG_iO_qj22_1___bswap_32_1_opaque_ptr_1, 8
_TIG_iO_qj22_1___bswap_32_1_opaque_ptr_1:
	.zero	8
	.globl	_TIG_IZ_qj22_envp
	.align 8
	.type	_TIG_IZ_qj22_envp, @object
	.size	_TIG_IZ_qj22_envp, 8
_TIG_IZ_qj22_envp:
	.zero	8
	.globl	_TIG_iO_qj22_1_interclasare_1_opaque_ptr_1
	.align 8
	.type	_TIG_iO_qj22_1_interclasare_1_opaque_ptr_1, @object
	.size	_TIG_iO_qj22_1_interclasare_1_opaque_ptr_1, 8
_TIG_iO_qj22_1_interclasare_1_opaque_ptr_1:
	.zero	8
	.globl	_TIG_iO_qj22_1___bswap_16_1_opaque_list_2
	.align 8
	.type	_TIG_iO_qj22_1___bswap_16_1_opaque_list_2, @object
	.size	_TIG_iO_qj22_1___bswap_16_1_opaque_list_2, 8
_TIG_iO_qj22_1___bswap_16_1_opaque_list_2:
	.zero	8
	.globl	_TIG_iO_qj22_1___uint16_identity_1_opaque_list_1
	.align 8
	.type	_TIG_iO_qj22_1___uint16_identity_1_opaque_list_1, @object
	.size	_TIG_iO_qj22_1___uint16_identity_1_opaque_list_1, 8
_TIG_iO_qj22_1___uint16_identity_1_opaque_list_1:
	.zero	8
	.globl	_TIG_iO_qj22_1___bswap_64_1_opaque_ptr_1
	.align 8
	.type	_TIG_iO_qj22_1___bswap_64_1_opaque_ptr_1, @object
	.size	_TIG_iO_qj22_1___bswap_64_1_opaque_ptr_1, 8
_TIG_iO_qj22_1___bswap_64_1_opaque_ptr_1:
	.zero	8
	.globl	_TIG_iO_qj22_1___bswap_32_1_opaque_list_1
	.align 8
	.type	_TIG_iO_qj22_1___bswap_32_1_opaque_list_1, @object
	.size	_TIG_iO_qj22_1___bswap_32_1_opaque_list_1, 8
_TIG_iO_qj22_1___bswap_32_1_opaque_list_1:
	.zero	8
	.globl	_TIG_iO_qj22_1_histogram_1_opaque_list_2
	.align 8
	.type	_TIG_iO_qj22_1_histogram_1_opaque_list_2, @object
	.size	_TIG_iO_qj22_1_histogram_1_opaque_list_2, 8
_TIG_iO_qj22_1_histogram_1_opaque_list_2:
	.zero	8
	.globl	_TIG_iO_qj22_1___uint32_identity_1_opaque_ptr_1
	.align 8
	.type	_TIG_iO_qj22_1___uint32_identity_1_opaque_ptr_1, @object
	.size	_TIG_iO_qj22_1___uint32_identity_1_opaque_ptr_1, 8
_TIG_iO_qj22_1___uint32_identity_1_opaque_ptr_1:
	.zero	8
	.globl	_TIG_iO_qj22_1___uint32_identity_1_opaque_list_2
	.align 8
	.type	_TIG_iO_qj22_1___uint32_identity_1_opaque_list_2, @object
	.size	_TIG_iO_qj22_1___uint32_identity_1_opaque_list_2, 8
_TIG_iO_qj22_1___uint32_identity_1_opaque_list_2:
	.zero	8
	.globl	_TIG_iO_qj22_1_print_hist_1_opaque_list_1
	.align 8
	.type	_TIG_iO_qj22_1_print_hist_1_opaque_list_1, @object
	.size	_TIG_iO_qj22_1_print_hist_1_opaque_list_1, 8
_TIG_iO_qj22_1_print_hist_1_opaque_list_1:
	.zero	8
	.section	.rodata
.LC0:
	.string	"%d "
.LC1:
	.string	"%d"
.LC2:
	.string	" #"
.LC3:
	.string	"  "
.LC4:
	.string	" -"
	.text
	.globl	print_hist
	.type	print_hist, @function
print_hist:
.LFB5:
	.cfi_startproc
	endbr64
	pushq	%rbp
	.cfi_def_cfa_offset 16
	.cfi_offset 6, -16
	movq	%rsp, %rbp
	.cfi_def_cfa_register 6
	subq	$80, %rsp
	movq	%rdi, -72(%rbp)
	movl	%esi, -76(%rbp)
#APP
# 94 "/usr/include/x86_64-linux-gnu/bits/byteswap.h" 1
	##_ANNOTATION_INITIALREGION_-TIG-iO-qj22-1-print-hist--22
# 0 "" 2
# 98 "/usr/include/x86_64-linux-gnu/bits/byteswap.h" 1
	##_ANNOTATION_ATOMICREGION_-TIG-iO-qj22-1-print-hist--21
# 0 "" 2
#NO_APP
	movl	$24, %edi
	call	malloc@PLT
	movq	%rax, -32(%rbp)
	movq	-32(%rbp), %rax
	movq	-32(%rbp), %rdx
	movq	%rdx, (%rax)
	movq	-32(%rbp), %rax
	movq	-32(%rbp), %rdx
	movq	%rdx, 16(%rax)
	movq	-32(%rbp), %rax
	movq	%rax, _TIG_iO_qj22_1_print_hist_1_opaque_list_1(%rip)
	call	rand@PLT
	movl	%eax, -44(%rbp)
	movl	$24, %edi
	call	malloc@PLT
	movq	%rax, -24(%rbp)
	movq	-24(%rbp), %rax
	movl	$0, 8(%rax)
	movq	_TIG_iO_qj22_1_print_hist_1_opaque_list_1(%rip), %rax
	movq	(%rax), %rdx
	movq	-24(%rbp), %rax
	movq	%rdx, (%rax)
	movq	_TIG_iO_qj22_1_print_hist_1_opaque_list_1(%rip), %rdx
	movq	-24(%rbp), %rax
	movq	%rdx, 16(%rax)
	movq	_TIG_iO_qj22_1_print_hist_1_opaque_list_1(%rip), %rax
	movq	(%rax), %rax
	movq	-24(%rbp), %rdx
	movq	%rdx, 16(%rax)
	movq	_TIG_iO_qj22_1_print_hist_1_opaque_list_1(%rip), %rax
	movq	-24(%rbp), %rdx
	movq	%rdx, (%rax)
	call	rand@PLT
	movl	%eax, -40(%rbp)
	movl	$24, %edi
	call	malloc@PLT
	movq	%rax, -16(%rbp)
	movq	-16(%rbp), %rax
	movl	-40(%rbp), %edx
	movl	%edx, 8(%rax)
	movq	_TIG_iO_qj22_1_print_hist_1_opaque_list_1(%rip), %rax
	movq	(%rax), %rdx
	movq	-16(%rbp), %rax
	movq	%rdx, (%rax)
	movq	_TIG_iO_qj22_1_print_hist_1_opaque_list_1(%rip), %rdx
	movq	-16(%rbp), %rax
	movq	%rdx, 16(%rax)
	movq	_TIG_iO_qj22_1_print_hist_1_opaque_list_1(%rip), %rax
	movq	(%rax), %rax
	movq	-16(%rbp), %rdx
	movq	%rdx, 16(%rax)
	movq	_TIG_iO_qj22_1_print_hist_1_opaque_list_1(%rip), %rax
	movq	-16(%rbp), %rdx
	movq	%rdx, (%rax)
	call	rand@PLT
	movl	%eax, -36(%rbp)
	movl	$24, %edi
	call	malloc@PLT
	movq	%rax, -8(%rbp)
	movl	-36(%rbp), %eax
	leal	(%rax,%rax), %edx
	movq	-8(%rbp), %rax
	movl	%edx, 8(%rax)
	movq	_TIG_iO_qj22_1_print_hist_1_opaque_list_1(%rip), %rax
	movq	(%rax), %rdx
	movq	-8(%rbp), %rax
	movq	%rdx, (%rax)
	movq	_TIG_iO_qj22_1_print_hist_1_opaque_list_1(%rip), %rdx
	movq	-8(%rbp), %rax
	movq	%rdx, 16(%rax)
	movq	_TIG_iO_qj22_1_print_hist_1_opaque_list_1(%rip), %rax
	movq	(%rax), %rax
	movq	-8(%rbp), %rdx
	movq	%rdx, 16(%rax)
	movq	_TIG_iO_qj22_1_print_hist_1_opaque_list_1(%rip), %rax
	movq	-8(%rbp), %rdx
	movq	%rdx, (%rax)
	movq	_TIG_iO_qj22_1_print_hist_1_opaque_list_1(%rip), %rax
	movq	(%rax), %rax
	movq	%rax, _TIG_iO_qj22_1_print_hist_1_opaque_ptr_1(%rip)
	movq	_TIG_iO_qj22_1_print_hist_1_opaque_ptr_1(%rip), %rax
	movq	%rax, _TIG_iO_qj22_1_print_hist_1_opaque_ptr_2(%rip)
	movq	_TIG_iO_qj22_1_print_hist_1_opaque_ptr_2(%rip), %rax
	movq	(%rax), %rax
	movq	%rax, _TIG_iO_qj22_1_print_hist_1_opaque_ptr_2(%rip)
	nop
	nop
	movl	$0, -52(%rbp)
	jmp	.L2
.L6:
	movl	-52(%rbp), %eax
	cltq
	leaq	0(,%rax,4), %rdx
	movq	-72(%rbp), %rax
	addq	%rdx, %rax
	movl	(%rax), %ecx
	movslq	%ecx, %rax
	imulq	$1717986919, %rax, %rax
	shrq	$32, %rax
	sarl	$2, %eax
	movl	%ecx, %esi
	sarl	$31, %esi
	subl	%esi, %eax
	movl	%eax, %edx
	movl	%edx, %eax
	sall	$2, %eax
	addl	%edx, %eax
	addl	%eax, %eax
	subl	%eax, %ecx
	movl	%ecx, %edx
	testl	%edx, %edx
	jle	.L3
	movl	-52(%rbp), %eax
	cltq
	leaq	0(,%rax,4), %rdx
	movq	-72(%rbp), %rax
	addq	%rdx, %rax
	movl	(%rax), %eax
	cmpl	$9, %eax
	jle	.L4
	movl	$1, -48(%rbp)
	jmp	.L5
.L4:
	movl	$0, -48(%rbp)
	jmp	.L5
.L3:
	movl	$0, -48(%rbp)
.L5:
	movl	-52(%rbp), %eax
	cltq
	leaq	0(,%rax,4), %rdx
	movq	-72(%rbp), %rax
	addq	%rdx, %rax
	movl	(%rax), %eax
	movslq	%eax, %rdx
	imulq	$1717986919, %rdx, %rdx
	shrq	$32, %rdx
	sarl	$2, %edx
	sarl	$31, %eax
	movl	%edx, %ecx
	subl	%eax, %ecx
	movl	-52(%rbp), %eax
	cltq
	leaq	0(,%rax,4), %rdx
	movq	-72(%rbp), %rax
	addq	%rdx, %rax
	movl	-48(%rbp), %edx
	addl	%ecx, %edx
	movl	%edx, (%rax)
	addl	$1, -52(%rbp)
.L2:
	movl	-52(%rbp), %eax
	cmpl	-76(%rbp), %eax
	jl	.L6
	movl	$0, -56(%rbp)
.L11:
	cmpl	$15, -56(%rbp)
	jle	.L7
	movq	_TIG_iO_qj22_1_print_hist_1_opaque_ptr_1(%rip), %rdx
	movq	_TIG_iO_qj22_1_print_hist_1_opaque_ptr_2(%rip), %rax
	cmpq	%rax, %rdx
	je	.L22
	jmp	.L21
.L7:
	movl	-56(%rbp), %eax
	cltq
	leaq	0(,%rax,4), %rdx
	movq	-72(%rbp), %rax
	addq	%rdx, %rax
	movl	(%rax), %eax
	movl	%eax, %esi
	leaq	.LC0(%rip), %rax
	movq	%rax, %rdi
	movl	$0, %eax
	call	printf@PLT
	addl	$1, -56(%rbp)
	jmp	.L11
.L21:
	movl	$10, %edi
	call	putchar@PLT
	movl	$0, -56(%rbp)
	jmp	.L12
.L18:
	movl	$9, %eax
	subl	-56(%rbp), %eax
	movl	%eax, %esi
	leaq	.LC1(%rip), %rax
	movq	%rax, %rdi
	movl	$0, %eax
	call	printf@PLT
	movl	$0, -52(%rbp)
	jmp	.L13
.L17:
	movl	-52(%rbp), %eax
	cltq
	leaq	0(,%rax,4), %rdx
	movq	-72(%rbp), %rax
	addq	%rdx, %rax
	movl	(%rax), %eax
	cmpl	$1, %eax
	jle	.L14
	movl	-52(%rbp), %eax
	cltq
	leaq	0(,%rax,4), %rdx
	movq	-72(%rbp), %rax
	addq	%rdx, %rax
	movl	(%rax), %edx
	movl	$9, %eax
	subl	-56(%rbp), %eax
	cmpl	%eax, %edx
	jl	.L15
	leaq	.LC2(%rip), %rax
	movq	%rax, %rdi
	movl	$0, %eax
	call	printf@PLT
	jmp	.L16
.L15:
	leaq	.LC3(%rip), %rax
	movq	%rax, %rdi
	movl	$0, %eax
	call	printf@PLT
	jmp	.L16
.L14:
	leaq	.LC3(%rip), %rax
	movq	%rax, %rdi
	movl	$0, %eax
	call	printf@PLT
.L16:
	addl	$1, -52(%rbp)
.L13:
	cmpl	$15, -52(%rbp)
	jle	.L17
	movl	$10, %edi
	call	putchar@PLT
	addl	$1, -56(%rbp)
.L12:
	cmpl	$9, -56(%rbp)
	jle	.L18
	movl	$43, %edi
	call	putchar@PLT
	movl	$0, -52(%rbp)
	jmp	.L19
.L20:
	leaq	.LC4(%rip), %rax
	movq	%rax, %rdi
	movl	$0, %eax
	call	printf@PLT
	addl	$1, -52(%rbp)
.L19:
	movl	-52(%rbp), %eax
	cmpl	-76(%rbp), %eax
	jl	.L20
	jmp	.L1
.L22:
	nop
.L1:
	leave
	.cfi_def_cfa 7, 8
	ret
	.cfi_endproc
.LFE5:
	.size	print_hist, .-print_hist
	.globl	interclasare
	.type	interclasare, @function
interclasare:
.LFB6:
	.cfi_startproc
	endbr64
	pushq	%rbp
	.cfi_def_cfa_offset 16
	.cfi_offset 6, -16
	movq	%rsp, %rbp
	.cfi_def_cfa_register 6
	subq	$96, %rsp
	movq	%rdi, -72(%rbp)
	movl	%esi, -76(%rbp)
	movq	%rdx, -88(%rbp)
	movl	%ecx, -80(%rbp)
#APP
# 58 "DraganValeriu_SM_maincc.c" 1
	##_ANNOTATION_INITIALREGION_-TIG-iO-qj22-1-interclasare--16
# 0 "" 2
# 62 "DraganValeriu_SM_maincc.c" 1
	##_ANNOTATION_ATOMICREGION_-TIG-iO-qj22-1-interclasare--15
# 0 "" 2
#NO_APP
	movl	$24, %edi
	call	malloc@PLT
	movq	%rax, -40(%rbp)
	movq	-40(%rbp), %rax
	movq	-40(%rbp), %rdx
	movq	%rdx, 16(%rax)
	movq	-40(%rbp), %rax
	movq	-40(%rbp), %rdx
	movq	%rdx, 8(%rax)
	movq	-40(%rbp), %rax
	movq	%rax, _TIG_iO_qj22_1_interclasare_1_opaque_list_1(%rip)
	call	rand@PLT
	movl	%eax, -52(%rbp)
	movl	$24, %edi
	call	malloc@PLT
	movq	%rax, -32(%rbp)
	movq	-32(%rbp), %rax
	movl	$0, (%rax)
	movq	_TIG_iO_qj22_1_interclasare_1_opaque_list_1(%rip), %rax
	movq	16(%rax), %rdx
	movq	-32(%rbp), %rax
	movq	%rdx, 16(%rax)
	movq	_TIG_iO_qj22_1_interclasare_1_opaque_list_1(%rip), %rdx
	movq	-32(%rbp), %rax
	movq	%rdx, 8(%rax)
	movq	_TIG_iO_qj22_1_interclasare_1_opaque_list_1(%rip), %rax
	movq	16(%rax), %rax
	movq	-32(%rbp), %rdx
	movq	%rdx, 8(%rax)
	movq	_TIG_iO_qj22_1_interclasare_1_opaque_list_1(%rip), %rax
	movq	-32(%rbp), %rdx
	movq	%rdx, 16(%rax)
	call	rand@PLT
	movl	%eax, -48(%rbp)
	movl	$24, %edi
	call	malloc@PLT
	movq	%rax, -24(%rbp)
	movq	-24(%rbp), %rax
	movl	-48(%rbp), %edx
	movl	%edx, (%rax)
	movq	_TIG_iO_qj22_1_interclasare_1_opaque_list_1(%rip), %rax
	movq	16(%rax), %rdx
	movq	-24(%rbp), %rax
	movq	%rdx, 16(%rax)
	movq	_TIG_iO_qj22_1_interclasare_1_opaque_list_1(%rip), %rdx
	movq	-24(%rbp), %rax
	movq	%rdx, 8(%rax)
	movq	_TIG_iO_qj22_1_interclasare_1_opaque_list_1(%rip), %rax
	movq	16(%rax), %rax
	movq	-24(%rbp), %rdx
	movq	%rdx, 8(%rax)
	movq	_TIG_iO_qj22_1_interclasare_1_opaque_list_1(%rip), %rax
	movq	-24(%rbp), %rdx
	movq	%rdx, 16(%rax)
	movq	_TIG_iO_qj22_1_interclasare_1_opaque_list_1(%rip), %rax
	movq	16(%rax), %rax
	movq	%rax, _TIG_iO_qj22_1_interclasare_1_opaque_ptr_1(%rip)
	movq	_TIG_iO_qj22_1_interclasare_1_opaque_ptr_1(%rip), %rax
	movq	%rax, _TIG_iO_qj22_1_interclasare_1_opaque_ptr_2(%rip)
	nop
	nop
	movl	-76(%rbp), %edx
	movl	-80(%rbp), %eax
	addl	%edx, %eax
	movl	%eax, -44(%rbp)
	movl	-44(%rbp), %eax
	cltq
	salq	$2, %rax
	movq	%rax, %rdi
	call	malloc@PLT
	movq	%rax, -16(%rbp)
	movq	-16(%rbp), %rax
	movq	%rax, -8(%rbp)
	movl	$0, -64(%rbp)
	movl	$0, -60(%rbp)
	movl	$0, -56(%rbp)
.L29:
	movl	-64(%rbp), %eax
	cmpl	-76(%rbp), %eax
	jge	.L36
	movl	-60(%rbp), %eax
	cmpl	-80(%rbp), %eax
	jge	.L37
	movl	-64(%rbp), %eax
	cltq
	leaq	0(,%rax,4), %rdx
	movq	-72(%rbp), %rax
	addq	%rdx, %rax
	movl	(%rax), %edx
	movl	-60(%rbp), %eax
	cltq
	leaq	0(,%rax,4), %rcx
	movq	-88(%rbp), %rax
	addq	%rcx, %rax
	movl	(%rax), %eax
	cmpl	%eax, %edx
	jge	.L27
	movl	-64(%rbp), %eax
	cltq
	leaq	0(,%rax,4), %rdx
	movq	-72(%rbp), %rax
	addq	%rdx, %rax
	movl	-56(%rbp), %edx
	movslq	%edx, %rdx
	leaq	0(,%rdx,4), %rcx
	movq	-8(%rbp), %rdx
	addq	%rcx, %rdx
	movl	(%rax), %eax
	movl	%eax, (%rdx)
	addl	$1, -64(%rbp)
	jmp	.L28
.L27:
	movl	-60(%rbp), %eax
	cltq
	leaq	0(,%rax,4), %rdx
	movq	-88(%rbp), %rax
	addq	%rdx, %rax
	movl	-56(%rbp), %edx
	movslq	%edx, %rdx
	leaq	0(,%rdx,4), %rcx
	movq	-8(%rbp), %rdx
	addq	%rcx, %rdx
	movl	(%rax), %eax
	movl	%eax, (%rdx)
	addl	$1, -60(%rbp)
.L28:
	addl	$1, -56(%rbp)
	jmp	.L29
.L36:
	nop
	jmp	.L30
.L37:
	nop
	jmp	.L30
.L31:
	movl	-64(%rbp), %eax
	cltq
	leaq	0(,%rax,4), %rdx
	movq	-72(%rbp), %rax
	addq	%rdx, %rax
	movl	-56(%rbp), %edx
	movslq	%edx, %rdx
	leaq	0(,%rdx,4), %rcx
	movq	-8(%rbp), %rdx
	addq	%rcx, %rdx
	movl	(%rax), %eax
	movl	%eax, (%rdx)
	addl	$1, -64(%rbp)
	addl	$1, -56(%rbp)
.L30:
	movl	-64(%rbp), %eax
	cmpl	-76(%rbp), %eax
	jl	.L31
	jmp	.L32
.L33:
	movl	-60(%rbp), %eax
	cltq
	leaq	0(,%rax,4), %rdx
	movq	-88(%rbp), %rax
	addq	%rdx, %rax
	movl	-56(%rbp), %edx
	movslq	%edx, %rdx
	leaq	0(,%rdx,4), %rcx
	movq	-8(%rbp), %rdx
	addq	%rcx, %rdx
	movl	(%rax), %eax
	movl	%eax, (%rdx)
	addl	$1, -60(%rbp)
	addl	$1, -56(%rbp)
.L32:
	movl	-60(%rbp), %eax
	cmpl	-80(%rbp), %eax
	jl	.L33
	movq	_TIG_iO_qj22_1_print_hist_1_opaque_ptr_1(%rip), %rdx
	movq	_TIG_iO_qj22_1_print_hist_1_opaque_ptr_2(%rip), %rax
	cmpq	%rax, %rdx
	je	.L34
	movq	-8(%rbp), %rax
	jmp	.L23
.L34:
.L23:
	leave
	.cfi_def_cfa 7, 8
	ret
	.cfi_endproc
.LFE6:
	.size	interclasare, .-interclasare
	.globl	printArray
	.type	printArray, @function
printArray:
.LFB7:
	.cfi_startproc
	endbr64
	pushq	%rbp
	.cfi_def_cfa_offset 16
	.cfi_offset 6, -16
	movq	%rsp, %rbp
	.cfi_def_cfa_register 6
	subq	$64, %rsp
	movq	%rdi, -56(%rbp)
	movl	%esi, -60(%rbp)
#APP
# 108 "DraganValeriu_SM_maincc.c" 1
	##_ANNOTATION_INITIALREGION_-TIG-iO-qj22-1-printArray--20
# 0 "" 2
# 112 "DraganValeriu_SM_maincc.c" 1
	##_ANNOTATION_ATOMICREGION_-TIG-iO-qj22-1-printArray--19
# 0 "" 2
#NO_APP
	movl	$24, %edi
	call	malloc@PLT
	movq	%rax, -24(%rbp)
	movq	-24(%rbp), %rax
	movq	-24(%rbp), %rdx
	movq	%rdx, 8(%rax)
	movq	-24(%rbp), %rax
	movq	-24(%rbp), %rdx
	movq	%rdx, 16(%rax)
	movq	-24(%rbp), %rax
	movq	%rax, _TIG_iO_qj22_1_printArray_1_opaque_list_1(%rip)
	call	rand@PLT
	movl	%eax, -32(%rbp)
	movl	$24, %edi
	call	malloc@PLT
	movq	%rax, -16(%rbp)
	movq	-16(%rbp), %rax
	movl	$0, (%rax)
	movq	_TIG_iO_qj22_1_printArray_1_opaque_list_1(%rip), %rax
	movq	8(%rax), %rdx
	movq	-16(%rbp), %rax
	movq	%rdx, 8(%rax)
	movq	_TIG_iO_qj22_1_printArray_1_opaque_list_1(%rip), %rdx
	movq	-16(%rbp), %rax
	movq	%rdx, 16(%rax)
	movq	_TIG_iO_qj22_1_printArray_1_opaque_list_1(%rip), %rax
	movq	8(%rax), %rax
	movq	-16(%rbp), %rdx
	movq	%rdx, 16(%rax)
	movq	_TIG_iO_qj22_1_printArray_1_opaque_list_1(%rip), %rax
	movq	-16(%rbp), %rdx
	movq	%rdx, 8(%rax)
	call	rand@PLT
	movl	%eax, -28(%rbp)
	movl	$24, %edi
	call	malloc@PLT
	movq	%rax, -8(%rbp)
	movq	-8(%rbp), %rax
	movl	-28(%rbp), %edx
	movl	%edx, (%rax)
	movq	_TIG_iO_qj22_1_printArray_1_opaque_list_1(%rip), %rax
	movq	8(%rax), %rdx
	movq	-8(%rbp), %rax
	movq	%rdx, 8(%rax)
	movq	_TIG_iO_qj22_1_printArray_1_opaque_list_1(%rip), %rdx
	movq	-8(%rbp), %rax
	movq	%rdx, 16(%rax)
	movq	_TIG_iO_qj22_1_printArray_1_opaque_list_1(%rip), %rax
	movq	8(%rax), %rax
	movq	-8(%rbp), %rdx
	movq	%rdx, 16(%rax)
	movq	_TIG_iO_qj22_1_printArray_1_opaque_list_1(%rip), %rax
	movq	-8(%rbp), %rdx
	movq	%rdx, 8(%rax)
	movq	_TIG_iO_qj22_1_printArray_1_opaque_list_1(%rip), %rax
	movq	8(%rax), %rax
	movq	%rax, _TIG_iO_qj22_1_printArray_1_opaque_ptr_1(%rip)
	movq	_TIG_iO_qj22_1_printArray_1_opaque_ptr_1(%rip), %rax
	movq	%rax, _TIG_iO_qj22_1_printArray_1_opaque_ptr_2(%rip)
	nop
	nop
	movl	$0, -36(%rbp)
	jmp	.L39
.L40:
	movl	-36(%rbp), %eax
	cltq
	leaq	0(,%rax,4), %rdx
	movq	-56(%rbp), %rax
	addq	%rdx, %rax
	movl	(%rax), %eax
	movl	%eax, %esi
	leaq	.LC0(%rip), %rax
	movq	%rax, %rdi
	movl	$0, %eax
	call	printf@PLT
	addl	$1, -36(%rbp)
.L39:
	movl	-36(%rbp), %eax
	cmpl	-60(%rbp), %eax
	jl	.L40
	movl	$10, %edi
	call	putchar@PLT
	movq	_TIG_iO_qj22_1_print_hist_1_opaque_ptr_1(%rip), %rdx
	movq	_TIG_iO_qj22_1_print_hist_1_opaque_ptr_2(%rip), %rax
	cmpq	%rax, %rdx
	leave
	.cfi_def_cfa 7, 8
	ret
	.cfi_endproc
.LFE7:
	.size	printArray, .-printArray
	.globl	main
	.type	main, @function
main:
.LFB8:
	.cfi_startproc
	endbr64
	pushq	%rbp
	.cfi_def_cfa_offset 16
	.cfi_offset 6, -16
	movq	%rsp, %rbp
	.cfi_def_cfa_register 6
	pushq	%r15
	pushq	%r14
	pushq	%r13
	pushq	%r12
	pushq	%rbx
	subq	$200, %rsp
	.cfi_offset 15, -24
	.cfi_offset 14, -32
	.cfi_offset 13, -40
	.cfi_offset 12, -48
	.cfi_offset 3, -56
	movl	%edi, -212(%rbp)
	movq	%rsi, -224(%rbp)
	movq	%rdx, -232(%rbp)
	movq	%fs:40, %rax
	movq	%rax, -56(%rbp)
	xorl	%eax, %eax
	movl	$1061, n(%rip)
	nop
.L43:
	movq	$0, _TIG_IZ_qj22_envp(%rip)
	nop
.L44:
	movq	$0, _TIG_IZ_qj22_argv(%rip)
	nop
.L45:
	movl	$0, _TIG_IZ_qj22_argc(%rip)
	nop
	nop
.L46:
.L47:
#APP
# 157 "DraganValeriu_SM_maincc.c" 1
	##_ANNOTATION_INITIALREGION_-TIG-IZ-qj22--0
# 0 "" 2
#NO_APP
	movl	-212(%rbp), %eax
	movl	%eax, _TIG_IZ_qj22_argc(%rip)
	movq	-224(%rbp), %rax
	movq	%rax, _TIG_IZ_qj22_argv(%rip)
	movq	-232(%rbp), %rax
	movq	%rax, _TIG_IZ_qj22_envp(%rip)
#APP
# 164 "DraganValeriu_SM_maincc.c" 1
	##_ANNOTATION_ATOMICREGION_-TIG-iO-qj22-1-main--17
# 0 "" 2
#NO_APP
	movl	$24, %edi
	call	malloc@PLT
	movq	%rax, -176(%rbp)
	movq	-176(%rbp), %rax
	movq	-176(%rbp), %rdx
	movq	%rdx, 8(%rax)
	movq	-176(%rbp), %rax
	movq	-176(%rbp), %rdx
	movq	%rdx, (%rax)
	movq	-176(%rbp), %rax
	movq	%rax, _TIG_iO_qj22_1_main_1_opaque_list_1(%rip)
	call	rand@PLT
	movl	%eax, -188(%rbp)
	movl	$24, %edi
	call	malloc@PLT
	movq	%rax, -168(%rbp)
	movq	-168(%rbp), %rax
	movl	$0, 16(%rax)
	movq	_TIG_iO_qj22_1_main_1_opaque_list_1(%rip), %rax
	movq	8(%rax), %rdx
	movq	-168(%rbp), %rax
	movq	%rdx, 8(%rax)
	movq	_TIG_iO_qj22_1_main_1_opaque_list_1(%rip), %rdx
	movq	-168(%rbp), %rax
	movq	%rdx, (%rax)
	movq	_TIG_iO_qj22_1_main_1_opaque_list_1(%rip), %rax
	movq	8(%rax), %rax
	movq	-168(%rbp), %rdx
	movq	%rdx, (%rax)
	movq	_TIG_iO_qj22_1_main_1_opaque_list_1(%rip), %rax
	movq	-168(%rbp), %rdx
	movq	%rdx, 8(%rax)
	call	rand@PLT
	movl	%eax, -184(%rbp)
	movl	$24, %edi
	call	malloc@PLT
	movq	%rax, -160(%rbp)
	movq	-160(%rbp), %rax
	movl	-184(%rbp), %edx
	movl	%edx, 16(%rax)
	movq	_TIG_iO_qj22_1_main_1_opaque_list_1(%rip), %rax
	movq	8(%rax), %rdx
	movq	-160(%rbp), %rax
	movq	%rdx, 8(%rax)
	movq	_TIG_iO_qj22_1_main_1_opaque_list_1(%rip), %rdx
	movq	-160(%rbp), %rax
	movq	%rdx, (%rax)
	movq	_TIG_iO_qj22_1_main_1_opaque_list_1(%rip), %rax
	movq	8(%rax), %rax
	movq	-160(%rbp), %rdx
	movq	%rdx, (%rax)
	movq	_TIG_iO_qj22_1_main_1_opaque_list_1(%rip), %rax
	movq	-160(%rbp), %rdx
	movq	%rdx, 8(%rax)
	movq	_TIG_iO_qj22_1_main_1_opaque_list_1(%rip), %rax
	movq	8(%rax), %rax
	movq	%rax, _TIG_iO_qj22_1_main_1_opaque_ptr_1(%rip)
	movq	_TIG_iO_qj22_1_main_1_opaque_ptr_1(%rip), %rax
	movq	%rax, _TIG_iO_qj22_1_main_1_opaque_ptr_2(%rip)
	movq	_TIG_iO_qj22_1_main_1_opaque_ptr_2(%rip), %rax
	movq	8(%rax), %rax
	movq	%rax, _TIG_iO_qj22_1_main_1_opaque_ptr_2(%rip)
	nop
	nop
	movl	$0, %edi
	call	time@PLT
	movq	%rax, -152(%rbp)
	movq	-152(%rbp), %rax
	movl	%eax, %edi
	call	srand@PLT
	movl	n(%rip), %eax
	movq	%rsp, %rdx
	movq	%rdx, %rbx
	movslq	%eax, %rdx
	subq	$1, %rdx
	movq	%rdx, -144(%rbp)
	movslq	%eax, %rdx
	movq	%rdx, %r14
	movl	$0, %r15d
	movslq	%eax, %rdx
	movq	%rdx, %r12
	movl	$0, %r13d
	cltq
	leaq	0(,%rax,4), %rdx
	movl	$16, %eax
	subq	$1, %rax
	addq	%rdx, %rax
	movl	$16, %esi
	movl	$0, %edx
	divq	%rsi
	imulq	$16, %rax, %rax
	movq	%rax, %rcx
	andq	$-4096, %rcx
	movq	%rsp, %rdx
	subq	%rcx, %rdx
.L48:
	cmpq	%rdx, %rsp
	je	.L49
	subq	$4096, %rsp
	orq	$0, 4088(%rsp)
	jmp	.L48
.L49:
	movq	%rax, %rdx
	andl	$4095, %edx
	subq	%rdx, %rsp
	movq	%rax, %rdx
	andl	$4095, %edx
	testq	%rdx, %rdx
	je	.L50
	andl	$4095, %eax
	subq	$8, %rax
	addq	%rsp, %rax
	orq	$0, (%rax)
.L50:
	movq	%rsp, %rax
	addq	$3, %rax
	shrq	$2, %rax
	salq	$2, %rax
	movq	%rax, -136(%rbp)
	movl	$0, -200(%rbp)
	jmp	.L51
.L53:
	movq	_TIG_iO_qj22_1_print_hist_1_opaque_ptr_1(%rip), %rdx
	movq	_TIG_iO_qj22_1_print_hist_1_opaque_ptr_2(%rip), %rax
	cmpq	%rax, %rdx
	jne	.L52
	movq	-232(%rbp), %rdx
	movq	-224(%rbp), %rcx
	movl	-188(%rbp), %eax
	movq	%rcx, %rsi
	movl	%eax, %edi
	call	main
	movl	%eax, -180(%rbp)
.L52:
	call	rand@PLT
	movl	%eax, -180(%rbp)
	movl	-180(%rbp), %edx
	movslq	%edx, %rax
	imulq	$-2139062143, %rax, %rax
	shrq	$32, %rax
	addl	%edx, %eax
	sarl	$7, %eax
	movl	%edx, %ecx
	sarl	$31, %ecx
	subl	%ecx, %eax
	movl	%eax, %ecx
	sall	$8, %ecx
	subl	%eax, %ecx
	movl	%edx, %eax
	subl	%ecx, %eax
	movq	-136(%rbp), %rdx
	movl	-200(%rbp), %ecx
	movslq	%ecx, %rcx
	movl	%eax, (%rdx,%rcx,4)
	addl	$1, -200(%rbp)
.L51:
	movl	n(%rip), %eax
	cmpl	%eax, -200(%rbp)
	jl	.L53
	movl	$0, -128(%rbp)
	movl	$1, -196(%rbp)
	jmp	.L54
.L55:
	movl	-196(%rbp), %eax
	movl	$0, -128(%rbp,%rax,4)
	addl	$1, -196(%rbp)
.L54:
	cmpl	$15, -196(%rbp)
	jbe	.L55
	movq	-136(%rbp), %rcx
	leaq	-128(%rbp), %rax
	movl	$16, %edx
	movq	%rcx, %rsi
	movq	%rax, %rdi
	call	histogram
	movl	$0, -192(%rbp)
	jmp	.L56
.L57:
	movl	-192(%rbp), %eax
	cltq
	movl	-128(%rbp,%rax,4), %eax
	movl	%eax, %esi
	leaq	.LC0(%rip), %rax
	movq	%rax, %rdi
	movl	$0, %eax
	call	printf@PLT
	addl	$1, -192(%rbp)
.L56:
	cmpl	$15, -192(%rbp)
	jle	.L57
	movl	$10, %edi
	call	putchar@PLT
	leaq	-128(%rbp), %rax
	movl	$16, %esi
	movq	%rax, %rdi
	call	print_hist
	movl	$0, %eax
	movq	%rbx, %rsp
	movq	-56(%rbp), %rdx
	subq	%fs:40, %rdx
	je	.L59
	call	__stack_chk_fail@PLT
.L59:
	leaq	-40(%rbp), %rsp
	popq	%rbx
	popq	%r12
	popq	%r13
	popq	%r14
	popq	%r15
	popq	%rbp
	.cfi_def_cfa 7, 8
	ret
	.cfi_endproc
.LFE8:
	.size	main, .-main
	.globl	histogram
	.type	histogram, @function
histogram:
.LFB10:
	.cfi_startproc
	endbr64
	pushq	%rbp
	.cfi_def_cfa_offset 16
	.cfi_offset 6, -16
	movq	%rsp, %rbp
	.cfi_def_cfa_register 6
	addq	$-128, %rsp
	movq	%rdi, -104(%rbp)
	movq	%rsi, -112(%rbp)
	movl	%edx, -116(%rbp)
#APP
# 79 "/usr/include/x86_64-linux-gnu/bits/byteswap.h" 1
	##_ANNOTATION_INITIALREGION_-TIG-iO-qj22-1-histogram--14
# 0 "" 2
# 83 "/usr/include/x86_64-linux-gnu/bits/byteswap.h" 1
	##_ANNOTATION_ATOMICREGION_-TIG-iO-qj22-1-histogram--13
# 0 "" 2
#NO_APP
	movl	$24, %edi
	call	malloc@PLT
	movq	%rax, -40(%rbp)
	movq	-40(%rbp), %rax
	movq	-40(%rbp), %rdx
	movq	%rdx, (%rax)
	movq	-40(%rbp), %rax
	movq	-40(%rbp), %rdx
	movq	%rdx, 8(%rax)
	movq	-40(%rbp), %rax
	movq	%rax, _TIG_iO_qj22_1_histogram_1_opaque_list_1(%rip)
	call	rand@PLT
	movl	%eax, -72(%rbp)
	movl	$24, %edi
	call	malloc@PLT
	movq	%rax, -32(%rbp)
	movq	-32(%rbp), %rax
	movl	$0, 16(%rax)
	movq	_TIG_iO_qj22_1_histogram_1_opaque_list_1(%rip), %rax
	movq	(%rax), %rdx
	movq	-32(%rbp), %rax
	movq	%rdx, (%rax)
	movq	_TIG_iO_qj22_1_histogram_1_opaque_list_1(%rip), %rdx
	movq	-32(%rbp), %rax
	movq	%rdx, 8(%rax)
	movq	_TIG_iO_qj22_1_histogram_1_opaque_list_1(%rip), %rax
	movq	(%rax), %rax
	movq	-32(%rbp), %rdx
	movq	%rdx, 8(%rax)
	movq	_TIG_iO_qj22_1_histogram_1_opaque_list_1(%rip), %rax
	movq	-32(%rbp), %rdx
	movq	%rdx, (%rax)
	call	rand@PLT
	movl	%eax, -68(%rbp)
	movl	$24, %edi
	call	malloc@PLT
	movq	%rax, -24(%rbp)
	movq	-24(%rbp), %rax
	movl	-68(%rbp), %edx
	movl	%edx, 16(%rax)
	movq	_TIG_iO_qj22_1_histogram_1_opaque_list_1(%rip), %rax
	movq	(%rax), %rdx
	movq	-24(%rbp), %rax
	movq	%rdx, (%rax)
	movq	_TIG_iO_qj22_1_histogram_1_opaque_list_1(%rip), %rdx
	movq	-24(%rbp), %rax
	movq	%rdx, 8(%rax)
	movq	_TIG_iO_qj22_1_histogram_1_opaque_list_1(%rip), %rax
	movq	(%rax), %rax
	movq	-24(%rbp), %rdx
	movq	%rdx, 8(%rax)
	movq	_TIG_iO_qj22_1_histogram_1_opaque_list_1(%rip), %rax
	movq	-24(%rbp), %rdx
	movq	%rdx, (%rax)
	call	rand@PLT
	movl	%eax, -64(%rbp)
	movl	$24, %edi
	call	malloc@PLT
	movq	%rax, -16(%rbp)
	movl	-64(%rbp), %eax
	leal	(%rax,%rax), %edx
	movq	-16(%rbp), %rax
	movl	%edx, 16(%rax)
	movq	_TIG_iO_qj22_1_histogram_1_opaque_list_1(%rip), %rax
	movq	(%rax), %rdx
	movq	-16(%rbp), %rax
	movq	%rdx, (%rax)
	movq	_TIG_iO_qj22_1_histogram_1_opaque_list_1(%rip), %rdx
	movq	-16(%rbp), %rax
	movq	%rdx, 8(%rax)
	movq	_TIG_iO_qj22_1_histogram_1_opaque_list_1(%rip), %rax
	movq	(%rax), %rax
	movq	-16(%rbp), %rdx
	movq	%rdx, 8(%rax)
	movq	_TIG_iO_qj22_1_histogram_1_opaque_list_1(%rip), %rax
	movq	-16(%rbp), %rdx
	movq	%rdx, (%rax)
	call	rand@PLT
	movl	%eax, -60(%rbp)
	movl	$24, %edi
	call	malloc@PLT
	movq	%rax, -8(%rbp)
	movl	-60(%rbp), %edx
	movl	%edx, %eax
	addl	%eax, %eax
	addl	%eax, %edx
	movq	-8(%rbp), %rax
	movl	%edx, 16(%rax)
	movq	_TIG_iO_qj22_1_histogram_1_opaque_list_1(%rip), %rax
	movq	(%rax), %rdx
	movq	-8(%rbp), %rax
	movq	%rdx, (%rax)
	movq	_TIG_iO_qj22_1_histogram_1_opaque_list_1(%rip), %rdx
	movq	-8(%rbp), %rax
	movq	%rdx, 8(%rax)
	movq	_TIG_iO_qj22_1_histogram_1_opaque_list_1(%rip), %rax
	movq	(%rax), %rax
	movq	-8(%rbp), %rdx
	movq	%rdx, 8(%rax)
	movq	_TIG_iO_qj22_1_histogram_1_opaque_list_1(%rip), %rax
	movq	-8(%rbp), %rdx
	movq	%rdx, (%rax)
	movq	_TIG_iO_qj22_1_histogram_1_opaque_list_1(%rip), %rax
	movq	(%rax), %rax
	movq	%rax, _TIG_iO_qj22_1_histogram_1_opaque_ptr_1(%rip)
	movq	_TIG_iO_qj22_1_histogram_1_opaque_ptr_1(%rip), %rax
	movq	%rax, _TIG_iO_qj22_1_histogram_1_opaque_ptr_2(%rip)
	movq	_TIG_iO_qj22_1_histogram_1_opaque_ptr_2(%rip), %rax
	movq	(%rax), %rax
	movq	%rax, _TIG_iO_qj22_1_histogram_1_opaque_ptr_2(%rip)
	nop
	nop
	movl	$0, -84(%rbp)
	jmp	.L61
.L62:
	movl	-84(%rbp), %eax
	cltq
	leaq	0(,%rax,4), %rdx
	movq	-112(%rbp), %rax
	addq	%rdx, %rax
	movl	(%rax), %eax
	leal	15(%rax), %edx
	testl	%eax, %eax
	cmovs	%edx, %eax
	sarl	$4, %eax
	cltq
	leaq	0(,%rax,4), %rdx
	movq	-104(%rbp), %rax
	addq	%rdx, %rax
	movl	(%rax), %edx
	addl	$1, %edx
	movl	%edx, (%rax)
	addl	$1, -84(%rbp)
.L61:
	movl	n(%rip), %eax
	cmpl	%eax, -84(%rbp)
	jl	.L62
	call	rand@PLT
	movl	%eax, -56(%rbp)
	movl	-56(%rbp), %eax
	cltd
	shrl	$28, %edx
	addl	%edx, %eax
	andl	$15, %eax
	subl	%edx, %eax
	movslq	%eax, %rdx
	leaq	0(,%rdx,4), %rcx
	movq	-104(%rbp), %rdx
	addq	%rcx, %rdx
	movl	(%rdx), %edx
	cltq
	leaq	0(,%rax,4), %rcx
	movq	-104(%rbp), %rax
	addq	%rcx, %rax
	addl	$1000, %edx
	movl	%edx, (%rax)
	call	rand@PLT
	movl	%eax, -52(%rbp)
	movl	-52(%rbp), %eax
	cltd
	shrl	$28, %edx
	addl	%edx, %eax
	andl	$15, %eax
	subl	%edx, %eax
	movslq	%eax, %rdx
	leaq	0(,%rdx,4), %rcx
	movq	-104(%rbp), %rdx
	addq	%rcx, %rdx
	movl	(%rdx), %edx
	cltq
	leaq	0(,%rax,4), %rcx
	movq	-104(%rbp), %rax
	addq	%rcx, %rax
	addl	$100, %edx
	movl	%edx, (%rax)
	call	rand@PLT
	movl	%eax, -48(%rbp)
	movl	-48(%rbp), %eax
	cltd
	shrl	$28, %edx
	addl	%edx, %eax
	andl	$15, %eax
	subl	%edx, %eax
	movslq	%eax, %rdx
	leaq	0(,%rdx,4), %rcx
	movq	-104(%rbp), %rdx
	addq	%rcx, %rdx
	movl	(%rdx), %edx
	cltq
	leaq	0(,%rax,4), %rcx
	movq	-104(%rbp), %rax
	addq	%rcx, %rax
	addl	$100, %edx
	movl	%edx, (%rax)
	call	rand@PLT
	movl	%eax, -44(%rbp)
	movl	-44(%rbp), %eax
	cltd
	shrl	$28, %edx
	addl	%edx, %eax
	andl	$15, %eax
	subl	%edx, %eax
	movslq	%eax, %rdx
	leaq	0(,%rdx,4), %rcx
	movq	-104(%rbp), %rdx
	addq	%rcx, %rdx
	movl	(%rdx), %edx
	cltq
	leaq	0(,%rax,4), %rcx
	movq	-104(%rbp), %rax
	addq	%rcx, %rax
	addl	$100, %edx
	movl	%edx, (%rax)
	movl	$0, -80(%rbp)
	movl	$0, -76(%rbp)
.L65:
	cmpl	$15, -76(%rbp)
	jle	.L63
	movq	_TIG_iO_qj22_1_print_hist_1_opaque_ptr_1(%rip), %rdx
	movq	_TIG_iO_qj22_1_print_hist_1_opaque_ptr_2(%rip), %rax
	cmpq	%rax, %rdx
	jne	.L68
.L63:
	movl	-76(%rbp), %eax
	cltq
	leaq	0(,%rax,4), %rdx
	movq	-104(%rbp), %rax
	addq	%rdx, %rax
	movl	(%rax), %eax
	imull	$1000, %eax, %eax
	movl	n(%rip), %edx
	leal	400(%rdx), %esi
	cltd
	idivl	%esi
	movl	%eax, %edx
	movl	-76(%rbp), %eax
	cltq
	leaq	0(,%rax,4), %rcx
	movq	-104(%rbp), %rax
	addq	%rcx, %rax
	movslq	%edx, %rcx
	imulq	$1717986919, %rcx, %rcx
	shrq	$32, %rcx
	sarl	$2, %ecx
	movl	%edx, %esi
	sarl	$31, %esi
	subl	%esi, %ecx
	movl	%ecx, %edx
	movl	%edx, (%rax)
	movl	-76(%rbp), %eax
	cltq
	leaq	0(,%rax,4), %rdx
	movq	-104(%rbp), %rax
	addq	%rdx, %rax
	movl	(%rax), %eax
	addl	%eax, -80(%rbp)
	addl	$1, -76(%rbp)
	jmp	.L65
.L68:
	nop
	nop
	leave
	.cfi_def_cfa 7, 8
	ret
	.cfi_endproc
.LFE10:
	.size	histogram, .-histogram
	.ident	"GCC: (Ubuntu 11.4.0-1ubuntu1~22.04) 11.4.0"
	.section	.note.GNU-stack,"",@progbits
	.section	.note.gnu.property,"a"
	.align 8
	.long	1f - 0f
	.long	4f - 1f
	.long	5
0:
	.string	"GNU"
1:
	.align 8
	.long	0xc0000002
	.long	3f - 2f
2:
	.long	0x3
3:
	.align 8
4:
