	.file	"elaimizrahi_CS-138_f_opaque.c"
	.text
	.globl	_TIG_iO_mE8U_1___uint16_identity_1_opaque_list_1
	.bss
	.align 8
	.type	_TIG_iO_mE8U_1___uint16_identity_1_opaque_list_1, @object
	.size	_TIG_iO_mE8U_1___uint16_identity_1_opaque_list_1, 8
_TIG_iO_mE8U_1___uint16_identity_1_opaque_list_1:
	.zero	8
	.globl	_TIG_iO_mE8U_1_vlintegerRead_1_opaque_list_1
	.align 8
	.type	_TIG_iO_mE8U_1_vlintegerRead_1_opaque_list_1, @object
	.size	_TIG_iO_mE8U_1_vlintegerRead_1_opaque_list_1, 8
_TIG_iO_mE8U_1_vlintegerRead_1_opaque_list_1:
	.zero	8
	.globl	_TIG_iO_mE8U_1___bswap_32_1_opaque_ptr_1
	.align 8
	.type	_TIG_iO_mE8U_1___bswap_32_1_opaque_ptr_1, @object
	.size	_TIG_iO_mE8U_1___bswap_32_1_opaque_ptr_1, 8
_TIG_iO_mE8U_1___bswap_32_1_opaque_ptr_1:
	.zero	8
	.globl	_TIG_iO_mE8U_1___uint64_identity_1_opaque_list_2
	.align 8
	.type	_TIG_iO_mE8U_1___uint64_identity_1_opaque_list_2, @object
	.size	_TIG_iO_mE8U_1___uint64_identity_1_opaque_list_2, 8
_TIG_iO_mE8U_1___uint64_identity_1_opaque_list_2:
	.zero	8
	.globl	_TIG_iO_mE8U_1___uint64_identity_1_opaque_ptr_1
	.align 8
	.type	_TIG_iO_mE8U_1___uint64_identity_1_opaque_ptr_1, @object
	.size	_TIG_iO_mE8U_1___uint64_identity_1_opaque_ptr_1, 8
_TIG_iO_mE8U_1___uint64_identity_1_opaque_ptr_1:
	.zero	8
	.globl	_TIG_iO_mE8U_1_vlintegerDestroy_1_opaque_list_1
	.align 8
	.type	_TIG_iO_mE8U_1_vlintegerDestroy_1_opaque_list_1, @object
	.size	_TIG_iO_mE8U_1_vlintegerDestroy_1_opaque_list_1, 8
_TIG_iO_mE8U_1_vlintegerDestroy_1_opaque_list_1:
	.zero	8
	.globl	_TIG_iO_mE8U_1_vlintegerDestroy_1_opaque_ptr_2
	.align 8
	.type	_TIG_iO_mE8U_1_vlintegerDestroy_1_opaque_ptr_2, @object
	.size	_TIG_iO_mE8U_1_vlintegerDestroy_1_opaque_ptr_2, 8
_TIG_iO_mE8U_1_vlintegerDestroy_1_opaque_ptr_2:
	.zero	8
	.globl	_TIG_iO_mE8U_1_vlintegerPrint_1_opaque_ptr_2
	.align 8
	.type	_TIG_iO_mE8U_1_vlintegerPrint_1_opaque_ptr_2, @object
	.size	_TIG_iO_mE8U_1_vlintegerPrint_1_opaque_ptr_2, 8
_TIG_iO_mE8U_1_vlintegerPrint_1_opaque_ptr_2:
	.zero	8
	.globl	_TIG_IZ_mE8U_argc
	.align 4
	.type	_TIG_IZ_mE8U_argc, @object
	.size	_TIG_IZ_mE8U_argc, 4
_TIG_IZ_mE8U_argc:
	.zero	4
	.globl	_TIG_iO_mE8U_1_vlintegerDestroy_1_opaque_ptr_1
	.align 8
	.type	_TIG_iO_mE8U_1_vlintegerDestroy_1_opaque_ptr_1, @object
	.size	_TIG_iO_mE8U_1_vlintegerDestroy_1_opaque_ptr_1, 8
_TIG_iO_mE8U_1_vlintegerDestroy_1_opaque_ptr_1:
	.zero	8
	.globl	_TIG_iO_mE8U_1_vlintegerPrint_1_opaque_ptr_1
	.align 8
	.type	_TIG_iO_mE8U_1_vlintegerPrint_1_opaque_ptr_1, @object
	.size	_TIG_iO_mE8U_1_vlintegerPrint_1_opaque_ptr_1, 8
_TIG_iO_mE8U_1_vlintegerPrint_1_opaque_ptr_1:
	.zero	8
	.globl	_TIG_iO_mE8U_1_vlintegerAdd_1_opaque_list_2
	.align 8
	.type	_TIG_iO_mE8U_1_vlintegerAdd_1_opaque_list_2, @object
	.size	_TIG_iO_mE8U_1_vlintegerAdd_1_opaque_list_2, 8
_TIG_iO_mE8U_1_vlintegerAdd_1_opaque_list_2:
	.zero	8
	.globl	_TIG_iO_mE8U_1_vlintegerRead_1_opaque_ptr_2
	.align 8
	.type	_TIG_iO_mE8U_1_vlintegerRead_1_opaque_ptr_2, @object
	.size	_TIG_iO_mE8U_1_vlintegerRead_1_opaque_ptr_2, 8
_TIG_iO_mE8U_1_vlintegerRead_1_opaque_ptr_2:
	.zero	8
	.globl	_TIG_iO_mE8U_1___bswap_32_1_opaque_ptr_2
	.align 8
	.type	_TIG_iO_mE8U_1___bswap_32_1_opaque_ptr_2, @object
	.size	_TIG_iO_mE8U_1___bswap_32_1_opaque_ptr_2, 8
_TIG_iO_mE8U_1___bswap_32_1_opaque_ptr_2:
	.zero	8
	.globl	_TIG_iO_mE8U_1_vlintegerPrint_1_opaque_list_2
	.align 8
	.type	_TIG_iO_mE8U_1_vlintegerPrint_1_opaque_list_2, @object
	.size	_TIG_iO_mE8U_1_vlintegerPrint_1_opaque_list_2, 8
_TIG_iO_mE8U_1_vlintegerPrint_1_opaque_list_2:
	.zero	8
	.globl	_TIG_iO_mE8U_1___bswap_32_1_opaque_list_1
	.align 8
	.type	_TIG_iO_mE8U_1___bswap_32_1_opaque_list_1, @object
	.size	_TIG_iO_mE8U_1___bswap_32_1_opaque_list_1, 8
_TIG_iO_mE8U_1___bswap_32_1_opaque_list_1:
	.zero	8
	.globl	_TIG_iO_mE8U_1_vlintegerAdd_1_opaque_ptr_1
	.align 8
	.type	_TIG_iO_mE8U_1_vlintegerAdd_1_opaque_ptr_1, @object
	.size	_TIG_iO_mE8U_1_vlintegerAdd_1_opaque_ptr_1, 8
_TIG_iO_mE8U_1_vlintegerAdd_1_opaque_ptr_1:
	.zero	8
	.globl	_TIG_iO_mE8U_1_vlintegerMult_1_opaque_ptr_2
	.align 8
	.type	_TIG_iO_mE8U_1_vlintegerMult_1_opaque_ptr_2, @object
	.size	_TIG_iO_mE8U_1_vlintegerMult_1_opaque_ptr_2, 8
_TIG_iO_mE8U_1_vlintegerMult_1_opaque_ptr_2:
	.zero	8
	.globl	_TIG_iO_mE8U_1_vlintegerDestroy_1_opaque_list_2
	.align 8
	.type	_TIG_iO_mE8U_1_vlintegerDestroy_1_opaque_list_2, @object
	.size	_TIG_iO_mE8U_1_vlintegerDestroy_1_opaque_list_2, 8
_TIG_iO_mE8U_1_vlintegerDestroy_1_opaque_list_2:
	.zero	8
	.globl	_TIG_IZ_mE8U_argv
	.align 8
	.type	_TIG_IZ_mE8U_argv, @object
	.size	_TIG_IZ_mE8U_argv, 8
_TIG_IZ_mE8U_argv:
	.zero	8
	.globl	_TIG_iO_mE8U_1___uint32_identity_1_opaque_list_2
	.align 8
	.type	_TIG_iO_mE8U_1___uint32_identity_1_opaque_list_2, @object
	.size	_TIG_iO_mE8U_1___uint32_identity_1_opaque_list_2, 8
_TIG_iO_mE8U_1___uint32_identity_1_opaque_list_2:
	.zero	8
	.globl	_TIG_iO_mE8U_1___bswap_64_1_opaque_ptr_2
	.align 8
	.type	_TIG_iO_mE8U_1___bswap_64_1_opaque_ptr_2, @object
	.size	_TIG_iO_mE8U_1___bswap_64_1_opaque_ptr_2, 8
_TIG_iO_mE8U_1___bswap_64_1_opaque_ptr_2:
	.zero	8
	.globl	_TIG_iO_mE8U_1_vlintegerRead_1_opaque_ptr_1
	.align 8
	.type	_TIG_iO_mE8U_1_vlintegerRead_1_opaque_ptr_1, @object
	.size	_TIG_iO_mE8U_1_vlintegerRead_1_opaque_ptr_1, 8
_TIG_iO_mE8U_1_vlintegerRead_1_opaque_ptr_1:
	.zero	8
	.globl	_TIG_iO_mE8U_1_main_1_opaque_ptr_2
	.align 8
	.type	_TIG_iO_mE8U_1_main_1_opaque_ptr_2, @object
	.size	_TIG_iO_mE8U_1_main_1_opaque_ptr_2, 8
_TIG_iO_mE8U_1_main_1_opaque_ptr_2:
	.zero	8
	.globl	_TIG_iO_mE8U_1_vlintegerMult_1_opaque_ptr_1
	.align 8
	.type	_TIG_iO_mE8U_1_vlintegerMult_1_opaque_ptr_1, @object
	.size	_TIG_iO_mE8U_1_vlintegerMult_1_opaque_ptr_1, 8
_TIG_iO_mE8U_1_vlintegerMult_1_opaque_ptr_1:
	.zero	8
	.globl	_TIG_iO_mE8U_1___bswap_16_1_opaque_list_1
	.align 8
	.type	_TIG_iO_mE8U_1___bswap_16_1_opaque_list_1, @object
	.size	_TIG_iO_mE8U_1___bswap_16_1_opaque_list_1, 8
_TIG_iO_mE8U_1___bswap_16_1_opaque_list_1:
	.zero	8
	.globl	_TIG_iO_mE8U_1_vlintegerCreate_1_opaque_ptr_1
	.align 8
	.type	_TIG_iO_mE8U_1_vlintegerCreate_1_opaque_ptr_1, @object
	.size	_TIG_iO_mE8U_1_vlintegerCreate_1_opaque_ptr_1, 8
_TIG_iO_mE8U_1_vlintegerCreate_1_opaque_ptr_1:
	.zero	8
	.globl	_TIG_iO_mE8U_1___uint16_identity_1_opaque_ptr_2
	.align 8
	.type	_TIG_iO_mE8U_1___uint16_identity_1_opaque_ptr_2, @object
	.size	_TIG_iO_mE8U_1___uint16_identity_1_opaque_ptr_2, 8
_TIG_iO_mE8U_1___uint16_identity_1_opaque_ptr_2:
	.zero	8
	.globl	_TIG_iO_mE8U_1___bswap_64_1_opaque_list_2
	.align 8
	.type	_TIG_iO_mE8U_1___bswap_64_1_opaque_list_2, @object
	.size	_TIG_iO_mE8U_1___bswap_64_1_opaque_list_2, 8
_TIG_iO_mE8U_1___bswap_64_1_opaque_list_2:
	.zero	8
	.globl	_TIG_iO_mE8U_1_vlintegerCreate_1_opaque_list_1
	.align 8
	.type	_TIG_iO_mE8U_1_vlintegerCreate_1_opaque_list_1, @object
	.size	_TIG_iO_mE8U_1_vlintegerCreate_1_opaque_list_1, 8
_TIG_iO_mE8U_1_vlintegerCreate_1_opaque_list_1:
	.zero	8
	.globl	_TIG_iO_mE8U_1_vlintegerAdd_1_opaque_ptr_2
	.align 8
	.type	_TIG_iO_mE8U_1_vlintegerAdd_1_opaque_ptr_2, @object
	.size	_TIG_iO_mE8U_1_vlintegerAdd_1_opaque_ptr_2, 8
_TIG_iO_mE8U_1_vlintegerAdd_1_opaque_ptr_2:
	.zero	8
	.globl	_TIG_iO_mE8U_1_main_1_opaque_ptr_1
	.align 8
	.type	_TIG_iO_mE8U_1_main_1_opaque_ptr_1, @object
	.size	_TIG_iO_mE8U_1_main_1_opaque_ptr_1, 8
_TIG_iO_mE8U_1_main_1_opaque_ptr_1:
	.zero	8
	.globl	_TIG_iO_mE8U_1_vlintegerAdd_1_opaque_list_1
	.align 8
	.type	_TIG_iO_mE8U_1_vlintegerAdd_1_opaque_list_1, @object
	.size	_TIG_iO_mE8U_1_vlintegerAdd_1_opaque_list_1, 8
_TIG_iO_mE8U_1_vlintegerAdd_1_opaque_list_1:
	.zero	8
	.globl	_TIG_iO_mE8U_1_main_1_opaque_list_2
	.align 8
	.type	_TIG_iO_mE8U_1_main_1_opaque_list_2, @object
	.size	_TIG_iO_mE8U_1_main_1_opaque_list_2, 8
_TIG_iO_mE8U_1_main_1_opaque_list_2:
	.zero	8
	.globl	_TIG_iO_mE8U_1___bswap_16_1_opaque_ptr_2
	.align 8
	.type	_TIG_iO_mE8U_1___bswap_16_1_opaque_ptr_2, @object
	.size	_TIG_iO_mE8U_1___bswap_16_1_opaque_ptr_2, 8
_TIG_iO_mE8U_1___bswap_16_1_opaque_ptr_2:
	.zero	8
	.globl	_TIG_iO_mE8U_1_power_1_opaque_ptr_1
	.align 8
	.type	_TIG_iO_mE8U_1_power_1_opaque_ptr_1, @object
	.size	_TIG_iO_mE8U_1_power_1_opaque_ptr_1, 8
_TIG_iO_mE8U_1_power_1_opaque_ptr_1:
	.zero	8
	.globl	_TIG_iO_mE8U_1_power_1_opaque_list_1
	.align 8
	.type	_TIG_iO_mE8U_1_power_1_opaque_list_1, @object
	.size	_TIG_iO_mE8U_1_power_1_opaque_list_1, 8
_TIG_iO_mE8U_1_power_1_opaque_list_1:
	.zero	8
	.globl	_TIG_iO_mE8U_1___bswap_64_1_opaque_ptr_1
	.align 8
	.type	_TIG_iO_mE8U_1___bswap_64_1_opaque_ptr_1, @object
	.size	_TIG_iO_mE8U_1___bswap_64_1_opaque_ptr_1, 8
_TIG_iO_mE8U_1___bswap_64_1_opaque_ptr_1:
	.zero	8
	.globl	_TIG_iO_mE8U_1_vlintegerMult_1_opaque_list_2
	.align 8
	.type	_TIG_iO_mE8U_1_vlintegerMult_1_opaque_list_2, @object
	.size	_TIG_iO_mE8U_1_vlintegerMult_1_opaque_list_2, 8
_TIG_iO_mE8U_1_vlintegerMult_1_opaque_list_2:
	.zero	8
	.globl	_TIG_iO_mE8U_1___bswap_32_1_opaque_list_2
	.align 8
	.type	_TIG_iO_mE8U_1___bswap_32_1_opaque_list_2, @object
	.size	_TIG_iO_mE8U_1___bswap_32_1_opaque_list_2, 8
_TIG_iO_mE8U_1___bswap_32_1_opaque_list_2:
	.zero	8
	.globl	_TIG_iO_mE8U_1___uint32_identity_1_opaque_ptr_2
	.align 8
	.type	_TIG_iO_mE8U_1___uint32_identity_1_opaque_ptr_2, @object
	.size	_TIG_iO_mE8U_1___uint32_identity_1_opaque_ptr_2, 8
_TIG_iO_mE8U_1___uint32_identity_1_opaque_ptr_2:
	.zero	8
	.globl	_TIG_iO_mE8U_1___uint16_identity_1_opaque_ptr_1
	.align 8
	.type	_TIG_iO_mE8U_1___uint16_identity_1_opaque_ptr_1, @object
	.size	_TIG_iO_mE8U_1___uint16_identity_1_opaque_ptr_1, 8
_TIG_iO_mE8U_1___uint16_identity_1_opaque_ptr_1:
	.zero	8
	.globl	_TIG_iO_mE8U_1_vlintegerCreate_1_opaque_list_2
	.align 8
	.type	_TIG_iO_mE8U_1_vlintegerCreate_1_opaque_list_2, @object
	.size	_TIG_iO_mE8U_1_vlintegerCreate_1_opaque_list_2, 8
_TIG_iO_mE8U_1_vlintegerCreate_1_opaque_list_2:
	.zero	8
	.globl	_TIG_iO_mE8U_1_power_1_opaque_ptr_2
	.align 8
	.type	_TIG_iO_mE8U_1_power_1_opaque_ptr_2, @object
	.size	_TIG_iO_mE8U_1_power_1_opaque_ptr_2, 8
_TIG_iO_mE8U_1_power_1_opaque_ptr_2:
	.zero	8
	.globl	_TIG_iO_mE8U_1_vlintegerMult_1_opaque_list_1
	.align 8
	.type	_TIG_iO_mE8U_1_vlintegerMult_1_opaque_list_1, @object
	.size	_TIG_iO_mE8U_1_vlintegerMult_1_opaque_list_1, 8
_TIG_iO_mE8U_1_vlintegerMult_1_opaque_list_1:
	.zero	8
	.globl	_TIG_iO_mE8U_1___uint32_identity_1_opaque_list_1
	.align 8
	.type	_TIG_iO_mE8U_1___uint32_identity_1_opaque_list_1, @object
	.size	_TIG_iO_mE8U_1___uint32_identity_1_opaque_list_1, 8
_TIG_iO_mE8U_1___uint32_identity_1_opaque_list_1:
	.zero	8
	.globl	_TIG_iO_mE8U_1___bswap_16_1_opaque_ptr_1
	.align 8
	.type	_TIG_iO_mE8U_1___bswap_16_1_opaque_ptr_1, @object
	.size	_TIG_iO_mE8U_1___bswap_16_1_opaque_ptr_1, 8
_TIG_iO_mE8U_1___bswap_16_1_opaque_ptr_1:
	.zero	8
	.globl	_TIG_iO_mE8U_1___bswap_16_1_opaque_list_2
	.align 8
	.type	_TIG_iO_mE8U_1___bswap_16_1_opaque_list_2, @object
	.size	_TIG_iO_mE8U_1___bswap_16_1_opaque_list_2, 8
_TIG_iO_mE8U_1___bswap_16_1_opaque_list_2:
	.zero	8
	.globl	_TIG_iO_mE8U_1___uint64_identity_1_opaque_list_1
	.align 8
	.type	_TIG_iO_mE8U_1___uint64_identity_1_opaque_list_1, @object
	.size	_TIG_iO_mE8U_1___uint64_identity_1_opaque_list_1, 8
_TIG_iO_mE8U_1___uint64_identity_1_opaque_list_1:
	.zero	8
	.globl	_TIG_iO_mE8U_1_power_1_opaque_list_2
	.align 8
	.type	_TIG_iO_mE8U_1_power_1_opaque_list_2, @object
	.size	_TIG_iO_mE8U_1_power_1_opaque_list_2, 8
_TIG_iO_mE8U_1_power_1_opaque_list_2:
	.zero	8
	.globl	_TIG_iO_mE8U_1___uint32_identity_1_opaque_ptr_1
	.align 8
	.type	_TIG_iO_mE8U_1___uint32_identity_1_opaque_ptr_1, @object
	.size	_TIG_iO_mE8U_1___uint32_identity_1_opaque_ptr_1, 8
_TIG_iO_mE8U_1___uint32_identity_1_opaque_ptr_1:
	.zero	8
	.globl	_TIG_iO_mE8U_1_main_1_opaque_list_1
	.align 8
	.type	_TIG_iO_mE8U_1_main_1_opaque_list_1, @object
	.size	_TIG_iO_mE8U_1_main_1_opaque_list_1, 8
_TIG_iO_mE8U_1_main_1_opaque_list_1:
	.zero	8
	.globl	_TIG_iO_mE8U_1___uint16_identity_1_opaque_list_2
	.align 8
	.type	_TIG_iO_mE8U_1___uint16_identity_1_opaque_list_2, @object
	.size	_TIG_iO_mE8U_1___uint16_identity_1_opaque_list_2, 8
_TIG_iO_mE8U_1___uint16_identity_1_opaque_list_2:
	.zero	8
	.globl	_TIG_iO_mE8U_1___bswap_64_1_opaque_list_1
	.align 8
	.type	_TIG_iO_mE8U_1___bswap_64_1_opaque_list_1, @object
	.size	_TIG_iO_mE8U_1___bswap_64_1_opaque_list_1, 8
_TIG_iO_mE8U_1___bswap_64_1_opaque_list_1:
	.zero	8
	.globl	_TIG_IZ_mE8U_envp
	.align 8
	.type	_TIG_IZ_mE8U_envp, @object
	.size	_TIG_IZ_mE8U_envp, 8
_TIG_IZ_mE8U_envp:
	.zero	8
	.globl	_TIG_iO_mE8U_1___uint64_identity_1_opaque_ptr_2
	.align 8
	.type	_TIG_iO_mE8U_1___uint64_identity_1_opaque_ptr_2, @object
	.size	_TIG_iO_mE8U_1___uint64_identity_1_opaque_ptr_2, 8
_TIG_iO_mE8U_1___uint64_identity_1_opaque_ptr_2:
	.zero	8
	.globl	_TIG_iO_mE8U_1_vlintegerRead_1_opaque_list_2
	.align 8
	.type	_TIG_iO_mE8U_1_vlintegerRead_1_opaque_list_2, @object
	.size	_TIG_iO_mE8U_1_vlintegerRead_1_opaque_list_2, 8
_TIG_iO_mE8U_1_vlintegerRead_1_opaque_list_2:
	.zero	8
	.globl	_TIG_iO_mE8U_1_vlintegerCreate_1_opaque_ptr_2
	.align 8
	.type	_TIG_iO_mE8U_1_vlintegerCreate_1_opaque_ptr_2, @object
	.size	_TIG_iO_mE8U_1_vlintegerCreate_1_opaque_ptr_2, 8
_TIG_iO_mE8U_1_vlintegerCreate_1_opaque_ptr_2:
	.zero	8
	.globl	_TIG_iO_mE8U_1_vlintegerPrint_1_opaque_list_1
	.align 8
	.type	_TIG_iO_mE8U_1_vlintegerPrint_1_opaque_list_1, @object
	.size	_TIG_iO_mE8U_1_vlintegerPrint_1_opaque_list_1, 8
_TIG_iO_mE8U_1_vlintegerPrint_1_opaque_list_1:
	.zero	8
	.section	.rodata
.LC0:
	.string	"t1:%d\n"
.LC1:
	.string	"t2:%d\n"
.LC2:
	.string	"%d %d \n"
	.text
	.globl	vlintegerAdd
	.type	vlintegerAdd, @function
vlintegerAdd:
.LFB2:
	.cfi_startproc
	endbr64
	pushq	%rbp
	.cfi_def_cfa_offset 16
	.cfi_offset 6, -16
	movq	%rsp, %rbp
	.cfi_def_cfa_register 6
	subq	$176, %rsp
	movq	%rdi, -168(%rbp)
	movq	%rsi, -176(%rbp)
#APP
# 87 "/usr/include/x86_64-linux-gnu/bits/uintn-identity.h" 1
	##_ANNOTATION_INITIALREGION_-TIG-iO-mE8U-1-vlintegerAdd--18
# 0 "" 2
# 91 "/usr/include/x86_64-linux-gnu/bits/uintn-identity.h" 1
	##_ANNOTATION_ATOMICREGION_-TIG-iO-mE8U-1-vlintegerAdd--17
# 0 "" 2
#NO_APP
	movl	$24, %edi
	call	malloc@PLT
	movq	%rax, -88(%rbp)
	movq	-88(%rbp), %rax
	movq	-88(%rbp), %rdx
	movq	%rdx, 8(%rax)
	movq	-88(%rbp), %rax
	movq	-88(%rbp), %rdx
	movq	%rdx, (%rax)
	movq	-88(%rbp), %rax
	movq	%rax, _TIG_iO_mE8U_1_vlintegerAdd_1_opaque_list_1(%rip)
	call	rand@PLT
	movl	%eax, -104(%rbp)
	movl	$24, %edi
	call	malloc@PLT
	movq	%rax, -80(%rbp)
	movq	-80(%rbp), %rax
	movl	$0, 16(%rax)
	movq	_TIG_iO_mE8U_1_vlintegerAdd_1_opaque_list_1(%rip), %rax
	movq	8(%rax), %rdx
	movq	-80(%rbp), %rax
	movq	%rdx, 8(%rax)
	movq	_TIG_iO_mE8U_1_vlintegerAdd_1_opaque_list_1(%rip), %rdx
	movq	-80(%rbp), %rax
	movq	%rdx, (%rax)
	movq	_TIG_iO_mE8U_1_vlintegerAdd_1_opaque_list_1(%rip), %rax
	movq	8(%rax), %rax
	movq	-80(%rbp), %rdx
	movq	%rdx, (%rax)
	movq	_TIG_iO_mE8U_1_vlintegerAdd_1_opaque_list_1(%rip), %rax
	movq	-80(%rbp), %rdx
	movq	%rdx, 8(%rax)
	call	rand@PLT
	movl	%eax, -100(%rbp)
	movl	$24, %edi
	call	malloc@PLT
	movq	%rax, -72(%rbp)
	movq	-72(%rbp), %rax
	movl	-100(%rbp), %edx
	movl	%edx, 16(%rax)
	movq	_TIG_iO_mE8U_1_vlintegerAdd_1_opaque_list_1(%rip), %rax
	movq	8(%rax), %rdx
	movq	-72(%rbp), %rax
	movq	%rdx, 8(%rax)
	movq	_TIG_iO_mE8U_1_vlintegerAdd_1_opaque_list_1(%rip), %rdx
	movq	-72(%rbp), %rax
	movq	%rdx, (%rax)
	movq	_TIG_iO_mE8U_1_vlintegerAdd_1_opaque_list_1(%rip), %rax
	movq	8(%rax), %rax
	movq	-72(%rbp), %rdx
	movq	%rdx, (%rax)
	movq	_TIG_iO_mE8U_1_vlintegerAdd_1_opaque_list_1(%rip), %rax
	movq	-72(%rbp), %rdx
	movq	%rdx, 8(%rax)
	movq	_TIG_iO_mE8U_1_vlintegerAdd_1_opaque_list_1(%rip), %rax
	movq	8(%rax), %rax
	movq	%rax, _TIG_iO_mE8U_1_vlintegerAdd_1_opaque_ptr_1(%rip)
	movq	_TIG_iO_mE8U_1_vlintegerAdd_1_opaque_ptr_1(%rip), %rax
	movq	%rax, _TIG_iO_mE8U_1_vlintegerAdd_1_opaque_ptr_2(%rip)
	movq	_TIG_iO_mE8U_1_vlintegerAdd_1_opaque_ptr_2(%rip), %rax
	movq	8(%rax), %rax
	movq	%rax, _TIG_iO_mE8U_1_vlintegerAdd_1_opaque_ptr_2(%rip)
	nop
	nop
	movq	-168(%rbp), %rax
	movl	(%rax), %eax
	movl	%eax, -156(%rbp)
	movl	$0, -96(%rbp)
	movl	$0, -152(%rbp)
	call	vlintegerCreate
	movq	%rax, -64(%rbp)
	movq	-64(%rbp), %rax
	movq	%rax, -56(%rbp)
	movq	-168(%rbp), %rax
	movl	(%rax), %edx
	movq	-176(%rbp), %rax
	movl	(%rax), %eax
	cmpl	%eax, %edx
	jle	.L2
	movq	-168(%rbp), %rax
	movl	(%rax), %eax
	movl	%eax, -156(%rbp)
	movq	-176(%rbp), %rax
	movl	(%rax), %eax
	movl	%eax, -92(%rbp)
	movl	-156(%rbp), %eax
	cltq
	leaq	0(,%rax,4), %rdx
	movq	-176(%rbp), %rax
	movq	8(%rax), %rax
	movq	%rdx, %rsi
	movq	%rax, %rdi
	call	realloc@PLT
	movq	%rax, -48(%rbp)
	movq	-176(%rbp), %rax
	movq	-48(%rbp), %rdx
	movq	%rdx, 8(%rax)
	movl	$0, -144(%rbp)
	jmp	.L3
.L10:
	movl	-156(%rbp), %eax
	subl	$1, %eax
	movl	%eax, -140(%rbp)
.L9:
	movq	_TIG_iO_mE8U_1_vlintegerRead_1_opaque_ptr_1(%rip), %rdx
	movq	_TIG_iO_mE8U_1_vlintegerRead_1_opaque_ptr_2(%rip), %rax
	cmpq	%rax, %rdx
	je	.L4
#APP
# 80 "elaimizrahi_CS-138_f.c" 1
	.byte 0x6,0x25,0x7c
# 0 "" 2
#NO_APP
	jmp	.L5
.L4:
	cmpl	$0, -140(%rbp)
	js	.L34
.L5:
	cmpl	$0, -140(%rbp)
	jne	.L7
	movq	-176(%rbp), %rax
	movq	8(%rax), %rdx
	movl	-140(%rbp), %eax
	cltq
	salq	$2, %rax
	addq	%rdx, %rax
	movl	$0, (%rax)
.L7:
	cmpl	$0, -140(%rbp)
	je	.L8
	movq	-176(%rbp), %rax
	movq	8(%rax), %rdx
	movl	-140(%rbp), %eax
	cltq
	salq	$2, %rax
	subq	$4, %rax
	leaq	(%rdx,%rax), %rcx
	movq	-176(%rbp), %rax
	movq	8(%rax), %rdx
	movl	-140(%rbp), %eax
	cltq
	salq	$2, %rax
	addq	%rax, %rdx
	movl	(%rcx), %eax
	movl	%eax, (%rdx)
.L8:
	subl	$1, -140(%rbp)
	jmp	.L9
.L34:
	nop
	addl	$1, -144(%rbp)
.L3:
	movl	-156(%rbp), %eax
	subl	-92(%rbp), %eax
	cmpl	%eax, -144(%rbp)
	jl	.L10
	movl	$0, -136(%rbp)
	jmp	.L11
.L12:
	movq	-176(%rbp), %rax
	movq	8(%rax), %rdx
	movl	-136(%rbp), %eax
	cltq
	salq	$2, %rax
	addq	%rdx, %rax
	movl	$0, (%rax)
	addl	$1, -136(%rbp)
.L11:
	movl	-156(%rbp), %eax
	subl	-92(%rbp), %eax
	cmpl	%eax, -136(%rbp)
	jl	.L12
.L2:
	movq	-168(%rbp), %rax
	movl	(%rax), %edx
	movq	-176(%rbp), %rax
	movl	(%rax), %eax
	cmpl	%eax, %edx
	jge	.L13
	movq	-176(%rbp), %rax
	movl	(%rax), %eax
	movl	%eax, -156(%rbp)
	movq	-168(%rbp), %rax
	movl	(%rax), %eax
	movl	%eax, -92(%rbp)
	movl	-156(%rbp), %eax
	cltq
	leaq	0(,%rax,4), %rdx
	movq	-168(%rbp), %rax
	movq	8(%rax), %rax
	movq	%rdx, %rsi
	movq	%rax, %rdi
	call	realloc@PLT
	movq	%rax, -40(%rbp)
	movq	-168(%rbp), %rax
	movq	-40(%rbp), %rdx
	movq	%rdx, 8(%rax)
	movl	$0, -132(%rbp)
	jmp	.L14
.L19:
	movl	-156(%rbp), %eax
	subl	$1, %eax
	movl	%eax, -128(%rbp)
	jmp	.L15
.L18:
	cmpl	$0, -128(%rbp)
	jne	.L16
	movq	-168(%rbp), %rax
	movq	8(%rax), %rdx
	movl	-128(%rbp), %eax
	cltq
	salq	$2, %rax
	addq	%rdx, %rax
	movl	$0, (%rax)
.L16:
	cmpl	$0, -128(%rbp)
	je	.L17
	movq	-176(%rbp), %rax
	movq	8(%rax), %rdx
	movl	-128(%rbp), %eax
	cltq
	salq	$2, %rax
	subq	$4, %rax
	leaq	(%rdx,%rax), %rcx
	movq	-168(%rbp), %rax
	movq	8(%rax), %rdx
	movl	-128(%rbp), %eax
	cltq
	salq	$2, %rax
	addq	%rax, %rdx
	movl	(%rcx), %eax
	movl	%eax, (%rdx)
.L17:
	subl	$1, -128(%rbp)
.L15:
	cmpl	$0, -128(%rbp)
	jns	.L18
	addl	$1, -132(%rbp)
.L14:
	movl	-156(%rbp), %eax
	subl	-92(%rbp), %eax
	cmpl	%eax, -132(%rbp)
	jl	.L19
	movl	$0, -124(%rbp)
	jmp	.L20
.L21:
	movq	-168(%rbp), %rax
	movq	8(%rax), %rdx
	movl	-124(%rbp), %eax
	cltq
	salq	$2, %rax
	addq	%rdx, %rax
	movl	$0, (%rax)
	addl	$1, -124(%rbp)
.L20:
	movl	-156(%rbp), %eax
	subl	-92(%rbp), %eax
	cmpl	%eax, -124(%rbp)
	jl	.L21
.L13:
	movl	$0, -120(%rbp)
	jmp	.L22
.L23:
	movq	-168(%rbp), %rax
	movq	8(%rax), %rdx
	movl	-120(%rbp), %eax
	cltq
	salq	$2, %rax
	addq	%rdx, %rax
	movl	(%rax), %eax
	movl	%eax, %esi
	leaq	.LC0(%rip), %rax
	movq	%rax, %rdi
	movl	$0, %eax
	call	printf@PLT
	addl	$1, -120(%rbp)
.L22:
	movl	-120(%rbp), %eax
	cmpl	-156(%rbp), %eax
	jl	.L23
	movl	$0, -116(%rbp)
	jmp	.L24
.L25:
	movq	-176(%rbp), %rax
	movq	8(%rax), %rdx
	movl	-116(%rbp), %eax
	cltq
	salq	$2, %rax
	addq	%rdx, %rax
	movl	(%rax), %eax
	movl	%eax, %esi
	leaq	.LC1(%rip), %rax
	movq	%rax, %rdi
	movl	$0, %eax
	call	printf@PLT
	addl	$1, -116(%rbp)
.L24:
	movl	-116(%rbp), %eax
	cmpl	-156(%rbp), %eax
	jl	.L25
	movq	-56(%rbp), %rax
	movl	-156(%rbp), %edx
	movl	%edx, (%rax)
	movl	-156(%rbp), %eax
	cltq
	leaq	0(,%rax,4), %rdx
	movq	-56(%rbp), %rax
	movq	8(%rax), %rax
	movq	%rdx, %rsi
	movq	%rax, %rdi
	call	realloc@PLT
	movq	%rax, -32(%rbp)
	movq	-56(%rbp), %rax
	movq	-32(%rbp), %rdx
	movq	%rdx, 8(%rax)
	movl	-156(%rbp), %eax
	subl	$1, %eax
	movl	%eax, -112(%rbp)
	jmp	.L26
.L28:
	movq	-168(%rbp), %rax
	movq	8(%rax), %rdx
	movl	-112(%rbp), %eax
	cltq
	salq	$2, %rax
	addq	%rdx, %rax
	movl	(%rax), %edx
	movq	-176(%rbp), %rax
	movq	8(%rax), %rcx
	movl	-112(%rbp), %eax
	cltq
	salq	$2, %rax
	addq	%rcx, %rax
	movl	(%rax), %eax
	addl	%eax, %edx
	movl	-152(%rbp), %eax
	addl	%edx, %eax
	movl	%eax, -148(%rbp)
	movl	$0, -152(%rbp)
	cmpl	$9, -148(%rbp)
	jle	.L27
	movl	-148(%rbp), %eax
	movslq	%eax, %rdx
	imulq	$1717986919, %rdx, %rdx
	shrq	$32, %rdx
	sarl	$2, %edx
	sarl	$31, %eax
	movl	%eax, %ecx
	movl	%edx, %eax
	subl	%ecx, %eax
	movl	%eax, -152(%rbp)
	movl	-148(%rbp), %edx
	movslq	%edx, %rax
	imulq	$1717986919, %rax, %rax
	shrq	$32, %rax
	sarl	$2, %eax
	movl	%edx, %esi
	sarl	$31, %esi
	subl	%esi, %eax
	movl	%eax, %ecx
	movl	%ecx, %eax
	sall	$2, %eax
	addl	%ecx, %eax
	addl	%eax, %eax
	subl	%eax, %edx
	movl	%edx, -148(%rbp)
.L27:
	movq	-56(%rbp), %rax
	movq	8(%rax), %rdx
	movl	-112(%rbp), %eax
	cltq
	salq	$2, %rax
	addq	%rax, %rdx
	movl	-148(%rbp), %eax
	movl	%eax, (%rdx)
	subl	$1, -112(%rbp)
.L26:
	cmpl	$0, -112(%rbp)
	jns	.L28
	cmpl	$0, -152(%rbp)
	jle	.L29
	movl	-156(%rbp), %eax
	addl	$1, %eax
	cltq
	leaq	0(,%rax,4), %rdx
	movq	-56(%rbp), %rax
	movq	8(%rax), %rax
	movq	%rdx, %rsi
	movq	%rax, %rdi
	call	realloc@PLT
	movq	%rax, -24(%rbp)
	movq	-56(%rbp), %rax
	movq	-24(%rbp), %rdx
	movq	%rdx, 8(%rax)
	movl	-156(%rbp), %eax
	leal	1(%rax), %edx
	movq	-56(%rbp), %rax
	movl	%edx, (%rax)
	movl	-156(%rbp), %eax
	movl	%eax, -108(%rbp)
	jmp	.L30
.L31:
	movq	-56(%rbp), %rax
	movq	8(%rax), %rdx
	movl	-108(%rbp), %eax
	cltq
	salq	$2, %rax
	subq	$4, %rax
	addq	%rdx, %rax
	movl	(%rax), %edx
	movq	-56(%rbp), %rax
	movq	8(%rax), %rcx
	movl	-108(%rbp), %eax
	cltq
	salq	$2, %rax
	addq	%rcx, %rax
	movl	(%rax), %eax
	movl	%eax, %esi
	leaq	.LC2(%rip), %rax
	movq	%rax, %rdi
	movl	$0, %eax
	call	printf@PLT
	movq	-56(%rbp), %rax
	movq	8(%rax), %rdx
	movl	-108(%rbp), %eax
	cltq
	salq	$2, %rax
	subq	$4, %rax
	leaq	(%rdx,%rax), %rcx
	movq	-56(%rbp), %rax
	movq	8(%rax), %rdx
	movl	-108(%rbp), %eax
	cltq
	salq	$2, %rax
	addq	%rax, %rdx
	movl	(%rcx), %eax
	movl	%eax, (%rdx)
	subl	$1, -108(%rbp)
.L30:
	cmpl	$0, -108(%rbp)
	jg	.L31
	movq	-56(%rbp), %rax
	movq	8(%rax), %rax
	movl	-152(%rbp), %edx
	movl	%edx, (%rax)
.L29:
	movl	-156(%rbp), %eax
	cltq
	leaq	0(,%rax,4), %rdx
	movq	-168(%rbp), %rax
	movq	8(%rax), %rax
	movq	%rdx, %rsi
	movq	%rax, %rdi
	call	realloc@PLT
	movq	%rax, -16(%rbp)
	movq	-168(%rbp), %rax
	movq	-16(%rbp), %rdx
	movq	%rdx, 8(%rax)
	movl	-156(%rbp), %eax
	cltq
	leaq	0(,%rax,4), %rdx
	movq	-176(%rbp), %rax
	movq	8(%rax), %rax
	movq	%rdx, %rsi
	movq	%rax, %rdi
	call	realloc@PLT
	movq	%rax, -8(%rbp)
	movq	-176(%rbp), %rax
	movq	-8(%rbp), %rdx
	movq	%rdx, 8(%rax)
	movq	-56(%rbp), %rax
	leave
	.cfi_def_cfa 7, 8
	ret
	.cfi_endproc
.LFE2:
	.size	vlintegerAdd, .-vlintegerAdd
	.section	.rodata
	.align 8
.LC3:
	.string	"Enter the digits separated by a space: "
.LC4:
	.string	"main"
.LC5:
	.string	"elaimizrahi_CS-138_f.c"
.LC6:
	.string	"int1->arr[0] !=0"
.LC7:
	.string	"%c"
.LC8:
	.string	"ARRARY: %d"
.LC9:
	.string	"int2->arr[0] !=0"
.LC10:
	.string	"addition"
.LC11:
	.string	"add->arr[0] !=0"
.LC12:
	.string	"multiplication"
.LC13:
	.string	"mult->arr[0] !=0"
	.text
	.globl	main
	.type	main, @function
main:
.LFB3:
	.cfi_startproc
	endbr64
	pushq	%rbp
	.cfi_def_cfa_offset 16
	.cfi_offset 6, -16
	movq	%rsp, %rbp
	.cfi_def_cfa_register 6
	subq	$176, %rsp
	movl	%edi, -148(%rbp)
	movq	%rsi, -160(%rbp)
	movq	%rdx, -168(%rbp)
	movq	%fs:40, %rax
	movq	%rax, -8(%rbp)
	xorl	%eax, %eax
	movq	$0, _TIG_IZ_mE8U_envp(%rip)
	nop
.L36:
	movq	$0, _TIG_IZ_mE8U_argv(%rip)
	nop
.L37:
	movl	$0, _TIG_IZ_mE8U_argc(%rip)
	nop
	nop
.L38:
.L39:
#APP
# 200 "elaimizrahi_CS-138_f.c" 1
	##_ANNOTATION_INITIALREGION_-TIG-IZ-mE8U--0
# 0 "" 2
#NO_APP
	movl	-148(%rbp), %eax
	movl	%eax, _TIG_IZ_mE8U_argc(%rip)
	movq	-160(%rbp), %rax
	movq	%rax, _TIG_IZ_mE8U_argv(%rip)
	movq	-168(%rbp), %rax
	movq	%rax, _TIG_IZ_mE8U_envp(%rip)
#APP
# 207 "elaimizrahi_CS-138_f.c" 1
	##_ANNOTATION_ATOMICREGION_-TIG-iO-mE8U-1-main--13
# 0 "" 2
#NO_APP
	movl	$24, %edi
	call	malloc@PLT
	movq	%rax, -112(%rbp)
	movq	-112(%rbp), %rax
	movq	-112(%rbp), %rdx
	movq	%rdx, (%rax)
	movq	-112(%rbp), %rax
	movq	-112(%rbp), %rdx
	movq	%rdx, 8(%rax)
	movq	-112(%rbp), %rax
	movq	%rax, _TIG_iO_mE8U_1_main_1_opaque_list_1(%rip)
	call	rand@PLT
	movl	%eax, -128(%rbp)
	movl	$24, %edi
	call	malloc@PLT
	movq	%rax, -104(%rbp)
	movq	-104(%rbp), %rax
	movl	$0, 16(%rax)
	movq	_TIG_iO_mE8U_1_main_1_opaque_list_1(%rip), %rax
	movq	(%rax), %rdx
	movq	-104(%rbp), %rax
	movq	%rdx, (%rax)
	movq	_TIG_iO_mE8U_1_main_1_opaque_list_1(%rip), %rdx
	movq	-104(%rbp), %rax
	movq	%rdx, 8(%rax)
	movq	_TIG_iO_mE8U_1_main_1_opaque_list_1(%rip), %rax
	movq	(%rax), %rax
	movq	-104(%rbp), %rdx
	movq	%rdx, 8(%rax)
	movq	_TIG_iO_mE8U_1_main_1_opaque_list_1(%rip), %rax
	movq	-104(%rbp), %rdx
	movq	%rdx, (%rax)
	call	rand@PLT
	movl	%eax, -124(%rbp)
	movl	$24, %edi
	call	malloc@PLT
	movq	%rax, -96(%rbp)
	movq	-96(%rbp), %rax
	movl	-124(%rbp), %edx
	movl	%edx, 16(%rax)
	movq	_TIG_iO_mE8U_1_main_1_opaque_list_1(%rip), %rax
	movq	(%rax), %rdx
	movq	-96(%rbp), %rax
	movq	%rdx, (%rax)
	movq	_TIG_iO_mE8U_1_main_1_opaque_list_1(%rip), %rdx
	movq	-96(%rbp), %rax
	movq	%rdx, 8(%rax)
	movq	_TIG_iO_mE8U_1_main_1_opaque_list_1(%rip), %rax
	movq	(%rax), %rax
	movq	-96(%rbp), %rdx
	movq	%rdx, 8(%rax)
	movq	_TIG_iO_mE8U_1_main_1_opaque_list_1(%rip), %rax
	movq	-96(%rbp), %rdx
	movq	%rdx, (%rax)
	call	rand@PLT
	movl	%eax, -120(%rbp)
	movl	$24, %edi
	call	malloc@PLT
	movq	%rax, -88(%rbp)
	movl	-120(%rbp), %eax
	leal	(%rax,%rax), %edx
	movq	-88(%rbp), %rax
	movl	%edx, 16(%rax)
	movq	_TIG_iO_mE8U_1_main_1_opaque_list_1(%rip), %rax
	movq	(%rax), %rdx
	movq	-88(%rbp), %rax
	movq	%rdx, (%rax)
	movq	_TIG_iO_mE8U_1_main_1_opaque_list_1(%rip), %rdx
	movq	-88(%rbp), %rax
	movq	%rdx, 8(%rax)
	movq	_TIG_iO_mE8U_1_main_1_opaque_list_1(%rip), %rax
	movq	(%rax), %rax
	movq	-88(%rbp), %rdx
	movq	%rdx, 8(%rax)
	movq	_TIG_iO_mE8U_1_main_1_opaque_list_1(%rip), %rax
	movq	-88(%rbp), %rdx
	movq	%rdx, (%rax)
	call	rand@PLT
	movl	%eax, -116(%rbp)
	movl	$24, %edi
	call	malloc@PLT
	movq	%rax, -80(%rbp)
	movl	-116(%rbp), %edx
	movl	%edx, %eax
	addl	%eax, %eax
	addl	%eax, %edx
	movq	-80(%rbp), %rax
	movl	%edx, 16(%rax)
	movq	_TIG_iO_mE8U_1_main_1_opaque_list_1(%rip), %rax
	movq	(%rax), %rdx
	movq	-80(%rbp), %rax
	movq	%rdx, (%rax)
	movq	_TIG_iO_mE8U_1_main_1_opaque_list_1(%rip), %rdx
	movq	-80(%rbp), %rax
	movq	%rdx, 8(%rax)
	movq	_TIG_iO_mE8U_1_main_1_opaque_list_1(%rip), %rax
	movq	(%rax), %rax
	movq	-80(%rbp), %rdx
	movq	%rdx, 8(%rax)
	movq	_TIG_iO_mE8U_1_main_1_opaque_list_1(%rip), %rax
	movq	-80(%rbp), %rdx
	movq	%rdx, (%rax)
	movq	_TIG_iO_mE8U_1_main_1_opaque_list_1(%rip), %rax
	movq	(%rax), %rax
	movq	%rax, _TIG_iO_mE8U_1_main_1_opaque_ptr_1(%rip)
	movq	_TIG_iO_mE8U_1_main_1_opaque_ptr_1(%rip), %rax
	movq	%rax, _TIG_iO_mE8U_1_main_1_opaque_ptr_2(%rip)
	movq	_TIG_iO_mE8U_1_main_1_opaque_ptr_2(%rip), %rax
	movq	(%rax), %rax
	movq	%rax, _TIG_iO_mE8U_1_main_1_opaque_ptr_2(%rip)
	nop
	nop
	call	vlintegerCreate
	movq	%rax, -72(%rbp)
	movq	-72(%rbp), %rax
	movq	%rax, -64(%rbp)
	leaq	.LC3(%rip), %rax
	movq	%rax, %rdi
	call	puts@PLT
	movq	-64(%rbp), %rax
	movq	%rax, %rdi
	call	vlintegerRead
	movq	-64(%rbp), %rax
	movq	%rax, %rdi
	call	vlintegerPrint
	movq	-64(%rbp), %rax
	movq	8(%rax), %rax
	movl	(%rax), %eax
	testl	%eax, %eax
	jne	.L40
	leaq	.LC4(%rip), %rax
	movq	%rax, %rcx
	movl	$307, %edx
	leaq	.LC5(%rip), %rax
	movq	%rax, %rsi
	leaq	.LC6(%rip), %rax
	movq	%rax, %rdi
	call	__assert_fail@PLT
.L40:
	leaq	-133(%rbp), %rax
	movq	%rax, %rsi
	leaq	.LC7(%rip), %rax
	movq	%rax, %rdi
	movl	$0, %eax
	call	__isoc99_scanf@PLT
	call	vlintegerCreate
	movq	%rax, -56(%rbp)
	movq	-56(%rbp), %rax
	movq	%rax, -48(%rbp)
	movl	$0, -132(%rbp)
	jmp	.L41
.L42:
	movq	-64(%rbp), %rax
	movq	8(%rax), %rdx
	movl	-132(%rbp), %eax
	cltq
	salq	$2, %rax
	addq	%rdx, %rax
	movl	(%rax), %eax
	movl	%eax, %esi
	leaq	.LC8(%rip), %rax
	movq	%rax, %rdi
	movl	$0, %eax
	call	printf@PLT
	addl	$1, -132(%rbp)
.L41:
	movq	-64(%rbp), %rax
	movl	(%rax), %eax
	cmpl	%eax, -132(%rbp)
	jl	.L42
	leaq	.LC3(%rip), %rax
	movq	%rax, %rdi
	call	puts@PLT
	movq	-48(%rbp), %rax
	movq	%rax, %rdi
	call	vlintegerRead
	movq	-48(%rbp), %rax
	movq	%rax, %rdi
	call	vlintegerPrint
	movq	_TIG_iO_mE8U_1_vlintegerRead_1_opaque_ptr_1(%rip), %rdx
	movq	_TIG_iO_mE8U_1_vlintegerRead_1_opaque_ptr_2(%rip), %rax
	cmpq	%rax, %rdx
	je	.L43
#APP
# 321 "elaimizrahi_CS-138_f.c" 1
	.byte 0xc0,0xeb,0x8,0xe8,0xd1,0x2f,0x0,0x0
# 0 "" 2
#NO_APP
	jmp	.L44
.L43:
	movq	-48(%rbp), %rax
	movq	8(%rax), %rax
	movl	(%rax), %eax
	testl	%eax, %eax
	jne	.L44
	leaq	.LC4(%rip), %rax
	movq	%rax, %rcx
	movl	$319, %edx
	leaq	.LC5(%rip), %rax
	movq	%rax, %rsi
	leaq	.LC9(%rip), %rax
	movq	%rax, %rdi
	call	__assert_fail@PLT
.L44:
	leaq	-133(%rbp), %rax
	movq	%rax, %rsi
	leaq	.LC7(%rip), %rax
	movq	%rax, %rdi
	movl	$0, %eax
	call	__isoc99_scanf@PLT
	movq	-48(%rbp), %rdx
	movq	-64(%rbp), %rax
	movq	%rdx, %rsi
	movq	%rax, %rdi
	call	vlintegerAdd
	movq	%rax, -40(%rbp)
	movq	-40(%rbp), %rax
	movq	%rax, -32(%rbp)
	leaq	.LC10(%rip), %rax
	movq	%rax, %rdi
	call	puts@PLT
	movq	-32(%rbp), %rax
	movq	%rax, %rdi
	call	vlintegerPrint
	movq	-32(%rbp), %rax
	movq	8(%rax), %rax
	movl	(%rax), %eax
	testl	%eax, %eax
	jne	.L45
	leaq	.LC4(%rip), %rax
	movq	%rax, %rcx
	movl	$327, %edx
	leaq	.LC5(%rip), %rax
	movq	%rax, %rsi
	leaq	.LC11(%rip), %rax
	movq	%rax, %rdi
	call	__assert_fail@PLT
.L45:
	leaq	-133(%rbp), %rax
	movq	%rax, %rsi
	leaq	.LC7(%rip), %rax
	movq	%rax, %rdi
	movl	$0, %eax
	call	__isoc99_scanf@PLT
	movq	-48(%rbp), %rdx
	movq	-64(%rbp), %rax
	movq	%rdx, %rsi
	movq	%rax, %rdi
	call	vlintegerMult
	movq	%rax, -24(%rbp)
	movq	-24(%rbp), %rax
	movq	%rax, -16(%rbp)
	leaq	.LC12(%rip), %rax
	movq	%rax, %rdi
	call	puts@PLT
	movq	-16(%rbp), %rax
	movq	%rax, %rdi
	call	vlintegerPrint
	movq	-16(%rbp), %rax
	movq	8(%rax), %rax
	movl	(%rax), %eax
	testl	%eax, %eax
	jne	.L46
	leaq	.LC4(%rip), %rax
	movq	%rax, %rcx
	movl	$333, %edx
	leaq	.LC5(%rip), %rax
	movq	%rax, %rsi
	leaq	.LC13(%rip), %rax
	movq	%rax, %rdi
	call	__assert_fail@PLT
.L46:
	movq	-64(%rbp), %rax
	movq	%rax, %rdi
	call	vlintegerDestroy
	movq	-48(%rbp), %rax
	movq	%rax, %rdi
	call	vlintegerDestroy
	movq	-32(%rbp), %rax
	movq	%rax, %rdi
	call	vlintegerDestroy
	movq	-16(%rbp), %rax
	movq	%rax, %rdi
	call	vlintegerDestroy
	movl	$0, %eax
	movq	-8(%rbp), %rdx
	subq	%fs:40, %rdx
	je	.L48
	call	__stack_chk_fail@PLT
.L48:
	leave
	.cfi_def_cfa 7, 8
	ret
	.cfi_endproc
.LFE3:
	.size	main, .-main
	.section	.rodata
.LC14:
	.string	"%d"
	.text
	.globl	vlintegerRead
	.type	vlintegerRead, @function
vlintegerRead:
.LFB4:
	.cfi_startproc
	endbr64
	pushq	%rbp
	.cfi_def_cfa_offset 16
	.cfi_offset 6, -16
	movq	%rsp, %rbp
	.cfi_def_cfa_register 6
	subq	$96, %rsp
	movq	%rdi, -88(%rbp)
	movq	%fs:40, %rax
	movq	%rax, -8(%rbp)
	xorl	%eax, %eax
#APP
# 361 "elaimizrahi_CS-138_f.c" 1
	##_ANNOTATION_INITIALREGION_-TIG-iO-mE8U-1-vlintegerRead--28
# 0 "" 2
# 365 "elaimizrahi_CS-138_f.c" 1
	##_ANNOTATION_ATOMICREGION_-TIG-iO-mE8U-1-vlintegerRead--27
# 0 "" 2
#NO_APP
	movl	$24, %edi
	call	malloc@PLT
	movq	%rax, -48(%rbp)
	movq	-48(%rbp), %rax
	movq	-48(%rbp), %rdx
	movq	%rdx, 16(%rax)
	movq	-48(%rbp), %rax
	movq	-48(%rbp), %rdx
	movq	%rdx, 8(%rax)
	movq	-48(%rbp), %rax
	movq	%rax, _TIG_iO_mE8U_1_vlintegerRead_1_opaque_list_1(%rip)
	call	rand@PLT
	movl	%eax, -60(%rbp)
	movl	$24, %edi
	call	malloc@PLT
	movq	%rax, -40(%rbp)
	movq	-40(%rbp), %rax
	movl	$0, (%rax)
	movq	_TIG_iO_mE8U_1_vlintegerRead_1_opaque_list_1(%rip), %rax
	movq	16(%rax), %rdx
	movq	-40(%rbp), %rax
	movq	%rdx, 16(%rax)
	movq	_TIG_iO_mE8U_1_vlintegerRead_1_opaque_list_1(%rip), %rdx
	movq	-40(%rbp), %rax
	movq	%rdx, 8(%rax)
	movq	_TIG_iO_mE8U_1_vlintegerRead_1_opaque_list_1(%rip), %rax
	movq	16(%rax), %rax
	movq	-40(%rbp), %rdx
	movq	%rdx, 8(%rax)
	movq	_TIG_iO_mE8U_1_vlintegerRead_1_opaque_list_1(%rip), %rax
	movq	-40(%rbp), %rdx
	movq	%rdx, 16(%rax)
	call	rand@PLT
	movl	%eax, -56(%rbp)
	movl	$24, %edi
	call	malloc@PLT
	movq	%rax, -32(%rbp)
	movq	-32(%rbp), %rax
	movl	-56(%rbp), %edx
	movl	%edx, (%rax)
	movq	_TIG_iO_mE8U_1_vlintegerRead_1_opaque_list_1(%rip), %rax
	movq	16(%rax), %rdx
	movq	-32(%rbp), %rax
	movq	%rdx, 16(%rax)
	movq	_TIG_iO_mE8U_1_vlintegerRead_1_opaque_list_1(%rip), %rdx
	movq	-32(%rbp), %rax
	movq	%rdx, 8(%rax)
	movq	_TIG_iO_mE8U_1_vlintegerRead_1_opaque_list_1(%rip), %rax
	movq	16(%rax), %rax
	movq	-32(%rbp), %rdx
	movq	%rdx, 8(%rax)
	movq	_TIG_iO_mE8U_1_vlintegerRead_1_opaque_list_1(%rip), %rax
	movq	-32(%rbp), %rdx
	movq	%rdx, 16(%rax)
	movq	_TIG_iO_mE8U_1_vlintegerRead_1_opaque_list_1(%rip), %rax
	movq	16(%rax), %rax
	movq	%rax, _TIG_iO_mE8U_1_vlintegerRead_1_opaque_ptr_1(%rip)
	movq	_TIG_iO_mE8U_1_vlintegerRead_1_opaque_ptr_1(%rip), %rax
	movq	%rax, _TIG_iO_mE8U_1_vlintegerRead_1_opaque_ptr_2(%rip)
	nop
	nop
	movl	$0, -64(%rbp)
.L52:
	leaq	-68(%rbp), %rax
	movq	%rax, %rsi
	leaq	.LC14(%rip), %rax
	movq	%rax, %rdi
	movl	$0, %eax
	call	__isoc99_scanf@PLT
	movl	%eax, -52(%rbp)
	cmpl	$0, -52(%rbp)
	je	.L57
	movl	-64(%rbp), %eax
	addl	$1, %eax
	cltq
	leaq	0(,%rax,4), %rdx
	movq	-88(%rbp), %rax
	movq	8(%rax), %rax
	movq	%rdx, %rsi
	movq	%rax, %rdi
	call	realloc@PLT
	movq	%rax, -24(%rbp)
	movq	-88(%rbp), %rax
	movq	-24(%rbp), %rdx
	movq	%rdx, 8(%rax)
	movq	-88(%rbp), %rax
	movq	8(%rax), %rdx
	movl	-64(%rbp), %eax
	cltq
	salq	$2, %rax
	addq	%rax, %rdx
	movl	-68(%rbp), %eax
	movl	%eax, (%rdx)
	addl	$1, -64(%rbp)
	jmp	.L52
.L57:
	nop
	movq	_TIG_iO_mE8U_1_vlintegerRead_1_opaque_ptr_1(%rip), %rdx
	movq	_TIG_iO_mE8U_1_vlintegerRead_1_opaque_ptr_2(%rip), %rax
	cmpq	%rax, %rdx
	jne	.L58
	movl	-64(%rbp), %eax
	cltq
	leaq	0(,%rax,4), %rdx
	movq	-88(%rbp), %rax
	movq	8(%rax), %rax
	movq	%rdx, %rsi
	movq	%rax, %rdi
	call	realloc@PLT
	movq	%rax, -16(%rbp)
	movq	-88(%rbp), %rax
	movq	-16(%rbp), %rdx
	movq	%rdx, 8(%rax)
	movq	-88(%rbp), %rax
	movl	-64(%rbp), %edx
	movl	%edx, (%rax)
	nop
.L58:
	nop
	movq	-8(%rbp), %rax
	subq	%fs:40, %rax
	je	.L55
	call	__stack_chk_fail@PLT
.L55:
	leave
	.cfi_def_cfa 7, 8
	ret
	.cfi_endproc
.LFE4:
	.size	vlintegerRead, .-vlintegerRead
	.globl	vlintegerCreate
	.type	vlintegerCreate, @function
vlintegerCreate:
.LFB5:
	.cfi_startproc
	endbr64
	pushq	%rbp
	.cfi_def_cfa_offset 16
	.cfi_offset 6, -16
	movq	%rsp, %rbp
	.cfi_def_cfa_register 6
	subq	$48, %rsp
#APP
# 63 "elaimizrahi_CS-138_f.c" 1
	##_ANNOTATION_INITIALREGION_-TIG-iO-mE8U-1-vlintegerCreate--20
# 0 "" 2
# 67 "elaimizrahi_CS-138_f.c" 1
	##_ANNOTATION_ATOMICREGION_-TIG-iO-mE8U-1-vlintegerCreate--19
# 0 "" 2
#NO_APP
	movl	$24, %edi
	call	malloc@PLT
	movq	%rax, -32(%rbp)
	movq	-32(%rbp), %rax
	movq	-32(%rbp), %rdx
	movq	%rdx, 8(%rax)
	movq	-32(%rbp), %rax
	movq	-32(%rbp), %rdx
	movq	%rdx, 16(%rax)
	movq	-32(%rbp), %rax
	movq	%rax, _TIG_iO_mE8U_1_vlintegerCreate_1_opaque_list_1(%rip)
	call	rand@PLT
	movl	%eax, -48(%rbp)
	movl	$24, %edi
	call	malloc@PLT
	movq	%rax, -24(%rbp)
	movq	-24(%rbp), %rax
	movl	$0, (%rax)
	movq	_TIG_iO_mE8U_1_vlintegerCreate_1_opaque_list_1(%rip), %rax
	movq	8(%rax), %rdx
	movq	-24(%rbp), %rax
	movq	%rdx, 8(%rax)
	movq	_TIG_iO_mE8U_1_vlintegerCreate_1_opaque_list_1(%rip), %rdx
	movq	-24(%rbp), %rax
	movq	%rdx, 16(%rax)
	movq	_TIG_iO_mE8U_1_vlintegerCreate_1_opaque_list_1(%rip), %rax
	movq	8(%rax), %rax
	movq	-24(%rbp), %rdx
	movq	%rdx, 16(%rax)
	movq	_TIG_iO_mE8U_1_vlintegerCreate_1_opaque_list_1(%rip), %rax
	movq	-24(%rbp), %rdx
	movq	%rdx, 8(%rax)
	call	rand@PLT
	movl	%eax, -44(%rbp)
	movl	$24, %edi
	call	malloc@PLT
	movq	%rax, -16(%rbp)
	movq	-16(%rbp), %rax
	movl	-44(%rbp), %edx
	movl	%edx, (%rax)
	movq	_TIG_iO_mE8U_1_vlintegerCreate_1_opaque_list_1(%rip), %rax
	movq	8(%rax), %rdx
	movq	-16(%rbp), %rax
	movq	%rdx, 8(%rax)
	movq	_TIG_iO_mE8U_1_vlintegerCreate_1_opaque_list_1(%rip), %rdx
	movq	-16(%rbp), %rax
	movq	%rdx, 16(%rax)
	movq	_TIG_iO_mE8U_1_vlintegerCreate_1_opaque_list_1(%rip), %rax
	movq	8(%rax), %rax
	movq	-16(%rbp), %rdx
	movq	%rdx, 16(%rax)
	movq	_TIG_iO_mE8U_1_vlintegerCreate_1_opaque_list_1(%rip), %rax
	movq	-16(%rbp), %rdx
	movq	%rdx, 8(%rax)
	movq	_TIG_iO_mE8U_1_vlintegerCreate_1_opaque_list_1(%rip), %rax
	movq	8(%rax), %rax
	movq	%rax, _TIG_iO_mE8U_1_vlintegerCreate_1_opaque_ptr_1(%rip)
	movq	_TIG_iO_mE8U_1_vlintegerCreate_1_opaque_ptr_1(%rip), %rax
	movq	%rax, _TIG_iO_mE8U_1_vlintegerCreate_1_opaque_ptr_2(%rip)
	nop
	nop
	movq	_TIG_iO_mE8U_1_vlintegerRead_1_opaque_ptr_1(%rip), %rdx
	movq	_TIG_iO_mE8U_1_vlintegerRead_1_opaque_ptr_2(%rip), %rax
	cmpq	%rax, %rdx
	jne	.L60
	movl	$16, %edi
	call	malloc@PLT
	movq	%rax, -8(%rbp)
	movq	-8(%rbp), %rax
	movq	%rax, -40(%rbp)
	movq	-40(%rbp), %rax
	movq	$0, 8(%rax)
	movq	-40(%rbp), %rax
	movl	$0, (%rax)
.L60:
	movq	-40(%rbp), %rax
	leave
	.cfi_def_cfa 7, 8
	ret
	.cfi_endproc
.LFE5:
	.size	vlintegerCreate, .-vlintegerCreate
	.section	.rodata
.LC15:
	.string	"length=%d\n"
	.text
	.globl	vlintegerPrint
	.type	vlintegerPrint, @function
vlintegerPrint:
.LFB6:
	.cfi_startproc
	endbr64
	pushq	%rbp
	.cfi_def_cfa_offset 16
	.cfi_offset 6, -16
	movq	%rsp, %rbp
	.cfi_def_cfa_register 6
	subq	$80, %rsp
	movq	%rdi, -72(%rbp)
#APP
# 35 "elaimizrahi_CS-138_f.c" 1
	##_ANNOTATION_INITIALREGION_-TIG-iO-mE8U-1-vlintegerPrint--26
# 0 "" 2
# 39 "elaimizrahi_CS-138_f.c" 1
	##_ANNOTATION_ATOMICREGION_-TIG-iO-mE8U-1-vlintegerPrint--25
# 0 "" 2
#NO_APP
	movl	$24, %edi
	call	malloc@PLT
	movq	%rax, -40(%rbp)
	movq	-40(%rbp), %rax
	movq	-40(%rbp), %rdx
	movq	%rdx, (%rax)
	movq	-40(%rbp), %rax
	movq	-40(%rbp), %rdx
	movq	%rdx, 16(%rax)
	movq	-40(%rbp), %rax
	movq	%rax, _TIG_iO_mE8U_1_vlintegerPrint_1_opaque_list_1(%rip)
	call	rand@PLT
	movl	%eax, -56(%rbp)
	movl	$24, %edi
	call	malloc@PLT
	movq	%rax, -32(%rbp)
	movq	-32(%rbp), %rax
	movl	$0, 8(%rax)
	movq	_TIG_iO_mE8U_1_vlintegerPrint_1_opaque_list_1(%rip), %rax
	movq	(%rax), %rdx
	movq	-32(%rbp), %rax
	movq	%rdx, (%rax)
	movq	_TIG_iO_mE8U_1_vlintegerPrint_1_opaque_list_1(%rip), %rdx
	movq	-32(%rbp), %rax
	movq	%rdx, 16(%rax)
	movq	_TIG_iO_mE8U_1_vlintegerPrint_1_opaque_list_1(%rip), %rax
	movq	(%rax), %rax
	movq	-32(%rbp), %rdx
	movq	%rdx, 16(%rax)
	movq	_TIG_iO_mE8U_1_vlintegerPrint_1_opaque_list_1(%rip), %rax
	movq	-32(%rbp), %rdx
	movq	%rdx, (%rax)
	call	rand@PLT
	movl	%eax, -52(%rbp)
	movl	$24, %edi
	call	malloc@PLT
	movq	%rax, -24(%rbp)
	movq	-24(%rbp), %rax
	movl	-52(%rbp), %edx
	movl	%edx, 8(%rax)
	movq	_TIG_iO_mE8U_1_vlintegerPrint_1_opaque_list_1(%rip), %rax
	movq	(%rax), %rdx
	movq	-24(%rbp), %rax
	movq	%rdx, (%rax)
	movq	_TIG_iO_mE8U_1_vlintegerPrint_1_opaque_list_1(%rip), %rdx
	movq	-24(%rbp), %rax
	movq	%rdx, 16(%rax)
	movq	_TIG_iO_mE8U_1_vlintegerPrint_1_opaque_list_1(%rip), %rax
	movq	(%rax), %rax
	movq	-24(%rbp), %rdx
	movq	%rdx, 16(%rax)
	movq	_TIG_iO_mE8U_1_vlintegerPrint_1_opaque_list_1(%rip), %rax
	movq	-24(%rbp), %rdx
	movq	%rdx, (%rax)
	call	rand@PLT
	movl	%eax, -48(%rbp)
	movl	$24, %edi
	call	malloc@PLT
	movq	%rax, -16(%rbp)
	movl	-48(%rbp), %eax
	leal	(%rax,%rax), %edx
	movq	-16(%rbp), %rax
	movl	%edx, 8(%rax)
	movq	_TIG_iO_mE8U_1_vlintegerPrint_1_opaque_list_1(%rip), %rax
	movq	(%rax), %rdx
	movq	-16(%rbp), %rax
	movq	%rdx, (%rax)
	movq	_TIG_iO_mE8U_1_vlintegerPrint_1_opaque_list_1(%rip), %rdx
	movq	-16(%rbp), %rax
	movq	%rdx, 16(%rax)
	movq	_TIG_iO_mE8U_1_vlintegerPrint_1_opaque_list_1(%rip), %rax
	movq	(%rax), %rax
	movq	-16(%rbp), %rdx
	movq	%rdx, 16(%rax)
	movq	_TIG_iO_mE8U_1_vlintegerPrint_1_opaque_list_1(%rip), %rax
	movq	-16(%rbp), %rdx
	movq	%rdx, (%rax)
	call	rand@PLT
	movl	%eax, -44(%rbp)
	movl	$24, %edi
	call	malloc@PLT
	movq	%rax, -8(%rbp)
	movl	-44(%rbp), %edx
	movl	%edx, %eax
	addl	%eax, %eax
	addl	%eax, %edx
	movq	-8(%rbp), %rax
	movl	%edx, 8(%rax)
	movq	_TIG_iO_mE8U_1_vlintegerPrint_1_opaque_list_1(%rip), %rax
	movq	(%rax), %rdx
	movq	-8(%rbp), %rax
	movq	%rdx, (%rax)
	movq	_TIG_iO_mE8U_1_vlintegerPrint_1_opaque_list_1(%rip), %rdx
	movq	-8(%rbp), %rax
	movq	%rdx, 16(%rax)
	movq	_TIG_iO_mE8U_1_vlintegerPrint_1_opaque_list_1(%rip), %rax
	movq	(%rax), %rax
	movq	-8(%rbp), %rdx
	movq	%rdx, 16(%rax)
	movq	_TIG_iO_mE8U_1_vlintegerPrint_1_opaque_list_1(%rip), %rax
	movq	-8(%rbp), %rdx
	movq	%rdx, (%rax)
	movq	_TIG_iO_mE8U_1_vlintegerPrint_1_opaque_list_1(%rip), %rax
	movq	(%rax), %rax
	movq	%rax, _TIG_iO_mE8U_1_vlintegerPrint_1_opaque_ptr_1(%rip)
	movq	_TIG_iO_mE8U_1_vlintegerPrint_1_opaque_ptr_1(%rip), %rax
	movq	%rax, _TIG_iO_mE8U_1_vlintegerPrint_1_opaque_ptr_2(%rip)
	nop
	nop
	movq	-72(%rbp), %rax
	movl	(%rax), %eax
	movl	%eax, %esi
	leaq	.LC15(%rip), %rax
	movq	%rax, %rdi
	movl	$0, %eax
	call	printf@PLT
	movl	$0, -60(%rbp)
	jmp	.L63
.L64:
	movq	-72(%rbp), %rax
	movq	8(%rax), %rdx
	movl	-60(%rbp), %eax
	cltq
	salq	$2, %rax
	addq	%rdx, %rax
	movl	(%rax), %eax
	movl	%eax, %esi
	leaq	.LC14(%rip), %rax
	movq	%rax, %rdi
	movl	$0, %eax
	call	printf@PLT
	addl	$1, -60(%rbp)
.L63:
	movq	-72(%rbp), %rax
	movl	(%rax), %eax
	cmpl	%eax, -60(%rbp)
	jl	.L64
	movq	_TIG_iO_mE8U_1_vlintegerRead_1_opaque_ptr_1(%rip), %rdx
	movq	_TIG_iO_mE8U_1_vlintegerRead_1_opaque_ptr_2(%rip), %rax
	cmpq	%rax, %rdx
	jne	.L67
	movl	$10, %edi
	call	putchar@PLT
	nop
.L67:
	nop
	leave
	.cfi_def_cfa 7, 8
	ret
	.cfi_endproc
.LFE6:
	.size	vlintegerPrint, .-vlintegerPrint
	.section	.rodata
.LC16:
	.string	"temp1: %d\n"
.LC17:
	.string	"temp11: %d\n"
.LC18:
	.string	"mult: %d\n"
.LC19:
	.string	"cleared: %d"
	.text
	.globl	vlintegerMult
	.type	vlintegerMult, @function
vlintegerMult:
.LFB7:
	.cfi_startproc
	endbr64
	pushq	%rbp
	.cfi_def_cfa_offset 16
	.cfi_offset 6, -16
	movq	%rsp, %rbp
	.cfi_def_cfa_register 6
	subq	$320, %rsp
	movq	%rdi, -312(%rbp)
	movq	%rsi, -320(%rbp)
#APP
# 120 "elaimizrahi_CS-138_f.c" 1
	##_ANNOTATION_INITIALREGION_-TIG-iO-mE8U-1-vlintegerMult--24
# 0 "" 2
# 124 "elaimizrahi_CS-138_f.c" 1
	##_ANNOTATION_ATOMICREGION_-TIG-iO-mE8U-1-vlintegerMult--23
# 0 "" 2
#NO_APP
	movl	$24, %edi
	call	malloc@PLT
	movq	%rax, -160(%rbp)
	movq	-160(%rbp), %rax
	movq	-160(%rbp), %rdx
	movq	%rdx, (%rax)
	movq	-160(%rbp), %rax
	movq	-160(%rbp), %rdx
	movq	%rdx, 8(%rax)
	movq	-160(%rbp), %rax
	movq	%rax, _TIG_iO_mE8U_1_vlintegerMult_1_opaque_list_1(%rip)
	call	rand@PLT
	movl	%eax, -212(%rbp)
	movl	$24, %edi
	call	malloc@PLT
	movq	%rax, -152(%rbp)
	movq	-152(%rbp), %rax
	movl	$0, 16(%rax)
	movq	_TIG_iO_mE8U_1_vlintegerMult_1_opaque_list_1(%rip), %rax
	movq	(%rax), %rdx
	movq	-152(%rbp), %rax
	movq	%rdx, (%rax)
	movq	_TIG_iO_mE8U_1_vlintegerMult_1_opaque_list_1(%rip), %rdx
	movq	-152(%rbp), %rax
	movq	%rdx, 8(%rax)
	movq	_TIG_iO_mE8U_1_vlintegerMult_1_opaque_list_1(%rip), %rax
	movq	(%rax), %rax
	movq	-152(%rbp), %rdx
	movq	%rdx, 8(%rax)
	movq	_TIG_iO_mE8U_1_vlintegerMult_1_opaque_list_1(%rip), %rax
	movq	-152(%rbp), %rdx
	movq	%rdx, (%rax)
	call	rand@PLT
	movl	%eax, -208(%rbp)
	movl	$24, %edi
	call	malloc@PLT
	movq	%rax, -144(%rbp)
	movq	-144(%rbp), %rax
	movl	-208(%rbp), %edx
	movl	%edx, 16(%rax)
	movq	_TIG_iO_mE8U_1_vlintegerMult_1_opaque_list_1(%rip), %rax
	movq	(%rax), %rdx
	movq	-144(%rbp), %rax
	movq	%rdx, (%rax)
	movq	_TIG_iO_mE8U_1_vlintegerMult_1_opaque_list_1(%rip), %rdx
	movq	-144(%rbp), %rax
	movq	%rdx, 8(%rax)
	movq	_TIG_iO_mE8U_1_vlintegerMult_1_opaque_list_1(%rip), %rax
	movq	(%rax), %rax
	movq	-144(%rbp), %rdx
	movq	%rdx, 8(%rax)
	movq	_TIG_iO_mE8U_1_vlintegerMult_1_opaque_list_1(%rip), %rax
	movq	-144(%rbp), %rdx
	movq	%rdx, (%rax)
	call	rand@PLT
	movl	%eax, -204(%rbp)
	movl	$24, %edi
	call	malloc@PLT
	movq	%rax, -136(%rbp)
	movl	-204(%rbp), %eax
	leal	(%rax,%rax), %edx
	movq	-136(%rbp), %rax
	movl	%edx, 16(%rax)
	movq	_TIG_iO_mE8U_1_vlintegerMult_1_opaque_list_1(%rip), %rax
	movq	(%rax), %rdx
	movq	-136(%rbp), %rax
	movq	%rdx, (%rax)
	movq	_TIG_iO_mE8U_1_vlintegerMult_1_opaque_list_1(%rip), %rdx
	movq	-136(%rbp), %rax
	movq	%rdx, 8(%rax)
	movq	_TIG_iO_mE8U_1_vlintegerMult_1_opaque_list_1(%rip), %rax
	movq	(%rax), %rax
	movq	-136(%rbp), %rdx
	movq	%rdx, 8(%rax)
	movq	_TIG_iO_mE8U_1_vlintegerMult_1_opaque_list_1(%rip), %rax
	movq	-136(%rbp), %rdx
	movq	%rdx, (%rax)
	movq	_TIG_iO_mE8U_1_vlintegerMult_1_opaque_list_1(%rip), %rax
	movq	(%rax), %rax
	movq	%rax, _TIG_iO_mE8U_1_vlintegerMult_1_opaque_ptr_1(%rip)
	movq	_TIG_iO_mE8U_1_vlintegerMult_1_opaque_ptr_1(%rip), %rax
	movq	%rax, _TIG_iO_mE8U_1_vlintegerMult_1_opaque_ptr_2(%rip)
	movq	_TIG_iO_mE8U_1_vlintegerMult_1_opaque_ptr_2(%rip), %rax
	movq	(%rax), %rax
	movq	%rax, _TIG_iO_mE8U_1_vlintegerMult_1_opaque_ptr_2(%rip)
	nop
	nop
	call	vlintegerCreate
	movq	%rax, -128(%rbp)
	movq	-128(%rbp), %rax
	movq	%rax, -168(%rbp)
	call	vlintegerCreate
	movq	%rax, -120(%rbp)
	movq	-120(%rbp), %rax
	movq	%rax, -112(%rbp)
	call	vlintegerCreate
	movq	%rax, -104(%rbp)
	movq	-104(%rbp), %rax
	movq	%rax, -96(%rbp)
	movl	$0, -200(%rbp)
	movl	$1, -196(%rbp)
	movl	$2, -192(%rbp)
	movq	-312(%rbp), %rax
	movl	(%rax), %edx
	movq	-320(%rbp), %rax
	movl	(%rax), %eax
	cmpl	%eax, %edx
	jle	.L69
	movq	-312(%rbp), %rax
	movl	(%rax), %edx
	movq	-320(%rbp), %rax
	movl	%edx, (%rax)
.L69:
	movq	-320(%rbp), %rax
	movl	(%rax), %edx
	movq	-312(%rbp), %rax
	movl	(%rax), %eax
	cmpl	%eax, %edx
	jle	.L70
	movq	-320(%rbp), %rax
	movl	(%rax), %edx
	movq	-312(%rbp), %rax
	movl	%edx, (%rax)
.L70:
	movq	-312(%rbp), %rax
	movl	(%rax), %edx
	movq	-320(%rbp), %rax
	movl	(%rax), %eax
	cmpl	%eax, %edx
	jle	.L71
	movq	-312(%rbp), %rax
	movl	(%rax), %eax
	movl	%eax, -188(%rbp)
	movq	-320(%rbp), %rax
	movl	(%rax), %eax
	movl	%eax, -184(%rbp)
	movl	-188(%rbp), %eax
	cltq
	leaq	0(,%rax,4), %rdx
	movq	-320(%rbp), %rax
	movq	8(%rax), %rax
	movq	%rdx, %rsi
	movq	%rax, %rdi
	call	realloc@PLT
	movq	%rax, -88(%rbp)
	movq	-320(%rbp), %rax
	movq	-88(%rbp), %rdx
	movq	%rdx, 8(%rax)
	movl	$0, -296(%rbp)
	jmp	.L72
.L75:
	movl	-188(%rbp), %eax
	subl	$1, %eax
	movl	%eax, -292(%rbp)
	jmp	.L73
.L74:
	movq	-320(%rbp), %rax
	movq	8(%rax), %rdx
	movl	-292(%rbp), %eax
	cltq
	salq	$2, %rax
	subq	$4, %rax
	leaq	(%rdx,%rax), %rcx
	movq	-320(%rbp), %rax
	movq	8(%rax), %rdx
	movl	-292(%rbp), %eax
	cltq
	salq	$2, %rax
	addq	%rax, %rdx
	movl	(%rcx), %eax
	movl	%eax, (%rdx)
	subl	$1, -292(%rbp)
.L73:
	cmpl	$0, -292(%rbp)
	jns	.L74
	addl	$1, -296(%rbp)
.L72:
	movl	-188(%rbp), %eax
	subl	-184(%rbp), %eax
	cmpl	%eax, -296(%rbp)
	jl	.L75
	movl	$0, -288(%rbp)
	jmp	.L76
.L77:
	movq	-320(%rbp), %rax
	movq	8(%rax), %rdx
	movl	-288(%rbp), %eax
	cltq
	salq	$2, %rax
	addq	%rdx, %rax
	movl	$0, (%rax)
	addl	$1, -288(%rbp)
.L76:
	movl	-188(%rbp), %eax
	subl	-184(%rbp), %eax
	cmpl	%eax, -288(%rbp)
	jl	.L77
.L71:
	movq	-312(%rbp), %rax
	movl	(%rax), %edx
	movq	-320(%rbp), %rax
	movl	(%rax), %eax
	cmpl	%eax, %edx
	jge	.L78
	movq	-320(%rbp), %rax
	movl	(%rax), %eax
	movl	%eax, -188(%rbp)
	movq	-312(%rbp), %rax
	movl	(%rax), %eax
	movl	%eax, -184(%rbp)
	movl	-188(%rbp), %eax
	cltq
	leaq	0(,%rax,4), %rdx
	movq	-312(%rbp), %rax
	movq	8(%rax), %rax
	movq	%rdx, %rsi
	movq	%rax, %rdi
	call	realloc@PLT
	movq	%rax, -80(%rbp)
	movq	-312(%rbp), %rax
	movq	-80(%rbp), %rdx
	movq	%rdx, 8(%rax)
	movl	$0, -284(%rbp)
	jmp	.L79
.L82:
	movl	-188(%rbp), %eax
	subl	$1, %eax
	movl	%eax, -280(%rbp)
	jmp	.L80
.L81:
	movq	-312(%rbp), %rax
	movq	8(%rax), %rdx
	movl	-280(%rbp), %eax
	cltq
	salq	$2, %rax
	subq	$4, %rax
	leaq	(%rdx,%rax), %rcx
	movq	-312(%rbp), %rax
	movq	8(%rax), %rdx
	movl	-280(%rbp), %eax
	cltq
	salq	$2, %rax
	addq	%rax, %rdx
	movl	(%rcx), %eax
	movl	%eax, (%rdx)
	subl	$1, -280(%rbp)
.L80:
	cmpl	$0, -280(%rbp)
	jns	.L81
	addl	$1, -284(%rbp)
.L79:
	movl	-188(%rbp), %eax
	subl	-184(%rbp), %eax
	cmpl	%eax, -284(%rbp)
	jl	.L82
	movl	$0, -276(%rbp)
	jmp	.L83
.L84:
	movq	-312(%rbp), %rax
	movq	8(%rax), %rdx
	movl	-276(%rbp), %eax
	cltq
	salq	$2, %rax
	addq	%rdx, %rax
	movl	$0, (%rax)
	addl	$1, -276(%rbp)
.L83:
	movl	-188(%rbp), %eax
	subl	-184(%rbp), %eax
	cmpl	%eax, -276(%rbp)
	jl	.L84
.L78:
	movq	-112(%rbp), %rax
	movl	$2, (%rax)
	movq	-112(%rbp), %rax
	movq	8(%rax), %rax
	movl	$8, %esi
	movq	%rax, %rdi
	call	realloc@PLT
	movq	%rax, -72(%rbp)
	movq	-112(%rbp), %rax
	movq	-72(%rbp), %rdx
	movq	%rdx, 8(%rax)
	movq	-96(%rbp), %rax
	movl	$2, (%rax)
	movq	-96(%rbp), %rax
	movq	8(%rax), %rax
	movl	$8, %esi
	movq	%rax, %rdi
	call	realloc@PLT
	movq	%rax, -64(%rbp)
	movq	-96(%rbp), %rax
	movq	-64(%rbp), %rdx
	movq	%rdx, 8(%rax)
	movq	-168(%rbp), %rax
	movq	8(%rax), %rax
	movl	$4, %esi
	movq	%rax, %rdi
	call	realloc@PLT
	movq	%rax, -56(%rbp)
	movq	-168(%rbp), %rax
	movq	-56(%rbp), %rdx
	movq	%rdx, 8(%rax)
	movq	-168(%rbp), %rax
	movl	$1, (%rax)
	movl	$0, -180(%rbp)
	movl	$0, -272(%rbp)
	movq	-320(%rbp), %rax
	movl	(%rax), %eax
	subl	$1, %eax
	movl	%eax, -268(%rbp)
	jmp	.L85
.L107:
	movl	$0, -264(%rbp)
	movq	-312(%rbp), %rax
	movl	(%rax), %eax
	subl	$1, %eax
	movl	%eax, -260(%rbp)
	jmp	.L86
.L106:
	movq	-312(%rbp), %rax
	movq	8(%rax), %rdx
	movl	-268(%rbp), %eax
	cltq
	salq	$2, %rax
	addq	%rdx, %rax
	movl	(%rax), %edx
	movq	-320(%rbp), %rax
	movq	8(%rax), %rcx
	movl	-260(%rbp), %eax
	cltq
	salq	$2, %rax
	addq	%rcx, %rax
	movl	(%rax), %eax
	imull	%edx, %eax
	movq	-112(%rbp), %rdx
	movq	8(%rdx), %rdx
	movslq	%eax, %rcx
	imulq	$1717986919, %rcx, %rcx
	shrq	$32, %rcx
	sarl	$2, %ecx
	sarl	$31, %eax
	movl	%eax, %esi
	movl	%ecx, %eax
	subl	%esi, %eax
	movl	%eax, (%rdx)
	movq	-312(%rbp), %rax
	movq	8(%rax), %rdx
	movl	-268(%rbp), %eax
	cltq
	salq	$2, %rax
	addq	%rdx, %rax
	movl	(%rax), %edx
	movq	-320(%rbp), %rax
	movq	8(%rax), %rcx
	movl	-260(%rbp), %eax
	cltq
	salq	$2, %rax
	addq	%rcx, %rax
	movl	(%rax), %eax
	movl	%edx, %ecx
	imull	%eax, %ecx
	movq	-112(%rbp), %rax
	movq	8(%rax), %rax
	leaq	4(%rax), %rsi
	movslq	%ecx, %rax
	imulq	$1717986919, %rax, %rax
	shrq	$32, %rax
	sarl	$2, %eax
	movl	%ecx, %edi
	sarl	$31, %edi
	subl	%edi, %eax
	movl	%eax, %edx
	movl	%edx, %eax
	sall	$2, %eax
	addl	%edx, %eax
	addl	%eax, %eax
	subl	%eax, %ecx
	movl	%ecx, %edx
	movl	%edx, (%rsi)
	movl	$0, -256(%rbp)
	jmp	.L87
.L88:
	movq	-112(%rbp), %rax
	movq	8(%rax), %rdx
	movl	-256(%rbp), %eax
	cltq
	salq	$2, %rax
	addq	%rdx, %rax
	movl	(%rax), %eax
	movl	%eax, %esi
	leaq	.LC16(%rip), %rax
	movq	%rax, %rdi
	movl	$0, %eax
	call	printf@PLT
	addl	$1, -256(%rbp)
.L87:
	movq	-112(%rbp), %rax
	movl	(%rax), %eax
	cmpl	%eax, -256(%rbp)
	jl	.L88
	movq	-112(%rbp), %rax
	movq	8(%rax), %rax
	movl	(%rax), %eax
	movl	%eax, -176(%rbp)
	movq	-112(%rbp), %rax
	movq	8(%rax), %rax
	movl	4(%rax), %eax
	movl	%eax, -172(%rbp)
	movl	$0, -252(%rbp)
	jmp	.L89
.L90:
	movq	-112(%rbp), %rax
	movq	8(%rax), %rdx
	movl	-252(%rbp), %eax
	cltq
	salq	$2, %rax
	addq	%rdx, %rax
	movl	$0, (%rax)
	addl	$1, -252(%rbp)
.L89:
	movq	-112(%rbp), %rax
	movl	(%rax), %eax
	cmpl	%eax, -252(%rbp)
	jl	.L90
	movq	-112(%rbp), %rax
	movq	%rax, %rdi
	call	vlintegerDestroy
	call	vlintegerCreate
	movq	%rax, -40(%rbp)
	movq	-40(%rbp), %rax
	movq	%rax, -32(%rbp)
	movl	-264(%rbp), %eax
	cltq
	leaq	0(,%rax,4), %rdx
	movq	-32(%rbp), %rax
	movq	8(%rax), %rax
	movq	%rdx, %rsi
	movq	%rax, %rdi
	call	realloc@PLT
	movq	%rax, -24(%rbp)
	movq	-32(%rbp), %rax
	movq	-24(%rbp), %rdx
	movq	%rdx, 8(%rax)
	movq	-32(%rbp), %rax
	movl	-264(%rbp), %edx
	movl	%edx, (%rax)
	movq	-32(%rbp), %rax
	movq	8(%rax), %rax
	movl	-176(%rbp), %edx
	movl	%edx, (%rax)
	movq	-32(%rbp), %rax
	movq	8(%rax), %rax
	leaq	4(%rax), %rdx
	movl	-172(%rbp), %eax
	movl	%eax, (%rdx)
	movl	$2, -248(%rbp)
	jmp	.L91
.L92:
	movq	-32(%rbp), %rax
	movq	8(%rax), %rdx
	movl	-248(%rbp), %eax
	cltq
	salq	$2, %rax
	addq	%rdx, %rax
	movl	$0, (%rax)
	addl	$1, -248(%rbp)
.L91:
	movq	-32(%rbp), %rax
	movl	(%rax), %eax
	cmpl	%eax, -248(%rbp)
	jl	.L92
	movl	-264(%rbp), %eax
	leal	2(%rax), %edx
	movl	-272(%rbp), %eax
	addl	%edx, %eax
	cltq
	leaq	0(,%rax,4), %rdx
	movq	-32(%rbp), %rax
	movq	8(%rax), %rax
	movq	%rdx, %rsi
	movq	%rax, %rdi
	call	realloc@PLT
	movq	%rax, -16(%rbp)
	movq	-32(%rbp), %rax
	movq	-16(%rbp), %rdx
	movq	%rdx, 8(%rax)
	movl	-264(%rbp), %eax
	leal	2(%rax), %edx
	movl	-272(%rbp), %eax
	addl	%eax, %edx
	movq	-32(%rbp), %rax
	movl	%edx, (%rax)
	movl	$2, -244(%rbp)
.L95:
	movq	-32(%rbp), %rax
	movl	(%rax), %eax
	cmpl	%eax, -244(%rbp)
	jl	.L93
	movq	_TIG_iO_mE8U_1_vlintegerRead_1_opaque_ptr_1(%rip), %rdx
	movq	_TIG_iO_mE8U_1_vlintegerRead_1_opaque_ptr_2(%rip), %rax
	cmpq	%rax, %rdx
	je	.L113
.L93:
	movq	-32(%rbp), %rax
	movq	8(%rax), %rdx
	movl	-244(%rbp), %eax
	cltq
	salq	$2, %rax
	addq	%rdx, %rax
	movl	$0, (%rax)
	addl	$1, -244(%rbp)
	jmp	.L95
.L113:
	nop
	movl	$0, -240(%rbp)
	jmp	.L96
.L97:
	movq	-32(%rbp), %rax
	movq	8(%rax), %rdx
	movl	-240(%rbp), %eax
	cltq
	salq	$2, %rax
	addq	%rdx, %rax
	movl	(%rax), %eax
	movl	%eax, %esi
	leaq	.LC17(%rip), %rax
	movq	%rax, %rdi
	movl	$0, %eax
	call	printf@PLT
	addl	$1, -240(%rbp)
.L96:
	movq	-32(%rbp), %rax
	movl	(%rax), %eax
	cmpl	%eax, -240(%rbp)
	jl	.L97
	movq	-32(%rbp), %rdx
	movq	-168(%rbp), %rax
	movq	%rdx, %rsi
	movq	%rax, %rdi
	call	vlintegerAdd
	movq	%rax, -168(%rbp)
	movl	$0, -236(%rbp)
	jmp	.L98
.L99:
	movq	-168(%rbp), %rax
	movq	8(%rax), %rdx
	movl	-236(%rbp), %eax
	cltq
	salq	$2, %rax
	addq	%rdx, %rax
	movl	(%rax), %eax
	movl	%eax, %esi
	leaq	.LC18(%rip), %rax
	movq	%rax, %rdi
	movl	$0, %eax
	call	printf@PLT
	addl	$1, -236(%rbp)
.L98:
	movq	-168(%rbp), %rax
	movl	(%rax), %eax
	cmpl	%eax, -236(%rbp)
	jl	.L99
	movl	$0, -232(%rbp)
	jmp	.L100
.L101:
	movq	-32(%rbp), %rax
	movq	8(%rax), %rdx
	movl	-232(%rbp), %eax
	cltq
	salq	$2, %rax
	addq	%rdx, %rax
	movl	$0, (%rax)
	movq	-32(%rbp), %rax
	movq	8(%rax), %rdx
	movl	-232(%rbp), %eax
	cltq
	salq	$2, %rax
	addq	%rdx, %rax
	movl	(%rax), %eax
	movl	%eax, %esi
	leaq	.LC19(%rip), %rax
	movq	%rax, %rdi
	movl	$0, %eax
	call	printf@PLT
	addl	$1, -232(%rbp)
.L100:
	movq	-32(%rbp), %rax
	movl	(%rax), %eax
	cmpl	%eax, -232(%rbp)
	jl	.L101
	movl	$0, -228(%rbp)
	jmp	.L102
.L103:
	movq	-32(%rbp), %rax
	movq	8(%rax), %rdx
	movl	-228(%rbp), %eax
	cltq
	salq	$2, %rax
	addq	%rdx, %rax
	movl	$0, (%rax)
	addl	$1, -228(%rbp)
.L102:
	movq	-32(%rbp), %rax
	movl	(%rax), %eax
	cmpl	%eax, -228(%rbp)
	jl	.L103
	movq	-32(%rbp), %rax
	movl	$2, (%rax)
	movq	-32(%rbp), %rax
	movq	8(%rax), %rax
	movl	$8, %esi
	movq	%rax, %rdi
	call	realloc@PLT
	movq	%rax, -8(%rbp)
	movq	-32(%rbp), %rax
	movq	-8(%rbp), %rdx
	movq	%rdx, 8(%rax)
	movl	$0, -224(%rbp)
	jmp	.L104
.L105:
	movq	-32(%rbp), %rax
	movq	8(%rax), %rdx
	movl	-224(%rbp), %eax
	cltq
	salq	$2, %rax
	addq	%rdx, %rax
	movl	$0, (%rax)
	addl	$1, -224(%rbp)
.L104:
	movq	-32(%rbp), %rax
	movl	(%rax), %eax
	cmpl	%eax, -224(%rbp)
	jl	.L105
	addl	$1, -264(%rbp)
	subl	$1, -260(%rbp)
.L86:
	cmpl	$0, -260(%rbp)
	jns	.L106
	addl	$1, -272(%rbp)
	subl	$1, -268(%rbp)
.L85:
	cmpl	$0, -268(%rbp)
	jns	.L107
	movl	$0, -220(%rbp)
	movl	$0, -216(%rbp)
	jmp	.L108
.L110:
	movq	-168(%rbp), %rax
	movq	8(%rax), %rdx
	movl	-216(%rbp), %eax
	cltq
	salq	$2, %rax
	addq	%rdx, %rax
	movl	(%rax), %eax
	testl	%eax, %eax
	je	.L109
	movq	-168(%rbp), %rax
	movq	8(%rax), %rdx
	movl	-216(%rbp), %eax
	cltq
	salq	$2, %rax
	leaq	(%rdx,%rax), %rcx
	movq	-168(%rbp), %rax
	movq	8(%rax), %rdx
	movl	-220(%rbp), %eax
	cltq
	salq	$2, %rax
	addq	%rax, %rdx
	movl	(%rcx), %eax
	movl	%eax, (%rdx)
	addl	$1, -220(%rbp)
.L109:
	addl	$1, -216(%rbp)
.L108:
	movq	-168(%rbp), %rax
	movl	(%rax), %eax
	cmpl	%eax, -216(%rbp)
	jl	.L110
	movl	-220(%rbp), %eax
	cltq
	leaq	0(,%rax,4), %rdx
	movq	-168(%rbp), %rax
	movq	8(%rax), %rax
	movq	%rdx, %rsi
	movq	%rax, %rdi
	call	realloc@PLT
	movq	%rax, -48(%rbp)
	movq	-168(%rbp), %rax
	movq	-48(%rbp), %rdx
	movq	%rdx, 8(%rax)
	movq	-168(%rbp), %rax
	movl	-220(%rbp), %edx
	movl	%edx, (%rax)
	movq	-112(%rbp), %rax
	movq	%rax, %rdi
	call	vlintegerDestroy
	movq	-112(%rbp), %rax
	movq	8(%rax), %rax
	movq	%rax, %rdi
	call	free@PLT
	movq	-112(%rbp), %rax
	movq	%rax, %rdi
	call	free@PLT
	movq	-96(%rbp), %rax
	movq	8(%rax), %rax
	movq	%rax, %rdi
	call	free@PLT
	movq	-96(%rbp), %rax
	movq	%rax, %rdi
	call	free@PLT
	movq	-168(%rbp), %rax
	leave
	.cfi_def_cfa 7, 8
	ret
	.cfi_endproc
.LFE7:
	.size	vlintegerMult, .-vlintegerMult
	.globl	power
	.type	power, @function
power:
.LFB10:
	.cfi_startproc
	endbr64
	pushq	%rbp
	.cfi_def_cfa_offset 16
	.cfi_offset 6, -16
	movq	%rsp, %rbp
	.cfi_def_cfa_register 6
	subq	$64, %rsp
	movl	%edi, -52(%rbp)
	movl	%esi, -56(%rbp)
#APP
# 70 "/usr/include/x86_64-linux-gnu/bits/byteswap.h" 1
	##_ANNOTATION_INITIALREGION_-TIG-iO-mE8U-1-power--16
# 0 "" 2
# 74 "/usr/include/x86_64-linux-gnu/bits/byteswap.h" 1
	##_ANNOTATION_ATOMICREGION_-TIG-iO-mE8U-1-power--15
# 0 "" 2
#NO_APP
	movl	$24, %edi
	call	malloc@PLT
	movq	%rax, -24(%rbp)
	movq	-24(%rbp), %rax
	movq	-24(%rbp), %rdx
	movq	%rdx, 16(%rax)
	movq	-24(%rbp), %rax
	movq	-24(%rbp), %rdx
	movq	%rdx, 8(%rax)
	movq	-24(%rbp), %rax
	movq	%rax, _TIG_iO_mE8U_1_power_1_opaque_list_1(%rip)
	call	rand@PLT
	movl	%eax, -32(%rbp)
	movl	$24, %edi
	call	malloc@PLT
	movq	%rax, -16(%rbp)
	movq	-16(%rbp), %rax
	movl	$0, (%rax)
	movq	_TIG_iO_mE8U_1_power_1_opaque_list_1(%rip), %rax
	movq	16(%rax), %rdx
	movq	-16(%rbp), %rax
	movq	%rdx, 16(%rax)
	movq	_TIG_iO_mE8U_1_power_1_opaque_list_1(%rip), %rdx
	movq	-16(%rbp), %rax
	movq	%rdx, 8(%rax)
	movq	_TIG_iO_mE8U_1_power_1_opaque_list_1(%rip), %rax
	movq	16(%rax), %rax
	movq	-16(%rbp), %rdx
	movq	%rdx, 8(%rax)
	movq	_TIG_iO_mE8U_1_power_1_opaque_list_1(%rip), %rax
	movq	-16(%rbp), %rdx
	movq	%rdx, 16(%rax)
	call	rand@PLT
	movl	%eax, -28(%rbp)
	movl	$24, %edi
	call	malloc@PLT
	movq	%rax, -8(%rbp)
	movq	-8(%rbp), %rax
	movl	-28(%rbp), %edx
	movl	%edx, (%rax)
	movq	_TIG_iO_mE8U_1_power_1_opaque_list_1(%rip), %rax
	movq	16(%rax), %rdx
	movq	-8(%rbp), %rax
	movq	%rdx, 16(%rax)
	movq	_TIG_iO_mE8U_1_power_1_opaque_list_1(%rip), %rdx
	movq	-8(%rbp), %rax
	movq	%rdx, 8(%rax)
	movq	_TIG_iO_mE8U_1_power_1_opaque_list_1(%rip), %rax
	movq	16(%rax), %rax
	movq	-8(%rbp), %rdx
	movq	%rdx, 8(%rax)
	movq	_TIG_iO_mE8U_1_power_1_opaque_list_1(%rip), %rax
	movq	-8(%rbp), %rdx
	movq	%rdx, 16(%rax)
	movq	_TIG_iO_mE8U_1_power_1_opaque_list_1(%rip), %rax
	movq	16(%rax), %rax
	movq	%rax, _TIG_iO_mE8U_1_power_1_opaque_ptr_1(%rip)
	movq	_TIG_iO_mE8U_1_power_1_opaque_ptr_1(%rip), %rax
	movq	%rax, _TIG_iO_mE8U_1_power_1_opaque_ptr_2(%rip)
	nop
	nop
	movl	$1, -40(%rbp)
	movl	$0, -36(%rbp)
	movq	_TIG_iO_mE8U_1_vlintegerRead_1_opaque_ptr_1(%rip), %rdx
	movq	_TIG_iO_mE8U_1_vlintegerRead_1_opaque_ptr_2(%rip), %rax
	cmpq	%rax, %rdx
	je	.L116
	movl	-52(%rbp), %edx
	movl	-36(%rbp), %eax
	movl	%edx, %esi
	movl	%eax, %edi
	call	power
	movl	%eax, -56(%rbp)
	jmp	.L116
.L117:
	movl	-40(%rbp), %eax
	imull	-52(%rbp), %eax
	movl	%eax, -40(%rbp)
	addl	$1, -36(%rbp)
.L116:
	movl	-36(%rbp), %eax
	cmpl	-56(%rbp), %eax
	jl	.L117
	movl	-40(%rbp), %eax
	leave
	.cfi_def_cfa 7, 8
	ret
	.cfi_endproc
.LFE10:
	.size	power, .-power
	.section	.rodata
.LC20:
	.string	"hi"
	.text
	.globl	vlintegerDestroy
	.type	vlintegerDestroy, @function
vlintegerDestroy:
.LFB13:
	.cfi_startproc
	endbr64
	pushq	%rbp
	.cfi_def_cfa_offset 16
	.cfi_offset 6, -16
	movq	%rsp, %rbp
	.cfi_def_cfa_register 6
	subq	$64, %rsp
	movq	%rdi, -56(%rbp)
#APP
# 63 "/usr/include/x86_64-linux-gnu/bits/uintn-identity.h" 1
	##_ANNOTATION_INITIALREGION_-TIG-iO-mE8U-1-vlintegerDestroy--22
# 0 "" 2
# 67 "/usr/include/x86_64-linux-gnu/bits/uintn-identity.h" 1
	##_ANNOTATION_ATOMICREGION_-TIG-iO-mE8U-1-vlintegerDestroy--21
# 0 "" 2
#NO_APP
	movl	$24, %edi
	call	malloc@PLT
	movq	%rax, -32(%rbp)
	movq	-32(%rbp), %rax
	movq	-32(%rbp), %rdx
	movq	%rdx, (%rax)
	movq	-32(%rbp), %rax
	movq	-32(%rbp), %rdx
	movq	%rdx, 16(%rax)
	movq	-32(%rbp), %rax
	movq	%rax, _TIG_iO_mE8U_1_vlintegerDestroy_1_opaque_list_1(%rip)
	call	rand@PLT
	movl	%eax, -44(%rbp)
	movl	$24, %edi
	call	malloc@PLT
	movq	%rax, -24(%rbp)
	movq	-24(%rbp), %rax
	movl	$0, 8(%rax)
	movq	_TIG_iO_mE8U_1_vlintegerDestroy_1_opaque_list_1(%rip), %rax
	movq	(%rax), %rdx
	movq	-24(%rbp), %rax
	movq	%rdx, (%rax)
	movq	_TIG_iO_mE8U_1_vlintegerDestroy_1_opaque_list_1(%rip), %rdx
	movq	-24(%rbp), %rax
	movq	%rdx, 16(%rax)
	movq	_TIG_iO_mE8U_1_vlintegerDestroy_1_opaque_list_1(%rip), %rax
	movq	(%rax), %rax
	movq	-24(%rbp), %rdx
	movq	%rdx, 16(%rax)
	movq	_TIG_iO_mE8U_1_vlintegerDestroy_1_opaque_list_1(%rip), %rax
	movq	-24(%rbp), %rdx
	movq	%rdx, (%rax)
	call	rand@PLT
	movl	%eax, -40(%rbp)
	movl	$24, %edi
	call	malloc@PLT
	movq	%rax, -16(%rbp)
	movq	-16(%rbp), %rax
	movl	-40(%rbp), %edx
	movl	%edx, 8(%rax)
	movq	_TIG_iO_mE8U_1_vlintegerDestroy_1_opaque_list_1(%rip), %rax
	movq	(%rax), %rdx
	movq	-16(%rbp), %rax
	movq	%rdx, (%rax)
	movq	_TIG_iO_mE8U_1_vlintegerDestroy_1_opaque_list_1(%rip), %rdx
	movq	-16(%rbp), %rax
	movq	%rdx, 16(%rax)
	movq	_TIG_iO_mE8U_1_vlintegerDestroy_1_opaque_list_1(%rip), %rax
	movq	(%rax), %rax
	movq	-16(%rbp), %rdx
	movq	%rdx, 16(%rax)
	movq	_TIG_iO_mE8U_1_vlintegerDestroy_1_opaque_list_1(%rip), %rax
	movq	-16(%rbp), %rdx
	movq	%rdx, (%rax)
	call	rand@PLT
	movl	%eax, -36(%rbp)
	movl	$24, %edi
	call	malloc@PLT
	movq	%rax, -8(%rbp)
	movl	-36(%rbp), %eax
	leal	(%rax,%rax), %edx
	movq	-8(%rbp), %rax
	movl	%edx, 8(%rax)
	movq	_TIG_iO_mE8U_1_vlintegerDestroy_1_opaque_list_1(%rip), %rax
	movq	(%rax), %rdx
	movq	-8(%rbp), %rax
	movq	%rdx, (%rax)
	movq	_TIG_iO_mE8U_1_vlintegerDestroy_1_opaque_list_1(%rip), %rdx
	movq	-8(%rbp), %rax
	movq	%rdx, 16(%rax)
	movq	_TIG_iO_mE8U_1_vlintegerDestroy_1_opaque_list_1(%rip), %rax
	movq	(%rax), %rax
	movq	-8(%rbp), %rdx
	movq	%rdx, 16(%rax)
	movq	_TIG_iO_mE8U_1_vlintegerDestroy_1_opaque_list_1(%rip), %rax
	movq	-8(%rbp), %rdx
	movq	%rdx, (%rax)
	movq	_TIG_iO_mE8U_1_vlintegerDestroy_1_opaque_list_1(%rip), %rax
	movq	(%rax), %rax
	movq	%rax, _TIG_iO_mE8U_1_vlintegerDestroy_1_opaque_ptr_1(%rip)
	movq	_TIG_iO_mE8U_1_vlintegerDestroy_1_opaque_ptr_1(%rip), %rax
	movq	%rax, _TIG_iO_mE8U_1_vlintegerDestroy_1_opaque_ptr_2(%rip)
	movq	_TIG_iO_mE8U_1_vlintegerDestroy_1_opaque_ptr_2(%rip), %rax
	movq	(%rax), %rax
	movq	%rax, _TIG_iO_mE8U_1_vlintegerDestroy_1_opaque_ptr_2(%rip)
	nop
	nop
	movq	-56(%rbp), %rax
	movq	8(%rax), %rax
	testq	%rax, %rax
	je	.L120
	movq	-56(%rbp), %rax
	movq	8(%rax), %rax
	movq	%rax, %rdi
	call	free@PLT
	leaq	.LC20(%rip), %rax
	movq	%rax, %rdi
	movl	$0, %eax
	call	printf@PLT
	movq	-56(%rbp), %rax
	movq	%rax, %rdi
	call	free@PLT
.L120:
	movq	_TIG_iO_mE8U_1_vlintegerRead_1_opaque_ptr_1(%rip), %rdx
	movq	_TIG_iO_mE8U_1_vlintegerRead_1_opaque_ptr_2(%rip), %rax
	cmpq	%rax, %rdx
	nop
	leave
	.cfi_def_cfa 7, 8
	ret
	.cfi_endproc
.LFE13:
	.size	vlintegerDestroy, .-vlintegerDestroy
	.ident	"GCC: (Ubuntu 11.4.0-1ubuntu1~22.04) 11.4.0"
	.section	.note.GNU-stack,"",@progbits
	.section	.note.gnu.property,"a"
	.align 8
	.long	1f - 0f
	.long	4f - 1f
	.long	5
0:
	.string	"GNU"
1:
	.align 8
	.long	0xc0000002
	.long	3f - 2f
2:
	.long	0x3
3:
	.align 8
4:
