	.file	"EzioAuditore12_CBNST_Programs_1_opaque.c"
	.text
	.globl	_TIG_iO_kHFl_1___bswap_32_1_opaque_ptr_1
	.bss
	.align 8
	.type	_TIG_iO_kHFl_1___bswap_32_1_opaque_ptr_1, @object
	.size	_TIG_iO_kHFl_1___bswap_32_1_opaque_ptr_1, 8
_TIG_iO_kHFl_1___bswap_32_1_opaque_ptr_1:
	.zero	8
	.globl	_TIG_iO_kHFl_1_bisect_1_opaque_list_1
	.align 8
	.type	_TIG_iO_kHFl_1_bisect_1_opaque_list_1, @object
	.size	_TIG_iO_kHFl_1_bisect_1_opaque_list_1, 8
_TIG_iO_kHFl_1_bisect_1_opaque_list_1:
	.zero	8
	.globl	_TIG_iO_kHFl_1___uint64_identity_1_opaque_ptr_2
	.align 8
	.type	_TIG_iO_kHFl_1___uint64_identity_1_opaque_ptr_2, @object
	.size	_TIG_iO_kHFl_1___uint64_identity_1_opaque_ptr_2, 8
_TIG_iO_kHFl_1___uint64_identity_1_opaque_ptr_2:
	.zero	8
	.globl	_TIG_iO_kHFl_1___uint16_identity_1_opaque_list_2
	.align 8
	.type	_TIG_iO_kHFl_1___uint16_identity_1_opaque_list_2, @object
	.size	_TIG_iO_kHFl_1___uint16_identity_1_opaque_list_2, 8
_TIG_iO_kHFl_1___uint16_identity_1_opaque_list_2:
	.zero	8
	.globl	_TIG_iO_kHFl_1_main_1_opaque_list_2
	.align 8
	.type	_TIG_iO_kHFl_1_main_1_opaque_list_2, @object
	.size	_TIG_iO_kHFl_1_main_1_opaque_list_2, 8
_TIG_iO_kHFl_1_main_1_opaque_list_2:
	.zero	8
	.globl	_TIG_iO_kHFl_1___uint16_identity_1_opaque_list_1
	.align 8
	.type	_TIG_iO_kHFl_1___uint16_identity_1_opaque_list_1, @object
	.size	_TIG_iO_kHFl_1___uint16_identity_1_opaque_list_1, 8
_TIG_iO_kHFl_1___uint16_identity_1_opaque_list_1:
	.zero	8
	.globl	_TIG_IZ_kHFl_argv
	.align 8
	.type	_TIG_IZ_kHFl_argv, @object
	.size	_TIG_IZ_kHFl_argv, 8
_TIG_IZ_kHFl_argv:
	.zero	8
	.globl	_TIG_IZ_kHFl_envp
	.align 8
	.type	_TIG_IZ_kHFl_envp, @object
	.size	_TIG_IZ_kHFl_envp, 8
_TIG_IZ_kHFl_envp:
	.zero	8
	.globl	_TIG_iO_kHFl_1_bisect_1_opaque_ptr_1
	.align 8
	.type	_TIG_iO_kHFl_1_bisect_1_opaque_ptr_1, @object
	.size	_TIG_iO_kHFl_1_bisect_1_opaque_ptr_1, 8
_TIG_iO_kHFl_1_bisect_1_opaque_ptr_1:
	.zero	8
	.globl	_TIG_iO_kHFl_1___bswap_64_1_opaque_ptr_2
	.align 8
	.type	_TIG_iO_kHFl_1___bswap_64_1_opaque_ptr_2, @object
	.size	_TIG_iO_kHFl_1___bswap_64_1_opaque_ptr_2, 8
_TIG_iO_kHFl_1___bswap_64_1_opaque_ptr_2:
	.zero	8
	.globl	_TIG_iO_kHFl_1___bswap_16_1_opaque_list_2
	.align 8
	.type	_TIG_iO_kHFl_1___bswap_16_1_opaque_list_2, @object
	.size	_TIG_iO_kHFl_1___bswap_16_1_opaque_list_2, 8
_TIG_iO_kHFl_1___bswap_16_1_opaque_list_2:
	.zero	8
	.globl	_TIG_iO_kHFl_1___bswap_32_1_opaque_list_1
	.align 8
	.type	_TIG_iO_kHFl_1___bswap_32_1_opaque_list_1, @object
	.size	_TIG_iO_kHFl_1___bswap_32_1_opaque_list_1, 8
_TIG_iO_kHFl_1___bswap_32_1_opaque_list_1:
	.zero	8
	.globl	_TIG_iO_kHFl_1_findValueAt_1_opaque_ptr_2
	.align 8
	.type	_TIG_iO_kHFl_1_findValueAt_1_opaque_ptr_2, @object
	.size	_TIG_iO_kHFl_1_findValueAt_1_opaque_ptr_2, 8
_TIG_iO_kHFl_1_findValueAt_1_opaque_ptr_2:
	.zero	8
	.globl	_TIG_iO_kHFl_1___uint32_identity_1_opaque_ptr_1
	.align 8
	.type	_TIG_iO_kHFl_1___uint32_identity_1_opaque_ptr_1, @object
	.size	_TIG_iO_kHFl_1___uint32_identity_1_opaque_ptr_1, 8
_TIG_iO_kHFl_1___uint32_identity_1_opaque_ptr_1:
	.zero	8
	.globl	_TIG_iO_kHFl_1_main_1_opaque_ptr_1
	.align 8
	.type	_TIG_iO_kHFl_1_main_1_opaque_ptr_1, @object
	.size	_TIG_iO_kHFl_1_main_1_opaque_ptr_1, 8
_TIG_iO_kHFl_1_main_1_opaque_ptr_1:
	.zero	8
	.globl	_TIG_iO_kHFl_1___bswap_16_1_opaque_ptr_2
	.align 8
	.type	_TIG_iO_kHFl_1___bswap_16_1_opaque_ptr_2, @object
	.size	_TIG_iO_kHFl_1___bswap_16_1_opaque_ptr_2, 8
_TIG_iO_kHFl_1___bswap_16_1_opaque_ptr_2:
	.zero	8
	.globl	_TIG_iO_kHFl_1___uint16_identity_1_opaque_ptr_1
	.align 8
	.type	_TIG_iO_kHFl_1___uint16_identity_1_opaque_ptr_1, @object
	.size	_TIG_iO_kHFl_1___uint16_identity_1_opaque_ptr_1, 8
_TIG_iO_kHFl_1___uint16_identity_1_opaque_ptr_1:
	.zero	8
	.globl	_TIG_iO_kHFl_1_bisect_1_opaque_ptr_2
	.align 8
	.type	_TIG_iO_kHFl_1_bisect_1_opaque_ptr_2, @object
	.size	_TIG_iO_kHFl_1_bisect_1_opaque_ptr_2, 8
_TIG_iO_kHFl_1_bisect_1_opaque_ptr_2:
	.zero	8
	.globl	_TIG_iO_kHFl_1___bswap_64_1_opaque_ptr_1
	.align 8
	.type	_TIG_iO_kHFl_1___bswap_64_1_opaque_ptr_1, @object
	.size	_TIG_iO_kHFl_1___bswap_64_1_opaque_ptr_1, 8
_TIG_iO_kHFl_1___bswap_64_1_opaque_ptr_1:
	.zero	8
	.globl	_TIG_iO_kHFl_1_findValueAt_1_opaque_list_2
	.align 8
	.type	_TIG_iO_kHFl_1_findValueAt_1_opaque_list_2, @object
	.size	_TIG_iO_kHFl_1_findValueAt_1_opaque_list_2, 8
_TIG_iO_kHFl_1_findValueAt_1_opaque_list_2:
	.zero	8
	.globl	_TIG_iO_kHFl_1___bswap_16_1_opaque_ptr_1
	.align 8
	.type	_TIG_iO_kHFl_1___bswap_16_1_opaque_ptr_1, @object
	.size	_TIG_iO_kHFl_1___bswap_16_1_opaque_ptr_1, 8
_TIG_iO_kHFl_1___bswap_16_1_opaque_ptr_1:
	.zero	8
	.globl	_TIG_iO_kHFl_1_bisect_1_opaque_list_2
	.align 8
	.type	_TIG_iO_kHFl_1_bisect_1_opaque_list_2, @object
	.size	_TIG_iO_kHFl_1_bisect_1_opaque_list_2, 8
_TIG_iO_kHFl_1_bisect_1_opaque_list_2:
	.zero	8
	.globl	_TIG_iO_kHFl_1_main_1_opaque_ptr_2
	.align 8
	.type	_TIG_iO_kHFl_1_main_1_opaque_ptr_2, @object
	.size	_TIG_iO_kHFl_1_main_1_opaque_ptr_2, 8
_TIG_iO_kHFl_1_main_1_opaque_ptr_2:
	.zero	8
	.globl	_TIG_iO_kHFl_1_main_1_opaque_list_1
	.align 8
	.type	_TIG_iO_kHFl_1_main_1_opaque_list_1, @object
	.size	_TIG_iO_kHFl_1_main_1_opaque_list_1, 8
_TIG_iO_kHFl_1_main_1_opaque_list_1:
	.zero	8
	.globl	_TIG_iO_kHFl_1___uint64_identity_1_opaque_list_1
	.align 8
	.type	_TIG_iO_kHFl_1___uint64_identity_1_opaque_list_1, @object
	.size	_TIG_iO_kHFl_1___uint64_identity_1_opaque_list_1, 8
_TIG_iO_kHFl_1___uint64_identity_1_opaque_list_1:
	.zero	8
	.globl	_TIG_iO_kHFl_1___uint64_identity_1_opaque_ptr_1
	.align 8
	.type	_TIG_iO_kHFl_1___uint64_identity_1_opaque_ptr_1, @object
	.size	_TIG_iO_kHFl_1___uint64_identity_1_opaque_ptr_1, 8
_TIG_iO_kHFl_1___uint64_identity_1_opaque_ptr_1:
	.zero	8
	.globl	_TIG_IZ_kHFl_argc
	.align 4
	.type	_TIG_IZ_kHFl_argc, @object
	.size	_TIG_IZ_kHFl_argc, 4
_TIG_IZ_kHFl_argc:
	.zero	4
	.globl	_TIG_iO_kHFl_1___uint16_identity_1_opaque_ptr_2
	.align 8
	.type	_TIG_iO_kHFl_1___uint16_identity_1_opaque_ptr_2, @object
	.size	_TIG_iO_kHFl_1___uint16_identity_1_opaque_ptr_2, 8
_TIG_iO_kHFl_1___uint16_identity_1_opaque_ptr_2:
	.zero	8
	.globl	_TIG_iO_kHFl_1___bswap_16_1_opaque_list_1
	.align 8
	.type	_TIG_iO_kHFl_1___bswap_16_1_opaque_list_1, @object
	.size	_TIG_iO_kHFl_1___bswap_16_1_opaque_list_1, 8
_TIG_iO_kHFl_1___bswap_16_1_opaque_list_1:
	.zero	8
	.globl	_TIG_iO_kHFl_1_findValueAt_1_opaque_ptr_1
	.align 8
	.type	_TIG_iO_kHFl_1_findValueAt_1_opaque_ptr_1, @object
	.size	_TIG_iO_kHFl_1_findValueAt_1_opaque_ptr_1, 8
_TIG_iO_kHFl_1_findValueAt_1_opaque_ptr_1:
	.zero	8
	.globl	_TIG_iO_kHFl_1___bswap_32_1_opaque_ptr_2
	.align 8
	.type	_TIG_iO_kHFl_1___bswap_32_1_opaque_ptr_2, @object
	.size	_TIG_iO_kHFl_1___bswap_32_1_opaque_ptr_2, 8
_TIG_iO_kHFl_1___bswap_32_1_opaque_ptr_2:
	.zero	8
	.globl	_TIG_iO_kHFl_1___bswap_64_1_opaque_list_1
	.align 8
	.type	_TIG_iO_kHFl_1___bswap_64_1_opaque_list_1, @object
	.size	_TIG_iO_kHFl_1___bswap_64_1_opaque_list_1, 8
_TIG_iO_kHFl_1___bswap_64_1_opaque_list_1:
	.zero	8
	.globl	_TIG_iO_kHFl_1_findValueAt_1_opaque_list_1
	.align 8
	.type	_TIG_iO_kHFl_1_findValueAt_1_opaque_list_1, @object
	.size	_TIG_iO_kHFl_1_findValueAt_1_opaque_list_1, 8
_TIG_iO_kHFl_1_findValueAt_1_opaque_list_1:
	.zero	8
	.globl	_TIG_iO_kHFl_1___uint64_identity_1_opaque_list_2
	.align 8
	.type	_TIG_iO_kHFl_1___uint64_identity_1_opaque_list_2, @object
	.size	_TIG_iO_kHFl_1___uint64_identity_1_opaque_list_2, 8
_TIG_iO_kHFl_1___uint64_identity_1_opaque_list_2:
	.zero	8
	.globl	_TIG_iO_kHFl_1___uint32_identity_1_opaque_list_2
	.align 8
	.type	_TIG_iO_kHFl_1___uint32_identity_1_opaque_list_2, @object
	.size	_TIG_iO_kHFl_1___uint32_identity_1_opaque_list_2, 8
_TIG_iO_kHFl_1___uint32_identity_1_opaque_list_2:
	.zero	8
	.globl	_TIG_iO_kHFl_1___bswap_64_1_opaque_list_2
	.align 8
	.type	_TIG_iO_kHFl_1___bswap_64_1_opaque_list_2, @object
	.size	_TIG_iO_kHFl_1___bswap_64_1_opaque_list_2, 8
_TIG_iO_kHFl_1___bswap_64_1_opaque_list_2:
	.zero	8
	.globl	_TIG_iO_kHFl_1___uint32_identity_1_opaque_ptr_2
	.align 8
	.type	_TIG_iO_kHFl_1___uint32_identity_1_opaque_ptr_2, @object
	.size	_TIG_iO_kHFl_1___uint32_identity_1_opaque_ptr_2, 8
_TIG_iO_kHFl_1___uint32_identity_1_opaque_ptr_2:
	.zero	8
	.globl	_TIG_iO_kHFl_1___uint32_identity_1_opaque_list_1
	.align 8
	.type	_TIG_iO_kHFl_1___uint32_identity_1_opaque_list_1, @object
	.size	_TIG_iO_kHFl_1___uint32_identity_1_opaque_list_1, 8
_TIG_iO_kHFl_1___uint32_identity_1_opaque_list_1:
	.zero	8
	.globl	_TIG_iO_kHFl_1___bswap_32_1_opaque_list_2
	.align 8
	.type	_TIG_iO_kHFl_1___bswap_32_1_opaque_list_2, @object
	.size	_TIG_iO_kHFl_1___bswap_32_1_opaque_list_2, 8
_TIG_iO_kHFl_1___bswap_32_1_opaque_list_2:
	.zero	8
	.section	.rodata
	.align 8
.LC0:
	.string	"Enter Maximum no of Iterations"
.LC1:
	.string	"%d"
	.align 8
.LC2:
	.string	"Enter the value of x1 and x2(starting boundary)"
.LC3:
	.string	"%f%f"
.LC5:
	.string	"Roots are Invalid"
.LC6:
	.string	"Roots Lie between %f and %f\n"
.LC7:
	.string	"Iterations=%d  Roots=%f\n"
.LC8:
	.string	"Root=%f  Total Iterations=%d"
	.text
	.globl	main
	.type	main, @function
main:
.LFB1:
	.cfi_startproc
	endbr64
	pushq	%rbp
	.cfi_def_cfa_offset 16
	.cfi_offset 6, -16
	movq	%rsp, %rbp
	.cfi_def_cfa_register 6
	addq	$-128, %rsp
	movl	%edi, -100(%rbp)
	movq	%rsi, -112(%rbp)
	movq	%rdx, -120(%rbp)
	movq	%fs:40, %rax
	movq	%rax, -8(%rbp)
	xorl	%eax, %eax
	movq	$0, _TIG_IZ_kHFl_envp(%rip)
	nop
.L2:
	movq	$0, _TIG_IZ_kHFl_argv(%rip)
	nop
.L3:
	movl	$0, _TIG_IZ_kHFl_argc(%rip)
	nop
	nop
.L4:
.L5:
#APP
# 99 "/usr/include/x86_64-linux-gnu/bits/uintn-identity.h" 1
	##_ANNOTATION_INITIALREGION_-TIG-IZ-kHFl--0
# 0 "" 2
#NO_APP
	movl	-100(%rbp), %eax
	movl	%eax, _TIG_IZ_kHFl_argc(%rip)
	movq	-112(%rbp), %rax
	movq	%rax, _TIG_IZ_kHFl_argv(%rip)
	movq	-120(%rbp), %rax
	movq	%rax, _TIG_IZ_kHFl_envp(%rip)
#APP
# 106 "/usr/include/x86_64-linux-gnu/bits/uintn-identity.h" 1
	##_ANNOTATION_ATOMICREGION_-TIG-iO-kHFl-1-main--17
# 0 "" 2
#NO_APP
	movl	$24, %edi
	call	malloc@PLT
	movq	%rax, -32(%rbp)
	movq	-32(%rbp), %rax
	movq	-32(%rbp), %rdx
	movq	%rdx, 8(%rax)
	movq	-32(%rbp), %rax
	movq	-32(%rbp), %rdx
	movq	%rdx, (%rax)
	movq	-32(%rbp), %rax
	movq	%rax, _TIG_iO_kHFl_1_main_1_opaque_list_1(%rip)
	call	rand@PLT
	movl	%eax, -64(%rbp)
	movl	$24, %edi
	call	malloc@PLT
	movq	%rax, -24(%rbp)
	movq	-24(%rbp), %rax
	movl	$0, 16(%rax)
	movq	_TIG_iO_kHFl_1_main_1_opaque_list_1(%rip), %rax
	movq	8(%rax), %rdx
	movq	-24(%rbp), %rax
	movq	%rdx, 8(%rax)
	movq	_TIG_iO_kHFl_1_main_1_opaque_list_1(%rip), %rdx
	movq	-24(%rbp), %rax
	movq	%rdx, (%rax)
	movq	_TIG_iO_kHFl_1_main_1_opaque_list_1(%rip), %rax
	movq	8(%rax), %rax
	movq	-24(%rbp), %rdx
	movq	%rdx, (%rax)
	movq	_TIG_iO_kHFl_1_main_1_opaque_list_1(%rip), %rax
	movq	-24(%rbp), %rdx
	movq	%rdx, 8(%rax)
	call	rand@PLT
	movl	%eax, -60(%rbp)
	movl	$24, %edi
	call	malloc@PLT
	movq	%rax, -16(%rbp)
	movq	-16(%rbp), %rax
	movl	-60(%rbp), %edx
	movl	%edx, 16(%rax)
	movq	_TIG_iO_kHFl_1_main_1_opaque_list_1(%rip), %rax
	movq	8(%rax), %rdx
	movq	-16(%rbp), %rax
	movq	%rdx, 8(%rax)
	movq	_TIG_iO_kHFl_1_main_1_opaque_list_1(%rip), %rdx
	movq	-16(%rbp), %rax
	movq	%rdx, (%rax)
	movq	_TIG_iO_kHFl_1_main_1_opaque_list_1(%rip), %rax
	movq	8(%rax), %rax
	movq	-16(%rbp), %rdx
	movq	%rdx, (%rax)
	movq	_TIG_iO_kHFl_1_main_1_opaque_list_1(%rip), %rax
	movq	-16(%rbp), %rdx
	movq	%rdx, 8(%rax)
	movq	_TIG_iO_kHFl_1_main_1_opaque_list_1(%rip), %rax
	movq	8(%rax), %rax
	movq	%rax, _TIG_iO_kHFl_1_main_1_opaque_ptr_1(%rip)
	movq	_TIG_iO_kHFl_1_main_1_opaque_ptr_1(%rip), %rax
	movq	%rax, _TIG_iO_kHFl_1_main_1_opaque_ptr_2(%rip)
	movq	_TIG_iO_kHFl_1_main_1_opaque_ptr_2(%rip), %rax
	movq	8(%rax), %rax
	movq	%rax, _TIG_iO_kHFl_1_main_1_opaque_ptr_2(%rip)
	nop
	nop
	movl	$1, -72(%rbp)
	leaq	.LC0(%rip), %rax
	movq	%rax, %rdi
	call	puts@PLT
	leaq	-84(%rbp), %rax
	movq	%rax, %rsi
	leaq	.LC1(%rip), %rax
	movq	%rax, %rdi
	movl	$0, %eax
	call	__isoc99_scanf@PLT
.L10:
	leaq	.LC2(%rip), %rax
	movq	%rax, %rdi
	movl	$0, %eax
	call	printf@PLT
	leaq	-76(%rbp), %rdx
	leaq	-80(%rbp), %rax
	movq	%rax, %rsi
	leaq	.LC3(%rip), %rax
	movq	%rax, %rdi
	movl	$0, %eax
	call	__isoc99_scanf@PLT
	movl	-80(%rbp), %eax
	movd	%eax, %xmm0
	call	findValueAt
	movd	%xmm0, %eax
	movl	%eax, -56(%rbp)
	movl	-76(%rbp), %eax
	movd	%eax, %xmm0
	call	findValueAt
	movd	%xmm0, %eax
	movl	%eax, -52(%rbp)
	movss	-56(%rbp), %xmm0
	mulss	-52(%rbp), %xmm0
	pxor	%xmm1, %xmm1
	comiss	%xmm1, %xmm0
	jbe	.L23
	leaq	.LC5(%rip), %rax
	movq	%rax, %rdi
	call	puts@PLT
	jmp	.L24
.L23:
	movss	-76(%rbp), %xmm0
	cvtss2sd	%xmm0, %xmm0
	movss	-80(%rbp), %xmm1
	pxor	%xmm2, %xmm2
	cvtss2sd	%xmm1, %xmm2
	movq	%xmm2, %rax
	movapd	%xmm0, %xmm1
	movq	%rax, %xmm0
	leaq	.LC6(%rip), %rax
	movq	%rax, %rdi
	movl	$2, %eax
	call	printf@PLT
	nop
	movq	_TIG_iO_kHFl_1_main_1_opaque_ptr_1(%rip), %rdx
	movq	_TIG_iO_kHFl_1_main_1_opaque_ptr_2(%rip), %rax
	cmpq	%rax, %rdx
	je	.L11
	jmp	.L12
.L24:
.L8:
	jmp	.L10
.L17:
	movss	-76(%rbp), %xmm0
	movl	-80(%rbp), %eax
	movaps	%xmm0, %xmm1
	movd	%eax, %xmm0
	call	bisect
	movd	%xmm0, %eax
	movl	%eax, -68(%rbp)
	movl	-68(%rbp), %eax
	movd	%eax, %xmm0
	call	findValueAt
	movd	%xmm0, %eax
	movl	%eax, -48(%rbp)
	movl	-80(%rbp), %eax
	movd	%eax, %xmm0
	call	findValueAt
	movd	%xmm0, %eax
	movl	%eax, -44(%rbp)
	movss	-48(%rbp), %xmm0
	movaps	%xmm0, %xmm1
	mulss	-44(%rbp), %xmm1
	pxor	%xmm0, %xmm0
	comiss	%xmm1, %xmm0
	jbe	.L26
	movss	-68(%rbp), %xmm0
	movss	%xmm0, -76(%rbp)
	jmp	.L15
.L26:
	movl	-68(%rbp), %eax
	movd	%eax, %xmm0
	call	findValueAt
	movd	%xmm0, %eax
	movl	%eax, -40(%rbp)
	movl	-76(%rbp), %eax
	movd	%eax, %xmm0
	call	findValueAt
	movd	%xmm0, %eax
	movl	%eax, -36(%rbp)
	movss	-40(%rbp), %xmm0
	movaps	%xmm0, %xmm1
	mulss	-36(%rbp), %xmm1
	pxor	%xmm0, %xmm0
	comiss	%xmm1, %xmm0
	jbe	.L15
	movss	-68(%rbp), %xmm0
	movss	%xmm0, -80(%rbp)
.L15:
	pxor	%xmm3, %xmm3
	cvtss2sd	-68(%rbp), %xmm3
	movq	%xmm3, %rdx
	movl	-72(%rbp), %eax
	movq	%rdx, %xmm0
	movl	%eax, %esi
	leaq	.LC7(%rip), %rax
	movq	%rax, %rdi
	movl	$1, %eax
	call	printf@PLT
	addl	$1, -72(%rbp)
.L12:
	movl	-84(%rbp), %eax
	cmpl	%eax, -72(%rbp)
	jle	.L17
.L11:
	subl	$1, -72(%rbp)
	pxor	%xmm4, %xmm4
	cvtss2sd	-68(%rbp), %xmm4
	movq	%xmm4, %rax
	movl	-72(%rbp), %edx
	movl	%edx, %esi
	movq	%rax, %xmm0
	leaq	.LC8(%rip), %rax
	movq	%rax, %rdi
	movl	$1, %eax
	call	printf@PLT
	movl	$0, %eax
	movq	-8(%rbp), %rdx
	subq	%fs:40, %rdx
	je	.L19
	call	__stack_chk_fail@PLT
.L19:
	leave
	.cfi_def_cfa 7, 8
	ret
	.cfi_endproc
.LFE1:
	.size	main, .-main
	.globl	findValueAt
	.type	findValueAt, @function
findValueAt:
.LFB4:
	.cfi_startproc
	endbr64
	pushq	%rbp
	.cfi_def_cfa_offset 16
	.cfi_offset 6, -16
	movq	%rsp, %rbp
	.cfi_def_cfa_register 6
	subq	$48, %rsp
	movss	%xmm0, -36(%rbp)
#APP
# 89 "/usr/include/x86_64-linux-gnu/bits/byteswap.h" 1
	##_ANNOTATION_INITIALREGION_-TIG-iO-kHFl-1-findValueAt--16
# 0 "" 2
# 93 "/usr/include/x86_64-linux-gnu/bits/byteswap.h" 1
	##_ANNOTATION_ATOMICREGION_-TIG-iO-kHFl-1-findValueAt--15
# 0 "" 2
#NO_APP
	movl	$24, %edi
	call	malloc@PLT
	movq	%rax, -24(%rbp)
	movq	-24(%rbp), %rax
	movq	-24(%rbp), %rdx
	movq	%rdx, 16(%rax)
	movq	-24(%rbp), %rax
	movq	-24(%rbp), %rdx
	movq	%rdx, 8(%rax)
	movq	-24(%rbp), %rax
	movq	%rax, _TIG_iO_kHFl_1_findValueAt_1_opaque_list_1(%rip)
	call	rand@PLT
	movl	%eax, -32(%rbp)
	movl	$24, %edi
	call	malloc@PLT
	movq	%rax, -16(%rbp)
	movq	-16(%rbp), %rax
	movl	$0, (%rax)
	movq	_TIG_iO_kHFl_1_findValueAt_1_opaque_list_1(%rip), %rax
	movq	16(%rax), %rdx
	movq	-16(%rbp), %rax
	movq	%rdx, 16(%rax)
	movq	_TIG_iO_kHFl_1_findValueAt_1_opaque_list_1(%rip), %rdx
	movq	-16(%rbp), %rax
	movq	%rdx, 8(%rax)
	movq	_TIG_iO_kHFl_1_findValueAt_1_opaque_list_1(%rip), %rax
	movq	16(%rax), %rax
	movq	-16(%rbp), %rdx
	movq	%rdx, 8(%rax)
	movq	_TIG_iO_kHFl_1_findValueAt_1_opaque_list_1(%rip), %rax
	movq	-16(%rbp), %rdx
	movq	%rdx, 16(%rax)
	call	rand@PLT
	movl	%eax, -28(%rbp)
	movl	$24, %edi
	call	malloc@PLT
	movq	%rax, -8(%rbp)
	movq	-8(%rbp), %rax
	movl	-28(%rbp), %edx
	movl	%edx, (%rax)
	movq	_TIG_iO_kHFl_1_findValueAt_1_opaque_list_1(%rip), %rax
	movq	16(%rax), %rdx
	movq	-8(%rbp), %rax
	movq	%rdx, 16(%rax)
	movq	_TIG_iO_kHFl_1_findValueAt_1_opaque_list_1(%rip), %rdx
	movq	-8(%rbp), %rax
	movq	%rdx, 8(%rax)
	movq	_TIG_iO_kHFl_1_findValueAt_1_opaque_list_1(%rip), %rax
	movq	16(%rax), %rax
	movq	-8(%rbp), %rdx
	movq	%rdx, 8(%rax)
	movq	_TIG_iO_kHFl_1_findValueAt_1_opaque_list_1(%rip), %rax
	movq	-8(%rbp), %rdx
	movq	%rdx, 16(%rax)
	movq	_TIG_iO_kHFl_1_findValueAt_1_opaque_list_1(%rip), %rax
	movq	16(%rax), %rax
	movq	%rax, _TIG_iO_kHFl_1_findValueAt_1_opaque_ptr_1(%rip)
	movq	_TIG_iO_kHFl_1_findValueAt_1_opaque_ptr_1(%rip), %rax
	movq	%rax, _TIG_iO_kHFl_1_findValueAt_1_opaque_ptr_2(%rip)
	nop
	nop
	movq	_TIG_iO_kHFl_1_main_1_opaque_ptr_1(%rip), %rdx
	movq	_TIG_iO_kHFl_1_main_1_opaque_ptr_2(%rip), %rax
	cmpq	%rax, %rdx
	jne	.L28
	movss	-36(%rbp), %xmm0
	mulss	%xmm0, %xmm0
	movaps	%xmm0, %xmm1
	mulss	-36(%rbp), %xmm1
	movss	-36(%rbp), %xmm0
	movaps	%xmm0, %xmm2
	addss	%xmm0, %xmm2
	subss	%xmm2, %xmm1
	movaps	%xmm1, %xmm0
	movss	.LC9(%rip), %xmm1
	subss	%xmm1, %xmm0
	divss	-36(%rbp), %xmm0
	jmp	.L29
.L28:
	movss	-36(%rbp), %xmm0
	mulss	%xmm0, %xmm0
	movaps	%xmm0, %xmm1
	mulss	-36(%rbp), %xmm1
	movss	-36(%rbp), %xmm0
	movaps	%xmm0, %xmm2
	addss	%xmm0, %xmm2
	subss	%xmm2, %xmm1
	movaps	%xmm1, %xmm0
	movss	.LC9(%rip), %xmm1
	subss	%xmm1, %xmm0
.L29:
	leave
	.cfi_def_cfa 7, 8
	ret
	.cfi_endproc
.LFE4:
	.size	findValueAt, .-findValueAt
	.globl	bisect
	.type	bisect, @function
bisect:
.LFB8:
	.cfi_startproc
	endbr64
	pushq	%rbp
	.cfi_def_cfa_offset 16
	.cfi_offset 6, -16
	movq	%rsp, %rbp
	.cfi_def_cfa_register 6
	subq	$80, %rsp
	movss	%xmm0, -68(%rbp)
	movss	%xmm1, -72(%rbp)
#APP
# 59 "/usr/include/x86_64-linux-gnu/bits/uintn-identity.h" 1
	##_ANNOTATION_INITIALREGION_-TIG-iO-kHFl-1-bisect--14
# 0 "" 2
# 63 "/usr/include/x86_64-linux-gnu/bits/uintn-identity.h" 1
	##_ANNOTATION_ATOMICREGION_-TIG-iO-kHFl-1-bisect--13
# 0 "" 2
#NO_APP
	movl	$24, %edi
	call	malloc@PLT
	movq	%rax, -40(%rbp)
	movq	-40(%rbp), %rax
	movq	-40(%rbp), %rdx
	movq	%rdx, (%rax)
	movq	-40(%rbp), %rax
	movq	-40(%rbp), %rdx
	movq	%rdx, 8(%rax)
	movq	-40(%rbp), %rax
	movq	%rax, _TIG_iO_kHFl_1_bisect_1_opaque_list_1(%rip)
	call	rand@PLT
	movl	%eax, -56(%rbp)
	movl	$24, %edi
	call	malloc@PLT
	movq	%rax, -32(%rbp)
	movq	-32(%rbp), %rax
	movl	$0, 16(%rax)
	movq	_TIG_iO_kHFl_1_bisect_1_opaque_list_1(%rip), %rax
	movq	(%rax), %rdx
	movq	-32(%rbp), %rax
	movq	%rdx, (%rax)
	movq	_TIG_iO_kHFl_1_bisect_1_opaque_list_1(%rip), %rdx
	movq	-32(%rbp), %rax
	movq	%rdx, 8(%rax)
	movq	_TIG_iO_kHFl_1_bisect_1_opaque_list_1(%rip), %rax
	movq	(%rax), %rax
	movq	-32(%rbp), %rdx
	movq	%rdx, 8(%rax)
	movq	_TIG_iO_kHFl_1_bisect_1_opaque_list_1(%rip), %rax
	movq	-32(%rbp), %rdx
	movq	%rdx, (%rax)
	call	rand@PLT
	movl	%eax, -52(%rbp)
	movl	$24, %edi
	call	malloc@PLT
	movq	%rax, -24(%rbp)
	movq	-24(%rbp), %rax
	movl	-52(%rbp), %edx
	movl	%edx, 16(%rax)
	movq	_TIG_iO_kHFl_1_bisect_1_opaque_list_1(%rip), %rax
	movq	(%rax), %rdx
	movq	-24(%rbp), %rax
	movq	%rdx, (%rax)
	movq	_TIG_iO_kHFl_1_bisect_1_opaque_list_1(%rip), %rdx
	movq	-24(%rbp), %rax
	movq	%rdx, 8(%rax)
	movq	_TIG_iO_kHFl_1_bisect_1_opaque_list_1(%rip), %rax
	movq	(%rax), %rax
	movq	-24(%rbp), %rdx
	movq	%rdx, 8(%rax)
	movq	_TIG_iO_kHFl_1_bisect_1_opaque_list_1(%rip), %rax
	movq	-24(%rbp), %rdx
	movq	%rdx, (%rax)
	call	rand@PLT
	movl	%eax, -48(%rbp)
	movl	$24, %edi
	call	malloc@PLT
	movq	%rax, -16(%rbp)
	movl	-48(%rbp), %eax
	leal	(%rax,%rax), %edx
	movq	-16(%rbp), %rax
	movl	%edx, 16(%rax)
	movq	_TIG_iO_kHFl_1_bisect_1_opaque_list_1(%rip), %rax
	movq	(%rax), %rdx
	movq	-16(%rbp), %rax
	movq	%rdx, (%rax)
	movq	_TIG_iO_kHFl_1_bisect_1_opaque_list_1(%rip), %rdx
	movq	-16(%rbp), %rax
	movq	%rdx, 8(%rax)
	movq	_TIG_iO_kHFl_1_bisect_1_opaque_list_1(%rip), %rax
	movq	(%rax), %rax
	movq	-16(%rbp), %rdx
	movq	%rdx, 8(%rax)
	movq	_TIG_iO_kHFl_1_bisect_1_opaque_list_1(%rip), %rax
	movq	-16(%rbp), %rdx
	movq	%rdx, (%rax)
	call	rand@PLT
	movl	%eax, -44(%rbp)
	movl	$24, %edi
	call	malloc@PLT
	movq	%rax, -8(%rbp)
	movl	-44(%rbp), %edx
	movl	%edx, %eax
	addl	%eax, %eax
	addl	%eax, %edx
	movq	-8(%rbp), %rax
	movl	%edx, 16(%rax)
	movq	_TIG_iO_kHFl_1_bisect_1_opaque_list_1(%rip), %rax
	movq	(%rax), %rdx
	movq	-8(%rbp), %rax
	movq	%rdx, (%rax)
	movq	_TIG_iO_kHFl_1_bisect_1_opaque_list_1(%rip), %rdx
	movq	-8(%rbp), %rax
	movq	%rdx, 8(%rax)
	movq	_TIG_iO_kHFl_1_bisect_1_opaque_list_1(%rip), %rax
	movq	(%rax), %rax
	movq	-8(%rbp), %rdx
	movq	%rdx, 8(%rax)
	movq	_TIG_iO_kHFl_1_bisect_1_opaque_list_1(%rip), %rax
	movq	-8(%rbp), %rdx
	movq	%rdx, (%rax)
	movq	_TIG_iO_kHFl_1_bisect_1_opaque_list_1(%rip), %rax
	movq	(%rax), %rax
	movq	%rax, _TIG_iO_kHFl_1_bisect_1_opaque_ptr_1(%rip)
	movq	_TIG_iO_kHFl_1_bisect_1_opaque_ptr_1(%rip), %rax
	movq	%rax, _TIG_iO_kHFl_1_bisect_1_opaque_ptr_2(%rip)
	movq	_TIG_iO_kHFl_1_bisect_1_opaque_ptr_2(%rip), %rax
	movq	(%rax), %rax
	movq	%rax, _TIG_iO_kHFl_1_bisect_1_opaque_ptr_2(%rip)
	nop
	nop
	movq	_TIG_iO_kHFl_1_main_1_opaque_ptr_1(%rip), %rdx
	movq	_TIG_iO_kHFl_1_main_1_opaque_ptr_2(%rip), %rax
	cmpq	%rax, %rdx
	je	.L31
	movss	-68(%rbp), %xmm0
	addss	-72(%rbp), %xmm0
	movss	.LC10(%rip), %xmm1
	divss	%xmm1, %xmm0
	jmp	.L30
.L31:
.L30:
	leave
	.cfi_def_cfa 7, 8
	ret
	.cfi_endproc
.LFE8:
	.size	bisect, .-bisect
	.section	.rodata
	.align 4
.LC9:
	.long	1084227584
	.align 4
.LC10:
	.long	1073741824
	.ident	"GCC: (Ubuntu 11.4.0-1ubuntu1~22.04) 11.4.0"
	.section	.note.GNU-stack,"",@progbits
	.section	.note.gnu.property,"a"
	.align 8
	.long	1f - 0f
	.long	4f - 1f
	.long	5
0:
	.string	"GNU"
1:
	.align 8
	.long	0xc0000002
	.long	3f - 2f
2:
	.long	0x3
3:
	.align 8
4:
