	.file	"FalckJoshua_DIT633-Embedded-And-Real-Time-Systems_wp1_exercise3_opaque.c"
	.text
	.globl	_TIG_iO_kEAO_1___bswap_16_1_opaque_list_1
	.bss
	.align 8
	.type	_TIG_iO_kEAO_1___bswap_16_1_opaque_list_1, @object
	.size	_TIG_iO_kEAO_1___bswap_16_1_opaque_list_1, 8
_TIG_iO_kEAO_1___bswap_16_1_opaque_list_1:
	.zero	8
	.globl	_TIG_iO_kEAO_1___uint16_identity_1_opaque_list_1
	.align 8
	.type	_TIG_iO_kEAO_1___uint16_identity_1_opaque_list_1, @object
	.size	_TIG_iO_kEAO_1___uint16_identity_1_opaque_list_1, 8
_TIG_iO_kEAO_1___uint16_identity_1_opaque_list_1:
	.zero	8
	.globl	_TIG_iO_kEAO_1_main_1_opaque_list_1
	.align 8
	.type	_TIG_iO_kEAO_1_main_1_opaque_list_1, @object
	.size	_TIG_iO_kEAO_1_main_1_opaque_list_1, 8
_TIG_iO_kEAO_1_main_1_opaque_list_1:
	.zero	8
	.globl	_TIG_iO_kEAO_1___bswap_32_1_opaque_ptr_1
	.align 8
	.type	_TIG_iO_kEAO_1___bswap_32_1_opaque_ptr_1, @object
	.size	_TIG_iO_kEAO_1___bswap_32_1_opaque_ptr_1, 8
_TIG_iO_kEAO_1___bswap_32_1_opaque_ptr_1:
	.zero	8
	.globl	_TIG_iO_kEAO_1___bswap_32_1_opaque_list_1
	.align 8
	.type	_TIG_iO_kEAO_1___bswap_32_1_opaque_list_1, @object
	.size	_TIG_iO_kEAO_1___bswap_32_1_opaque_list_1, 8
_TIG_iO_kEAO_1___bswap_32_1_opaque_list_1:
	.zero	8
	.globl	_TIG_iO_kEAO_1_charIsNumber_1_opaque_ptr_2
	.align 8
	.type	_TIG_iO_kEAO_1_charIsNumber_1_opaque_ptr_2, @object
	.size	_TIG_iO_kEAO_1_charIsNumber_1_opaque_ptr_2, 8
_TIG_iO_kEAO_1_charIsNumber_1_opaque_ptr_2:
	.zero	8
	.globl	_TIG_iO_kEAO_1___bswap_64_1_opaque_ptr_2
	.align 8
	.type	_TIG_iO_kEAO_1___bswap_64_1_opaque_ptr_2, @object
	.size	_TIG_iO_kEAO_1___bswap_64_1_opaque_ptr_2, 8
_TIG_iO_kEAO_1___bswap_64_1_opaque_ptr_2:
	.zero	8
	.globl	_TIG_iO_kEAO_1___bswap_64_1_opaque_list_2
	.align 8
	.type	_TIG_iO_kEAO_1___bswap_64_1_opaque_list_2, @object
	.size	_TIG_iO_kEAO_1___bswap_64_1_opaque_list_2, 8
_TIG_iO_kEAO_1___bswap_64_1_opaque_list_2:
	.zero	8
	.globl	_TIG_iO_kEAO_1___uint16_identity_1_opaque_ptr_1
	.align 8
	.type	_TIG_iO_kEAO_1___uint16_identity_1_opaque_ptr_1, @object
	.size	_TIG_iO_kEAO_1___uint16_identity_1_opaque_ptr_1, 8
_TIG_iO_kEAO_1___uint16_identity_1_opaque_ptr_1:
	.zero	8
	.globl	_TIG_iO_kEAO_1___uint32_identity_1_opaque_list_2
	.align 8
	.type	_TIG_iO_kEAO_1___uint32_identity_1_opaque_list_2, @object
	.size	_TIG_iO_kEAO_1___uint32_identity_1_opaque_list_2, 8
_TIG_iO_kEAO_1___uint32_identity_1_opaque_list_2:
	.zero	8
	.globl	_TIG_iO_kEAO_1___uint64_identity_1_opaque_list_2
	.align 8
	.type	_TIG_iO_kEAO_1___uint64_identity_1_opaque_list_2, @object
	.size	_TIG_iO_kEAO_1___uint64_identity_1_opaque_list_2, 8
_TIG_iO_kEAO_1___uint64_identity_1_opaque_list_2:
	.zero	8
	.globl	_TIG_iO_kEAO_1___bswap_64_1_opaque_ptr_1
	.align 8
	.type	_TIG_iO_kEAO_1___bswap_64_1_opaque_ptr_1, @object
	.size	_TIG_iO_kEAO_1___bswap_64_1_opaque_ptr_1, 8
_TIG_iO_kEAO_1___bswap_64_1_opaque_ptr_1:
	.zero	8
	.globl	_TIG_iO_kEAO_1___uint16_identity_1_opaque_list_2
	.align 8
	.type	_TIG_iO_kEAO_1___uint16_identity_1_opaque_list_2, @object
	.size	_TIG_iO_kEAO_1___uint16_identity_1_opaque_list_2, 8
_TIG_iO_kEAO_1___uint16_identity_1_opaque_list_2:
	.zero	8
	.globl	_TIG_IZ_kEAO_argv
	.align 8
	.type	_TIG_IZ_kEAO_argv, @object
	.size	_TIG_IZ_kEAO_argv, 8
_TIG_IZ_kEAO_argv:
	.zero	8
	.globl	_TIG_iO_kEAO_1___uint32_identity_1_opaque_list_1
	.align 8
	.type	_TIG_iO_kEAO_1___uint32_identity_1_opaque_list_1, @object
	.size	_TIG_iO_kEAO_1___uint32_identity_1_opaque_list_1, 8
_TIG_iO_kEAO_1___uint32_identity_1_opaque_list_1:
	.zero	8
	.globl	_TIG_IZ_kEAO_envp
	.align 8
	.type	_TIG_IZ_kEAO_envp, @object
	.size	_TIG_IZ_kEAO_envp, 8
_TIG_IZ_kEAO_envp:
	.zero	8
	.globl	_TIG_iO_kEAO_1_main_1_opaque_ptr_2
	.align 8
	.type	_TIG_iO_kEAO_1_main_1_opaque_ptr_2, @object
	.size	_TIG_iO_kEAO_1_main_1_opaque_ptr_2, 8
_TIG_iO_kEAO_1_main_1_opaque_ptr_2:
	.zero	8
	.globl	_TIG_iO_kEAO_1_main_1_opaque_list_2
	.align 8
	.type	_TIG_iO_kEAO_1_main_1_opaque_list_2, @object
	.size	_TIG_iO_kEAO_1_main_1_opaque_list_2, 8
_TIG_iO_kEAO_1_main_1_opaque_list_2:
	.zero	8
	.globl	_TIG_iO_kEAO_1___bswap_32_1_opaque_list_2
	.align 8
	.type	_TIG_iO_kEAO_1___bswap_32_1_opaque_list_2, @object
	.size	_TIG_iO_kEAO_1___bswap_32_1_opaque_list_2, 8
_TIG_iO_kEAO_1___bswap_32_1_opaque_list_2:
	.zero	8
	.globl	_TIG_iO_kEAO_1___bswap_32_1_opaque_ptr_2
	.align 8
	.type	_TIG_iO_kEAO_1___bswap_32_1_opaque_ptr_2, @object
	.size	_TIG_iO_kEAO_1___bswap_32_1_opaque_ptr_2, 8
_TIG_iO_kEAO_1___bswap_32_1_opaque_ptr_2:
	.zero	8
	.globl	_TIG_iO_kEAO_1_charIsNumber_1_opaque_list_2
	.align 8
	.type	_TIG_iO_kEAO_1_charIsNumber_1_opaque_list_2, @object
	.size	_TIG_iO_kEAO_1_charIsNumber_1_opaque_list_2, 8
_TIG_iO_kEAO_1_charIsNumber_1_opaque_list_2:
	.zero	8
	.globl	_TIG_iO_kEAO_1___bswap_16_1_opaque_ptr_1
	.align 8
	.type	_TIG_iO_kEAO_1___bswap_16_1_opaque_ptr_1, @object
	.size	_TIG_iO_kEAO_1___bswap_16_1_opaque_ptr_1, 8
_TIG_iO_kEAO_1___bswap_16_1_opaque_ptr_1:
	.zero	8
	.globl	_TIG_iO_kEAO_1___uint64_identity_1_opaque_ptr_2
	.align 8
	.type	_TIG_iO_kEAO_1___uint64_identity_1_opaque_ptr_2, @object
	.size	_TIG_iO_kEAO_1___uint64_identity_1_opaque_ptr_2, 8
_TIG_iO_kEAO_1___uint64_identity_1_opaque_ptr_2:
	.zero	8
	.globl	GUESSED_NUMBER
	.align 4
	.type	GUESSED_NUMBER, @object
	.size	GUESSED_NUMBER, 4
GUESSED_NUMBER:
	.zero	4
	.globl	_TIG_iO_kEAO_1___bswap_16_1_opaque_list_2
	.align 8
	.type	_TIG_iO_kEAO_1___bswap_16_1_opaque_list_2, @object
	.size	_TIG_iO_kEAO_1___bswap_16_1_opaque_list_2, 8
_TIG_iO_kEAO_1___bswap_16_1_opaque_list_2:
	.zero	8
	.globl	_TIG_iO_kEAO_1___uint32_identity_1_opaque_ptr_1
	.align 8
	.type	_TIG_iO_kEAO_1___uint32_identity_1_opaque_ptr_1, @object
	.size	_TIG_iO_kEAO_1___uint32_identity_1_opaque_ptr_1, 8
_TIG_iO_kEAO_1___uint32_identity_1_opaque_ptr_1:
	.zero	8
	.globl	_TIG_iO_kEAO_1___uint64_identity_1_opaque_list_1
	.align 8
	.type	_TIG_iO_kEAO_1___uint64_identity_1_opaque_list_1, @object
	.size	_TIG_iO_kEAO_1___uint64_identity_1_opaque_list_1, 8
_TIG_iO_kEAO_1___uint64_identity_1_opaque_list_1:
	.zero	8
	.globl	ACTIVE_GAME
	.align 4
	.type	ACTIVE_GAME, @object
	.size	ACTIVE_GAME, 4
ACTIVE_GAME:
	.zero	4
	.globl	GUESS_COUNTER
	.align 4
	.type	GUESS_COUNTER, @object
	.size	GUESS_COUNTER, 4
GUESS_COUNTER:
	.zero	4
	.globl	MAX_GUESSES
	.align 4
	.type	MAX_GUESSES, @object
	.size	MAX_GUESSES, 4
MAX_GUESSES:
	.zero	4
	.globl	_TIG_IZ_kEAO_argc
	.align 4
	.type	_TIG_IZ_kEAO_argc, @object
	.size	_TIG_IZ_kEAO_argc, 4
_TIG_IZ_kEAO_argc:
	.zero	4
	.globl	_TIG_iO_kEAO_1___bswap_64_1_opaque_list_1
	.align 8
	.type	_TIG_iO_kEAO_1___bswap_64_1_opaque_list_1, @object
	.size	_TIG_iO_kEAO_1___bswap_64_1_opaque_list_1, 8
_TIG_iO_kEAO_1___bswap_64_1_opaque_list_1:
	.zero	8
	.globl	_TIG_iO_kEAO_1___uint16_identity_1_opaque_ptr_2
	.align 8
	.type	_TIG_iO_kEAO_1___uint16_identity_1_opaque_ptr_2, @object
	.size	_TIG_iO_kEAO_1___uint16_identity_1_opaque_ptr_2, 8
_TIG_iO_kEAO_1___uint16_identity_1_opaque_ptr_2:
	.zero	8
	.globl	_TIG_iO_kEAO_1___uint32_identity_1_opaque_ptr_2
	.align 8
	.type	_TIG_iO_kEAO_1___uint32_identity_1_opaque_ptr_2, @object
	.size	_TIG_iO_kEAO_1___uint32_identity_1_opaque_ptr_2, 8
_TIG_iO_kEAO_1___uint32_identity_1_opaque_ptr_2:
	.zero	8
	.globl	_TIG_iO_kEAO_1_charIsNumber_1_opaque_ptr_1
	.align 8
	.type	_TIG_iO_kEAO_1_charIsNumber_1_opaque_ptr_1, @object
	.size	_TIG_iO_kEAO_1_charIsNumber_1_opaque_ptr_1, 8
_TIG_iO_kEAO_1_charIsNumber_1_opaque_ptr_1:
	.zero	8
	.globl	_TIG_iO_kEAO_1___bswap_16_1_opaque_ptr_2
	.align 8
	.type	_TIG_iO_kEAO_1___bswap_16_1_opaque_ptr_2, @object
	.size	_TIG_iO_kEAO_1___bswap_16_1_opaque_ptr_2, 8
_TIG_iO_kEAO_1___bswap_16_1_opaque_ptr_2:
	.zero	8
	.globl	_TIG_iO_kEAO_1_main_1_opaque_ptr_1
	.align 8
	.type	_TIG_iO_kEAO_1_main_1_opaque_ptr_1, @object
	.size	_TIG_iO_kEAO_1_main_1_opaque_ptr_1, 8
_TIG_iO_kEAO_1_main_1_opaque_ptr_1:
	.zero	8
	.globl	ACTUAL_NUMBER
	.align 4
	.type	ACTUAL_NUMBER, @object
	.size	ACTUAL_NUMBER, 4
ACTUAL_NUMBER:
	.zero	4
	.globl	_TIG_iO_kEAO_1___uint64_identity_1_opaque_ptr_1
	.align 8
	.type	_TIG_iO_kEAO_1___uint64_identity_1_opaque_ptr_1, @object
	.size	_TIG_iO_kEAO_1___uint64_identity_1_opaque_ptr_1, 8
_TIG_iO_kEAO_1___uint64_identity_1_opaque_ptr_1:
	.zero	8
	.globl	_TIG_iO_kEAO_1_charIsNumber_1_opaque_list_1
	.align 8
	.type	_TIG_iO_kEAO_1_charIsNumber_1_opaque_list_1, @object
	.size	_TIG_iO_kEAO_1_charIsNumber_1_opaque_list_1, 8
_TIG_iO_kEAO_1_charIsNumber_1_opaque_list_1:
	.zero	8
	.section	.rodata
.LC0:
	.string	"Give us your best guess!"
.LC1:
	.string	"%s"
.LC2:
	.string	"Please enter a number!"
	.align 8
.LC3:
	.string	"Please enter a number between 1 and 100!"
	.align 8
.LC4:
	.string	"Number is lower! You got it next time :)"
.LC5:
	.string	"-- %d guesses left! --\n"
	.align 8
.LC6:
	.string	"Number is higher! Next time you'll get it :)"
.LC7:
	.string	"You guessed correctly! :)"
.LC8:
	.string	"You ran out of guesses! :("
.LC9:
	.string	"The number was %d\n"
	.align 8
.LC10:
	.string	"Would you like to play again Y/N "
.LC11:
	.string	" %c"
	.text
	.globl	main
	.type	main, @function
main:
.LFB3:
	.cfi_startproc
	endbr64
	pushq	%rbp
	.cfi_def_cfa_offset 16
	.cfi_offset 6, -16
	movq	%rsp, %rbp
	.cfi_def_cfa_register 6
	subq	$208, %rsp
	movl	%edi, -180(%rbp)
	movq	%rsi, -192(%rbp)
	movq	%rdx, -200(%rbp)
	movq	%fs:40, %rax
	movq	%rax, -8(%rbp)
	xorl	%eax, %eax
	movl	$1, ACTIVE_GAME(%rip)
	nop
.L2:
	movl	$10, MAX_GUESSES(%rip)
	nop
.L3:
	movl	$1, GUESS_COUNTER(%rip)
	nop
.L4:
	movl	$0, GUESSED_NUMBER(%rip)
	nop
.L5:
	movl	$0, ACTUAL_NUMBER(%rip)
	nop
.L6:
	movq	$0, _TIG_IZ_kEAO_envp(%rip)
	nop
.L7:
	movq	$0, _TIG_IZ_kEAO_argv(%rip)
	nop
.L8:
	movl	$0, _TIG_IZ_kEAO_argc(%rip)
	nop
	nop
.L9:
.L10:
#APP
# 132 "/usr/include/x86_64-linux-gnu/bits/uintn-identity.h" 1
	##_ANNOTATION_INITIALREGION_-TIG-IZ-kEAO--0
# 0 "" 2
#NO_APP
	movl	-180(%rbp), %eax
	movl	%eax, _TIG_IZ_kEAO_argc(%rip)
	movq	-192(%rbp), %rax
	movq	%rax, _TIG_IZ_kEAO_argv(%rip)
	movq	-200(%rbp), %rax
	movq	%rax, _TIG_IZ_kEAO_envp(%rip)
#APP
# 139 "/usr/include/x86_64-linux-gnu/bits/uintn-identity.h" 1
	##_ANNOTATION_ATOMICREGION_-TIG-iO-kEAO-1-main--15
# 0 "" 2
#NO_APP
	movl	$24, %edi
	call	malloc@PLT
	movq	%rax, -144(%rbp)
	movq	-144(%rbp), %rax
	movq	-144(%rbp), %rdx
	movq	%rdx, 16(%rax)
	movq	-144(%rbp), %rax
	movq	-144(%rbp), %rdx
	movq	%rdx, 8(%rax)
	movq	-144(%rbp), %rax
	movq	%rax, _TIG_iO_kEAO_1_main_1_opaque_list_1(%rip)
	call	rand@PLT
	movl	%eax, -164(%rbp)
	movl	$24, %edi
	call	malloc@PLT
	movq	%rax, -136(%rbp)
	movq	-136(%rbp), %rax
	movl	$0, (%rax)
	movq	_TIG_iO_kEAO_1_main_1_opaque_list_1(%rip), %rax
	movq	16(%rax), %rdx
	movq	-136(%rbp), %rax
	movq	%rdx, 16(%rax)
	movq	_TIG_iO_kEAO_1_main_1_opaque_list_1(%rip), %rdx
	movq	-136(%rbp), %rax
	movq	%rdx, 8(%rax)
	movq	_TIG_iO_kEAO_1_main_1_opaque_list_1(%rip), %rax
	movq	16(%rax), %rax
	movq	-136(%rbp), %rdx
	movq	%rdx, 8(%rax)
	movq	_TIG_iO_kEAO_1_main_1_opaque_list_1(%rip), %rax
	movq	-136(%rbp), %rdx
	movq	%rdx, 16(%rax)
	call	rand@PLT
	movl	%eax, -160(%rbp)
	movl	$24, %edi
	call	malloc@PLT
	movq	%rax, -128(%rbp)
	movq	-128(%rbp), %rax
	movl	-160(%rbp), %edx
	movl	%edx, (%rax)
	movq	_TIG_iO_kEAO_1_main_1_opaque_list_1(%rip), %rax
	movq	16(%rax), %rdx
	movq	-128(%rbp), %rax
	movq	%rdx, 16(%rax)
	movq	_TIG_iO_kEAO_1_main_1_opaque_list_1(%rip), %rdx
	movq	-128(%rbp), %rax
	movq	%rdx, 8(%rax)
	movq	_TIG_iO_kEAO_1_main_1_opaque_list_1(%rip), %rax
	movq	16(%rax), %rax
	movq	-128(%rbp), %rdx
	movq	%rdx, 8(%rax)
	movq	_TIG_iO_kEAO_1_main_1_opaque_list_1(%rip), %rax
	movq	-128(%rbp), %rdx
	movq	%rdx, 16(%rax)
	movq	_TIG_iO_kEAO_1_main_1_opaque_list_1(%rip), %rax
	movq	16(%rax), %rax
	movq	%rax, _TIG_iO_kEAO_1_main_1_opaque_ptr_1(%rip)
	movq	_TIG_iO_kEAO_1_main_1_opaque_ptr_1(%rip), %rax
	movq	%rax, _TIG_iO_kEAO_1_main_1_opaque_ptr_2(%rip)
	nop
	nop
	movl	$0, %edi
	call	time@PLT
	movq	%rax, -120(%rbp)
	movq	-120(%rbp), %rax
	movl	%eax, %edi
	call	srand@PLT
	call	rand@PLT
	movl	%eax, -156(%rbp)
	movl	-156(%rbp), %eax
	movslq	%eax, %rdx
	imulq	$1374389535, %rdx, %rdx
	shrq	$32, %rdx
	sarl	$5, %edx
	movl	%eax, %ecx
	sarl	$31, %ecx
	subl	%ecx, %edx
	imull	$100, %edx, %ecx
	subl	%ecx, %eax
	movl	%eax, %edx
	leal	1(%rdx), %eax
	movl	%eax, ACTUAL_NUMBER(%rip)
	leaq	.LC0(%rip), %rax
	movq	%rax, %rdi
	call	puts@PLT
	jmp	.L11
.L23:
	leaq	-112(%rbp), %rax
	movq	%rax, %rsi
	leaq	.LC1(%rip), %rax
	movq	%rax, %rdi
	movl	$0, %eax
	call	__isoc99_scanf@PLT
	leaq	-112(%rbp), %rax
	movq	%rax, %rdi
	call	charIsNumber
	movl	%eax, -152(%rbp)
	cmpl	$0, -152(%rbp)
	jne	.L12
	leaq	.LC2(%rip), %rax
	movq	%rax, %rdi
	call	puts@PLT
	jmp	.L11
.L12:
	leaq	-112(%rbp), %rax
	movq	%rax, %rdi
	call	atoi@PLT
	movl	%eax, GUESSED_NUMBER(%rip)
	movl	GUESSED_NUMBER(%rip), %eax
	testl	%eax, %eax
	jg	.L13
	leaq	.LC3(%rip), %rax
	movq	%rax, %rdi
	call	puts@PLT
	jmp	.L11
.L13:
	movl	GUESSED_NUMBER(%rip), %eax
	cmpl	$100, %eax
	jle	.L14
	leaq	.LC3(%rip), %rax
	movq	%rax, %rdi
	call	puts@PLT
	jmp	.L11
.L14:
	movl	GUESSED_NUMBER(%rip), %edx
	movl	ACTUAL_NUMBER(%rip), %eax
	cmpl	%eax, %edx
	jle	.L15
	leaq	.LC4(%rip), %rax
	movq	%rax, %rdi
	call	puts@PLT
	movl	MAX_GUESSES(%rip), %eax
	movl	GUESS_COUNTER(%rip), %edx
	subl	%edx, %eax
	movl	%eax, %esi
	leaq	.LC5(%rip), %rax
	movq	%rax, %rdi
	movl	$0, %eax
	call	printf@PLT
	movl	GUESS_COUNTER(%rip), %eax
	addl	$1, %eax
	movl	%eax, GUESS_COUNTER(%rip)
	jmp	.L16
.L15:
	movl	GUESSED_NUMBER(%rip), %edx
	movl	ACTUAL_NUMBER(%rip), %eax
	cmpl	%eax, %edx
	jge	.L17
	leaq	.LC6(%rip), %rax
	movq	%rax, %rdi
	call	puts@PLT
	movl	MAX_GUESSES(%rip), %eax
	movl	GUESS_COUNTER(%rip), %edx
	subl	%edx, %eax
	movl	%eax, %esi
	leaq	.LC5(%rip), %rax
	movq	%rax, %rdi
	movl	$0, %eax
	call	printf@PLT
	movl	GUESS_COUNTER(%rip), %eax
	addl	$1, %eax
	movl	%eax, GUESS_COUNTER(%rip)
	jmp	.L16
.L17:
	movl	GUESSED_NUMBER(%rip), %edx
	movl	ACTUAL_NUMBER(%rip), %eax
	cmpl	%eax, %edx
	jne	.L16
	leaq	.LC7(%rip), %rax
	movq	%rax, %rdi
	call	puts@PLT
	movl	$0, ACTIVE_GAME(%rip)
.L16:
	movl	GUESS_COUNTER(%rip), %edx
	movl	MAX_GUESSES(%rip), %eax
	cmpl	%eax, %edx
	jle	.L18
	leaq	.LC8(%rip), %rax
	movq	%rax, %rdi
	call	puts@PLT
	movl	ACTUAL_NUMBER(%rip), %eax
	movl	%eax, %esi
	leaq	.LC9(%rip), %rax
	movq	%rax, %rdi
	movl	$0, %eax
	call	printf@PLT
	movl	$0, ACTIVE_GAME(%rip)
.L18:
	movl	ACTIVE_GAME(%rip), %eax
	testl	%eax, %eax
	jne	.L11
	leaq	.LC10(%rip), %rax
	movq	%rax, %rdi
	call	puts@PLT
	leaq	-165(%rbp), %rax
	movq	%rax, %rsi
	leaq	.LC11(%rip), %rax
	movq	%rax, %rdi
	movl	$0, %eax
	call	__isoc99_scanf@PLT
	movzbl	-165(%rbp), %eax
	cmpb	$89, %al
	jne	.L19
	movl	$1, ACTIVE_GAME(%rip)
	movl	$1, GUESS_COUNTER(%rip)
	call	rand@PLT
	movl	%eax, -148(%rbp)
	movl	-148(%rbp), %eax
	movslq	%eax, %rdx
	imulq	$1374389535, %rdx, %rdx
	shrq	$32, %rdx
	sarl	$5, %edx
	movl	%eax, %ecx
	sarl	$31, %ecx
	subl	%ecx, %edx
	imull	$100, %edx, %ecx
	subl	%ecx, %eax
	movl	%eax, %edx
	leal	1(%rdx), %eax
	movl	%eax, ACTUAL_NUMBER(%rip)
	leaq	.LC0(%rip), %rax
	movq	%rax, %rdi
	call	puts@PLT
	jmp	.L11
.L19:
	movq	_TIG_iO_kEAO_1_main_1_opaque_ptr_1(%rip), %rdx
	movq	_TIG_iO_kEAO_1_main_1_opaque_ptr_2(%rip), %rax
	cmpq	%rax, %rdx
	je	.L26
	movl	-152(%rbp), %eax
	jmp	.L24
.L11:
	movl	ACTUAL_NUMBER(%rip), %edx
	movl	GUESSED_NUMBER(%rip), %eax
	cmpl	%eax, %edx
	jne	.L23
	jmp	.L21
.L26:
	nop
.L21:
	movl	$0, %eax
.L24:
	movq	-8(%rbp), %rdx
	subq	%fs:40, %rdx
	je	.L25
	call	__stack_chk_fail@PLT
.L25:
	leave
	.cfi_def_cfa 7, 8
	ret
	.cfi_endproc
.LFE3:
	.size	main, .-main
	.globl	charIsNumber
	.type	charIsNumber, @function
charIsNumber:
.LFB6:
	.cfi_startproc
	endbr64
	pushq	%rbp
	.cfi_def_cfa_offset 16
	.cfi_offset 6, -16
	movq	%rsp, %rbp
	.cfi_def_cfa_register 6
	subq	$80, %rsp
	movq	%rdi, -72(%rbp)
#APP
# 63 "/usr/include/x86_64-linux-gnu/bits/uintn-identity.h" 1
	##_ANNOTATION_INITIALREGION_-TIG-iO-kEAO-1-charIsNumber--14
# 0 "" 2
# 67 "/usr/include/x86_64-linux-gnu/bits/uintn-identity.h" 1
	##_ANNOTATION_ATOMICREGION_-TIG-iO-kEAO-1-charIsNumber--13
# 0 "" 2
#NO_APP
	movl	$24, %edi
	call	malloc@PLT
	movq	%rax, -40(%rbp)
	movq	-40(%rbp), %rax
	movq	-40(%rbp), %rdx
	movq	%rdx, (%rax)
	movq	-40(%rbp), %rax
	movq	-40(%rbp), %rdx
	movq	%rdx, 8(%rax)
	movq	-40(%rbp), %rax
	movq	%rax, _TIG_iO_kEAO_1_charIsNumber_1_opaque_list_1(%rip)
	call	rand@PLT
	movl	%eax, -56(%rbp)
	movl	$24, %edi
	call	malloc@PLT
	movq	%rax, -32(%rbp)
	movq	-32(%rbp), %rax
	movl	$0, 16(%rax)
	movq	_TIG_iO_kEAO_1_charIsNumber_1_opaque_list_1(%rip), %rax
	movq	(%rax), %rdx
	movq	-32(%rbp), %rax
	movq	%rdx, (%rax)
	movq	_TIG_iO_kEAO_1_charIsNumber_1_opaque_list_1(%rip), %rdx
	movq	-32(%rbp), %rax
	movq	%rdx, 8(%rax)
	movq	_TIG_iO_kEAO_1_charIsNumber_1_opaque_list_1(%rip), %rax
	movq	(%rax), %rax
	movq	-32(%rbp), %rdx
	movq	%rdx, 8(%rax)
	movq	_TIG_iO_kEAO_1_charIsNumber_1_opaque_list_1(%rip), %rax
	movq	-32(%rbp), %rdx
	movq	%rdx, (%rax)
	call	rand@PLT
	movl	%eax, -52(%rbp)
	movl	$24, %edi
	call	malloc@PLT
	movq	%rax, -24(%rbp)
	movq	-24(%rbp), %rax
	movl	-52(%rbp), %edx
	movl	%edx, 16(%rax)
	movq	_TIG_iO_kEAO_1_charIsNumber_1_opaque_list_1(%rip), %rax
	movq	(%rax), %rdx
	movq	-24(%rbp), %rax
	movq	%rdx, (%rax)
	movq	_TIG_iO_kEAO_1_charIsNumber_1_opaque_list_1(%rip), %rdx
	movq	-24(%rbp), %rax
	movq	%rdx, 8(%rax)
	movq	_TIG_iO_kEAO_1_charIsNumber_1_opaque_list_1(%rip), %rax
	movq	(%rax), %rax
	movq	-24(%rbp), %rdx
	movq	%rdx, 8(%rax)
	movq	_TIG_iO_kEAO_1_charIsNumber_1_opaque_list_1(%rip), %rax
	movq	-24(%rbp), %rdx
	movq	%rdx, (%rax)
	call	rand@PLT
	movl	%eax, -48(%rbp)
	movl	$24, %edi
	call	malloc@PLT
	movq	%rax, -16(%rbp)
	movl	-48(%rbp), %eax
	leal	(%rax,%rax), %edx
	movq	-16(%rbp), %rax
	movl	%edx, 16(%rax)
	movq	_TIG_iO_kEAO_1_charIsNumber_1_opaque_list_1(%rip), %rax
	movq	(%rax), %rdx
	movq	-16(%rbp), %rax
	movq	%rdx, (%rax)
	movq	_TIG_iO_kEAO_1_charIsNumber_1_opaque_list_1(%rip), %rdx
	movq	-16(%rbp), %rax
	movq	%rdx, 8(%rax)
	movq	_TIG_iO_kEAO_1_charIsNumber_1_opaque_list_1(%rip), %rax
	movq	(%rax), %rax
	movq	-16(%rbp), %rdx
	movq	%rdx, 8(%rax)
	movq	_TIG_iO_kEAO_1_charIsNumber_1_opaque_list_1(%rip), %rax
	movq	-16(%rbp), %rdx
	movq	%rdx, (%rax)
	call	rand@PLT
	movl	%eax, -44(%rbp)
	movl	$24, %edi
	call	malloc@PLT
	movq	%rax, -8(%rbp)
	movl	-44(%rbp), %edx
	movl	%edx, %eax
	addl	%eax, %eax
	addl	%eax, %edx
	movq	-8(%rbp), %rax
	movl	%edx, 16(%rax)
	movq	_TIG_iO_kEAO_1_charIsNumber_1_opaque_list_1(%rip), %rax
	movq	(%rax), %rdx
	movq	-8(%rbp), %rax
	movq	%rdx, (%rax)
	movq	_TIG_iO_kEAO_1_charIsNumber_1_opaque_list_1(%rip), %rdx
	movq	-8(%rbp), %rax
	movq	%rdx, 8(%rax)
	movq	_TIG_iO_kEAO_1_charIsNumber_1_opaque_list_1(%rip), %rax
	movq	(%rax), %rax
	movq	-8(%rbp), %rdx
	movq	%rdx, 8(%rax)
	movq	_TIG_iO_kEAO_1_charIsNumber_1_opaque_list_1(%rip), %rax
	movq	-8(%rbp), %rdx
	movq	%rdx, (%rax)
	movq	_TIG_iO_kEAO_1_charIsNumber_1_opaque_list_1(%rip), %rax
	movq	(%rax), %rax
	movq	%rax, _TIG_iO_kEAO_1_charIsNumber_1_opaque_ptr_1(%rip)
	movq	_TIG_iO_kEAO_1_charIsNumber_1_opaque_ptr_1(%rip), %rax
	movq	%rax, _TIG_iO_kEAO_1_charIsNumber_1_opaque_ptr_2(%rip)
	movq	_TIG_iO_kEAO_1_charIsNumber_1_opaque_ptr_2(%rip), %rax
	movq	(%rax), %rax
	movq	%rax, _TIG_iO_kEAO_1_charIsNumber_1_opaque_ptr_2(%rip)
	nop
	nop
	jmp	.L28
.L32:
	movq	-72(%rbp), %rax
	movzbl	(%rax), %eax
	cmpb	$47, %al
	jg	.L29
	movl	$0, %eax
	jmp	.L30
.L29:
	movq	-72(%rbp), %rax
	movzbl	(%rax), %eax
	cmpb	$57, %al
	jle	.L31
	movl	$0, %eax
	jmp	.L30
.L31:
	addq	$1, -72(%rbp)
.L28:
	movq	-72(%rbp), %rax
	movzbl	(%rax), %eax
	testb	%al, %al
	jne	.L32
	movq	_TIG_iO_kEAO_1_main_1_opaque_ptr_1(%rip), %rdx
	movq	_TIG_iO_kEAO_1_main_1_opaque_ptr_2(%rip), %rax
	cmpq	%rax, %rdx
	je	.L33
	movq	-72(%rbp), %rax
	movq	%rax, %rdi
	call	charIsNumber
	movl	%eax, -56(%rbp)
.L33:
	movl	$1, %eax
.L30:
	leave
	.cfi_def_cfa 7, 8
	ret
	.cfi_endproc
.LFE6:
	.size	charIsNumber, .-charIsNumber
	.ident	"GCC: (Ubuntu 11.4.0-1ubuntu1~22.04) 11.4.0"
	.section	.note.GNU-stack,"",@progbits
	.section	.note.gnu.property,"a"
	.align 8
	.long	1f - 0f
	.long	4f - 1f
	.long	5
0:
	.string	"GNU"
1:
	.align 8
	.long	0xc0000002
	.long	3f - 2f
2:
	.long	0x3
3:
	.align 8
4:
