	.file	"Fedjmike_mini-c_cc_opaque.c"
	.text
	.globl	_TIG_iO_mnVi_1_new_local_1_opaque_ptr_2
	.bss
	.align 8
	.type	_TIG_iO_mnVi_1_new_local_1_opaque_ptr_2, @object
	.size	_TIG_iO_mnVi_1_new_local_1_opaque_ptr_2, 8
_TIG_iO_mnVi_1_new_local_1_opaque_ptr_2:
	.zero	8
	.globl	is_fn
	.align 8
	.type	is_fn, @object
	.size	is_fn, 8
is_fn:
	.zero	8
	.globl	_TIG_iO_mnVi_1_eat_char_1_opaque_list_1
	.align 8
	.type	_TIG_iO_mnVi_1_eat_char_1_opaque_list_1, @object
	.size	_TIG_iO_mnVi_1_eat_char_1_opaque_list_1, 8
_TIG_iO_mnVi_1_eat_char_1_opaque_list_1:
	.zero	8
	.globl	_TIG_iO_mnVi_1___bswap_64_1_opaque_list_1
	.align 8
	.type	_TIG_iO_mnVi_1___bswap_64_1_opaque_list_1, @object
	.size	_TIG_iO_mnVi_1___bswap_64_1_opaque_list_1, 8
_TIG_iO_mnVi_1___bswap_64_1_opaque_list_1:
	.zero	8
	.globl	_TIG_iO_mnVi_1_prev_char_1_opaque_list_1
	.align 8
	.type	_TIG_iO_mnVi_1_prev_char_1_opaque_list_1, @object
	.size	_TIG_iO_mnVi_1_prev_char_1_opaque_list_1, 8
_TIG_iO_mnVi_1_prev_char_1_opaque_list_1:
	.zero	8
	.globl	_TIG_iO_mnVi_1_unary_1_opaque_ptr_2
	.align 8
	.type	_TIG_iO_mnVi_1_unary_1_opaque_ptr_2, @object
	.size	_TIG_iO_mnVi_1_unary_1_opaque_ptr_2, 8
_TIG_iO_mnVi_1_unary_1_opaque_ptr_2:
	.zero	8
	.globl	_TIG_iO_mnVi_1_try_match_1_opaque_ptr_1
	.align 8
	.type	_TIG_iO_mnVi_1_try_match_1_opaque_ptr_1, @object
	.size	_TIG_iO_mnVi_1_try_match_1_opaque_ptr_1, 8
_TIG_iO_mnVi_1_try_match_1_opaque_ptr_1:
	.zero	8
	.globl	_TIG_iO_mnVi_1_require_1_opaque_ptr_1
	.align 8
	.type	_TIG_iO_mnVi_1_require_1_opaque_ptr_1, @object
	.size	_TIG_iO_mnVi_1_require_1_opaque_ptr_1, 8
_TIG_iO_mnVi_1_require_1_opaque_ptr_1:
	.zero	8
	.globl	_TIG_iO_mnVi_1_if_branch_1_opaque_list_2
	.align 8
	.type	_TIG_iO_mnVi_1_if_branch_1_opaque_list_2, @object
	.size	_TIG_iO_mnVi_1_if_branch_1_opaque_list_2, 8
_TIG_iO_mnVi_1_if_branch_1_opaque_list_2:
	.zero	8
	.globl	_TIG_iO_mnVi_1_waiting_for_1_opaque_ptr_1
	.align 8
	.type	_TIG_iO_mnVi_1_waiting_for_1_opaque_ptr_1, @object
	.size	_TIG_iO_mnVi_1_waiting_for_1_opaque_ptr_1, 8
_TIG_iO_mnVi_1_waiting_for_1_opaque_ptr_1:
	.zero	8
	.globl	_TIG_iO_mnVi_1___uint64_identity_1_opaque_ptr_1
	.align 8
	.type	_TIG_iO_mnVi_1___uint64_identity_1_opaque_ptr_1, @object
	.size	_TIG_iO_mnVi_1___uint64_identity_1_opaque_ptr_1, 8
_TIG_iO_mnVi_1___uint64_identity_1_opaque_ptr_1:
	.zero	8
	.globl	_TIG_iO_mnVi_1_try_match_1_opaque_ptr_2
	.align 8
	.type	_TIG_iO_mnVi_1_try_match_1_opaque_ptr_2, @object
	.size	_TIG_iO_mnVi_1_try_match_1_opaque_ptr_2, 8
_TIG_iO_mnVi_1_try_match_1_opaque_ptr_2:
	.zero	8
	.globl	_TIG_iO_mnVi_1_main_1_opaque_ptr_1
	.align 8
	.type	_TIG_iO_mnVi_1_main_1_opaque_ptr_1, @object
	.size	_TIG_iO_mnVi_1_main_1_opaque_ptr_1, 8
_TIG_iO_mnVi_1_main_1_opaque_ptr_1:
	.zero	8
	.globl	_TIG_iO_mnVi_1_require_1_opaque_list_1
	.align 8
	.type	_TIG_iO_mnVi_1_require_1_opaque_list_1, @object
	.size	_TIG_iO_mnVi_1_require_1_opaque_list_1, 8
_TIG_iO_mnVi_1_require_1_opaque_list_1:
	.zero	8
	.globl	_TIG_iO_mnVi_1_branch_1_opaque_list_1
	.align 8
	.type	_TIG_iO_mnVi_1_branch_1_opaque_list_1, @object
	.size	_TIG_iO_mnVi_1_branch_1_opaque_list_1, 8
_TIG_iO_mnVi_1_branch_1_opaque_list_1:
	.zero	8
	.globl	_TIG_iO_mnVi_1_if_branch_1_opaque_list_1
	.align 8
	.type	_TIG_iO_mnVi_1_if_branch_1_opaque_list_1, @object
	.size	_TIG_iO_mnVi_1_if_branch_1_opaque_list_1, 8
_TIG_iO_mnVi_1_if_branch_1_opaque_list_1:
	.zero	8
	.globl	_TIG_iO_mnVi_1_expr_1_opaque_list_1
	.align 8
	.type	_TIG_iO_mnVi_1_expr_1_opaque_list_1, @object
	.size	_TIG_iO_mnVi_1_expr_1_opaque_list_1, 8
_TIG_iO_mnVi_1_expr_1_opaque_list_1:
	.zero	8
	.globl	_TIG_iO_mnVi_1_prev_char_1_opaque_ptr_2
	.align 8
	.type	_TIG_iO_mnVi_1_prev_char_1_opaque_ptr_2, @object
	.size	_TIG_iO_mnVi_1_prev_char_1_opaque_ptr_2, 8
_TIG_iO_mnVi_1_prev_char_1_opaque_ptr_2:
	.zero	8
	.globl	_TIG_iO_mnVi_1_waiting_for_1_opaque_ptr_2
	.align 8
	.type	_TIG_iO_mnVi_1_waiting_for_1_opaque_ptr_2, @object
	.size	_TIG_iO_mnVi_1_waiting_for_1_opaque_ptr_2, 8
_TIG_iO_mnVi_1_waiting_for_1_opaque_ptr_2:
	.zero	8
	.globl	_TIG_iO_mnVi_1_new_local_1_opaque_list_1
	.align 8
	.type	_TIG_iO_mnVi_1_new_local_1_opaque_list_1, @object
	.size	_TIG_iO_mnVi_1_new_local_1_opaque_list_1, 8
_TIG_iO_mnVi_1_new_local_1_opaque_list_1:
	.zero	8
	.globl	_TIG_iO_mnVi_1_prev_char_1_opaque_ptr_1
	.align 8
	.type	_TIG_iO_mnVi_1_prev_char_1_opaque_ptr_1, @object
	.size	_TIG_iO_mnVi_1_prev_char_1_opaque_ptr_1, 8
_TIG_iO_mnVi_1_prev_char_1_opaque_ptr_1:
	.zero	8
	.globl	_TIG_iO_mnVi_1_needs_lvalue_1_opaque_list_2
	.align 8
	.type	_TIG_iO_mnVi_1_needs_lvalue_1_opaque_list_2, @object
	.size	_TIG_iO_mnVi_1_needs_lvalue_1_opaque_list_2, 8
_TIG_iO_mnVi_1_needs_lvalue_1_opaque_list_2:
	.zero	8
	.globl	_TIG_iO_mnVi_1___bswap_16_1_opaque_ptr_2
	.align 8
	.type	_TIG_iO_mnVi_1___bswap_16_1_opaque_ptr_2, @object
	.size	_TIG_iO_mnVi_1___bswap_16_1_opaque_ptr_2, 8
_TIG_iO_mnVi_1___bswap_16_1_opaque_ptr_2:
	.zero	8
	.globl	_TIG_iO_mnVi_1___bswap_64_1_opaque_ptr_1
	.align 8
	.type	_TIG_iO_mnVi_1___bswap_64_1_opaque_ptr_1, @object
	.size	_TIG_iO_mnVi_1___bswap_64_1_opaque_ptr_1, 8
_TIG_iO_mnVi_1___bswap_64_1_opaque_ptr_1:
	.zero	8
	.globl	curln
	.align 4
	.type	curln, @object
	.size	curln, 4
curln:
	.zero	4
	.globl	_TIG_iO_mnVi_1___bswap_32_1_opaque_ptr_1
	.align 8
	.type	_TIG_iO_mnVi_1___bswap_32_1_opaque_ptr_1, @object
	.size	_TIG_iO_mnVi_1___bswap_32_1_opaque_ptr_1, 8
_TIG_iO_mnVi_1___bswap_32_1_opaque_ptr_1:
	.zero	8
	.globl	_TIG_iO_mnVi_1_next_char_1_opaque_list_1
	.align 8
	.type	_TIG_iO_mnVi_1_next_char_1_opaque_list_1, @object
	.size	_TIG_iO_mnVi_1_next_char_1_opaque_list_1, 8
_TIG_iO_mnVi_1_next_char_1_opaque_list_1:
	.zero	8
	.globl	_TIG_iO_mnVi_1_emit_label_1_opaque_ptr_1
	.align 8
	.type	_TIG_iO_mnVi_1_emit_label_1_opaque_ptr_1, @object
	.size	_TIG_iO_mnVi_1_emit_label_1_opaque_ptr_1, 8
_TIG_iO_mnVi_1_emit_label_1_opaque_ptr_1:
	.zero	8
	.globl	_TIG_iO_mnVi_1_next_1_opaque_ptr_1
	.align 8
	.type	_TIG_iO_mnVi_1_next_1_opaque_ptr_1, @object
	.size	_TIG_iO_mnVi_1_next_1_opaque_ptr_1, 8
_TIG_iO_mnVi_1_next_1_opaque_ptr_1:
	.zero	8
	.globl	_TIG_iO_mnVi_1_new_fn_1_opaque_list_2
	.align 8
	.type	_TIG_iO_mnVi_1_new_fn_1_opaque_list_2, @object
	.size	_TIG_iO_mnVi_1_new_fn_1_opaque_list_2, 8
_TIG_iO_mnVi_1_new_fn_1_opaque_list_2:
	.zero	8
	.globl	inputname
	.align 8
	.type	inputname, @object
	.size	inputname, 8
inputname:
	.zero	8
	.globl	_TIG_iO_mnVi_1_new_param_1_opaque_list_2
	.align 8
	.type	_TIG_iO_mnVi_1_new_param_1_opaque_list_2, @object
	.size	_TIG_iO_mnVi_1_new_param_1_opaque_list_2, 8
_TIG_iO_mnVi_1_new_param_1_opaque_list_2:
	.zero	8
	.globl	_TIG_iO_mnVi_1_factor_1_opaque_list_2
	.align 8
	.type	_TIG_iO_mnVi_1_factor_1_opaque_list_2, @object
	.size	_TIG_iO_mnVi_1_factor_1_opaque_list_2, 8
_TIG_iO_mnVi_1_factor_1_opaque_list_2:
	.zero	8
	.globl	_TIG_iO_mnVi_1_prev_char_1_opaque_list_2
	.align 8
	.type	_TIG_iO_mnVi_1_prev_char_1_opaque_list_2, @object
	.size	_TIG_iO_mnVi_1_prev_char_1_opaque_list_2, 8
_TIG_iO_mnVi_1_prev_char_1_opaque_list_2:
	.zero	8
	.globl	_TIG_iO_mnVi_1_new_param_1_opaque_list_1
	.align 8
	.type	_TIG_iO_mnVi_1_new_param_1_opaque_list_1, @object
	.size	_TIG_iO_mnVi_1_new_param_1_opaque_list_1, 8
_TIG_iO_mnVi_1_new_param_1_opaque_list_1:
	.zero	8
	.globl	_TIG_iO_mnVi_1_decl_1_opaque_ptr_2
	.align 8
	.type	_TIG_iO_mnVi_1_decl_1_opaque_ptr_2, @object
	.size	_TIG_iO_mnVi_1_decl_1_opaque_ptr_2, 8
_TIG_iO_mnVi_1_decl_1_opaque_ptr_2:
	.zero	8
	.globl	_TIG_iO_mnVi_1_expr_1_opaque_list_2
	.align 8
	.type	_TIG_iO_mnVi_1_expr_1_opaque_list_2, @object
	.size	_TIG_iO_mnVi_1_expr_1_opaque_list_2, 8
_TIG_iO_mnVi_1_expr_1_opaque_list_2:
	.zero	8
	.globl	_TIG_iO_mnVi_1___uint64_identity_1_opaque_list_1
	.align 8
	.type	_TIG_iO_mnVi_1___uint64_identity_1_opaque_list_1, @object
	.size	_TIG_iO_mnVi_1___uint64_identity_1_opaque_list_1, 8
_TIG_iO_mnVi_1___uint64_identity_1_opaque_list_1:
	.zero	8
	.globl	_TIG_iO_mnVi_1_new_global_1_opaque_list_1
	.align 8
	.type	_TIG_iO_mnVi_1_new_global_1_opaque_list_1, @object
	.size	_TIG_iO_mnVi_1_new_global_1_opaque_list_1, 8
_TIG_iO_mnVi_1_new_global_1_opaque_list_1:
	.zero	8
	.globl	_TIG_iO_mnVi_1_try_match_1_opaque_list_1
	.align 8
	.type	_TIG_iO_mnVi_1_try_match_1_opaque_list_1, @object
	.size	_TIG_iO_mnVi_1_try_match_1_opaque_list_1, 8
_TIG_iO_mnVi_1_try_match_1_opaque_list_1:
	.zero	8
	.globl	offsets
	.align 8
	.type	offsets, @object
	.size	offsets, 8
offsets:
	.zero	8
	.globl	_TIG_iO_mnVi_1_waiting_for_1_opaque_list_1
	.align 8
	.type	_TIG_iO_mnVi_1_waiting_for_1_opaque_list_1, @object
	.size	_TIG_iO_mnVi_1_waiting_for_1_opaque_list_1, 8
_TIG_iO_mnVi_1_waiting_for_1_opaque_list_1:
	.zero	8
	.globl	_TIG_iO_mnVi_1_emit_label_1_opaque_list_1
	.align 8
	.type	_TIG_iO_mnVi_1_emit_label_1_opaque_list_1, @object
	.size	_TIG_iO_mnVi_1_emit_label_1_opaque_list_1, 8
_TIG_iO_mnVi_1_emit_label_1_opaque_list_1:
	.zero	8
	.globl	_TIG_iO_mnVi_1_main_1_opaque_list_2
	.align 8
	.type	_TIG_iO_mnVi_1_main_1_opaque_list_2, @object
	.size	_TIG_iO_mnVi_1_main_1_opaque_list_2, 8
_TIG_iO_mnVi_1_main_1_opaque_list_2:
	.zero	8
	.globl	_TIG_iO_mnVi_1_new_scope_1_opaque_list_2
	.align 8
	.type	_TIG_iO_mnVi_1_new_scope_1_opaque_list_2, @object
	.size	_TIG_iO_mnVi_1_new_scope_1_opaque_list_2, 8
_TIG_iO_mnVi_1_new_scope_1_opaque_list_2:
	.zero	8
	.globl	_TIG_iO_mnVi_1_next_1_opaque_list_2
	.align 8
	.type	_TIG_iO_mnVi_1_next_1_opaque_list_2, @object
	.size	_TIG_iO_mnVi_1_next_1_opaque_list_2, 8
_TIG_iO_mnVi_1_next_1_opaque_list_2:
	.zero	8
	.globl	_TIG_iO_mnVi_1_new_param_1_opaque_ptr_2
	.align 8
	.type	_TIG_iO_mnVi_1_new_param_1_opaque_ptr_2, @object
	.size	_TIG_iO_mnVi_1_new_param_1_opaque_ptr_2, 8
_TIG_iO_mnVi_1_new_param_1_opaque_ptr_2:
	.zero	8
	.globl	_TIG_iO_mnVi_1___uint16_identity_1_opaque_ptr_1
	.align 8
	.type	_TIG_iO_mnVi_1___uint16_identity_1_opaque_ptr_1, @object
	.size	_TIG_iO_mnVi_1___uint16_identity_1_opaque_ptr_1, 8
_TIG_iO_mnVi_1___uint16_identity_1_opaque_ptr_1:
	.zero	8
	.globl	_TIG_iO_mnVi_1_function_1_opaque_list_2
	.align 8
	.type	_TIG_iO_mnVi_1_function_1_opaque_list_2, @object
	.size	_TIG_iO_mnVi_1_function_1_opaque_list_2, 8
_TIG_iO_mnVi_1_function_1_opaque_list_2:
	.zero	8
	.globl	token_ident
	.align 4
	.type	token_ident, @object
	.size	token_ident, 4
token_ident:
	.zero	4
	.globl	_TIG_iO_mnVi_1_match_1_opaque_ptr_2
	.align 8
	.type	_TIG_iO_mnVi_1_match_1_opaque_ptr_2, @object
	.size	_TIG_iO_mnVi_1_match_1_opaque_ptr_2, 8
_TIG_iO_mnVi_1_match_1_opaque_ptr_2:
	.zero	8
	.globl	decl_param
	.align 4
	.type	decl_param, @object
	.size	decl_param, 4
decl_param:
	.zero	4
	.globl	_TIG_iO_mnVi_1_new_global_1_opaque_list_2
	.align 8
	.type	_TIG_iO_mnVi_1_new_global_1_opaque_list_2, @object
	.size	_TIG_iO_mnVi_1_new_global_1_opaque_list_2, 8
_TIG_iO_mnVi_1_new_global_1_opaque_list_2:
	.zero	8
	.globl	_TIG_iO_mnVi_1___bswap_32_1_opaque_list_1
	.align 8
	.type	_TIG_iO_mnVi_1___bswap_32_1_opaque_list_1, @object
	.size	_TIG_iO_mnVi_1___bswap_32_1_opaque_list_1, 8
_TIG_iO_mnVi_1___bswap_32_1_opaque_list_1:
	.zero	8
	.globl	_TIG_iO_mnVi_1_next_1_opaque_list_1
	.align 8
	.type	_TIG_iO_mnVi_1_next_1_opaque_list_1, @object
	.size	_TIG_iO_mnVi_1_next_1_opaque_list_1, 8
_TIG_iO_mnVi_1_next_1_opaque_list_1:
	.zero	8
	.globl	_TIG_iO_mnVi_1_line_1_opaque_ptr_1
	.align 8
	.type	_TIG_iO_mnVi_1_line_1_opaque_ptr_1, @object
	.size	_TIG_iO_mnVi_1_line_1_opaque_ptr_1, 8
_TIG_iO_mnVi_1_line_1_opaque_ptr_1:
	.zero	8
	.globl	return_to
	.align 4
	.type	return_to, @object
	.size	return_to, 4
return_to:
	.zero	4
	.globl	_TIG_iO_mnVi_1_eat_char_1_opaque_ptr_1
	.align 8
	.type	_TIG_iO_mnVi_1_eat_char_1_opaque_ptr_1, @object
	.size	_TIG_iO_mnVi_1_eat_char_1_opaque_ptr_1, 8
_TIG_iO_mnVi_1_eat_char_1_opaque_ptr_1:
	.zero	8
	.globl	_TIG_iO_mnVi_1_while_loop_1_opaque_ptr_1
	.align 8
	.type	_TIG_iO_mnVi_1_while_loop_1_opaque_ptr_1, @object
	.size	_TIG_iO_mnVi_1_while_loop_1_opaque_ptr_1, 8
_TIG_iO_mnVi_1_while_loop_1_opaque_ptr_1:
	.zero	8
	.globl	_TIG_iO_mnVi_1_needs_lvalue_1_opaque_ptr_2
	.align 8
	.type	_TIG_iO_mnVi_1_needs_lvalue_1_opaque_ptr_2, @object
	.size	_TIG_iO_mnVi_1_needs_lvalue_1_opaque_ptr_2, 8
_TIG_iO_mnVi_1_needs_lvalue_1_opaque_ptr_2:
	.zero	8
	.globl	_TIG_iO_mnVi_1_new_label_1_opaque_list_2
	.align 8
	.type	_TIG_iO_mnVi_1_new_label_1_opaque_list_2, @object
	.size	_TIG_iO_mnVi_1_new_label_1_opaque_list_2, 8
_TIG_iO_mnVi_1_new_label_1_opaque_list_2:
	.zero	8
	.globl	_TIG_iO_mnVi_1_new_scope_1_opaque_ptr_2
	.align 8
	.type	_TIG_iO_mnVi_1_new_scope_1_opaque_ptr_2, @object
	.size	_TIG_iO_mnVi_1_new_scope_1_opaque_ptr_2, 8
_TIG_iO_mnVi_1_new_scope_1_opaque_ptr_2:
	.zero	8
	.globl	_TIG_iO_mnVi_1_sym_lookup_1_opaque_list_1
	.align 8
	.type	_TIG_iO_mnVi_1_sym_lookup_1_opaque_list_1, @object
	.size	_TIG_iO_mnVi_1_sym_lookup_1_opaque_list_1, 8
_TIG_iO_mnVi_1_sym_lookup_1_opaque_list_1:
	.zero	8
	.globl	_TIG_iO_mnVi_1_match_1_opaque_list_1
	.align 8
	.type	_TIG_iO_mnVi_1_match_1_opaque_list_1, @object
	.size	_TIG_iO_mnVi_1_match_1_opaque_list_1, 8
_TIG_iO_mnVi_1_match_1_opaque_list_1:
	.zero	8
	.globl	_TIG_iO_mnVi_1_line_1_opaque_ptr_2
	.align 8
	.type	_TIG_iO_mnVi_1_line_1_opaque_ptr_2, @object
	.size	_TIG_iO_mnVi_1_line_1_opaque_ptr_2, 8
_TIG_iO_mnVi_1_line_1_opaque_ptr_2:
	.zero	8
	.globl	_TIG_iO_mnVi_1_waiting_for_1_opaque_list_2
	.align 8
	.type	_TIG_iO_mnVi_1_waiting_for_1_opaque_list_2, @object
	.size	_TIG_iO_mnVi_1_waiting_for_1_opaque_list_2, 8
_TIG_iO_mnVi_1_waiting_for_1_opaque_list_2:
	.zero	8
	.globl	_TIG_iO_mnVi_1_decl_1_opaque_list_1
	.align 8
	.type	_TIG_iO_mnVi_1_decl_1_opaque_list_1, @object
	.size	_TIG_iO_mnVi_1_decl_1_opaque_list_1, 8
_TIG_iO_mnVi_1_decl_1_opaque_list_1:
	.zero	8
	.globl	_TIG_iO_mnVi_1_sym_lookup_1_opaque_list_2
	.align 8
	.type	_TIG_iO_mnVi_1_sym_lookup_1_opaque_list_2, @object
	.size	_TIG_iO_mnVi_1_sym_lookup_1_opaque_list_2, 8
_TIG_iO_mnVi_1_sym_lookup_1_opaque_list_2:
	.zero	8
	.globl	_TIG_iO_mnVi_1_next_char_1_opaque_ptr_1
	.align 8
	.type	_TIG_iO_mnVi_1_next_char_1_opaque_ptr_1, @object
	.size	_TIG_iO_mnVi_1_next_char_1_opaque_ptr_1, 8
_TIG_iO_mnVi_1_next_char_1_opaque_ptr_1:
	.zero	8
	.globl	_TIG_iO_mnVi_1_new_local_1_opaque_list_2
	.align 8
	.type	_TIG_iO_mnVi_1_new_local_1_opaque_list_2, @object
	.size	_TIG_iO_mnVi_1_new_local_1_opaque_list_2, 8
_TIG_iO_mnVi_1_new_local_1_opaque_list_2:
	.zero	8
	.globl	_TIG_iO_mnVi_1_line_1_opaque_list_2
	.align 8
	.type	_TIG_iO_mnVi_1_line_1_opaque_list_2, @object
	.size	_TIG_iO_mnVi_1_line_1_opaque_list_2, 8
_TIG_iO_mnVi_1_line_1_opaque_list_2:
	.zero	8
	.globl	_TIG_iO_mnVi_1_eat_char_1_opaque_list_2
	.align 8
	.type	_TIG_iO_mnVi_1_eat_char_1_opaque_list_2, @object
	.size	_TIG_iO_mnVi_1_eat_char_1_opaque_list_2, 8
_TIG_iO_mnVi_1_eat_char_1_opaque_list_2:
	.zero	8
	.globl	_TIG_iO_mnVi_1_unary_1_opaque_list_1
	.align 8
	.type	_TIG_iO_mnVi_1_unary_1_opaque_list_1, @object
	.size	_TIG_iO_mnVi_1_unary_1_opaque_list_1, 8
_TIG_iO_mnVi_1_unary_1_opaque_list_1:
	.zero	8
	.globl	errors
	.align 4
	.type	errors, @object
	.size	errors, 4
errors:
	.zero	4
	.globl	_TIG_IZ_mnVi_envp
	.align 8
	.type	_TIG_IZ_mnVi_envp, @object
	.size	_TIG_IZ_mnVi_envp, 8
_TIG_IZ_mnVi_envp:
	.zero	8
	.globl	output
	.align 8
	.type	output, @object
	.size	output, 8
output:
	.zero	8
	.globl	_TIG_iO_mnVi_1_factor_1_opaque_list_1
	.align 8
	.type	_TIG_iO_mnVi_1_factor_1_opaque_list_1, @object
	.size	_TIG_iO_mnVi_1_factor_1_opaque_list_1, 8
_TIG_iO_mnVi_1_factor_1_opaque_list_1:
	.zero	8
	.globl	_TIG_iO_mnVi_1_next_char_1_opaque_list_2
	.align 8
	.type	_TIG_iO_mnVi_1_next_char_1_opaque_list_2, @object
	.size	_TIG_iO_mnVi_1_next_char_1_opaque_list_2, 8
_TIG_iO_mnVi_1_next_char_1_opaque_list_2:
	.zero	8
	.globl	_TIG_iO_mnVi_1_lex_init_1_opaque_ptr_1
	.align 8
	.type	_TIG_iO_mnVi_1_lex_init_1_opaque_ptr_1, @object
	.size	_TIG_iO_mnVi_1_lex_init_1_opaque_ptr_1, 8
_TIG_iO_mnVi_1_lex_init_1_opaque_ptr_1:
	.zero	8
	.globl	_TIG_iO_mnVi_1___uint32_identity_1_opaque_ptr_1
	.align 8
	.type	_TIG_iO_mnVi_1___uint32_identity_1_opaque_ptr_1, @object
	.size	_TIG_iO_mnVi_1___uint32_identity_1_opaque_ptr_1, 8
_TIG_iO_mnVi_1___uint32_identity_1_opaque_ptr_1:
	.zero	8
	.globl	_TIG_iO_mnVi_1_needs_lvalue_1_opaque_list_1
	.align 8
	.type	_TIG_iO_mnVi_1_needs_lvalue_1_opaque_list_1, @object
	.size	_TIG_iO_mnVi_1_needs_lvalue_1_opaque_list_1, 8
_TIG_iO_mnVi_1_needs_lvalue_1_opaque_list_1:
	.zero	8
	.globl	_TIG_iO_mnVi_1___bswap_16_1_opaque_list_2
	.align 8
	.type	_TIG_iO_mnVi_1___bswap_16_1_opaque_list_2, @object
	.size	_TIG_iO_mnVi_1___bswap_16_1_opaque_list_2, 8
_TIG_iO_mnVi_1___bswap_16_1_opaque_list_2:
	.zero	8
	.globl	_TIG_iO_mnVi_1_sym_init_1_opaque_ptr_1
	.align 8
	.type	_TIG_iO_mnVi_1_sym_init_1_opaque_ptr_1, @object
	.size	_TIG_iO_mnVi_1_sym_init_1_opaque_ptr_1, 8
_TIG_iO_mnVi_1_sym_init_1_opaque_ptr_1:
	.zero	8
	.globl	_TIG_iO_mnVi_1_new_scope_1_opaque_ptr_1
	.align 8
	.type	_TIG_iO_mnVi_1_new_scope_1_opaque_ptr_1, @object
	.size	_TIG_iO_mnVi_1_new_scope_1_opaque_ptr_1, 8
_TIG_iO_mnVi_1_new_scope_1_opaque_ptr_1:
	.zero	8
	.globl	_TIG_iO_mnVi_1_branch_1_opaque_ptr_2
	.align 8
	.type	_TIG_iO_mnVi_1_branch_1_opaque_ptr_2, @object
	.size	_TIG_iO_mnVi_1_branch_1_opaque_ptr_2, 8
_TIG_iO_mnVi_1_branch_1_opaque_ptr_2:
	.zero	8
	.globl	_TIG_iO_mnVi_1___uint16_identity_1_opaque_list_1
	.align 8
	.type	_TIG_iO_mnVi_1___uint16_identity_1_opaque_list_1, @object
	.size	_TIG_iO_mnVi_1___uint16_identity_1_opaque_list_1, 8
_TIG_iO_mnVi_1___uint16_identity_1_opaque_list_1:
	.zero	8
	.globl	_TIG_iO_mnVi_1_expr_1_opaque_ptr_1
	.align 8
	.type	_TIG_iO_mnVi_1_expr_1_opaque_ptr_1, @object
	.size	_TIG_iO_mnVi_1_expr_1_opaque_ptr_1, 8
_TIG_iO_mnVi_1_expr_1_opaque_ptr_1:
	.zero	8
	.globl	_TIG_iO_mnVi_1_new_fn_1_opaque_list_1
	.align 8
	.type	_TIG_iO_mnVi_1_new_fn_1_opaque_list_1, @object
	.size	_TIG_iO_mnVi_1_new_fn_1_opaque_list_1, 8
_TIG_iO_mnVi_1_new_fn_1_opaque_list_1:
	.zero	8
	.globl	_TIG_iO_mnVi_1_lex_init_1_opaque_list_1
	.align 8
	.type	_TIG_iO_mnVi_1_lex_init_1_opaque_list_1, @object
	.size	_TIG_iO_mnVi_1_lex_init_1_opaque_list_1, 8
_TIG_iO_mnVi_1_lex_init_1_opaque_list_1:
	.zero	8
	.globl	_TIG_iO_mnVi_1___uint16_identity_1_opaque_ptr_2
	.align 8
	.type	_TIG_iO_mnVi_1___uint16_identity_1_opaque_ptr_2, @object
	.size	_TIG_iO_mnVi_1___uint16_identity_1_opaque_ptr_2, 8
_TIG_iO_mnVi_1___uint16_identity_1_opaque_ptr_2:
	.zero	8
	.globl	curch
	.type	curch, @object
	.size	curch, 1
curch:
	.zero	1
	.globl	_TIG_iO_mnVi_1_new_label_1_opaque_list_1
	.align 8
	.type	_TIG_iO_mnVi_1_new_label_1_opaque_list_1, @object
	.size	_TIG_iO_mnVi_1_new_label_1_opaque_list_1, 8
_TIG_iO_mnVi_1_new_label_1_opaque_list_1:
	.zero	8
	.globl	_TIG_iO_mnVi_1___bswap_64_1_opaque_list_2
	.align 8
	.type	_TIG_iO_mnVi_1___bswap_64_1_opaque_list_2, @object
	.size	_TIG_iO_mnVi_1___bswap_64_1_opaque_list_2, 8
_TIG_iO_mnVi_1___bswap_64_1_opaque_list_2:
	.zero	8
	.globl	_TIG_iO_mnVi_1_lex_init_1_opaque_list_2
	.align 8
	.type	_TIG_iO_mnVi_1_lex_init_1_opaque_list_2, @object
	.size	_TIG_iO_mnVi_1_lex_init_1_opaque_list_2, 8
_TIG_iO_mnVi_1_lex_init_1_opaque_list_2:
	.zero	8
	.globl	locals
	.align 8
	.type	locals, @object
	.size	locals, 8
locals:
	.zero	8
	.globl	input
	.align 8
	.type	input, @object
	.size	input, 8
input:
	.zero	8
	.globl	_TIG_iO_mnVi_1_emit_label_1_opaque_ptr_2
	.align 8
	.type	_TIG_iO_mnVi_1_emit_label_1_opaque_ptr_2, @object
	.size	_TIG_iO_mnVi_1_emit_label_1_opaque_ptr_2, 8
_TIG_iO_mnVi_1_emit_label_1_opaque_ptr_2:
	.zero	8
	.globl	word_size
	.align 4
	.type	word_size, @object
	.size	word_size, 4
word_size:
	.zero	4
	.globl	_TIG_iO_mnVi_1_require_1_opaque_ptr_2
	.align 8
	.type	_TIG_iO_mnVi_1_require_1_opaque_ptr_2, @object
	.size	_TIG_iO_mnVi_1_require_1_opaque_ptr_2, 8
_TIG_iO_mnVi_1_require_1_opaque_ptr_2:
	.zero	8
	.globl	_TIG_iO_mnVi_1_program_1_opaque_list_2
	.align 8
	.type	_TIG_iO_mnVi_1_program_1_opaque_list_2, @object
	.size	_TIG_iO_mnVi_1_program_1_opaque_list_2, 8
_TIG_iO_mnVi_1_program_1_opaque_list_2:
	.zero	8
	.globl	_TIG_iO_mnVi_1_new_label_1_opaque_ptr_2
	.align 8
	.type	_TIG_iO_mnVi_1_new_label_1_opaque_ptr_2, @object
	.size	_TIG_iO_mnVi_1_new_label_1_opaque_ptr_2, 8
_TIG_iO_mnVi_1_new_label_1_opaque_ptr_2:
	.zero	8
	.globl	_TIG_iO_mnVi_1_factor_1_opaque_ptr_1
	.align 8
	.type	_TIG_iO_mnVi_1_factor_1_opaque_ptr_1, @object
	.size	_TIG_iO_mnVi_1_factor_1_opaque_ptr_1, 8
_TIG_iO_mnVi_1_factor_1_opaque_ptr_1:
	.zero	8
	.globl	_TIG_iO_mnVi_1___uint16_identity_1_opaque_list_2
	.align 8
	.type	_TIG_iO_mnVi_1___uint16_identity_1_opaque_list_2, @object
	.size	_TIG_iO_mnVi_1___uint16_identity_1_opaque_list_2, 8
_TIG_iO_mnVi_1___uint16_identity_1_opaque_list_2:
	.zero	8
	.globl	_TIG_iO_mnVi_1_next_1_opaque_ptr_2
	.align 8
	.type	_TIG_iO_mnVi_1_next_1_opaque_ptr_2, @object
	.size	_TIG_iO_mnVi_1_next_1_opaque_ptr_2, 8
_TIG_iO_mnVi_1_next_1_opaque_ptr_2:
	.zero	8
	.globl	_TIG_iO_mnVi_1_decl_1_opaque_ptr_1
	.align 8
	.type	_TIG_iO_mnVi_1_decl_1_opaque_ptr_1, @object
	.size	_TIG_iO_mnVi_1_decl_1_opaque_ptr_1, 8
_TIG_iO_mnVi_1_decl_1_opaque_ptr_1:
	.zero	8
	.globl	label_no
	.align 4
	.type	label_no, @object
	.size	label_no, 4
label_no:
	.zero	4
	.globl	_TIG_iO_mnVi_1_lex_init_1_opaque_ptr_2
	.align 8
	.type	_TIG_iO_mnVi_1_lex_init_1_opaque_ptr_2, @object
	.size	_TIG_iO_mnVi_1_lex_init_1_opaque_ptr_2, 8
_TIG_iO_mnVi_1_lex_init_1_opaque_ptr_2:
	.zero	8
	.globl	_TIG_iO_mnVi_1_object_1_opaque_list_2
	.align 8
	.type	_TIG_iO_mnVi_1_object_1_opaque_list_2, @object
	.size	_TIG_iO_mnVi_1_object_1_opaque_list_2, 8
_TIG_iO_mnVi_1_object_1_opaque_list_2:
	.zero	8
	.globl	_TIG_iO_mnVi_1_new_global_1_opaque_ptr_2
	.align 8
	.type	_TIG_iO_mnVi_1_new_global_1_opaque_ptr_2, @object
	.size	_TIG_iO_mnVi_1_new_global_1_opaque_ptr_2, 8
_TIG_iO_mnVi_1_new_global_1_opaque_ptr_2:
	.zero	8
	.globl	_TIG_iO_mnVi_1_new_global_1_opaque_ptr_1
	.align 8
	.type	_TIG_iO_mnVi_1_new_global_1_opaque_ptr_1, @object
	.size	_TIG_iO_mnVi_1_new_global_1_opaque_ptr_1, 8
_TIG_iO_mnVi_1_new_global_1_opaque_ptr_1:
	.zero	8
	.globl	_TIG_iO_mnVi_1_emit_label_1_opaque_list_2
	.align 8
	.type	_TIG_iO_mnVi_1_emit_label_1_opaque_list_2, @object
	.size	_TIG_iO_mnVi_1_emit_label_1_opaque_list_2, 8
_TIG_iO_mnVi_1_emit_label_1_opaque_list_2:
	.zero	8
	.globl	_TIG_iO_mnVi_1_sym_init_1_opaque_ptr_2
	.align 8
	.type	_TIG_iO_mnVi_1_sym_init_1_opaque_ptr_2, @object
	.size	_TIG_iO_mnVi_1_sym_init_1_opaque_ptr_2, 8
_TIG_iO_mnVi_1_sym_init_1_opaque_ptr_2:
	.zero	8
	.globl	token_other
	.align 4
	.type	token_other, @object
	.size	token_other, 4
token_other:
	.zero	4
	.globl	global_no
	.align 4
	.type	global_no, @object
	.size	global_no, 4
global_no:
	.zero	4
	.globl	_TIG_iO_mnVi_1___bswap_16_1_opaque_list_1
	.align 8
	.type	_TIG_iO_mnVi_1___bswap_16_1_opaque_list_1, @object
	.size	_TIG_iO_mnVi_1___bswap_16_1_opaque_list_1, 8
_TIG_iO_mnVi_1___bswap_16_1_opaque_list_1:
	.zero	8
	.globl	_TIG_iO_mnVi_1___uint32_identity_1_opaque_ptr_2
	.align 8
	.type	_TIG_iO_mnVi_1___uint32_identity_1_opaque_ptr_2, @object
	.size	_TIG_iO_mnVi_1___uint32_identity_1_opaque_ptr_2, 8
_TIG_iO_mnVi_1___uint32_identity_1_opaque_ptr_2:
	.zero	8
	.globl	_TIG_iO_mnVi_1_new_local_1_opaque_ptr_1
	.align 8
	.type	_TIG_iO_mnVi_1_new_local_1_opaque_ptr_1, @object
	.size	_TIG_iO_mnVi_1_new_local_1_opaque_ptr_1, 8
_TIG_iO_mnVi_1_new_local_1_opaque_ptr_1:
	.zero	8
	.globl	globals
	.align 8
	.type	globals, @object
	.size	globals, 8
globals:
	.zero	8
	.globl	_TIG_iO_mnVi_1_function_1_opaque_ptr_1
	.align 8
	.type	_TIG_iO_mnVi_1_function_1_opaque_ptr_1, @object
	.size	_TIG_iO_mnVi_1_function_1_opaque_ptr_1, 8
_TIG_iO_mnVi_1_function_1_opaque_ptr_1:
	.zero	8
	.globl	_TIG_iO_mnVi_1_branch_1_opaque_list_2
	.align 8
	.type	_TIG_iO_mnVi_1_branch_1_opaque_list_2, @object
	.size	_TIG_iO_mnVi_1_branch_1_opaque_list_2, 8
_TIG_iO_mnVi_1_branch_1_opaque_list_2:
	.zero	8
	.globl	_TIG_iO_mnVi_1_factor_1_opaque_ptr_2
	.align 8
	.type	_TIG_iO_mnVi_1_factor_1_opaque_ptr_2, @object
	.size	_TIG_iO_mnVi_1_factor_1_opaque_ptr_2, 8
_TIG_iO_mnVi_1_factor_1_opaque_ptr_2:
	.zero	8
	.globl	ptr_size
	.align 4
	.type	ptr_size, @object
	.size	ptr_size, 4
ptr_size:
	.zero	4
	.globl	_TIG_iO_mnVi_1_error_1_opaque_list_1
	.align 8
	.type	_TIG_iO_mnVi_1_error_1_opaque_list_1, @object
	.size	_TIG_iO_mnVi_1_error_1_opaque_list_1, 8
_TIG_iO_mnVi_1_error_1_opaque_list_1:
	.zero	8
	.globl	_TIG_iO_mnVi_1_see_1_opaque_ptr_2
	.align 8
	.type	_TIG_iO_mnVi_1_see_1_opaque_ptr_2, @object
	.size	_TIG_iO_mnVi_1_see_1_opaque_ptr_2, 8
_TIG_iO_mnVi_1_see_1_opaque_ptr_2:
	.zero	8
	.globl	_TIG_iO_mnVi_1_sym_lookup_1_opaque_ptr_2
	.align 8
	.type	_TIG_iO_mnVi_1_sym_lookup_1_opaque_ptr_2, @object
	.size	_TIG_iO_mnVi_1_sym_lookup_1_opaque_ptr_2, 8
_TIG_iO_mnVi_1_sym_lookup_1_opaque_ptr_2:
	.zero	8
	.globl	_TIG_iO_mnVi_1___uint64_identity_1_opaque_ptr_2
	.align 8
	.type	_TIG_iO_mnVi_1___uint64_identity_1_opaque_ptr_2, @object
	.size	_TIG_iO_mnVi_1___uint64_identity_1_opaque_ptr_2, 8
_TIG_iO_mnVi_1___uint64_identity_1_opaque_ptr_2:
	.zero	8
	.globl	_TIG_iO_mnVi_1___bswap_64_1_opaque_ptr_2
	.align 8
	.type	_TIG_iO_mnVi_1___bswap_64_1_opaque_ptr_2, @object
	.size	_TIG_iO_mnVi_1___bswap_64_1_opaque_ptr_2, 8
_TIG_iO_mnVi_1___bswap_64_1_opaque_ptr_2:
	.zero	8
	.globl	_TIG_iO_mnVi_1_match_1_opaque_ptr_1
	.align 8
	.type	_TIG_iO_mnVi_1_match_1_opaque_ptr_1, @object
	.size	_TIG_iO_mnVi_1_match_1_opaque_ptr_1, 8
_TIG_iO_mnVi_1_match_1_opaque_ptr_1:
	.zero	8
	.globl	_TIG_iO_mnVi_1_new_param_1_opaque_ptr_1
	.align 8
	.type	_TIG_iO_mnVi_1_new_param_1_opaque_ptr_1, @object
	.size	_TIG_iO_mnVi_1_new_param_1_opaque_ptr_1, 8
_TIG_iO_mnVi_1_new_param_1_opaque_ptr_1:
	.zero	8
	.globl	_TIG_iO_mnVi_1___uint32_identity_1_opaque_list_1
	.align 8
	.type	_TIG_iO_mnVi_1___uint32_identity_1_opaque_list_1, @object
	.size	_TIG_iO_mnVi_1___uint32_identity_1_opaque_list_1, 8
_TIG_iO_mnVi_1___uint32_identity_1_opaque_list_1:
	.zero	8
	.globl	param_no
	.align 4
	.type	param_no, @object
	.size	param_no, 4
param_no:
	.zero	4
	.globl	_TIG_iO_mnVi_1_see_1_opaque_ptr_1
	.align 8
	.type	_TIG_iO_mnVi_1_see_1_opaque_ptr_1, @object
	.size	_TIG_iO_mnVi_1_see_1_opaque_ptr_1, 8
_TIG_iO_mnVi_1_see_1_opaque_ptr_1:
	.zero	8
	.globl	_TIG_iO_mnVi_1_error_1_opaque_list_2
	.align 8
	.type	_TIG_iO_mnVi_1_error_1_opaque_list_2, @object
	.size	_TIG_iO_mnVi_1_error_1_opaque_list_2, 8
_TIG_iO_mnVi_1_error_1_opaque_list_2:
	.zero	8
	.globl	_TIG_iO_mnVi_1_function_1_opaque_ptr_2
	.align 8
	.type	_TIG_iO_mnVi_1_function_1_opaque_ptr_2, @object
	.size	_TIG_iO_mnVi_1_function_1_opaque_ptr_2, 8
_TIG_iO_mnVi_1_function_1_opaque_ptr_2:
	.zero	8
	.globl	_TIG_iO_mnVi_1_unary_1_opaque_list_2
	.align 8
	.type	_TIG_iO_mnVi_1_unary_1_opaque_list_2, @object
	.size	_TIG_iO_mnVi_1_unary_1_opaque_list_2, 8
_TIG_iO_mnVi_1_unary_1_opaque_list_2:
	.zero	8
	.globl	_TIG_iO_mnVi_1___uint32_identity_1_opaque_list_2
	.align 8
	.type	_TIG_iO_mnVi_1___uint32_identity_1_opaque_list_2, @object
	.size	_TIG_iO_mnVi_1___uint32_identity_1_opaque_list_2, 8
_TIG_iO_mnVi_1___uint32_identity_1_opaque_list_2:
	.zero	8
	.globl	_TIG_iO_mnVi_1_needs_lvalue_1_opaque_ptr_1
	.align 8
	.type	_TIG_iO_mnVi_1_needs_lvalue_1_opaque_ptr_1, @object
	.size	_TIG_iO_mnVi_1_needs_lvalue_1_opaque_ptr_1, 8
_TIG_iO_mnVi_1_needs_lvalue_1_opaque_ptr_1:
	.zero	8
	.globl	_TIG_iO_mnVi_1_if_branch_1_opaque_ptr_2
	.align 8
	.type	_TIG_iO_mnVi_1_if_branch_1_opaque_ptr_2, @object
	.size	_TIG_iO_mnVi_1_if_branch_1_opaque_ptr_2, 8
_TIG_iO_mnVi_1_if_branch_1_opaque_ptr_2:
	.zero	8
	.globl	token_char
	.align 4
	.type	token_char, @object
	.size	token_char, 4
token_char:
	.zero	4
	.globl	_TIG_iO_mnVi_1_main_1_opaque_list_1
	.align 8
	.type	_TIG_iO_mnVi_1_main_1_opaque_list_1, @object
	.size	_TIG_iO_mnVi_1_main_1_opaque_list_1, 8
_TIG_iO_mnVi_1_main_1_opaque_list_1:
	.zero	8
	.globl	_TIG_iO_mnVi_1_decl_1_opaque_list_2
	.align 8
	.type	_TIG_iO_mnVi_1_decl_1_opaque_list_2, @object
	.size	_TIG_iO_mnVi_1_decl_1_opaque_list_2, 8
_TIG_iO_mnVi_1_decl_1_opaque_list_2:
	.zero	8
	.globl	_TIG_iO_mnVi_1___bswap_32_1_opaque_list_2
	.align 8
	.type	_TIG_iO_mnVi_1___bswap_32_1_opaque_list_2, @object
	.size	_TIG_iO_mnVi_1___bswap_32_1_opaque_list_2, 8
_TIG_iO_mnVi_1___bswap_32_1_opaque_list_2:
	.zero	8
	.globl	buflength
	.align 4
	.type	buflength, @object
	.size	buflength, 4
buflength:
	.zero	4
	.globl	lvalue
	.type	lvalue, @object
	.size	lvalue, 1
lvalue:
	.zero	1
	.globl	_TIG_iO_mnVi_1_while_loop_1_opaque_list_2
	.align 8
	.type	_TIG_iO_mnVi_1_while_loop_1_opaque_list_2, @object
	.size	_TIG_iO_mnVi_1_while_loop_1_opaque_list_2, 8
_TIG_iO_mnVi_1_while_loop_1_opaque_list_2:
	.zero	8
	.globl	_TIG_iO_mnVi_1_unary_1_opaque_ptr_1
	.align 8
	.type	_TIG_iO_mnVi_1_unary_1_opaque_ptr_1, @object
	.size	_TIG_iO_mnVi_1_unary_1_opaque_ptr_1, 8
_TIG_iO_mnVi_1_unary_1_opaque_ptr_1:
	.zero	8
	.globl	_TIG_iO_mnVi_1_expr_1_opaque_ptr_2
	.align 8
	.type	_TIG_iO_mnVi_1_expr_1_opaque_ptr_2, @object
	.size	_TIG_iO_mnVi_1_expr_1_opaque_ptr_2, 8
_TIG_iO_mnVi_1_expr_1_opaque_ptr_2:
	.zero	8
	.globl	_TIG_iO_mnVi_1_see_1_opaque_list_2
	.align 8
	.type	_TIG_iO_mnVi_1_see_1_opaque_list_2, @object
	.size	_TIG_iO_mnVi_1_see_1_opaque_list_2, 8
_TIG_iO_mnVi_1_see_1_opaque_list_2:
	.zero	8
	.globl	_TIG_iO_mnVi_1_error_1_opaque_ptr_2
	.align 8
	.type	_TIG_iO_mnVi_1_error_1_opaque_ptr_2, @object
	.size	_TIG_iO_mnVi_1_error_1_opaque_ptr_2, 8
_TIG_iO_mnVi_1_error_1_opaque_ptr_2:
	.zero	8
	.globl	_TIG_iO_mnVi_1_main_1_opaque_ptr_2
	.align 8
	.type	_TIG_iO_mnVi_1_main_1_opaque_ptr_2, @object
	.size	_TIG_iO_mnVi_1_main_1_opaque_ptr_2, 8
_TIG_iO_mnVi_1_main_1_opaque_ptr_2:
	.zero	8
	.globl	_TIG_iO_mnVi_1_see_1_opaque_list_1
	.align 8
	.type	_TIG_iO_mnVi_1_see_1_opaque_list_1, @object
	.size	_TIG_iO_mnVi_1_see_1_opaque_list_1, 8
_TIG_iO_mnVi_1_see_1_opaque_list_1:
	.zero	8
	.globl	_TIG_IZ_mnVi_argc
	.align 4
	.type	_TIG_IZ_mnVi_argc, @object
	.size	_TIG_IZ_mnVi_argc, 4
_TIG_IZ_mnVi_argc:
	.zero	4
	.globl	_TIG_iO_mnVi_1_while_loop_1_opaque_list_1
	.align 8
	.type	_TIG_iO_mnVi_1_while_loop_1_opaque_list_1, @object
	.size	_TIG_iO_mnVi_1_while_loop_1_opaque_list_1, 8
_TIG_iO_mnVi_1_while_loop_1_opaque_list_1:
	.zero	8
	.globl	_TIG_IZ_mnVi_argv
	.align 8
	.type	_TIG_IZ_mnVi_argv, @object
	.size	_TIG_IZ_mnVi_argv, 8
_TIG_IZ_mnVi_argv:
	.zero	8
	.globl	_TIG_iO_mnVi_1_match_1_opaque_list_2
	.align 8
	.type	_TIG_iO_mnVi_1_match_1_opaque_list_2, @object
	.size	_TIG_iO_mnVi_1_match_1_opaque_list_2, 8
_TIG_iO_mnVi_1_match_1_opaque_list_2:
	.zero	8
	.globl	_TIG_iO_mnVi_1_program_1_opaque_ptr_2
	.align 8
	.type	_TIG_iO_mnVi_1_program_1_opaque_ptr_2, @object
	.size	_TIG_iO_mnVi_1_program_1_opaque_ptr_2, 8
_TIG_iO_mnVi_1_program_1_opaque_ptr_2:
	.zero	8
	.globl	_TIG_iO_mnVi_1_sym_lookup_1_opaque_ptr_1
	.align 8
	.type	_TIG_iO_mnVi_1_sym_lookup_1_opaque_ptr_1, @object
	.size	_TIG_iO_mnVi_1_sym_lookup_1_opaque_ptr_1, 8
_TIG_iO_mnVi_1_sym_lookup_1_opaque_ptr_1:
	.zero	8
	.globl	_TIG_iO_mnVi_1___uint64_identity_1_opaque_list_2
	.align 8
	.type	_TIG_iO_mnVi_1___uint64_identity_1_opaque_list_2, @object
	.size	_TIG_iO_mnVi_1___uint64_identity_1_opaque_list_2, 8
_TIG_iO_mnVi_1___uint64_identity_1_opaque_list_2:
	.zero	8
	.globl	_TIG_iO_mnVi_1_object_1_opaque_list_1
	.align 8
	.type	_TIG_iO_mnVi_1_object_1_opaque_list_1, @object
	.size	_TIG_iO_mnVi_1_object_1_opaque_list_1, 8
_TIG_iO_mnVi_1_object_1_opaque_list_1:
	.zero	8
	.globl	local_no
	.align 4
	.type	local_no, @object
	.size	local_no, 4
local_no:
	.zero	4
	.globl	_TIG_iO_mnVi_1_eat_char_1_opaque_ptr_2
	.align 8
	.type	_TIG_iO_mnVi_1_eat_char_1_opaque_ptr_2, @object
	.size	_TIG_iO_mnVi_1_eat_char_1_opaque_ptr_2, 8
_TIG_iO_mnVi_1_eat_char_1_opaque_ptr_2:
	.zero	8
	.globl	_TIG_iO_mnVi_1___bswap_32_1_opaque_ptr_2
	.align 8
	.type	_TIG_iO_mnVi_1___bswap_32_1_opaque_ptr_2, @object
	.size	_TIG_iO_mnVi_1___bswap_32_1_opaque_ptr_2, 8
_TIG_iO_mnVi_1___bswap_32_1_opaque_ptr_2:
	.zero	8
	.globl	_TIG_iO_mnVi_1_new_fn_1_opaque_ptr_2
	.align 8
	.type	_TIG_iO_mnVi_1_new_fn_1_opaque_ptr_2, @object
	.size	_TIG_iO_mnVi_1_new_fn_1_opaque_ptr_2, 8
_TIG_iO_mnVi_1_new_fn_1_opaque_ptr_2:
	.zero	8
	.globl	_TIG_iO_mnVi_1_program_1_opaque_ptr_1
	.align 8
	.type	_TIG_iO_mnVi_1_program_1_opaque_ptr_1, @object
	.size	_TIG_iO_mnVi_1_program_1_opaque_ptr_1, 8
_TIG_iO_mnVi_1_program_1_opaque_ptr_1:
	.zero	8
	.globl	_TIG_iO_mnVi_1_new_scope_1_opaque_list_1
	.align 8
	.type	_TIG_iO_mnVi_1_new_scope_1_opaque_list_1, @object
	.size	_TIG_iO_mnVi_1_new_scope_1_opaque_list_1, 8
_TIG_iO_mnVi_1_new_scope_1_opaque_list_1:
	.zero	8
	.globl	decl_module
	.align 4
	.type	decl_module, @object
	.size	decl_module, 4
decl_module:
	.zero	4
	.globl	token_int
	.align 4
	.type	token_int, @object
	.size	token_int, 4
token_int:
	.zero	4
	.globl	_TIG_iO_mnVi_1_next_char_1_opaque_ptr_2
	.align 8
	.type	_TIG_iO_mnVi_1_next_char_1_opaque_ptr_2, @object
	.size	_TIG_iO_mnVi_1_next_char_1_opaque_ptr_2, 8
_TIG_iO_mnVi_1_next_char_1_opaque_ptr_2:
	.zero	8
	.globl	_TIG_iO_mnVi_1_new_fn_1_opaque_ptr_1
	.align 8
	.type	_TIG_iO_mnVi_1_new_fn_1_opaque_ptr_1, @object
	.size	_TIG_iO_mnVi_1_new_fn_1_opaque_ptr_1, 8
_TIG_iO_mnVi_1_new_fn_1_opaque_ptr_1:
	.zero	8
	.globl	_TIG_iO_mnVi_1_line_1_opaque_list_1
	.align 8
	.type	_TIG_iO_mnVi_1_line_1_opaque_list_1, @object
	.size	_TIG_iO_mnVi_1_line_1_opaque_list_1, 8
_TIG_iO_mnVi_1_line_1_opaque_list_1:
	.zero	8
	.globl	token
	.align 4
	.type	token, @object
	.size	token, 4
token:
	.zero	4
	.globl	_TIG_iO_mnVi_1_function_1_opaque_list_1
	.align 8
	.type	_TIG_iO_mnVi_1_function_1_opaque_list_1, @object
	.size	_TIG_iO_mnVi_1_function_1_opaque_list_1, 8
_TIG_iO_mnVi_1_function_1_opaque_list_1:
	.zero	8
	.globl	_TIG_iO_mnVi_1_branch_1_opaque_ptr_1
	.align 8
	.type	_TIG_iO_mnVi_1_branch_1_opaque_ptr_1, @object
	.size	_TIG_iO_mnVi_1_branch_1_opaque_ptr_1, 8
_TIG_iO_mnVi_1_branch_1_opaque_ptr_1:
	.zero	8
	.globl	_TIG_iO_mnVi_1_try_match_1_opaque_list_2
	.align 8
	.type	_TIG_iO_mnVi_1_try_match_1_opaque_list_2, @object
	.size	_TIG_iO_mnVi_1_try_match_1_opaque_list_2, 8
_TIG_iO_mnVi_1_try_match_1_opaque_list_2:
	.zero	8
	.globl	_TIG_iO_mnVi_1_new_label_1_opaque_ptr_1
	.align 8
	.type	_TIG_iO_mnVi_1_new_label_1_opaque_ptr_1, @object
	.size	_TIG_iO_mnVi_1_new_label_1_opaque_ptr_1, 8
_TIG_iO_mnVi_1_new_label_1_opaque_ptr_1:
	.zero	8
	.globl	_TIG_iO_mnVi_1_if_branch_1_opaque_ptr_1
	.align 8
	.type	_TIG_iO_mnVi_1_if_branch_1_opaque_ptr_1, @object
	.size	_TIG_iO_mnVi_1_if_branch_1_opaque_ptr_1, 8
_TIG_iO_mnVi_1_if_branch_1_opaque_ptr_1:
	.zero	8
	.globl	_TIG_iO_mnVi_1_object_1_opaque_ptr_1
	.align 8
	.type	_TIG_iO_mnVi_1_object_1_opaque_ptr_1, @object
	.size	_TIG_iO_mnVi_1_object_1_opaque_ptr_1, 8
_TIG_iO_mnVi_1_object_1_opaque_ptr_1:
	.zero	8
	.globl	token_str
	.align 4
	.type	token_str, @object
	.size	token_str, 4
token_str:
	.zero	4
	.globl	_TIG_iO_mnVi_1_sym_init_1_opaque_list_1
	.align 8
	.type	_TIG_iO_mnVi_1_sym_init_1_opaque_list_1, @object
	.size	_TIG_iO_mnVi_1_sym_init_1_opaque_list_1, 8
_TIG_iO_mnVi_1_sym_init_1_opaque_list_1:
	.zero	8
	.globl	_TIG_iO_mnVi_1_while_loop_1_opaque_ptr_2
	.align 8
	.type	_TIG_iO_mnVi_1_while_loop_1_opaque_ptr_2, @object
	.size	_TIG_iO_mnVi_1_while_loop_1_opaque_ptr_2, 8
_TIG_iO_mnVi_1_while_loop_1_opaque_ptr_2:
	.zero	8
	.globl	decl_local
	.align 4
	.type	decl_local, @object
	.size	decl_local, 4
decl_local:
	.zero	4
	.globl	_TIG_iO_mnVi_1_object_1_opaque_ptr_2
	.align 8
	.type	_TIG_iO_mnVi_1_object_1_opaque_ptr_2, @object
	.size	_TIG_iO_mnVi_1_object_1_opaque_ptr_2, 8
_TIG_iO_mnVi_1_object_1_opaque_ptr_2:
	.zero	8
	.globl	_TIG_iO_mnVi_1___bswap_16_1_opaque_ptr_1
	.align 8
	.type	_TIG_iO_mnVi_1___bswap_16_1_opaque_ptr_1, @object
	.size	_TIG_iO_mnVi_1___bswap_16_1_opaque_ptr_1, 8
_TIG_iO_mnVi_1___bswap_16_1_opaque_ptr_1:
	.zero	8
	.globl	_TIG_iO_mnVi_1_require_1_opaque_list_2
	.align 8
	.type	_TIG_iO_mnVi_1_require_1_opaque_list_2, @object
	.size	_TIG_iO_mnVi_1_require_1_opaque_list_2, 8
_TIG_iO_mnVi_1_require_1_opaque_list_2:
	.zero	8
	.globl	_TIG_iO_mnVi_1_program_1_opaque_list_1
	.align 8
	.type	_TIG_iO_mnVi_1_program_1_opaque_list_1, @object
	.size	_TIG_iO_mnVi_1_program_1_opaque_list_1, 8
_TIG_iO_mnVi_1_program_1_opaque_list_1:
	.zero	8
	.globl	_TIG_iO_mnVi_1_sym_init_1_opaque_list_2
	.align 8
	.type	_TIG_iO_mnVi_1_sym_init_1_opaque_list_2, @object
	.size	_TIG_iO_mnVi_1_sym_init_1_opaque_list_2, 8
_TIG_iO_mnVi_1_sym_init_1_opaque_list_2:
	.zero	8
	.globl	buffer
	.align 8
	.type	buffer, @object
	.size	buffer, 8
buffer:
	.zero	8
	.globl	_TIG_iO_mnVi_1_error_1_opaque_ptr_1
	.align 8
	.type	_TIG_iO_mnVi_1_error_1_opaque_ptr_1, @object
	.size	_TIG_iO_mnVi_1_error_1_opaque_ptr_1, 8
_TIG_iO_mnVi_1_error_1_opaque_ptr_1:
	.zero	8
	.text
	.globl	next_char
	.type	next_char, @function
next_char:
.LFB0:
	.cfi_startproc
	endbr64
	pushq	%rbp
	.cfi_def_cfa_offset 16
	.cfi_offset 6, -16
	movq	%rsp, %rbp
	.cfi_def_cfa_register 6
	subq	$64, %rsp
#APP
# 81 "/usr/include/stdlib.h" 1
	##_ANNOTATION_INITIALREGION_-TIG-iO-mnVi-1-next-char--56
# 0 "" 2
# 85 "/usr/include/stdlib.h" 1
	##_ANNOTATION_ATOMICREGION_-TIG-iO-mnVi-1-next-char--55
# 0 "" 2
#NO_APP
	movl	$24, %edi
	call	malloc@PLT
	movq	%rax, -40(%rbp)
	movq	-40(%rbp), %rax
	movq	-40(%rbp), %rdx
	movq	%rdx, 16(%rax)
	movq	-40(%rbp), %rax
	movq	-40(%rbp), %rdx
	movq	%rdx, 8(%rax)
	movq	-40(%rbp), %rax
	movq	%rax, _TIG_iO_mnVi_1_next_char_1_opaque_list_1(%rip)
	call	rand@PLT
	movl	%eax, -60(%rbp)
	movl	$24, %edi
	call	malloc@PLT
	movq	%rax, -32(%rbp)
	movq	-32(%rbp), %rax
	movl	$0, (%rax)
	movq	_TIG_iO_mnVi_1_next_char_1_opaque_list_1(%rip), %rax
	movq	16(%rax), %rdx
	movq	-32(%rbp), %rax
	movq	%rdx, 16(%rax)
	movq	_TIG_iO_mnVi_1_next_char_1_opaque_list_1(%rip), %rdx
	movq	-32(%rbp), %rax
	movq	%rdx, 8(%rax)
	movq	_TIG_iO_mnVi_1_next_char_1_opaque_list_1(%rip), %rax
	movq	16(%rax), %rax
	movq	-32(%rbp), %rdx
	movq	%rdx, 8(%rax)
	movq	_TIG_iO_mnVi_1_next_char_1_opaque_list_1(%rip), %rax
	movq	-32(%rbp), %rdx
	movq	%rdx, 16(%rax)
	call	rand@PLT
	movl	%eax, -56(%rbp)
	movl	$24, %edi
	call	malloc@PLT
	movq	%rax, -24(%rbp)
	movq	-24(%rbp), %rax
	movl	-56(%rbp), %edx
	movl	%edx, (%rax)
	movq	_TIG_iO_mnVi_1_next_char_1_opaque_list_1(%rip), %rax
	movq	16(%rax), %rdx
	movq	-24(%rbp), %rax
	movq	%rdx, 16(%rax)
	movq	_TIG_iO_mnVi_1_next_char_1_opaque_list_1(%rip), %rdx
	movq	-24(%rbp), %rax
	movq	%rdx, 8(%rax)
	movq	_TIG_iO_mnVi_1_next_char_1_opaque_list_1(%rip), %rax
	movq	16(%rax), %rax
	movq	-24(%rbp), %rdx
	movq	%rdx, 8(%rax)
	movq	_TIG_iO_mnVi_1_next_char_1_opaque_list_1(%rip), %rax
	movq	-24(%rbp), %rdx
	movq	%rdx, 16(%rax)
	call	rand@PLT
	movl	%eax, -52(%rbp)
	movl	$24, %edi
	call	malloc@PLT
	movq	%rax, -16(%rbp)
	movl	-52(%rbp), %eax
	leal	(%rax,%rax), %edx
	movq	-16(%rbp), %rax
	movl	%edx, (%rax)
	movq	_TIG_iO_mnVi_1_next_char_1_opaque_list_1(%rip), %rax
	movq	16(%rax), %rdx
	movq	-16(%rbp), %rax
	movq	%rdx, 16(%rax)
	movq	_TIG_iO_mnVi_1_next_char_1_opaque_list_1(%rip), %rdx
	movq	-16(%rbp), %rax
	movq	%rdx, 8(%rax)
	movq	_TIG_iO_mnVi_1_next_char_1_opaque_list_1(%rip), %rax
	movq	16(%rax), %rax
	movq	-16(%rbp), %rdx
	movq	%rdx, 8(%rax)
	movq	_TIG_iO_mnVi_1_next_char_1_opaque_list_1(%rip), %rax
	movq	-16(%rbp), %rdx
	movq	%rdx, 16(%rax)
	call	rand@PLT
	movl	%eax, -48(%rbp)
	movl	$24, %edi
	call	malloc@PLT
	movq	%rax, -8(%rbp)
	movl	-48(%rbp), %edx
	movl	%edx, %eax
	addl	%eax, %eax
	addl	%eax, %edx
	movq	-8(%rbp), %rax
	movl	%edx, (%rax)
	movq	_TIG_iO_mnVi_1_next_char_1_opaque_list_1(%rip), %rax
	movq	16(%rax), %rdx
	movq	-8(%rbp), %rax
	movq	%rdx, 16(%rax)
	movq	_TIG_iO_mnVi_1_next_char_1_opaque_list_1(%rip), %rdx
	movq	-8(%rbp), %rax
	movq	%rdx, 8(%rax)
	movq	_TIG_iO_mnVi_1_next_char_1_opaque_list_1(%rip), %rax
	movq	16(%rax), %rax
	movq	-8(%rbp), %rdx
	movq	%rdx, 8(%rax)
	movq	_TIG_iO_mnVi_1_next_char_1_opaque_list_1(%rip), %rax
	movq	-8(%rbp), %rdx
	movq	%rdx, 16(%rax)
	movq	_TIG_iO_mnVi_1_next_char_1_opaque_list_1(%rip), %rax
	movq	16(%rax), %rax
	movq	%rax, _TIG_iO_mnVi_1_next_char_1_opaque_ptr_1(%rip)
	movq	_TIG_iO_mnVi_1_next_char_1_opaque_ptr_1(%rip), %rax
	movq	%rax, _TIG_iO_mnVi_1_next_char_1_opaque_ptr_2(%rip)
	movq	_TIG_iO_mnVi_1_next_char_1_opaque_ptr_2(%rip), %rax
	movq	16(%rax), %rax
	movq	%rax, _TIG_iO_mnVi_1_next_char_1_opaque_ptr_2(%rip)
	nop
	nop
	movq	_TIG_iO_mnVi_1_while_loop_1_opaque_ptr_1(%rip), %rdx
	movq	_TIG_iO_mnVi_1_while_loop_1_opaque_ptr_2(%rip), %rax
	cmpq	%rax, %rdx
	jne	.L2
	movzbl	curch(%rip), %eax
	cmpb	$10, %al
	jne	.L3
	movl	curln(%rip), %eax
	addl	$1, %eax
	movl	%eax, curln(%rip)
	jmp	.L3
.L2:
#APP
# 41 "Fedjmike_mini-c_cc.c" 1
	.byte 0x0,0x0,0x1,0x0,0x0,0xc7
# 0 "" 2
#NO_APP
.L3:
	movq	input(%rip), %rax
	movq	%rax, %rdi
	call	fgetc@PLT
	movl	%eax, -44(%rbp)
	movl	-44(%rbp), %eax
	movb	%al, curch(%rip)
	movzbl	curch(%rip), %eax
	leave
	.cfi_def_cfa 7, 8
	ret
	.cfi_endproc
.LFE0:
	.size	next_char, .-next_char
	.section	.rodata
.LC0:
	.string	"*"
.LC1:
	.string	"("
.LC2:
	.string	")"
.LC3:
	.string	","
.LC4:
	.string	"{"
	.align 8
.LC5:
	.string	"a function implementation is illegal here\n"
.LC6:
	.string	"="
.LC7:
	.string	"cannot initialize a function\n"
	.align 8
.LC8:
	.string	"cannot initialize a parameter\n"
.LC9:
	.string	".section .data\n"
.LC10:
	.string	"%s: .quad %d\n"
	.align 8
.LC11:
	.string	"expected a constant expression, found '%s'\n"
.LC12:
	.string	"%s: .quad 0\n"
.LC13:
	.string	".section .text\n"
.LC14:
	.string	"mov dword ptr [ebp%+d], eax\n"
.LC15:
	.string	";"
	.text
	.globl	decl
	.type	decl, @function
decl:
.LFB1:
	.cfi_startproc
	endbr64
	pushq	%rbp
	.cfi_def_cfa_offset 16
	.cfi_offset 6, -16
	movq	%rsp, %rbp
	.cfi_def_cfa_register 6
	subq	$112, %rsp
	movl	%edi, -100(%rbp)
#APP
# 73 "Fedjmike_mini-c_cc.c" 1
	##_ANNOTATION_INITIALREGION_-TIG-iO-mnVi-1-decl--16
# 0 "" 2
# 77 "Fedjmike_mini-c_cc.c" 1
	##_ANNOTATION_ATOMICREGION_-TIG-iO-mnVi-1-decl--15
# 0 "" 2
#NO_APP
	movl	$24, %edi
	call	malloc@PLT
	movq	%rax, -40(%rbp)
	movq	-40(%rbp), %rax
	movq	-40(%rbp), %rdx
	movq	%rdx, 16(%rax)
	movq	-40(%rbp), %rax
	movq	-40(%rbp), %rdx
	movq	%rdx, 8(%rax)
	movq	-40(%rbp), %rax
	movq	%rax, _TIG_iO_mnVi_1_decl_1_opaque_list_1(%rip)
	call	rand@PLT
	movl	%eax, -68(%rbp)
	movl	$24, %edi
	call	malloc@PLT
	movq	%rax, -32(%rbp)
	movq	-32(%rbp), %rax
	movl	$0, (%rax)
	movq	_TIG_iO_mnVi_1_decl_1_opaque_list_1(%rip), %rax
	movq	16(%rax), %rdx
	movq	-32(%rbp), %rax
	movq	%rdx, 16(%rax)
	movq	_TIG_iO_mnVi_1_decl_1_opaque_list_1(%rip), %rdx
	movq	-32(%rbp), %rax
	movq	%rdx, 8(%rax)
	movq	_TIG_iO_mnVi_1_decl_1_opaque_list_1(%rip), %rax
	movq	16(%rax), %rax
	movq	-32(%rbp), %rdx
	movq	%rdx, 8(%rax)
	movq	_TIG_iO_mnVi_1_decl_1_opaque_list_1(%rip), %rax
	movq	-32(%rbp), %rdx
	movq	%rdx, 16(%rax)
	call	rand@PLT
	movl	%eax, -64(%rbp)
	movl	$24, %edi
	call	malloc@PLT
	movq	%rax, -24(%rbp)
	movq	-24(%rbp), %rax
	movl	-64(%rbp), %edx
	movl	%edx, (%rax)
	movq	_TIG_iO_mnVi_1_decl_1_opaque_list_1(%rip), %rax
	movq	16(%rax), %rdx
	movq	-24(%rbp), %rax
	movq	%rdx, 16(%rax)
	movq	_TIG_iO_mnVi_1_decl_1_opaque_list_1(%rip), %rdx
	movq	-24(%rbp), %rax
	movq	%rdx, 8(%rax)
	movq	_TIG_iO_mnVi_1_decl_1_opaque_list_1(%rip), %rax
	movq	16(%rax), %rax
	movq	-24(%rbp), %rdx
	movq	%rdx, 8(%rax)
	movq	_TIG_iO_mnVi_1_decl_1_opaque_list_1(%rip), %rax
	movq	-24(%rbp), %rdx
	movq	%rdx, 16(%rax)
	movq	_TIG_iO_mnVi_1_decl_1_opaque_list_1(%rip), %rax
	movq	16(%rax), %rax
	movq	%rax, _TIG_iO_mnVi_1_decl_1_opaque_ptr_1(%rip)
	movq	_TIG_iO_mnVi_1_decl_1_opaque_ptr_1(%rip), %rax
	movq	%rax, _TIG_iO_mnVi_1_decl_1_opaque_ptr_2(%rip)
	nop
	nop
	movb	$0, -86(%rbp)
	movb	$0, -85(%rbp)
	call	next
.L8:
	leaq	.LC0(%rip), %rax
	movq	%rax, %rdi
	call	try_match
	movb	%al, -84(%rbp)
	movzbl	-84(%rbp), %eax
	xorl	$1, %eax
	testb	%al, %al
	jne	.L34
	jmp	.L8
.L34:
	nop
	movq	buffer(%rip), %rax
	movq	%rax, %rdi
	call	strdup@PLT
	movq	%rax, -16(%rbp)
	movq	-16(%rbp), %rax
	movq	%rax, -8(%rbp)
	call	next
	leaq	.LC1(%rip), %rax
	movq	%rax, %rdi
	call	try_match
	movb	%al, -83(%rbp)
	cmpb	$0, -83(%rbp)
	je	.L9
	movl	decl_module(%rip), %eax
	cmpl	%eax, -100(%rbp)
	jne	.L10
	movq	_TIG_iO_mnVi_1_while_loop_1_opaque_ptr_1(%rip), %rdx
	movq	_TIG_iO_mnVi_1_while_loop_1_opaque_ptr_2(%rip), %rax
	cmpq	%rax, %rdx
	je	.L11
	call	new_scope
	jmp	.L10
.L11:
	call	new_scope
.L10:
	leaq	.LC2(%rip), %rax
	movq	%rax, %rdi
	call	waiting_for
	movb	%al, -82(%rbp)
	cmpb	$0, -82(%rbp)
	je	.L12
.L14:
	movl	decl_param(%rip), %eax
	movl	%eax, %edi
	call	decl
	leaq	.LC3(%rip), %rax
	movq	%rax, %rdi
	call	try_match
	movb	%al, -81(%rbp)
	movzbl	-81(%rbp), %eax
	xorl	$1, %eax
	testb	%al, %al
	jne	.L35
	jmp	.L14
.L35:
	nop
.L12:
	leaq	.LC2(%rip), %rax
	movq	%rax, %rdi
	call	match
	movq	-8(%rbp), %rax
	movq	%rax, %rdi
	call	new_fn
	movb	$1, -86(%rbp)
	leaq	.LC4(%rip), %rax
	movq	%rax, %rdi
	call	see
	movb	%al, -80(%rbp)
	cmpb	$0, -80(%rbp)
	je	.L15
	movl	decl_module(%rip), %eax
	cmpl	%eax, -100(%rbp)
	sete	%al
	movzbl	%al, %eax
	leaq	.LC5(%rip), %rdx
	movq	%rdx, %rsi
	movl	%eax, %edi
	call	require
	movb	$1, -85(%rbp)
	movq	-8(%rbp), %rax
	movq	%rax, %rdi
	call	function
	jmp	.L15
.L9:
	movl	decl_local(%rip), %eax
	cmpl	%eax, -100(%rbp)
	jne	.L16
	movq	-8(%rbp), %rax
	movq	%rax, %rdi
	call	new_local
	movl	%eax, -76(%rbp)
	jmp	.L15
.L16:
	movl	decl_module(%rip), %eax
	cmpl	%eax, -100(%rbp)
	jne	.L17
	leaq	new_global(%rip), %rax
	movq	%rax, -56(%rbp)
	jmp	.L18
.L17:
	leaq	new_param(%rip), %rax
	movq	%rax, -56(%rbp)
.L18:
	movq	-8(%rbp), %rax
	movq	-56(%rbp), %rdx
	movq	%rax, %rdi
	call	*%rdx
.L15:
	leaq	.LC6(%rip), %rax
	movq	%rax, %rdi
	call	see
	movb	%al, -79(%rbp)
	cmpb	$0, -79(%rbp)
	je	.L19
	cmpb	$0, -86(%rbp)
	je	.L20
	leaq	.LC7(%rip), %rax
	movq	%rax, -48(%rbp)
	jmp	.L21
.L20:
	leaq	.LC8(%rip), %rax
	movq	%rax, -48(%rbp)
.L21:
	movzbl	-86(%rbp), %eax
	xorl	$1, %eax
	testb	%al, %al
	je	.L22
	movl	decl_param(%rip), %eax
	cmpl	%eax, -100(%rbp)
	je	.L23
	movl	$1, -72(%rbp)
	jmp	.L24
.L23:
	movl	$0, -72(%rbp)
	jmp	.L24
.L22:
	movl	$0, -72(%rbp)
.L24:
	cmpl	$0, -72(%rbp)
	setne	%al
	movzbl	%al, %eax
	movq	-48(%rbp), %rdx
	movq	%rdx, %rsi
	movl	%eax, %edi
	call	require
.L19:
	movl	decl_module(%rip), %eax
	cmpl	%eax, -100(%rbp)
	jne	.L25
	movq	output(%rip), %rax
	movq	%rax, %rcx
	movl	$15, %edx
	movl	$1, %esi
	leaq	.LC9(%rip), %rax
	movq	%rax, %rdi
	call	fwrite@PLT
	leaq	.LC6(%rip), %rax
	movq	%rax, %rdi
	call	try_match
	movb	%al, -77(%rbp)
	cmpb	$0, -77(%rbp)
	je	.L26
	movl	token(%rip), %edx
	movl	token_int(%rip), %eax
	cmpl	%eax, %edx
	jne	.L27
	movq	buffer(%rip), %rax
	movq	%rax, %rdi
	call	atoi@PLT
	movl	%eax, -60(%rbp)
	movq	output(%rip), %rax
	movl	-60(%rbp), %ecx
	movq	-8(%rbp), %rdx
	leaq	.LC10(%rip), %rsi
	movq	%rax, %rdi
	movl	$0, %eax
	call	fprintf@PLT
	jmp	.L28
.L27:
	leaq	.LC11(%rip), %rax
	movq	%rax, %rdi
	call	error
.L28:
	call	next
	jmp	.L29
.L26:
	movzbl	-86(%rbp), %eax
	xorl	$1, %eax
	testb	%al, %al
	je	.L29
	movq	output(%rip), %rax
	movq	-8(%rbp), %rdx
	leaq	.LC12(%rip), %rcx
	movq	%rcx, %rsi
	movq	%rax, %rdi
	movl	$0, %eax
	call	fprintf@PLT
.L29:
	movq	output(%rip), %rax
	movq	%rax, %rcx
	movl	$15, %edx
	movl	$1, %esi
	leaq	.LC13(%rip), %rax
	movq	%rax, %rdi
	call	fwrite@PLT
	jmp	.L30
.L25:
	leaq	.LC6(%rip), %rax
	movq	%rax, %rdi
	call	try_match
	movb	%al, -78(%rbp)
	cmpb	$0, -78(%rbp)
	je	.L30
	movl	$0, %edi
	call	expr
	movq	offsets(%rip), %rdx
	movl	-76(%rbp), %eax
	cltq
	salq	$2, %rax
	addq	%rdx, %rax
	movl	(%rax), %edx
	movq	output(%rip), %rax
	leaq	.LC14(%rip), %rcx
	movq	%rcx, %rsi
	movq	%rax, %rdi
	movl	$0, %eax
	call	fprintf@PLT
.L30:
	movzbl	-85(%rbp), %eax
	xorl	$1, %eax
	testb	%al, %al
	je	.L36
	movl	decl_param(%rip), %eax
	cmpl	%eax, -100(%rbp)
	je	.L36
	leaq	.LC15(%rip), %rax
	movq	%rax, %rdi
	call	match
	nop
.L36:
	nop
	leave
	.cfi_def_cfa 7, 8
	ret
	.cfi_endproc
.LFE1:
	.size	decl, .-decl
	.globl	prev_char
	.type	prev_char, @function
prev_char:
.LFB2:
	.cfi_startproc
	endbr64
	pushq	%rbp
	.cfi_def_cfa_offset 16
	.cfi_offset 6, -16
	movq	%rsp, %rbp
	.cfi_def_cfa_register 6
	subq	$48, %rsp
	movl	%edi, %eax
	movb	%al, -36(%rbp)
#APP
# 680 "Fedjmike_mini-c_cc.c" 1
	##_ANNOTATION_INITIALREGION_-TIG-iO-mnVi-1-prev-char--60
# 0 "" 2
# 684 "Fedjmike_mini-c_cc.c" 1
	##_ANNOTATION_ATOMICREGION_-TIG-iO-mnVi-1-prev-char--59
# 0 "" 2
#NO_APP
	movl	$24, %edi
	call	malloc@PLT
	movq	%rax, -24(%rbp)
	movq	-24(%rbp), %rax
	movq	-24(%rbp), %rdx
	movq	%rdx, 8(%rax)
	movq	-24(%rbp), %rax
	movq	-24(%rbp), %rdx
	movq	%rdx, (%rax)
	movq	-24(%rbp), %rax
	movq	%rax, _TIG_iO_mnVi_1_prev_char_1_opaque_list_1(%rip)
	call	rand@PLT
	movl	%eax, -32(%rbp)
	movl	$24, %edi
	call	malloc@PLT
	movq	%rax, -16(%rbp)
	movq	-16(%rbp), %rax
	movl	$0, 16(%rax)
	movq	_TIG_iO_mnVi_1_prev_char_1_opaque_list_1(%rip), %rax
	movq	8(%rax), %rdx
	movq	-16(%rbp), %rax
	movq	%rdx, 8(%rax)
	movq	_TIG_iO_mnVi_1_prev_char_1_opaque_list_1(%rip), %rdx
	movq	-16(%rbp), %rax
	movq	%rdx, (%rax)
	movq	_TIG_iO_mnVi_1_prev_char_1_opaque_list_1(%rip), %rax
	movq	8(%rax), %rax
	movq	-16(%rbp), %rdx
	movq	%rdx, (%rax)
	movq	_TIG_iO_mnVi_1_prev_char_1_opaque_list_1(%rip), %rax
	movq	-16(%rbp), %rdx
	movq	%rdx, 8(%rax)
	call	rand@PLT
	movl	%eax, -28(%rbp)
	movl	$24, %edi
	call	malloc@PLT
	movq	%rax, -8(%rbp)
	movq	-8(%rbp), %rax
	movl	-28(%rbp), %edx
	movl	%edx, 16(%rax)
	movq	_TIG_iO_mnVi_1_prev_char_1_opaque_list_1(%rip), %rax
	movq	8(%rax), %rdx
	movq	-8(%rbp), %rax
	movq	%rdx, 8(%rax)
	movq	_TIG_iO_mnVi_1_prev_char_1_opaque_list_1(%rip), %rdx
	movq	-8(%rbp), %rax
	movq	%rdx, (%rax)
	movq	_TIG_iO_mnVi_1_prev_char_1_opaque_list_1(%rip), %rax
	movq	8(%rax), %rax
	movq	-8(%rbp), %rdx
	movq	%rdx, (%rax)
	movq	_TIG_iO_mnVi_1_prev_char_1_opaque_list_1(%rip), %rax
	movq	-8(%rbp), %rdx
	movq	%rdx, 8(%rax)
	movq	_TIG_iO_mnVi_1_prev_char_1_opaque_list_1(%rip), %rax
	movq	8(%rax), %rax
	movq	%rax, _TIG_iO_mnVi_1_prev_char_1_opaque_ptr_1(%rip)
	movq	_TIG_iO_mnVi_1_prev_char_1_opaque_ptr_1(%rip), %rax
	movq	%rax, _TIG_iO_mnVi_1_prev_char_1_opaque_ptr_2(%rip)
	movq	_TIG_iO_mnVi_1_prev_char_1_opaque_ptr_2(%rip), %rax
	movq	8(%rax), %rax
	movq	%rax, _TIG_iO_mnVi_1_prev_char_1_opaque_ptr_2(%rip)
	nop
	nop
	movq	_TIG_iO_mnVi_1_while_loop_1_opaque_ptr_1(%rip), %rdx
	movq	_TIG_iO_mnVi_1_while_loop_1_opaque_ptr_2(%rip), %rax
	cmpq	%rax, %rdx
	jne	.L38
	movq	input(%rip), %rdx
	movzbl	curch(%rip), %eax
	movsbl	%al, %eax
	movq	%rdx, %rsi
	movl	%eax, %edi
	call	ungetc@PLT
	movzbl	-36(%rbp), %eax
	movb	%al, curch(%rip)
	jmp	.L39
.L38:
#APP
# 47 "Fedjmike_mini-c_cc.c" 1
	.byte 0x12,0xb5
# 0 "" 2
#NO_APP
.L39:
	movl	$0, %eax
	leave
	.cfi_def_cfa 7, 8
	ret
	.cfi_endproc
.LFE2:
	.size	prev_char, .-prev_char
	.section	.rodata
.LC16:
	.string	"cmp eax, 0\nje _%08d\n"
.LC17:
	.string	"jmp _%08d\n"
.LC18:
	.string	"\t_%08d:\n"
.LC19:
	.string	":"
.LC20:
	.string	"else"
	.text
	.globl	branch
	.type	branch, @function
branch:
.LFB3:
	.cfi_startproc
	endbr64
	pushq	%rbp
	.cfi_def_cfa_offset 16
	.cfi_offset 6, -16
	movq	%rsp, %rbp
	.cfi_def_cfa_register 6
	subq	$96, %rsp
	movl	%edi, %eax
	movb	%al, -84(%rbp)
#APP
# 71 "Fedjmike_mini-c_cc.c" 1
	##_ANNOTATION_INITIALREGION_-TIG-iO-mnVi-1-branch--14
# 0 "" 2
# 75 "Fedjmike_mini-c_cc.c" 1
	##_ANNOTATION_ATOMICREGION_-TIG-iO-mnVi-1-branch--13
# 0 "" 2
#NO_APP
	movl	$24, %edi
	call	malloc@PLT
	movq	%rax, -40(%rbp)
	movq	-40(%rbp), %rax
	movq	-40(%rbp), %rdx
	movq	%rdx, (%rax)
	movq	-40(%rbp), %rax
	movq	-40(%rbp), %rdx
	movq	%rdx, 8(%rax)
	movq	-40(%rbp), %rax
	movq	%rax, _TIG_iO_mnVi_1_branch_1_opaque_list_1(%rip)
	call	rand@PLT
	movl	%eax, -72(%rbp)
	movl	$24, %edi
	call	malloc@PLT
	movq	%rax, -32(%rbp)
	movq	-32(%rbp), %rax
	movl	$0, 16(%rax)
	movq	_TIG_iO_mnVi_1_branch_1_opaque_list_1(%rip), %rax
	movq	(%rax), %rdx
	movq	-32(%rbp), %rax
	movq	%rdx, (%rax)
	movq	_TIG_iO_mnVi_1_branch_1_opaque_list_1(%rip), %rdx
	movq	-32(%rbp), %rax
	movq	%rdx, 8(%rax)
	movq	_TIG_iO_mnVi_1_branch_1_opaque_list_1(%rip), %rax
	movq	(%rax), %rax
	movq	-32(%rbp), %rdx
	movq	%rdx, 8(%rax)
	movq	_TIG_iO_mnVi_1_branch_1_opaque_list_1(%rip), %rax
	movq	-32(%rbp), %rdx
	movq	%rdx, (%rax)
	call	rand@PLT
	movl	%eax, -68(%rbp)
	movl	$24, %edi
	call	malloc@PLT
	movq	%rax, -24(%rbp)
	movq	-24(%rbp), %rax
	movl	-68(%rbp), %edx
	movl	%edx, 16(%rax)
	movq	_TIG_iO_mnVi_1_branch_1_opaque_list_1(%rip), %rax
	movq	(%rax), %rdx
	movq	-24(%rbp), %rax
	movq	%rdx, (%rax)
	movq	_TIG_iO_mnVi_1_branch_1_opaque_list_1(%rip), %rdx
	movq	-24(%rbp), %rax
	movq	%rdx, 8(%rax)
	movq	_TIG_iO_mnVi_1_branch_1_opaque_list_1(%rip), %rax
	movq	(%rax), %rax
	movq	-24(%rbp), %rdx
	movq	%rdx, 8(%rax)
	movq	_TIG_iO_mnVi_1_branch_1_opaque_list_1(%rip), %rax
	movq	-24(%rbp), %rdx
	movq	%rdx, (%rax)
	call	rand@PLT
	movl	%eax, -64(%rbp)
	movl	$24, %edi
	call	malloc@PLT
	movq	%rax, -16(%rbp)
	movl	-64(%rbp), %eax
	leal	(%rax,%rax), %edx
	movq	-16(%rbp), %rax
	movl	%edx, 16(%rax)
	movq	_TIG_iO_mnVi_1_branch_1_opaque_list_1(%rip), %rax
	movq	(%rax), %rdx
	movq	-16(%rbp), %rax
	movq	%rdx, (%rax)
	movq	_TIG_iO_mnVi_1_branch_1_opaque_list_1(%rip), %rdx
	movq	-16(%rbp), %rax
	movq	%rdx, 8(%rax)
	movq	_TIG_iO_mnVi_1_branch_1_opaque_list_1(%rip), %rax
	movq	(%rax), %rax
	movq	-16(%rbp), %rdx
	movq	%rdx, 8(%rax)
	movq	_TIG_iO_mnVi_1_branch_1_opaque_list_1(%rip), %rax
	movq	-16(%rbp), %rdx
	movq	%rdx, (%rax)
	call	rand@PLT
	movl	%eax, -60(%rbp)
	movl	$24, %edi
	call	malloc@PLT
	movq	%rax, -8(%rbp)
	movl	-60(%rbp), %edx
	movl	%edx, %eax
	addl	%eax, %eax
	addl	%eax, %edx
	movq	-8(%rbp), %rax
	movl	%edx, 16(%rax)
	movq	_TIG_iO_mnVi_1_branch_1_opaque_list_1(%rip), %rax
	movq	(%rax), %rdx
	movq	-8(%rbp), %rax
	movq	%rdx, (%rax)
	movq	_TIG_iO_mnVi_1_branch_1_opaque_list_1(%rip), %rdx
	movq	-8(%rbp), %rax
	movq	%rdx, 8(%rax)
	movq	_TIG_iO_mnVi_1_branch_1_opaque_list_1(%rip), %rax
	movq	(%rax), %rax
	movq	-8(%rbp), %rdx
	movq	%rdx, 8(%rax)
	movq	_TIG_iO_mnVi_1_branch_1_opaque_list_1(%rip), %rax
	movq	-8(%rbp), %rdx
	movq	%rdx, (%rax)
	movq	_TIG_iO_mnVi_1_branch_1_opaque_list_1(%rip), %rax
	movq	(%rax), %rax
	movq	%rax, _TIG_iO_mnVi_1_branch_1_opaque_ptr_1(%rip)
	movq	_TIG_iO_mnVi_1_branch_1_opaque_ptr_1(%rip), %rax
	movq	%rax, _TIG_iO_mnVi_1_branch_1_opaque_ptr_2(%rip)
	movq	_TIG_iO_mnVi_1_branch_1_opaque_ptr_2(%rip), %rax
	movq	(%rax), %rax
	movq	%rax, _TIG_iO_mnVi_1_branch_1_opaque_ptr_2(%rip)
	nop
	nop
	call	new_label
	movl	%eax, -56(%rbp)
	movl	-56(%rbp), %eax
	movl	%eax, -52(%rbp)
	call	new_label
	movl	%eax, -48(%rbp)
	movl	-48(%rbp), %eax
	movl	%eax, -44(%rbp)
	movq	output(%rip), %rax
	movl	-52(%rbp), %edx
	leaq	.LC16(%rip), %rcx
	movq	%rcx, %rsi
	movq	%rax, %rdi
	movl	$0, %eax
	call	fprintf@PLT
	cmpb	$0, -84(%rbp)
	je	.L42
	movl	$1, %edi
	call	expr
	jmp	.L43
.L42:
	call	line
.L43:
	movq	output(%rip), %rax
	movl	-44(%rbp), %edx
	leaq	.LC17(%rip), %rcx
	movq	%rcx, %rsi
	movq	%rax, %rdi
	movl	$0, %eax
	call	fprintf@PLT
	movq	output(%rip), %rax
	movl	-52(%rbp), %edx
	leaq	.LC18(%rip), %rcx
	movq	%rcx, %rsi
	movq	%rax, %rdi
	movl	$0, %eax
	call	fprintf@PLT
	cmpb	$0, -84(%rbp)
	je	.L44
	leaq	.LC19(%rip), %rax
	movq	%rax, %rdi
	call	match
	movl	$1, %edi
	call	expr
	jmp	.L45
.L44:
	leaq	.LC20(%rip), %rax
	movq	%rax, %rdi
	call	try_match
	movb	%al, -73(%rbp)
	cmpb	$0, -73(%rbp)
	je	.L45
	call	line
.L45:
	movq	output(%rip), %rax
	movl	-44(%rbp), %edx
	leaq	.LC18(%rip), %rcx
	movq	%rcx, %rsi
	movq	%rax, %rdi
	movl	$0, %eax
	call	fprintf@PLT
	movq	_TIG_iO_mnVi_1_while_loop_1_opaque_ptr_1(%rip), %rdx
	movq	_TIG_iO_mnVi_1_while_loop_1_opaque_ptr_2(%rip), %rax
	cmpq	%rax, %rdx
	leave
	.cfi_def_cfa 7, 8
	ret
	.cfi_endproc
.LFE3:
	.size	branch, .-branch
	.globl	next
	.type	next, @function
next:
.LFB4:
	.cfi_startproc
	endbr64
	pushq	%rbp
	.cfi_def_cfa_offset 16
	.cfi_offset 6, -16
	movq	%rsp, %rbp
	.cfi_def_cfa_register 6
	subq	$144, %rsp
#APP
# 524 "Fedjmike_mini-c_cc.c" 1
	##_ANNOTATION_INITIALREGION_-TIG-iO-mnVi-1-next--54
# 0 "" 2
# 528 "Fedjmike_mini-c_cc.c" 1
	##_ANNOTATION_ATOMICREGION_-TIG-iO-mnVi-1-next--53
# 0 "" 2
#NO_APP
	movl	$24, %edi
	call	malloc@PLT
	movq	%rax, -80(%rbp)
	movq	-80(%rbp), %rax
	movq	-80(%rbp), %rdx
	movq	%rdx, (%rax)
	movq	-80(%rbp), %rax
	movq	-80(%rbp), %rdx
	movq	%rdx, 16(%rax)
	movq	-80(%rbp), %rax
	movq	%rax, _TIG_iO_mnVi_1_next_1_opaque_list_1(%rip)
	call	rand@PLT
	movl	%eax, -116(%rbp)
	movl	$24, %edi
	call	malloc@PLT
	movq	%rax, -72(%rbp)
	movq	-72(%rbp), %rax
	movl	$0, 8(%rax)
	movq	_TIG_iO_mnVi_1_next_1_opaque_list_1(%rip), %rax
	movq	(%rax), %rdx
	movq	-72(%rbp), %rax
	movq	%rdx, (%rax)
	movq	_TIG_iO_mnVi_1_next_1_opaque_list_1(%rip), %rdx
	movq	-72(%rbp), %rax
	movq	%rdx, 16(%rax)
	movq	_TIG_iO_mnVi_1_next_1_opaque_list_1(%rip), %rax
	movq	(%rax), %rax
	movq	-72(%rbp), %rdx
	movq	%rdx, 16(%rax)
	movq	_TIG_iO_mnVi_1_next_1_opaque_list_1(%rip), %rax
	movq	-72(%rbp), %rdx
	movq	%rdx, (%rax)
	call	rand@PLT
	movl	%eax, -112(%rbp)
	movl	$24, %edi
	call	malloc@PLT
	movq	%rax, -64(%rbp)
	movq	-64(%rbp), %rax
	movl	-112(%rbp), %edx
	movl	%edx, 8(%rax)
	movq	_TIG_iO_mnVi_1_next_1_opaque_list_1(%rip), %rax
	movq	(%rax), %rdx
	movq	-64(%rbp), %rax
	movq	%rdx, (%rax)
	movq	_TIG_iO_mnVi_1_next_1_opaque_list_1(%rip), %rdx
	movq	-64(%rbp), %rax
	movq	%rdx, 16(%rax)
	movq	_TIG_iO_mnVi_1_next_1_opaque_list_1(%rip), %rax
	movq	(%rax), %rax
	movq	-64(%rbp), %rdx
	movq	%rdx, 16(%rax)
	movq	_TIG_iO_mnVi_1_next_1_opaque_list_1(%rip), %rax
	movq	-64(%rbp), %rdx
	movq	%rdx, (%rax)
	call	rand@PLT
	movl	%eax, -108(%rbp)
	movl	$24, %edi
	call	malloc@PLT
	movq	%rax, -56(%rbp)
	movl	-108(%rbp), %eax
	leal	(%rax,%rax), %edx
	movq	-56(%rbp), %rax
	movl	%edx, 8(%rax)
	movq	_TIG_iO_mnVi_1_next_1_opaque_list_1(%rip), %rax
	movq	(%rax), %rdx
	movq	-56(%rbp), %rax
	movq	%rdx, (%rax)
	movq	_TIG_iO_mnVi_1_next_1_opaque_list_1(%rip), %rdx
	movq	-56(%rbp), %rax
	movq	%rdx, 16(%rax)
	movq	_TIG_iO_mnVi_1_next_1_opaque_list_1(%rip), %rax
	movq	(%rax), %rax
	movq	-56(%rbp), %rdx
	movq	%rdx, 16(%rax)
	movq	_TIG_iO_mnVi_1_next_1_opaque_list_1(%rip), %rax
	movq	-56(%rbp), %rdx
	movq	%rdx, (%rax)
	call	rand@PLT
	movl	%eax, -104(%rbp)
	movl	$24, %edi
	call	malloc@PLT
	movq	%rax, -48(%rbp)
	movl	-104(%rbp), %edx
	movl	%edx, %eax
	addl	%eax, %eax
	addl	%eax, %edx
	movq	-48(%rbp), %rax
	movl	%edx, 8(%rax)
	movq	_TIG_iO_mnVi_1_next_1_opaque_list_1(%rip), %rax
	movq	(%rax), %rdx
	movq	-48(%rbp), %rax
	movq	%rdx, (%rax)
	movq	_TIG_iO_mnVi_1_next_1_opaque_list_1(%rip), %rdx
	movq	-48(%rbp), %rax
	movq	%rdx, 16(%rax)
	movq	_TIG_iO_mnVi_1_next_1_opaque_list_1(%rip), %rax
	movq	(%rax), %rax
	movq	-48(%rbp), %rdx
	movq	%rdx, 16(%rax)
	movq	_TIG_iO_mnVi_1_next_1_opaque_list_1(%rip), %rax
	movq	-48(%rbp), %rdx
	movq	%rdx, (%rax)
	movq	_TIG_iO_mnVi_1_next_1_opaque_list_1(%rip), %rax
	movq	(%rax), %rax
	movq	%rax, _TIG_iO_mnVi_1_next_1_opaque_ptr_1(%rip)
	movq	_TIG_iO_mnVi_1_next_1_opaque_ptr_1(%rip), %rax
	movq	%rax, _TIG_iO_mnVi_1_next_1_opaque_ptr_2(%rip)
	movq	_TIG_iO_mnVi_1_next_1_opaque_ptr_2(%rip), %rax
	movq	(%rax), %rax
	movq	%rax, _TIG_iO_mnVi_1_next_1_opaque_ptr_2(%rip)
	nop
	nop
.L50:
	movzbl	curch(%rip), %eax
	cmpb	$32, %al
	je	.L48
	movzbl	curch(%rip), %eax
	cmpb	$13, %al
	je	.L48
	movzbl	curch(%rip), %eax
	cmpb	$10, %al
	je	.L48
	movzbl	curch(%rip), %eax
	cmpb	$9, %al
	jne	.L104
.L48:
	call	next_char
	jmp	.L50
.L104:
	nop
	movzbl	curch(%rip), %eax
	cmpb	$35, %al
	je	.L105
	movzbl	curch(%rip), %eax
	cmpb	$47, %al
	jne	.L53
	movq	_TIG_iO_mnVi_1_while_loop_1_opaque_ptr_1(%rip), %rdx
	movq	_TIG_iO_mnVi_1_while_loop_1_opaque_ptr_2(%rip), %rax
	cmpq	%rax, %rdx
	je	.L54
#APP
# 65 "Fedjmike_mini-c_cc.c" 1
	.byte 0x83,0xc1,0x68,0x48,0x89,0xf7,0x48
# 0 "" 2
#NO_APP
	jmp	.L55
.L54:
	call	next_char
	movb	%al, -131(%rbp)
.L55:
	cmpb	$47, -131(%rbp)
	je	.L106
	movl	$47, %edi
	call	prev_char
	movb	%al, -130(%rbp)
	cmpb	$0, -130(%rbp)
	je	.L53
	jmp	.L61
.L52:
.L105:
	nop
	jmp	.L61
.L106:
	nop
.L57:
.L61:
	movzbl	curch(%rip), %eax
	cmpb	$10, %al
	je	.L107
	movq	input(%rip), %rax
	movq	%rax, %rdi
	call	feof@PLT
	movl	%eax, -84(%rbp)
	cmpl	$0, -84(%rbp)
	jne	.L108
	call	next_char
	jmp	.L61
.L107:
	nop
	jmp	.L60
.L108:
	nop
.L60:
	call	next
	jmp	.L47
.L53:
	movl	$0, buflength(%rip)
	movl	token_other(%rip), %eax
	movl	%eax, token(%rip)
	call	__ctype_b_loc@PLT
	movq	%rax, -40(%rbp)
	movq	-40(%rbp), %rax
	movq	(%rax), %rdx
	movzbl	curch(%rip), %eax
	movsbq	%al, %rax
	addq	%rax, %rax
	addq	%rdx, %rax
	movzwl	(%rax), %eax
	movzwl	%ax, %eax
	andl	$1024, %eax
	testl	%eax, %eax
	jne	.L109
	call	__ctype_b_loc@PLT
	movq	%rax, -32(%rbp)
	movq	-32(%rbp), %rax
	movq	(%rax), %rdx
	movzbl	curch(%rip), %eax
	movsbq	%al, %rax
	addq	%rax, %rax
	addq	%rdx, %rax
	movzwl	(%rax), %eax
	movzwl	%ax, %eax
	andl	$2048, %eax
	testl	%eax, %eax
	je	.L65
	jmp	.L64
.L109:
	nop
.L64:
	call	__ctype_b_loc@PLT
	movq	%rax, -24(%rbp)
	movq	-24(%rbp), %rax
	movq	(%rax), %rdx
	movzbl	curch(%rip), %eax
	movsbq	%al, %rax
	addq	%rax, %rax
	addq	%rdx, %rax
	movzwl	(%rax), %eax
	movzwl	%ax, %eax
	andl	$1024, %eax
	testl	%eax, %eax
	je	.L66
	movl	token_ident(%rip), %eax
	movl	%eax, token(%rip)
	jmp	.L80
.L66:
	movl	token_int(%rip), %eax
	movl	%eax, token(%rip)
.L80:
	movl	token(%rip), %edx
	movl	token_ident(%rip), %eax
	cmpl	%eax, %edx
	jne	.L68
	call	__ctype_b_loc@PLT
	movq	%rax, -8(%rbp)
	movq	-8(%rbp), %rax
	movq	(%rax), %rdx
	movzbl	curch(%rip), %eax
	movsbq	%al, %rax
	addq	%rax, %rax
	addq	%rdx, %rax
	movzwl	(%rax), %eax
	movzwl	%ax, %eax
	andl	$8, %eax
	testl	%eax, %eax
	jne	.L110
	movzbl	curch(%rip), %eax
	cmpb	$95, %al
	jne	.L71
	jmp	.L70
.L110:
	nop
.L70:
	movq	input(%rip), %rax
	movq	%rax, %rdi
	call	feof@PLT
	movl	%eax, -92(%rbp)
	cmpl	$0, -92(%rbp)
	je	.L72
	movl	$0, -128(%rbp)
	jmp	.L73
.L72:
	movl	$1, -128(%rbp)
	jmp	.L73
.L71:
	movl	$0, -128(%rbp)
.L73:
	movl	-128(%rbp), %eax
	movl	%eax, -120(%rbp)
	jmp	.L74
.L68:
	call	__ctype_b_loc@PLT
	movq	%rax, -16(%rbp)
	movq	-16(%rbp), %rax
	movq	(%rax), %rdx
	movzbl	curch(%rip), %eax
	movsbq	%al, %rax
	addq	%rax, %rax
	addq	%rdx, %rax
	movzwl	(%rax), %eax
	movzwl	%ax, %eax
	andl	$2048, %eax
	testl	%eax, %eax
	je	.L75
	movq	input(%rip), %rax
	movq	%rax, %rdi
	call	feof@PLT
	movl	%eax, -96(%rbp)
	cmpl	$0, -96(%rbp)
	je	.L76
	movl	$0, -124(%rbp)
	jmp	.L77
.L76:
	movl	$1, -124(%rbp)
	jmp	.L77
.L75:
	movl	$0, -124(%rbp)
.L77:
	movl	-124(%rbp), %eax
	movl	%eax, -120(%rbp)
.L74:
	cmpl	$0, -120(%rbp)
	je	.L111
	call	eat_char
	jmp	.L80
.L65:
	movzbl	curch(%rip), %eax
	cmpb	$39, %al
	je	.L112
	movzbl	curch(%rip), %eax
	cmpb	$34, %al
	jne	.L84
	jmp	.L83
.L112:
	nop
.L83:
	movzbl	curch(%rip), %eax
	cmpb	$34, %al
	jne	.L85
	movl	token_str(%rip), %eax
	movl	%eax, token(%rip)
	jmp	.L86
.L85:
	movl	token_char(%rip), %eax
	movl	%eax, token(%rip)
.L86:
	movzbl	curch(%rip), %eax
	movb	%al, -129(%rbp)
	call	eat_char
.L91:
	movzbl	curch(%rip), %eax
	cmpb	%al, -129(%rbp)
	je	.L113
	movq	input(%rip), %rax
	movq	%rax, %rdi
	call	feof@PLT
	movl	%eax, -100(%rbp)
	cmpl	$0, -100(%rbp)
	jne	.L114
	movzbl	curch(%rip), %eax
	cmpb	$92, %al
	jne	.L90
	call	eat_char
.L90:
	call	eat_char
	jmp	.L91
.L113:
	nop
	jmp	.L89
.L114:
	nop
.L89:
	call	eat_char
	jmp	.L81
.L84:
	movzbl	curch(%rip), %eax
	cmpb	$43, %al
	je	.L115
	movzbl	curch(%rip), %eax
	cmpb	$45, %al
	je	.L116
	movzbl	curch(%rip), %eax
	cmpb	$124, %al
	je	.L117
	movzbl	curch(%rip), %eax
	cmpb	$38, %al
	je	.L118
	movzbl	curch(%rip), %eax
	cmpb	$61, %al
	je	.L119
	movzbl	curch(%rip), %eax
	cmpb	$33, %al
	je	.L120
	movzbl	curch(%rip), %eax
	cmpb	$62, %al
	je	.L121
	movzbl	curch(%rip), %eax
	cmpb	$60, %al
	jne	.L100
	jmp	.L93
.L115:
	nop
	jmp	.L93
.L116:
	nop
	jmp	.L93
.L117:
	nop
	jmp	.L93
.L118:
	nop
	jmp	.L93
.L119:
	nop
	jmp	.L93
.L120:
	nop
	jmp	.L93
.L121:
	nop
.L93:
	call	eat_char
	movq	buffer(%rip), %rax
	movzbl	(%rax), %edx
	movzbl	curch(%rip), %eax
	cmpb	%al, %dl
	jne	.L122
	movzbl	curch(%rip), %eax
	cmpb	$33, %al
	je	.L123
	call	eat_char
	jmp	.L81
.L122:
	nop
	jmp	.L101
.L123:
	nop
.L101:
	movzbl	curch(%rip), %eax
	cmpb	$61, %al
	jne	.L81
	call	eat_char
	jmp	.L81
.L100:
	call	eat_char
	jmp	.L81
.L111:
	nop
.L81:
	movl	buflength(%rip), %eax
	movl	%eax, -88(%rbp)
	movl	buflength(%rip), %eax
	addl	$1, %eax
	movl	%eax, buflength(%rip)
	movq	buffer(%rip), %rdx
	movl	-88(%rbp), %eax
	cltq
	addq	%rdx, %rax
	movb	$0, (%rax)
	nop
.L47:
	leave
	.cfi_def_cfa 7, 8
	ret
	.cfi_endproc
.LFE4:
	.size	next, .-next
	.globl	eat_char
	.type	eat_char, @function
eat_char:
.LFB5:
	.cfi_startproc
	endbr64
	pushq	%rbp
	.cfi_def_cfa_offset 16
	.cfi_offset 6, -16
	movq	%rsp, %rbp
	.cfi_def_cfa_register 6
	subq	$48, %rsp
#APP
# 128 "Fedjmike_mini-c_cc.c" 1
	##_ANNOTATION_INITIALREGION_-TIG-iO-mnVi-1-eat-char--18
# 0 "" 2
# 132 "Fedjmike_mini-c_cc.c" 1
	##_ANNOTATION_ATOMICREGION_-TIG-iO-mnVi-1-eat-char--17
# 0 "" 2
#NO_APP
	movl	$24, %edi
	call	malloc@PLT
	movq	%rax, -24(%rbp)
	movq	-24(%rbp), %rax
	movq	-24(%rbp), %rdx
	movq	%rdx, 8(%rax)
	movq	-24(%rbp), %rax
	movq	-24(%rbp), %rdx
	movq	%rdx, (%rax)
	movq	-24(%rbp), %rax
	movq	%rax, _TIG_iO_mnVi_1_eat_char_1_opaque_list_1(%rip)
	call	rand@PLT
	movl	%eax, -36(%rbp)
	movl	$24, %edi
	call	malloc@PLT
	movq	%rax, -16(%rbp)
	movq	-16(%rbp), %rax
	movl	$0, 16(%rax)
	movq	_TIG_iO_mnVi_1_eat_char_1_opaque_list_1(%rip), %rax
	movq	8(%rax), %rdx
	movq	-16(%rbp), %rax
	movq	%rdx, 8(%rax)
	movq	_TIG_iO_mnVi_1_eat_char_1_opaque_list_1(%rip), %rdx
	movq	-16(%rbp), %rax
	movq	%rdx, (%rax)
	movq	_TIG_iO_mnVi_1_eat_char_1_opaque_list_1(%rip), %rax
	movq	8(%rax), %rax
	movq	-16(%rbp), %rdx
	movq	%rdx, (%rax)
	movq	_TIG_iO_mnVi_1_eat_char_1_opaque_list_1(%rip), %rax
	movq	-16(%rbp), %rdx
	movq	%rdx, 8(%rax)
	call	rand@PLT
	movl	%eax, -32(%rbp)
	movl	$24, %edi
	call	malloc@PLT
	movq	%rax, -8(%rbp)
	movq	-8(%rbp), %rax
	movl	-32(%rbp), %edx
	movl	%edx, 16(%rax)
	movq	_TIG_iO_mnVi_1_eat_char_1_opaque_list_1(%rip), %rax
	movq	8(%rax), %rdx
	movq	-8(%rbp), %rax
	movq	%rdx, 8(%rax)
	movq	_TIG_iO_mnVi_1_eat_char_1_opaque_list_1(%rip), %rdx
	movq	-8(%rbp), %rax
	movq	%rdx, (%rax)
	movq	_TIG_iO_mnVi_1_eat_char_1_opaque_list_1(%rip), %rax
	movq	8(%rax), %rax
	movq	-8(%rbp), %rdx
	movq	%rdx, (%rax)
	movq	_TIG_iO_mnVi_1_eat_char_1_opaque_list_1(%rip), %rax
	movq	-8(%rbp), %rdx
	movq	%rdx, 8(%rax)
	movq	_TIG_iO_mnVi_1_eat_char_1_opaque_list_1(%rip), %rax
	movq	8(%rax), %rax
	movq	%rax, _TIG_iO_mnVi_1_eat_char_1_opaque_ptr_1(%rip)
	movq	_TIG_iO_mnVi_1_eat_char_1_opaque_ptr_1(%rip), %rax
	movq	%rax, _TIG_iO_mnVi_1_eat_char_1_opaque_ptr_2(%rip)
	movq	_TIG_iO_mnVi_1_eat_char_1_opaque_ptr_2(%rip), %rax
	movq	8(%rax), %rax
	movq	%rax, _TIG_iO_mnVi_1_eat_char_1_opaque_ptr_2(%rip)
	nop
	nop
	movq	_TIG_iO_mnVi_1_while_loop_1_opaque_ptr_1(%rip), %rdx
	movq	_TIG_iO_mnVi_1_while_loop_1_opaque_ptr_2(%rip), %rax
	cmpq	%rax, %rdx
	jne	.L127
	movl	buflength(%rip), %eax
	movl	%eax, -28(%rbp)
	movl	buflength(%rip), %eax
	addl	$1, %eax
	movl	%eax, buflength(%rip)
	movq	buffer(%rip), %rdx
	movl	-28(%rbp), %eax
	cltq
	addq	%rax, %rdx
	movzbl	curch(%rip), %eax
	movb	%al, (%rdx)
	call	next_char
	nop
.L127:
	nop
	leave
	.cfi_def_cfa 7, 8
	ret
	.cfi_endproc
.LFE5:
	.size	eat_char, .-eat_char
	.globl	needs_lvalue
	.type	needs_lvalue, @function
needs_lvalue:
.LFB6:
	.cfi_startproc
	endbr64
	pushq	%rbp
	.cfi_def_cfa_offset 16
	.cfi_offset 6, -16
	movq	%rsp, %rbp
	.cfi_def_cfa_register 6
	subq	$48, %rsp
	movq	%rdi, -40(%rbp)
#APP
# 70 "Fedjmike_mini-c_cc.c" 1
	##_ANNOTATION_INITIALREGION_-TIG-iO-mnVi-1-needs-lvalue--40
# 0 "" 2
# 74 "Fedjmike_mini-c_cc.c" 1
	##_ANNOTATION_ATOMICREGION_-TIG-iO-mnVi-1-needs-lvalue--39
# 0 "" 2
#NO_APP
	movl	$24, %edi
	call	malloc@PLT
	movq	%rax, -24(%rbp)
	movq	-24(%rbp), %rax
	movq	-24(%rbp), %rdx
	movq	%rdx, 16(%rax)
	movq	-24(%rbp), %rax
	movq	-24(%rbp), %rdx
	movq	%rdx, 8(%rax)
	movq	-24(%rbp), %rax
	movq	%rax, _TIG_iO_mnVi_1_needs_lvalue_1_opaque_list_1(%rip)
	call	rand@PLT
	movl	%eax, -32(%rbp)
	movl	$24, %edi
	call	malloc@PLT
	movq	%rax, -16(%rbp)
	movq	-16(%rbp), %rax
	movl	$0, (%rax)
	movq	_TIG_iO_mnVi_1_needs_lvalue_1_opaque_list_1(%rip), %rax
	movq	16(%rax), %rdx
	movq	-16(%rbp), %rax
	movq	%rdx, 16(%rax)
	movq	_TIG_iO_mnVi_1_needs_lvalue_1_opaque_list_1(%rip), %rdx
	movq	-16(%rbp), %rax
	movq	%rdx, 8(%rax)
	movq	_TIG_iO_mnVi_1_needs_lvalue_1_opaque_list_1(%rip), %rax
	movq	16(%rax), %rax
	movq	-16(%rbp), %rdx
	movq	%rdx, 8(%rax)
	movq	_TIG_iO_mnVi_1_needs_lvalue_1_opaque_list_1(%rip), %rax
	movq	-16(%rbp), %rdx
	movq	%rdx, 16(%rax)
	call	rand@PLT
	movl	%eax, -28(%rbp)
	movl	$24, %edi
	call	malloc@PLT
	movq	%rax, -8(%rbp)
	movq	-8(%rbp), %rax
	movl	-28(%rbp), %edx
	movl	%edx, (%rax)
	movq	_TIG_iO_mnVi_1_needs_lvalue_1_opaque_list_1(%rip), %rax
	movq	16(%rax), %rdx
	movq	-8(%rbp), %rax
	movq	%rdx, 16(%rax)
	movq	_TIG_iO_mnVi_1_needs_lvalue_1_opaque_list_1(%rip), %rdx
	movq	-8(%rbp), %rax
	movq	%rdx, 8(%rax)
	movq	_TIG_iO_mnVi_1_needs_lvalue_1_opaque_list_1(%rip), %rax
	movq	16(%rax), %rax
	movq	-8(%rbp), %rdx
	movq	%rdx, 8(%rax)
	movq	_TIG_iO_mnVi_1_needs_lvalue_1_opaque_list_1(%rip), %rax
	movq	-8(%rbp), %rdx
	movq	%rdx, 16(%rax)
	movq	_TIG_iO_mnVi_1_needs_lvalue_1_opaque_list_1(%rip), %rax
	movq	16(%rax), %rax
	movq	%rax, _TIG_iO_mnVi_1_needs_lvalue_1_opaque_ptr_1(%rip)
	movq	_TIG_iO_mnVi_1_needs_lvalue_1_opaque_ptr_1(%rip), %rax
	movq	%rax, _TIG_iO_mnVi_1_needs_lvalue_1_opaque_ptr_2(%rip)
	nop
	nop
	movzbl	lvalue(%rip), %eax
	xorl	$1, %eax
	testb	%al, %al
	je	.L129
	movq	-40(%rbp), %rax
	movq	%rax, %rdi
	call	error
.L129:
	movq	_TIG_iO_mnVi_1_while_loop_1_opaque_ptr_1(%rip), %rdx
	movq	_TIG_iO_mnVi_1_while_loop_1_opaque_ptr_2(%rip), %rax
	cmpq	%rax, %rdx
	jne	.L132
	movb	$0, lvalue(%rip)
	nop
.L132:
	nop
	leave
	.cfi_def_cfa 7, 8
	ret
	.cfi_endproc
.LFE6:
	.size	needs_lvalue, .-needs_lvalue
	.globl	new_scope
	.type	new_scope, @function
new_scope:
.LFB7:
	.cfi_startproc
	endbr64
	pushq	%rbp
	.cfi_def_cfa_offset 16
	.cfi_offset 6, -16
	movq	%rsp, %rbp
	.cfi_def_cfa_register 6
	subq	$64, %rsp
#APP
# 275 "Fedjmike_mini-c_cc.c" 1
	##_ANNOTATION_INITIALREGION_-TIG-iO-mnVi-1-new-scope--52
# 0 "" 2
# 279 "Fedjmike_mini-c_cc.c" 1
	##_ANNOTATION_ATOMICREGION_-TIG-iO-mnVi-1-new-scope--51
# 0 "" 2
#NO_APP
	movl	$24, %edi
	call	malloc@PLT
	movq	%rax, -40(%rbp)
	movq	-40(%rbp), %rax
	movq	-40(%rbp), %rdx
	movq	%rdx, (%rax)
	movq	-40(%rbp), %rax
	movq	-40(%rbp), %rdx
	movq	%rdx, 16(%rax)
	movq	-40(%rbp), %rax
	movq	%rax, _TIG_iO_mnVi_1_new_scope_1_opaque_list_1(%rip)
	call	rand@PLT
	movl	%eax, -56(%rbp)
	movl	$24, %edi
	call	malloc@PLT
	movq	%rax, -32(%rbp)
	movq	-32(%rbp), %rax
	movl	$0, 8(%rax)
	movq	_TIG_iO_mnVi_1_new_scope_1_opaque_list_1(%rip), %rax
	movq	(%rax), %rdx
	movq	-32(%rbp), %rax
	movq	%rdx, (%rax)
	movq	_TIG_iO_mnVi_1_new_scope_1_opaque_list_1(%rip), %rdx
	movq	-32(%rbp), %rax
	movq	%rdx, 16(%rax)
	movq	_TIG_iO_mnVi_1_new_scope_1_opaque_list_1(%rip), %rax
	movq	(%rax), %rax
	movq	-32(%rbp), %rdx
	movq	%rdx, 16(%rax)
	movq	_TIG_iO_mnVi_1_new_scope_1_opaque_list_1(%rip), %rax
	movq	-32(%rbp), %rdx
	movq	%rdx, (%rax)
	call	rand@PLT
	movl	%eax, -52(%rbp)
	movl	$24, %edi
	call	malloc@PLT
	movq	%rax, -24(%rbp)
	movq	-24(%rbp), %rax
	movl	-52(%rbp), %edx
	movl	%edx, 8(%rax)
	movq	_TIG_iO_mnVi_1_new_scope_1_opaque_list_1(%rip), %rax
	movq	(%rax), %rdx
	movq	-24(%rbp), %rax
	movq	%rdx, (%rax)
	movq	_TIG_iO_mnVi_1_new_scope_1_opaque_list_1(%rip), %rdx
	movq	-24(%rbp), %rax
	movq	%rdx, 16(%rax)
	movq	_TIG_iO_mnVi_1_new_scope_1_opaque_list_1(%rip), %rax
	movq	(%rax), %rax
	movq	-24(%rbp), %rdx
	movq	%rdx, 16(%rax)
	movq	_TIG_iO_mnVi_1_new_scope_1_opaque_list_1(%rip), %rax
	movq	-24(%rbp), %rdx
	movq	%rdx, (%rax)
	call	rand@PLT
	movl	%eax, -48(%rbp)
	movl	$24, %edi
	call	malloc@PLT
	movq	%rax, -16(%rbp)
	movl	-48(%rbp), %eax
	leal	(%rax,%rax), %edx
	movq	-16(%rbp), %rax
	movl	%edx, 8(%rax)
	movq	_TIG_iO_mnVi_1_new_scope_1_opaque_list_1(%rip), %rax
	movq	(%rax), %rdx
	movq	-16(%rbp), %rax
	movq	%rdx, (%rax)
	movq	_TIG_iO_mnVi_1_new_scope_1_opaque_list_1(%rip), %rdx
	movq	-16(%rbp), %rax
	movq	%rdx, 16(%rax)
	movq	_TIG_iO_mnVi_1_new_scope_1_opaque_list_1(%rip), %rax
	movq	(%rax), %rax
	movq	-16(%rbp), %rdx
	movq	%rdx, 16(%rax)
	movq	_TIG_iO_mnVi_1_new_scope_1_opaque_list_1(%rip), %rax
	movq	-16(%rbp), %rdx
	movq	%rdx, (%rax)
	call	rand@PLT
	movl	%eax, -44(%rbp)
	movl	$24, %edi
	call	malloc@PLT
	movq	%rax, -8(%rbp)
	movl	-44(%rbp), %edx
	movl	%edx, %eax
	addl	%eax, %eax
	addl	%eax, %edx
	movq	-8(%rbp), %rax
	movl	%edx, 8(%rax)
	movq	_TIG_iO_mnVi_1_new_scope_1_opaque_list_1(%rip), %rax
	movq	(%rax), %rdx
	movq	-8(%rbp), %rax
	movq	%rdx, (%rax)
	movq	_TIG_iO_mnVi_1_new_scope_1_opaque_list_1(%rip), %rdx
	movq	-8(%rbp), %rax
	movq	%rdx, 16(%rax)
	movq	_TIG_iO_mnVi_1_new_scope_1_opaque_list_1(%rip), %rax
	movq	(%rax), %rax
	movq	-8(%rbp), %rdx
	movq	%rdx, 16(%rax)
	movq	_TIG_iO_mnVi_1_new_scope_1_opaque_list_1(%rip), %rax
	movq	-8(%rbp), %rdx
	movq	%rdx, (%rax)
	movq	_TIG_iO_mnVi_1_new_scope_1_opaque_list_1(%rip), %rax
	movq	(%rax), %rax
	movq	%rax, _TIG_iO_mnVi_1_new_scope_1_opaque_ptr_1(%rip)
	movq	_TIG_iO_mnVi_1_new_scope_1_opaque_ptr_1(%rip), %rax
	movq	%rax, _TIG_iO_mnVi_1_new_scope_1_opaque_ptr_2(%rip)
	nop
	nop
	movq	_TIG_iO_mnVi_1_while_loop_1_opaque_ptr_1(%rip), %rdx
	movq	_TIG_iO_mnVi_1_while_loop_1_opaque_ptr_2(%rip), %rax
	cmpq	%rax, %rdx
	jne	.L134
	movl	$0, local_no(%rip)
	movl	$0, param_no(%rip)
	jmp	.L133
.L134:
#APP
# 219 "Fedjmike_mini-c_cc.c" 1
	.byte 0x32,0x0,0x0
# 0 "" 2
#NO_APP
	nop
.L133:
	leave
	.cfi_def_cfa 7, 8
	ret
	.cfi_endproc
.LFE7:
	.size	new_scope, .-new_scope
	.globl	new_global
	.type	new_global, @function
new_global:
.LFB8:
	.cfi_startproc
	endbr64
	pushq	%rbp
	.cfi_def_cfa_offset 16
	.cfi_offset 6, -16
	movq	%rsp, %rbp
	.cfi_def_cfa_register 6
	subq	$80, %rsp
	movq	%rdi, -72(%rbp)
#APP
# 239 "Fedjmike_mini-c_cc.c" 1
	##_ANNOTATION_INITIALREGION_-TIG-iO-mnVi-1-new-global--44
# 0 "" 2
# 243 "Fedjmike_mini-c_cc.c" 1
	##_ANNOTATION_ATOMICREGION_-TIG-iO-mnVi-1-new-global--43
# 0 "" 2
#NO_APP
	movl	$24, %edi
	call	malloc@PLT
	movq	%rax, -40(%rbp)
	movq	-40(%rbp), %rax
	movq	-40(%rbp), %rdx
	movq	%rdx, (%rax)
	movq	-40(%rbp), %rax
	movq	-40(%rbp), %rdx
	movq	%rdx, 16(%rax)
	movq	-40(%rbp), %rax
	movq	%rax, _TIG_iO_mnVi_1_new_global_1_opaque_list_1(%rip)
	call	rand@PLT
	movl	%eax, -60(%rbp)
	movl	$24, %edi
	call	malloc@PLT
	movq	%rax, -32(%rbp)
	movq	-32(%rbp), %rax
	movl	$0, 8(%rax)
	movq	_TIG_iO_mnVi_1_new_global_1_opaque_list_1(%rip), %rax
	movq	(%rax), %rdx
	movq	-32(%rbp), %rax
	movq	%rdx, (%rax)
	movq	_TIG_iO_mnVi_1_new_global_1_opaque_list_1(%rip), %rdx
	movq	-32(%rbp), %rax
	movq	%rdx, 16(%rax)
	movq	_TIG_iO_mnVi_1_new_global_1_opaque_list_1(%rip), %rax
	movq	(%rax), %rax
	movq	-32(%rbp), %rdx
	movq	%rdx, 16(%rax)
	movq	_TIG_iO_mnVi_1_new_global_1_opaque_list_1(%rip), %rax
	movq	-32(%rbp), %rdx
	movq	%rdx, (%rax)
	call	rand@PLT
	movl	%eax, -56(%rbp)
	movl	$24, %edi
	call	malloc@PLT
	movq	%rax, -24(%rbp)
	movq	-24(%rbp), %rax
	movl	-56(%rbp), %edx
	movl	%edx, 8(%rax)
	movq	_TIG_iO_mnVi_1_new_global_1_opaque_list_1(%rip), %rax
	movq	(%rax), %rdx
	movq	-24(%rbp), %rax
	movq	%rdx, (%rax)
	movq	_TIG_iO_mnVi_1_new_global_1_opaque_list_1(%rip), %rdx
	movq	-24(%rbp), %rax
	movq	%rdx, 16(%rax)
	movq	_TIG_iO_mnVi_1_new_global_1_opaque_list_1(%rip), %rax
	movq	(%rax), %rax
	movq	-24(%rbp), %rdx
	movq	%rdx, 16(%rax)
	movq	_TIG_iO_mnVi_1_new_global_1_opaque_list_1(%rip), %rax
	movq	-24(%rbp), %rdx
	movq	%rdx, (%rax)
	call	rand@PLT
	movl	%eax, -52(%rbp)
	movl	$24, %edi
	call	malloc@PLT
	movq	%rax, -16(%rbp)
	movl	-52(%rbp), %eax
	leal	(%rax,%rax), %edx
	movq	-16(%rbp), %rax
	movl	%edx, 8(%rax)
	movq	_TIG_iO_mnVi_1_new_global_1_opaque_list_1(%rip), %rax
	movq	(%rax), %rdx
	movq	-16(%rbp), %rax
	movq	%rdx, (%rax)
	movq	_TIG_iO_mnVi_1_new_global_1_opaque_list_1(%rip), %rdx
	movq	-16(%rbp), %rax
	movq	%rdx, 16(%rax)
	movq	_TIG_iO_mnVi_1_new_global_1_opaque_list_1(%rip), %rax
	movq	(%rax), %rax
	movq	-16(%rbp), %rdx
	movq	%rdx, 16(%rax)
	movq	_TIG_iO_mnVi_1_new_global_1_opaque_list_1(%rip), %rax
	movq	-16(%rbp), %rdx
	movq	%rdx, (%rax)
	call	rand@PLT
	movl	%eax, -48(%rbp)
	movl	$24, %edi
	call	malloc@PLT
	movq	%rax, -8(%rbp)
	movl	-48(%rbp), %edx
	movl	%edx, %eax
	addl	%eax, %eax
	addl	%eax, %edx
	movq	-8(%rbp), %rax
	movl	%edx, 8(%rax)
	movq	_TIG_iO_mnVi_1_new_global_1_opaque_list_1(%rip), %rax
	movq	(%rax), %rdx
	movq	-8(%rbp), %rax
	movq	%rdx, (%rax)
	movq	_TIG_iO_mnVi_1_new_global_1_opaque_list_1(%rip), %rdx
	movq	-8(%rbp), %rax
	movq	%rdx, 16(%rax)
	movq	_TIG_iO_mnVi_1_new_global_1_opaque_list_1(%rip), %rax
	movq	(%rax), %rax
	movq	-8(%rbp), %rdx
	movq	%rdx, 16(%rax)
	movq	_TIG_iO_mnVi_1_new_global_1_opaque_list_1(%rip), %rax
	movq	-8(%rbp), %rdx
	movq	%rdx, (%rax)
	movq	_TIG_iO_mnVi_1_new_global_1_opaque_list_1(%rip), %rax
	movq	(%rax), %rax
	movq	%rax, _TIG_iO_mnVi_1_new_global_1_opaque_ptr_1(%rip)
	movq	_TIG_iO_mnVi_1_new_global_1_opaque_ptr_1(%rip), %rax
	movq	%rax, _TIG_iO_mnVi_1_new_global_1_opaque_ptr_2(%rip)
	movq	_TIG_iO_mnVi_1_new_global_1_opaque_ptr_2(%rip), %rax
	movq	(%rax), %rax
	movq	%rax, _TIG_iO_mnVi_1_new_global_1_opaque_ptr_2(%rip)
	nop
	nop
	movl	global_no(%rip), %eax
	movl	%eax, -44(%rbp)
	movl	global_no(%rip), %eax
	addl	$1, %eax
	movl	%eax, global_no(%rip)
	movq	globals(%rip), %rdx
	movl	-44(%rbp), %eax
	cltq
	salq	$3, %rax
	addq	%rax, %rdx
	movq	-72(%rbp), %rax
	movq	%rax, (%rdx)
	movq	_TIG_iO_mnVi_1_while_loop_1_opaque_ptr_1(%rip), %rdx
	movq	_TIG_iO_mnVi_1_while_loop_1_opaque_ptr_2(%rip), %rax
	cmpq	%rax, %rdx
	leave
	.cfi_def_cfa 7, 8
	ret
	.cfi_endproc
.LFE8:
	.size	new_global, .-new_global
	.section	.rodata
.LC21:
	.string	"Usage: cc <file>"
.LC22:
	.string	"w"
.LC23:
	.string	"a.s"
	.align 8
.LC24:
	.string	"malloc"
	.string	"calloc"
	.string	"free"
	.string	"atoi"
	.string	"fopen"
	.string	"fclose"
	.string	"fgetc"
	.string	"ungetc"
	.string	"feof"
	.string	"fputs"
	.string	"fprintf"
	.string	"puts"
	.string	"printf"
	.string	"isalpha"
	.string	"isdigit"
	.string	"isalnum"
	.string	"strlen"
	.string	"strcmp"
	.string	"strchr"
	.string	"strcpy"
	.string	"strdup"
	.string	"\377\377\377\377"
	.text
	.globl	main
	.type	main, @function
main:
.LFB9:
	.cfi_startproc
	endbr64
	pushq	%rbp
	.cfi_def_cfa_offset 16
	.cfi_offset 6, -16
	movq	%rsp, %rbp
	.cfi_def_cfa_register 6
	subq	$96, %rsp
	movl	%edi, -68(%rbp)
	movq	%rsi, -80(%rbp)
	movq	%rdx, -88(%rbp)
	movl	$3, decl_param(%rip)
	nop
.L140:
	movl	$2, decl_local(%rip)
	nop
.L141:
	movl	$1, decl_module(%rip)
	nop
.L142:
	movb	$0, lvalue(%rip)
	nop
.L143:
	movl	$0, return_to(%rip)
	nop
.L144:
	movl	$0, label_no(%rip)
	nop
.L145:
	movq	$0, offsets(%rip)
	nop
.L146:
	movl	$0, param_no(%rip)
	nop
.L147:
	movl	$0, local_no(%rip)
	nop
.L148:
	movq	$0, locals(%rip)
	nop
.L149:
	movq	$0, is_fn(%rip)
	nop
.L150:
	movl	$0, global_no(%rip)
	nop
.L151:
	movq	$0, globals(%rip)
	nop
.L152:
	movl	$0, errors(%rip)
	nop
.L153:
	movl	$4, token_str(%rip)
	nop
.L154:
	movl	$3, token_char(%rip)
	nop
.L155:
	movl	$2, token_int(%rip)
	nop
.L156:
	movl	$1, token_ident(%rip)
	nop
.L157:
	movl	$0, token_other(%rip)
	nop
.L158:
	movl	$0, token(%rip)
	nop
.L159:
	movl	$0, buflength(%rip)
	nop
.L160:
	movq	$0, buffer(%rip)
	nop
.L161:
	movb	$0, curch(%rip)
	nop
.L162:
	movl	$0, curln(%rip)
	nop
.L163:
	movq	$0, input(%rip)
	nop
.L164:
	movq	$0, inputname(%rip)
	nop
.L165:
	movq	$0, output(%rip)
	nop
.L166:
	movl	$4, word_size(%rip)
	nop
.L167:
	movl	$4, ptr_size(%rip)
	nop
.L168:
	movq	$0, _TIG_IZ_mnVi_envp(%rip)
	nop
.L169:
	movq	$0, _TIG_IZ_mnVi_argv(%rip)
	nop
.L170:
	movl	$0, _TIG_IZ_mnVi_argc(%rip)
	nop
	nop
.L171:
.L172:
#APP
# 438 "Fedjmike_mini-c_cc.c" 1
	##_ANNOTATION_INITIALREGION_-TIG-IZ-mnVi--0
# 0 "" 2
#NO_APP
	movl	-68(%rbp), %eax
	movl	%eax, _TIG_IZ_mnVi_argc(%rip)
	movq	-80(%rbp), %rax
	movq	%rax, _TIG_IZ_mnVi_argv(%rip)
	movq	-88(%rbp), %rax
	movq	%rax, _TIG_IZ_mnVi_envp(%rip)
#APP
# 445 "Fedjmike_mini-c_cc.c" 1
	##_ANNOTATION_ATOMICREGION_-TIG-iO-mnVi-1-main--35
# 0 "" 2
#NO_APP
	movl	$24, %edi
	call	malloc@PLT
	movq	%rax, -40(%rbp)
	movq	-40(%rbp), %rax
	movq	-40(%rbp), %rdx
	movq	%rdx, 8(%rax)
	movq	-40(%rbp), %rax
	movq	-40(%rbp), %rdx
	movq	%rdx, 16(%rax)
	movq	-40(%rbp), %rax
	movq	%rax, _TIG_iO_mnVi_1_main_1_opaque_list_1(%rip)
	call	rand@PLT
	movl	%eax, -56(%rbp)
	movl	$24, %edi
	call	malloc@PLT
	movq	%rax, -32(%rbp)
	movq	-32(%rbp), %rax
	movl	$0, (%rax)
	movq	_TIG_iO_mnVi_1_main_1_opaque_list_1(%rip), %rax
	movq	8(%rax), %rdx
	movq	-32(%rbp), %rax
	movq	%rdx, 8(%rax)
	movq	_TIG_iO_mnVi_1_main_1_opaque_list_1(%rip), %rdx
	movq	-32(%rbp), %rax
	movq	%rdx, 16(%rax)
	movq	_TIG_iO_mnVi_1_main_1_opaque_list_1(%rip), %rax
	movq	8(%rax), %rax
	movq	-32(%rbp), %rdx
	movq	%rdx, 16(%rax)
	movq	_TIG_iO_mnVi_1_main_1_opaque_list_1(%rip), %rax
	movq	-32(%rbp), %rdx
	movq	%rdx, 8(%rax)
	call	rand@PLT
	movl	%eax, -52(%rbp)
	movl	$24, %edi
	call	malloc@PLT
	movq	%rax, -24(%rbp)
	movq	-24(%rbp), %rax
	movl	-52(%rbp), %edx
	movl	%edx, (%rax)
	movq	_TIG_iO_mnVi_1_main_1_opaque_list_1(%rip), %rax
	movq	8(%rax), %rdx
	movq	-24(%rbp), %rax
	movq	%rdx, 8(%rax)
	movq	_TIG_iO_mnVi_1_main_1_opaque_list_1(%rip), %rdx
	movq	-24(%rbp), %rax
	movq	%rdx, 16(%rax)
	movq	_TIG_iO_mnVi_1_main_1_opaque_list_1(%rip), %rax
	movq	8(%rax), %rax
	movq	-24(%rbp), %rdx
	movq	%rdx, 16(%rax)
	movq	_TIG_iO_mnVi_1_main_1_opaque_list_1(%rip), %rax
	movq	-24(%rbp), %rdx
	movq	%rdx, 8(%rax)
	movq	_TIG_iO_mnVi_1_main_1_opaque_list_1(%rip), %rax
	movq	8(%rax), %rax
	movq	%rax, _TIG_iO_mnVi_1_main_1_opaque_ptr_1(%rip)
	movq	_TIG_iO_mnVi_1_main_1_opaque_ptr_1(%rip), %rax
	movq	%rax, _TIG_iO_mnVi_1_main_1_opaque_ptr_2(%rip)
	nop
	nop
	cmpl	$2, -68(%rbp)
	je	.L173
	leaq	.LC21(%rip), %rax
	movq	%rax, %rdi
	call	puts@PLT
	movl	$1, %eax
	jmp	.L174
.L173:
	leaq	.LC22(%rip), %rax
	movq	%rax, %rsi
	leaq	.LC23(%rip), %rax
	movq	%rax, %rdi
	call	fopen@PLT
	movq	%rax, output(%rip)
	movq	-80(%rbp), %rax
	addq	$8, %rax
	movq	(%rax), %rax
	movl	$256, %esi
	movq	%rax, %rdi
	call	lex_init
	movl	$256, %edi
	call	sym_init
	leaq	.LC24(%rip), %rax
	movq	%rax, -48(%rbp)
	movq	_TIG_iO_mnVi_1_while_loop_1_opaque_ptr_1(%rip), %rdx
	movq	_TIG_iO_mnVi_1_while_loop_1_opaque_ptr_2(%rip), %rax
	cmpq	%rax, %rdx
	je	.L176
	call	factor
	jmp	.L176
.L177:
	movq	-48(%rbp), %rax
	movq	%rax, %rdi
	call	strdup@PLT
	movq	%rax, -16(%rbp)
	movq	-16(%rbp), %rax
	movq	%rax, %rdi
	call	new_fn
	movq	-48(%rbp), %rax
	movq	%rax, %rdi
	call	strlen@PLT
	movq	%rax, -8(%rbp)
	movq	-8(%rbp), %rax
	addq	$1, %rax
	addq	%rax, -48(%rbp)
.L176:
	movq	-48(%rbp), %rax
	movzbl	(%rax), %eax
	cmpb	$-1, %al
	jne	.L177
	call	program
	movl	errors(%rip), %eax
	testl	%eax, %eax
	setne	%al
	movzbl	%al, %eax
.L174:
	leave
	.cfi_def_cfa 7, 8
	ret
	.cfi_endproc
.LFE9:
	.size	main, .-main
	.section	.rodata
.LC25:
	.string	"r"
	.text
	.globl	lex_init
	.type	lex_init, @function
lex_init:
.LFB11:
	.cfi_startproc
	endbr64
	pushq	%rbp
	.cfi_def_cfa_offset 16
	.cfi_offset 6, -16
	movq	%rsp, %rbp
	.cfi_def_cfa_register 6
	subq	$64, %rsp
	movq	%rdi, -56(%rbp)
	movl	%esi, -60(%rbp)
#APP
# 54 "/usr/include/x86_64-linux-gnu/bits/uintn-identity.h" 1
	##_ANNOTATION_INITIALREGION_-TIG-iO-mnVi-1-lex-init--32
# 0 "" 2
# 58 "/usr/include/x86_64-linux-gnu/bits/uintn-identity.h" 1
	##_ANNOTATION_ATOMICREGION_-TIG-iO-mnVi-1-lex-init--31
# 0 "" 2
#NO_APP
	movl	$24, %edi
	call	malloc@PLT
	movq	%rax, -32(%rbp)
	movq	-32(%rbp), %rax
	movq	-32(%rbp), %rdx
	movq	%rdx, 16(%rax)
	movq	-32(%rbp), %rax
	movq	-32(%rbp), %rdx
	movq	%rdx, (%rax)
	movq	-32(%rbp), %rax
	movq	%rax, _TIG_iO_mnVi_1_lex_init_1_opaque_list_1(%rip)
	call	rand@PLT
	movl	%eax, -40(%rbp)
	movl	$24, %edi
	call	malloc@PLT
	movq	%rax, -24(%rbp)
	movq	-24(%rbp), %rax
	movl	$0, 8(%rax)
	movq	_TIG_iO_mnVi_1_lex_init_1_opaque_list_1(%rip), %rax
	movq	16(%rax), %rdx
	movq	-24(%rbp), %rax
	movq	%rdx, 16(%rax)
	movq	_TIG_iO_mnVi_1_lex_init_1_opaque_list_1(%rip), %rdx
	movq	-24(%rbp), %rax
	movq	%rdx, (%rax)
	movq	_TIG_iO_mnVi_1_lex_init_1_opaque_list_1(%rip), %rax
	movq	16(%rax), %rax
	movq	-24(%rbp), %rdx
	movq	%rdx, (%rax)
	movq	_TIG_iO_mnVi_1_lex_init_1_opaque_list_1(%rip), %rax
	movq	-24(%rbp), %rdx
	movq	%rdx, 16(%rax)
	call	rand@PLT
	movl	%eax, -36(%rbp)
	movl	$24, %edi
	call	malloc@PLT
	movq	%rax, -16(%rbp)
	movq	-16(%rbp), %rax
	movl	-36(%rbp), %edx
	movl	%edx, 8(%rax)
	movq	_TIG_iO_mnVi_1_lex_init_1_opaque_list_1(%rip), %rax
	movq	16(%rax), %rdx
	movq	-16(%rbp), %rax
	movq	%rdx, 16(%rax)
	movq	_TIG_iO_mnVi_1_lex_init_1_opaque_list_1(%rip), %rdx
	movq	-16(%rbp), %rax
	movq	%rdx, (%rax)
	movq	_TIG_iO_mnVi_1_lex_init_1_opaque_list_1(%rip), %rax
	movq	16(%rax), %rax
	movq	-16(%rbp), %rdx
	movq	%rdx, (%rax)
	movq	_TIG_iO_mnVi_1_lex_init_1_opaque_list_1(%rip), %rax
	movq	-16(%rbp), %rdx
	movq	%rdx, 16(%rax)
	movq	_TIG_iO_mnVi_1_lex_init_1_opaque_list_1(%rip), %rax
	movq	16(%rax), %rax
	movq	%rax, _TIG_iO_mnVi_1_lex_init_1_opaque_ptr_1(%rip)
	movq	_TIG_iO_mnVi_1_lex_init_1_opaque_ptr_1(%rip), %rax
	movq	%rax, _TIG_iO_mnVi_1_lex_init_1_opaque_ptr_2(%rip)
	nop
	nop
	movq	-56(%rbp), %rax
	movq	%rax, inputname(%rip)
	movq	-56(%rbp), %rax
	leaq	.LC25(%rip), %rdx
	movq	%rdx, %rsi
	movq	%rax, %rdi
	call	fopen@PLT
	movq	%rax, input(%rip)
	movl	$1, curln(%rip)
	movl	-60(%rbp), %eax
	cltq
	movq	%rax, %rdi
	call	malloc@PLT
	movq	%rax, -8(%rbp)
	movq	-8(%rbp), %rax
	movq	%rax, buffer(%rip)
	call	next_char
	call	next
	movq	_TIG_iO_mnVi_1_while_loop_1_opaque_ptr_1(%rip), %rdx
	movq	_TIG_iO_mnVi_1_while_loop_1_opaque_ptr_2(%rip), %rax
	cmpq	%rax, %rdx
	nop
	leave
	.cfi_def_cfa 7, 8
	ret
	.cfi_endproc
.LFE11:
	.size	lex_init, .-lex_init
	.globl	sym_lookup
	.type	sym_lookup, @function
sym_lookup:
.LFB13:
	.cfi_startproc
	endbr64
	pushq	%rbp
	.cfi_def_cfa_offset 16
	.cfi_offset 6, -16
	movq	%rsp, %rbp
	.cfi_def_cfa_register 6
	subq	$80, %rsp
	movq	%rdi, -56(%rbp)
	movl	%esi, -60(%rbp)
	movq	%rdx, -72(%rbp)
#APP
# 58 "/usr/include/x86_64-linux-gnu/bits/byteswap.h" 1
	##_ANNOTATION_INITIALREGION_-TIG-iO-mnVi-1-sym-lookup--70
# 0 "" 2
# 62 "/usr/include/x86_64-linux-gnu/bits/byteswap.h" 1
	##_ANNOTATION_ATOMICREGION_-TIG-iO-mnVi-1-sym-lookup--69
# 0 "" 2
#NO_APP
	movl	$24, %edi
	call	malloc@PLT
	movq	%rax, -24(%rbp)
	movq	-24(%rbp), %rax
	movq	-24(%rbp), %rdx
	movq	%rdx, (%rax)
	movq	-24(%rbp), %rax
	movq	-24(%rbp), %rdx
	movq	%rdx, 8(%rax)
	movq	-24(%rbp), %rax
	movq	%rax, _TIG_iO_mnVi_1_sym_lookup_1_opaque_list_1(%rip)
	call	rand@PLT
	movl	%eax, -40(%rbp)
	movl	$24, %edi
	call	malloc@PLT
	movq	%rax, -16(%rbp)
	movq	-16(%rbp), %rax
	movl	$0, 16(%rax)
	movq	_TIG_iO_mnVi_1_sym_lookup_1_opaque_list_1(%rip), %rax
	movq	(%rax), %rdx
	movq	-16(%rbp), %rax
	movq	%rdx, (%rax)
	movq	_TIG_iO_mnVi_1_sym_lookup_1_opaque_list_1(%rip), %rdx
	movq	-16(%rbp), %rax
	movq	%rdx, 8(%rax)
	movq	_TIG_iO_mnVi_1_sym_lookup_1_opaque_list_1(%rip), %rax
	movq	(%rax), %rax
	movq	-16(%rbp), %rdx
	movq	%rdx, 8(%rax)
	movq	_TIG_iO_mnVi_1_sym_lookup_1_opaque_list_1(%rip), %rax
	movq	-16(%rbp), %rdx
	movq	%rdx, (%rax)
	call	rand@PLT
	movl	%eax, -36(%rbp)
	movl	$24, %edi
	call	malloc@PLT
	movq	%rax, -8(%rbp)
	movq	-8(%rbp), %rax
	movl	-36(%rbp), %edx
	movl	%edx, 16(%rax)
	movq	_TIG_iO_mnVi_1_sym_lookup_1_opaque_list_1(%rip), %rax
	movq	(%rax), %rdx
	movq	-8(%rbp), %rax
	movq	%rdx, (%rax)
	movq	_TIG_iO_mnVi_1_sym_lookup_1_opaque_list_1(%rip), %rdx
	movq	-8(%rbp), %rax
	movq	%rdx, 8(%rax)
	movq	_TIG_iO_mnVi_1_sym_lookup_1_opaque_list_1(%rip), %rax
	movq	(%rax), %rax
	movq	-8(%rbp), %rdx
	movq	%rdx, 8(%rax)
	movq	_TIG_iO_mnVi_1_sym_lookup_1_opaque_list_1(%rip), %rax
	movq	-8(%rbp), %rdx
	movq	%rdx, (%rax)
	movq	_TIG_iO_mnVi_1_sym_lookup_1_opaque_list_1(%rip), %rax
	movq	(%rax), %rax
	movq	%rax, _TIG_iO_mnVi_1_sym_lookup_1_opaque_ptr_1(%rip)
	movq	_TIG_iO_mnVi_1_sym_lookup_1_opaque_ptr_1(%rip), %rax
	movq	%rax, _TIG_iO_mnVi_1_sym_lookup_1_opaque_ptr_2(%rip)
	nop
	nop
	movl	$0, -44(%rbp)
	movq	_TIG_iO_mnVi_1_while_loop_1_opaque_ptr_1(%rip), %rdx
	movq	_TIG_iO_mnVi_1_while_loop_1_opaque_ptr_2(%rip), %rax
	cmpq	%rax, %rdx
	je	.L186
.L185:
	nop
.L183:
	movl	-44(%rbp), %eax
	cmpl	-60(%rbp), %eax
	setl	%al
	movzbl	%al, %eax
	cmpl	%eax, -60(%rbp)
	jne	.L183
	movl	-44(%rbp), %eax
	cltd
	idivl	-36(%rbp)
	movl	%edx, -32(%rbp)
	movl	-60(%rbp), %eax
	movl	%eax, -44(%rbp)
	movq	-72(%rbp), %rax
	leaq	1(%rax), %rdx
	movl	-32(%rbp), %eax
	cltq
	leaq	0(,%rax,8), %rcx
	movq	-56(%rbp), %rax
	addq	%rcx, %rax
	movq	(%rax), %rax
	subq	$1, %rax
	movq	%rdx, %rsi
	movq	%rax, %rdi
	call	strcmp@PLT
	movl	%eax, -28(%rbp)
	nop
.L184:
	cmpl	$7, -28(%rbp)
	jle	.L184
	jmp	.L185
.L188:
	movl	-44(%rbp), %eax
	movl	%eax, -32(%rbp)
	addl	$1, -44(%rbp)
	movl	-32(%rbp), %eax
	cltq
	leaq	0(,%rax,8), %rdx
	movq	-56(%rbp), %rax
	addq	%rdx, %rax
	movq	(%rax), %rax
	movq	-72(%rbp), %rdx
	movq	%rdx, %rsi
	movq	%rax, %rdi
	call	strcmp@PLT
	movl	%eax, -28(%rbp)
	cmpl	$0, -28(%rbp)
	jne	.L186
	movl	-44(%rbp), %eax
	subl	$1, %eax
	jmp	.L187
.L186:
	movl	-44(%rbp), %eax
	cmpl	-60(%rbp), %eax
	jl	.L188
	movl	$-1, %eax
.L187:
	leave
	.cfi_def_cfa 7, 8
	ret
	.cfi_endproc
.LFE13:
	.size	sym_lookup, .-sym_lookup
	.globl	new_param
	.type	new_param, @function
new_param:
.LFB14:
	.cfi_startproc
	endbr64
	pushq	%rbp
	.cfi_def_cfa_offset 16
	.cfi_offset 6, -16
	movq	%rsp, %rbp
	.cfi_def_cfa_register 6
	subq	$64, %rsp
	movq	%rdi, -56(%rbp)
#APP
# 246 "Fedjmike_mini-c_cc.c" 1
	##_ANNOTATION_INITIALREGION_-TIG-iO-mnVi-1-new-param--50
# 0 "" 2
# 250 "Fedjmike_mini-c_cc.c" 1
	##_ANNOTATION_ATOMICREGION_-TIG-iO-mnVi-1-new-param--49
# 0 "" 2
#NO_APP
	movl	$24, %edi
	call	malloc@PLT
	movq	%rax, -24(%rbp)
	movq	-24(%rbp), %rax
	movq	-24(%rbp), %rdx
	movq	%rdx, 8(%rax)
	movq	-24(%rbp), %rax
	movq	-24(%rbp), %rdx
	movq	%rdx, (%rax)
	movq	-24(%rbp), %rax
	movq	%rax, _TIG_iO_mnVi_1_new_param_1_opaque_list_1(%rip)
	call	rand@PLT
	movl	%eax, -44(%rbp)
	movl	$24, %edi
	call	malloc@PLT
	movq	%rax, -16(%rbp)
	movq	-16(%rbp), %rax
	movl	$0, 16(%rax)
	movq	_TIG_iO_mnVi_1_new_param_1_opaque_list_1(%rip), %rax
	movq	8(%rax), %rdx
	movq	-16(%rbp), %rax
	movq	%rdx, 8(%rax)
	movq	_TIG_iO_mnVi_1_new_param_1_opaque_list_1(%rip), %rdx
	movq	-16(%rbp), %rax
	movq	%rdx, (%rax)
	movq	_TIG_iO_mnVi_1_new_param_1_opaque_list_1(%rip), %rax
	movq	8(%rax), %rax
	movq	-16(%rbp), %rdx
	movq	%rdx, (%rax)
	movq	_TIG_iO_mnVi_1_new_param_1_opaque_list_1(%rip), %rax
	movq	-16(%rbp), %rdx
	movq	%rdx, 8(%rax)
	call	rand@PLT
	movl	%eax, -40(%rbp)
	movl	$24, %edi
	call	malloc@PLT
	movq	%rax, -8(%rbp)
	movq	-8(%rbp), %rax
	movl	-40(%rbp), %edx
	movl	%edx, 16(%rax)
	movq	_TIG_iO_mnVi_1_new_param_1_opaque_list_1(%rip), %rax
	movq	8(%rax), %rdx
	movq	-8(%rbp), %rax
	movq	%rdx, 8(%rax)
	movq	_TIG_iO_mnVi_1_new_param_1_opaque_list_1(%rip), %rdx
	movq	-8(%rbp), %rax
	movq	%rdx, (%rax)
	movq	_TIG_iO_mnVi_1_new_param_1_opaque_list_1(%rip), %rax
	movq	8(%rax), %rax
	movq	-8(%rbp), %rdx
	movq	%rdx, (%rax)
	movq	_TIG_iO_mnVi_1_new_param_1_opaque_list_1(%rip), %rax
	movq	-8(%rbp), %rdx
	movq	%rdx, 8(%rax)
	movq	_TIG_iO_mnVi_1_new_param_1_opaque_list_1(%rip), %rax
	movq	8(%rax), %rax
	movq	%rax, _TIG_iO_mnVi_1_new_param_1_opaque_ptr_1(%rip)
	movq	_TIG_iO_mnVi_1_new_param_1_opaque_ptr_1(%rip), %rax
	movq	%rax, _TIG_iO_mnVi_1_new_param_1_opaque_ptr_2(%rip)
	nop
	nop
	movq	-56(%rbp), %rax
	movq	%rax, %rdi
	call	new_local
	movl	%eax, -36(%rbp)
	movl	-36(%rbp), %eax
	movl	%eax, -32(%rbp)
	movl	param_no(%rip), %eax
	movl	%eax, -28(%rbp)
	movl	param_no(%rip), %eax
	addl	$1, %eax
	movl	%eax, param_no(%rip)
	movl	-28(%rbp), %eax
	leal	2(%rax), %ecx
	movl	word_size(%rip), %eax
	movq	offsets(%rip), %rsi
	movl	-32(%rbp), %edx
	movslq	%edx, %rdx
	salq	$2, %rdx
	addq	%rsi, %rdx
	imull	%ecx, %eax
	movl	%eax, (%rdx)
	movq	_TIG_iO_mnVi_1_while_loop_1_opaque_ptr_1(%rip), %rdx
	movq	_TIG_iO_mnVi_1_while_loop_1_opaque_ptr_2(%rip), %rax
	cmpq	%rax, %rdx
	je	.L192
	movl	-32(%rbp), %eax
	movl	$0, %edx
	movl	$0, %esi
	movl	%eax, %edi
	call	main
	movl	%eax, -36(%rbp)
	nop
.L192:
	nop
	leave
	.cfi_def_cfa 7, 8
	ret
	.cfi_endproc
.LFE14:
	.size	new_param, .-new_param
	.globl	new_label
	.type	new_label, @function
new_label:
.LFB15:
	.cfi_startproc
	endbr64
	pushq	%rbp
	.cfi_def_cfa_offset 16
	.cfi_offset 6, -16
	movq	%rsp, %rbp
	.cfi_def_cfa_register 6
	subq	$48, %rsp
#APP
# 230 "Fedjmike_mini-c_cc.c" 1
	##_ANNOTATION_INITIALREGION_-TIG-iO-mnVi-1-new-label--46
# 0 "" 2
# 234 "Fedjmike_mini-c_cc.c" 1
	##_ANNOTATION_ATOMICREGION_-TIG-iO-mnVi-1-new-label--45
# 0 "" 2
#NO_APP
	movl	$24, %edi
	call	malloc@PLT
	movq	%rax, -24(%rbp)
	movq	-24(%rbp), %rax
	movq	-24(%rbp), %rdx
	movq	%rdx, 8(%rax)
	movq	-24(%rbp), %rax
	movq	-24(%rbp), %rdx
	movq	%rdx, (%rax)
	movq	-24(%rbp), %rax
	movq	%rax, _TIG_iO_mnVi_1_new_label_1_opaque_list_1(%rip)
	call	rand@PLT
	movl	%eax, -36(%rbp)
	movl	$24, %edi
	call	malloc@PLT
	movq	%rax, -16(%rbp)
	movq	-16(%rbp), %rax
	movl	$0, 16(%rax)
	movq	_TIG_iO_mnVi_1_new_label_1_opaque_list_1(%rip), %rax
	movq	8(%rax), %rdx
	movq	-16(%rbp), %rax
	movq	%rdx, 8(%rax)
	movq	_TIG_iO_mnVi_1_new_label_1_opaque_list_1(%rip), %rdx
	movq	-16(%rbp), %rax
	movq	%rdx, (%rax)
	movq	_TIG_iO_mnVi_1_new_label_1_opaque_list_1(%rip), %rax
	movq	8(%rax), %rax
	movq	-16(%rbp), %rdx
	movq	%rdx, (%rax)
	movq	_TIG_iO_mnVi_1_new_label_1_opaque_list_1(%rip), %rax
	movq	-16(%rbp), %rdx
	movq	%rdx, 8(%rax)
	call	rand@PLT
	movl	%eax, -32(%rbp)
	movl	$24, %edi
	call	malloc@PLT
	movq	%rax, -8(%rbp)
	movq	-8(%rbp), %rax
	movl	-32(%rbp), %edx
	movl	%edx, 16(%rax)
	movq	_TIG_iO_mnVi_1_new_label_1_opaque_list_1(%rip), %rax
	movq	8(%rax), %rdx
	movq	-8(%rbp), %rax
	movq	%rdx, 8(%rax)
	movq	_TIG_iO_mnVi_1_new_label_1_opaque_list_1(%rip), %rdx
	movq	-8(%rbp), %rax
	movq	%rdx, (%rax)
	movq	_TIG_iO_mnVi_1_new_label_1_opaque_list_1(%rip), %rax
	movq	8(%rax), %rax
	movq	-8(%rbp), %rdx
	movq	%rdx, (%rax)
	movq	_TIG_iO_mnVi_1_new_label_1_opaque_list_1(%rip), %rax
	movq	-8(%rbp), %rdx
	movq	%rdx, 8(%rax)
	movq	_TIG_iO_mnVi_1_new_label_1_opaque_list_1(%rip), %rax
	movq	8(%rax), %rax
	movq	%rax, _TIG_iO_mnVi_1_new_label_1_opaque_ptr_1(%rip)
	movq	_TIG_iO_mnVi_1_new_label_1_opaque_ptr_1(%rip), %rax
	movq	%rax, _TIG_iO_mnVi_1_new_label_1_opaque_ptr_2(%rip)
	movq	_TIG_iO_mnVi_1_new_label_1_opaque_ptr_2(%rip), %rax
	movq	8(%rax), %rax
	movq	%rax, _TIG_iO_mnVi_1_new_label_1_opaque_ptr_2(%rip)
	nop
	nop
	movl	label_no(%rip), %eax
	movl	%eax, -28(%rbp)
	movl	label_no(%rip), %eax
	addl	$1, %eax
	movl	%eax, label_no(%rip)
	movq	_TIG_iO_mnVi_1_while_loop_1_opaque_ptr_1(%rip), %rdx
	movq	_TIG_iO_mnVi_1_while_loop_1_opaque_ptr_2(%rip), %rax
	cmpq	%rax, %rdx
	jne	.L194
	movl	-28(%rbp), %eax
	jmp	.L195
.L194:
	movl	-28(%rbp), %eax
.L195:
	leave
	.cfi_def_cfa 7, 8
	ret
	.cfi_endproc
.LFE15:
	.size	new_label, .-new_label
	.globl	see
	.type	see, @function
see:
.LFB16:
	.cfi_startproc
	endbr64
	pushq	%rbp
	.cfi_def_cfa_offset 16
	.cfi_offset 6, -16
	movq	%rsp, %rbp
	.cfi_def_cfa_register 6
	subq	$64, %rsp
	movq	%rdi, -56(%rbp)
#APP
# 258 "Fedjmike_mini-c_cc.c" 1
	##_ANNOTATION_INITIALREGION_-TIG-iO-mnVi-1-see--66
# 0 "" 2
# 262 "Fedjmike_mini-c_cc.c" 1
	##_ANNOTATION_ATOMICREGION_-TIG-iO-mnVi-1-see--65
# 0 "" 2
#NO_APP
	movl	$24, %edi
	call	malloc@PLT
	movq	%rax, -24(%rbp)
	movq	-24(%rbp), %rax
	movq	-24(%rbp), %rdx
	movq	%rdx, 8(%rax)
	movq	-24(%rbp), %rax
	movq	-24(%rbp), %rdx
	movq	%rdx, 16(%rax)
	movq	-24(%rbp), %rax
	movq	%rax, _TIG_iO_mnVi_1_see_1_opaque_list_1(%rip)
	call	rand@PLT
	movl	%eax, -36(%rbp)
	movl	$24, %edi
	call	malloc@PLT
	movq	%rax, -16(%rbp)
	movq	-16(%rbp), %rax
	movl	$0, (%rax)
	movq	_TIG_iO_mnVi_1_see_1_opaque_list_1(%rip), %rax
	movq	8(%rax), %rdx
	movq	-16(%rbp), %rax
	movq	%rdx, 8(%rax)
	movq	_TIG_iO_mnVi_1_see_1_opaque_list_1(%rip), %rdx
	movq	-16(%rbp), %rax
	movq	%rdx, 16(%rax)
	movq	_TIG_iO_mnVi_1_see_1_opaque_list_1(%rip), %rax
	movq	8(%rax), %rax
	movq	-16(%rbp), %rdx
	movq	%rdx, 16(%rax)
	movq	_TIG_iO_mnVi_1_see_1_opaque_list_1(%rip), %rax
	movq	-16(%rbp), %rdx
	movq	%rdx, 8(%rax)
	call	rand@PLT
	movl	%eax, -32(%rbp)
	movl	$24, %edi
	call	malloc@PLT
	movq	%rax, -8(%rbp)
	movq	-8(%rbp), %rax
	movl	-32(%rbp), %edx
	movl	%edx, (%rax)
	movq	_TIG_iO_mnVi_1_see_1_opaque_list_1(%rip), %rax
	movq	8(%rax), %rdx
	movq	-8(%rbp), %rax
	movq	%rdx, 8(%rax)
	movq	_TIG_iO_mnVi_1_see_1_opaque_list_1(%rip), %rdx
	movq	-8(%rbp), %rax
	movq	%rdx, 16(%rax)
	movq	_TIG_iO_mnVi_1_see_1_opaque_list_1(%rip), %rax
	movq	8(%rax), %rax
	movq	-8(%rbp), %rdx
	movq	%rdx, 16(%rax)
	movq	_TIG_iO_mnVi_1_see_1_opaque_list_1(%rip), %rax
	movq	-8(%rbp), %rdx
	movq	%rdx, 8(%rax)
	movq	_TIG_iO_mnVi_1_see_1_opaque_list_1(%rip), %rax
	movq	8(%rax), %rax
	movq	%rax, _TIG_iO_mnVi_1_see_1_opaque_ptr_1(%rip)
	movq	_TIG_iO_mnVi_1_see_1_opaque_ptr_1(%rip), %rax
	movq	%rax, _TIG_iO_mnVi_1_see_1_opaque_ptr_2(%rip)
	nop
	nop
	movq	_TIG_iO_mnVi_1_while_loop_1_opaque_ptr_1(%rip), %rdx
	movq	_TIG_iO_mnVi_1_while_loop_1_opaque_ptr_2(%rip), %rax
	cmpq	%rax, %rdx
	je	.L197
	movq	-56(%rbp), %rax
	movq	%rax, %rdi
	call	new_global
.L197:
	movq	buffer(%rip), %rax
	movq	-56(%rbp), %rdx
	movq	%rdx, %rsi
	movq	%rax, %rdi
	call	strcmp@PLT
	movl	%eax, -28(%rbp)
	cmpl	$0, -28(%rbp)
	je	.L198
	movl	$0, -40(%rbp)
	jmp	.L199
.L198:
	movl	$1, -40(%rbp)
.L199:
	cmpl	$0, -40(%rbp)
	setne	%al
	leave
	.cfi_def_cfa 7, 8
	ret
	.cfi_endproc
.LFE16:
	.size	see, .-see
	.section	.rodata
.LC26:
	.string	"true"
.LC27:
	.string	"false"
.LC28:
	.string	"mov eax, %d\n"
.LC29:
	.string	"no symbol '%s' declared\n"
.LC30:
	.string	"++"
.LC31:
	.string	"--"
.LC32:
	.string	"lea"
.LC33:
	.string	"mov"
.LC34:
	.string	"%s eax, [%s]\n"
.LC35:
	.string	"%s eax, [ebp%+d]\n"
.LC36:
	.string	"mov eax, %s\n"
.LC37:
	.string	".section .rodata\n"
.LC38:
	.string	".ascii %s\n"
.LC39:
	.string	".byte 0\n.section .text\n"
.LC40:
	.string	"mov eax, offset _%08d\n"
	.align 8
.LC41:
	.string	"expected an expression, found '%s'\n"
	.text
	.globl	factor
	.type	factor, @function
factor:
.LFB17:
	.cfi_startproc
	endbr64
	pushq	%rbp
	.cfi_def_cfa_offset 16
	.cfi_offset 6, -16
	movq	%rsp, %rbp
	.cfi_def_cfa_register 6
	addq	$-128, %rsp
#APP
# 179 "Fedjmike_mini-c_cc.c" 1
	##_ANNOTATION_INITIALREGION_-TIG-iO-mnVi-1-factor--26
# 0 "" 2
# 183 "Fedjmike_mini-c_cc.c" 1
	##_ANNOTATION_ATOMICREGION_-TIG-iO-mnVi-1-factor--25
# 0 "" 2
#NO_APP
	movl	$24, %edi
	call	malloc@PLT
	movq	%rax, -40(%rbp)
	movq	-40(%rbp), %rax
	movq	-40(%rbp), %rdx
	movq	%rdx, (%rax)
	movq	-40(%rbp), %rax
	movq	-40(%rbp), %rdx
	movq	%rdx, 16(%rax)
	movq	-40(%rbp), %rax
	movq	%rax, _TIG_iO_mnVi_1_factor_1_opaque_list_1(%rip)
	call	rand@PLT
	movl	%eax, -100(%rbp)
	movl	$24, %edi
	call	malloc@PLT
	movq	%rax, -32(%rbp)
	movq	-32(%rbp), %rax
	movl	$0, 8(%rax)
	movq	_TIG_iO_mnVi_1_factor_1_opaque_list_1(%rip), %rax
	movq	(%rax), %rdx
	movq	-32(%rbp), %rax
	movq	%rdx, (%rax)
	movq	_TIG_iO_mnVi_1_factor_1_opaque_list_1(%rip), %rdx
	movq	-32(%rbp), %rax
	movq	%rdx, 16(%rax)
	movq	_TIG_iO_mnVi_1_factor_1_opaque_list_1(%rip), %rax
	movq	(%rax), %rax
	movq	-32(%rbp), %rdx
	movq	%rdx, 16(%rax)
	movq	_TIG_iO_mnVi_1_factor_1_opaque_list_1(%rip), %rax
	movq	-32(%rbp), %rdx
	movq	%rdx, (%rax)
	call	rand@PLT
	movl	%eax, -96(%rbp)
	movl	$24, %edi
	call	malloc@PLT
	movq	%rax, -24(%rbp)
	movq	-24(%rbp), %rax
	movl	-96(%rbp), %edx
	movl	%edx, 8(%rax)
	movq	_TIG_iO_mnVi_1_factor_1_opaque_list_1(%rip), %rax
	movq	(%rax), %rdx
	movq	-24(%rbp), %rax
	movq	%rdx, (%rax)
	movq	_TIG_iO_mnVi_1_factor_1_opaque_list_1(%rip), %rdx
	movq	-24(%rbp), %rax
	movq	%rdx, 16(%rax)
	movq	_TIG_iO_mnVi_1_factor_1_opaque_list_1(%rip), %rax
	movq	(%rax), %rax
	movq	-24(%rbp), %rdx
	movq	%rdx, 16(%rax)
	movq	_TIG_iO_mnVi_1_factor_1_opaque_list_1(%rip), %rax
	movq	-24(%rbp), %rdx
	movq	%rdx, (%rax)
	call	rand@PLT
	movl	%eax, -92(%rbp)
	movl	$24, %edi
	call	malloc@PLT
	movq	%rax, -16(%rbp)
	movl	-92(%rbp), %eax
	leal	(%rax,%rax), %edx
	movq	-16(%rbp), %rax
	movl	%edx, 8(%rax)
	movq	_TIG_iO_mnVi_1_factor_1_opaque_list_1(%rip), %rax
	movq	(%rax), %rdx
	movq	-16(%rbp), %rax
	movq	%rdx, (%rax)
	movq	_TIG_iO_mnVi_1_factor_1_opaque_list_1(%rip), %rdx
	movq	-16(%rbp), %rax
	movq	%rdx, 16(%rax)
	movq	_TIG_iO_mnVi_1_factor_1_opaque_list_1(%rip), %rax
	movq	(%rax), %rax
	movq	-16(%rbp), %rdx
	movq	%rdx, 16(%rax)
	movq	_TIG_iO_mnVi_1_factor_1_opaque_list_1(%rip), %rax
	movq	-16(%rbp), %rdx
	movq	%rdx, (%rax)
	call	rand@PLT
	movl	%eax, -88(%rbp)
	movl	$24, %edi
	call	malloc@PLT
	movq	%rax, -8(%rbp)
	movl	-88(%rbp), %edx
	movl	%edx, %eax
	addl	%eax, %eax
	addl	%eax, %edx
	movq	-8(%rbp), %rax
	movl	%edx, 8(%rax)
	movq	_TIG_iO_mnVi_1_factor_1_opaque_list_1(%rip), %rax
	movq	(%rax), %rdx
	movq	-8(%rbp), %rax
	movq	%rdx, (%rax)
	movq	_TIG_iO_mnVi_1_factor_1_opaque_list_1(%rip), %rdx
	movq	-8(%rbp), %rax
	movq	%rdx, 16(%rax)
	movq	_TIG_iO_mnVi_1_factor_1_opaque_list_1(%rip), %rax
	movq	(%rax), %rax
	movq	-8(%rbp), %rdx
	movq	%rdx, 16(%rax)
	movq	_TIG_iO_mnVi_1_factor_1_opaque_list_1(%rip), %rax
	movq	-8(%rbp), %rdx
	movq	%rdx, (%rax)
	movq	_TIG_iO_mnVi_1_factor_1_opaque_list_1(%rip), %rax
	movq	(%rax), %rax
	movq	%rax, _TIG_iO_mnVi_1_factor_1_opaque_ptr_1(%rip)
	movq	_TIG_iO_mnVi_1_factor_1_opaque_ptr_1(%rip), %rax
	movq	%rax, _TIG_iO_mnVi_1_factor_1_opaque_ptr_2(%rip)
	nop
	nop
	movb	$0, lvalue(%rip)
	leaq	.LC26(%rip), %rax
	movq	%rax, %rdi
	call	see
	movb	%al, -115(%rbp)
	cmpb	$0, -115(%rbp)
	jne	.L229
	leaq	.LC27(%rip), %rax
	movq	%rax, %rdi
	call	see
	movb	%al, -114(%rbp)
	cmpb	$0, -114(%rbp)
	je	.L204
	jmp	.L203
.L229:
	nop
.L203:
	leaq	.LC26(%rip), %rax
	movq	%rax, %rdi
	call	see
	movb	%al, -109(%rbp)
	cmpb	$0, -109(%rbp)
	je	.L205
	movl	$1, -108(%rbp)
	jmp	.L206
.L205:
	movl	$0, -108(%rbp)
.L206:
	movq	output(%rip), %rax
	movl	-108(%rbp), %edx
	leaq	.LC28(%rip), %rcx
	movq	%rcx, %rsi
	movq	%rax, %rdi
	movl	$0, %eax
	call	fprintf@PLT
	call	next
	jmp	.L230
.L204:
	movl	token(%rip), %edx
	movl	token_ident(%rip), %eax
	cmpl	%eax, %edx
	jne	.L208
	movq	buffer(%rip), %rdx
	movl	global_no(%rip), %ecx
	movq	globals(%rip), %rax
	movl	%ecx, %esi
	movq	%rax, %rdi
	call	sym_lookup
	movl	%eax, -72(%rbp)
	movl	-72(%rbp), %eax
	movl	%eax, -68(%rbp)
	movq	buffer(%rip), %rdx
	movl	local_no(%rip), %ecx
	movq	locals(%rip), %rax
	movl	%ecx, %esi
	movq	%rax, %rdi
	call	sym_lookup
	movl	%eax, -64(%rbp)
	movl	-64(%rbp), %eax
	movl	%eax, -60(%rbp)
	cmpl	$0, -68(%rbp)
	js	.L209
	movl	$1, -104(%rbp)
	jmp	.L210
.L209:
	cmpl	$0, -60(%rbp)
	js	.L211
	movl	$1, -104(%rbp)
	jmp	.L210
.L211:
	movl	$0, -104(%rbp)
.L210:
	cmpl	$0, -104(%rbp)
	setne	%al
	movzbl	%al, %eax
	leaq	.LC29(%rip), %rdx
	movq	%rdx, %rsi
	movl	%eax, %edi
	call	require
	call	next
	leaq	.LC6(%rip), %rax
	movq	%rax, %rdi
	call	see
	movb	%al, -112(%rbp)
	cmpb	$0, -112(%rbp)
	je	.L212
	movb	$1, lvalue(%rip)
	jmp	.L213
.L212:
	leaq	.LC30(%rip), %rax
	movq	%rax, %rdi
	call	see
	movb	%al, -111(%rbp)
	cmpb	$0, -111(%rbp)
	je	.L214
	movb	$1, lvalue(%rip)
	jmp	.L213
.L214:
	leaq	.LC31(%rip), %rax
	movq	%rax, %rdi
	call	see
	movb	%al, -110(%rbp)
	cmpb	$0, -110(%rbp)
	je	.L213
	movb	$1, lvalue(%rip)
.L213:
	cmpl	$0, -68(%rbp)
	js	.L215
	movq	is_fn(%rip), %rdx
	movl	-68(%rbp), %eax
	cltq
	addq	%rdx, %rax
	movzbl	(%rax), %eax
	testb	%al, %al
	je	.L216
	leaq	.LC32(%rip), %rax
	movq	%rax, -56(%rbp)
	jmp	.L217
.L216:
	movzbl	lvalue(%rip), %eax
	testb	%al, %al
	je	.L218
	leaq	.LC32(%rip), %rax
	movq	%rax, -56(%rbp)
	jmp	.L217
.L218:
	leaq	.LC33(%rip), %rax
	movq	%rax, -56(%rbp)
.L217:
	movq	globals(%rip), %rdx
	movl	-68(%rbp), %eax
	cltq
	salq	$3, %rax
	addq	%rdx, %rax
	movq	(%rax), %rcx
	movq	output(%rip), %rax
	movq	-56(%rbp), %rdx
	leaq	.LC34(%rip), %rsi
	movq	%rax, %rdi
	movl	$0, %eax
	call	fprintf@PLT
	jmp	.L230
.L215:
	movq	_TIG_iO_mnVi_1_while_loop_1_opaque_ptr_1(%rip), %rdx
	movq	_TIG_iO_mnVi_1_while_loop_1_opaque_ptr_2(%rip), %rax
	cmpq	%rax, %rdx
	je	.L219
#APP
# 294 "Fedjmike_mini-c_cc.c" 1
	.byte 0xed,0xd3,0x5e,0x61,0x14,0xe3,0xdb,0x67
# 0 "" 2
#NO_APP
	jmp	.L230
.L219:
	cmpl	$0, -60(%rbp)
	js	.L230
	movzbl	lvalue(%rip), %eax
	testb	%al, %al
	je	.L220
	leaq	.LC32(%rip), %rax
	movq	%rax, -48(%rbp)
	jmp	.L221
.L220:
	leaq	.LC33(%rip), %rax
	movq	%rax, -48(%rbp)
.L221:
	movq	offsets(%rip), %rdx
	movl	-60(%rbp), %eax
	cltq
	salq	$2, %rax
	addq	%rdx, %rax
	movl	(%rax), %ecx
	movq	output(%rip), %rax
	movq	-48(%rbp), %rdx
	leaq	.LC35(%rip), %rsi
	movq	%rax, %rdi
	movl	$0, %eax
	call	fprintf@PLT
	jmp	.L230
.L208:
	movl	token(%rip), %edx
	movl	token_int(%rip), %eax
	cmpl	%eax, %edx
	jne	.L222
	movq	buffer(%rip), %rdx
	movq	output(%rip), %rax
	leaq	.LC36(%rip), %rcx
	movq	%rcx, %rsi
	movq	%rax, %rdi
	movl	$0, %eax
	call	fprintf@PLT
	call	next
	jmp	.L230
.L222:
	movl	token(%rip), %edx
	movl	token_char(%rip), %eax
	cmpl	%eax, %edx
	jne	.L223
	movq	buffer(%rip), %rdx
	movq	output(%rip), %rax
	leaq	.LC36(%rip), %rcx
	movq	%rcx, %rsi
	movq	%rax, %rdi
	movl	$0, %eax
	call	fprintf@PLT
	call	next
	jmp	.L230
.L223:
	movl	token(%rip), %edx
	movl	token_str(%rip), %eax
	cmpl	%eax, %edx
	jne	.L224
	movq	output(%rip), %rax
	movq	%rax, %rcx
	movl	$17, %edx
	movl	$1, %esi
	leaq	.LC37(%rip), %rax
	movq	%rax, %rdi
	call	fwrite@PLT
	call	new_label
	movl	%eax, -84(%rbp)
	movl	-84(%rbp), %eax
	movl	%eax, %edi
	call	emit_label
	movl	%eax, -80(%rbp)
	movl	-80(%rbp), %eax
	movl	%eax, -76(%rbp)
	jmp	.L225
.L226:
	movq	buffer(%rip), %rdx
	movq	output(%rip), %rax
	leaq	.LC38(%rip), %rcx
	movq	%rcx, %rsi
	movq	%rax, %rdi
	movl	$0, %eax
	call	fprintf@PLT
	call	next
.L225:
	movl	token(%rip), %edx
	movl	token_str(%rip), %eax
	cmpl	%eax, %edx
	je	.L226
	movq	output(%rip), %rax
	movq	%rax, %rcx
	movl	$23, %edx
	movl	$1, %esi
	leaq	.LC39(%rip), %rax
	movq	%rax, %rdi
	call	fwrite@PLT
	movq	output(%rip), %rax
	movl	-76(%rbp), %edx
	leaq	.LC40(%rip), %rcx
	movq	%rcx, %rsi
	movq	%rax, %rdi
	movl	$0, %eax
	call	fprintf@PLT
	jmp	.L230
.L224:
	leaq	.LC1(%rip), %rax
	movq	%rax, %rdi
	call	try_match
	movb	%al, -113(%rbp)
	cmpb	$0, -113(%rbp)
	je	.L227
	movl	$0, %edi
	call	expr
	leaq	.LC2(%rip), %rax
	movq	%rax, %rdi
	call	match
	jmp	.L230
.L227:
	leaq	.LC41(%rip), %rax
	movq	%rax, %rdi
	call	error
	nop
.L230:
	nop
	leave
	.cfi_def_cfa 7, 8
	ret
	.cfi_endproc
.LFE17:
	.size	factor, .-factor
	.section	.rodata
.LC42:
	.string	"+"
.LC43:
	.string	"-"
.LC44:
	.string	"=="
.LC45:
	.string	"!="
.LC46:
	.string	"<"
.LC47:
	.string	">="
.LC48:
	.string	"push eax\n"
.LC49:
	.string	"add"
.LC50:
	.string	"sub"
.LC51:
	.string	"imul"
.LC52:
	.string	"e"
.LC53:
	.string	"ne"
.LC54:
	.string	"l"
.LC55:
	.string	"ge"
	.align 8
.LC56:
	.string	"mov ebx, eax\npop eax\n%s eax, ebx\n"
	.align 8
.LC57:
	.string	"pop ebx\ncmp ebx, eax\nmov eax, 0\nset%s al\n"
.LC58:
	.string	"||"
.LC59:
	.string	"&&"
.LC60:
	.string	"nz"
.LC61:
	.string	"z"
.LC62:
	.string	"cmp eax, 0\nj%s _%08d\n"
.LC63:
	.string	"?"
	.align 8
.LC64:
	.string	"assignment requires a modifiable object\n"
	.align 8
.LC65:
	.string	"pop ebx\nmov dword ptr [ebx], eax\n"
	.text
	.globl	expr
	.type	expr, @function
expr:
.LFB18:
	.cfi_startproc
	endbr64
	pushq	%rbp
	.cfi_def_cfa_offset 16
	.cfi_offset 6, -16
	movq	%rsp, %rbp
	.cfi_def_cfa_register 6
	subq	$176, %rsp
	movl	%edi, -164(%rbp)
#APP
# 369 "Fedjmike_mini-c_cc.c" 1
	##_ANNOTATION_INITIALREGION_-TIG-iO-mnVi-1-expr--24
# 0 "" 2
# 373 "Fedjmike_mini-c_cc.c" 1
	##_ANNOTATION_ATOMICREGION_-TIG-iO-mnVi-1-expr--23
# 0 "" 2
#NO_APP
	movl	$24, %edi
	call	malloc@PLT
	movq	%rax, -40(%rbp)
	movq	-40(%rbp), %rax
	movq	-40(%rbp), %rdx
	movq	%rdx, (%rax)
	movq	-40(%rbp), %rax
	movq	-40(%rbp), %rdx
	movq	%rdx, 8(%rax)
	movq	-40(%rbp), %rax
	movq	%rax, _TIG_iO_mnVi_1_expr_1_opaque_list_1(%rip)
	call	rand@PLT
	movl	%eax, -116(%rbp)
	movl	$24, %edi
	call	malloc@PLT
	movq	%rax, -32(%rbp)
	movq	-32(%rbp), %rax
	movl	$0, 16(%rax)
	movq	_TIG_iO_mnVi_1_expr_1_opaque_list_1(%rip), %rax
	movq	(%rax), %rdx
	movq	-32(%rbp), %rax
	movq	%rdx, (%rax)
	movq	_TIG_iO_mnVi_1_expr_1_opaque_list_1(%rip), %rdx
	movq	-32(%rbp), %rax
	movq	%rdx, 8(%rax)
	movq	_TIG_iO_mnVi_1_expr_1_opaque_list_1(%rip), %rax
	movq	(%rax), %rax
	movq	-32(%rbp), %rdx
	movq	%rdx, 8(%rax)
	movq	_TIG_iO_mnVi_1_expr_1_opaque_list_1(%rip), %rax
	movq	-32(%rbp), %rdx
	movq	%rdx, (%rax)
	call	rand@PLT
	movl	%eax, -112(%rbp)
	movl	$24, %edi
	call	malloc@PLT
	movq	%rax, -24(%rbp)
	movq	-24(%rbp), %rax
	movl	-112(%rbp), %edx
	movl	%edx, 16(%rax)
	movq	_TIG_iO_mnVi_1_expr_1_opaque_list_1(%rip), %rax
	movq	(%rax), %rdx
	movq	-24(%rbp), %rax
	movq	%rdx, (%rax)
	movq	_TIG_iO_mnVi_1_expr_1_opaque_list_1(%rip), %rdx
	movq	-24(%rbp), %rax
	movq	%rdx, 8(%rax)
	movq	_TIG_iO_mnVi_1_expr_1_opaque_list_1(%rip), %rax
	movq	(%rax), %rax
	movq	-24(%rbp), %rdx
	movq	%rdx, 8(%rax)
	movq	_TIG_iO_mnVi_1_expr_1_opaque_list_1(%rip), %rax
	movq	-24(%rbp), %rdx
	movq	%rdx, (%rax)
	call	rand@PLT
	movl	%eax, -108(%rbp)
	movl	$24, %edi
	call	malloc@PLT
	movq	%rax, -16(%rbp)
	movl	-108(%rbp), %eax
	leal	(%rax,%rax), %edx
	movq	-16(%rbp), %rax
	movl	%edx, 16(%rax)
	movq	_TIG_iO_mnVi_1_expr_1_opaque_list_1(%rip), %rax
	movq	(%rax), %rdx
	movq	-16(%rbp), %rax
	movq	%rdx, (%rax)
	movq	_TIG_iO_mnVi_1_expr_1_opaque_list_1(%rip), %rdx
	movq	-16(%rbp), %rax
	movq	%rdx, 8(%rax)
	movq	_TIG_iO_mnVi_1_expr_1_opaque_list_1(%rip), %rax
	movq	(%rax), %rax
	movq	-16(%rbp), %rdx
	movq	%rdx, 8(%rax)
	movq	_TIG_iO_mnVi_1_expr_1_opaque_list_1(%rip), %rax
	movq	-16(%rbp), %rdx
	movq	%rdx, (%rax)
	movq	_TIG_iO_mnVi_1_expr_1_opaque_list_1(%rip), %rax
	movq	(%rax), %rax
	movq	%rax, _TIG_iO_mnVi_1_expr_1_opaque_ptr_1(%rip)
	movq	_TIG_iO_mnVi_1_expr_1_opaque_ptr_1(%rip), %rax
	movq	%rax, _TIG_iO_mnVi_1_expr_1_opaque_ptr_2(%rip)
	movq	_TIG_iO_mnVi_1_expr_1_opaque_ptr_2(%rip), %rax
	movq	(%rax), %rax
	movq	%rax, _TIG_iO_mnVi_1_expr_1_opaque_ptr_2(%rip)
	nop
	nop
	cmpl	$5, -164(%rbp)
	jne	.L232
	call	unary
	jmp	.L231
.L232:
	movl	-164(%rbp), %eax
	addl	$1, %eax
	movl	%eax, %edi
	call	expr
.L264:
	cmpl	$4, -164(%rbp)
	jne	.L234
	leaq	.LC42(%rip), %rax
	movq	%rax, %rdi
	call	see
	movb	%al, -146(%rbp)
	cmpb	$0, -146(%rbp)
	je	.L235
	movl	$1, -132(%rbp)
	jmp	.L236
.L235:
	leaq	.LC43(%rip), %rax
	movq	%rax, %rdi
	call	see
	movb	%al, -145(%rbp)
	cmpb	$0, -145(%rbp)
	je	.L237
	movl	$1, -132(%rbp)
	jmp	.L236
.L237:
	leaq	.LC0(%rip), %rax
	movq	%rax, %rdi
	call	see
	movb	%al, -144(%rbp)
	cmpb	$0, -144(%rbp)
	je	.L238
	movl	$1, -132(%rbp)
	jmp	.L236
.L238:
	movl	$0, -132(%rbp)
.L236:
	movl	-132(%rbp), %eax
	movl	%eax, -120(%rbp)
	jmp	.L239
.L234:
	cmpl	$3, -164(%rbp)
	jne	.L240
	leaq	.LC44(%rip), %rax
	movq	%rax, %rdi
	call	see
	movb	%al, -150(%rbp)
	cmpb	$0, -150(%rbp)
	je	.L241
	movl	$1, -128(%rbp)
	jmp	.L242
.L241:
	leaq	.LC45(%rip), %rax
	movq	%rax, %rdi
	call	see
	movb	%al, -149(%rbp)
	cmpb	$0, -149(%rbp)
	je	.L243
	movl	$1, -128(%rbp)
	jmp	.L242
.L243:
	leaq	.LC46(%rip), %rax
	movq	%rax, %rdi
	call	see
	movb	%al, -148(%rbp)
	cmpb	$0, -148(%rbp)
	je	.L244
	movl	$1, -128(%rbp)
	jmp	.L242
.L244:
	leaq	.LC47(%rip), %rax
	movq	%rax, %rdi
	call	see
	movb	%al, -147(%rbp)
	cmpb	$0, -147(%rbp)
	je	.L245
	movl	$1, -128(%rbp)
	jmp	.L242
.L245:
	movl	$0, -128(%rbp)
.L242:
	movl	-128(%rbp), %eax
	movl	%eax, -124(%rbp)
	jmp	.L246
.L240:
	movl	$0, -124(%rbp)
.L246:
	movl	-124(%rbp), %eax
	movl	%eax, -120(%rbp)
.L239:
	cmpl	$0, -120(%rbp)
	je	.L273
	movq	output(%rip), %rax
	movq	%rax, %rcx
	movl	$9, %edx
	movl	$1, %esi
	leaq	.LC48(%rip), %rax
	movq	%rax, %rdi
	call	fwrite@PLT
	leaq	.LC42(%rip), %rax
	movq	%rax, %rdi
	call	see
	movb	%al, -143(%rbp)
	cmpb	$0, -143(%rbp)
	je	.L249
	leaq	.LC49(%rip), %rax
	movq	%rax, -56(%rbp)
	jmp	.L250
.L249:
	leaq	.LC43(%rip), %rax
	movq	%rax, %rdi
	call	see
	movb	%al, -142(%rbp)
	cmpb	$0, -142(%rbp)
	je	.L251
	leaq	.LC50(%rip), %rax
	movq	%rax, -64(%rbp)
	jmp	.L252
.L251:
	leaq	.LC0(%rip), %rax
	movq	%rax, %rdi
	call	see
	movb	%al, -141(%rbp)
	movq	_TIG_iO_mnVi_1_while_loop_1_opaque_ptr_1(%rip), %rdx
	movq	_TIG_iO_mnVi_1_while_loop_1_opaque_ptr_2(%rip), %rax
	cmpq	%rax, %rdx
	jne	.L253
	cmpb	$0, -141(%rbp)
	je	.L254
	leaq	.LC51(%rip), %rax
	movq	%rax, -72(%rbp)
	jmp	.L255
.L254:
	leaq	.LC44(%rip), %rax
	movq	%rax, %rdi
	call	see
	movb	%al, -140(%rbp)
	cmpb	$0, -140(%rbp)
	je	.L256
	leaq	.LC52(%rip), %rax
	movq	%rax, -80(%rbp)
	jmp	.L257
.L256:
	leaq	.LC45(%rip), %rax
	movq	%rax, %rdi
	call	see
	movb	%al, -139(%rbp)
	cmpb	$0, -139(%rbp)
	je	.L258
	leaq	.LC53(%rip), %rax
	movq	%rax, -88(%rbp)
	jmp	.L259
.L258:
	leaq	.LC46(%rip), %rax
	movq	%rax, %rdi
	call	see
	movb	%al, -138(%rbp)
	cmpb	$0, -138(%rbp)
	je	.L260
	leaq	.LC54(%rip), %rax
	movq	%rax, -96(%rbp)
	jmp	.L261
.L260:
	leaq	.LC55(%rip), %rax
	movq	%rax, -96(%rbp)
.L261:
	movq	-96(%rbp), %rax
	movq	%rax, -88(%rbp)
.L259:
	movq	-88(%rbp), %rax
	movq	%rax, -80(%rbp)
.L257:
	movq	-80(%rbp), %rax
	movq	%rax, -72(%rbp)
	jmp	.L255
.L253:
#APP
# 422 "Fedjmike_mini-c_cc.c" 1
	.byte 0x0
# 0 "" 2
#NO_APP
.L255:
	movq	-72(%rbp), %rax
	movq	%rax, -64(%rbp)
.L252:
	movq	-64(%rbp), %rax
	movq	%rax, -56(%rbp)
.L250:
	movq	-56(%rbp), %rax
	movq	%rax, -8(%rbp)
	call	next
	movl	-164(%rbp), %eax
	addl	$1, %eax
	movl	%eax, %edi
	call	expr
	cmpl	$4, -164(%rbp)
	jne	.L262
	movq	output(%rip), %rax
	movq	-8(%rbp), %rdx
	leaq	.LC56(%rip), %rcx
	movq	%rcx, %rsi
	movq	%rax, %rdi
	movl	$0, %eax
	call	fprintf@PLT
	jmp	.L264
.L262:
	movq	output(%rip), %rax
	movq	-8(%rbp), %rdx
	leaq	.LC57(%rip), %rcx
	movq	%rcx, %rsi
	movq	%rax, %rdi
	movl	$0, %eax
	call	fprintf@PLT
	jmp	.L264
.L273:
	nop
	cmpl	$2, -164(%rbp)
	jne	.L265
.L269:
	leaq	.LC58(%rip), %rax
	movq	%rax, %rdi
	call	see
	movb	%al, -137(%rbp)
	movzbl	-137(%rbp), %eax
	xorl	$1, %eax
	testb	%al, %al
	je	.L266
	leaq	.LC59(%rip), %rax
	movq	%rax, %rdi
	call	see
	movb	%al, -136(%rbp)
	movzbl	-136(%rbp), %eax
	xorl	$1, %eax
	testb	%al, %al
	jne	.L274
.L266:
	call	new_label
	movl	%eax, -104(%rbp)
	movl	-104(%rbp), %eax
	movl	%eax, -100(%rbp)
	leaq	.LC58(%rip), %rax
	movq	%rax, %rdi
	call	see
	movb	%al, -135(%rbp)
	cmpb	$0, -135(%rbp)
	je	.L267
	leaq	.LC60(%rip), %rax
	movq	%rax, -48(%rbp)
	jmp	.L268
.L267:
	leaq	.LC61(%rip), %rax
	movq	%rax, -48(%rbp)
.L268:
	movq	output(%rip), %rax
	movl	-100(%rbp), %ecx
	movq	-48(%rbp), %rdx
	leaq	.LC62(%rip), %rsi
	movq	%rax, %rdi
	movl	$0, %eax
	call	fprintf@PLT
	call	next
	movl	-164(%rbp), %eax
	addl	$1, %eax
	movl	%eax, %edi
	call	expr
	movq	output(%rip), %rax
	movl	-100(%rbp), %edx
	leaq	.LC18(%rip), %rcx
	movq	%rcx, %rsi
	movq	%rax, %rdi
	movl	$0, %eax
	call	fprintf@PLT
	jmp	.L269
.L274:
	nop
.L265:
	cmpl	$1, -164(%rbp)
	jne	.L270
	leaq	.LC63(%rip), %rax
	movq	%rax, %rdi
	call	try_match
	movb	%al, -134(%rbp)
	cmpb	$0, -134(%rbp)
	je	.L270
	movl	$1, %edi
	call	branch
.L270:
	cmpl	$0, -164(%rbp)
	jne	.L275
	leaq	.LC6(%rip), %rax
	movq	%rax, %rdi
	call	try_match
	movb	%al, -133(%rbp)
	cmpb	$0, -133(%rbp)
	je	.L275
	movq	output(%rip), %rax
	movq	%rax, %rcx
	movl	$9, %edx
	movl	$1, %esi
	leaq	.LC48(%rip), %rax
	movq	%rax, %rdi
	call	fwrite@PLT
	leaq	.LC64(%rip), %rax
	movq	%rax, %rdi
	call	needs_lvalue
	movl	-164(%rbp), %eax
	addl	$1, %eax
	movl	%eax, %edi
	call	expr
	movq	output(%rip), %rax
	movq	%rax, %rcx
	movl	$33, %edx
	movl	$1, %esi
	leaq	.LC65(%rip), %rax
	movq	%rax, %rdi
	call	fwrite@PLT
.L275:
	nop
.L231:
	leave
	.cfi_def_cfa 7, 8
	ret
	.cfi_endproc
.LFE18:
	.size	expr, .-expr
	.section	.rodata
.LC66:
	.string	"if"
.LC67:
	.string	"while"
.LC68:
	.string	"do"
.LC69:
	.string	"int"
.LC70:
	.string	"char"
.LC71:
	.string	"bool"
.LC72:
	.string	"}"
.LC73:
	.string	"return"
	.text
	.globl	line
	.type	line, @function
line:
.LFB19:
	.cfi_startproc
	endbr64
	pushq	%rbp
	.cfi_def_cfa_offset 16
	.cfi_offset 6, -16
	movq	%rsp, %rbp
	.cfi_def_cfa_register 6
	subq	$48, %rsp
#APP
# 487 "Fedjmike_mini-c_cc.c" 1
	##_ANNOTATION_INITIALREGION_-TIG-iO-mnVi-1-line--34
# 0 "" 2
# 491 "Fedjmike_mini-c_cc.c" 1
	##_ANNOTATION_ATOMICREGION_-TIG-iO-mnVi-1-line--33
# 0 "" 2
#NO_APP
	movl	$24, %edi
	call	malloc@PLT
	movq	%rax, -24(%rbp)
	movq	-24(%rbp), %rax
	movq	-24(%rbp), %rdx
	movq	%rdx, (%rax)
	movq	-24(%rbp), %rax
	movq	-24(%rbp), %rdx
	movq	%rdx, 8(%rax)
	movq	-24(%rbp), %rax
	movq	%rax, _TIG_iO_mnVi_1_line_1_opaque_list_1(%rip)
	call	rand@PLT
	movl	%eax, -32(%rbp)
	movl	$24, %edi
	call	malloc@PLT
	movq	%rax, -16(%rbp)
	movq	-16(%rbp), %rax
	movl	$0, 16(%rax)
	movq	_TIG_iO_mnVi_1_line_1_opaque_list_1(%rip), %rax
	movq	(%rax), %rdx
	movq	-16(%rbp), %rax
	movq	%rdx, (%rax)
	movq	_TIG_iO_mnVi_1_line_1_opaque_list_1(%rip), %rdx
	movq	-16(%rbp), %rax
	movq	%rdx, 8(%rax)
	movq	_TIG_iO_mnVi_1_line_1_opaque_list_1(%rip), %rax
	movq	(%rax), %rax
	movq	-16(%rbp), %rdx
	movq	%rdx, 8(%rax)
	movq	_TIG_iO_mnVi_1_line_1_opaque_list_1(%rip), %rax
	movq	-16(%rbp), %rdx
	movq	%rdx, (%rax)
	call	rand@PLT
	movl	%eax, -28(%rbp)
	movl	$24, %edi
	call	malloc@PLT
	movq	%rax, -8(%rbp)
	movq	-8(%rbp), %rax
	movl	-28(%rbp), %edx
	movl	%edx, 16(%rax)
	movq	_TIG_iO_mnVi_1_line_1_opaque_list_1(%rip), %rax
	movq	(%rax), %rdx
	movq	-8(%rbp), %rax
	movq	%rdx, (%rax)
	movq	_TIG_iO_mnVi_1_line_1_opaque_list_1(%rip), %rdx
	movq	-8(%rbp), %rax
	movq	%rdx, 8(%rax)
	movq	_TIG_iO_mnVi_1_line_1_opaque_list_1(%rip), %rax
	movq	(%rax), %rax
	movq	-8(%rbp), %rdx
	movq	%rdx, 8(%rax)
	movq	_TIG_iO_mnVi_1_line_1_opaque_list_1(%rip), %rax
	movq	-8(%rbp), %rdx
	movq	%rdx, (%rax)
	movq	_TIG_iO_mnVi_1_line_1_opaque_list_1(%rip), %rax
	movq	(%rax), %rax
	movq	%rax, _TIG_iO_mnVi_1_line_1_opaque_ptr_1(%rip)
	movq	_TIG_iO_mnVi_1_line_1_opaque_ptr_1(%rip), %rax
	movq	%rax, _TIG_iO_mnVi_1_line_1_opaque_ptr_2(%rip)
	nop
	nop
	leaq	.LC66(%rip), %rax
	movq	%rax, %rdi
	call	see
	movb	%al, -41(%rbp)
	cmpb	$0, -41(%rbp)
	je	.L277
	call	if_branch
	jmp	.L276
.L277:
	leaq	.LC67(%rip), %rax
	movq	%rax, %rdi
	call	see
	movb	%al, -40(%rbp)
	cmpb	$0, -40(%rbp)
	je	.L279
	call	while_loop
	jmp	.L276
.L279:
	leaq	.LC68(%rip), %rax
	movq	%rax, %rdi
	call	see
	movb	%al, -39(%rbp)
	cmpb	$0, -39(%rbp)
	je	.L280
	call	while_loop
	jmp	.L276
.L280:
	leaq	.LC69(%rip), %rax
	movq	%rax, %rdi
	call	see
	movb	%al, -38(%rbp)
	cmpb	$0, -38(%rbp)
	je	.L281
	movl	decl_local(%rip), %eax
	movl	%eax, %edi
	call	decl
	jmp	.L276
.L281:
	leaq	.LC70(%rip), %rax
	movq	%rax, %rdi
	call	see
	movb	%al, -37(%rbp)
	cmpb	$0, -37(%rbp)
	je	.L282
	movl	decl_local(%rip), %eax
	movl	%eax, %edi
	call	decl
	jmp	.L276
.L282:
	leaq	.LC71(%rip), %rax
	movq	%rax, %rdi
	call	see
	movb	%al, -36(%rbp)
	cmpb	$0, -36(%rbp)
	je	.L283
	movl	decl_local(%rip), %eax
	movl	%eax, %edi
	call	decl
	jmp	.L276
.L283:
	leaq	.LC4(%rip), %rax
	movq	%rax, %rdi
	call	try_match
	movb	%al, -35(%rbp)
	cmpb	$0, -35(%rbp)
	je	.L284
.L287:
	leaq	.LC72(%rip), %rax
	movq	%rax, %rdi
	call	waiting_for
	movb	%al, -33(%rbp)
	movzbl	-33(%rbp), %eax
	xorl	$1, %eax
	testb	%al, %al
	jne	.L294
	call	line
	jmp	.L287
.L294:
	nop
	leaq	.LC72(%rip), %rax
	movq	%rax, %rdi
	call	match
	jmp	.L276
.L284:
	movq	_TIG_iO_mnVi_1_while_loop_1_opaque_ptr_1(%rip), %rdx
	movq	_TIG_iO_mnVi_1_while_loop_1_opaque_ptr_2(%rip), %rax
	cmpq	%rax, %rdx
	je	.L288
#APP
# 546 "Fedjmike_mini-c_cc.c" 1
	.byte 0x0,0x0,0xc7,0x5,0x3f,0x0,0x0,0x0
# 0 "" 2
#NO_APP
	jmp	.L289
.L288:
	leaq	.LC73(%rip), %rax
	movq	%rax, %rdi
	call	try_match
	movb	%al, -34(%rbp)
	movzbl	-34(%rbp), %eax
	movb	%al, -43(%rbp)
	leaq	.LC15(%rip), %rax
	movq	%rax, %rdi
	call	waiting_for
	movb	%al, -42(%rbp)
.L289:
	cmpb	$0, -42(%rbp)
	je	.L290
	movl	$0, %edi
	call	expr
.L290:
	cmpb	$0, -43(%rbp)
	je	.L291
	movl	return_to(%rip), %edx
	movq	output(%rip), %rax
	leaq	.LC17(%rip), %rcx
	movq	%rcx, %rsi
	movq	%rax, %rdi
	movl	$0, %eax
	call	fprintf@PLT
.L291:
	leaq	.LC15(%rip), %rax
	movq	%rax, %rdi
	call	match
	nop
.L276:
	leave
	.cfi_def_cfa 7, 8
	ret
	.cfi_endproc
.LFE19:
	.size	line, .-line
	.globl	if_branch
	.type	if_branch, @function
if_branch:
.LFB20:
	.cfi_startproc
	endbr64
	pushq	%rbp
	.cfi_def_cfa_offset 16
	.cfi_offset 6, -16
	movq	%rsp, %rbp
	.cfi_def_cfa_register 6
	subq	$64, %rsp
#APP
# 575 "Fedjmike_mini-c_cc.c" 1
	##_ANNOTATION_INITIALREGION_-TIG-iO-mnVi-1-if-branch--30
# 0 "" 2
# 579 "Fedjmike_mini-c_cc.c" 1
	##_ANNOTATION_ATOMICREGION_-TIG-iO-mnVi-1-if-branch--29
# 0 "" 2
#NO_APP
	movl	$24, %edi
	call	malloc@PLT
	movq	%rax, -40(%rbp)
	movq	-40(%rbp), %rax
	movq	-40(%rbp), %rdx
	movq	%rdx, 8(%rax)
	movq	-40(%rbp), %rax
	movq	-40(%rbp), %rdx
	movq	%rdx, (%rax)
	movq	-40(%rbp), %rax
	movq	%rax, _TIG_iO_mnVi_1_if_branch_1_opaque_list_1(%rip)
	call	rand@PLT
	movl	%eax, -56(%rbp)
	movl	$24, %edi
	call	malloc@PLT
	movq	%rax, -32(%rbp)
	movq	-32(%rbp), %rax
	movl	$0, 16(%rax)
	movq	_TIG_iO_mnVi_1_if_branch_1_opaque_list_1(%rip), %rax
	movq	8(%rax), %rdx
	movq	-32(%rbp), %rax
	movq	%rdx, 8(%rax)
	movq	_TIG_iO_mnVi_1_if_branch_1_opaque_list_1(%rip), %rdx
	movq	-32(%rbp), %rax
	movq	%rdx, (%rax)
	movq	_TIG_iO_mnVi_1_if_branch_1_opaque_list_1(%rip), %rax
	movq	8(%rax), %rax
	movq	-32(%rbp), %rdx
	movq	%rdx, (%rax)
	movq	_TIG_iO_mnVi_1_if_branch_1_opaque_list_1(%rip), %rax
	movq	-32(%rbp), %rdx
	movq	%rdx, 8(%rax)
	call	rand@PLT
	movl	%eax, -52(%rbp)
	movl	$24, %edi
	call	malloc@PLT
	movq	%rax, -24(%rbp)
	movq	-24(%rbp), %rax
	movl	-52(%rbp), %edx
	movl	%edx, 16(%rax)
	movq	_TIG_iO_mnVi_1_if_branch_1_opaque_list_1(%rip), %rax
	movq	8(%rax), %rdx
	movq	-24(%rbp), %rax
	movq	%rdx, 8(%rax)
	movq	_TIG_iO_mnVi_1_if_branch_1_opaque_list_1(%rip), %rdx
	movq	-24(%rbp), %rax
	movq	%rdx, (%rax)
	movq	_TIG_iO_mnVi_1_if_branch_1_opaque_list_1(%rip), %rax
	movq	8(%rax), %rax
	movq	-24(%rbp), %rdx
	movq	%rdx, (%rax)
	movq	_TIG_iO_mnVi_1_if_branch_1_opaque_list_1(%rip), %rax
	movq	-24(%rbp), %rdx
	movq	%rdx, 8(%rax)
	call	rand@PLT
	movl	%eax, -48(%rbp)
	movl	$24, %edi
	call	malloc@PLT
	movq	%rax, -16(%rbp)
	movl	-48(%rbp), %eax
	leal	(%rax,%rax), %edx
	movq	-16(%rbp), %rax
	movl	%edx, 16(%rax)
	movq	_TIG_iO_mnVi_1_if_branch_1_opaque_list_1(%rip), %rax
	movq	8(%rax), %rdx
	movq	-16(%rbp), %rax
	movq	%rdx, 8(%rax)
	movq	_TIG_iO_mnVi_1_if_branch_1_opaque_list_1(%rip), %rdx
	movq	-16(%rbp), %rax
	movq	%rdx, (%rax)
	movq	_TIG_iO_mnVi_1_if_branch_1_opaque_list_1(%rip), %rax
	movq	8(%rax), %rax
	movq	-16(%rbp), %rdx
	movq	%rdx, (%rax)
	movq	_TIG_iO_mnVi_1_if_branch_1_opaque_list_1(%rip), %rax
	movq	-16(%rbp), %rdx
	movq	%rdx, 8(%rax)
	call	rand@PLT
	movl	%eax, -44(%rbp)
	movl	$24, %edi
	call	malloc@PLT
	movq	%rax, -8(%rbp)
	movl	-44(%rbp), %edx
	movl	%edx, %eax
	addl	%eax, %eax
	addl	%eax, %edx
	movq	-8(%rbp), %rax
	movl	%edx, 16(%rax)
	movq	_TIG_iO_mnVi_1_if_branch_1_opaque_list_1(%rip), %rax
	movq	8(%rax), %rdx
	movq	-8(%rbp), %rax
	movq	%rdx, 8(%rax)
	movq	_TIG_iO_mnVi_1_if_branch_1_opaque_list_1(%rip), %rdx
	movq	-8(%rbp), %rax
	movq	%rdx, (%rax)
	movq	_TIG_iO_mnVi_1_if_branch_1_opaque_list_1(%rip), %rax
	movq	8(%rax), %rax
	movq	-8(%rbp), %rdx
	movq	%rdx, (%rax)
	movq	_TIG_iO_mnVi_1_if_branch_1_opaque_list_1(%rip), %rax
	movq	-8(%rbp), %rdx
	movq	%rdx, 8(%rax)
	movq	_TIG_iO_mnVi_1_if_branch_1_opaque_list_1(%rip), %rax
	movq	8(%rax), %rax
	movq	%rax, _TIG_iO_mnVi_1_if_branch_1_opaque_ptr_1(%rip)
	movq	_TIG_iO_mnVi_1_if_branch_1_opaque_ptr_1(%rip), %rax
	movq	%rax, _TIG_iO_mnVi_1_if_branch_1_opaque_ptr_2(%rip)
	movq	_TIG_iO_mnVi_1_if_branch_1_opaque_ptr_2(%rip), %rax
	movq	8(%rax), %rax
	movq	%rax, _TIG_iO_mnVi_1_if_branch_1_opaque_ptr_2(%rip)
	nop
	nop
	movq	_TIG_iO_mnVi_1_while_loop_1_opaque_ptr_1(%rip), %rdx
	movq	_TIG_iO_mnVi_1_while_loop_1_opaque_ptr_2(%rip), %rax
	cmpq	%rax, %rdx
	je	.L296
	leaq	1+.LC66(%rip), %rax
	movq	%rax, %rdi
	call	match
	leaq	-1+.LC1(%rip), %rax
	movq	%rax, %rdi
	call	match
	movl	$0, %edi
	call	expr
	leaq	-1+.LC2(%rip), %rax
	movq	%rax, %rdi
	call	match
	movl	$1, %edi
	call	branch
	jmp	.L295
.L296:
	leaq	.LC66(%rip), %rax
	movq	%rax, %rdi
	call	match
	leaq	.LC1(%rip), %rax
	movq	%rax, %rdi
	call	match
	movl	$0, %edi
	call	expr
	leaq	.LC2(%rip), %rax
	movq	%rax, %rdi
	call	match
	movl	$0, %edi
	call	branch
	nop
.L295:
	leave
	.cfi_def_cfa 7, 8
	ret
	.cfi_endproc
.LFE20:
	.size	if_branch, .-if_branch
	.globl	while_loop
	.type	while_loop, @function
while_loop:
.LFB21:
	.cfi_startproc
	endbr64
	pushq	%rbp
	.cfi_def_cfa_offset 16
	.cfi_offset 6, -16
	movq	%rsp, %rbp
	.cfi_def_cfa_register 6
	subq	$64, %rsp
#APP
# 515 "Fedjmike_mini-c_cc.c" 1
	##_ANNOTATION_INITIALREGION_-TIG-iO-mnVi-1-while-loop--78
# 0 "" 2
# 519 "Fedjmike_mini-c_cc.c" 1
	##_ANNOTATION_ATOMICREGION_-TIG-iO-mnVi-1-while-loop--77
# 0 "" 2
#NO_APP
	movl	$24, %edi
	call	malloc@PLT
	movq	%rax, -24(%rbp)
	movq	-24(%rbp), %rax
	movq	-24(%rbp), %rdx
	movq	%rdx, (%rax)
	movq	-24(%rbp), %rax
	movq	-24(%rbp), %rdx
	movq	%rdx, 8(%rax)
	movq	-24(%rbp), %rax
	movq	%rax, _TIG_iO_mnVi_1_while_loop_1_opaque_list_1(%rip)
	call	rand@PLT
	movl	%eax, -52(%rbp)
	movl	$24, %edi
	call	malloc@PLT
	movq	%rax, -16(%rbp)
	movq	-16(%rbp), %rax
	movl	$0, 16(%rax)
	movq	_TIG_iO_mnVi_1_while_loop_1_opaque_list_1(%rip), %rax
	movq	(%rax), %rdx
	movq	-16(%rbp), %rax
	movq	%rdx, (%rax)
	movq	_TIG_iO_mnVi_1_while_loop_1_opaque_list_1(%rip), %rdx
	movq	-16(%rbp), %rax
	movq	%rdx, 8(%rax)
	movq	_TIG_iO_mnVi_1_while_loop_1_opaque_list_1(%rip), %rax
	movq	(%rax), %rax
	movq	-16(%rbp), %rdx
	movq	%rdx, 8(%rax)
	movq	_TIG_iO_mnVi_1_while_loop_1_opaque_list_1(%rip), %rax
	movq	-16(%rbp), %rdx
	movq	%rdx, (%rax)
	call	rand@PLT
	movl	%eax, -48(%rbp)
	movl	$24, %edi
	call	malloc@PLT
	movq	%rax, -8(%rbp)
	movq	-8(%rbp), %rax
	movl	-48(%rbp), %edx
	movl	%edx, 16(%rax)
	movq	_TIG_iO_mnVi_1_while_loop_1_opaque_list_1(%rip), %rax
	movq	(%rax), %rdx
	movq	-8(%rbp), %rax
	movq	%rdx, (%rax)
	movq	_TIG_iO_mnVi_1_while_loop_1_opaque_list_1(%rip), %rdx
	movq	-8(%rbp), %rax
	movq	%rdx, 8(%rax)
	movq	_TIG_iO_mnVi_1_while_loop_1_opaque_list_1(%rip), %rax
	movq	(%rax), %rax
	movq	-8(%rbp), %rdx
	movq	%rdx, 8(%rax)
	movq	_TIG_iO_mnVi_1_while_loop_1_opaque_list_1(%rip), %rax
	movq	-8(%rbp), %rdx
	movq	%rdx, (%rax)
	movq	_TIG_iO_mnVi_1_while_loop_1_opaque_list_1(%rip), %rax
	movq	(%rax), %rax
	movq	%rax, _TIG_iO_mnVi_1_while_loop_1_opaque_ptr_1(%rip)
	movq	_TIG_iO_mnVi_1_while_loop_1_opaque_ptr_1(%rip), %rax
	movq	%rax, _TIG_iO_mnVi_1_while_loop_1_opaque_ptr_2(%rip)
	nop
	nop
	call	new_label
	movl	%eax, -44(%rbp)
	movl	-44(%rbp), %eax
	movl	%eax, %edi
	call	emit_label
	movl	%eax, -40(%rbp)
	movl	-40(%rbp), %eax
	movl	%eax, -36(%rbp)
	call	new_label
	movl	%eax, -32(%rbp)
	movl	-32(%rbp), %eax
	movl	%eax, -28(%rbp)
	leaq	.LC68(%rip), %rax
	movq	%rax, %rdi
	call	try_match
	movb	%al, -54(%rbp)
	movzbl	-54(%rbp), %eax
	movb	%al, -53(%rbp)
	movq	_TIG_iO_mnVi_1_while_loop_1_opaque_ptr_1(%rip), %rdx
	movq	_TIG_iO_mnVi_1_while_loop_1_opaque_ptr_2(%rip), %rax
	cmpq	%rax, %rdx
	je	.L300
	movl	$0, %edi
	call	new_local
	movl	%eax, -48(%rbp)
.L300:
	cmpb	$0, -53(%rbp)
	je	.L301
	call	line
.L301:
	leaq	.LC67(%rip), %rax
	movq	%rax, %rdi
	call	match
	leaq	.LC1(%rip), %rax
	movq	%rax, %rdi
	call	match
	movl	$0, %edi
	call	expr
	leaq	.LC2(%rip), %rax
	movq	%rax, %rdi
	call	match
	movq	output(%rip), %rax
	movl	-28(%rbp), %edx
	leaq	.LC16(%rip), %rcx
	movq	%rcx, %rsi
	movq	%rax, %rdi
	movl	$0, %eax
	call	fprintf@PLT
	cmpb	$0, -53(%rbp)
	je	.L302
	leaq	.LC15(%rip), %rax
	movq	%rax, %rdi
	call	match
	jmp	.L303
.L302:
	call	line
.L303:
	movq	output(%rip), %rax
	movl	-36(%rbp), %edx
	leaq	.LC17(%rip), %rcx
	movq	%rcx, %rsi
	movq	%rax, %rdi
	movl	$0, %eax
	call	fprintf@PLT
	movq	output(%rip), %rax
	movl	-28(%rbp), %edx
	leaq	.LC18(%rip), %rcx
	movq	%rcx, %rsi
	movq	%rax, %rdi
	movl	$0, %eax
	call	fprintf@PLT
	nop
	leave
	.cfi_def_cfa 7, 8
	ret
	.cfi_endproc
.LFE21:
	.size	while_loop, .-while_loop
	.globl	require
	.type	require, @function
require:
.LFB22:
	.cfi_startproc
	endbr64
	pushq	%rbp
	.cfi_def_cfa_offset 16
	.cfi_offset 6, -16
	movq	%rsp, %rbp
	.cfi_def_cfa_register 6
	subq	$48, %rsp
	movl	%edi, %eax
	movq	%rsi, -48(%rbp)
	movb	%al, -36(%rbp)
#APP
# 535 "Fedjmike_mini-c_cc.c" 1
	##_ANNOTATION_INITIALREGION_-TIG-iO-mnVi-1-require--64
# 0 "" 2
# 539 "Fedjmike_mini-c_cc.c" 1
	##_ANNOTATION_ATOMICREGION_-TIG-iO-mnVi-1-require--63
# 0 "" 2
#NO_APP
	movl	$24, %edi
	call	malloc@PLT
	movq	%rax, -24(%rbp)
	movq	-24(%rbp), %rax
	movq	-24(%rbp), %rdx
	movq	%rdx, (%rax)
	movq	-24(%rbp), %rax
	movq	-24(%rbp), %rdx
	movq	%rdx, 16(%rax)
	movq	-24(%rbp), %rax
	movq	%rax, _TIG_iO_mnVi_1_require_1_opaque_list_1(%rip)
	call	rand@PLT
	movl	%eax, -32(%rbp)
	movl	$24, %edi
	call	malloc@PLT
	movq	%rax, -16(%rbp)
	movq	-16(%rbp), %rax
	movl	$0, 8(%rax)
	movq	_TIG_iO_mnVi_1_require_1_opaque_list_1(%rip), %rax
	movq	(%rax), %rdx
	movq	-16(%rbp), %rax
	movq	%rdx, (%rax)
	movq	_TIG_iO_mnVi_1_require_1_opaque_list_1(%rip), %rdx
	movq	-16(%rbp), %rax
	movq	%rdx, 16(%rax)
	movq	_TIG_iO_mnVi_1_require_1_opaque_list_1(%rip), %rax
	movq	(%rax), %rax
	movq	-16(%rbp), %rdx
	movq	%rdx, 16(%rax)
	movq	_TIG_iO_mnVi_1_require_1_opaque_list_1(%rip), %rax
	movq	-16(%rbp), %rdx
	movq	%rdx, (%rax)
	call	rand@PLT
	movl	%eax, -28(%rbp)
	movl	$24, %edi
	call	malloc@PLT
	movq	%rax, -8(%rbp)
	movq	-8(%rbp), %rax
	movl	-28(%rbp), %edx
	movl	%edx, 8(%rax)
	movq	_TIG_iO_mnVi_1_require_1_opaque_list_1(%rip), %rax
	movq	(%rax), %rdx
	movq	-8(%rbp), %rax
	movq	%rdx, (%rax)
	movq	_TIG_iO_mnVi_1_require_1_opaque_list_1(%rip), %rdx
	movq	-8(%rbp), %rax
	movq	%rdx, 16(%rax)
	movq	_TIG_iO_mnVi_1_require_1_opaque_list_1(%rip), %rax
	movq	(%rax), %rax
	movq	-8(%rbp), %rdx
	movq	%rdx, 16(%rax)
	movq	_TIG_iO_mnVi_1_require_1_opaque_list_1(%rip), %rax
	movq	-8(%rbp), %rdx
	movq	%rdx, (%rax)
	movq	_TIG_iO_mnVi_1_require_1_opaque_list_1(%rip), %rax
	movq	(%rax), %rax
	movq	%rax, _TIG_iO_mnVi_1_require_1_opaque_ptr_1(%rip)
	movq	_TIG_iO_mnVi_1_require_1_opaque_ptr_1(%rip), %rax
	movq	%rax, _TIG_iO_mnVi_1_require_1_opaque_ptr_2(%rip)
	nop
	nop
	movzbl	-36(%rbp), %eax
	xorl	$1, %eax
	testb	%al, %al
	je	.L306
	movq	-48(%rbp), %rax
	movq	%rax, %rdi
	call	error
.L306:
	movq	_TIG_iO_mnVi_1_while_loop_1_opaque_ptr_1(%rip), %rdx
	movq	_TIG_iO_mnVi_1_while_loop_1_opaque_ptr_2(%rip), %rax
	cmpq	%rax, %rdx
	je	.L309
#APP
# 140 "Fedjmike_mini-c_cc.c" 1
	.byte 0xba,0xf2,0xa4,0xe9
# 0 "" 2
#NO_APP
	jmp	.L305
.L309:
	nop
.L305:
	leave
	.cfi_def_cfa 7, 8
	ret
	.cfi_endproc
.LFE22:
	.size	require, .-require
	.section	.rodata
.LC74:
	.string	"%s:%d: error: "
	.text
	.globl	error
	.type	error, @function
error:
.LFB23:
	.cfi_startproc
	endbr64
	pushq	%rbp
	.cfi_def_cfa_offset 16
	.cfi_offset 6, -16
	movq	%rsp, %rbp
	.cfi_def_cfa_register 6
	subq	$64, %rsp
	movq	%rdi, -56(%rbp)
#APP
# 160 "Fedjmike_mini-c_cc.c" 1
	##_ANNOTATION_INITIALREGION_-TIG-iO-mnVi-1-error--22
# 0 "" 2
# 164 "Fedjmike_mini-c_cc.c" 1
	##_ANNOTATION_ATOMICREGION_-TIG-iO-mnVi-1-error--21
# 0 "" 2
#NO_APP
	movl	$24, %edi
	call	malloc@PLT
	movq	%rax, -32(%rbp)
	movq	-32(%rbp), %rax
	movq	-32(%rbp), %rdx
	movq	%rdx, (%rax)
	movq	-32(%rbp), %rax
	movq	-32(%rbp), %rdx
	movq	%rdx, 16(%rax)
	movq	-32(%rbp), %rax
	movq	%rax, _TIG_iO_mnVi_1_error_1_opaque_list_1(%rip)
	call	rand@PLT
	movl	%eax, -44(%rbp)
	movl	$24, %edi
	call	malloc@PLT
	movq	%rax, -24(%rbp)
	movq	-24(%rbp), %rax
	movl	$0, 8(%rax)
	movq	_TIG_iO_mnVi_1_error_1_opaque_list_1(%rip), %rax
	movq	(%rax), %rdx
	movq	-24(%rbp), %rax
	movq	%rdx, (%rax)
	movq	_TIG_iO_mnVi_1_error_1_opaque_list_1(%rip), %rdx
	movq	-24(%rbp), %rax
	movq	%rdx, 16(%rax)
	movq	_TIG_iO_mnVi_1_error_1_opaque_list_1(%rip), %rax
	movq	(%rax), %rax
	movq	-24(%rbp), %rdx
	movq	%rdx, 16(%rax)
	movq	_TIG_iO_mnVi_1_error_1_opaque_list_1(%rip), %rax
	movq	-24(%rbp), %rdx
	movq	%rdx, (%rax)
	call	rand@PLT
	movl	%eax, -40(%rbp)
	movl	$24, %edi
	call	malloc@PLT
	movq	%rax, -16(%rbp)
	movq	-16(%rbp), %rax
	movl	-40(%rbp), %edx
	movl	%edx, 8(%rax)
	movq	_TIG_iO_mnVi_1_error_1_opaque_list_1(%rip), %rax
	movq	(%rax), %rdx
	movq	-16(%rbp), %rax
	movq	%rdx, (%rax)
	movq	_TIG_iO_mnVi_1_error_1_opaque_list_1(%rip), %rdx
	movq	-16(%rbp), %rax
	movq	%rdx, 16(%rax)
	movq	_TIG_iO_mnVi_1_error_1_opaque_list_1(%rip), %rax
	movq	(%rax), %rax
	movq	-16(%rbp), %rdx
	movq	%rdx, 16(%rax)
	movq	_TIG_iO_mnVi_1_error_1_opaque_list_1(%rip), %rax
	movq	-16(%rbp), %rdx
	movq	%rdx, (%rax)
	call	rand@PLT
	movl	%eax, -36(%rbp)
	movl	$24, %edi
	call	malloc@PLT
	movq	%rax, -8(%rbp)
	movl	-36(%rbp), %eax
	leal	(%rax,%rax), %edx
	movq	-8(%rbp), %rax
	movl	%edx, 8(%rax)
	movq	_TIG_iO_mnVi_1_error_1_opaque_list_1(%rip), %rax
	movq	(%rax), %rdx
	movq	-8(%rbp), %rax
	movq	%rdx, (%rax)
	movq	_TIG_iO_mnVi_1_error_1_opaque_list_1(%rip), %rdx
	movq	-8(%rbp), %rax
	movq	%rdx, 16(%rax)
	movq	_TIG_iO_mnVi_1_error_1_opaque_list_1(%rip), %rax
	movq	(%rax), %rax
	movq	-8(%rbp), %rdx
	movq	%rdx, 16(%rax)
	movq	_TIG_iO_mnVi_1_error_1_opaque_list_1(%rip), %rax
	movq	-8(%rbp), %rdx
	movq	%rdx, (%rax)
	movq	_TIG_iO_mnVi_1_error_1_opaque_list_1(%rip), %rax
	movq	(%rax), %rax
	movq	%rax, _TIG_iO_mnVi_1_error_1_opaque_ptr_1(%rip)
	movq	_TIG_iO_mnVi_1_error_1_opaque_ptr_1(%rip), %rax
	movq	%rax, _TIG_iO_mnVi_1_error_1_opaque_ptr_2(%rip)
	movq	_TIG_iO_mnVi_1_error_1_opaque_ptr_2(%rip), %rax
	movq	(%rax), %rax
	movq	%rax, _TIG_iO_mnVi_1_error_1_opaque_ptr_2(%rip)
	nop
	nop
	movl	curln(%rip), %edx
	movq	inputname(%rip), %rax
	movq	%rax, %rsi
	leaq	.LC74(%rip), %rax
	movq	%rax, %rdi
	movl	$0, %eax
	call	printf@PLT
	movq	buffer(%rip), %rdx
	movq	-56(%rbp), %rax
	movq	%rdx, %rsi
	movq	%rax, %rdi
	movl	$0, %eax
	call	printf@PLT
	movl	errors(%rip), %eax
	addl	$1, %eax
	movl	%eax, errors(%rip)
	movq	_TIG_iO_mnVi_1_while_loop_1_opaque_ptr_1(%rip), %rdx
	movq	_TIG_iO_mnVi_1_while_loop_1_opaque_ptr_2(%rip), %rax
	cmpq	%rax, %rdx
	je	.L313
	movq	-56(%rbp), %rax
	movq	%rax, %rdi
	call	function
	nop
.L313:
	nop
	leave
	.cfi_def_cfa 7, 8
	ret
	.cfi_endproc
.LFE23:
	.size	error, .-error
	.section	.rodata
.LC75:
	.string	"!"
	.align 8
.LC76:
	.string	"cmp eax, 0\nmov eax, 0\nsete al\n"
.LC77:
	.string	"neg eax\n"
	.align 8
.LC78:
	.string	"mov ebx, eax\nmov eax, [ebx]\n%s dword ptr [ebx], 1\n"
	.align 8
.LC79:
	.string	"assignment operator '%s' requires a modifiable object\n"
	.text
	.globl	unary
	.type	unary, @function
unary:
.LFB25:
	.cfi_startproc
	endbr64
	pushq	%rbp
	.cfi_def_cfa_offset 16
	.cfi_offset 6, -16
	movq	%rsp, %rbp
	.cfi_def_cfa_register 6
	subq	$48, %rsp
#APP
# 67 "/usr/include/x86_64-linux-gnu/bits/uintn-identity.h" 1
	##_ANNOTATION_INITIALREGION_-TIG-iO-mnVi-1-unary--74
# 0 "" 2
# 71 "/usr/include/x86_64-linux-gnu/bits/uintn-identity.h" 1
	##_ANNOTATION_ATOMICREGION_-TIG-iO-mnVi-1-unary--73
# 0 "" 2
#NO_APP
	movl	$24, %edi
	call	malloc@PLT
	movq	%rax, -24(%rbp)
	movq	-24(%rbp), %rax
	movq	-24(%rbp), %rdx
	movq	%rdx, (%rax)
	movq	-24(%rbp), %rax
	movq	-24(%rbp), %rdx
	movq	%rdx, 16(%rax)
	movq	-24(%rbp), %rax
	movq	%rax, _TIG_iO_mnVi_1_unary_1_opaque_list_1(%rip)
	call	rand@PLT
	movl	%eax, -40(%rbp)
	movl	$24, %edi
	call	malloc@PLT
	movq	%rax, -16(%rbp)
	movq	-16(%rbp), %rax
	movl	$0, 8(%rax)
	movq	_TIG_iO_mnVi_1_unary_1_opaque_list_1(%rip), %rax
	movq	(%rax), %rdx
	movq	-16(%rbp), %rax
	movq	%rdx, (%rax)
	movq	_TIG_iO_mnVi_1_unary_1_opaque_list_1(%rip), %rdx
	movq	-16(%rbp), %rax
	movq	%rdx, 16(%rax)
	movq	_TIG_iO_mnVi_1_unary_1_opaque_list_1(%rip), %rax
	movq	(%rax), %rax
	movq	-16(%rbp), %rdx
	movq	%rdx, 16(%rax)
	movq	_TIG_iO_mnVi_1_unary_1_opaque_list_1(%rip), %rax
	movq	-16(%rbp), %rdx
	movq	%rdx, (%rax)
	call	rand@PLT
	movl	%eax, -36(%rbp)
	movl	$24, %edi
	call	malloc@PLT
	movq	%rax, -8(%rbp)
	movq	-8(%rbp), %rax
	movl	-36(%rbp), %edx
	movl	%edx, 8(%rax)
	movq	_TIG_iO_mnVi_1_unary_1_opaque_list_1(%rip), %rax
	movq	(%rax), %rdx
	movq	-8(%rbp), %rax
	movq	%rdx, (%rax)
	movq	_TIG_iO_mnVi_1_unary_1_opaque_list_1(%rip), %rdx
	movq	-8(%rbp), %rax
	movq	%rdx, 16(%rax)
	movq	_TIG_iO_mnVi_1_unary_1_opaque_list_1(%rip), %rax
	movq	(%rax), %rax
	movq	-8(%rbp), %rdx
	movq	%rdx, 16(%rax)
	movq	_TIG_iO_mnVi_1_unary_1_opaque_list_1(%rip), %rax
	movq	-8(%rbp), %rdx
	movq	%rdx, (%rax)
	movq	_TIG_iO_mnVi_1_unary_1_opaque_list_1(%rip), %rax
	movq	(%rax), %rax
	movq	%rax, _TIG_iO_mnVi_1_unary_1_opaque_ptr_1(%rip)
	movq	_TIG_iO_mnVi_1_unary_1_opaque_ptr_1(%rip), %rax
	movq	%rax, _TIG_iO_mnVi_1_unary_1_opaque_ptr_2(%rip)
	movq	_TIG_iO_mnVi_1_unary_1_opaque_ptr_2(%rip), %rax
	movq	(%rax), %rax
	movq	%rax, _TIG_iO_mnVi_1_unary_1_opaque_ptr_2(%rip)
	nop
	nop
	leaq	.LC75(%rip), %rax
	movq	%rax, %rdi
	call	try_match
	movb	%al, -44(%rbp)
	cmpb	$0, -44(%rbp)
	je	.L315
	call	unary
	movq	output(%rip), %rax
	movq	%rax, %rcx
	movl	$30, %edx
	movl	$1, %esi
	leaq	.LC76(%rip), %rax
	movq	%rax, %rdi
	call	fwrite@PLT
	jmp	.L326
.L315:
	leaq	.LC43(%rip), %rax
	movq	%rax, %rdi
	call	try_match
	movb	%al, -43(%rbp)
	cmpb	$0, -43(%rbp)
	je	.L317
	call	unary
	movq	output(%rip), %rax
	movq	%rax, %rcx
	movl	$8, %edx
	movl	$1, %esi
	leaq	.LC77(%rip), %rax
	movq	%rax, %rdi
	call	fwrite@PLT
	jmp	.L326
.L317:
	movq	_TIG_iO_mnVi_1_while_loop_1_opaque_ptr_1(%rip), %rdx
	movq	_TIG_iO_mnVi_1_while_loop_1_opaque_ptr_2(%rip), %rax
	cmpq	%rax, %rdx
	je	.L318
#APP
# 391 "Fedjmike_mini-c_cc.c" 1
	.byte 0x82,0xfb,0x72,0x28
# 0 "" 2
#NO_APP
	jmp	.L319
.L318:
	call	object
	leaq	.LC30(%rip), %rax
	movq	%rax, %rdi
	call	see
	movb	%al, -45(%rbp)
.L319:
	cmpb	$0, -45(%rbp)
	jne	.L325
	leaq	.LC31(%rip), %rax
	movq	%rax, %rdi
	call	see
	movb	%al, -42(%rbp)
	cmpb	$0, -42(%rbp)
	je	.L326
	jmp	.L321
.L325:
	nop
.L321:
	leaq	.LC30(%rip), %rax
	movq	%rax, %rdi
	call	see
	movb	%al, -41(%rbp)
	cmpb	$0, -41(%rbp)
	je	.L322
	leaq	.LC49(%rip), %rax
	movq	%rax, -32(%rbp)
	jmp	.L323
.L322:
	leaq	.LC50(%rip), %rax
	movq	%rax, -32(%rbp)
.L323:
	movq	output(%rip), %rax
	movq	-32(%rbp), %rdx
	leaq	.LC78(%rip), %rcx
	movq	%rcx, %rsi
	movq	%rax, %rdi
	movl	$0, %eax
	call	fprintf@PLT
	leaq	.LC79(%rip), %rax
	movq	%rax, %rdi
	call	needs_lvalue
	call	next
	nop
.L326:
	nop
	leave
	.cfi_def_cfa 7, 8
	ret
	.cfi_endproc
.LFE25:
	.size	unary, .-unary
	.section	.rodata
.LC80:
	.string	"_%08d:\n"
	.text
	.globl	emit_label
	.type	emit_label, @function
emit_label:
.LFB27:
	.cfi_startproc
	endbr64
	pushq	%rbp
	.cfi_def_cfa_offset 16
	.cfi_offset 6, -16
	movq	%rsp, %rbp
	.cfi_def_cfa_register 6
	subq	$48, %rsp
	movl	%edi, -36(%rbp)
#APP
# 70 "/usr/include/x86_64-linux-gnu/bits/byteswap.h" 1
	##_ANNOTATION_INITIALREGION_-TIG-iO-mnVi-1-emit-label--20
# 0 "" 2
# 74 "/usr/include/x86_64-linux-gnu/bits/byteswap.h" 1
	##_ANNOTATION_ATOMICREGION_-TIG-iO-mnVi-1-emit-label--19
# 0 "" 2
#NO_APP
	movl	$24, %edi
	call	malloc@PLT
	movq	%rax, -24(%rbp)
	movq	-24(%rbp), %rax
	movq	-24(%rbp), %rdx
	movq	%rdx, 8(%rax)
	movq	-24(%rbp), %rax
	movq	-24(%rbp), %rdx
	movq	%rdx, 16(%rax)
	movq	-24(%rbp), %rax
	movq	%rax, _TIG_iO_mnVi_1_emit_label_1_opaque_list_1(%rip)
	call	rand@PLT
	movl	%eax, -32(%rbp)
	movl	$24, %edi
	call	malloc@PLT
	movq	%rax, -16(%rbp)
	movq	-16(%rbp), %rax
	movl	$0, (%rax)
	movq	_TIG_iO_mnVi_1_emit_label_1_opaque_list_1(%rip), %rax
	movq	8(%rax), %rdx
	movq	-16(%rbp), %rax
	movq	%rdx, 8(%rax)
	movq	_TIG_iO_mnVi_1_emit_label_1_opaque_list_1(%rip), %rdx
	movq	-16(%rbp), %rax
	movq	%rdx, 16(%rax)
	movq	_TIG_iO_mnVi_1_emit_label_1_opaque_list_1(%rip), %rax
	movq	8(%rax), %rax
	movq	-16(%rbp), %rdx
	movq	%rdx, 16(%rax)
	movq	_TIG_iO_mnVi_1_emit_label_1_opaque_list_1(%rip), %rax
	movq	-16(%rbp), %rdx
	movq	%rdx, 8(%rax)
	call	rand@PLT
	movl	%eax, -28(%rbp)
	movl	$24, %edi
	call	malloc@PLT
	movq	%rax, -8(%rbp)
	movq	-8(%rbp), %rax
	movl	-28(%rbp), %edx
	movl	%edx, (%rax)
	movq	_TIG_iO_mnVi_1_emit_label_1_opaque_list_1(%rip), %rax
	movq	8(%rax), %rdx
	movq	-8(%rbp), %rax
	movq	%rdx, 8(%rax)
	movq	_TIG_iO_mnVi_1_emit_label_1_opaque_list_1(%rip), %rdx
	movq	-8(%rbp), %rax
	movq	%rdx, 16(%rax)
	movq	_TIG_iO_mnVi_1_emit_label_1_opaque_list_1(%rip), %rax
	movq	8(%rax), %rax
	movq	-8(%rbp), %rdx
	movq	%rdx, 16(%rax)
	movq	_TIG_iO_mnVi_1_emit_label_1_opaque_list_1(%rip), %rax
	movq	-8(%rbp), %rdx
	movq	%rdx, 8(%rax)
	movq	_TIG_iO_mnVi_1_emit_label_1_opaque_list_1(%rip), %rax
	movq	8(%rax), %rax
	movq	%rax, _TIG_iO_mnVi_1_emit_label_1_opaque_ptr_1(%rip)
	movq	_TIG_iO_mnVi_1_emit_label_1_opaque_ptr_1(%rip), %rax
	movq	%rax, _TIG_iO_mnVi_1_emit_label_1_opaque_ptr_2(%rip)
	nop
	nop
	movq	_TIG_iO_mnVi_1_while_loop_1_opaque_ptr_1(%rip), %rdx
	movq	_TIG_iO_mnVi_1_while_loop_1_opaque_ptr_2(%rip), %rax
	cmpq	%rax, %rdx
	jne	.L328
	movq	output(%rip), %rax
	movl	-36(%rbp), %edx
	leaq	.LC80(%rip), %rcx
	movq	%rcx, %rsi
	movq	%rax, %rdi
	movl	$0, %eax
	call	fprintf@PLT
	jmp	.L329
.L328:
#APP
# 245 "Fedjmike_mini-c_cc.c" 1
	.byte 0xca,0xd5,0xdc,0x95,0x9e,0x57,0x98
# 0 "" 2
#NO_APP
.L329:
	movl	-36(%rbp), %eax
	leave
	.cfi_def_cfa 7, 8
	ret
	.cfi_endproc
.LFE27:
	.size	emit_label, .-emit_label
	.globl	waiting_for
	.type	waiting_for, @function
waiting_for:
.LFB29:
	.cfi_startproc
	endbr64
	pushq	%rbp
	.cfi_def_cfa_offset 16
	.cfi_offset 6, -16
	movq	%rsp, %rbp
	.cfi_def_cfa_register 6
	subq	$80, %rsp
	movq	%rdi, -72(%rbp)
#APP
# 96 "/usr/include/x86_64-linux-gnu/bits/byteswap.h" 1
	##_ANNOTATION_INITIALREGION_-TIG-iO-mnVi-1-waiting-for--76
# 0 "" 2
# 100 "/usr/include/x86_64-linux-gnu/bits/byteswap.h" 1
	##_ANNOTATION_ATOMICREGION_-TIG-iO-mnVi-1-waiting-for--75
# 0 "" 2
#NO_APP
	movl	$24, %edi
	call	malloc@PLT
	movq	%rax, -32(%rbp)
	movq	-32(%rbp), %rax
	movq	-32(%rbp), %rdx
	movq	%rdx, (%rax)
	movq	-32(%rbp), %rax
	movq	-32(%rbp), %rdx
	movq	%rdx, 16(%rax)
	movq	-32(%rbp), %rax
	movq	%rax, _TIG_iO_mnVi_1_waiting_for_1_opaque_list_1(%rip)
	call	rand@PLT
	movl	%eax, -48(%rbp)
	movl	$24, %edi
	call	malloc@PLT
	movq	%rax, -24(%rbp)
	movq	-24(%rbp), %rax
	movl	$0, 8(%rax)
	movq	_TIG_iO_mnVi_1_waiting_for_1_opaque_list_1(%rip), %rax
	movq	(%rax), %rdx
	movq	-24(%rbp), %rax
	movq	%rdx, (%rax)
	movq	_TIG_iO_mnVi_1_waiting_for_1_opaque_list_1(%rip), %rdx
	movq	-24(%rbp), %rax
	movq	%rdx, 16(%rax)
	movq	_TIG_iO_mnVi_1_waiting_for_1_opaque_list_1(%rip), %rax
	movq	(%rax), %rax
	movq	-24(%rbp), %rdx
	movq	%rdx, 16(%rax)
	movq	_TIG_iO_mnVi_1_waiting_for_1_opaque_list_1(%rip), %rax
	movq	-24(%rbp), %rdx
	movq	%rdx, (%rax)
	call	rand@PLT
	movl	%eax, -44(%rbp)
	movl	$24, %edi
	call	malloc@PLT
	movq	%rax, -16(%rbp)
	movq	-16(%rbp), %rax
	movl	-44(%rbp), %edx
	movl	%edx, 8(%rax)
	movq	_TIG_iO_mnVi_1_waiting_for_1_opaque_list_1(%rip), %rax
	movq	(%rax), %rdx
	movq	-16(%rbp), %rax
	movq	%rdx, (%rax)
	movq	_TIG_iO_mnVi_1_waiting_for_1_opaque_list_1(%rip), %rdx
	movq	-16(%rbp), %rax
	movq	%rdx, 16(%rax)
	movq	_TIG_iO_mnVi_1_waiting_for_1_opaque_list_1(%rip), %rax
	movq	(%rax), %rax
	movq	-16(%rbp), %rdx
	movq	%rdx, 16(%rax)
	movq	_TIG_iO_mnVi_1_waiting_for_1_opaque_list_1(%rip), %rax
	movq	-16(%rbp), %rdx
	movq	%rdx, (%rax)
	call	rand@PLT
	movl	%eax, -40(%rbp)
	movl	$24, %edi
	call	malloc@PLT
	movq	%rax, -8(%rbp)
	movl	-40(%rbp), %eax
	leal	(%rax,%rax), %edx
	movq	-8(%rbp), %rax
	movl	%edx, 8(%rax)
	movq	_TIG_iO_mnVi_1_waiting_for_1_opaque_list_1(%rip), %rax
	movq	(%rax), %rdx
	movq	-8(%rbp), %rax
	movq	%rdx, (%rax)
	movq	_TIG_iO_mnVi_1_waiting_for_1_opaque_list_1(%rip), %rdx
	movq	-8(%rbp), %rax
	movq	%rdx, 16(%rax)
	movq	_TIG_iO_mnVi_1_waiting_for_1_opaque_list_1(%rip), %rax
	movq	(%rax), %rax
	movq	-8(%rbp), %rdx
	movq	%rdx, 16(%rax)
	movq	_TIG_iO_mnVi_1_waiting_for_1_opaque_list_1(%rip), %rax
	movq	-8(%rbp), %rdx
	movq	%rdx, (%rax)
	movq	_TIG_iO_mnVi_1_waiting_for_1_opaque_list_1(%rip), %rax
	movq	(%rax), %rax
	movq	%rax, _TIG_iO_mnVi_1_waiting_for_1_opaque_ptr_1(%rip)
	movq	_TIG_iO_mnVi_1_waiting_for_1_opaque_ptr_1(%rip), %rax
	movq	%rax, _TIG_iO_mnVi_1_waiting_for_1_opaque_ptr_2(%rip)
	nop
	nop
	movq	-72(%rbp), %rax
	movq	%rax, %rdi
	call	see
	movb	%al, -53(%rbp)
	cmpb	$0, -53(%rbp)
	je	.L332
	movl	$0, -52(%rbp)
	jmp	.L333
.L332:
	movq	input(%rip), %rax
	movq	%rax, %rdi
	call	feof@PLT
	movl	%eax, -36(%rbp)
	cmpl	$0, -36(%rbp)
	je	.L334
	movq	_TIG_iO_mnVi_1_while_loop_1_opaque_ptr_1(%rip), %rdx
	movq	_TIG_iO_mnVi_1_while_loop_1_opaque_ptr_2(%rip), %rax
	cmpq	%rax, %rdx
	je	.L335
#APP
# 148 "Fedjmike_mini-c_cc.c" 1
	.byte 0xcb,0xf1,0x9b,0x1a,0x3a,0xe2
# 0 "" 2
#NO_APP
	jmp	.L333
.L335:
	movl	$0, -52(%rbp)
	jmp	.L333
.L334:
	movl	$1, -52(%rbp)
.L333:
	cmpl	$0, -52(%rbp)
	setne	%al
	leave
	.cfi_def_cfa 7, 8
	ret
	.cfi_endproc
.LFE29:
	.size	waiting_for, .-waiting_for
	.globl	new_local
	.type	new_local, @function
new_local:
.LFB30:
	.cfi_startproc
	endbr64
	pushq	%rbp
	.cfi_def_cfa_offset 16
	.cfi_offset 6, -16
	movq	%rsp, %rbp
	.cfi_def_cfa_register 6
	subq	$64, %rsp
	movq	%rdi, -56(%rbp)
#APP
# 163 "Fedjmike_mini-c_cc.c" 1
	##_ANNOTATION_INITIALREGION_-TIG-iO-mnVi-1-new-local--48
# 0 "" 2
# 167 "Fedjmike_mini-c_cc.c" 1
	##_ANNOTATION_ATOMICREGION_-TIG-iO-mnVi-1-new-local--47
# 0 "" 2
#NO_APP
	movl	$24, %edi
	call	malloc@PLT
	movq	%rax, -24(%rbp)
	movq	-24(%rbp), %rax
	movq	-24(%rbp), %rdx
	movq	%rdx, (%rax)
	movq	-24(%rbp), %rax
	movq	-24(%rbp), %rdx
	movq	%rdx, 8(%rax)
	movq	-24(%rbp), %rax
	movq	%rax, _TIG_iO_mnVi_1_new_local_1_opaque_list_1(%rip)
	call	rand@PLT
	movl	%eax, -40(%rbp)
	movl	$24, %edi
	call	malloc@PLT
	movq	%rax, -16(%rbp)
	movq	-16(%rbp), %rax
	movl	$0, 16(%rax)
	movq	_TIG_iO_mnVi_1_new_local_1_opaque_list_1(%rip), %rax
	movq	(%rax), %rdx
	movq	-16(%rbp), %rax
	movq	%rdx, (%rax)
	movq	_TIG_iO_mnVi_1_new_local_1_opaque_list_1(%rip), %rdx
	movq	-16(%rbp), %rax
	movq	%rdx, 8(%rax)
	movq	_TIG_iO_mnVi_1_new_local_1_opaque_list_1(%rip), %rax
	movq	(%rax), %rax
	movq	-16(%rbp), %rdx
	movq	%rdx, 8(%rax)
	movq	_TIG_iO_mnVi_1_new_local_1_opaque_list_1(%rip), %rax
	movq	-16(%rbp), %rdx
	movq	%rdx, (%rax)
	call	rand@PLT
	movl	%eax, -36(%rbp)
	movl	$24, %edi
	call	malloc@PLT
	movq	%rax, -8(%rbp)
	movq	-8(%rbp), %rax
	movl	-36(%rbp), %edx
	movl	%edx, 16(%rax)
	movq	_TIG_iO_mnVi_1_new_local_1_opaque_list_1(%rip), %rax
	movq	(%rax), %rdx
	movq	-8(%rbp), %rax
	movq	%rdx, (%rax)
	movq	_TIG_iO_mnVi_1_new_local_1_opaque_list_1(%rip), %rdx
	movq	-8(%rbp), %rax
	movq	%rdx, 8(%rax)
	movq	_TIG_iO_mnVi_1_new_local_1_opaque_list_1(%rip), %rax
	movq	(%rax), %rax
	movq	-8(%rbp), %rdx
	movq	%rdx, 8(%rax)
	movq	_TIG_iO_mnVi_1_new_local_1_opaque_list_1(%rip), %rax
	movq	-8(%rbp), %rdx
	movq	%rdx, (%rax)
	movq	_TIG_iO_mnVi_1_new_local_1_opaque_list_1(%rip), %rax
	movq	(%rax), %rax
	movq	%rax, _TIG_iO_mnVi_1_new_local_1_opaque_ptr_1(%rip)
	movq	_TIG_iO_mnVi_1_new_local_1_opaque_ptr_1(%rip), %rax
	movq	%rax, _TIG_iO_mnVi_1_new_local_1_opaque_ptr_2(%rip)
	nop
	nop
	movq	_TIG_iO_mnVi_1_while_loop_1_opaque_ptr_1(%rip), %rdx
	movq	_TIG_iO_mnVi_1_while_loop_1_opaque_ptr_2(%rip), %rax
	cmpq	%rax, %rdx
	je	.L338
	movq	-56(%rbp), %rax
	movq	%rax, %rdi
	call	new_local
	movl	%eax, -40(%rbp)
.L338:
	movl	local_no(%rip), %eax
	movl	param_no(%rip), %edx
	subl	%edx, %eax
	movl	%eax, -32(%rbp)
	movq	locals(%rip), %rdx
	movl	local_no(%rip), %eax
	cltq
	salq	$3, %rax
	addq	%rax, %rdx
	movq	-56(%rbp), %rax
	movq	%rax, (%rdx)
	movl	word_size(%rip), %eax
	negl	%eax
	movl	%eax, %esi
	movl	-32(%rbp), %eax
	leal	1(%rax), %ecx
	movq	offsets(%rip), %rdx
	movl	local_no(%rip), %eax
	cltq
	salq	$2, %rax
	addq	%rax, %rdx
	movl	%esi, %eax
	imull	%ecx, %eax
	movl	%eax, (%rdx)
	movl	local_no(%rip), %eax
	movl	%eax, -28(%rbp)
	movl	local_no(%rip), %eax
	addl	$1, %eax
	movl	%eax, local_no(%rip)
	movl	-28(%rbp), %eax
	leave
	.cfi_def_cfa 7, 8
	ret
	.cfi_endproc
.LFE30:
	.size	new_local, .-new_local
	.section	.rodata
.LC81:
	.string	"mov esp, ebp\npop ebp\nret\n"
.LC82:
	.string	".globl %s\n%s:\n"
	.align 8
.LC83:
	.string	"push ebp\nmov ebp, esp\nsub esp, %d\njmp _%08d\n"
	.text
	.globl	function
	.type	function, @function
function:
.LFB31:
	.cfi_startproc
	endbr64
	pushq	%rbp
	.cfi_def_cfa_offset 16
	.cfi_offset 6, -16
	movq	%rsp, %rbp
	.cfi_def_cfa_register 6
	subq	$64, %rsp
	movq	%rdi, -56(%rbp)
#APP
# 219 "Fedjmike_mini-c_cc.c" 1
	##_ANNOTATION_INITIALREGION_-TIG-iO-mnVi-1-function--28
# 0 "" 2
# 223 "Fedjmike_mini-c_cc.c" 1
	##_ANNOTATION_ATOMICREGION_-TIG-iO-mnVi-1-function--27
# 0 "" 2
#NO_APP
	movl	$24, %edi
	call	malloc@PLT
	movq	%rax, -24(%rbp)
	movq	-24(%rbp), %rax
	movq	-24(%rbp), %rdx
	movq	%rdx, 16(%rax)
	movq	-24(%rbp), %rax
	movq	-24(%rbp), %rdx
	movq	%rdx, 8(%rax)
	movq	-24(%rbp), %rax
	movq	%rax, _TIG_iO_mnVi_1_function_1_opaque_list_1(%rip)
	call	rand@PLT
	movl	%eax, -44(%rbp)
	movl	$24, %edi
	call	malloc@PLT
	movq	%rax, -16(%rbp)
	movq	-16(%rbp), %rax
	movl	$0, (%rax)
	movq	_TIG_iO_mnVi_1_function_1_opaque_list_1(%rip), %rax
	movq	16(%rax), %rdx
	movq	-16(%rbp), %rax
	movq	%rdx, 16(%rax)
	movq	_TIG_iO_mnVi_1_function_1_opaque_list_1(%rip), %rdx
	movq	-16(%rbp), %rax
	movq	%rdx, 8(%rax)
	movq	_TIG_iO_mnVi_1_function_1_opaque_list_1(%rip), %rax
	movq	16(%rax), %rax
	movq	-16(%rbp), %rdx
	movq	%rdx, 8(%rax)
	movq	_TIG_iO_mnVi_1_function_1_opaque_list_1(%rip), %rax
	movq	-16(%rbp), %rdx
	movq	%rdx, 16(%rax)
	call	rand@PLT
	movl	%eax, -40(%rbp)
	movl	$24, %edi
	call	malloc@PLT
	movq	%rax, -8(%rbp)
	movq	-8(%rbp), %rax
	movl	-40(%rbp), %edx
	movl	%edx, (%rax)
	movq	_TIG_iO_mnVi_1_function_1_opaque_list_1(%rip), %rax
	movq	16(%rax), %rdx
	movq	-8(%rbp), %rax
	movq	%rdx, 16(%rax)
	movq	_TIG_iO_mnVi_1_function_1_opaque_list_1(%rip), %rdx
	movq	-8(%rbp), %rax
	movq	%rdx, 8(%rax)
	movq	_TIG_iO_mnVi_1_function_1_opaque_list_1(%rip), %rax
	movq	16(%rax), %rax
	movq	-8(%rbp), %rdx
	movq	%rdx, 8(%rax)
	movq	_TIG_iO_mnVi_1_function_1_opaque_list_1(%rip), %rax
	movq	-8(%rbp), %rdx
	movq	%rdx, 16(%rax)
	movq	_TIG_iO_mnVi_1_function_1_opaque_list_1(%rip), %rax
	movq	16(%rax), %rax
	movq	%rax, _TIG_iO_mnVi_1_function_1_opaque_ptr_1(%rip)
	movq	_TIG_iO_mnVi_1_function_1_opaque_ptr_1(%rip), %rax
	movq	%rax, _TIG_iO_mnVi_1_function_1_opaque_ptr_2(%rip)
	nop
	nop
	call	new_label
	movl	%eax, -36(%rbp)
	movl	-36(%rbp), %eax
	movl	%eax, %edi
	call	emit_label
	movl	%eax, -32(%rbp)
	movl	-32(%rbp), %eax
	movl	%eax, -28(%rbp)
	call	new_label
	movl	%eax, return_to(%rip)
	call	line
	movl	return_to(%rip), %edx
	movq	output(%rip), %rax
	leaq	.LC18(%rip), %rcx
	movq	%rcx, %rsi
	movq	%rax, %rdi
	movl	$0, %eax
	call	fprintf@PLT
	movq	output(%rip), %rax
	movq	%rax, %rcx
	movl	$25, %edx
	movl	$1, %esi
	leaq	.LC81(%rip), %rax
	movq	%rax, %rdi
	call	fwrite@PLT
	movq	output(%rip), %rax
	movq	-56(%rbp), %rcx
	movq	-56(%rbp), %rdx
	leaq	.LC82(%rip), %rsi
	movq	%rax, %rdi
	movl	$0, %eax
	call	fprintf@PLT
	movl	local_no(%rip), %edx
	movl	word_size(%rip), %eax
	imull	%eax, %edx
	movq	output(%rip), %rax
	movl	-28(%rbp), %ecx
	leaq	.LC83(%rip), %rsi
	movq	%rax, %rdi
	movl	$0, %eax
	call	fprintf@PLT
	movq	_TIG_iO_mnVi_1_while_loop_1_opaque_ptr_1(%rip), %rdx
	movq	_TIG_iO_mnVi_1_while_loop_1_opaque_ptr_2(%rip), %rax
	cmpq	%rax, %rdx
	leave
	.cfi_def_cfa 7, 8
	ret
	.cfi_endproc
.LFE31:
	.size	function, .-function
	.globl	new_fn
	.type	new_fn, @function
new_fn:
.LFB32:
	.cfi_startproc
	endbr64
	pushq	%rbp
	.cfi_def_cfa_offset 16
	.cfi_offset 6, -16
	movq	%rsp, %rbp
	.cfi_def_cfa_register 6
	subq	$64, %rsp
	movq	%rdi, -56(%rbp)
#APP
# 600 "Fedjmike_mini-c_cc.c" 1
	##_ANNOTATION_INITIALREGION_-TIG-iO-mnVi-1-new-fn--42
# 0 "" 2
# 604 "Fedjmike_mini-c_cc.c" 1
	##_ANNOTATION_ATOMICREGION_-TIG-iO-mnVi-1-new-fn--41
# 0 "" 2
#NO_APP
	movl	$24, %edi
	call	malloc@PLT
	movq	%rax, -32(%rbp)
	movq	-32(%rbp), %rax
	movq	-32(%rbp), %rdx
	movq	%rdx, 16(%rax)
	movq	-32(%rbp), %rax
	movq	-32(%rbp), %rdx
	movq	%rdx, (%rax)
	movq	-32(%rbp), %rax
	movq	%rax, _TIG_iO_mnVi_1_new_fn_1_opaque_list_1(%rip)
	call	rand@PLT
	movl	%eax, -44(%rbp)
	movl	$24, %edi
	call	malloc@PLT
	movq	%rax, -24(%rbp)
	movq	-24(%rbp), %rax
	movl	$0, 8(%rax)
	movq	_TIG_iO_mnVi_1_new_fn_1_opaque_list_1(%rip), %rax
	movq	16(%rax), %rdx
	movq	-24(%rbp), %rax
	movq	%rdx, 16(%rax)
	movq	_TIG_iO_mnVi_1_new_fn_1_opaque_list_1(%rip), %rdx
	movq	-24(%rbp), %rax
	movq	%rdx, (%rax)
	movq	_TIG_iO_mnVi_1_new_fn_1_opaque_list_1(%rip), %rax
	movq	16(%rax), %rax
	movq	-24(%rbp), %rdx
	movq	%rdx, (%rax)
	movq	_TIG_iO_mnVi_1_new_fn_1_opaque_list_1(%rip), %rax
	movq	-24(%rbp), %rdx
	movq	%rdx, 16(%rax)
	call	rand@PLT
	movl	%eax, -40(%rbp)
	movl	$24, %edi
	call	malloc@PLT
	movq	%rax, -16(%rbp)
	movq	-16(%rbp), %rax
	movl	-40(%rbp), %edx
	movl	%edx, 8(%rax)
	movq	_TIG_iO_mnVi_1_new_fn_1_opaque_list_1(%rip), %rax
	movq	16(%rax), %rdx
	movq	-16(%rbp), %rax
	movq	%rdx, 16(%rax)
	movq	_TIG_iO_mnVi_1_new_fn_1_opaque_list_1(%rip), %rdx
	movq	-16(%rbp), %rax
	movq	%rdx, (%rax)
	movq	_TIG_iO_mnVi_1_new_fn_1_opaque_list_1(%rip), %rax
	movq	16(%rax), %rax
	movq	-16(%rbp), %rdx
	movq	%rdx, (%rax)
	movq	_TIG_iO_mnVi_1_new_fn_1_opaque_list_1(%rip), %rax
	movq	-16(%rbp), %rdx
	movq	%rdx, 16(%rax)
	call	rand@PLT
	movl	%eax, -36(%rbp)
	movl	$24, %edi
	call	malloc@PLT
	movq	%rax, -8(%rbp)
	movl	-36(%rbp), %eax
	leal	(%rax,%rax), %edx
	movq	-8(%rbp), %rax
	movl	%edx, 8(%rax)
	movq	_TIG_iO_mnVi_1_new_fn_1_opaque_list_1(%rip), %rax
	movq	16(%rax), %rdx
	movq	-8(%rbp), %rax
	movq	%rdx, 16(%rax)
	movq	_TIG_iO_mnVi_1_new_fn_1_opaque_list_1(%rip), %rdx
	movq	-8(%rbp), %rax
	movq	%rdx, (%rax)
	movq	_TIG_iO_mnVi_1_new_fn_1_opaque_list_1(%rip), %rax
	movq	16(%rax), %rax
	movq	-8(%rbp), %rdx
	movq	%rdx, (%rax)
	movq	_TIG_iO_mnVi_1_new_fn_1_opaque_list_1(%rip), %rax
	movq	-8(%rbp), %rdx
	movq	%rdx, 16(%rax)
	movq	_TIG_iO_mnVi_1_new_fn_1_opaque_list_1(%rip), %rax
	movq	16(%rax), %rax
	movq	%rax, _TIG_iO_mnVi_1_new_fn_1_opaque_ptr_1(%rip)
	movq	_TIG_iO_mnVi_1_new_fn_1_opaque_ptr_1(%rip), %rax
	movq	%rax, _TIG_iO_mnVi_1_new_fn_1_opaque_ptr_2(%rip)
	movq	_TIG_iO_mnVi_1_new_fn_1_opaque_ptr_2(%rip), %rax
	movq	16(%rax), %rax
	movq	%rax, _TIG_iO_mnVi_1_new_fn_1_opaque_ptr_2(%rip)
	nop
	nop
	movq	_TIG_iO_mnVi_1_while_loop_1_opaque_ptr_1(%rip), %rdx
	movq	_TIG_iO_mnVi_1_while_loop_1_opaque_ptr_2(%rip), %rax
	cmpq	%rax, %rdx
	je	.L343
#APP
# 641 "Fedjmike_mini-c_cc.c" 1
	.byte 0xc7,0x5
# 0 "" 2
#NO_APP
	jmp	.L342
.L343:
	movq	is_fn(%rip), %rdx
	movl	global_no(%rip), %eax
	cltq
	addq	%rdx, %rax
	movb	$1, (%rax)
	movq	-56(%rbp), %rax
	movq	%rax, %rdi
	call	new_global
	nop
.L342:
	leave
	.cfi_def_cfa 7, 8
	ret
	.cfi_endproc
.LFE32:
	.size	new_fn, .-new_fn
	.section	.rodata
	.align 8
.LC84:
	.string	"%s:%d: error: expected '%s', found '%s'\n"
	.text
	.globl	match
	.type	match, @function
match:
.LFB33:
	.cfi_startproc
	endbr64
	pushq	%rbp
	.cfi_def_cfa_offset 16
	.cfi_offset 6, -16
	movq	%rsp, %rbp
	.cfi_def_cfa_register 6
	subq	$64, %rsp
	movq	%rdi, -56(%rbp)
#APP
# 209 "Fedjmike_mini-c_cc.c" 1
	##_ANNOTATION_INITIALREGION_-TIG-iO-mnVi-1-match--38
# 0 "" 2
# 213 "Fedjmike_mini-c_cc.c" 1
	##_ANNOTATION_ATOMICREGION_-TIG-iO-mnVi-1-match--37
# 0 "" 2
#NO_APP
	movl	$24, %edi
	call	malloc@PLT
	movq	%rax, -24(%rbp)
	movq	-24(%rbp), %rax
	movq	-24(%rbp), %rdx
	movq	%rdx, (%rax)
	movq	-24(%rbp), %rax
	movq	-24(%rbp), %rdx
	movq	%rdx, 16(%rax)
	movq	-24(%rbp), %rax
	movq	%rax, _TIG_iO_mnVi_1_match_1_opaque_list_1(%rip)
	call	rand@PLT
	movl	%eax, -32(%rbp)
	movl	$24, %edi
	call	malloc@PLT
	movq	%rax, -16(%rbp)
	movq	-16(%rbp), %rax
	movl	$0, 8(%rax)
	movq	_TIG_iO_mnVi_1_match_1_opaque_list_1(%rip), %rax
	movq	(%rax), %rdx
	movq	-16(%rbp), %rax
	movq	%rdx, (%rax)
	movq	_TIG_iO_mnVi_1_match_1_opaque_list_1(%rip), %rdx
	movq	-16(%rbp), %rax
	movq	%rdx, 16(%rax)
	movq	_TIG_iO_mnVi_1_match_1_opaque_list_1(%rip), %rax
	movq	(%rax), %rax
	movq	-16(%rbp), %rdx
	movq	%rdx, 16(%rax)
	movq	_TIG_iO_mnVi_1_match_1_opaque_list_1(%rip), %rax
	movq	-16(%rbp), %rdx
	movq	%rdx, (%rax)
	call	rand@PLT
	movl	%eax, -28(%rbp)
	movl	$24, %edi
	call	malloc@PLT
	movq	%rax, -8(%rbp)
	movq	-8(%rbp), %rax
	movl	-28(%rbp), %edx
	movl	%edx, 8(%rax)
	movq	_TIG_iO_mnVi_1_match_1_opaque_list_1(%rip), %rax
	movq	(%rax), %rdx
	movq	-8(%rbp), %rax
	movq	%rdx, (%rax)
	movq	_TIG_iO_mnVi_1_match_1_opaque_list_1(%rip), %rdx
	movq	-8(%rbp), %rax
	movq	%rdx, 16(%rax)
	movq	_TIG_iO_mnVi_1_match_1_opaque_list_1(%rip), %rax
	movq	(%rax), %rax
	movq	-8(%rbp), %rdx
	movq	%rdx, 16(%rax)
	movq	_TIG_iO_mnVi_1_match_1_opaque_list_1(%rip), %rax
	movq	-8(%rbp), %rdx
	movq	%rdx, (%rax)
	movq	_TIG_iO_mnVi_1_match_1_opaque_list_1(%rip), %rax
	movq	(%rax), %rax
	movq	%rax, _TIG_iO_mnVi_1_match_1_opaque_ptr_1(%rip)
	movq	_TIG_iO_mnVi_1_match_1_opaque_ptr_1(%rip), %rax
	movq	%rax, _TIG_iO_mnVi_1_match_1_opaque_ptr_2(%rip)
	movq	_TIG_iO_mnVi_1_match_1_opaque_ptr_2(%rip), %rax
	movq	(%rax), %rax
	movq	%rax, _TIG_iO_mnVi_1_match_1_opaque_ptr_2(%rip)
	nop
	nop
	movq	-56(%rbp), %rax
	movq	%rax, %rdi
	call	see
	movb	%al, -33(%rbp)
	movzbl	-33(%rbp), %eax
	xorl	$1, %eax
	testb	%al, %al
	je	.L347
	movq	buffer(%rip), %rsi
	movl	curln(%rip), %edx
	movq	inputname(%rip), %rax
	movq	-56(%rbp), %rcx
	movq	%rsi, %r8
	movq	%rax, %rsi
	leaq	.LC84(%rip), %rax
	movq	%rax, %rdi
	movl	$0, %eax
	call	printf@PLT
	movl	errors(%rip), %eax
	addl	$1, %eax
	movl	%eax, errors(%rip)
.L347:
	movq	_TIG_iO_mnVi_1_while_loop_1_opaque_ptr_1(%rip), %rdx
	movq	_TIG_iO_mnVi_1_while_loop_1_opaque_ptr_2(%rip), %rax
	cmpq	%rax, %rdx
	jne	.L350
	call	next
	nop
.L350:
	nop
	leave
	.cfi_def_cfa 7, 8
	ret
	.cfi_endproc
.LFE33:
	.size	match, .-match
	.section	.rodata
.LC85:
	.string	"push eax\njmp _%08d\n"
.LC86:
	.string	"call dword ptr [esp+%d]\n"
.LC87:
	.string	"add esp, %d\n"
.LC88:
	.string	"["
.LC89:
	.string	"]"
.LC90:
	.string	"pop ebx\n%s eax, [eax*%d+ebx]\n"
	.text
	.globl	object
	.type	object, @function
object:
.LFB34:
	.cfi_startproc
	endbr64
	pushq	%rbp
	.cfi_def_cfa_offset 16
	.cfi_offset 6, -16
	movq	%rsp, %rbp
	.cfi_def_cfa_register 6
	subq	$96, %rsp
#APP
# 190 "Fedjmike_mini-c_cc.c" 1
	##_ANNOTATION_INITIALREGION_-TIG-iO-mnVi-1-object--58
# 0 "" 2
# 194 "Fedjmike_mini-c_cc.c" 1
	##_ANNOTATION_ATOMICREGION_-TIG-iO-mnVi-1-object--57
# 0 "" 2
#NO_APP
	movl	$24, %edi
	call	malloc@PLT
	movq	%rax, -32(%rbp)
	movq	-32(%rbp), %rax
	movq	-32(%rbp), %rdx
	movq	%rdx, 8(%rax)
	movq	-32(%rbp), %rax
	movq	-32(%rbp), %rdx
	movq	%rdx, 16(%rax)
	movq	-32(%rbp), %rax
	movq	%rax, _TIG_iO_mnVi_1_object_1_opaque_list_1(%rip)
	call	rand@PLT
	movl	%eax, -76(%rbp)
	movl	$24, %edi
	call	malloc@PLT
	movq	%rax, -24(%rbp)
	movq	-24(%rbp), %rax
	movl	$0, (%rax)
	movq	_TIG_iO_mnVi_1_object_1_opaque_list_1(%rip), %rax
	movq	8(%rax), %rdx
	movq	-24(%rbp), %rax
	movq	%rdx, 8(%rax)
	movq	_TIG_iO_mnVi_1_object_1_opaque_list_1(%rip), %rdx
	movq	-24(%rbp), %rax
	movq	%rdx, 16(%rax)
	movq	_TIG_iO_mnVi_1_object_1_opaque_list_1(%rip), %rax
	movq	8(%rax), %rax
	movq	-24(%rbp), %rdx
	movq	%rdx, 16(%rax)
	movq	_TIG_iO_mnVi_1_object_1_opaque_list_1(%rip), %rax
	movq	-24(%rbp), %rdx
	movq	%rdx, 8(%rax)
	call	rand@PLT
	movl	%eax, -72(%rbp)
	movl	$24, %edi
	call	malloc@PLT
	movq	%rax, -16(%rbp)
	movq	-16(%rbp), %rax
	movl	-72(%rbp), %edx
	movl	%edx, (%rax)
	movq	_TIG_iO_mnVi_1_object_1_opaque_list_1(%rip), %rax
	movq	8(%rax), %rdx
	movq	-16(%rbp), %rax
	movq	%rdx, 8(%rax)
	movq	_TIG_iO_mnVi_1_object_1_opaque_list_1(%rip), %rdx
	movq	-16(%rbp), %rax
	movq	%rdx, 16(%rax)
	movq	_TIG_iO_mnVi_1_object_1_opaque_list_1(%rip), %rax
	movq	8(%rax), %rax
	movq	-16(%rbp), %rdx
	movq	%rdx, 16(%rax)
	movq	_TIG_iO_mnVi_1_object_1_opaque_list_1(%rip), %rax
	movq	-16(%rbp), %rdx
	movq	%rdx, 8(%rax)
	call	rand@PLT
	movl	%eax, -68(%rbp)
	movl	$24, %edi
	call	malloc@PLT
	movq	%rax, -8(%rbp)
	movl	-68(%rbp), %eax
	leal	(%rax,%rax), %edx
	movq	-8(%rbp), %rax
	movl	%edx, (%rax)
	movq	_TIG_iO_mnVi_1_object_1_opaque_list_1(%rip), %rax
	movq	8(%rax), %rdx
	movq	-8(%rbp), %rax
	movq	%rdx, 8(%rax)
	movq	_TIG_iO_mnVi_1_object_1_opaque_list_1(%rip), %rdx
	movq	-8(%rbp), %rax
	movq	%rdx, 16(%rax)
	movq	_TIG_iO_mnVi_1_object_1_opaque_list_1(%rip), %rax
	movq	8(%rax), %rax
	movq	-8(%rbp), %rdx
	movq	%rdx, 16(%rax)
	movq	_TIG_iO_mnVi_1_object_1_opaque_list_1(%rip), %rax
	movq	-8(%rbp), %rdx
	movq	%rdx, 8(%rax)
	movq	_TIG_iO_mnVi_1_object_1_opaque_list_1(%rip), %rax
	movq	8(%rax), %rax
	movq	%rax, _TIG_iO_mnVi_1_object_1_opaque_ptr_1(%rip)
	movq	_TIG_iO_mnVi_1_object_1_opaque_ptr_1(%rip), %rax
	movq	%rax, _TIG_iO_mnVi_1_object_1_opaque_ptr_2(%rip)
	nop
	nop
	call	factor
	movq	_TIG_iO_mnVi_1_while_loop_1_opaque_ptr_1(%rip), %rdx
	movq	_TIG_iO_mnVi_1_while_loop_1_opaque_ptr_2(%rip), %rax
	cmpq	%rax, %rdx
	jne	.L352
.L366:
	leaq	.LC1(%rip), %rax
	movq	%rax, %rdi
	call	try_match
	movb	%al, -94(%rbp)
	cmpb	$0, -94(%rbp)
	je	.L353
	movq	output(%rip), %rax
	movq	%rax, %rcx
	movl	$9, %edx
	movl	$1, %esi
	leaq	.LC48(%rip), %rax
	movq	%rax, %rdi
	call	fwrite@PLT
	movl	$0, -88(%rbp)
	leaq	.LC2(%rip), %rax
	movq	%rax, %rdi
	call	waiting_for
	movb	%al, -95(%rbp)
	cmpb	$0, -95(%rbp)
	je	.L354
	call	new_label
	movl	%eax, -64(%rbp)
	movl	-64(%rbp), %eax
	movl	%eax, -60(%rbp)
	call	new_label
	movl	%eax, -56(%rbp)
	movl	-56(%rbp), %eax
	movl	%eax, -52(%rbp)
	movl	-52(%rbp), %eax
	movl	%eax, -84(%rbp)
	movq	output(%rip), %rax
	movl	-60(%rbp), %edx
	leaq	.LC17(%rip), %rcx
	movq	%rcx, %rsi
	movq	%rax, %rdi
	movl	$0, %eax
	call	fprintf@PLT
.L357:
	call	new_label
	movl	%eax, -48(%rbp)
	movl	-48(%rbp), %eax
	movl	%eax, %edi
	call	emit_label
	movl	%eax, -44(%rbp)
	movl	-44(%rbp), %eax
	movl	%eax, -80(%rbp)
	movl	$0, %edi
	call	expr
	movq	output(%rip), %rax
	movl	-84(%rbp), %edx
	leaq	.LC85(%rip), %rcx
	movq	%rcx, %rsi
	movq	%rax, %rdi
	movl	$0, %eax
	call	fprintf@PLT
	addl	$1, -88(%rbp)
	movl	-80(%rbp), %eax
	movl	%eax, -84(%rbp)
	leaq	.LC3(%rip), %rax
	movq	%rax, %rdi
	call	try_match
	movb	%al, -93(%rbp)
	movzbl	-93(%rbp), %eax
	xorl	$1, %eax
	testb	%al, %al
	jne	.L373
	jmp	.L357
.L373:
	nop
	movq	output(%rip), %rax
	movl	-60(%rbp), %edx
	leaq	.LC80(%rip), %rcx
	movq	%rcx, %rsi
	movq	%rax, %rdi
	movl	$0, %eax
	call	fprintf@PLT
	movq	output(%rip), %rax
	movl	-84(%rbp), %edx
	leaq	.LC17(%rip), %rcx
	movq	%rcx, %rsi
	movq	%rax, %rdi
	movl	$0, %eax
	call	fprintf@PLT
	movq	output(%rip), %rax
	movl	-52(%rbp), %edx
	leaq	.LC80(%rip), %rcx
	movq	%rcx, %rsi
	movq	%rax, %rdi
	movl	$0, %eax
	call	fprintf@PLT
.L354:
	leaq	.LC2(%rip), %rax
	movq	%rax, %rdi
	call	match
	movl	word_size(%rip), %eax
	imull	-88(%rbp), %eax
	movl	%eax, %edx
	movq	output(%rip), %rax
	leaq	.LC86(%rip), %rcx
	movq	%rcx, %rsi
	movq	%rax, %rdi
	movl	$0, %eax
	call	fprintf@PLT
	movl	-88(%rbp), %eax
	leal	1(%rax), %edx
	movl	word_size(%rip), %eax
	imull	%eax, %edx
	movq	output(%rip), %rax
	leaq	.LC87(%rip), %rcx
	movq	%rcx, %rsi
	movq	%rax, %rdi
	movl	$0, %eax
	call	fprintf@PLT
	jmp	.L366
.L353:
	leaq	.LC88(%rip), %rax
	movq	%rax, %rdi
	call	try_match
	movb	%al, -91(%rbp)
	cmpb	$0, -91(%rbp)
	je	.L374
	movq	output(%rip), %rax
	movq	%rax, %rcx
	movl	$9, %edx
	movl	$1, %esi
	leaq	.LC48(%rip), %rax
	movq	%rax, %rdi
	call	fwrite@PLT
	movl	$0, %edi
	call	expr
	leaq	.LC89(%rip), %rax
	movq	%rax, %rdi
	call	match
	leaq	.LC6(%rip), %rax
	movq	%rax, %rdi
	call	see
	movb	%al, -90(%rbp)
	cmpb	$0, -90(%rbp)
	je	.L360
	movb	$1, lvalue(%rip)
	jmp	.L361
.L360:
	leaq	.LC30(%rip), %rax
	movq	%rax, %rdi
	call	see
	movb	%al, -89(%rbp)
	cmpb	$0, -89(%rbp)
	je	.L362
	movb	$1, lvalue(%rip)
	jmp	.L361
.L362:
	leaq	.LC31(%rip), %rax
	movq	%rax, %rdi
	call	see
	movb	%al, -92(%rbp)
	cmpb	$0, -92(%rbp)
	je	.L361
	movb	$1, lvalue(%rip)
.L361:
	movzbl	lvalue(%rip), %eax
	testb	%al, %al
	je	.L363
	leaq	.LC32(%rip), %rax
	movq	%rax, -40(%rbp)
	jmp	.L364
.L363:
	leaq	.LC33(%rip), %rax
	movq	%rax, -40(%rbp)
.L364:
	movl	word_size(%rip), %ecx
	movq	output(%rip), %rax
	movq	-40(%rbp), %rdx
	leaq	.LC90(%rip), %rsi
	movq	%rax, %rdi
	movl	$0, %eax
	call	fprintf@PLT
	jmp	.L366
.L352:
	leaq	1+.LC1(%rip), %rax
	movq	%rax, %rdi
	call	try_match
	movb	%al, -94(%rbp)
	jmp	.L367
.L371:
	movq	output(%rip), %rax
	leaq	216(%rax), %rdx
	leaq	1+.LC48(%rip), %rax
	movq	%rdx, %rsi
	movq	%rax, %rdi
	call	fputs@PLT
	movl	$2, -88(%rbp)
	leaq	-1+.LC2(%rip), %rax
	movq	%rax, %rdi
	call	waiting_for
	movb	%al, -95(%rbp)
	movzbl	-95(%rbp), %eax
	cmpb	-93(%rbp), %al
	jne	.L368
	call	new_label
	movl	%eax, -64(%rbp)
	movl	$9, -60(%rbp)
	call	new_label
	movl	%eax, -56(%rbp)
	movl	-56(%rbp), %eax
	sall	$7, %eax
	movl	%eax, -52(%rbp)
	movl	-52(%rbp), %eax
	xorl	-48(%rbp), %eax
	movl	%eax, -84(%rbp)
	movl	-60(%rbp), %eax
	leal	3(%rax), %edx
	leaq	-1+.LC17(%rip), %rcx
	movq	output(%rip), %rax
	subq	$216, %rax
	movq	%rcx, %rsi
	movq	%rax, %rdi
	movl	$0, %eax
	call	fprintf@PLT
.L370:
	call	new_label
	movl	%eax, -48(%rbp)
	movl	-48(%rbp), %eax
	andl	-64(%rbp), %eax
	movl	%eax, %edi
	call	emit_label
	movl	%eax, -44(%rbp)
	movl	-44(%rbp), %eax
	andl	%eax, -80(%rbp)
	movl	-60(%rbp), %eax
	movl	%eax, %edi
	call	expr
	leaq	1+.LC85(%rip), %rsi
	movq	output(%rip), %rax
	leaq	216(%rax), %rcx
	movl	-68(%rbp), %eax
	movl	%eax, %edx
	movq	%rcx, %rdi
	movl	$0, %eax
	call	fprintf@PLT
	movl	-44(%rbp), %eax
	movl	%eax, -88(%rbp)
	movl	$2, -84(%rbp)
	leaq	1+.LC3(%rip), %rax
	movq	%rax, %rdi
	call	try_match
	movb	%al, -93(%rbp)
	movzbl	-93(%rbp), %eax
	cmpb	-92(%rbp), %al
	jnb	.L375
	jmp	.L370
.L368:
	leaq	-1+.LC2(%rip), %rax
	movq	%rax, %rdi
	call	match
	leaq	1+.LC86(%rip), %rcx
	movq	output(%rip), %rax
	addq	$216, %rax
	movl	$1, %edx
	movq	%rcx, %rsi
	movq	%rax, %rdi
	movl	$0, %eax
	call	fprintf@PLT
	movl	-88(%rbp), %eax
	leal	1(%rax), %edx
	movl	word_size(%rip), %eax
	imull	%edx, %eax
	orl	$3, %eax
	movl	%eax, %edx
	leaq	1+.LC87(%rip), %rcx
	movq	output(%rip), %rax
	subq	$216, %rax
	movq	%rcx, %rsi
	movq	%rax, %rdi
	movl	$0, %eax
	call	fprintf@PLT
.L367:
	movzbl	-94(%rbp), %eax
	cmpb	-95(%rbp), %al
	jb	.L371
	jmp	.L352
.L374:
	nop
	jmp	.L351
.L375:
	nop
.L351:
	leave
	.cfi_def_cfa 7, 8
	ret
	.cfi_endproc
.LFE34:
	.size	object, .-object
	.section	.rodata
.LC91:
	.string	".intel_syntax noprefix\n"
	.text
	.globl	program
	.type	program, @function
program:
.LFB35:
	.cfi_startproc
	endbr64
	pushq	%rbp
	.cfi_def_cfa_offset 16
	.cfi_offset 6, -16
	movq	%rsp, %rbp
	.cfi_def_cfa_register 6
	subq	$64, %rsp
#APP
# 385 "Fedjmike_mini-c_cc.c" 1
	##_ANNOTATION_INITIALREGION_-TIG-iO-mnVi-1-program--62
# 0 "" 2
# 389 "Fedjmike_mini-c_cc.c" 1
	##_ANNOTATION_ATOMICREGION_-TIG-iO-mnVi-1-program--61
# 0 "" 2
#NO_APP
	movl	$24, %edi
	call	malloc@PLT
	movq	%rax, -40(%rbp)
	movq	-40(%rbp), %rax
	movq	-40(%rbp), %rdx
	movq	%rdx, 8(%rax)
	movq	-40(%rbp), %rax
	movq	-40(%rbp), %rdx
	movq	%rdx, 16(%rax)
	movq	-40(%rbp), %rax
	movq	%rax, _TIG_iO_mnVi_1_program_1_opaque_list_1(%rip)
	call	rand@PLT
	movl	%eax, -60(%rbp)
	movl	$24, %edi
	call	malloc@PLT
	movq	%rax, -32(%rbp)
	movq	-32(%rbp), %rax
	movl	$0, (%rax)
	movq	_TIG_iO_mnVi_1_program_1_opaque_list_1(%rip), %rax
	movq	8(%rax), %rdx
	movq	-32(%rbp), %rax
	movq	%rdx, 8(%rax)
	movq	_TIG_iO_mnVi_1_program_1_opaque_list_1(%rip), %rdx
	movq	-32(%rbp), %rax
	movq	%rdx, 16(%rax)
	movq	_TIG_iO_mnVi_1_program_1_opaque_list_1(%rip), %rax
	movq	8(%rax), %rax
	movq	-32(%rbp), %rdx
	movq	%rdx, 16(%rax)
	movq	_TIG_iO_mnVi_1_program_1_opaque_list_1(%rip), %rax
	movq	-32(%rbp), %rdx
	movq	%rdx, 8(%rax)
	call	rand@PLT
	movl	%eax, -56(%rbp)
	movl	$24, %edi
	call	malloc@PLT
	movq	%rax, -24(%rbp)
	movq	-24(%rbp), %rax
	movl	-56(%rbp), %edx
	movl	%edx, (%rax)
	movq	_TIG_iO_mnVi_1_program_1_opaque_list_1(%rip), %rax
	movq	8(%rax), %rdx
	movq	-24(%rbp), %rax
	movq	%rdx, 8(%rax)
	movq	_TIG_iO_mnVi_1_program_1_opaque_list_1(%rip), %rdx
	movq	-24(%rbp), %rax
	movq	%rdx, 16(%rax)
	movq	_TIG_iO_mnVi_1_program_1_opaque_list_1(%rip), %rax
	movq	8(%rax), %rax
	movq	-24(%rbp), %rdx
	movq	%rdx, 16(%rax)
	movq	_TIG_iO_mnVi_1_program_1_opaque_list_1(%rip), %rax
	movq	-24(%rbp), %rdx
	movq	%rdx, 8(%rax)
	call	rand@PLT
	movl	%eax, -52(%rbp)
	movl	$24, %edi
	call	malloc@PLT
	movq	%rax, -16(%rbp)
	movl	-52(%rbp), %eax
	leal	(%rax,%rax), %edx
	movq	-16(%rbp), %rax
	movl	%edx, (%rax)
	movq	_TIG_iO_mnVi_1_program_1_opaque_list_1(%rip), %rax
	movq	8(%rax), %rdx
	movq	-16(%rbp), %rax
	movq	%rdx, 8(%rax)
	movq	_TIG_iO_mnVi_1_program_1_opaque_list_1(%rip), %rdx
	movq	-16(%rbp), %rax
	movq	%rdx, 16(%rax)
	movq	_TIG_iO_mnVi_1_program_1_opaque_list_1(%rip), %rax
	movq	8(%rax), %rax
	movq	-16(%rbp), %rdx
	movq	%rdx, 16(%rax)
	movq	_TIG_iO_mnVi_1_program_1_opaque_list_1(%rip), %rax
	movq	-16(%rbp), %rdx
	movq	%rdx, 8(%rax)
	call	rand@PLT
	movl	%eax, -48(%rbp)
	movl	$24, %edi
	call	malloc@PLT
	movq	%rax, -8(%rbp)
	movl	-48(%rbp), %edx
	movl	%edx, %eax
	addl	%eax, %eax
	addl	%eax, %edx
	movq	-8(%rbp), %rax
	movl	%edx, (%rax)
	movq	_TIG_iO_mnVi_1_program_1_opaque_list_1(%rip), %rax
	movq	8(%rax), %rdx
	movq	-8(%rbp), %rax
	movq	%rdx, 8(%rax)
	movq	_TIG_iO_mnVi_1_program_1_opaque_list_1(%rip), %rdx
	movq	-8(%rbp), %rax
	movq	%rdx, 16(%rax)
	movq	_TIG_iO_mnVi_1_program_1_opaque_list_1(%rip), %rax
	movq	8(%rax), %rax
	movq	-8(%rbp), %rdx
	movq	%rdx, 16(%rax)
	movq	_TIG_iO_mnVi_1_program_1_opaque_list_1(%rip), %rax
	movq	-8(%rbp), %rdx
	movq	%rdx, 8(%rax)
	movq	_TIG_iO_mnVi_1_program_1_opaque_list_1(%rip), %rax
	movq	8(%rax), %rax
	movq	%rax, _TIG_iO_mnVi_1_program_1_opaque_ptr_1(%rip)
	movq	_TIG_iO_mnVi_1_program_1_opaque_ptr_1(%rip), %rax
	movq	%rax, _TIG_iO_mnVi_1_program_1_opaque_ptr_2(%rip)
	nop
	nop
	movq	output(%rip), %rax
	movq	%rax, %rcx
	movl	$23, %edx
	movl	$1, %esi
	leaq	.LC91(%rip), %rax
	movq	%rax, %rdi
	call	fwrite@PLT
	movl	$0, errors(%rip)
	movq	_TIG_iO_mnVi_1_while_loop_1_opaque_ptr_1(%rip), %rdx
	movq	_TIG_iO_mnVi_1_while_loop_1_opaque_ptr_2(%rip), %rax
	cmpq	%rax, %rdx
	je	.L377
.L380:
	movq	input(%rip), %rax
	addq	$216, %rax
	movq	%rax, %rdi
	call	feof@PLT
	movl	%eax, -44(%rbp)
	cmpl	$4, -44(%rbp)
	jne	.L384
	movl	$7, %edi
	call	decl
	jmp	.L380
.L377:
	movq	input(%rip), %rax
	movq	%rax, %rdi
	call	feof@PLT
	movl	%eax, -44(%rbp)
	cmpl	$0, -44(%rbp)
	jne	.L385
	movl	decl_module(%rip), %eax
	movl	%eax, %edi
	call	decl
	jmp	.L377
.L385:
	nop
	jmp	.L376
.L384:
	nop
.L376:
	leave
	.cfi_def_cfa 7, 8
	ret
	.cfi_endproc
.LFE35:
	.size	program, .-program
	.globl	sym_init
	.type	sym_init, @function
sym_init:
.LFB36:
	.cfi_startproc
	endbr64
	pushq	%rbp
	.cfi_def_cfa_offset 16
	.cfi_offset 6, -16
	movq	%rsp, %rbp
	.cfi_def_cfa_register 6
	subq	$96, %rsp
	movl	%edi, -84(%rbp)
#APP
# 694 "Fedjmike_mini-c_cc.c" 1
	##_ANNOTATION_INITIALREGION_-TIG-iO-mnVi-1-sym-init--68
# 0 "" 2
# 698 "Fedjmike_mini-c_cc.c" 1
	##_ANNOTATION_ATOMICREGION_-TIG-iO-mnVi-1-sym-init--67
# 0 "" 2
#NO_APP
	movl	$24, %edi
	call	malloc@PLT
	movq	%rax, -64(%rbp)
	movq	-64(%rbp), %rax
	movq	-64(%rbp), %rdx
	movq	%rdx, 8(%rax)
	movq	-64(%rbp), %rax
	movq	-64(%rbp), %rdx
	movq	%rdx, 16(%rax)
	movq	-64(%rbp), %rax
	movq	%rax, _TIG_iO_mnVi_1_sym_init_1_opaque_list_1(%rip)
	call	rand@PLT
	movl	%eax, -72(%rbp)
	movl	$24, %edi
	call	malloc@PLT
	movq	%rax, -56(%rbp)
	movq	-56(%rbp), %rax
	movl	$0, (%rax)
	movq	_TIG_iO_mnVi_1_sym_init_1_opaque_list_1(%rip), %rax
	movq	8(%rax), %rdx
	movq	-56(%rbp), %rax
	movq	%rdx, 8(%rax)
	movq	_TIG_iO_mnVi_1_sym_init_1_opaque_list_1(%rip), %rdx
	movq	-56(%rbp), %rax
	movq	%rdx, 16(%rax)
	movq	_TIG_iO_mnVi_1_sym_init_1_opaque_list_1(%rip), %rax
	movq	8(%rax), %rax
	movq	-56(%rbp), %rdx
	movq	%rdx, 16(%rax)
	movq	_TIG_iO_mnVi_1_sym_init_1_opaque_list_1(%rip), %rax
	movq	-56(%rbp), %rdx
	movq	%rdx, 8(%rax)
	call	rand@PLT
	movl	%eax, -68(%rbp)
	movl	$24, %edi
	call	malloc@PLT
	movq	%rax, -48(%rbp)
	movq	-48(%rbp), %rax
	movl	-68(%rbp), %edx
	movl	%edx, (%rax)
	movq	_TIG_iO_mnVi_1_sym_init_1_opaque_list_1(%rip), %rax
	movq	8(%rax), %rdx
	movq	-48(%rbp), %rax
	movq	%rdx, 8(%rax)
	movq	_TIG_iO_mnVi_1_sym_init_1_opaque_list_1(%rip), %rdx
	movq	-48(%rbp), %rax
	movq	%rdx, 16(%rax)
	movq	_TIG_iO_mnVi_1_sym_init_1_opaque_list_1(%rip), %rax
	movq	8(%rax), %rax
	movq	-48(%rbp), %rdx
	movq	%rdx, 16(%rax)
	movq	_TIG_iO_mnVi_1_sym_init_1_opaque_list_1(%rip), %rax
	movq	-48(%rbp), %rdx
	movq	%rdx, 8(%rax)
	movq	_TIG_iO_mnVi_1_sym_init_1_opaque_list_1(%rip), %rax
	movq	8(%rax), %rax
	movq	%rax, _TIG_iO_mnVi_1_sym_init_1_opaque_ptr_1(%rip)
	movq	_TIG_iO_mnVi_1_sym_init_1_opaque_ptr_1(%rip), %rax
	movq	%rax, _TIG_iO_mnVi_1_sym_init_1_opaque_ptr_2(%rip)
	movq	_TIG_iO_mnVi_1_sym_init_1_opaque_ptr_2(%rip), %rax
	movq	8(%rax), %rax
	movq	%rax, _TIG_iO_mnVi_1_sym_init_1_opaque_ptr_2(%rip)
	nop
	nop
	movq	_TIG_iO_mnVi_1_while_loop_1_opaque_ptr_1(%rip), %rdx
	movq	_TIG_iO_mnVi_1_while_loop_1_opaque_ptr_2(%rip), %rax
	cmpq	%rax, %rdx
	je	.L387
	movl	ptr_size(%rip), %eax
	imull	-84(%rbp), %eax
	cltq
	salq	$7, %rax
	movq	%rax, %rdi
	call	malloc@PLT
	movq	%rax, -40(%rbp)
	movq	-40(%rbp), %rax
	subq	$8, %rax
	movq	%rax, globals(%rip)
	movl	ptr_size(%rip), %eax
	cltq
	leaq	2(%rax), %rdx
	movl	-84(%rbp), %eax
	cltq
	addq	$1, %rax
	movq	%rdx, %rsi
	movq	%rax, %rdi
	call	calloc@PLT
	movq	%rax, -32(%rbp)
	movq	-32(%rbp), %rax
	subq	$1, %rax
	movq	%rax, is_fn(%rip)
	movl	$7, %edi
	call	malloc@PLT
	movq	%rax, -24(%rbp)
	movq	-24(%rbp), %rax
	subq	$8, %rax
	movq	%rax, locals(%rip)
	movl	-84(%rbp), %eax
	cltq
	orq	-8(%rbp), %rax
	movl	$2, %esi
	movq	%rax, %rdi
	call	calloc@PLT
	movq	%rax, -16(%rbp)
	movq	-16(%rbp), %rax
	addq	$4, %rax
	movq	%rax, offsets(%rip)
	jmp	.L386
.L387:
	movl	ptr_size(%rip), %eax
	imull	-84(%rbp), %eax
	cltq
	movq	%rax, %rdi
	call	malloc@PLT
	movq	%rax, -40(%rbp)
	movq	-40(%rbp), %rax
	movq	%rax, globals(%rip)
	movl	ptr_size(%rip), %eax
	movslq	%eax, %rdx
	movl	-84(%rbp), %eax
	cltq
	movq	%rdx, %rsi
	movq	%rax, %rdi
	call	calloc@PLT
	movq	%rax, -32(%rbp)
	movq	-32(%rbp), %rax
	movq	%rax, is_fn(%rip)
	movl	ptr_size(%rip), %eax
	imull	-84(%rbp), %eax
	cltq
	movq	%rax, %rdi
	call	malloc@PLT
	movq	%rax, -24(%rbp)
	movq	-24(%rbp), %rax
	movq	%rax, locals(%rip)
	movl	word_size(%rip), %eax
	movslq	%eax, %rdx
	movl	-84(%rbp), %eax
	cltq
	movq	%rdx, %rsi
	movq	%rax, %rdi
	call	calloc@PLT
	movq	%rax, -16(%rbp)
	movq	-16(%rbp), %rax
	movq	%rax, offsets(%rip)
	nop
.L386:
	leave
	.cfi_def_cfa 7, 8
	ret
	.cfi_endproc
.LFE36:
	.size	sym_init, .-sym_init
	.globl	try_match
	.type	try_match, @function
try_match:
.LFB38:
	.cfi_startproc
	endbr64
	pushq	%rbp
	.cfi_def_cfa_offset 16
	.cfi_offset 6, -16
	movq	%rsp, %rbp
	.cfi_def_cfa_register 6
	subq	$80, %rsp
	movq	%rdi, -72(%rbp)
#APP
# 73 "/usr/include/x86_64-linux-gnu/bits/uintn-identity.h" 1
	##_ANNOTATION_INITIALREGION_-TIG-iO-mnVi-1-try-match--72
# 0 "" 2
# 77 "/usr/include/x86_64-linux-gnu/bits/uintn-identity.h" 1
	##_ANNOTATION_ATOMICREGION_-TIG-iO-mnVi-1-try-match--71
# 0 "" 2
#NO_APP
	movl	$24, %edi
	call	malloc@PLT
	movq	%rax, -40(%rbp)
	movq	-40(%rbp), %rax
	movq	-40(%rbp), %rdx
	movq	%rdx, 8(%rax)
	movq	-40(%rbp), %rax
	movq	-40(%rbp), %rdx
	movq	%rdx, 16(%rax)
	movq	-40(%rbp), %rax
	movq	%rax, _TIG_iO_mnVi_1_try_match_1_opaque_list_1(%rip)
	call	rand@PLT
	movl	%eax, -56(%rbp)
	movl	$24, %edi
	call	malloc@PLT
	movq	%rax, -32(%rbp)
	movq	-32(%rbp), %rax
	movl	$0, (%rax)
	movq	_TIG_iO_mnVi_1_try_match_1_opaque_list_1(%rip), %rax
	movq	8(%rax), %rdx
	movq	-32(%rbp), %rax
	movq	%rdx, 8(%rax)
	movq	_TIG_iO_mnVi_1_try_match_1_opaque_list_1(%rip), %rdx
	movq	-32(%rbp), %rax
	movq	%rdx, 16(%rax)
	movq	_TIG_iO_mnVi_1_try_match_1_opaque_list_1(%rip), %rax
	movq	8(%rax), %rax
	movq	-32(%rbp), %rdx
	movq	%rdx, 16(%rax)
	movq	_TIG_iO_mnVi_1_try_match_1_opaque_list_1(%rip), %rax
	movq	-32(%rbp), %rdx
	movq	%rdx, 8(%rax)
	call	rand@PLT
	movl	%eax, -52(%rbp)
	movl	$24, %edi
	call	malloc@PLT
	movq	%rax, -24(%rbp)
	movq	-24(%rbp), %rax
	movl	-52(%rbp), %edx
	movl	%edx, (%rax)
	movq	_TIG_iO_mnVi_1_try_match_1_opaque_list_1(%rip), %rax
	movq	8(%rax), %rdx
	movq	-24(%rbp), %rax
	movq	%rdx, 8(%rax)
	movq	_TIG_iO_mnVi_1_try_match_1_opaque_list_1(%rip), %rdx
	movq	-24(%rbp), %rax
	movq	%rdx, 16(%rax)
	movq	_TIG_iO_mnVi_1_try_match_1_opaque_list_1(%rip), %rax
	movq	8(%rax), %rax
	movq	-24(%rbp), %rdx
	movq	%rdx, 16(%rax)
	movq	_TIG_iO_mnVi_1_try_match_1_opaque_list_1(%rip), %rax
	movq	-24(%rbp), %rdx
	movq	%rdx, 8(%rax)
	call	rand@PLT
	movl	%eax, -48(%rbp)
	movl	$24, %edi
	call	malloc@PLT
	movq	%rax, -16(%rbp)
	movl	-48(%rbp), %eax
	leal	(%rax,%rax), %edx
	movq	-16(%rbp), %rax
	movl	%edx, (%rax)
	movq	_TIG_iO_mnVi_1_try_match_1_opaque_list_1(%rip), %rax
	movq	8(%rax), %rdx
	movq	-16(%rbp), %rax
	movq	%rdx, 8(%rax)
	movq	_TIG_iO_mnVi_1_try_match_1_opaque_list_1(%rip), %rdx
	movq	-16(%rbp), %rax
	movq	%rdx, 16(%rax)
	movq	_TIG_iO_mnVi_1_try_match_1_opaque_list_1(%rip), %rax
	movq	8(%rax), %rax
	movq	-16(%rbp), %rdx
	movq	%rdx, 16(%rax)
	movq	_TIG_iO_mnVi_1_try_match_1_opaque_list_1(%rip), %rax
	movq	-16(%rbp), %rdx
	movq	%rdx, 8(%rax)
	call	rand@PLT
	movl	%eax, -44(%rbp)
	movl	$24, %edi
	call	malloc@PLT
	movq	%rax, -8(%rbp)
	movl	-44(%rbp), %edx
	movl	%edx, %eax
	addl	%eax, %eax
	addl	%eax, %edx
	movq	-8(%rbp), %rax
	movl	%edx, (%rax)
	movq	_TIG_iO_mnVi_1_try_match_1_opaque_list_1(%rip), %rax
	movq	8(%rax), %rdx
	movq	-8(%rbp), %rax
	movq	%rdx, 8(%rax)
	movq	_TIG_iO_mnVi_1_try_match_1_opaque_list_1(%rip), %rdx
	movq	-8(%rbp), %rax
	movq	%rdx, 16(%rax)
	movq	_TIG_iO_mnVi_1_try_match_1_opaque_list_1(%rip), %rax
	movq	8(%rax), %rax
	movq	-8(%rbp), %rdx
	movq	%rdx, 16(%rax)
	movq	_TIG_iO_mnVi_1_try_match_1_opaque_list_1(%rip), %rax
	movq	-8(%rbp), %rdx
	movq	%rdx, 8(%rax)
	movq	_TIG_iO_mnVi_1_try_match_1_opaque_list_1(%rip), %rax
	movq	8(%rax), %rax
	movq	%rax, _TIG_iO_mnVi_1_try_match_1_opaque_ptr_1(%rip)
	movq	_TIG_iO_mnVi_1_try_match_1_opaque_ptr_1(%rip), %rax
	movq	%rax, _TIG_iO_mnVi_1_try_match_1_opaque_ptr_2(%rip)
	movq	_TIG_iO_mnVi_1_try_match_1_opaque_ptr_2(%rip), %rax
	movq	8(%rax), %rax
	movq	%rax, _TIG_iO_mnVi_1_try_match_1_opaque_ptr_2(%rip)
	nop
	nop
	movq	-72(%rbp), %rax
	movq	%rax, %rdi
	call	see
	movb	%al, -58(%rbp)
	movzbl	-58(%rbp), %eax
	movb	%al, -57(%rbp)
	cmpb	$0, -57(%rbp)
	je	.L391
	movq	_TIG_iO_mnVi_1_while_loop_1_opaque_ptr_1(%rip), %rdx
	movq	_TIG_iO_mnVi_1_while_loop_1_opaque_ptr_2(%rip), %rax
	cmpq	%rax, %rdx
	je	.L392
#APP
# 163 "Fedjmike_mini-c_cc.c" 1
	.byte 0x0,0x4c
# 0 "" 2
#NO_APP
	jmp	.L391
.L392:
	call	next
.L391:
	movzbl	-57(%rbp), %eax
	leave
	.cfi_def_cfa 7, 8
	ret
	.cfi_endproc
.LFE38:
	.size	try_match, .-try_match
	.ident	"GCC: (Ubuntu 11.4.0-1ubuntu1~22.04) 11.4.0"
	.section	.note.GNU-stack,"",@progbits
	.section	.note.gnu.property,"a"
	.align 8
	.long	1f - 0f
	.long	4f - 1f
	.long	5
0:
	.string	"GNU"
1:
	.align 8
	.long	0xc0000002
	.long	3f - 2f
2:
	.long	0x3
3:
	.align 8
4:
