	.file	"Fowleyy_FAI-SWI_main_opaque.c"
	.text
	.globl	_TIG_iO_FmFG_1_newton_run_1_opaque_list_2
	.bss
	.align 8
	.type	_TIG_iO_FmFG_1_newton_run_1_opaque_list_2, @object
	.size	_TIG_iO_FmFG_1_newton_run_1_opaque_list_2, 8
_TIG_iO_FmFG_1_newton_run_1_opaque_list_2:
	.zero	8
	.globl	_TIG_iO_FmFG_1___uint32_identity_1_opaque_list_2
	.align 8
	.type	_TIG_iO_FmFG_1___uint32_identity_1_opaque_list_2, @object
	.size	_TIG_iO_FmFG_1___uint32_identity_1_opaque_list_2, 8
_TIG_iO_FmFG_1___uint32_identity_1_opaque_list_2:
	.zero	8
	.globl	_TIG_iO_FmFG_1___bswap_16_1_opaque_ptr_1
	.align 8
	.type	_TIG_iO_FmFG_1___bswap_16_1_opaque_ptr_1, @object
	.size	_TIG_iO_FmFG_1___bswap_16_1_opaque_ptr_1, 8
_TIG_iO_FmFG_1___bswap_16_1_opaque_ptr_1:
	.zero	8
	.globl	_TIG_iO_FmFG_1___bswap_64_1_opaque_list_2
	.align 8
	.type	_TIG_iO_FmFG_1___bswap_64_1_opaque_list_2, @object
	.size	_TIG_iO_FmFG_1___bswap_64_1_opaque_list_2, 8
_TIG_iO_FmFG_1___bswap_64_1_opaque_list_2:
	.zero	8
	.globl	_TIG_iO_FmFG_1___bswap_32_1_opaque_list_2
	.align 8
	.type	_TIG_iO_FmFG_1___bswap_32_1_opaque_list_2, @object
	.size	_TIG_iO_FmFG_1___bswap_32_1_opaque_list_2, 8
_TIG_iO_FmFG_1___bswap_32_1_opaque_list_2:
	.zero	8
	.globl	_TIG_iO_FmFG_1___uint16_identity_1_opaque_list_2
	.align 8
	.type	_TIG_iO_FmFG_1___uint16_identity_1_opaque_list_2, @object
	.size	_TIG_iO_FmFG_1___uint16_identity_1_opaque_list_2, 8
_TIG_iO_FmFG_1___uint16_identity_1_opaque_list_2:
	.zero	8
	.globl	_TIG_iO_FmFG_1___uint64_identity_1_opaque_ptr_2
	.align 8
	.type	_TIG_iO_FmFG_1___uint64_identity_1_opaque_ptr_2, @object
	.size	_TIG_iO_FmFG_1___uint64_identity_1_opaque_ptr_2, 8
_TIG_iO_FmFG_1___uint64_identity_1_opaque_ptr_2:
	.zero	8
	.globl	_TIG_iO_FmFG_1_df_1_opaque_list_1
	.align 8
	.type	_TIG_iO_FmFG_1_df_1_opaque_list_1, @object
	.size	_TIG_iO_FmFG_1_df_1_opaque_list_1, 8
_TIG_iO_FmFG_1_df_1_opaque_list_1:
	.zero	8
	.globl	_TIG_IZ_FmFG_argc
	.align 4
	.type	_TIG_IZ_FmFG_argc, @object
	.size	_TIG_IZ_FmFG_argc, 4
_TIG_IZ_FmFG_argc:
	.zero	4
	.globl	_TIG_iO_FmFG_1_newton_run_1_opaque_ptr_1
	.align 8
	.type	_TIG_iO_FmFG_1_newton_run_1_opaque_ptr_1, @object
	.size	_TIG_iO_FmFG_1_newton_run_1_opaque_ptr_1, 8
_TIG_iO_FmFG_1_newton_run_1_opaque_ptr_1:
	.zero	8
	.globl	_TIG_iO_FmFG_1_main_1_opaque_list_2
	.align 8
	.type	_TIG_iO_FmFG_1_main_1_opaque_list_2, @object
	.size	_TIG_iO_FmFG_1_main_1_opaque_list_2, 8
_TIG_iO_FmFG_1_main_1_opaque_list_2:
	.zero	8
	.globl	_TIG_iO_FmFG_1_f_1_opaque_ptr_2
	.align 8
	.type	_TIG_iO_FmFG_1_f_1_opaque_ptr_2, @object
	.size	_TIG_iO_FmFG_1_f_1_opaque_ptr_2, 8
_TIG_iO_FmFG_1_f_1_opaque_ptr_2:
	.zero	8
	.globl	_TIG_iO_FmFG_1___bswap_32_1_opaque_ptr_1
	.align 8
	.type	_TIG_iO_FmFG_1___bswap_32_1_opaque_ptr_1, @object
	.size	_TIG_iO_FmFG_1___bswap_32_1_opaque_ptr_1, 8
_TIG_iO_FmFG_1___bswap_32_1_opaque_ptr_1:
	.zero	8
	.globl	_TIG_iO_FmFG_1___uint32_identity_1_opaque_list_1
	.align 8
	.type	_TIG_iO_FmFG_1___uint32_identity_1_opaque_list_1, @object
	.size	_TIG_iO_FmFG_1___uint32_identity_1_opaque_list_1, 8
_TIG_iO_FmFG_1___uint32_identity_1_opaque_list_1:
	.zero	8
	.globl	_TIG_iO_FmFG_1___bswap_64_1_opaque_ptr_2
	.align 8
	.type	_TIG_iO_FmFG_1___bswap_64_1_opaque_ptr_2, @object
	.size	_TIG_iO_FmFG_1___bswap_64_1_opaque_ptr_2, 8
_TIG_iO_FmFG_1___bswap_64_1_opaque_ptr_2:
	.zero	8
	.globl	_TIG_iO_FmFG_1___uint64_identity_1_opaque_ptr_1
	.align 8
	.type	_TIG_iO_FmFG_1___uint64_identity_1_opaque_ptr_1, @object
	.size	_TIG_iO_FmFG_1___uint64_identity_1_opaque_ptr_1, 8
_TIG_iO_FmFG_1___uint64_identity_1_opaque_ptr_1:
	.zero	8
	.globl	_TIG_iO_FmFG_1___bswap_16_1_opaque_ptr_2
	.align 8
	.type	_TIG_iO_FmFG_1___bswap_16_1_opaque_ptr_2, @object
	.size	_TIG_iO_FmFG_1___bswap_16_1_opaque_ptr_2, 8
_TIG_iO_FmFG_1___bswap_16_1_opaque_ptr_2:
	.zero	8
	.globl	_TIG_iO_FmFG_1_df_1_opaque_ptr_1
	.align 8
	.type	_TIG_iO_FmFG_1_df_1_opaque_ptr_1, @object
	.size	_TIG_iO_FmFG_1_df_1_opaque_ptr_1, 8
_TIG_iO_FmFG_1_df_1_opaque_ptr_1:
	.zero	8
	.globl	_TIG_iO_FmFG_1_newton_runn_1_opaque_ptr_1
	.align 8
	.type	_TIG_iO_FmFG_1_newton_runn_1_opaque_ptr_1, @object
	.size	_TIG_iO_FmFG_1_newton_runn_1_opaque_ptr_1, 8
_TIG_iO_FmFG_1_newton_runn_1_opaque_ptr_1:
	.zero	8
	.globl	_TIG_iO_FmFG_1___bswap_16_1_opaque_list_1
	.align 8
	.type	_TIG_iO_FmFG_1___bswap_16_1_opaque_list_1, @object
	.size	_TIG_iO_FmFG_1___bswap_16_1_opaque_list_1, 8
_TIG_iO_FmFG_1___bswap_16_1_opaque_list_1:
	.zero	8
	.globl	_TIG_IZ_FmFG_envp
	.align 8
	.type	_TIG_IZ_FmFG_envp, @object
	.size	_TIG_IZ_FmFG_envp, 8
_TIG_IZ_FmFG_envp:
	.zero	8
	.globl	_TIG_iO_FmFG_1_newton_run_1_opaque_list_1
	.align 8
	.type	_TIG_iO_FmFG_1_newton_run_1_opaque_list_1, @object
	.size	_TIG_iO_FmFG_1_newton_run_1_opaque_list_1, 8
_TIG_iO_FmFG_1_newton_run_1_opaque_list_1:
	.zero	8
	.globl	_TIG_iO_FmFG_1_newton_runn_1_opaque_list_1
	.align 8
	.type	_TIG_iO_FmFG_1_newton_runn_1_opaque_list_1, @object
	.size	_TIG_iO_FmFG_1_newton_runn_1_opaque_list_1, 8
_TIG_iO_FmFG_1_newton_runn_1_opaque_list_1:
	.zero	8
	.globl	_TIG_IZ_FmFG_argv
	.align 8
	.type	_TIG_IZ_FmFG_argv, @object
	.size	_TIG_IZ_FmFG_argv, 8
_TIG_IZ_FmFG_argv:
	.zero	8
	.globl	_TIG_iO_FmFG_1_main_1_opaque_ptr_2
	.align 8
	.type	_TIG_iO_FmFG_1_main_1_opaque_ptr_2, @object
	.size	_TIG_iO_FmFG_1_main_1_opaque_ptr_2, 8
_TIG_iO_FmFG_1_main_1_opaque_ptr_2:
	.zero	8
	.globl	_TIG_iO_FmFG_1_newton_1_opaque_list_1
	.align 8
	.type	_TIG_iO_FmFG_1_newton_1_opaque_list_1, @object
	.size	_TIG_iO_FmFG_1_newton_1_opaque_list_1, 8
_TIG_iO_FmFG_1_newton_1_opaque_list_1:
	.zero	8
	.globl	_TIG_iO_FmFG_1___uint16_identity_1_opaque_ptr_1
	.align 8
	.type	_TIG_iO_FmFG_1___uint16_identity_1_opaque_ptr_1, @object
	.size	_TIG_iO_FmFG_1___uint16_identity_1_opaque_ptr_1, 8
_TIG_iO_FmFG_1___uint16_identity_1_opaque_ptr_1:
	.zero	8
	.globl	_TIG_iO_FmFG_1_main_1_opaque_list_1
	.align 8
	.type	_TIG_iO_FmFG_1_main_1_opaque_list_1, @object
	.size	_TIG_iO_FmFG_1_main_1_opaque_list_1, 8
_TIG_iO_FmFG_1_main_1_opaque_list_1:
	.zero	8
	.globl	_TIG_iO_FmFG_1___bswap_64_1_opaque_list_1
	.align 8
	.type	_TIG_iO_FmFG_1___bswap_64_1_opaque_list_1, @object
	.size	_TIG_iO_FmFG_1___bswap_64_1_opaque_list_1, 8
_TIG_iO_FmFG_1___bswap_64_1_opaque_list_1:
	.zero	8
	.globl	_TIG_iO_FmFG_1_newton_1_opaque_ptr_2
	.align 8
	.type	_TIG_iO_FmFG_1_newton_1_opaque_ptr_2, @object
	.size	_TIG_iO_FmFG_1_newton_1_opaque_ptr_2, 8
_TIG_iO_FmFG_1_newton_1_opaque_ptr_2:
	.zero	8
	.globl	_TIG_iO_FmFG_1___uint16_identity_1_opaque_ptr_2
	.align 8
	.type	_TIG_iO_FmFG_1___uint16_identity_1_opaque_ptr_2, @object
	.size	_TIG_iO_FmFG_1___uint16_identity_1_opaque_ptr_2, 8
_TIG_iO_FmFG_1___uint16_identity_1_opaque_ptr_2:
	.zero	8
	.globl	_TIG_iO_FmFG_1_newton_run_1_opaque_ptr_2
	.align 8
	.type	_TIG_iO_FmFG_1_newton_run_1_opaque_ptr_2, @object
	.size	_TIG_iO_FmFG_1_newton_run_1_opaque_ptr_2, 8
_TIG_iO_FmFG_1_newton_run_1_opaque_ptr_2:
	.zero	8
	.globl	_TIG_iO_FmFG_1___uint64_identity_1_opaque_list_1
	.align 8
	.type	_TIG_iO_FmFG_1___uint64_identity_1_opaque_list_1, @object
	.size	_TIG_iO_FmFG_1___uint64_identity_1_opaque_list_1, 8
_TIG_iO_FmFG_1___uint64_identity_1_opaque_list_1:
	.zero	8
	.globl	_TIG_iO_FmFG_1_df_1_opaque_ptr_2
	.align 8
	.type	_TIG_iO_FmFG_1_df_1_opaque_ptr_2, @object
	.size	_TIG_iO_FmFG_1_df_1_opaque_ptr_2, 8
_TIG_iO_FmFG_1_df_1_opaque_ptr_2:
	.zero	8
	.globl	_TIG_iO_FmFG_1_newton_1_opaque_list_2
	.align 8
	.type	_TIG_iO_FmFG_1_newton_1_opaque_list_2, @object
	.size	_TIG_iO_FmFG_1_newton_1_opaque_list_2, 8
_TIG_iO_FmFG_1_newton_1_opaque_list_2:
	.zero	8
	.globl	_TIG_iO_FmFG_1_newton_runn_1_opaque_ptr_2
	.align 8
	.type	_TIG_iO_FmFG_1_newton_runn_1_opaque_ptr_2, @object
	.size	_TIG_iO_FmFG_1_newton_runn_1_opaque_ptr_2, 8
_TIG_iO_FmFG_1_newton_runn_1_opaque_ptr_2:
	.zero	8
	.globl	_TIG_iO_FmFG_1___uint16_identity_1_opaque_list_1
	.align 8
	.type	_TIG_iO_FmFG_1___uint16_identity_1_opaque_list_1, @object
	.size	_TIG_iO_FmFG_1___uint16_identity_1_opaque_list_1, 8
_TIG_iO_FmFG_1___uint16_identity_1_opaque_list_1:
	.zero	8
	.globl	_TIG_iO_FmFG_1___uint64_identity_1_opaque_list_2
	.align 8
	.type	_TIG_iO_FmFG_1___uint64_identity_1_opaque_list_2, @object
	.size	_TIG_iO_FmFG_1___uint64_identity_1_opaque_list_2, 8
_TIG_iO_FmFG_1___uint64_identity_1_opaque_list_2:
	.zero	8
	.globl	_TIG_iO_FmFG_1___bswap_64_1_opaque_ptr_1
	.align 8
	.type	_TIG_iO_FmFG_1___bswap_64_1_opaque_ptr_1, @object
	.size	_TIG_iO_FmFG_1___bswap_64_1_opaque_ptr_1, 8
_TIG_iO_FmFG_1___bswap_64_1_opaque_ptr_1:
	.zero	8
	.globl	_TIG_iO_FmFG_1_newton_1_opaque_ptr_1
	.align 8
	.type	_TIG_iO_FmFG_1_newton_1_opaque_ptr_1, @object
	.size	_TIG_iO_FmFG_1_newton_1_opaque_ptr_1, 8
_TIG_iO_FmFG_1_newton_1_opaque_ptr_1:
	.zero	8
	.globl	_TIG_iO_FmFG_1_main_1_opaque_ptr_1
	.align 8
	.type	_TIG_iO_FmFG_1_main_1_opaque_ptr_1, @object
	.size	_TIG_iO_FmFG_1_main_1_opaque_ptr_1, 8
_TIG_iO_FmFG_1_main_1_opaque_ptr_1:
	.zero	8
	.globl	_TIG_iO_FmFG_1___bswap_32_1_opaque_list_1
	.align 8
	.type	_TIG_iO_FmFG_1___bswap_32_1_opaque_list_1, @object
	.size	_TIG_iO_FmFG_1___bswap_32_1_opaque_list_1, 8
_TIG_iO_FmFG_1___bswap_32_1_opaque_list_1:
	.zero	8
	.globl	_TIG_iO_FmFG_1_df_1_opaque_list_2
	.align 8
	.type	_TIG_iO_FmFG_1_df_1_opaque_list_2, @object
	.size	_TIG_iO_FmFG_1_df_1_opaque_list_2, 8
_TIG_iO_FmFG_1_df_1_opaque_list_2:
	.zero	8
	.globl	_TIG_iO_FmFG_1_newton_runn_1_opaque_list_2
	.align 8
	.type	_TIG_iO_FmFG_1_newton_runn_1_opaque_list_2, @object
	.size	_TIG_iO_FmFG_1_newton_runn_1_opaque_list_2, 8
_TIG_iO_FmFG_1_newton_runn_1_opaque_list_2:
	.zero	8
	.globl	_TIG_iO_FmFG_1_f_1_opaque_list_1
	.align 8
	.type	_TIG_iO_FmFG_1_f_1_opaque_list_1, @object
	.size	_TIG_iO_FmFG_1_f_1_opaque_list_1, 8
_TIG_iO_FmFG_1_f_1_opaque_list_1:
	.zero	8
	.globl	_TIG_iO_FmFG_1___uint32_identity_1_opaque_ptr_2
	.align 8
	.type	_TIG_iO_FmFG_1___uint32_identity_1_opaque_ptr_2, @object
	.size	_TIG_iO_FmFG_1___uint32_identity_1_opaque_ptr_2, 8
_TIG_iO_FmFG_1___uint32_identity_1_opaque_ptr_2:
	.zero	8
	.globl	_TIG_iO_FmFG_1_f_1_opaque_ptr_1
	.align 8
	.type	_TIG_iO_FmFG_1_f_1_opaque_ptr_1, @object
	.size	_TIG_iO_FmFG_1_f_1_opaque_ptr_1, 8
_TIG_iO_FmFG_1_f_1_opaque_ptr_1:
	.zero	8
	.globl	_TIG_iO_FmFG_1___bswap_16_1_opaque_list_2
	.align 8
	.type	_TIG_iO_FmFG_1___bswap_16_1_opaque_list_2, @object
	.size	_TIG_iO_FmFG_1___bswap_16_1_opaque_list_2, 8
_TIG_iO_FmFG_1___bswap_16_1_opaque_list_2:
	.zero	8
	.globl	_TIG_iO_FmFG_1___bswap_32_1_opaque_ptr_2
	.align 8
	.type	_TIG_iO_FmFG_1___bswap_32_1_opaque_ptr_2, @object
	.size	_TIG_iO_FmFG_1___bswap_32_1_opaque_ptr_2, 8
_TIG_iO_FmFG_1___bswap_32_1_opaque_ptr_2:
	.zero	8
	.globl	_TIG_iO_FmFG_1_f_1_opaque_list_2
	.align 8
	.type	_TIG_iO_FmFG_1_f_1_opaque_list_2, @object
	.size	_TIG_iO_FmFG_1_f_1_opaque_list_2, 8
_TIG_iO_FmFG_1_f_1_opaque_list_2:
	.zero	8
	.globl	_TIG_iO_FmFG_1___uint32_identity_1_opaque_ptr_1
	.align 8
	.type	_TIG_iO_FmFG_1___uint32_identity_1_opaque_ptr_1, @object
	.size	_TIG_iO_FmFG_1___uint32_identity_1_opaque_ptr_1, 8
_TIG_iO_FmFG_1___uint32_identity_1_opaque_ptr_1:
	.zero	8
	.section	.rodata
.LC1:
	.string	"times - %d\n"
.LC2:
	.string	"val - %lf\n"
.LC3:
	.string	"konec"
	.text
	.globl	newton_run
	.type	newton_run, @function
newton_run:
.LFB2:
	.cfi_startproc
	endbr64
	pushq	%rbp
	.cfi_def_cfa_offset 16
	.cfi_offset 6, -16
	movq	%rsp, %rbp
	.cfi_def_cfa_register 6
	subq	$80, %rsp
	movl	%edi, -68(%rbp)
	movss	%xmm0, -72(%rbp)
	movss	%xmm1, -76(%rbp)
#APP
# 61 "/usr/include/x86_64-linux-gnu/bits/uintn-identity.h" 1
	##_ANNOTATION_INITIALREGION_-TIG-iO-FmFG-1-newton-run--22
# 0 "" 2
# 65 "/usr/include/x86_64-linux-gnu/bits/uintn-identity.h" 1
	##_ANNOTATION_ATOMICREGION_-TIG-iO-FmFG-1-newton-run--21
# 0 "" 2
#NO_APP
	movl	$24, %edi
	call	malloc@PLT
	movq	%rax, -32(%rbp)
	movq	-32(%rbp), %rax
	movq	-32(%rbp), %rdx
	movq	%rdx, (%rax)
	movq	-32(%rbp), %rax
	movq	-32(%rbp), %rdx
	movq	%rdx, 16(%rax)
	movq	-32(%rbp), %rax
	movq	%rax, _TIG_iO_FmFG_1_newton_run_1_opaque_list_1(%rip)
	call	rand@PLT
	movl	%eax, -56(%rbp)
	movl	$24, %edi
	call	malloc@PLT
	movq	%rax, -24(%rbp)
	movq	-24(%rbp), %rax
	movl	$0, 8(%rax)
	movq	_TIG_iO_FmFG_1_newton_run_1_opaque_list_1(%rip), %rax
	movq	(%rax), %rdx
	movq	-24(%rbp), %rax
	movq	%rdx, (%rax)
	movq	_TIG_iO_FmFG_1_newton_run_1_opaque_list_1(%rip), %rdx
	movq	-24(%rbp), %rax
	movq	%rdx, 16(%rax)
	movq	_TIG_iO_FmFG_1_newton_run_1_opaque_list_1(%rip), %rax
	movq	(%rax), %rax
	movq	-24(%rbp), %rdx
	movq	%rdx, 16(%rax)
	movq	_TIG_iO_FmFG_1_newton_run_1_opaque_list_1(%rip), %rax
	movq	-24(%rbp), %rdx
	movq	%rdx, (%rax)
	call	rand@PLT
	movl	%eax, -52(%rbp)
	movl	$24, %edi
	call	malloc@PLT
	movq	%rax, -16(%rbp)
	movq	-16(%rbp), %rax
	movl	-52(%rbp), %edx
	movl	%edx, 8(%rax)
	movq	_TIG_iO_FmFG_1_newton_run_1_opaque_list_1(%rip), %rax
	movq	(%rax), %rdx
	movq	-16(%rbp), %rax
	movq	%rdx, (%rax)
	movq	_TIG_iO_FmFG_1_newton_run_1_opaque_list_1(%rip), %rdx
	movq	-16(%rbp), %rax
	movq	%rdx, 16(%rax)
	movq	_TIG_iO_FmFG_1_newton_run_1_opaque_list_1(%rip), %rax
	movq	(%rax), %rax
	movq	-16(%rbp), %rdx
	movq	%rdx, 16(%rax)
	movq	_TIG_iO_FmFG_1_newton_run_1_opaque_list_1(%rip), %rax
	movq	-16(%rbp), %rdx
	movq	%rdx, (%rax)
	call	rand@PLT
	movl	%eax, -48(%rbp)
	movl	$24, %edi
	call	malloc@PLT
	movq	%rax, -8(%rbp)
	movl	-48(%rbp), %eax
	leal	(%rax,%rax), %edx
	movq	-8(%rbp), %rax
	movl	%edx, 8(%rax)
	movq	_TIG_iO_FmFG_1_newton_run_1_opaque_list_1(%rip), %rax
	movq	(%rax), %rdx
	movq	-8(%rbp), %rax
	movq	%rdx, (%rax)
	movq	_TIG_iO_FmFG_1_newton_run_1_opaque_list_1(%rip), %rdx
	movq	-8(%rbp), %rax
	movq	%rdx, 16(%rax)
	movq	_TIG_iO_FmFG_1_newton_run_1_opaque_list_1(%rip), %rax
	movq	(%rax), %rax
	movq	-8(%rbp), %rdx
	movq	%rdx, 16(%rax)
	movq	_TIG_iO_FmFG_1_newton_run_1_opaque_list_1(%rip), %rax
	movq	-8(%rbp), %rdx
	movq	%rdx, (%rax)
	movq	_TIG_iO_FmFG_1_newton_run_1_opaque_list_1(%rip), %rax
	movq	(%rax), %rax
	movq	%rax, _TIG_iO_FmFG_1_newton_run_1_opaque_ptr_1(%rip)
	movq	_TIG_iO_FmFG_1_newton_run_1_opaque_ptr_1(%rip), %rax
	movq	%rax, _TIG_iO_FmFG_1_newton_run_1_opaque_ptr_2(%rip)
	movq	_TIG_iO_FmFG_1_newton_run_1_opaque_ptr_2(%rip), %rax
	movq	(%rax), %rax
	movq	%rax, _TIG_iO_FmFG_1_newton_run_1_opaque_ptr_2(%rip)
	nop
	nop
	cmpl	$0, -68(%rbp)
	jne	.L2
	pxor	%xmm0, %xmm0
	jmp	.L3
.L2:
	movl	-68(%rbp), %eax
	movl	%eax, %esi
	leaq	.LC1(%rip), %rax
	movq	%rax, %rdi
	movl	$0, %eax
	call	printf@PLT
	pxor	%xmm3, %xmm3
	cvtss2sd	-72(%rbp), %xmm3
	movq	%xmm3, %rax
	movq	%rax, %xmm0
	leaq	.LC2(%rip), %rax
	movq	%rax, %rdi
	movl	$1, %eax
	call	printf@PLT
	movss	-72(%rbp), %xmm0
	ucomiss	-76(%rbp), %xmm0
	jp	.L4
	movss	-72(%rbp), %xmm0
	ucomiss	-76(%rbp), %xmm0
	jne	.L4
	leaq	.LC3(%rip), %rax
	movq	%rax, %rdi
	call	puts@PLT
	movss	-72(%rbp), %xmm0
	jmp	.L3
.L4:
	movq	_TIG_iO_FmFG_1_newton_runn_1_opaque_ptr_1(%rip), %rdx
	movq	_TIG_iO_FmFG_1_newton_runn_1_opaque_ptr_2(%rip), %rax
	cmpq	%rax, %rdx
	jne	.L6
	movl	-72(%rbp), %eax
	movd	%eax, %xmm0
	call	newton
	movd	%xmm0, %eax
	movl	%eax, -44(%rbp)
	movss	-44(%rbp), %xmm0
	divss	-76(%rbp), %xmm0
	movd	%xmm0, %eax
	movd	%eax, %xmm0
	call	newton
	movd	%xmm0, %eax
	movl	%eax, -40(%rbp)
	movl	.LC4(%rip), %eax
	movd	%eax, %xmm0
	call	newton
	movd	%xmm0, %eax
	movl	%eax, -36(%rbp)
	movss	-40(%rbp), %xmm1
	movss	.LC5(%rip), %xmm0
	movaps	%xmm1, %xmm2
	mulss	%xmm0, %xmm2
	movss	-36(%rbp), %xmm1
	movss	.LC6(%rip), %xmm0
	mulss	%xmm0, %xmm1
	movd	%xmm1, %eax
	movaps	%xmm2, %xmm1
	movd	%eax, %xmm0
	movl	$2, %edi
	call	newton_run
	movd	%xmm0, %eax
	movl	%eax, -60(%rbp)
	jmp	.L7
.L6:
	movl	-76(%rbp), %eax
	movd	%eax, %xmm0
	call	newton
	movd	%xmm0, %eax
	movl	%eax, -44(%rbp)
	movl	-44(%rbp), %eax
	movd	%eax, %xmm0
	call	newton
	movd	%xmm0, %eax
	movl	%eax, -40(%rbp)
	movl	-72(%rbp), %eax
	movd	%eax, %xmm0
	call	newton
	movd	%xmm0, %eax
	movl	%eax, -36(%rbp)
	movl	-68(%rbp), %eax
	leal	-1(%rax), %edx
	movss	-40(%rbp), %xmm0
	movl	-36(%rbp), %eax
	movaps	%xmm0, %xmm1
	movd	%eax, %xmm0
	movl	%edx, %edi
	call	newton_run
	movd	%xmm0, %eax
	movl	%eax, -60(%rbp)
.L7:
	movss	-60(%rbp), %xmm0
.L3:
	leave
	.cfi_def_cfa 7, 8
	ret
	.cfi_endproc
.LFE2:
	.size	newton_run, .-newton_run
	.globl	f
	.type	f, @function
f:
.LFB4:
	.cfi_startproc
	endbr64
	pushq	%rbp
	.cfi_def_cfa_offset 16
	.cfi_offset 6, -16
	movq	%rsp, %rbp
	.cfi_def_cfa_register 6
	subq	$48, %rsp
	movss	%xmm0, -36(%rbp)
#APP
# 53 "/usr/include/x86_64-linux-gnu/bits/byteswap.h" 1
	##_ANNOTATION_INITIALREGION_-TIG-iO-FmFG-1-f--16
# 0 "" 2
# 57 "/usr/include/x86_64-linux-gnu/bits/byteswap.h" 1
	##_ANNOTATION_ATOMICREGION_-TIG-iO-FmFG-1-f--15
# 0 "" 2
#NO_APP
	movl	$24, %edi
	call	malloc@PLT
	movq	%rax, -24(%rbp)
	movq	-24(%rbp), %rax
	movq	-24(%rbp), %rdx
	movq	%rdx, 16(%rax)
	movq	-24(%rbp), %rax
	movq	-24(%rbp), %rdx
	movq	%rdx, 8(%rax)
	movq	-24(%rbp), %rax
	movq	%rax, _TIG_iO_FmFG_1_f_1_opaque_list_1(%rip)
	call	rand@PLT
	movl	%eax, -32(%rbp)
	movl	$24, %edi
	call	malloc@PLT
	movq	%rax, -16(%rbp)
	movq	-16(%rbp), %rax
	movl	$0, (%rax)
	movq	_TIG_iO_FmFG_1_f_1_opaque_list_1(%rip), %rax
	movq	16(%rax), %rdx
	movq	-16(%rbp), %rax
	movq	%rdx, 16(%rax)
	movq	_TIG_iO_FmFG_1_f_1_opaque_list_1(%rip), %rdx
	movq	-16(%rbp), %rax
	movq	%rdx, 8(%rax)
	movq	_TIG_iO_FmFG_1_f_1_opaque_list_1(%rip), %rax
	movq	16(%rax), %rax
	movq	-16(%rbp), %rdx
	movq	%rdx, 8(%rax)
	movq	_TIG_iO_FmFG_1_f_1_opaque_list_1(%rip), %rax
	movq	-16(%rbp), %rdx
	movq	%rdx, 16(%rax)
	call	rand@PLT
	movl	%eax, -28(%rbp)
	movl	$24, %edi
	call	malloc@PLT
	movq	%rax, -8(%rbp)
	movq	-8(%rbp), %rax
	movl	-28(%rbp), %edx
	movl	%edx, (%rax)
	movq	_TIG_iO_FmFG_1_f_1_opaque_list_1(%rip), %rax
	movq	16(%rax), %rdx
	movq	-8(%rbp), %rax
	movq	%rdx, 16(%rax)
	movq	_TIG_iO_FmFG_1_f_1_opaque_list_1(%rip), %rdx
	movq	-8(%rbp), %rax
	movq	%rdx, 8(%rax)
	movq	_TIG_iO_FmFG_1_f_1_opaque_list_1(%rip), %rax
	movq	16(%rax), %rax
	movq	-8(%rbp), %rdx
	movq	%rdx, 8(%rax)
	movq	_TIG_iO_FmFG_1_f_1_opaque_list_1(%rip), %rax
	movq	-8(%rbp), %rdx
	movq	%rdx, 16(%rax)
	movq	_TIG_iO_FmFG_1_f_1_opaque_list_1(%rip), %rax
	movq	16(%rax), %rax
	movq	%rax, _TIG_iO_FmFG_1_f_1_opaque_ptr_1(%rip)
	movq	_TIG_iO_FmFG_1_f_1_opaque_ptr_1(%rip), %rax
	movq	%rax, _TIG_iO_FmFG_1_f_1_opaque_ptr_2(%rip)
	nop
	nop
	movq	_TIG_iO_FmFG_1_newton_runn_1_opaque_ptr_1(%rip), %rdx
	movq	_TIG_iO_FmFG_1_newton_runn_1_opaque_ptr_2(%rip), %rax
	cmpq	%rax, %rdx
	jne	.L10
	movl	-36(%rbp), %edx
	movl	-28(%rbp), %eax
	movd	%edx, %xmm0
	movl	%eax, %edi
	call	newton_runn
	movd	%xmm0, %eax
	movl	%eax, -36(%rbp)
.L10:
	movss	-36(%rbp), %xmm0
	mulss	%xmm0, %xmm0
	movss	.LC7(%rip), %xmm1
	subss	%xmm1, %xmm0
	leave
	.cfi_def_cfa 7, 8
	ret
	.cfi_endproc
.LFE4:
	.size	f, .-f
	.globl	df
	.type	df, @function
df:
.LFB6:
	.cfi_startproc
	endbr64
	pushq	%rbp
	.cfi_def_cfa_offset 16
	.cfi_offset 6, -16
	movq	%rsp, %rbp
	.cfi_def_cfa_register 6
	subq	$80, %rsp
	movss	%xmm0, -68(%rbp)
#APP
# 68 "/usr/include/x86_64-linux-gnu/bits/uintn-identity.h" 1
	##_ANNOTATION_INITIALREGION_-TIG-iO-FmFG-1-df--14
# 0 "" 2
# 72 "/usr/include/x86_64-linux-gnu/bits/uintn-identity.h" 1
	##_ANNOTATION_ATOMICREGION_-TIG-iO-FmFG-1-df--13
# 0 "" 2
#NO_APP
	movl	$24, %edi
	call	malloc@PLT
	movq	%rax, -40(%rbp)
	movq	-40(%rbp), %rax
	movq	-40(%rbp), %rdx
	movq	%rdx, (%rax)
	movq	-40(%rbp), %rax
	movq	-40(%rbp), %rdx
	movq	%rdx, 8(%rax)
	movq	-40(%rbp), %rax
	movq	%rax, _TIG_iO_FmFG_1_df_1_opaque_list_1(%rip)
	call	rand@PLT
	movl	%eax, -56(%rbp)
	movl	$24, %edi
	call	malloc@PLT
	movq	%rax, -32(%rbp)
	movq	-32(%rbp), %rax
	movl	$0, 16(%rax)
	movq	_TIG_iO_FmFG_1_df_1_opaque_list_1(%rip), %rax
	movq	(%rax), %rdx
	movq	-32(%rbp), %rax
	movq	%rdx, (%rax)
	movq	_TIG_iO_FmFG_1_df_1_opaque_list_1(%rip), %rdx
	movq	-32(%rbp), %rax
	movq	%rdx, 8(%rax)
	movq	_TIG_iO_FmFG_1_df_1_opaque_list_1(%rip), %rax
	movq	(%rax), %rax
	movq	-32(%rbp), %rdx
	movq	%rdx, 8(%rax)
	movq	_TIG_iO_FmFG_1_df_1_opaque_list_1(%rip), %rax
	movq	-32(%rbp), %rdx
	movq	%rdx, (%rax)
	call	rand@PLT
	movl	%eax, -52(%rbp)
	movl	$24, %edi
	call	malloc@PLT
	movq	%rax, -24(%rbp)
	movq	-24(%rbp), %rax
	movl	-52(%rbp), %edx
	movl	%edx, 16(%rax)
	movq	_TIG_iO_FmFG_1_df_1_opaque_list_1(%rip), %rax
	movq	(%rax), %rdx
	movq	-24(%rbp), %rax
	movq	%rdx, (%rax)
	movq	_TIG_iO_FmFG_1_df_1_opaque_list_1(%rip), %rdx
	movq	-24(%rbp), %rax
	movq	%rdx, 8(%rax)
	movq	_TIG_iO_FmFG_1_df_1_opaque_list_1(%rip), %rax
	movq	(%rax), %rax
	movq	-24(%rbp), %rdx
	movq	%rdx, 8(%rax)
	movq	_TIG_iO_FmFG_1_df_1_opaque_list_1(%rip), %rax
	movq	-24(%rbp), %rdx
	movq	%rdx, (%rax)
	call	rand@PLT
	movl	%eax, -48(%rbp)
	movl	$24, %edi
	call	malloc@PLT
	movq	%rax, -16(%rbp)
	movl	-48(%rbp), %eax
	leal	(%rax,%rax), %edx
	movq	-16(%rbp), %rax
	movl	%edx, 16(%rax)
	movq	_TIG_iO_FmFG_1_df_1_opaque_list_1(%rip), %rax
	movq	(%rax), %rdx
	movq	-16(%rbp), %rax
	movq	%rdx, (%rax)
	movq	_TIG_iO_FmFG_1_df_1_opaque_list_1(%rip), %rdx
	movq	-16(%rbp), %rax
	movq	%rdx, 8(%rax)
	movq	_TIG_iO_FmFG_1_df_1_opaque_list_1(%rip), %rax
	movq	(%rax), %rax
	movq	-16(%rbp), %rdx
	movq	%rdx, 8(%rax)
	movq	_TIG_iO_FmFG_1_df_1_opaque_list_1(%rip), %rax
	movq	-16(%rbp), %rdx
	movq	%rdx, (%rax)
	call	rand@PLT
	movl	%eax, -44(%rbp)
	movl	$24, %edi
	call	malloc@PLT
	movq	%rax, -8(%rbp)
	movl	-44(%rbp), %edx
	movl	%edx, %eax
	addl	%eax, %eax
	addl	%eax, %edx
	movq	-8(%rbp), %rax
	movl	%edx, 16(%rax)
	movq	_TIG_iO_FmFG_1_df_1_opaque_list_1(%rip), %rax
	movq	(%rax), %rdx
	movq	-8(%rbp), %rax
	movq	%rdx, (%rax)
	movq	_TIG_iO_FmFG_1_df_1_opaque_list_1(%rip), %rdx
	movq	-8(%rbp), %rax
	movq	%rdx, 8(%rax)
	movq	_TIG_iO_FmFG_1_df_1_opaque_list_1(%rip), %rax
	movq	(%rax), %rax
	movq	-8(%rbp), %rdx
	movq	%rdx, 8(%rax)
	movq	_TIG_iO_FmFG_1_df_1_opaque_list_1(%rip), %rax
	movq	-8(%rbp), %rdx
	movq	%rdx, (%rax)
	movq	_TIG_iO_FmFG_1_df_1_opaque_list_1(%rip), %rax
	movq	(%rax), %rax
	movq	%rax, _TIG_iO_FmFG_1_df_1_opaque_ptr_1(%rip)
	movq	_TIG_iO_FmFG_1_df_1_opaque_ptr_1(%rip), %rax
	movq	%rax, _TIG_iO_FmFG_1_df_1_opaque_ptr_2(%rip)
	movq	_TIG_iO_FmFG_1_df_1_opaque_ptr_2(%rip), %rax
	movq	(%rax), %rax
	movq	%rax, _TIG_iO_FmFG_1_df_1_opaque_ptr_2(%rip)
	nop
	nop
	movq	_TIG_iO_FmFG_1_newton_runn_1_opaque_ptr_1(%rip), %rdx
	movq	_TIG_iO_FmFG_1_newton_runn_1_opaque_ptr_2(%rip), %rax
	cmpq	%rax, %rdx
	je	.L13
	movss	-68(%rbp), %xmm0
	addss	%xmm0, %xmm0
	jmp	.L12
.L13:
#APP
# 11 "Fowleyy_FAI-SWI_main.c" 1
	.byte 0xd7,0x52,0x67,0x6d,0xbe,0xf3,0xd4
# 0 "" 2
#NO_APP
.L12:
	leave
	.cfi_def_cfa 7, 8
	ret
	.cfi_endproc
.LFE6:
	.size	df, .-df
	.globl	newton
	.type	newton, @function
newton:
.LFB7:
	.cfi_startproc
	endbr64
	pushq	%rbp
	.cfi_def_cfa_offset 16
	.cfi_offset 6, -16
	movq	%rsp, %rbp
	.cfi_def_cfa_register 6
	subq	$64, %rsp
	movss	%xmm0, -52(%rbp)
#APP
# 31 "Fowleyy_FAI-SWI_main.c" 1
	##_ANNOTATION_INITIALREGION_-TIG-iO-FmFG-1-newton--20
# 0 "" 2
# 35 "Fowleyy_FAI-SWI_main.c" 1
	##_ANNOTATION_ATOMICREGION_-TIG-iO-FmFG-1-newton--19
# 0 "" 2
#NO_APP
	movl	$24, %edi
	call	malloc@PLT
	movq	%rax, -24(%rbp)
	movq	-24(%rbp), %rax
	movq	-24(%rbp), %rdx
	movq	%rdx, 8(%rax)
	movq	-24(%rbp), %rax
	movq	-24(%rbp), %rdx
	movq	%rdx, 16(%rax)
	movq	-24(%rbp), %rax
	movq	%rax, _TIG_iO_FmFG_1_newton_1_opaque_list_1(%rip)
	call	rand@PLT
	movl	%eax, -40(%rbp)
	movl	$24, %edi
	call	malloc@PLT
	movq	%rax, -16(%rbp)
	movq	-16(%rbp), %rax
	movl	$0, (%rax)
	movq	_TIG_iO_FmFG_1_newton_1_opaque_list_1(%rip), %rax
	movq	8(%rax), %rdx
	movq	-16(%rbp), %rax
	movq	%rdx, 8(%rax)
	movq	_TIG_iO_FmFG_1_newton_1_opaque_list_1(%rip), %rdx
	movq	-16(%rbp), %rax
	movq	%rdx, 16(%rax)
	movq	_TIG_iO_FmFG_1_newton_1_opaque_list_1(%rip), %rax
	movq	8(%rax), %rax
	movq	-16(%rbp), %rdx
	movq	%rdx, 16(%rax)
	movq	_TIG_iO_FmFG_1_newton_1_opaque_list_1(%rip), %rax
	movq	-16(%rbp), %rdx
	movq	%rdx, 8(%rax)
	call	rand@PLT
	movl	%eax, -36(%rbp)
	movl	$24, %edi
	call	malloc@PLT
	movq	%rax, -8(%rbp)
	movq	-8(%rbp), %rax
	movl	-36(%rbp), %edx
	movl	%edx, (%rax)
	movq	_TIG_iO_FmFG_1_newton_1_opaque_list_1(%rip), %rax
	movq	8(%rax), %rdx
	movq	-8(%rbp), %rax
	movq	%rdx, 8(%rax)
	movq	_TIG_iO_FmFG_1_newton_1_opaque_list_1(%rip), %rdx
	movq	-8(%rbp), %rax
	movq	%rdx, 16(%rax)
	movq	_TIG_iO_FmFG_1_newton_1_opaque_list_1(%rip), %rax
	movq	8(%rax), %rax
	movq	-8(%rbp), %rdx
	movq	%rdx, 16(%rax)
	movq	_TIG_iO_FmFG_1_newton_1_opaque_list_1(%rip), %rax
	movq	-8(%rbp), %rdx
	movq	%rdx, 8(%rax)
	movq	_TIG_iO_FmFG_1_newton_1_opaque_list_1(%rip), %rax
	movq	8(%rax), %rax
	movq	%rax, _TIG_iO_FmFG_1_newton_1_opaque_ptr_1(%rip)
	movq	_TIG_iO_FmFG_1_newton_1_opaque_ptr_1(%rip), %rax
	movq	%rax, _TIG_iO_FmFG_1_newton_1_opaque_ptr_2(%rip)
	nop
	nop
	movl	-52(%rbp), %eax
	movd	%eax, %xmm0
	call	f
	movd	%xmm0, %eax
	movl	%eax, -32(%rbp)
	movl	-52(%rbp), %eax
	movd	%eax, %xmm0
	call	df
	movd	%xmm0, %eax
	movl	%eax, -28(%rbp)
	movq	_TIG_iO_FmFG_1_newton_runn_1_opaque_ptr_1(%rip), %rdx
	movq	_TIG_iO_FmFG_1_newton_runn_1_opaque_ptr_2(%rip), %rax
	cmpq	%rax, %rdx
	jne	.L16
#APP
# 16 "Fowleyy_FAI-SWI_main.c" 1
	.byte 0x7e,0x60
# 0 "" 2
#NO_APP
	jmp	.L15
.L16:
	movss	-32(%rbp), %xmm0
	movaps	%xmm0, %xmm1
	divss	-28(%rbp), %xmm1
	movss	-52(%rbp), %xmm0
	subss	%xmm1, %xmm0
.L15:
	leave
	.cfi_def_cfa 7, 8
	ret
	.cfi_endproc
.LFE7:
	.size	newton, .-newton
	.globl	newton_runn
	.type	newton_runn, @function
newton_runn:
.LFB8:
	.cfi_startproc
	endbr64
	pushq	%rbp
	.cfi_def_cfa_offset 16
	.cfi_offset 6, -16
	movq	%rsp, %rbp
	.cfi_def_cfa_register 6
	subq	$80, %rsp
	movl	%edi, -68(%rbp)
	movss	%xmm0, -72(%rbp)
#APP
# 35 "Fowleyy_FAI-SWI_main.c" 1
	##_ANNOTATION_INITIALREGION_-TIG-iO-FmFG-1-newton-runn--24
# 0 "" 2
# 39 "Fowleyy_FAI-SWI_main.c" 1
	##_ANNOTATION_ATOMICREGION_-TIG-iO-FmFG-1-newton-runn--23
# 0 "" 2
#NO_APP
	movl	$24, %edi
	call	malloc@PLT
	movq	%rax, -32(%rbp)
	movq	-32(%rbp), %rax
	movq	-32(%rbp), %rdx
	movq	%rdx, (%rax)
	movq	-32(%rbp), %rax
	movq	-32(%rbp), %rdx
	movq	%rdx, 8(%rax)
	movq	-32(%rbp), %rax
	movq	%rax, _TIG_iO_FmFG_1_newton_runn_1_opaque_list_1(%rip)
	call	rand@PLT
	movl	%eax, -52(%rbp)
	movl	$24, %edi
	call	malloc@PLT
	movq	%rax, -24(%rbp)
	movq	-24(%rbp), %rax
	movl	$0, 16(%rax)
	movq	_TIG_iO_FmFG_1_newton_runn_1_opaque_list_1(%rip), %rax
	movq	(%rax), %rdx
	movq	-24(%rbp), %rax
	movq	%rdx, (%rax)
	movq	_TIG_iO_FmFG_1_newton_runn_1_opaque_list_1(%rip), %rdx
	movq	-24(%rbp), %rax
	movq	%rdx, 8(%rax)
	movq	_TIG_iO_FmFG_1_newton_runn_1_opaque_list_1(%rip), %rax
	movq	(%rax), %rax
	movq	-24(%rbp), %rdx
	movq	%rdx, 8(%rax)
	movq	_TIG_iO_FmFG_1_newton_runn_1_opaque_list_1(%rip), %rax
	movq	-24(%rbp), %rdx
	movq	%rdx, (%rax)
	call	rand@PLT
	movl	%eax, -48(%rbp)
	movl	$24, %edi
	call	malloc@PLT
	movq	%rax, -16(%rbp)
	movq	-16(%rbp), %rax
	movl	-48(%rbp), %edx
	movl	%edx, 16(%rax)
	movq	_TIG_iO_FmFG_1_newton_runn_1_opaque_list_1(%rip), %rax
	movq	(%rax), %rdx
	movq	-16(%rbp), %rax
	movq	%rdx, (%rax)
	movq	_TIG_iO_FmFG_1_newton_runn_1_opaque_list_1(%rip), %rdx
	movq	-16(%rbp), %rax
	movq	%rdx, 8(%rax)
	movq	_TIG_iO_FmFG_1_newton_runn_1_opaque_list_1(%rip), %rax
	movq	(%rax), %rax
	movq	-16(%rbp), %rdx
	movq	%rdx, 8(%rax)
	movq	_TIG_iO_FmFG_1_newton_runn_1_opaque_list_1(%rip), %rax
	movq	-16(%rbp), %rdx
	movq	%rdx, (%rax)
	call	rand@PLT
	movl	%eax, -44(%rbp)
	movl	$24, %edi
	call	malloc@PLT
	movq	%rax, -8(%rbp)
	movl	-44(%rbp), %eax
	leal	(%rax,%rax), %edx
	movq	-8(%rbp), %rax
	movl	%edx, 16(%rax)
	movq	_TIG_iO_FmFG_1_newton_runn_1_opaque_list_1(%rip), %rax
	movq	(%rax), %rdx
	movq	-8(%rbp), %rax
	movq	%rdx, (%rax)
	movq	_TIG_iO_FmFG_1_newton_runn_1_opaque_list_1(%rip), %rdx
	movq	-8(%rbp), %rax
	movq	%rdx, 8(%rax)
	movq	_TIG_iO_FmFG_1_newton_runn_1_opaque_list_1(%rip), %rax
	movq	(%rax), %rax
	movq	-8(%rbp), %rdx
	movq	%rdx, 8(%rax)
	movq	_TIG_iO_FmFG_1_newton_runn_1_opaque_list_1(%rip), %rax
	movq	-8(%rbp), %rdx
	movq	%rdx, (%rax)
	movq	_TIG_iO_FmFG_1_newton_runn_1_opaque_list_1(%rip), %rax
	movq	(%rax), %rax
	movq	%rax, _TIG_iO_FmFG_1_newton_runn_1_opaque_ptr_1(%rip)
	movq	_TIG_iO_FmFG_1_newton_runn_1_opaque_ptr_1(%rip), %rax
	movq	%rax, _TIG_iO_FmFG_1_newton_runn_1_opaque_ptr_2(%rip)
	movq	_TIG_iO_FmFG_1_newton_runn_1_opaque_ptr_2(%rip), %rax
	movq	(%rax), %rax
	movq	%rax, _TIG_iO_FmFG_1_newton_runn_1_opaque_ptr_2(%rip)
	nop
	nop
	cmpl	$0, -68(%rbp)
	jne	.L20
	movq	_TIG_iO_FmFG_1_newton_runn_1_opaque_ptr_1(%rip), %rdx
	movq	_TIG_iO_FmFG_1_newton_runn_1_opaque_ptr_2(%rip), %rax
	cmpq	%rax, %rdx
	jne	.L21
	movl	-68(%rbp), %eax
	movl	$0, %edx
	movl	$0, %esi
	movl	%eax, %edi
	call	main
	movl	%eax, -48(%rbp)
.L21:
	movss	-72(%rbp), %xmm0
	jmp	.L22
.L20:
	movl	-68(%rbp), %eax
	leal	-1(%rax), %edx
	movl	-72(%rbp), %eax
	movd	%eax, %xmm0
	movl	%edx, %edi
	call	newton_runn
	movd	%xmm0, %eax
	movl	%eax, -40(%rbp)
	movl	-40(%rbp), %eax
	movd	%eax, %xmm0
	call	newton
	movd	%xmm0, %eax
	movl	%eax, -36(%rbp)
	movss	-36(%rbp), %xmm0
.L22:
	leave
	.cfi_def_cfa 7, 8
	ret
	.cfi_endproc
.LFE8:
	.size	newton_runn, .-newton_runn
	.section	.rodata
.LC9:
	.string	"%lf"
	.text
	.globl	main
	.type	main, @function
main:
.LFB11:
	.cfi_startproc
	endbr64
	pushq	%rbp
	.cfi_def_cfa_offset 16
	.cfi_offset 6, -16
	movq	%rsp, %rbp
	.cfi_def_cfa_register 6
	subq	$80, %rsp
	movl	%edi, -52(%rbp)
	movq	%rsi, -64(%rbp)
	movq	%rdx, -72(%rbp)
	movq	$0, _TIG_IZ_FmFG_envp(%rip)
	nop
.L24:
	movq	$0, _TIG_IZ_FmFG_argv(%rip)
	nop
.L25:
	movl	$0, _TIG_IZ_FmFG_argc(%rip)
	nop
	nop
.L26:
.L27:
#APP
# 97 "/usr/include/x86_64-linux-gnu/bits/byteswap.h" 1
	##_ANNOTATION_INITIALREGION_-TIG-IZ-FmFG--0
# 0 "" 2
#NO_APP
	movl	-52(%rbp), %eax
	movl	%eax, _TIG_IZ_FmFG_argc(%rip)
	movq	-64(%rbp), %rax
	movq	%rax, _TIG_IZ_FmFG_argv(%rip)
	movq	-72(%rbp), %rax
	movq	%rax, _TIG_IZ_FmFG_envp(%rip)
#APP
# 104 "/usr/include/x86_64-linux-gnu/bits/byteswap.h" 1
	##_ANNOTATION_ATOMICREGION_-TIG-iO-FmFG-1-main--17
# 0 "" 2
#NO_APP
	movl	$24, %edi
	call	malloc@PLT
	movq	%rax, -24(%rbp)
	movq	-24(%rbp), %rax
	movq	-24(%rbp), %rdx
	movq	%rdx, 8(%rax)
	movq	-24(%rbp), %rax
	movq	-24(%rbp), %rdx
	movq	%rdx, (%rax)
	movq	-24(%rbp), %rax
	movq	%rax, _TIG_iO_FmFG_1_main_1_opaque_list_1(%rip)
	call	rand@PLT
	movl	%eax, -40(%rbp)
	movl	$24, %edi
	call	malloc@PLT
	movq	%rax, -16(%rbp)
	movq	-16(%rbp), %rax
	movl	$0, 16(%rax)
	movq	_TIG_iO_FmFG_1_main_1_opaque_list_1(%rip), %rax
	movq	8(%rax), %rdx
	movq	-16(%rbp), %rax
	movq	%rdx, 8(%rax)
	movq	_TIG_iO_FmFG_1_main_1_opaque_list_1(%rip), %rdx
	movq	-16(%rbp), %rax
	movq	%rdx, (%rax)
	movq	_TIG_iO_FmFG_1_main_1_opaque_list_1(%rip), %rax
	movq	8(%rax), %rax
	movq	-16(%rbp), %rdx
	movq	%rdx, (%rax)
	movq	_TIG_iO_FmFG_1_main_1_opaque_list_1(%rip), %rax
	movq	-16(%rbp), %rdx
	movq	%rdx, 8(%rax)
	call	rand@PLT
	movl	%eax, -36(%rbp)
	movl	$24, %edi
	call	malloc@PLT
	movq	%rax, -8(%rbp)
	movq	-8(%rbp), %rax
	movl	-36(%rbp), %edx
	movl	%edx, 16(%rax)
	movq	_TIG_iO_FmFG_1_main_1_opaque_list_1(%rip), %rax
	movq	8(%rax), %rdx
	movq	-8(%rbp), %rax
	movq	%rdx, 8(%rax)
	movq	_TIG_iO_FmFG_1_main_1_opaque_list_1(%rip), %rdx
	movq	-8(%rbp), %rax
	movq	%rdx, (%rax)
	movq	_TIG_iO_FmFG_1_main_1_opaque_list_1(%rip), %rax
	movq	8(%rax), %rax
	movq	-8(%rbp), %rdx
	movq	%rdx, (%rax)
	movq	_TIG_iO_FmFG_1_main_1_opaque_list_1(%rip), %rax
	movq	-8(%rbp), %rdx
	movq	%rdx, 8(%rax)
	movq	_TIG_iO_FmFG_1_main_1_opaque_list_1(%rip), %rax
	movq	8(%rax), %rax
	movq	%rax, _TIG_iO_FmFG_1_main_1_opaque_ptr_1(%rip)
	movq	_TIG_iO_FmFG_1_main_1_opaque_ptr_1(%rip), %rax
	movq	%rax, _TIG_iO_FmFG_1_main_1_opaque_ptr_2(%rip)
	movq	_TIG_iO_FmFG_1_main_1_opaque_ptr_2(%rip), %rax
	movq	8(%rax), %rax
	movq	%rax, _TIG_iO_FmFG_1_main_1_opaque_ptr_2(%rip)
	nop
	nop
	movq	_TIG_iO_FmFG_1_newton_runn_1_opaque_ptr_1(%rip), %rdx
	movq	_TIG_iO_FmFG_1_newton_runn_1_opaque_ptr_2(%rip), %rax
	cmpq	%rax, %rdx
	jne	.L28
	movss	-28(%rbp), %xmm0
	movl	-32(%rbp), %edx
	movl	-40(%rbp), %eax
	movaps	%xmm0, %xmm1
	movd	%edx, %xmm0
	movl	%eax, %edi
	call	newton_run
	movd	%xmm0, %eax
	movl	%eax, -28(%rbp)
.L28:
	movl	.LC8(%rip), %eax
	movd	%eax, %xmm0
	call	newton
	movd	%xmm0, %eax
	movl	%eax, -32(%rbp)
	movss	-32(%rbp), %xmm0
	movaps	%xmm0, %xmm1
	movl	.LC8(%rip), %eax
	movd	%eax, %xmm0
	movl	$1000, %edi
	call	newton_run
	movd	%xmm0, %eax
	movl	%eax, -28(%rbp)
	pxor	%xmm2, %xmm2
	cvtss2sd	-28(%rbp), %xmm2
	movq	%xmm2, %rax
	movq	%rax, %xmm0
	leaq	.LC9(%rip), %rax
	movq	%rax, %rdi
	movl	$1, %eax
	call	printf@PLT
	movl	$0, %eax
	leave
	.cfi_def_cfa 7, 8
	ret
	.cfi_endproc
.LFE11:
	.size	main, .-main
	.section	.rodata
	.align 4
.LC4:
	.long	1076352735
	.align 4
.LC5:
	.long	1077041568
	.align 4
.LC6:
	.long	1087849242
	.align 4
.LC7:
	.long	1084227584
	.align 4
.LC8:
	.long	1148846080
	.ident	"GCC: (Ubuntu 11.4.0-1ubuntu1~22.04) 11.4.0"
	.section	.note.GNU-stack,"",@progbits
	.section	.note.gnu.property,"a"
	.align 8
	.long	1f - 0f
	.long	4f - 1f
	.long	5
0:
	.string	"GNU"
1:
	.align 8
	.long	0xc0000002
	.long	3f - 2f
2:
	.long	0x3
3:
	.align 8
4:
