	.file	"Guilhermeiiu_exercicios-em-C_3_opaque.c"
	.text
	.globl	_TIG_iO_jIUt_1_main_1_opaque_list_2
	.bss
	.align 8
	.type	_TIG_iO_jIUt_1_main_1_opaque_list_2, @object
	.size	_TIG_iO_jIUt_1_main_1_opaque_list_2, 8
_TIG_iO_jIUt_1_main_1_opaque_list_2:
	.zero	8
	.globl	_TIG_iO_jIUt_1___bswap_64_1_opaque_list_2
	.align 8
	.type	_TIG_iO_jIUt_1___bswap_64_1_opaque_list_2, @object
	.size	_TIG_iO_jIUt_1___bswap_64_1_opaque_list_2, 8
_TIG_iO_jIUt_1___bswap_64_1_opaque_list_2:
	.zero	8
	.globl	_TIG_iO_jIUt_1___bswap_64_1_opaque_ptr_2
	.align 8
	.type	_TIG_iO_jIUt_1___bswap_64_1_opaque_ptr_2, @object
	.size	_TIG_iO_jIUt_1___bswap_64_1_opaque_ptr_2, 8
_TIG_iO_jIUt_1___bswap_64_1_opaque_ptr_2:
	.zero	8
	.globl	_TIG_iO_jIUt_1___uint64_identity_1_opaque_list_2
	.align 8
	.type	_TIG_iO_jIUt_1___uint64_identity_1_opaque_list_2, @object
	.size	_TIG_iO_jIUt_1___uint64_identity_1_opaque_list_2, 8
_TIG_iO_jIUt_1___uint64_identity_1_opaque_list_2:
	.zero	8
	.globl	_TIG_iO_jIUt_1_dividir_1_opaque_list_1
	.align 8
	.type	_TIG_iO_jIUt_1_dividir_1_opaque_list_1, @object
	.size	_TIG_iO_jIUt_1_dividir_1_opaque_list_1, 8
_TIG_iO_jIUt_1_dividir_1_opaque_list_1:
	.zero	8
	.globl	_TIG_iO_jIUt_1_main_1_opaque_list_1
	.align 8
	.type	_TIG_iO_jIUt_1_main_1_opaque_list_1, @object
	.size	_TIG_iO_jIUt_1_main_1_opaque_list_1, 8
_TIG_iO_jIUt_1_main_1_opaque_list_1:
	.zero	8
	.globl	_TIG_iO_jIUt_1_somar_1_opaque_list_2
	.align 8
	.type	_TIG_iO_jIUt_1_somar_1_opaque_list_2, @object
	.size	_TIG_iO_jIUt_1_somar_1_opaque_list_2, 8
_TIG_iO_jIUt_1_somar_1_opaque_list_2:
	.zero	8
	.globl	_TIG_iO_jIUt_1_subtrair_1_opaque_ptr_2
	.align 8
	.type	_TIG_iO_jIUt_1_subtrair_1_opaque_ptr_2, @object
	.size	_TIG_iO_jIUt_1_subtrair_1_opaque_ptr_2, 8
_TIG_iO_jIUt_1_subtrair_1_opaque_ptr_2:
	.zero	8
	.globl	_TIG_iO_jIUt_1_dividir_1_opaque_list_2
	.align 8
	.type	_TIG_iO_jIUt_1_dividir_1_opaque_list_2, @object
	.size	_TIG_iO_jIUt_1_dividir_1_opaque_list_2, 8
_TIG_iO_jIUt_1_dividir_1_opaque_list_2:
	.zero	8
	.globl	_TIG_iO_jIUt_1___bswap_32_1_opaque_ptr_2
	.align 8
	.type	_TIG_iO_jIUt_1___bswap_32_1_opaque_ptr_2, @object
	.size	_TIG_iO_jIUt_1___bswap_32_1_opaque_ptr_2, 8
_TIG_iO_jIUt_1___bswap_32_1_opaque_ptr_2:
	.zero	8
	.globl	_TIG_iO_jIUt_1_subtrair_1_opaque_ptr_1
	.align 8
	.type	_TIG_iO_jIUt_1_subtrair_1_opaque_ptr_1, @object
	.size	_TIG_iO_jIUt_1_subtrair_1_opaque_ptr_1, 8
_TIG_iO_jIUt_1_subtrair_1_opaque_ptr_1:
	.zero	8
	.globl	_TIG_iO_jIUt_1___bswap_64_1_opaque_ptr_1
	.align 8
	.type	_TIG_iO_jIUt_1___bswap_64_1_opaque_ptr_1, @object
	.size	_TIG_iO_jIUt_1___bswap_64_1_opaque_ptr_1, 8
_TIG_iO_jIUt_1___bswap_64_1_opaque_ptr_1:
	.zero	8
	.globl	_TIG_iO_jIUt_1_dividir_1_opaque_ptr_2
	.align 8
	.type	_TIG_iO_jIUt_1_dividir_1_opaque_ptr_2, @object
	.size	_TIG_iO_jIUt_1_dividir_1_opaque_ptr_2, 8
_TIG_iO_jIUt_1_dividir_1_opaque_ptr_2:
	.zero	8
	.globl	_TIG_iO_jIUt_1___uint16_identity_1_opaque_ptr_2
	.align 8
	.type	_TIG_iO_jIUt_1___uint16_identity_1_opaque_ptr_2, @object
	.size	_TIG_iO_jIUt_1___uint16_identity_1_opaque_ptr_2, 8
_TIG_iO_jIUt_1___uint16_identity_1_opaque_ptr_2:
	.zero	8
	.globl	_TIG_iO_jIUt_1_multiplicar_1_opaque_ptr_1
	.align 8
	.type	_TIG_iO_jIUt_1_multiplicar_1_opaque_ptr_1, @object
	.size	_TIG_iO_jIUt_1_multiplicar_1_opaque_ptr_1, 8
_TIG_iO_jIUt_1_multiplicar_1_opaque_ptr_1:
	.zero	8
	.globl	_TIG_iO_jIUt_1_subtrair_1_opaque_list_1
	.align 8
	.type	_TIG_iO_jIUt_1_subtrair_1_opaque_list_1, @object
	.size	_TIG_iO_jIUt_1_subtrair_1_opaque_list_1, 8
_TIG_iO_jIUt_1_subtrair_1_opaque_list_1:
	.zero	8
	.globl	_TIG_iO_jIUt_1_main_1_opaque_ptr_2
	.align 8
	.type	_TIG_iO_jIUt_1_main_1_opaque_ptr_2, @object
	.size	_TIG_iO_jIUt_1_main_1_opaque_ptr_2, 8
_TIG_iO_jIUt_1_main_1_opaque_ptr_2:
	.zero	8
	.globl	_TIG_iO_jIUt_1___bswap_16_1_opaque_ptr_2
	.align 8
	.type	_TIG_iO_jIUt_1___bswap_16_1_opaque_ptr_2, @object
	.size	_TIG_iO_jIUt_1___bswap_16_1_opaque_ptr_2, 8
_TIG_iO_jIUt_1___bswap_16_1_opaque_ptr_2:
	.zero	8
	.globl	_TIG_iO_jIUt_1_somar_1_opaque_ptr_2
	.align 8
	.type	_TIG_iO_jIUt_1_somar_1_opaque_ptr_2, @object
	.size	_TIG_iO_jIUt_1_somar_1_opaque_ptr_2, 8
_TIG_iO_jIUt_1_somar_1_opaque_ptr_2:
	.zero	8
	.globl	_TIG_IZ_jIUt_envp
	.align 8
	.type	_TIG_IZ_jIUt_envp, @object
	.size	_TIG_IZ_jIUt_envp, 8
_TIG_IZ_jIUt_envp:
	.zero	8
	.globl	_TIG_iO_jIUt_1_subtrair_1_opaque_list_2
	.align 8
	.type	_TIG_iO_jIUt_1_subtrair_1_opaque_list_2, @object
	.size	_TIG_iO_jIUt_1_subtrair_1_opaque_list_2, 8
_TIG_iO_jIUt_1_subtrair_1_opaque_list_2:
	.zero	8
	.globl	_TIG_IZ_jIUt_argc
	.align 4
	.type	_TIG_IZ_jIUt_argc, @object
	.size	_TIG_IZ_jIUt_argc, 4
_TIG_IZ_jIUt_argc:
	.zero	4
	.globl	_TIG_iO_jIUt_1_somar_1_opaque_list_1
	.align 8
	.type	_TIG_iO_jIUt_1_somar_1_opaque_list_1, @object
	.size	_TIG_iO_jIUt_1_somar_1_opaque_list_1, 8
_TIG_iO_jIUt_1_somar_1_opaque_list_1:
	.zero	8
	.globl	_TIG_iO_jIUt_1___bswap_32_1_opaque_ptr_1
	.align 8
	.type	_TIG_iO_jIUt_1___bswap_32_1_opaque_ptr_1, @object
	.size	_TIG_iO_jIUt_1___bswap_32_1_opaque_ptr_1, 8
_TIG_iO_jIUt_1___bswap_32_1_opaque_ptr_1:
	.zero	8
	.globl	_TIG_iO_jIUt_1_multiplicar_1_opaque_ptr_2
	.align 8
	.type	_TIG_iO_jIUt_1_multiplicar_1_opaque_ptr_2, @object
	.size	_TIG_iO_jIUt_1_multiplicar_1_opaque_ptr_2, 8
_TIG_iO_jIUt_1_multiplicar_1_opaque_ptr_2:
	.zero	8
	.globl	_TIG_iO_jIUt_1_multiplicar_1_opaque_list_1
	.align 8
	.type	_TIG_iO_jIUt_1_multiplicar_1_opaque_list_1, @object
	.size	_TIG_iO_jIUt_1_multiplicar_1_opaque_list_1, 8
_TIG_iO_jIUt_1_multiplicar_1_opaque_list_1:
	.zero	8
	.globl	_TIG_iO_jIUt_1___bswap_16_1_opaque_list_1
	.align 8
	.type	_TIG_iO_jIUt_1___bswap_16_1_opaque_list_1, @object
	.size	_TIG_iO_jIUt_1___bswap_16_1_opaque_list_1, 8
_TIG_iO_jIUt_1___bswap_16_1_opaque_list_1:
	.zero	8
	.globl	_TIG_iO_jIUt_1___uint32_identity_1_opaque_list_1
	.align 8
	.type	_TIG_iO_jIUt_1___uint32_identity_1_opaque_list_1, @object
	.size	_TIG_iO_jIUt_1___uint32_identity_1_opaque_list_1, 8
_TIG_iO_jIUt_1___uint32_identity_1_opaque_list_1:
	.zero	8
	.globl	_TIG_IZ_jIUt_argv
	.align 8
	.type	_TIG_IZ_jIUt_argv, @object
	.size	_TIG_IZ_jIUt_argv, 8
_TIG_IZ_jIUt_argv:
	.zero	8
	.globl	_TIG_iO_jIUt_1___uint16_identity_1_opaque_list_1
	.align 8
	.type	_TIG_iO_jIUt_1___uint16_identity_1_opaque_list_1, @object
	.size	_TIG_iO_jIUt_1___uint16_identity_1_opaque_list_1, 8
_TIG_iO_jIUt_1___uint16_identity_1_opaque_list_1:
	.zero	8
	.globl	_TIG_iO_jIUt_1___uint64_identity_1_opaque_ptr_2
	.align 8
	.type	_TIG_iO_jIUt_1___uint64_identity_1_opaque_ptr_2, @object
	.size	_TIG_iO_jIUt_1___uint64_identity_1_opaque_ptr_2, 8
_TIG_iO_jIUt_1___uint64_identity_1_opaque_ptr_2:
	.zero	8
	.globl	_TIG_iO_jIUt_1___uint32_identity_1_opaque_ptr_1
	.align 8
	.type	_TIG_iO_jIUt_1___uint32_identity_1_opaque_ptr_1, @object
	.size	_TIG_iO_jIUt_1___uint32_identity_1_opaque_ptr_1, 8
_TIG_iO_jIUt_1___uint32_identity_1_opaque_ptr_1:
	.zero	8
	.globl	_TIG_iO_jIUt_1___uint32_identity_1_opaque_ptr_2
	.align 8
	.type	_TIG_iO_jIUt_1___uint32_identity_1_opaque_ptr_2, @object
	.size	_TIG_iO_jIUt_1___uint32_identity_1_opaque_ptr_2, 8
_TIG_iO_jIUt_1___uint32_identity_1_opaque_ptr_2:
	.zero	8
	.globl	_TIG_iO_jIUt_1___uint16_identity_1_opaque_list_2
	.align 8
	.type	_TIG_iO_jIUt_1___uint16_identity_1_opaque_list_2, @object
	.size	_TIG_iO_jIUt_1___uint16_identity_1_opaque_list_2, 8
_TIG_iO_jIUt_1___uint16_identity_1_opaque_list_2:
	.zero	8
	.globl	_TIG_iO_jIUt_1___bswap_16_1_opaque_ptr_1
	.align 8
	.type	_TIG_iO_jIUt_1___bswap_16_1_opaque_ptr_1, @object
	.size	_TIG_iO_jIUt_1___bswap_16_1_opaque_ptr_1, 8
_TIG_iO_jIUt_1___bswap_16_1_opaque_ptr_1:
	.zero	8
	.globl	_TIG_iO_jIUt_1_main_1_opaque_ptr_1
	.align 8
	.type	_TIG_iO_jIUt_1_main_1_opaque_ptr_1, @object
	.size	_TIG_iO_jIUt_1_main_1_opaque_ptr_1, 8
_TIG_iO_jIUt_1_main_1_opaque_ptr_1:
	.zero	8
	.globl	_TIG_iO_jIUt_1___uint64_identity_1_opaque_ptr_1
	.align 8
	.type	_TIG_iO_jIUt_1___uint64_identity_1_opaque_ptr_1, @object
	.size	_TIG_iO_jIUt_1___uint64_identity_1_opaque_ptr_1, 8
_TIG_iO_jIUt_1___uint64_identity_1_opaque_ptr_1:
	.zero	8
	.globl	_TIG_iO_jIUt_1_multiplicar_1_opaque_list_2
	.align 8
	.type	_TIG_iO_jIUt_1_multiplicar_1_opaque_list_2, @object
	.size	_TIG_iO_jIUt_1_multiplicar_1_opaque_list_2, 8
_TIG_iO_jIUt_1_multiplicar_1_opaque_list_2:
	.zero	8
	.globl	_TIG_iO_jIUt_1___bswap_16_1_opaque_list_2
	.align 8
	.type	_TIG_iO_jIUt_1___bswap_16_1_opaque_list_2, @object
	.size	_TIG_iO_jIUt_1___bswap_16_1_opaque_list_2, 8
_TIG_iO_jIUt_1___bswap_16_1_opaque_list_2:
	.zero	8
	.globl	_TIG_iO_jIUt_1___uint32_identity_1_opaque_list_2
	.align 8
	.type	_TIG_iO_jIUt_1___uint32_identity_1_opaque_list_2, @object
	.size	_TIG_iO_jIUt_1___uint32_identity_1_opaque_list_2, 8
_TIG_iO_jIUt_1___uint32_identity_1_opaque_list_2:
	.zero	8
	.globl	_TIG_iO_jIUt_1___uint16_identity_1_opaque_ptr_1
	.align 8
	.type	_TIG_iO_jIUt_1___uint16_identity_1_opaque_ptr_1, @object
	.size	_TIG_iO_jIUt_1___uint16_identity_1_opaque_ptr_1, 8
_TIG_iO_jIUt_1___uint16_identity_1_opaque_ptr_1:
	.zero	8
	.globl	_TIG_iO_jIUt_1___bswap_32_1_opaque_list_2
	.align 8
	.type	_TIG_iO_jIUt_1___bswap_32_1_opaque_list_2, @object
	.size	_TIG_iO_jIUt_1___bswap_32_1_opaque_list_2, 8
_TIG_iO_jIUt_1___bswap_32_1_opaque_list_2:
	.zero	8
	.globl	_TIG_iO_jIUt_1_dividir_1_opaque_ptr_1
	.align 8
	.type	_TIG_iO_jIUt_1_dividir_1_opaque_ptr_1, @object
	.size	_TIG_iO_jIUt_1_dividir_1_opaque_ptr_1, 8
_TIG_iO_jIUt_1_dividir_1_opaque_ptr_1:
	.zero	8
	.globl	_TIG_iO_jIUt_1_somar_1_opaque_ptr_1
	.align 8
	.type	_TIG_iO_jIUt_1_somar_1_opaque_ptr_1, @object
	.size	_TIG_iO_jIUt_1_somar_1_opaque_ptr_1, 8
_TIG_iO_jIUt_1_somar_1_opaque_ptr_1:
	.zero	8
	.globl	_TIG_iO_jIUt_1___bswap_32_1_opaque_list_1
	.align 8
	.type	_TIG_iO_jIUt_1___bswap_32_1_opaque_list_1, @object
	.size	_TIG_iO_jIUt_1___bswap_32_1_opaque_list_1, 8
_TIG_iO_jIUt_1___bswap_32_1_opaque_list_1:
	.zero	8
	.globl	_TIG_iO_jIUt_1___bswap_64_1_opaque_list_1
	.align 8
	.type	_TIG_iO_jIUt_1___bswap_64_1_opaque_list_1, @object
	.size	_TIG_iO_jIUt_1___bswap_64_1_opaque_list_1, 8
_TIG_iO_jIUt_1___bswap_64_1_opaque_list_1:
	.zero	8
	.globl	_TIG_iO_jIUt_1___uint64_identity_1_opaque_list_1
	.align 8
	.type	_TIG_iO_jIUt_1___uint64_identity_1_opaque_list_1, @object
	.size	_TIG_iO_jIUt_1___uint64_identity_1_opaque_list_1, 8
_TIG_iO_jIUt_1___uint64_identity_1_opaque_list_1:
	.zero	8
	.section	.rodata
.LC0:
	.string	"Portuguese"
.LC1:
	.string	"Digite um n\303\272mero inicial: "
.LC2:
	.string	"%f"
	.align 8
.LC3:
	.string	"Digite a opera\303\247\303\243o (+, -, *, /) ou 'F' para finalizar: "
.LC4:
	.string	" %c"
.LC5:
	.string	"Digite o pr\303\263ximo n\303\272mero: "
.LC6:
	.string	"Opera\303\247\303\243o inv\303\241lida."
.LC7:
	.string	"Resultado: %.2f\n"
	.text
	.globl	main
	.type	main, @function
main:
.LFB1:
	.cfi_startproc
	endbr64
	pushq	%rbp
	.cfi_def_cfa_offset 16
	.cfi_offset 6, -16
	movq	%rsp, %rbp
	.cfi_def_cfa_register 6
	subq	$96, %rsp
	movl	%edi, -68(%rbp)
	movq	%rsi, -80(%rbp)
	movq	%rdx, -88(%rbp)
	movq	%fs:40, %rax
	movq	%rax, -8(%rbp)
	xorl	%eax, %eax
	movq	$0, _TIG_IZ_jIUt_envp(%rip)
	nop
.L2:
	movq	$0, _TIG_IZ_jIUt_argv(%rip)
	nop
.L3:
	movl	$0, _TIG_IZ_jIUt_argc(%rip)
	nop
	nop
.L4:
.L5:
#APP
# 84 "/usr/include/x86_64-linux-gnu/bits/byteswap.h" 1
	##_ANNOTATION_INITIALREGION_-TIG-IZ-jIUt--0
# 0 "" 2
#NO_APP
	movl	-68(%rbp), %eax
	movl	%eax, _TIG_IZ_jIUt_argc(%rip)
	movq	-80(%rbp), %rax
	movq	%rax, _TIG_IZ_jIUt_argv(%rip)
	movq	-88(%rbp), %rax
	movq	%rax, _TIG_IZ_jIUt_envp(%rip)
#APP
# 91 "/usr/include/x86_64-linux-gnu/bits/byteswap.h" 1
	##_ANNOTATION_ATOMICREGION_-TIG-iO-jIUt-1-main--15
# 0 "" 2
#NO_APP
	movl	$24, %edi
	call	malloc@PLT
	movq	%rax, -32(%rbp)
	movq	-32(%rbp), %rax
	movq	-32(%rbp), %rdx
	movq	%rdx, 16(%rax)
	movq	-32(%rbp), %rax
	movq	-32(%rbp), %rdx
	movq	%rdx, 8(%rax)
	movq	-32(%rbp), %rax
	movq	%rax, _TIG_iO_jIUt_1_main_1_opaque_list_1(%rip)
	call	rand@PLT
	movl	%eax, -40(%rbp)
	movl	$24, %edi
	call	malloc@PLT
	movq	%rax, -24(%rbp)
	movq	-24(%rbp), %rax
	movl	$0, (%rax)
	movq	_TIG_iO_jIUt_1_main_1_opaque_list_1(%rip), %rax
	movq	16(%rax), %rdx
	movq	-24(%rbp), %rax
	movq	%rdx, 16(%rax)
	movq	_TIG_iO_jIUt_1_main_1_opaque_list_1(%rip), %rdx
	movq	-24(%rbp), %rax
	movq	%rdx, 8(%rax)
	movq	_TIG_iO_jIUt_1_main_1_opaque_list_1(%rip), %rax
	movq	16(%rax), %rax
	movq	-24(%rbp), %rdx
	movq	%rdx, 8(%rax)
	movq	_TIG_iO_jIUt_1_main_1_opaque_list_1(%rip), %rax
	movq	-24(%rbp), %rdx
	movq	%rdx, 16(%rax)
	call	rand@PLT
	movl	%eax, -36(%rbp)
	movl	$24, %edi
	call	malloc@PLT
	movq	%rax, -16(%rbp)
	movq	-16(%rbp), %rax
	movl	-36(%rbp), %edx
	movl	%edx, (%rax)
	movq	_TIG_iO_jIUt_1_main_1_opaque_list_1(%rip), %rax
	movq	16(%rax), %rdx
	movq	-16(%rbp), %rax
	movq	%rdx, 16(%rax)
	movq	_TIG_iO_jIUt_1_main_1_opaque_list_1(%rip), %rdx
	movq	-16(%rbp), %rax
	movq	%rdx, 8(%rax)
	movq	_TIG_iO_jIUt_1_main_1_opaque_list_1(%rip), %rax
	movq	16(%rax), %rax
	movq	-16(%rbp), %rdx
	movq	%rdx, 8(%rax)
	movq	_TIG_iO_jIUt_1_main_1_opaque_list_1(%rip), %rax
	movq	-16(%rbp), %rdx
	movq	%rdx, 16(%rax)
	movq	_TIG_iO_jIUt_1_main_1_opaque_list_1(%rip), %rax
	movq	16(%rax), %rax
	movq	%rax, _TIG_iO_jIUt_1_main_1_opaque_ptr_1(%rip)
	movq	_TIG_iO_jIUt_1_main_1_opaque_ptr_1(%rip), %rax
	movq	%rax, _TIG_iO_jIUt_1_main_1_opaque_ptr_2(%rip)
	nop
	nop
	leaq	.LC0(%rip), %rax
	movq	%rax, %rsi
	movl	$6, %edi
	call	setlocale@PLT
	leaq	.LC1(%rip), %rax
	movq	%rax, %rdi
	movl	$0, %eax
	call	printf@PLT
	leaq	-52(%rbp), %rax
	movq	%rax, %rsi
	leaq	.LC2(%rip), %rax
	movq	%rax, %rdi
	movl	$0, %eax
	call	__isoc99_scanf@PLT
.L16:
	leaq	.LC3(%rip), %rax
	movq	%rax, %rdi
	movl	$0, %eax
	call	printf@PLT
	leaq	-53(%rbp), %rax
	movq	%rax, %rsi
	leaq	.LC4(%rip), %rax
	movq	%rax, %rdi
	movl	$0, %eax
	call	__isoc99_scanf@PLT
	movzbl	-53(%rbp), %eax
	cmpb	$70, %al
	je	.L19
	leaq	.LC5(%rip), %rax
	movq	%rax, %rdi
	movl	$0, %eax
	call	printf@PLT
	leaq	-48(%rbp), %rax
	movq	%rax, %rsi
	leaq	.LC2(%rip), %rax
	movq	%rax, %rdi
	movl	$0, %eax
	call	__isoc99_scanf@PLT
	movzbl	-53(%rbp), %eax
	cmpb	$43, %al
	jne	.L8
	movss	-48(%rbp), %xmm0
	movl	-52(%rbp), %eax
	leaq	-44(%rbp), %rdx
	movq	%rdx, %rdi
	movaps	%xmm0, %xmm1
	movd	%eax, %xmm0
	call	somar
	jmp	.L9
.L8:
	movzbl	-53(%rbp), %eax
	cmpb	$45, %al
	jne	.L10
	movss	-48(%rbp), %xmm0
	movl	-52(%rbp), %eax
	leaq	-44(%rbp), %rdx
	movq	%rdx, %rdi
	movaps	%xmm0, %xmm1
	movd	%eax, %xmm0
	call	subtrair
	jmp	.L9
.L10:
	movzbl	-53(%rbp), %eax
	cmpb	$42, %al
	jne	.L11
	movq	_TIG_iO_jIUt_1_subtrair_1_opaque_ptr_1(%rip), %rdx
	movq	_TIG_iO_jIUt_1_subtrair_1_opaque_ptr_2(%rip), %rax
	cmpq	%rax, %rdx
	jne	.L12
#APP
# 51 "Guilhermeiiu_exercicios-em-C_3.c" 1
	.byte 0xdf,0xb5,0x94,0x8,0x6d,0x12
# 0 "" 2
#NO_APP
	jmp	.L9
.L12:
	movss	-48(%rbp), %xmm0
	movl	-52(%rbp), %eax
	leaq	-44(%rbp), %rdx
	movq	%rdx, %rdi
	movaps	%xmm0, %xmm1
	movd	%eax, %xmm0
	call	multiplicar
	jmp	.L9
.L11:
	movzbl	-53(%rbp), %eax
	cmpb	$47, %al
	jne	.L13
	movss	-48(%rbp), %xmm0
	movl	-52(%rbp), %eax
	leaq	-44(%rbp), %rdx
	movq	%rdx, %rdi
	movaps	%xmm0, %xmm1
	movd	%eax, %xmm0
	call	dividir
	jmp	.L9
.L13:
	leaq	.LC6(%rip), %rax
	movq	%rax, %rdi
	call	puts@PLT
	jmp	.L14
.L9:
	movss	-44(%rbp), %xmm0
	pxor	%xmm2, %xmm2
	cvtss2sd	%xmm0, %xmm2
	movq	%xmm2, %rax
	movq	%rax, %xmm0
	leaq	.LC7(%rip), %rax
	movq	%rax, %rdi
	movl	$1, %eax
	call	printf@PLT
	movss	-44(%rbp), %xmm0
	movss	%xmm0, -52(%rbp)
.L14:
	movzbl	-53(%rbp), %eax
	cmpb	$70, %al
	je	.L20
	jmp	.L16
.L19:
	nop
	jmp	.L7
.L20:
	nop
.L7:
	movl	$0, %eax
	movq	-8(%rbp), %rdx
	subq	%fs:40, %rdx
	je	.L18
	call	__stack_chk_fail@PLT
.L18:
	leave
	.cfi_def_cfa 7, 8
	ret
	.cfi_endproc
.LFE1:
	.size	main, .-main
	.globl	somar
	.type	somar, @function
somar:
.LFB5:
	.cfi_startproc
	endbr64
	pushq	%rbp
	.cfi_def_cfa_offset 16
	.cfi_offset 6, -16
	movq	%rsp, %rbp
	.cfi_def_cfa_register 6
	subq	$48, %rsp
	movss	%xmm0, -36(%rbp)
	movss	%xmm1, -40(%rbp)
	movq	%rdi, -48(%rbp)
#APP
# 61 "/usr/include/x86_64-linux-gnu/bits/uintn-identity.h" 1
	##_ANNOTATION_INITIALREGION_-TIG-iO-jIUt-1-somar--20
# 0 "" 2
# 65 "/usr/include/x86_64-linux-gnu/bits/uintn-identity.h" 1
	##_ANNOTATION_ATOMICREGION_-TIG-iO-jIUt-1-somar--19
# 0 "" 2
#NO_APP
	movl	$24, %edi
	call	malloc@PLT
	movq	%rax, -24(%rbp)
	movq	-24(%rbp), %rax
	movq	-24(%rbp), %rdx
	movq	%rdx, 8(%rax)
	movq	-24(%rbp), %rax
	movq	-24(%rbp), %rdx
	movq	%rdx, 16(%rax)
	movq	-24(%rbp), %rax
	movq	%rax, _TIG_iO_jIUt_1_somar_1_opaque_list_1(%rip)
	call	rand@PLT
	movl	%eax, -32(%rbp)
	movl	$24, %edi
	call	malloc@PLT
	movq	%rax, -16(%rbp)
	movq	-16(%rbp), %rax
	movl	$0, (%rax)
	movq	_TIG_iO_jIUt_1_somar_1_opaque_list_1(%rip), %rax
	movq	8(%rax), %rdx
	movq	-16(%rbp), %rax
	movq	%rdx, 8(%rax)
	movq	_TIG_iO_jIUt_1_somar_1_opaque_list_1(%rip), %rdx
	movq	-16(%rbp), %rax
	movq	%rdx, 16(%rax)
	movq	_TIG_iO_jIUt_1_somar_1_opaque_list_1(%rip), %rax
	movq	8(%rax), %rax
	movq	-16(%rbp), %rdx
	movq	%rdx, 16(%rax)
	movq	_TIG_iO_jIUt_1_somar_1_opaque_list_1(%rip), %rax
	movq	-16(%rbp), %rdx
	movq	%rdx, 8(%rax)
	call	rand@PLT
	movl	%eax, -28(%rbp)
	movl	$24, %edi
	call	malloc@PLT
	movq	%rax, -8(%rbp)
	movq	-8(%rbp), %rax
	movl	-28(%rbp), %edx
	movl	%edx, (%rax)
	movq	_TIG_iO_jIUt_1_somar_1_opaque_list_1(%rip), %rax
	movq	8(%rax), %rdx
	movq	-8(%rbp), %rax
	movq	%rdx, 8(%rax)
	movq	_TIG_iO_jIUt_1_somar_1_opaque_list_1(%rip), %rdx
	movq	-8(%rbp), %rax
	movq	%rdx, 16(%rax)
	movq	_TIG_iO_jIUt_1_somar_1_opaque_list_1(%rip), %rax
	movq	8(%rax), %rax
	movq	-8(%rbp), %rdx
	movq	%rdx, 16(%rax)
	movq	_TIG_iO_jIUt_1_somar_1_opaque_list_1(%rip), %rax
	movq	-8(%rbp), %rdx
	movq	%rdx, 8(%rax)
	movq	_TIG_iO_jIUt_1_somar_1_opaque_list_1(%rip), %rax
	movq	8(%rax), %rax
	movq	%rax, _TIG_iO_jIUt_1_somar_1_opaque_ptr_1(%rip)
	movq	_TIG_iO_jIUt_1_somar_1_opaque_ptr_1(%rip), %rax
	movq	%rax, _TIG_iO_jIUt_1_somar_1_opaque_ptr_2(%rip)
	nop
	nop
	movq	_TIG_iO_jIUt_1_subtrair_1_opaque_ptr_1(%rip), %rdx
	movq	_TIG_iO_jIUt_1_subtrair_1_opaque_ptr_2(%rip), %rax
	cmpq	%rax, %rdx
	jne	.L22
#APP
# 94 "/usr/include/x86_64-linux-gnu/bits/uintn-identity.h" 1
	.byte 0x36
# 0 "" 2
#NO_APP
	jmp	.L21
.L22:
	movss	-36(%rbp), %xmm0
	addss	-40(%rbp), %xmm0
	movq	-48(%rbp), %rax
	movss	%xmm0, (%rax)
	nop
.L21:
	leave
	.cfi_def_cfa 7, 8
	ret
	.cfi_endproc
.LFE5:
	.size	somar, .-somar
	.section	.rodata
.LC9:
	.string	"Erro: Divis\303\243o por zero."
	.text
	.globl	dividir
	.type	dividir, @function
dividir:
.LFB6:
	.cfi_startproc
	endbr64
	pushq	%rbp
	.cfi_def_cfa_offset 16
	.cfi_offset 6, -16
	movq	%rsp, %rbp
	.cfi_def_cfa_register 6
	subq	$80, %rsp
	movss	%xmm0, -68(%rbp)
	movss	%xmm1, -72(%rbp)
	movq	%rdi, -80(%rbp)
#APP
# 26 "Guilhermeiiu_exercicios-em-C_3.c" 1
	##_ANNOTATION_INITIALREGION_-TIG-iO-jIUt-1-dividir--14
# 0 "" 2
# 30 "Guilhermeiiu_exercicios-em-C_3.c" 1
	##_ANNOTATION_ATOMICREGION_-TIG-iO-jIUt-1-dividir--13
# 0 "" 2
#NO_APP
	movl	$24, %edi
	call	malloc@PLT
	movq	%rax, -40(%rbp)
	movq	-40(%rbp), %rax
	movq	-40(%rbp), %rdx
	movq	%rdx, (%rax)
	movq	-40(%rbp), %rax
	movq	-40(%rbp), %rdx
	movq	%rdx, 8(%rax)
	movq	-40(%rbp), %rax
	movq	%rax, _TIG_iO_jIUt_1_dividir_1_opaque_list_1(%rip)
	call	rand@PLT
	movl	%eax, -56(%rbp)
	movl	$24, %edi
	call	malloc@PLT
	movq	%rax, -32(%rbp)
	movq	-32(%rbp), %rax
	movl	$0, 16(%rax)
	movq	_TIG_iO_jIUt_1_dividir_1_opaque_list_1(%rip), %rax
	movq	(%rax), %rdx
	movq	-32(%rbp), %rax
	movq	%rdx, (%rax)
	movq	_TIG_iO_jIUt_1_dividir_1_opaque_list_1(%rip), %rdx
	movq	-32(%rbp), %rax
	movq	%rdx, 8(%rax)
	movq	_TIG_iO_jIUt_1_dividir_1_opaque_list_1(%rip), %rax
	movq	(%rax), %rax
	movq	-32(%rbp), %rdx
	movq	%rdx, 8(%rax)
	movq	_TIG_iO_jIUt_1_dividir_1_opaque_list_1(%rip), %rax
	movq	-32(%rbp), %rdx
	movq	%rdx, (%rax)
	call	rand@PLT
	movl	%eax, -52(%rbp)
	movl	$24, %edi
	call	malloc@PLT
	movq	%rax, -24(%rbp)
	movq	-24(%rbp), %rax
	movl	-52(%rbp), %edx
	movl	%edx, 16(%rax)
	movq	_TIG_iO_jIUt_1_dividir_1_opaque_list_1(%rip), %rax
	movq	(%rax), %rdx
	movq	-24(%rbp), %rax
	movq	%rdx, (%rax)
	movq	_TIG_iO_jIUt_1_dividir_1_opaque_list_1(%rip), %rdx
	movq	-24(%rbp), %rax
	movq	%rdx, 8(%rax)
	movq	_TIG_iO_jIUt_1_dividir_1_opaque_list_1(%rip), %rax
	movq	(%rax), %rax
	movq	-24(%rbp), %rdx
	movq	%rdx, 8(%rax)
	movq	_TIG_iO_jIUt_1_dividir_1_opaque_list_1(%rip), %rax
	movq	-24(%rbp), %rdx
	movq	%rdx, (%rax)
	call	rand@PLT
	movl	%eax, -48(%rbp)
	movl	$24, %edi
	call	malloc@PLT
	movq	%rax, -16(%rbp)
	movl	-48(%rbp), %eax
	leal	(%rax,%rax), %edx
	movq	-16(%rbp), %rax
	movl	%edx, 16(%rax)
	movq	_TIG_iO_jIUt_1_dividir_1_opaque_list_1(%rip), %rax
	movq	(%rax), %rdx
	movq	-16(%rbp), %rax
	movq	%rdx, (%rax)
	movq	_TIG_iO_jIUt_1_dividir_1_opaque_list_1(%rip), %rdx
	movq	-16(%rbp), %rax
	movq	%rdx, 8(%rax)
	movq	_TIG_iO_jIUt_1_dividir_1_opaque_list_1(%rip), %rax
	movq	(%rax), %rax
	movq	-16(%rbp), %rdx
	movq	%rdx, 8(%rax)
	movq	_TIG_iO_jIUt_1_dividir_1_opaque_list_1(%rip), %rax
	movq	-16(%rbp), %rdx
	movq	%rdx, (%rax)
	call	rand@PLT
	movl	%eax, -44(%rbp)
	movl	$24, %edi
	call	malloc@PLT
	movq	%rax, -8(%rbp)
	movl	-44(%rbp), %edx
	movl	%edx, %eax
	addl	%eax, %eax
	addl	%eax, %edx
	movq	-8(%rbp), %rax
	movl	%edx, 16(%rax)
	movq	_TIG_iO_jIUt_1_dividir_1_opaque_list_1(%rip), %rax
	movq	(%rax), %rdx
	movq	-8(%rbp), %rax
	movq	%rdx, (%rax)
	movq	_TIG_iO_jIUt_1_dividir_1_opaque_list_1(%rip), %rdx
	movq	-8(%rbp), %rax
	movq	%rdx, 8(%rax)
	movq	_TIG_iO_jIUt_1_dividir_1_opaque_list_1(%rip), %rax
	movq	(%rax), %rax
	movq	-8(%rbp), %rdx
	movq	%rdx, 8(%rax)
	movq	_TIG_iO_jIUt_1_dividir_1_opaque_list_1(%rip), %rax
	movq	-8(%rbp), %rdx
	movq	%rdx, (%rax)
	movq	_TIG_iO_jIUt_1_dividir_1_opaque_list_1(%rip), %rax
	movq	(%rax), %rax
	movq	%rax, _TIG_iO_jIUt_1_dividir_1_opaque_ptr_1(%rip)
	movq	_TIG_iO_jIUt_1_dividir_1_opaque_ptr_1(%rip), %rax
	movq	%rax, _TIG_iO_jIUt_1_dividir_1_opaque_ptr_2(%rip)
	movq	_TIG_iO_jIUt_1_dividir_1_opaque_ptr_2(%rip), %rax
	movq	(%rax), %rax
	movq	%rax, _TIG_iO_jIUt_1_dividir_1_opaque_ptr_2(%rip)
	nop
	nop
	pxor	%xmm0, %xmm0
	ucomiss	-72(%rbp), %xmm0
	jp	.L30
	pxor	%xmm0, %xmm0
	ucomiss	-72(%rbp), %xmm0
	je	.L26
.L30:
	movq	_TIG_iO_jIUt_1_subtrair_1_opaque_ptr_1(%rip), %rdx
	movq	_TIG_iO_jIUt_1_subtrair_1_opaque_ptr_2(%rip), %rax
	cmpq	%rax, %rdx
	je	.L31
	movss	-68(%rbp), %xmm0
	divss	-72(%rbp), %xmm0
	movq	-80(%rbp), %rax
	movss	%xmm0, (%rax)
	jmp	.L31
.L26:
	leaq	.LC9(%rip), %rax
	movq	%rax, %rdi
	call	puts@PLT
	movq	-80(%rbp), %rax
	pxor	%xmm0, %xmm0
	movss	%xmm0, (%rax)
	nop
.L31:
	nop
	leave
	.cfi_def_cfa 7, 8
	ret
	.cfi_endproc
.LFE6:
	.size	dividir, .-dividir
	.globl	subtrair
	.type	subtrair, @function
subtrair:
.LFB8:
	.cfi_startproc
	endbr64
	pushq	%rbp
	.cfi_def_cfa_offset 16
	.cfi_offset 6, -16
	movq	%rsp, %rbp
	.cfi_def_cfa_register 6
	subq	$64, %rsp
	movss	%xmm0, -52(%rbp)
	movss	%xmm1, -56(%rbp)
	movq	%rdi, -64(%rbp)
#APP
# 57 "/usr/include/x86_64-linux-gnu/bits/uintn-identity.h" 1
	##_ANNOTATION_INITIALREGION_-TIG-iO-jIUt-1-subtrair--22
# 0 "" 2
# 61 "/usr/include/x86_64-linux-gnu/bits/uintn-identity.h" 1
	##_ANNOTATION_ATOMICREGION_-TIG-iO-jIUt-1-subtrair--21
# 0 "" 2
#NO_APP
	movl	$24, %edi
	call	malloc@PLT
	movq	%rax, -32(%rbp)
	movq	-32(%rbp), %rax
	movq	-32(%rbp), %rdx
	movq	%rdx, (%rax)
	movq	-32(%rbp), %rax
	movq	-32(%rbp), %rdx
	movq	%rdx, 16(%rax)
	movq	-32(%rbp), %rax
	movq	%rax, _TIG_iO_jIUt_1_subtrair_1_opaque_list_1(%rip)
	call	rand@PLT
	movl	%eax, -44(%rbp)
	movl	$24, %edi
	call	malloc@PLT
	movq	%rax, -24(%rbp)
	movq	-24(%rbp), %rax
	movl	$0, 8(%rax)
	movq	_TIG_iO_jIUt_1_subtrair_1_opaque_list_1(%rip), %rax
	movq	(%rax), %rdx
	movq	-24(%rbp), %rax
	movq	%rdx, (%rax)
	movq	_TIG_iO_jIUt_1_subtrair_1_opaque_list_1(%rip), %rdx
	movq	-24(%rbp), %rax
	movq	%rdx, 16(%rax)
	movq	_TIG_iO_jIUt_1_subtrair_1_opaque_list_1(%rip), %rax
	movq	(%rax), %rax
	movq	-24(%rbp), %rdx
	movq	%rdx, 16(%rax)
	movq	_TIG_iO_jIUt_1_subtrair_1_opaque_list_1(%rip), %rax
	movq	-24(%rbp), %rdx
	movq	%rdx, (%rax)
	call	rand@PLT
	movl	%eax, -40(%rbp)
	movl	$24, %edi
	call	malloc@PLT
	movq	%rax, -16(%rbp)
	movq	-16(%rbp), %rax
	movl	-40(%rbp), %edx
	movl	%edx, 8(%rax)
	movq	_TIG_iO_jIUt_1_subtrair_1_opaque_list_1(%rip), %rax
	movq	(%rax), %rdx
	movq	-16(%rbp), %rax
	movq	%rdx, (%rax)
	movq	_TIG_iO_jIUt_1_subtrair_1_opaque_list_1(%rip), %rdx
	movq	-16(%rbp), %rax
	movq	%rdx, 16(%rax)
	movq	_TIG_iO_jIUt_1_subtrair_1_opaque_list_1(%rip), %rax
	movq	(%rax), %rax
	movq	-16(%rbp), %rdx
	movq	%rdx, 16(%rax)
	movq	_TIG_iO_jIUt_1_subtrair_1_opaque_list_1(%rip), %rax
	movq	-16(%rbp), %rdx
	movq	%rdx, (%rax)
	call	rand@PLT
	movl	%eax, -36(%rbp)
	movl	$24, %edi
	call	malloc@PLT
	movq	%rax, -8(%rbp)
	movl	-36(%rbp), %eax
	leal	(%rax,%rax), %edx
	movq	-8(%rbp), %rax
	movl	%edx, 8(%rax)
	movq	_TIG_iO_jIUt_1_subtrair_1_opaque_list_1(%rip), %rax
	movq	(%rax), %rdx
	movq	-8(%rbp), %rax
	movq	%rdx, (%rax)
	movq	_TIG_iO_jIUt_1_subtrair_1_opaque_list_1(%rip), %rdx
	movq	-8(%rbp), %rax
	movq	%rdx, 16(%rax)
	movq	_TIG_iO_jIUt_1_subtrair_1_opaque_list_1(%rip), %rax
	movq	(%rax), %rax
	movq	-8(%rbp), %rdx
	movq	%rdx, 16(%rax)
	movq	_TIG_iO_jIUt_1_subtrair_1_opaque_list_1(%rip), %rax
	movq	-8(%rbp), %rdx
	movq	%rdx, (%rax)
	movq	_TIG_iO_jIUt_1_subtrair_1_opaque_list_1(%rip), %rax
	movq	(%rax), %rax
	movq	%rax, _TIG_iO_jIUt_1_subtrair_1_opaque_ptr_1(%rip)
	movq	_TIG_iO_jIUt_1_subtrair_1_opaque_ptr_1(%rip), %rax
	movq	%rax, _TIG_iO_jIUt_1_subtrair_1_opaque_ptr_2(%rip)
	movq	_TIG_iO_jIUt_1_subtrair_1_opaque_ptr_2(%rip), %rax
	movq	(%rax), %rax
	movq	%rax, _TIG_iO_jIUt_1_subtrair_1_opaque_ptr_2(%rip)
	nop
	nop
	movq	_TIG_iO_jIUt_1_subtrair_1_opaque_ptr_1(%rip), %rdx
	movq	_TIG_iO_jIUt_1_subtrair_1_opaque_ptr_2(%rip), %rax
	cmpq	%rax, %rdx
	jne	.L33
	movss	-52(%rbp), %xmm0
	subss	-56(%rbp), %xmm0
	divss	-56(%rbp), %xmm0
	movq	-64(%rbp), %rax
	movss	%xmm0, (%rax)
	jmp	.L32
.L33:
	movss	-52(%rbp), %xmm0
	subss	-56(%rbp), %xmm0
	movq	-64(%rbp), %rax
	movss	%xmm0, (%rax)
	nop
.L32:
	leave
	.cfi_def_cfa 7, 8
	ret
	.cfi_endproc
.LFE8:
	.size	subtrair, .-subtrair
	.globl	multiplicar
	.type	multiplicar, @function
multiplicar:
.LFB10:
	.cfi_startproc
	endbr64
	pushq	%rbp
	.cfi_def_cfa_offset 16
	.cfi_offset 6, -16
	movq	%rsp, %rbp
	.cfi_def_cfa_register 6
	subq	$48, %rsp
	movss	%xmm0, -36(%rbp)
	movss	%xmm1, -40(%rbp)
	movq	%rdi, -48(%rbp)
#APP
# 68 "/usr/include/x86_64-linux-gnu/bits/byteswap.h" 1
	##_ANNOTATION_INITIALREGION_-TIG-iO-jIUt-1-multiplicar--18
# 0 "" 2
# 72 "/usr/include/x86_64-linux-gnu/bits/byteswap.h" 1
	##_ANNOTATION_ATOMICREGION_-TIG-iO-jIUt-1-multiplicar--17
# 0 "" 2
#NO_APP
	movl	$24, %edi
	call	malloc@PLT
	movq	%rax, -24(%rbp)
	movq	-24(%rbp), %rax
	movq	-24(%rbp), %rdx
	movq	%rdx, 8(%rax)
	movq	-24(%rbp), %rax
	movq	-24(%rbp), %rdx
	movq	%rdx, (%rax)
	movq	-24(%rbp), %rax
	movq	%rax, _TIG_iO_jIUt_1_multiplicar_1_opaque_list_1(%rip)
	call	rand@PLT
	movl	%eax, -32(%rbp)
	movl	$24, %edi
	call	malloc@PLT
	movq	%rax, -16(%rbp)
	movq	-16(%rbp), %rax
	movl	$0, 16(%rax)
	movq	_TIG_iO_jIUt_1_multiplicar_1_opaque_list_1(%rip), %rax
	movq	8(%rax), %rdx
	movq	-16(%rbp), %rax
	movq	%rdx, 8(%rax)
	movq	_TIG_iO_jIUt_1_multiplicar_1_opaque_list_1(%rip), %rdx
	movq	-16(%rbp), %rax
	movq	%rdx, (%rax)
	movq	_TIG_iO_jIUt_1_multiplicar_1_opaque_list_1(%rip), %rax
	movq	8(%rax), %rax
	movq	-16(%rbp), %rdx
	movq	%rdx, (%rax)
	movq	_TIG_iO_jIUt_1_multiplicar_1_opaque_list_1(%rip), %rax
	movq	-16(%rbp), %rdx
	movq	%rdx, 8(%rax)
	call	rand@PLT
	movl	%eax, -28(%rbp)
	movl	$24, %edi
	call	malloc@PLT
	movq	%rax, -8(%rbp)
	movq	-8(%rbp), %rax
	movl	-28(%rbp), %edx
	movl	%edx, 16(%rax)
	movq	_TIG_iO_jIUt_1_multiplicar_1_opaque_list_1(%rip), %rax
	movq	8(%rax), %rdx
	movq	-8(%rbp), %rax
	movq	%rdx, 8(%rax)
	movq	_TIG_iO_jIUt_1_multiplicar_1_opaque_list_1(%rip), %rdx
	movq	-8(%rbp), %rax
	movq	%rdx, (%rax)
	movq	_TIG_iO_jIUt_1_multiplicar_1_opaque_list_1(%rip), %rax
	movq	8(%rax), %rax
	movq	-8(%rbp), %rdx
	movq	%rdx, (%rax)
	movq	_TIG_iO_jIUt_1_multiplicar_1_opaque_list_1(%rip), %rax
	movq	-8(%rbp), %rdx
	movq	%rdx, 8(%rax)
	movq	_TIG_iO_jIUt_1_multiplicar_1_opaque_list_1(%rip), %rax
	movq	8(%rax), %rax
	movq	%rax, _TIG_iO_jIUt_1_multiplicar_1_opaque_ptr_1(%rip)
	movq	_TIG_iO_jIUt_1_multiplicar_1_opaque_ptr_1(%rip), %rax
	movq	%rax, _TIG_iO_jIUt_1_multiplicar_1_opaque_ptr_2(%rip)
	movq	_TIG_iO_jIUt_1_multiplicar_1_opaque_ptr_2(%rip), %rax
	movq	8(%rax), %rax
	movq	%rax, _TIG_iO_jIUt_1_multiplicar_1_opaque_ptr_2(%rip)
	nop
	nop
	movq	_TIG_iO_jIUt_1_subtrair_1_opaque_ptr_1(%rip), %rdx
	movq	_TIG_iO_jIUt_1_subtrair_1_opaque_ptr_2(%rip), %rax
	cmpq	%rax, %rdx
	jne	.L37
#APP
# 102 "/usr/include/x86_64-linux-gnu/bits/byteswap.h" 1
	.byte 0xff
# 0 "" 2
#NO_APP
	jmp	.L36
.L37:
	movss	-36(%rbp), %xmm0
	mulss	-40(%rbp), %xmm0
	movq	-48(%rbp), %rax
	movss	%xmm0, (%rax)
	nop
.L36:
	leave
	.cfi_def_cfa 7, 8
	ret
	.cfi_endproc
.LFE10:
	.size	multiplicar, .-multiplicar
	.ident	"GCC: (Ubuntu 11.4.0-1ubuntu1~22.04) 11.4.0"
	.section	.note.GNU-stack,"",@progbits
	.section	.note.gnu.property,"a"
	.align 8
	.long	1f - 0f
	.long	4f - 1f
	.long	5
0:
	.string	"GNU"
1:
	.align 8
	.long	0xc0000002
	.long	3f - 2f
2:
	.long	0x3
3:
	.align 8
4:
