	.file	"gusanmaz_BMB311_OS_main_opaque.c"
	.text
	.globl	_TIG_iO_YROu_1___bswap_32_1_opaque_ptr_1
	.bss
	.align 8
	.type	_TIG_iO_YROu_1___bswap_32_1_opaque_ptr_1, @object
	.size	_TIG_iO_YROu_1___bswap_32_1_opaque_ptr_1, 8
_TIG_iO_YROu_1___bswap_32_1_opaque_ptr_1:
	.zero	8
	.globl	_TIG_iO_YROu_1___bswap_16_1_opaque_list_2
	.align 8
	.type	_TIG_iO_YROu_1___bswap_16_1_opaque_list_2, @object
	.size	_TIG_iO_YROu_1___bswap_16_1_opaque_list_2, 8
_TIG_iO_YROu_1___bswap_16_1_opaque_list_2:
	.zero	8
	.globl	_TIG_iO_YROu_1___bswap_16_1_opaque_ptr_2
	.align 8
	.type	_TIG_iO_YROu_1___bswap_16_1_opaque_ptr_2, @object
	.size	_TIG_iO_YROu_1___bswap_16_1_opaque_ptr_2, 8
_TIG_iO_YROu_1___bswap_16_1_opaque_ptr_2:
	.zero	8
	.globl	_TIG_iO_YROu_1___bswap_16_1_opaque_ptr_1
	.align 8
	.type	_TIG_iO_YROu_1___bswap_16_1_opaque_ptr_1, @object
	.size	_TIG_iO_YROu_1___bswap_16_1_opaque_ptr_1, 8
_TIG_iO_YROu_1___bswap_16_1_opaque_ptr_1:
	.zero	8
	.globl	_TIG_iO_YROu_1___bswap_16_1_opaque_list_1
	.align 8
	.type	_TIG_iO_YROu_1___bswap_16_1_opaque_list_1, @object
	.size	_TIG_iO_YROu_1___bswap_16_1_opaque_list_1, 8
_TIG_iO_YROu_1___bswap_16_1_opaque_list_1:
	.zero	8
	.globl	_TIG_iO_YROu_1___bswap_64_1_opaque_list_2
	.align 8
	.type	_TIG_iO_YROu_1___bswap_64_1_opaque_list_2, @object
	.size	_TIG_iO_YROu_1___bswap_64_1_opaque_list_2, 8
_TIG_iO_YROu_1___bswap_64_1_opaque_list_2:
	.zero	8
	.globl	_TIG_iO_YROu_1_read_1_opaque_ptr_1
	.align 8
	.type	_TIG_iO_YROu_1_read_1_opaque_ptr_1, @object
	.size	_TIG_iO_YROu_1_read_1_opaque_ptr_1, 8
_TIG_iO_YROu_1_read_1_opaque_ptr_1:
	.zero	8
	.globl	_TIG_IZ_YROu_envp
	.align 8
	.type	_TIG_IZ_YROu_envp, @object
	.size	_TIG_IZ_YROu_envp, 8
_TIG_IZ_YROu_envp:
	.zero	8
	.globl	_TIG_iO_YROu_1___uint32_identity_1_opaque_ptr_2
	.align 8
	.type	_TIG_iO_YROu_1___uint32_identity_1_opaque_ptr_2, @object
	.size	_TIG_iO_YROu_1___uint32_identity_1_opaque_ptr_2, 8
_TIG_iO_YROu_1___uint32_identity_1_opaque_ptr_2:
	.zero	8
	.globl	_TIG_iO_YROu_1_read_1_opaque_ptr_2
	.align 8
	.type	_TIG_iO_YROu_1_read_1_opaque_ptr_2, @object
	.size	_TIG_iO_YROu_1_read_1_opaque_ptr_2, 8
_TIG_iO_YROu_1_read_1_opaque_ptr_2:
	.zero	8
	.globl	_TIG_iO_YROu_1___uint32_identity_1_opaque_list_1
	.align 8
	.type	_TIG_iO_YROu_1___uint32_identity_1_opaque_list_1, @object
	.size	_TIG_iO_YROu_1___uint32_identity_1_opaque_list_1, 8
_TIG_iO_YROu_1___uint32_identity_1_opaque_list_1:
	.zero	8
	.globl	_TIG_iO_YROu_1_read_1_opaque_list_2
	.align 8
	.type	_TIG_iO_YROu_1_read_1_opaque_list_2, @object
	.size	_TIG_iO_YROu_1_read_1_opaque_list_2, 8
_TIG_iO_YROu_1_read_1_opaque_list_2:
	.zero	8
	.globl	_TIG_iO_YROu_1_read_1_opaque_list_1
	.align 8
	.type	_TIG_iO_YROu_1_read_1_opaque_list_1, @object
	.size	_TIG_iO_YROu_1_read_1_opaque_list_1, 8
_TIG_iO_YROu_1_read_1_opaque_list_1:
	.zero	8
	.globl	_TIG_iO_YROu_1___bswap_32_1_opaque_list_1
	.align 8
	.type	_TIG_iO_YROu_1___bswap_32_1_opaque_list_1, @object
	.size	_TIG_iO_YROu_1___bswap_32_1_opaque_list_1, 8
_TIG_iO_YROu_1___bswap_32_1_opaque_list_1:
	.zero	8
	.globl	_TIG_iO_YROu_1_main_1_opaque_list_2
	.align 8
	.type	_TIG_iO_YROu_1_main_1_opaque_list_2, @object
	.size	_TIG_iO_YROu_1_main_1_opaque_list_2, 8
_TIG_iO_YROu_1_main_1_opaque_list_2:
	.zero	8
	.globl	_TIG_iO_YROu_1___bswap_32_1_opaque_ptr_2
	.align 8
	.type	_TIG_iO_YROu_1___bswap_32_1_opaque_ptr_2, @object
	.size	_TIG_iO_YROu_1___bswap_32_1_opaque_ptr_2, 8
_TIG_iO_YROu_1___bswap_32_1_opaque_ptr_2:
	.zero	8
	.globl	_TIG_iO_YROu_1___uint64_identity_1_opaque_list_1
	.align 8
	.type	_TIG_iO_YROu_1___uint64_identity_1_opaque_list_1, @object
	.size	_TIG_iO_YROu_1___uint64_identity_1_opaque_list_1, 8
_TIG_iO_YROu_1___uint64_identity_1_opaque_list_1:
	.zero	8
	.globl	_TIG_iO_YROu_1___uint32_identity_1_opaque_ptr_1
	.align 8
	.type	_TIG_iO_YROu_1___uint32_identity_1_opaque_ptr_1, @object
	.size	_TIG_iO_YROu_1___uint32_identity_1_opaque_ptr_1, 8
_TIG_iO_YROu_1___uint32_identity_1_opaque_ptr_1:
	.zero	8
	.globl	_TIG_iO_YROu_1___uint64_identity_1_opaque_ptr_1
	.align 8
	.type	_TIG_iO_YROu_1___uint64_identity_1_opaque_ptr_1, @object
	.size	_TIG_iO_YROu_1___uint64_identity_1_opaque_ptr_1, 8
_TIG_iO_YROu_1___uint64_identity_1_opaque_ptr_1:
	.zero	8
	.globl	_TIG_iO_YROu_1___uint16_identity_1_opaque_ptr_1
	.align 8
	.type	_TIG_iO_YROu_1___uint16_identity_1_opaque_ptr_1, @object
	.size	_TIG_iO_YROu_1___uint16_identity_1_opaque_ptr_1, 8
_TIG_iO_YROu_1___uint16_identity_1_opaque_ptr_1:
	.zero	8
	.globl	_TIG_iO_YROu_1_main_1_opaque_list_1
	.align 8
	.type	_TIG_iO_YROu_1_main_1_opaque_list_1, @object
	.size	_TIG_iO_YROu_1_main_1_opaque_list_1, 8
_TIG_iO_YROu_1_main_1_opaque_list_1:
	.zero	8
	.globl	_TIG_iO_YROu_1___bswap_64_1_opaque_ptr_1
	.align 8
	.type	_TIG_iO_YROu_1___bswap_64_1_opaque_ptr_1, @object
	.size	_TIG_iO_YROu_1___bswap_64_1_opaque_ptr_1, 8
_TIG_iO_YROu_1___bswap_64_1_opaque_ptr_1:
	.zero	8
	.globl	_TIG_IZ_YROu_argv
	.align 8
	.type	_TIG_IZ_YROu_argv, @object
	.size	_TIG_IZ_YROu_argv, 8
_TIG_IZ_YROu_argv:
	.zero	8
	.globl	_TIG_iO_YROu_1___uint64_identity_1_opaque_list_2
	.align 8
	.type	_TIG_iO_YROu_1___uint64_identity_1_opaque_list_2, @object
	.size	_TIG_iO_YROu_1___uint64_identity_1_opaque_list_2, 8
_TIG_iO_YROu_1___uint64_identity_1_opaque_list_2:
	.zero	8
	.globl	_TIG_iO_YROu_1___uint64_identity_1_opaque_ptr_2
	.align 8
	.type	_TIG_iO_YROu_1___uint64_identity_1_opaque_ptr_2, @object
	.size	_TIG_iO_YROu_1___uint64_identity_1_opaque_ptr_2, 8
_TIG_iO_YROu_1___uint64_identity_1_opaque_ptr_2:
	.zero	8
	.globl	_TIG_iO_YROu_1___uint32_identity_1_opaque_list_2
	.align 8
	.type	_TIG_iO_YROu_1___uint32_identity_1_opaque_list_2, @object
	.size	_TIG_iO_YROu_1___uint32_identity_1_opaque_list_2, 8
_TIG_iO_YROu_1___uint32_identity_1_opaque_list_2:
	.zero	8
	.globl	_TIG_iO_YROu_1___uint16_identity_1_opaque_list_2
	.align 8
	.type	_TIG_iO_YROu_1___uint16_identity_1_opaque_list_2, @object
	.size	_TIG_iO_YROu_1___uint16_identity_1_opaque_list_2, 8
_TIG_iO_YROu_1___uint16_identity_1_opaque_list_2:
	.zero	8
	.globl	_TIG_iO_YROu_1___uint16_identity_1_opaque_ptr_2
	.align 8
	.type	_TIG_iO_YROu_1___uint16_identity_1_opaque_ptr_2, @object
	.size	_TIG_iO_YROu_1___uint16_identity_1_opaque_ptr_2, 8
_TIG_iO_YROu_1___uint16_identity_1_opaque_ptr_2:
	.zero	8
	.globl	_TIG_iO_YROu_1___bswap_64_1_opaque_list_1
	.align 8
	.type	_TIG_iO_YROu_1___bswap_64_1_opaque_list_1, @object
	.size	_TIG_iO_YROu_1___bswap_64_1_opaque_list_1, 8
_TIG_iO_YROu_1___bswap_64_1_opaque_list_1:
	.zero	8
	.globl	_TIG_iO_YROu_1___bswap_32_1_opaque_list_2
	.align 8
	.type	_TIG_iO_YROu_1___bswap_32_1_opaque_list_2, @object
	.size	_TIG_iO_YROu_1___bswap_32_1_opaque_list_2, 8
_TIG_iO_YROu_1___bswap_32_1_opaque_list_2:
	.zero	8
	.globl	_TIG_IZ_YROu_argc
	.align 4
	.type	_TIG_IZ_YROu_argc, @object
	.size	_TIG_IZ_YROu_argc, 4
_TIG_IZ_YROu_argc:
	.zero	4
	.globl	_TIG_iO_YROu_1___uint16_identity_1_opaque_list_1
	.align 8
	.type	_TIG_iO_YROu_1___uint16_identity_1_opaque_list_1, @object
	.size	_TIG_iO_YROu_1___uint16_identity_1_opaque_list_1, 8
_TIG_iO_YROu_1___uint16_identity_1_opaque_list_1:
	.zero	8
	.globl	_TIG_iO_YROu_1_main_1_opaque_ptr_1
	.align 8
	.type	_TIG_iO_YROu_1_main_1_opaque_ptr_1, @object
	.size	_TIG_iO_YROu_1_main_1_opaque_ptr_1, 8
_TIG_iO_YROu_1_main_1_opaque_ptr_1:
	.zero	8
	.globl	_TIG_iO_YROu_1___bswap_64_1_opaque_ptr_2
	.align 8
	.type	_TIG_iO_YROu_1___bswap_64_1_opaque_ptr_2, @object
	.size	_TIG_iO_YROu_1___bswap_64_1_opaque_ptr_2, 8
_TIG_iO_YROu_1___bswap_64_1_opaque_ptr_2:
	.zero	8
	.globl	_TIG_iO_YROu_1_main_1_opaque_ptr_2
	.align 8
	.type	_TIG_iO_YROu_1_main_1_opaque_ptr_2, @object
	.size	_TIG_iO_YROu_1_main_1_opaque_ptr_2, 8
_TIG_iO_YROu_1_main_1_opaque_ptr_2:
	.zero	8
	.section	.rodata
.LC0:
	.string	"parameters failed."
.LC1:
	.string	"/proc/%s/comm"
	.text
	.globl	main
	.type	main, @function
main:
.LFB3:
	.cfi_startproc
	endbr64
	pushq	%rbp
	.cfi_def_cfa_offset 16
	.cfi_offset 6, -16
	movq	%rsp, %rbp
	.cfi_def_cfa_register 6
	subq	$160, %rsp
	movl	%edi, -132(%rbp)
	movq	%rsi, -144(%rbp)
	movq	%rdx, -152(%rbp)
	movq	%fs:40, %rax
	movq	%rax, -8(%rbp)
	xorl	%eax, %eax
	movq	$0, _TIG_IZ_YROu_envp(%rip)
	nop
.L2:
	movq	$0, _TIG_IZ_YROu_argv(%rip)
	nop
.L3:
	movl	$0, _TIG_IZ_YROu_argc(%rip)
	nop
	nop
.L4:
.L5:
#APP
# 91 "/usr/include/x86_64-linux-gnu/bits/uintn-identity.h" 1
	##_ANNOTATION_INITIALREGION_-TIG-IZ-YROu--0
# 0 "" 2
#NO_APP
	movl	-132(%rbp), %eax
	movl	%eax, _TIG_IZ_YROu_argc(%rip)
	movq	-144(%rbp), %rax
	movq	%rax, _TIG_IZ_YROu_argv(%rip)
	movq	-152(%rbp), %rax
	movq	%rax, _TIG_IZ_YROu_envp(%rip)
#APP
# 98 "/usr/include/x86_64-linux-gnu/bits/uintn-identity.h" 1
	##_ANNOTATION_ATOMICREGION_-TIG-iO-YROu-1-main--13
# 0 "" 2
#NO_APP
	movl	$24, %edi
	call	malloc@PLT
	movq	%rax, -104(%rbp)
	movq	-104(%rbp), %rax
	movq	-104(%rbp), %rdx
	movq	%rdx, (%rax)
	movq	-104(%rbp), %rax
	movq	-104(%rbp), %rdx
	movq	%rdx, 8(%rax)
	movq	-104(%rbp), %rax
	movq	%rax, _TIG_iO_YROu_1_main_1_opaque_list_1(%rip)
	call	rand@PLT
	movl	%eax, -120(%rbp)
	movl	$24, %edi
	call	malloc@PLT
	movq	%rax, -96(%rbp)
	movq	-96(%rbp), %rax
	movl	$0, 16(%rax)
	movq	_TIG_iO_YROu_1_main_1_opaque_list_1(%rip), %rax
	movq	(%rax), %rdx
	movq	-96(%rbp), %rax
	movq	%rdx, (%rax)
	movq	_TIG_iO_YROu_1_main_1_opaque_list_1(%rip), %rdx
	movq	-96(%rbp), %rax
	movq	%rdx, 8(%rax)
	movq	_TIG_iO_YROu_1_main_1_opaque_list_1(%rip), %rax
	movq	(%rax), %rax
	movq	-96(%rbp), %rdx
	movq	%rdx, 8(%rax)
	movq	_TIG_iO_YROu_1_main_1_opaque_list_1(%rip), %rax
	movq	-96(%rbp), %rdx
	movq	%rdx, (%rax)
	call	rand@PLT
	movl	%eax, -116(%rbp)
	movl	$24, %edi
	call	malloc@PLT
	movq	%rax, -88(%rbp)
	movq	-88(%rbp), %rax
	movl	-116(%rbp), %edx
	movl	%edx, 16(%rax)
	movq	_TIG_iO_YROu_1_main_1_opaque_list_1(%rip), %rax
	movq	(%rax), %rdx
	movq	-88(%rbp), %rax
	movq	%rdx, (%rax)
	movq	_TIG_iO_YROu_1_main_1_opaque_list_1(%rip), %rdx
	movq	-88(%rbp), %rax
	movq	%rdx, 8(%rax)
	movq	_TIG_iO_YROu_1_main_1_opaque_list_1(%rip), %rax
	movq	(%rax), %rax
	movq	-88(%rbp), %rdx
	movq	%rdx, 8(%rax)
	movq	_TIG_iO_YROu_1_main_1_opaque_list_1(%rip), %rax
	movq	-88(%rbp), %rdx
	movq	%rdx, (%rax)
	call	rand@PLT
	movl	%eax, -112(%rbp)
	movl	$24, %edi
	call	malloc@PLT
	movq	%rax, -80(%rbp)
	movl	-112(%rbp), %eax
	leal	(%rax,%rax), %edx
	movq	-80(%rbp), %rax
	movl	%edx, 16(%rax)
	movq	_TIG_iO_YROu_1_main_1_opaque_list_1(%rip), %rax
	movq	(%rax), %rdx
	movq	-80(%rbp), %rax
	movq	%rdx, (%rax)
	movq	_TIG_iO_YROu_1_main_1_opaque_list_1(%rip), %rdx
	movq	-80(%rbp), %rax
	movq	%rdx, 8(%rax)
	movq	_TIG_iO_YROu_1_main_1_opaque_list_1(%rip), %rax
	movq	(%rax), %rax
	movq	-80(%rbp), %rdx
	movq	%rdx, 8(%rax)
	movq	_TIG_iO_YROu_1_main_1_opaque_list_1(%rip), %rax
	movq	-80(%rbp), %rdx
	movq	%rdx, (%rax)
	call	rand@PLT
	movl	%eax, -108(%rbp)
	movl	$24, %edi
	call	malloc@PLT
	movq	%rax, -72(%rbp)
	movl	-108(%rbp), %edx
	movl	%edx, %eax
	addl	%eax, %eax
	addl	%eax, %edx
	movq	-72(%rbp), %rax
	movl	%edx, 16(%rax)
	movq	_TIG_iO_YROu_1_main_1_opaque_list_1(%rip), %rax
	movq	(%rax), %rdx
	movq	-72(%rbp), %rax
	movq	%rdx, (%rax)
	movq	_TIG_iO_YROu_1_main_1_opaque_list_1(%rip), %rdx
	movq	-72(%rbp), %rax
	movq	%rdx, 8(%rax)
	movq	_TIG_iO_YROu_1_main_1_opaque_list_1(%rip), %rax
	movq	(%rax), %rax
	movq	-72(%rbp), %rdx
	movq	%rdx, 8(%rax)
	movq	_TIG_iO_YROu_1_main_1_opaque_list_1(%rip), %rax
	movq	-72(%rbp), %rdx
	movq	%rdx, (%rax)
	movq	_TIG_iO_YROu_1_main_1_opaque_list_1(%rip), %rax
	movq	(%rax), %rax
	movq	%rax, _TIG_iO_YROu_1_main_1_opaque_ptr_1(%rip)
	movq	_TIG_iO_YROu_1_main_1_opaque_ptr_1(%rip), %rax
	movq	%rax, _TIG_iO_YROu_1_main_1_opaque_ptr_2(%rip)
	movq	_TIG_iO_YROu_1_main_1_opaque_ptr_2(%rip), %rax
	movq	(%rax), %rax
	movq	%rax, _TIG_iO_YROu_1_main_1_opaque_ptr_2(%rip)
	nop
	nop
	cmpl	$2, -132(%rbp)
	je	.L6
	leaq	.LC0(%rip), %rax
	movq	%rax, %rdi
	movl	$0, %eax
	call	printf@PLT
	movl	$1, %eax
	jmp	.L9
.L6:
	movq	_TIG_iO_YROu_1_read_1_opaque_ptr_1(%rip), %rdx
	movq	_TIG_iO_YROu_1_read_1_opaque_ptr_2(%rip), %rax
	cmpq	%rax, %rdx
	jne	.L8
	movq	-144(%rbp), %rax
	addq	$8, %rax
	movq	(%rax), %rdx
	leaq	-64(%rbp), %rax
	leaq	.LC1(%rip), %rcx
	movq	%rcx, %rsi
	movq	%rax, %rdi
	movl	$0, %eax
	call	sprintf@PLT
	leaq	-64(%rbp), %rax
	movq	%rax, %rdi
	call	read
.L8:
	movl	$0, %eax
.L9:
	movq	-8(%rbp), %rdx
	subq	%fs:40, %rdx
	je	.L10
	call	__stack_chk_fail@PLT
.L10:
	leave
	.cfi_def_cfa 7, 8
	ret
	.cfi_endproc
.LFE3:
	.size	main, .-main
	.section	.rodata
.LC2:
	.string	"r"
.LC3:
	.string	"NULL"
.LC4:
	.string	"%s"
	.text
	.globl	read
	.type	read, @function
read:
.LFB5:
	.cfi_startproc
	endbr64
	pushq	%rbp
	.cfi_def_cfa_offset 16
	.cfi_offset 6, -16
	movq	%rsp, %rbp
	.cfi_def_cfa_register 6
	subq	$144, %rsp
	movq	%rdi, -136(%rbp)
	movq	%fs:40, %rax
	movq	%rax, -8(%rbp)
	xorl	%eax, %eax
#APP
# 93 "/usr/include/x86_64-linux-gnu/bits/byteswap.h" 1
	##_ANNOTATION_INITIALREGION_-TIG-iO-YROu-1-read--16
# 0 "" 2
# 97 "/usr/include/x86_64-linux-gnu/bits/byteswap.h" 1
	##_ANNOTATION_ATOMICREGION_-TIG-iO-YROu-1-read--15
# 0 "" 2
#NO_APP
	movl	$24, %edi
	call	malloc@PLT
	movq	%rax, -112(%rbp)
	movq	-112(%rbp), %rax
	movq	-112(%rbp), %rdx
	movq	%rdx, 16(%rax)
	movq	-112(%rbp), %rax
	movq	-112(%rbp), %rdx
	movq	%rdx, 8(%rax)
	movq	-112(%rbp), %rax
	movq	%rax, _TIG_iO_YROu_1_read_1_opaque_list_1(%rip)
	call	rand@PLT
	movl	%eax, -120(%rbp)
	movl	$24, %edi
	call	malloc@PLT
	movq	%rax, -104(%rbp)
	movq	-104(%rbp), %rax
	movl	$0, (%rax)
	movq	_TIG_iO_YROu_1_read_1_opaque_list_1(%rip), %rax
	movq	16(%rax), %rdx
	movq	-104(%rbp), %rax
	movq	%rdx, 16(%rax)
	movq	_TIG_iO_YROu_1_read_1_opaque_list_1(%rip), %rdx
	movq	-104(%rbp), %rax
	movq	%rdx, 8(%rax)
	movq	_TIG_iO_YROu_1_read_1_opaque_list_1(%rip), %rax
	movq	16(%rax), %rax
	movq	-104(%rbp), %rdx
	movq	%rdx, 8(%rax)
	movq	_TIG_iO_YROu_1_read_1_opaque_list_1(%rip), %rax
	movq	-104(%rbp), %rdx
	movq	%rdx, 16(%rax)
	call	rand@PLT
	movl	%eax, -116(%rbp)
	movl	$24, %edi
	call	malloc@PLT
	movq	%rax, -96(%rbp)
	movq	-96(%rbp), %rax
	movl	-116(%rbp), %edx
	movl	%edx, (%rax)
	movq	_TIG_iO_YROu_1_read_1_opaque_list_1(%rip), %rax
	movq	16(%rax), %rdx
	movq	-96(%rbp), %rax
	movq	%rdx, 16(%rax)
	movq	_TIG_iO_YROu_1_read_1_opaque_list_1(%rip), %rdx
	movq	-96(%rbp), %rax
	movq	%rdx, 8(%rax)
	movq	_TIG_iO_YROu_1_read_1_opaque_list_1(%rip), %rax
	movq	16(%rax), %rax
	movq	-96(%rbp), %rdx
	movq	%rdx, 8(%rax)
	movq	_TIG_iO_YROu_1_read_1_opaque_list_1(%rip), %rax
	movq	-96(%rbp), %rdx
	movq	%rdx, 16(%rax)
	movq	_TIG_iO_YROu_1_read_1_opaque_list_1(%rip), %rax
	movq	16(%rax), %rax
	movq	%rax, _TIG_iO_YROu_1_read_1_opaque_ptr_1(%rip)
	movq	_TIG_iO_YROu_1_read_1_opaque_ptr_1(%rip), %rax
	movq	%rax, _TIG_iO_YROu_1_read_1_opaque_ptr_2(%rip)
	nop
	nop
	movq	-136(%rbp), %rax
	leaq	.LC2(%rip), %rdx
	movq	%rdx, %rsi
	movq	%rax, %rdi
	call	fopen@PLT
	movq	%rax, -88(%rbp)
	movq	-88(%rbp), %rax
	movq	%rax, -80(%rbp)
	cmpq	$0, -80(%rbp)
	jne	.L12
	leaq	.LC3(%rip), %rax
	movq	%rax, %rdi
	call	puts@PLT
	movl	$-1, %eax
	jmp	.L15
.L12:
	movq	-80(%rbp), %rdx
	leaq	-64(%rbp), %rax
	movl	$50, %esi
	movq	%rax, %rdi
	call	fgets@PLT
	movq	%rax, -72(%rbp)
	movq	_TIG_iO_YROu_1_read_1_opaque_ptr_1(%rip), %rdx
	movq	_TIG_iO_YROu_1_read_1_opaque_ptr_2(%rip), %rax
	cmpq	%rax, %rdx
	jne	.L14
	cmpq	$0, -72(%rbp)
	jne	.L14
	leaq	.LC3(%rip), %rax
	movq	%rax, %rdi
	call	puts@PLT
	movl	$-1, %eax
	jmp	.L15
.L14:
	leaq	-64(%rbp), %rax
	movq	%rax, %rsi
	leaq	.LC4(%rip), %rax
	movq	%rax, %rdi
	movl	$0, %eax
	call	printf@PLT
	movq	-80(%rbp), %rax
	movq	%rax, %rdi
	call	fclose@PLT
	movl	$0, %eax
.L15:
	movq	-8(%rbp), %rdx
	subq	%fs:40, %rdx
	je	.L16
	call	__stack_chk_fail@PLT
.L16:
	leave
	.cfi_def_cfa 7, 8
	ret
	.cfi_endproc
.LFE5:
	.size	read, .-read
	.ident	"GCC: (Ubuntu 11.4.0-1ubuntu1~22.04) 11.4.0"
	.section	.note.GNU-stack,"",@progbits
	.section	.note.gnu.property,"a"
	.align 8
	.long	1f - 0f
	.long	4f - 1f
	.long	5
0:
	.string	"GNU"
1:
	.align 8
	.long	0xc0000002
	.long	3f - 2f
2:
	.long	0x3
3:
	.align 8
4:
