	.file	"HowardChengUleth_Contest_10991_opaque.c"
	.text
	.globl	_TIG_iO_Rc9w_1___uint16_identity_1_opaque_ptr_2
	.bss
	.align 8
	.type	_TIG_iO_Rc9w_1___uint16_identity_1_opaque_ptr_2, @object
	.size	_TIG_iO_Rc9w_1___uint16_identity_1_opaque_ptr_2, 8
_TIG_iO_Rc9w_1___uint16_identity_1_opaque_ptr_2:
	.zero	8
	.globl	_TIG_iO_Rc9w_1_main_1_opaque_ptr_2
	.align 8
	.type	_TIG_iO_Rc9w_1_main_1_opaque_ptr_2, @object
	.size	_TIG_iO_Rc9w_1_main_1_opaque_ptr_2, 8
_TIG_iO_Rc9w_1_main_1_opaque_ptr_2:
	.zero	8
	.globl	_TIG_iO_Rc9w_1___uint16_identity_1_opaque_list_1
	.align 8
	.type	_TIG_iO_Rc9w_1___uint16_identity_1_opaque_list_1, @object
	.size	_TIG_iO_Rc9w_1___uint16_identity_1_opaque_list_1, 8
_TIG_iO_Rc9w_1___uint16_identity_1_opaque_list_1:
	.zero	8
	.globl	_TIG_iO_Rc9w_1_heron_1_opaque_list_1
	.align 8
	.type	_TIG_iO_Rc9w_1_heron_1_opaque_list_1, @object
	.size	_TIG_iO_Rc9w_1_heron_1_opaque_list_1, 8
_TIG_iO_Rc9w_1_heron_1_opaque_list_1:
	.zero	8
	.globl	_TIG_iO_Rc9w_1___bswap_16_1_opaque_list_1
	.align 8
	.type	_TIG_iO_Rc9w_1___bswap_16_1_opaque_list_1, @object
	.size	_TIG_iO_Rc9w_1___bswap_16_1_opaque_list_1, 8
_TIG_iO_Rc9w_1___bswap_16_1_opaque_list_1:
	.zero	8
	.globl	_TIG_iO_Rc9w_1___uint32_identity_1_opaque_ptr_1
	.align 8
	.type	_TIG_iO_Rc9w_1___uint32_identity_1_opaque_ptr_1, @object
	.size	_TIG_iO_Rc9w_1___uint32_identity_1_opaque_ptr_1, 8
_TIG_iO_Rc9w_1___uint32_identity_1_opaque_ptr_1:
	.zero	8
	.globl	_TIG_iO_Rc9w_1___bswap_16_1_opaque_ptr_1
	.align 8
	.type	_TIG_iO_Rc9w_1___bswap_16_1_opaque_ptr_1, @object
	.size	_TIG_iO_Rc9w_1___bswap_16_1_opaque_ptr_1, 8
_TIG_iO_Rc9w_1___bswap_16_1_opaque_ptr_1:
	.zero	8
	.globl	_TIG_iO_Rc9w_1_main_1_opaque_list_2
	.align 8
	.type	_TIG_iO_Rc9w_1_main_1_opaque_list_2, @object
	.size	_TIG_iO_Rc9w_1_main_1_opaque_list_2, 8
_TIG_iO_Rc9w_1_main_1_opaque_list_2:
	.zero	8
	.globl	_TIG_iO_Rc9w_1_heron_1_opaque_list_2
	.align 8
	.type	_TIG_iO_Rc9w_1_heron_1_opaque_list_2, @object
	.size	_TIG_iO_Rc9w_1_heron_1_opaque_list_2, 8
_TIG_iO_Rc9w_1_heron_1_opaque_list_2:
	.zero	8
	.globl	_TIG_iO_Rc9w_1_angle_1_opaque_ptr_1
	.align 8
	.type	_TIG_iO_Rc9w_1_angle_1_opaque_ptr_1, @object
	.size	_TIG_iO_Rc9w_1_angle_1_opaque_ptr_1, 8
_TIG_iO_Rc9w_1_angle_1_opaque_ptr_1:
	.zero	8
	.globl	_TIG_iO_Rc9w_1___bswap_16_1_opaque_ptr_2
	.align 8
	.type	_TIG_iO_Rc9w_1___bswap_16_1_opaque_ptr_2, @object
	.size	_TIG_iO_Rc9w_1___bswap_16_1_opaque_ptr_2, 8
_TIG_iO_Rc9w_1___bswap_16_1_opaque_ptr_2:
	.zero	8
	.globl	_TIG_iO_Rc9w_1_heron_1_opaque_ptr_1
	.align 8
	.type	_TIG_iO_Rc9w_1_heron_1_opaque_ptr_1, @object
	.size	_TIG_iO_Rc9w_1_heron_1_opaque_ptr_1, 8
_TIG_iO_Rc9w_1_heron_1_opaque_ptr_1:
	.zero	8
	.globl	_TIG_IZ_Rc9w_argv
	.align 8
	.type	_TIG_IZ_Rc9w_argv, @object
	.size	_TIG_IZ_Rc9w_argv, 8
_TIG_IZ_Rc9w_argv:
	.zero	8
	.globl	_TIG_iO_Rc9w_1___uint64_identity_1_opaque_list_1
	.align 8
	.type	_TIG_iO_Rc9w_1___uint64_identity_1_opaque_list_1, @object
	.size	_TIG_iO_Rc9w_1___uint64_identity_1_opaque_list_1, 8
_TIG_iO_Rc9w_1___uint64_identity_1_opaque_list_1:
	.zero	8
	.globl	_TIG_iO_Rc9w_1_angle_1_opaque_list_2
	.align 8
	.type	_TIG_iO_Rc9w_1_angle_1_opaque_list_2, @object
	.size	_TIG_iO_Rc9w_1_angle_1_opaque_list_2, 8
_TIG_iO_Rc9w_1_angle_1_opaque_list_2:
	.zero	8
	.globl	_TIG_IZ_Rc9w_argc
	.align 4
	.type	_TIG_IZ_Rc9w_argc, @object
	.size	_TIG_IZ_Rc9w_argc, 4
_TIG_IZ_Rc9w_argc:
	.zero	4
	.globl	_TIG_iO_Rc9w_1___bswap_16_1_opaque_list_2
	.align 8
	.type	_TIG_iO_Rc9w_1___bswap_16_1_opaque_list_2, @object
	.size	_TIG_iO_Rc9w_1___bswap_16_1_opaque_list_2, 8
_TIG_iO_Rc9w_1___bswap_16_1_opaque_list_2:
	.zero	8
	.globl	_TIG_iO_Rc9w_1___bswap_64_1_opaque_ptr_2
	.align 8
	.type	_TIG_iO_Rc9w_1___bswap_64_1_opaque_ptr_2, @object
	.size	_TIG_iO_Rc9w_1___bswap_64_1_opaque_ptr_2, 8
_TIG_iO_Rc9w_1___bswap_64_1_opaque_ptr_2:
	.zero	8
	.globl	_TIG_iO_Rc9w_1___bswap_64_1_opaque_list_2
	.align 8
	.type	_TIG_iO_Rc9w_1___bswap_64_1_opaque_list_2, @object
	.size	_TIG_iO_Rc9w_1___bswap_64_1_opaque_list_2, 8
_TIG_iO_Rc9w_1___bswap_64_1_opaque_list_2:
	.zero	8
	.globl	_TIG_iO_Rc9w_1___uint16_identity_1_opaque_ptr_1
	.align 8
	.type	_TIG_iO_Rc9w_1___uint16_identity_1_opaque_ptr_1, @object
	.size	_TIG_iO_Rc9w_1___uint16_identity_1_opaque_ptr_1, 8
_TIG_iO_Rc9w_1___uint16_identity_1_opaque_ptr_1:
	.zero	8
	.globl	_TIG_iO_Rc9w_1_heron_1_opaque_ptr_2
	.align 8
	.type	_TIG_iO_Rc9w_1_heron_1_opaque_ptr_2, @object
	.size	_TIG_iO_Rc9w_1_heron_1_opaque_ptr_2, 8
_TIG_iO_Rc9w_1_heron_1_opaque_ptr_2:
	.zero	8
	.globl	_TIG_iO_Rc9w_1___bswap_32_1_opaque_list_1
	.align 8
	.type	_TIG_iO_Rc9w_1___bswap_32_1_opaque_list_1, @object
	.size	_TIG_iO_Rc9w_1___bswap_32_1_opaque_list_1, 8
_TIG_iO_Rc9w_1___bswap_32_1_opaque_list_1:
	.zero	8
	.globl	_TIG_iO_Rc9w_1___uint64_identity_1_opaque_list_2
	.align 8
	.type	_TIG_iO_Rc9w_1___uint64_identity_1_opaque_list_2, @object
	.size	_TIG_iO_Rc9w_1___uint64_identity_1_opaque_list_2, 8
_TIG_iO_Rc9w_1___uint64_identity_1_opaque_list_2:
	.zero	8
	.globl	_TIG_IZ_Rc9w_envp
	.align 8
	.type	_TIG_IZ_Rc9w_envp, @object
	.size	_TIG_IZ_Rc9w_envp, 8
_TIG_IZ_Rc9w_envp:
	.zero	8
	.globl	_TIG_iO_Rc9w_1_main_1_opaque_list_1
	.align 8
	.type	_TIG_iO_Rc9w_1_main_1_opaque_list_1, @object
	.size	_TIG_iO_Rc9w_1_main_1_opaque_list_1, 8
_TIG_iO_Rc9w_1_main_1_opaque_list_1:
	.zero	8
	.globl	_TIG_iO_Rc9w_1___uint64_identity_1_opaque_ptr_2
	.align 8
	.type	_TIG_iO_Rc9w_1___uint64_identity_1_opaque_ptr_2, @object
	.size	_TIG_iO_Rc9w_1___uint64_identity_1_opaque_ptr_2, 8
_TIG_iO_Rc9w_1___uint64_identity_1_opaque_ptr_2:
	.zero	8
	.globl	_TIG_iO_Rc9w_1_angle_1_opaque_ptr_2
	.align 8
	.type	_TIG_iO_Rc9w_1_angle_1_opaque_ptr_2, @object
	.size	_TIG_iO_Rc9w_1_angle_1_opaque_ptr_2, 8
_TIG_iO_Rc9w_1_angle_1_opaque_ptr_2:
	.zero	8
	.globl	_TIG_iO_Rc9w_1___bswap_64_1_opaque_ptr_1
	.align 8
	.type	_TIG_iO_Rc9w_1___bswap_64_1_opaque_ptr_1, @object
	.size	_TIG_iO_Rc9w_1___bswap_64_1_opaque_ptr_1, 8
_TIG_iO_Rc9w_1___bswap_64_1_opaque_ptr_1:
	.zero	8
	.globl	_TIG_iO_Rc9w_1_main_1_opaque_ptr_1
	.align 8
	.type	_TIG_iO_Rc9w_1_main_1_opaque_ptr_1, @object
	.size	_TIG_iO_Rc9w_1_main_1_opaque_ptr_1, 8
_TIG_iO_Rc9w_1_main_1_opaque_ptr_1:
	.zero	8
	.globl	_TIG_iO_Rc9w_1___uint32_identity_1_opaque_list_2
	.align 8
	.type	_TIG_iO_Rc9w_1___uint32_identity_1_opaque_list_2, @object
	.size	_TIG_iO_Rc9w_1___uint32_identity_1_opaque_list_2, 8
_TIG_iO_Rc9w_1___uint32_identity_1_opaque_list_2:
	.zero	8
	.globl	_TIG_iO_Rc9w_1_angle_1_opaque_list_1
	.align 8
	.type	_TIG_iO_Rc9w_1_angle_1_opaque_list_1, @object
	.size	_TIG_iO_Rc9w_1_angle_1_opaque_list_1, 8
_TIG_iO_Rc9w_1_angle_1_opaque_list_1:
	.zero	8
	.globl	_TIG_iO_Rc9w_1___bswap_32_1_opaque_list_2
	.align 8
	.type	_TIG_iO_Rc9w_1___bswap_32_1_opaque_list_2, @object
	.size	_TIG_iO_Rc9w_1___bswap_32_1_opaque_list_2, 8
_TIG_iO_Rc9w_1___bswap_32_1_opaque_list_2:
	.zero	8
	.globl	_TIG_iO_Rc9w_1___uint32_identity_1_opaque_list_1
	.align 8
	.type	_TIG_iO_Rc9w_1___uint32_identity_1_opaque_list_1, @object
	.size	_TIG_iO_Rc9w_1___uint32_identity_1_opaque_list_1, 8
_TIG_iO_Rc9w_1___uint32_identity_1_opaque_list_1:
	.zero	8
	.globl	_TIG_iO_Rc9w_1___bswap_64_1_opaque_list_1
	.align 8
	.type	_TIG_iO_Rc9w_1___bswap_64_1_opaque_list_1, @object
	.size	_TIG_iO_Rc9w_1___bswap_64_1_opaque_list_1, 8
_TIG_iO_Rc9w_1___bswap_64_1_opaque_list_1:
	.zero	8
	.globl	_TIG_iO_Rc9w_1___bswap_32_1_opaque_ptr_1
	.align 8
	.type	_TIG_iO_Rc9w_1___bswap_32_1_opaque_ptr_1, @object
	.size	_TIG_iO_Rc9w_1___bswap_32_1_opaque_ptr_1, 8
_TIG_iO_Rc9w_1___bswap_32_1_opaque_ptr_1:
	.zero	8
	.globl	_TIG_iO_Rc9w_1___uint64_identity_1_opaque_ptr_1
	.align 8
	.type	_TIG_iO_Rc9w_1___uint64_identity_1_opaque_ptr_1, @object
	.size	_TIG_iO_Rc9w_1___uint64_identity_1_opaque_ptr_1, 8
_TIG_iO_Rc9w_1___uint64_identity_1_opaque_ptr_1:
	.zero	8
	.globl	_TIG_iO_Rc9w_1___uint16_identity_1_opaque_list_2
	.align 8
	.type	_TIG_iO_Rc9w_1___uint16_identity_1_opaque_list_2, @object
	.size	_TIG_iO_Rc9w_1___uint16_identity_1_opaque_list_2, 8
_TIG_iO_Rc9w_1___uint16_identity_1_opaque_list_2:
	.zero	8
	.globl	_TIG_iO_Rc9w_1___bswap_32_1_opaque_ptr_2
	.align 8
	.type	_TIG_iO_Rc9w_1___bswap_32_1_opaque_ptr_2, @object
	.size	_TIG_iO_Rc9w_1___bswap_32_1_opaque_ptr_2, 8
_TIG_iO_Rc9w_1___bswap_32_1_opaque_ptr_2:
	.zero	8
	.globl	_TIG_iO_Rc9w_1___uint32_identity_1_opaque_ptr_2
	.align 8
	.type	_TIG_iO_Rc9w_1___uint32_identity_1_opaque_ptr_2, @object
	.size	_TIG_iO_Rc9w_1___uint32_identity_1_opaque_ptr_2, 8
_TIG_iO_Rc9w_1___uint32_identity_1_opaque_ptr_2:
	.zero	8
	.text
	.globl	angle
	.type	angle, @function
angle:
.LFB0:
	.cfi_startproc
	endbr64
	pushq	%rbp
	.cfi_def_cfa_offset 16
	.cfi_offset 6, -16
	movq	%rsp, %rbp
	.cfi_def_cfa_register 6
	subq	$96, %rsp
	movsd	%xmm0, -72(%rbp)
	movsd	%xmm1, -80(%rbp)
	movsd	%xmm2, -88(%rbp)
#APP
# 81 "/usr/include/stdlib.h" 1
	##_ANNOTATION_INITIALREGION_-TIG-iO-Rc9w-1-angle--14
# 0 "" 2
# 85 "/usr/include/stdlib.h" 1
	##_ANNOTATION_ATOMICREGION_-TIG-iO-Rc9w-1-angle--13
# 0 "" 2
#NO_APP
	movl	$24, %edi
	call	malloc@PLT
	movq	%rax, -40(%rbp)
	movq	-40(%rbp), %rax
	movq	-40(%rbp), %rdx
	movq	%rdx, (%rax)
	movq	-40(%rbp), %rax
	movq	-40(%rbp), %rdx
	movq	%rdx, 8(%rax)
	movq	-40(%rbp), %rax
	movq	%rax, _TIG_iO_Rc9w_1_angle_1_opaque_list_1(%rip)
	call	rand@PLT
	movl	%eax, -64(%rbp)
	movl	$24, %edi
	call	malloc@PLT
	movq	%rax, -32(%rbp)
	movq	-32(%rbp), %rax
	movl	$0, 16(%rax)
	movq	_TIG_iO_Rc9w_1_angle_1_opaque_list_1(%rip), %rax
	movq	(%rax), %rdx
	movq	-32(%rbp), %rax
	movq	%rdx, (%rax)
	movq	_TIG_iO_Rc9w_1_angle_1_opaque_list_1(%rip), %rdx
	movq	-32(%rbp), %rax
	movq	%rdx, 8(%rax)
	movq	_TIG_iO_Rc9w_1_angle_1_opaque_list_1(%rip), %rax
	movq	(%rax), %rax
	movq	-32(%rbp), %rdx
	movq	%rdx, 8(%rax)
	movq	_TIG_iO_Rc9w_1_angle_1_opaque_list_1(%rip), %rax
	movq	-32(%rbp), %rdx
	movq	%rdx, (%rax)
	call	rand@PLT
	movl	%eax, -60(%rbp)
	movl	$24, %edi
	call	malloc@PLT
	movq	%rax, -24(%rbp)
	movq	-24(%rbp), %rax
	movl	-60(%rbp), %edx
	movl	%edx, 16(%rax)
	movq	_TIG_iO_Rc9w_1_angle_1_opaque_list_1(%rip), %rax
	movq	(%rax), %rdx
	movq	-24(%rbp), %rax
	movq	%rdx, (%rax)
	movq	_TIG_iO_Rc9w_1_angle_1_opaque_list_1(%rip), %rdx
	movq	-24(%rbp), %rax
	movq	%rdx, 8(%rax)
	movq	_TIG_iO_Rc9w_1_angle_1_opaque_list_1(%rip), %rax
	movq	(%rax), %rax
	movq	-24(%rbp), %rdx
	movq	%rdx, 8(%rax)
	movq	_TIG_iO_Rc9w_1_angle_1_opaque_list_1(%rip), %rax
	movq	-24(%rbp), %rdx
	movq	%rdx, (%rax)
	call	rand@PLT
	movl	%eax, -56(%rbp)
	movl	$24, %edi
	call	malloc@PLT
	movq	%rax, -16(%rbp)
	movl	-56(%rbp), %eax
	leal	(%rax,%rax), %edx
	movq	-16(%rbp), %rax
	movl	%edx, 16(%rax)
	movq	_TIG_iO_Rc9w_1_angle_1_opaque_list_1(%rip), %rax
	movq	(%rax), %rdx
	movq	-16(%rbp), %rax
	movq	%rdx, (%rax)
	movq	_TIG_iO_Rc9w_1_angle_1_opaque_list_1(%rip), %rdx
	movq	-16(%rbp), %rax
	movq	%rdx, 8(%rax)
	movq	_TIG_iO_Rc9w_1_angle_1_opaque_list_1(%rip), %rax
	movq	(%rax), %rax
	movq	-16(%rbp), %rdx
	movq	%rdx, 8(%rax)
	movq	_TIG_iO_Rc9w_1_angle_1_opaque_list_1(%rip), %rax
	movq	-16(%rbp), %rdx
	movq	%rdx, (%rax)
	call	rand@PLT
	movl	%eax, -52(%rbp)
	movl	$24, %edi
	call	malloc@PLT
	movq	%rax, -8(%rbp)
	movl	-52(%rbp), %edx
	movl	%edx, %eax
	addl	%eax, %eax
	addl	%eax, %edx
	movq	-8(%rbp), %rax
	movl	%edx, 16(%rax)
	movq	_TIG_iO_Rc9w_1_angle_1_opaque_list_1(%rip), %rax
	movq	(%rax), %rdx
	movq	-8(%rbp), %rax
	movq	%rdx, (%rax)
	movq	_TIG_iO_Rc9w_1_angle_1_opaque_list_1(%rip), %rdx
	movq	-8(%rbp), %rax
	movq	%rdx, 8(%rax)
	movq	_TIG_iO_Rc9w_1_angle_1_opaque_list_1(%rip), %rax
	movq	(%rax), %rax
	movq	-8(%rbp), %rdx
	movq	%rdx, 8(%rax)
	movq	_TIG_iO_Rc9w_1_angle_1_opaque_list_1(%rip), %rax
	movq	-8(%rbp), %rdx
	movq	%rdx, (%rax)
	movq	_TIG_iO_Rc9w_1_angle_1_opaque_list_1(%rip), %rax
	movq	(%rax), %rax
	movq	%rax, _TIG_iO_Rc9w_1_angle_1_opaque_ptr_1(%rip)
	movq	_TIG_iO_Rc9w_1_angle_1_opaque_ptr_1(%rip), %rax
	movq	%rax, _TIG_iO_Rc9w_1_angle_1_opaque_ptr_2(%rip)
	movq	_TIG_iO_Rc9w_1_angle_1_opaque_ptr_2(%rip), %rax
	movq	(%rax), %rax
	movq	%rax, _TIG_iO_Rc9w_1_angle_1_opaque_ptr_2(%rip)
	nop
	nop
	movq	_TIG_iO_Rc9w_1_main_1_opaque_ptr_1(%rip), %rdx
	movq	_TIG_iO_Rc9w_1_main_1_opaque_ptr_2(%rip), %rax
	cmpq	%rax, %rdx
	je	.L2
	movsd	-72(%rbp), %xmm0
	movapd	%xmm0, %xmm1
	mulsd	%xmm0, %xmm1
	movsd	-80(%rbp), %xmm0
	mulsd	%xmm0, %xmm0
	addsd	%xmm0, %xmm1
	movsd	-88(%rbp), %xmm0
	mulsd	%xmm0, %xmm0
	subsd	%xmm0, %xmm1
	movsd	-72(%rbp), %xmm0
	addsd	%xmm0, %xmm0
	mulsd	-80(%rbp), %xmm0
	divsd	%xmm0, %xmm1
	movq	%xmm1, %rax
	movq	%rax, %xmm0
	call	acos@PLT
	movq	%xmm0, %rax
	movq	%rax, -48(%rbp)
	jmp	.L3
.L2:
	movsd	-72(%rbp), %xmm0
	movapd	%xmm0, %xmm1
	mulsd	%xmm0, %xmm1
	movsd	-80(%rbp), %xmm0
	mulsd	%xmm0, %xmm0
	addsd	%xmm0, %xmm1
	movsd	-88(%rbp), %xmm0
	mulsd	%xmm0, %xmm0
	subsd	%xmm0, %xmm1
	movsd	-72(%rbp), %xmm0
	addsd	%xmm0, %xmm0
	movapd	%xmm0, %xmm2
	mulsd	-80(%rbp), %xmm2
	divsd	%xmm2, %xmm1
	movapd	%xmm1, %xmm0
	divsd	-72(%rbp), %xmm0
	movq	%xmm0, %rax
	movq	%rax, %xmm0
	call	acos@PLT
	movq	%xmm0, %rax
	movq	%rax, -48(%rbp)
.L3:
	movsd	-48(%rbp), %xmm0
	movq	%xmm0, %rax
	movq	%rax, %xmm0
	leave
	.cfi_def_cfa 7, 8
	ret
	.cfi_endproc
.LFE0:
	.size	angle, .-angle
	.globl	heron
	.type	heron, @function
heron:
.LFB4:
	.cfi_startproc
	endbr64
	pushq	%rbp
	.cfi_def_cfa_offset 16
	.cfi_offset 6, -16
	movq	%rsp, %rbp
	.cfi_def_cfa_register 6
	subq	$80, %rsp
	movsd	%xmm0, -56(%rbp)
	movsd	%xmm1, -64(%rbp)
	movsd	%xmm2, -72(%rbp)
#APP
# 93 "/usr/include/x86_64-linux-gnu/bits/byteswap.h" 1
	##_ANNOTATION_INITIALREGION_-TIG-iO-Rc9w-1-heron--16
# 0 "" 2
# 97 "/usr/include/x86_64-linux-gnu/bits/byteswap.h" 1
	##_ANNOTATION_ATOMICREGION_-TIG-iO-Rc9w-1-heron--15
# 0 "" 2
#NO_APP
	movl	$24, %edi
	call	malloc@PLT
	movq	%rax, -32(%rbp)
	movq	-32(%rbp), %rax
	movq	-32(%rbp), %rdx
	movq	%rdx, 16(%rax)
	movq	-32(%rbp), %rax
	movq	-32(%rbp), %rdx
	movq	%rdx, 8(%rax)
	movq	-32(%rbp), %rax
	movq	%rax, _TIG_iO_Rc9w_1_heron_1_opaque_list_1(%rip)
	call	rand@PLT
	movl	%eax, -48(%rbp)
	movl	$24, %edi
	call	malloc@PLT
	movq	%rax, -24(%rbp)
	movq	-24(%rbp), %rax
	movl	$0, (%rax)
	movq	_TIG_iO_Rc9w_1_heron_1_opaque_list_1(%rip), %rax
	movq	16(%rax), %rdx
	movq	-24(%rbp), %rax
	movq	%rdx, 16(%rax)
	movq	_TIG_iO_Rc9w_1_heron_1_opaque_list_1(%rip), %rdx
	movq	-24(%rbp), %rax
	movq	%rdx, 8(%rax)
	movq	_TIG_iO_Rc9w_1_heron_1_opaque_list_1(%rip), %rax
	movq	16(%rax), %rax
	movq	-24(%rbp), %rdx
	movq	%rdx, 8(%rax)
	movq	_TIG_iO_Rc9w_1_heron_1_opaque_list_1(%rip), %rax
	movq	-24(%rbp), %rdx
	movq	%rdx, 16(%rax)
	call	rand@PLT
	movl	%eax, -44(%rbp)
	movl	$24, %edi
	call	malloc@PLT
	movq	%rax, -16(%rbp)
	movq	-16(%rbp), %rax
	movl	-44(%rbp), %edx
	movl	%edx, (%rax)
	movq	_TIG_iO_Rc9w_1_heron_1_opaque_list_1(%rip), %rax
	movq	16(%rax), %rdx
	movq	-16(%rbp), %rax
	movq	%rdx, 16(%rax)
	movq	_TIG_iO_Rc9w_1_heron_1_opaque_list_1(%rip), %rdx
	movq	-16(%rbp), %rax
	movq	%rdx, 8(%rax)
	movq	_TIG_iO_Rc9w_1_heron_1_opaque_list_1(%rip), %rax
	movq	16(%rax), %rax
	movq	-16(%rbp), %rdx
	movq	%rdx, 8(%rax)
	movq	_TIG_iO_Rc9w_1_heron_1_opaque_list_1(%rip), %rax
	movq	-16(%rbp), %rdx
	movq	%rdx, 16(%rax)
	movq	_TIG_iO_Rc9w_1_heron_1_opaque_list_1(%rip), %rax
	movq	16(%rax), %rax
	movq	%rax, _TIG_iO_Rc9w_1_heron_1_opaque_ptr_1(%rip)
	movq	_TIG_iO_Rc9w_1_heron_1_opaque_ptr_1(%rip), %rax
	movq	%rax, _TIG_iO_Rc9w_1_heron_1_opaque_ptr_2(%rip)
	nop
	nop
	movq	_TIG_iO_Rc9w_1_main_1_opaque_ptr_1(%rip), %rdx
	movq	_TIG_iO_Rc9w_1_main_1_opaque_ptr_2(%rip), %rax
	cmpq	%rax, %rdx
	je	.L6
	movsd	-56(%rbp), %xmm0
	addsd	-64(%rbp), %xmm0
	addsd	-72(%rbp), %xmm0
	movsd	.LC0(%rip), %xmm1
	divsd	%xmm1, %xmm0
	movsd	%xmm0, -8(%rbp)
	movsd	-8(%rbp), %xmm0
	subsd	-56(%rbp), %xmm0
	movapd	%xmm0, %xmm1
	mulsd	-8(%rbp), %xmm1
	movsd	-8(%rbp), %xmm0
	subsd	-64(%rbp), %xmm0
	mulsd	%xmm0, %xmm1
	movsd	-8(%rbp), %xmm0
	subsd	-72(%rbp), %xmm0
	mulsd	%xmm0, %xmm1
	movq	%xmm1, %rax
	movq	%rax, %xmm0
	call	sqrt@PLT
	movq	%xmm0, %rax
	movq	%rax, -40(%rbp)
	jmp	.L7
.L6:
	movsd	-56(%rbp), %xmm0
	addsd	-64(%rbp), %xmm0
	addsd	-72(%rbp), %xmm0
	movsd	.LC0(%rip), %xmm1
	divsd	%xmm1, %xmm0
	divsd	-8(%rbp), %xmm0
	movsd	%xmm0, -8(%rbp)
	movq	-40(%rbp), %rax
	movq	%rax, %xmm0
	call	sqrt@PLT
	movq	%xmm0, %rax
	movq	%rax, -40(%rbp)
.L7:
	movsd	-40(%rbp), %xmm0
	movq	%xmm0, %rax
	movq	%rax, %xmm0
	leave
	.cfi_def_cfa 7, 8
	ret
	.cfi_endproc
.LFE4:
	.size	heron, .-heron
	.section	.rodata
.LC1:
	.string	"%d"
.LC2:
	.string	"%lf %lf %lf"
.LC3:
	.string	"%.6f\n"
	.text
	.globl	main
	.type	main, @function
main:
.LFB7:
	.cfi_startproc
	endbr64
	pushq	%rbp
	.cfi_def_cfa_offset 16
	.cfi_offset 6, -16
	movq	%rsp, %rbp
	.cfi_def_cfa_register 6
	subq	$160, %rsp
	movl	%edi, -132(%rbp)
	movq	%rsi, -144(%rbp)
	movq	%rdx, -152(%rbp)
	movq	%fs:40, %rax
	movq	%rax, -8(%rbp)
	xorl	%eax, %eax
	movq	$0, _TIG_IZ_Rc9w_envp(%rip)
	nop
.L10:
	movq	$0, _TIG_IZ_Rc9w_argv(%rip)
	nop
.L11:
	movl	$0, _TIG_IZ_Rc9w_argc(%rip)
	nop
	nop
.L12:
.L13:
#APP
# 97 "/usr/include/x86_64-linux-gnu/bits/uintn-identity.h" 1
	##_ANNOTATION_INITIALREGION_-TIG-IZ-Rc9w--0
# 0 "" 2
#NO_APP
	movl	-132(%rbp), %eax
	movl	%eax, _TIG_IZ_Rc9w_argc(%rip)
	movq	-144(%rbp), %rax
	movq	%rax, _TIG_IZ_Rc9w_argv(%rip)
	movq	-152(%rbp), %rax
	movq	%rax, _TIG_IZ_Rc9w_envp(%rip)
#APP
# 104 "/usr/include/x86_64-linux-gnu/bits/uintn-identity.h" 1
	##_ANNOTATION_ATOMICREGION_-TIG-iO-Rc9w-1-main--17
# 0 "" 2
#NO_APP
	movl	$24, %edi
	call	malloc@PLT
	movq	%rax, -88(%rbp)
	movq	-88(%rbp), %rax
	movq	-88(%rbp), %rdx
	movq	%rdx, 8(%rax)
	movq	-88(%rbp), %rax
	movq	-88(%rbp), %rdx
	movq	%rdx, (%rax)
	movq	-88(%rbp), %rax
	movq	%rax, _TIG_iO_Rc9w_1_main_1_opaque_list_1(%rip)
	call	rand@PLT
	movl	%eax, -124(%rbp)
	movl	$24, %edi
	call	malloc@PLT
	movq	%rax, -80(%rbp)
	movq	-80(%rbp), %rax
	movl	$0, 16(%rax)
	movq	_TIG_iO_Rc9w_1_main_1_opaque_list_1(%rip), %rax
	movq	8(%rax), %rdx
	movq	-80(%rbp), %rax
	movq	%rdx, 8(%rax)
	movq	_TIG_iO_Rc9w_1_main_1_opaque_list_1(%rip), %rdx
	movq	-80(%rbp), %rax
	movq	%rdx, (%rax)
	movq	_TIG_iO_Rc9w_1_main_1_opaque_list_1(%rip), %rax
	movq	8(%rax), %rax
	movq	-80(%rbp), %rdx
	movq	%rdx, (%rax)
	movq	_TIG_iO_Rc9w_1_main_1_opaque_list_1(%rip), %rax
	movq	-80(%rbp), %rdx
	movq	%rdx, 8(%rax)
	call	rand@PLT
	movl	%eax, -120(%rbp)
	movl	$24, %edi
	call	malloc@PLT
	movq	%rax, -72(%rbp)
	movq	-72(%rbp), %rax
	movl	-120(%rbp), %edx
	movl	%edx, 16(%rax)
	movq	_TIG_iO_Rc9w_1_main_1_opaque_list_1(%rip), %rax
	movq	8(%rax), %rdx
	movq	-72(%rbp), %rax
	movq	%rdx, 8(%rax)
	movq	_TIG_iO_Rc9w_1_main_1_opaque_list_1(%rip), %rdx
	movq	-72(%rbp), %rax
	movq	%rdx, (%rax)
	movq	_TIG_iO_Rc9w_1_main_1_opaque_list_1(%rip), %rax
	movq	8(%rax), %rax
	movq	-72(%rbp), %rdx
	movq	%rdx, (%rax)
	movq	_TIG_iO_Rc9w_1_main_1_opaque_list_1(%rip), %rax
	movq	-72(%rbp), %rdx
	movq	%rdx, 8(%rax)
	movq	_TIG_iO_Rc9w_1_main_1_opaque_list_1(%rip), %rax
	movq	8(%rax), %rax
	movq	%rax, _TIG_iO_Rc9w_1_main_1_opaque_ptr_1(%rip)
	movq	_TIG_iO_Rc9w_1_main_1_opaque_ptr_1(%rip), %rax
	movq	%rax, _TIG_iO_Rc9w_1_main_1_opaque_ptr_2(%rip)
	movq	_TIG_iO_Rc9w_1_main_1_opaque_ptr_2(%rip), %rax
	movq	8(%rax), %rax
	movq	%rax, _TIG_iO_Rc9w_1_main_1_opaque_ptr_2(%rip)
	nop
	nop
	leaq	-128(%rbp), %rax
	movq	%rax, %rsi
	leaq	.LC1(%rip), %rax
	movq	%rax, %rdi
	movl	$0, %eax
	call	__isoc99_scanf@PLT
.L16:
	movl	-128(%rbp), %eax
	movl	%eax, -116(%rbp)
	movl	-128(%rbp), %eax
	subl	$1, %eax
	movl	%eax, -128(%rbp)
	cmpl	$0, -116(%rbp)
	jle	.L22
	leaq	-96(%rbp), %rcx
	leaq	-104(%rbp), %rdx
	leaq	-112(%rbp), %rax
	movq	%rax, %rsi
	leaq	.LC2(%rip), %rax
	movq	%rax, %rdi
	movl	$0, %eax
	call	__isoc99_scanf@PLT
	movsd	-112(%rbp), %xmm1
	movsd	-104(%rbp), %xmm0
	addsd	%xmm1, %xmm0
	movsd	%xmm0, -64(%rbp)
	movsd	-104(%rbp), %xmm1
	movsd	-96(%rbp), %xmm0
	addsd	%xmm1, %xmm0
	movsd	%xmm0, -56(%rbp)
	movsd	-112(%rbp), %xmm1
	movsd	-96(%rbp), %xmm0
	addsd	%xmm1, %xmm0
	movsd	%xmm0, -48(%rbp)
	movsd	-48(%rbp), %xmm1
	movsd	-56(%rbp), %xmm0
	movq	-64(%rbp), %rax
	movapd	%xmm1, %xmm2
	movapd	%xmm0, %xmm1
	movq	%rax, %xmm0
	call	heron
	movq	%xmm0, %rax
	movq	%rax, -40(%rbp)
	movsd	-56(%rbp), %xmm1
	movsd	-48(%rbp), %xmm0
	movq	-64(%rbp), %rax
	movapd	%xmm1, %xmm2
	movapd	%xmm0, %xmm1
	movq	%rax, %xmm0
	call	angle
	movq	%xmm0, %rax
	movq	%rax, -32(%rbp)
	movsd	-32(%rbp), %xmm0
	movsd	.LC0(%rip), %xmm2
	movapd	%xmm0, %xmm1
	divsd	%xmm2, %xmm1
	movsd	-112(%rbp), %xmm0
	mulsd	%xmm0, %xmm1
	movsd	-112(%rbp), %xmm0
	mulsd	%xmm0, %xmm1
	movsd	-40(%rbp), %xmm0
	subsd	%xmm1, %xmm0
	movsd	%xmm0, -40(%rbp)
	movsd	-48(%rbp), %xmm1
	movsd	-56(%rbp), %xmm0
	movq	-64(%rbp), %rax
	movapd	%xmm1, %xmm2
	movapd	%xmm0, %xmm1
	movq	%rax, %xmm0
	call	angle
	movq	%xmm0, %rax
	movq	%rax, -24(%rbp)
	movsd	-24(%rbp), %xmm0
	movsd	.LC0(%rip), %xmm2
	movapd	%xmm0, %xmm1
	divsd	%xmm2, %xmm1
	movsd	-104(%rbp), %xmm0
	mulsd	%xmm0, %xmm1
	movsd	-104(%rbp), %xmm0
	mulsd	%xmm0, %xmm1
	movsd	-40(%rbp), %xmm0
	subsd	%xmm1, %xmm0
	movsd	%xmm0, -40(%rbp)
	movsd	-64(%rbp), %xmm1
	movsd	-48(%rbp), %xmm0
	movq	-56(%rbp), %rax
	movapd	%xmm1, %xmm2
	movapd	%xmm0, %xmm1
	movq	%rax, %xmm0
	call	angle
	movq	%xmm0, %rax
	movq	%rax, -16(%rbp)
	movsd	-16(%rbp), %xmm0
	movsd	.LC0(%rip), %xmm2
	movapd	%xmm0, %xmm1
	divsd	%xmm2, %xmm1
	movsd	-96(%rbp), %xmm0
	mulsd	%xmm0, %xmm1
	movsd	-96(%rbp), %xmm0
	mulsd	%xmm0, %xmm1
	movsd	-40(%rbp), %xmm0
	subsd	%xmm1, %xmm0
	movsd	%xmm0, -40(%rbp)
	movq	-40(%rbp), %rax
	movq	%rax, %xmm0
	leaq	.LC3(%rip), %rax
	movq	%rax, %rdi
	movl	$1, %eax
	call	printf@PLT
	jmp	.L16
.L22:
	nop
	movq	_TIG_iO_Rc9w_1_main_1_opaque_ptr_1(%rip), %rdx
	movq	_TIG_iO_Rc9w_1_main_1_opaque_ptr_2(%rip), %rax
	cmpq	%rax, %rdx
	je	.L17
	movl	$0, %eax
	jmp	.L19
.L17:
	movl	$0, %eax
.L19:
	movq	-8(%rbp), %rdx
	subq	%fs:40, %rdx
	je	.L20
	call	__stack_chk_fail@PLT
.L20:
	leave
	.cfi_def_cfa 7, 8
	ret
	.cfi_endproc
.LFE7:
	.size	main, .-main
	.section	.rodata
	.align 8
.LC0:
	.long	0
	.long	1073741824
	.ident	"GCC: (Ubuntu 11.4.0-1ubuntu1~22.04) 11.4.0"
	.section	.note.GNU-stack,"",@progbits
	.section	.note.gnu.property,"a"
	.align 8
	.long	1f - 0f
	.long	4f - 1f
	.long	5
0:
	.string	"GNU"
1:
	.align 8
	.long	0xc0000002
	.long	3f - 2f
2:
	.long	0x3
3:
	.align 8
4:
