	.file	"iains_gcc-14-branch_fd-glibc-byte-stream-connection-server_opaque.c"
	.text
	.globl	_TIG_iO_JcQ3_1_read_from_client_1_opaque_ptr_2
	.bss
	.align 8
	.type	_TIG_iO_JcQ3_1_read_from_client_1_opaque_ptr_2, @object
	.size	_TIG_iO_JcQ3_1_read_from_client_1_opaque_ptr_2, 8
_TIG_iO_JcQ3_1_read_from_client_1_opaque_ptr_2:
	.zero	8
	.globl	_TIG_iO_JcQ3_1___bswap_64_1_opaque_list_1
	.align 8
	.type	_TIG_iO_JcQ3_1___bswap_64_1_opaque_list_1, @object
	.size	_TIG_iO_JcQ3_1___bswap_64_1_opaque_list_1, 8
_TIG_iO_JcQ3_1___bswap_64_1_opaque_list_1:
	.zero	8
	.globl	_TIG_iO_JcQ3_1___uint16_identity_1_opaque_ptr_1
	.align 8
	.type	_TIG_iO_JcQ3_1___uint16_identity_1_opaque_ptr_1, @object
	.size	_TIG_iO_JcQ3_1___uint16_identity_1_opaque_ptr_1, 8
_TIG_iO_JcQ3_1___uint16_identity_1_opaque_ptr_1:
	.zero	8
	.globl	_TIG_iO_JcQ3_1_read_from_client_1_opaque_list_2
	.align 8
	.type	_TIG_iO_JcQ3_1_read_from_client_1_opaque_list_2, @object
	.size	_TIG_iO_JcQ3_1_read_from_client_1_opaque_list_2, 8
_TIG_iO_JcQ3_1_read_from_client_1_opaque_list_2:
	.zero	8
	.globl	_TIG_iO_JcQ3_1_main_1_opaque_list_2
	.align 8
	.type	_TIG_iO_JcQ3_1_main_1_opaque_list_2, @object
	.size	_TIG_iO_JcQ3_1_main_1_opaque_list_2, 8
_TIG_iO_JcQ3_1_main_1_opaque_list_2:
	.zero	8
	.globl	_TIG_IZ_JcQ3_argv
	.align 8
	.type	_TIG_IZ_JcQ3_argv, @object
	.size	_TIG_IZ_JcQ3_argv, 8
_TIG_IZ_JcQ3_argv:
	.zero	8
	.globl	_TIG_iO_JcQ3_1_read_from_client_1_opaque_ptr_1
	.align 8
	.type	_TIG_iO_JcQ3_1_read_from_client_1_opaque_ptr_1, @object
	.size	_TIG_iO_JcQ3_1_read_from_client_1_opaque_ptr_1, 8
_TIG_iO_JcQ3_1_read_from_client_1_opaque_ptr_1:
	.zero	8
	.globl	_TIG_iO_JcQ3_1___uint16_identity_1_opaque_list_2
	.align 8
	.type	_TIG_iO_JcQ3_1___uint16_identity_1_opaque_list_2, @object
	.size	_TIG_iO_JcQ3_1___uint16_identity_1_opaque_list_2, 8
_TIG_iO_JcQ3_1___uint16_identity_1_opaque_list_2:
	.zero	8
	.globl	_TIG_iO_JcQ3_1___uint32_identity_1_opaque_list_2
	.align 8
	.type	_TIG_iO_JcQ3_1___uint32_identity_1_opaque_list_2, @object
	.size	_TIG_iO_JcQ3_1___uint32_identity_1_opaque_list_2, 8
_TIG_iO_JcQ3_1___uint32_identity_1_opaque_list_2:
	.zero	8
	.globl	_TIG_iO_JcQ3_1___bswap_32_1_opaque_list_2
	.align 8
	.type	_TIG_iO_JcQ3_1___bswap_32_1_opaque_list_2, @object
	.size	_TIG_iO_JcQ3_1___bswap_32_1_opaque_list_2, 8
_TIG_iO_JcQ3_1___bswap_32_1_opaque_list_2:
	.zero	8
	.globl	_TIG_iO_JcQ3_1_main_1_opaque_list_1
	.align 8
	.type	_TIG_iO_JcQ3_1_main_1_opaque_list_1, @object
	.size	_TIG_iO_JcQ3_1_main_1_opaque_list_1, 8
_TIG_iO_JcQ3_1_main_1_opaque_list_1:
	.zero	8
	.globl	_TIG_iO_JcQ3_1___bswap_32_1_opaque_ptr_1
	.align 8
	.type	_TIG_iO_JcQ3_1___bswap_32_1_opaque_ptr_1, @object
	.size	_TIG_iO_JcQ3_1___bswap_32_1_opaque_ptr_1, 8
_TIG_iO_JcQ3_1___bswap_32_1_opaque_ptr_1:
	.zero	8
	.globl	_TIG_iO_JcQ3_1_read_from_client_1_opaque_list_1
	.align 8
	.type	_TIG_iO_JcQ3_1_read_from_client_1_opaque_list_1, @object
	.size	_TIG_iO_JcQ3_1_read_from_client_1_opaque_list_1, 8
_TIG_iO_JcQ3_1_read_from_client_1_opaque_list_1:
	.zero	8
	.globl	_TIG_iO_JcQ3_1___uint64_identity_1_opaque_ptr_2
	.align 8
	.type	_TIG_iO_JcQ3_1___uint64_identity_1_opaque_ptr_2, @object
	.size	_TIG_iO_JcQ3_1___uint64_identity_1_opaque_ptr_2, 8
_TIG_iO_JcQ3_1___uint64_identity_1_opaque_ptr_2:
	.zero	8
	.globl	_TIG_iO_JcQ3_1___uint32_identity_1_opaque_list_1
	.align 8
	.type	_TIG_iO_JcQ3_1___uint32_identity_1_opaque_list_1, @object
	.size	_TIG_iO_JcQ3_1___uint32_identity_1_opaque_list_1, 8
_TIG_iO_JcQ3_1___uint32_identity_1_opaque_list_1:
	.zero	8
	.globl	_TIG_iO_JcQ3_1___bswap_32_1_opaque_ptr_2
	.align 8
	.type	_TIG_iO_JcQ3_1___bswap_32_1_opaque_ptr_2, @object
	.size	_TIG_iO_JcQ3_1___bswap_32_1_opaque_ptr_2, 8
_TIG_iO_JcQ3_1___bswap_32_1_opaque_ptr_2:
	.zero	8
	.globl	_TIG_iO_JcQ3_1___uint32_identity_1_opaque_ptr_2
	.align 8
	.type	_TIG_iO_JcQ3_1___uint32_identity_1_opaque_ptr_2, @object
	.size	_TIG_iO_JcQ3_1___uint32_identity_1_opaque_ptr_2, 8
_TIG_iO_JcQ3_1___uint32_identity_1_opaque_ptr_2:
	.zero	8
	.globl	_TIG_iO_JcQ3_1___uint32_identity_1_opaque_ptr_1
	.align 8
	.type	_TIG_iO_JcQ3_1___uint32_identity_1_opaque_ptr_1, @object
	.size	_TIG_iO_JcQ3_1___uint32_identity_1_opaque_ptr_1, 8
_TIG_iO_JcQ3_1___uint32_identity_1_opaque_ptr_1:
	.zero	8
	.globl	_TIG_iO_JcQ3_1_main_1_opaque_ptr_1
	.align 8
	.type	_TIG_iO_JcQ3_1_main_1_opaque_ptr_1, @object
	.size	_TIG_iO_JcQ3_1_main_1_opaque_ptr_1, 8
_TIG_iO_JcQ3_1_main_1_opaque_ptr_1:
	.zero	8
	.globl	_TIG_iO_JcQ3_1___uint16_identity_1_opaque_ptr_2
	.align 8
	.type	_TIG_iO_JcQ3_1___uint16_identity_1_opaque_ptr_2, @object
	.size	_TIG_iO_JcQ3_1___uint16_identity_1_opaque_ptr_2, 8
_TIG_iO_JcQ3_1___uint16_identity_1_opaque_ptr_2:
	.zero	8
	.globl	_TIG_IZ_JcQ3_envp
	.align 8
	.type	_TIG_IZ_JcQ3_envp, @object
	.size	_TIG_IZ_JcQ3_envp, 8
_TIG_IZ_JcQ3_envp:
	.zero	8
	.globl	_TIG_iO_JcQ3_1___bswap_64_1_opaque_list_2
	.align 8
	.type	_TIG_iO_JcQ3_1___bswap_64_1_opaque_list_2, @object
	.size	_TIG_iO_JcQ3_1___bswap_64_1_opaque_list_2, 8
_TIG_iO_JcQ3_1___bswap_64_1_opaque_list_2:
	.zero	8
	.globl	_TIG_iO_JcQ3_1___bswap_16_1_opaque_ptr_1
	.align 8
	.type	_TIG_iO_JcQ3_1___bswap_16_1_opaque_ptr_1, @object
	.size	_TIG_iO_JcQ3_1___bswap_16_1_opaque_ptr_1, 8
_TIG_iO_JcQ3_1___bswap_16_1_opaque_ptr_1:
	.zero	8
	.globl	_TIG_iO_JcQ3_1_make_socket_1_opaque_ptr_1
	.align 8
	.type	_TIG_iO_JcQ3_1_make_socket_1_opaque_ptr_1, @object
	.size	_TIG_iO_JcQ3_1_make_socket_1_opaque_ptr_1, 8
_TIG_iO_JcQ3_1_make_socket_1_opaque_ptr_1:
	.zero	8
	.globl	_TIG_iO_JcQ3_1___bswap_16_1_opaque_ptr_2
	.align 8
	.type	_TIG_iO_JcQ3_1___bswap_16_1_opaque_ptr_2, @object
	.size	_TIG_iO_JcQ3_1___bswap_16_1_opaque_ptr_2, 8
_TIG_iO_JcQ3_1___bswap_16_1_opaque_ptr_2:
	.zero	8
	.globl	_TIG_iO_JcQ3_1_make_socket_1_opaque_list_2
	.align 8
	.type	_TIG_iO_JcQ3_1_make_socket_1_opaque_list_2, @object
	.size	_TIG_iO_JcQ3_1_make_socket_1_opaque_list_2, 8
_TIG_iO_JcQ3_1_make_socket_1_opaque_list_2:
	.zero	8
	.globl	_TIG_iO_JcQ3_1___uint16_identity_1_opaque_list_1
	.align 8
	.type	_TIG_iO_JcQ3_1___uint16_identity_1_opaque_list_1, @object
	.size	_TIG_iO_JcQ3_1___uint16_identity_1_opaque_list_1, 8
_TIG_iO_JcQ3_1___uint16_identity_1_opaque_list_1:
	.zero	8
	.globl	_TIG_iO_JcQ3_1___bswap_64_1_opaque_ptr_1
	.align 8
	.type	_TIG_iO_JcQ3_1___bswap_64_1_opaque_ptr_1, @object
	.size	_TIG_iO_JcQ3_1___bswap_64_1_opaque_ptr_1, 8
_TIG_iO_JcQ3_1___bswap_64_1_opaque_ptr_1:
	.zero	8
	.globl	_TIG_iO_JcQ3_1_main_1_opaque_ptr_2
	.align 8
	.type	_TIG_iO_JcQ3_1_main_1_opaque_ptr_2, @object
	.size	_TIG_iO_JcQ3_1_main_1_opaque_ptr_2, 8
_TIG_iO_JcQ3_1_main_1_opaque_ptr_2:
	.zero	8
	.globl	_TIG_iO_JcQ3_1_make_socket_1_opaque_list_1
	.align 8
	.type	_TIG_iO_JcQ3_1_make_socket_1_opaque_list_1, @object
	.size	_TIG_iO_JcQ3_1_make_socket_1_opaque_list_1, 8
_TIG_iO_JcQ3_1_make_socket_1_opaque_list_1:
	.zero	8
	.globl	_TIG_iO_JcQ3_1___uint64_identity_1_opaque_list_1
	.align 8
	.type	_TIG_iO_JcQ3_1___uint64_identity_1_opaque_list_1, @object
	.size	_TIG_iO_JcQ3_1___uint64_identity_1_opaque_list_1, 8
_TIG_iO_JcQ3_1___uint64_identity_1_opaque_list_1:
	.zero	8
	.globl	_TIG_iO_JcQ3_1_make_socket_1_opaque_ptr_2
	.align 8
	.type	_TIG_iO_JcQ3_1_make_socket_1_opaque_ptr_2, @object
	.size	_TIG_iO_JcQ3_1_make_socket_1_opaque_ptr_2, 8
_TIG_iO_JcQ3_1_make_socket_1_opaque_ptr_2:
	.zero	8
	.globl	_TIG_iO_JcQ3_1___bswap_16_1_opaque_list_1
	.align 8
	.type	_TIG_iO_JcQ3_1___bswap_16_1_opaque_list_1, @object
	.size	_TIG_iO_JcQ3_1___bswap_16_1_opaque_list_1, 8
_TIG_iO_JcQ3_1___bswap_16_1_opaque_list_1:
	.zero	8
	.globl	_TIG_IZ_JcQ3_argc
	.align 4
	.type	_TIG_IZ_JcQ3_argc, @object
	.size	_TIG_IZ_JcQ3_argc, 4
_TIG_IZ_JcQ3_argc:
	.zero	4
	.globl	_TIG_iO_JcQ3_1___bswap_64_1_opaque_ptr_2
	.align 8
	.type	_TIG_iO_JcQ3_1___bswap_64_1_opaque_ptr_2, @object
	.size	_TIG_iO_JcQ3_1___bswap_64_1_opaque_ptr_2, 8
_TIG_iO_JcQ3_1___bswap_64_1_opaque_ptr_2:
	.zero	8
	.globl	_TIG_iO_JcQ3_1___uint64_identity_1_opaque_list_2
	.align 8
	.type	_TIG_iO_JcQ3_1___uint64_identity_1_opaque_list_2, @object
	.size	_TIG_iO_JcQ3_1___uint64_identity_1_opaque_list_2, 8
_TIG_iO_JcQ3_1___uint64_identity_1_opaque_list_2:
	.zero	8
	.globl	_TIG_iO_JcQ3_1___bswap_32_1_opaque_list_1
	.align 8
	.type	_TIG_iO_JcQ3_1___bswap_32_1_opaque_list_1, @object
	.size	_TIG_iO_JcQ3_1___bswap_32_1_opaque_list_1, 8
_TIG_iO_JcQ3_1___bswap_32_1_opaque_list_1:
	.zero	8
	.globl	_TIG_iO_JcQ3_1___uint64_identity_1_opaque_ptr_1
	.align 8
	.type	_TIG_iO_JcQ3_1___uint64_identity_1_opaque_ptr_1, @object
	.size	_TIG_iO_JcQ3_1___uint64_identity_1_opaque_ptr_1, 8
_TIG_iO_JcQ3_1___uint64_identity_1_opaque_ptr_1:
	.zero	8
	.globl	_TIG_iO_JcQ3_1___bswap_16_1_opaque_list_2
	.align 8
	.type	_TIG_iO_JcQ3_1___bswap_16_1_opaque_list_2, @object
	.size	_TIG_iO_JcQ3_1___bswap_16_1_opaque_list_2, 8
_TIG_iO_JcQ3_1___bswap_16_1_opaque_list_2:
	.zero	8
	.section	.rodata
.LC0:
	.string	"socket"
.LC1:
	.string	"bind"
	.text
	.globl	make_socket
	.type	make_socket, @function
make_socket:
.LFB0:
	.cfi_startproc
	endbr64
	pushq	%rbp
	.cfi_def_cfa_offset 16
	.cfi_offset 6, -16
	movq	%rsp, %rbp
	.cfi_def_cfa_register 6
	subq	$96, %rsp
	movl	%edi, %eax
	movw	%ax, -84(%rbp)
	movq	%fs:40, %rax
	movq	%rax, -8(%rbp)
	xorl	%eax, %eax
#APP
# 79 "/usr/include/stdlib.h" 1
	##_ANNOTATION_INITIALREGION_-TIG-iO-JcQ3-1-make-socket--16
# 0 "" 2
# 83 "/usr/include/stdlib.h" 1
	##_ANNOTATION_ATOMICREGION_-TIG-iO-JcQ3-1-make-socket--15
# 0 "" 2
#NO_APP
	movl	$24, %edi
	call	malloc@PLT
	movq	%rax, -56(%rbp)
	movq	-56(%rbp), %rax
	movq	-56(%rbp), %rdx
	movq	%rdx, 16(%rax)
	movq	-56(%rbp), %rax
	movq	-56(%rbp), %rdx
	movq	%rdx, 8(%rax)
	movq	-56(%rbp), %rax
	movq	%rax, _TIG_iO_JcQ3_1_make_socket_1_opaque_list_1(%rip)
	call	rand@PLT
	movl	%eax, -72(%rbp)
	movl	$24, %edi
	call	malloc@PLT
	movq	%rax, -48(%rbp)
	movq	-48(%rbp), %rax
	movl	$0, (%rax)
	movq	_TIG_iO_JcQ3_1_make_socket_1_opaque_list_1(%rip), %rax
	movq	16(%rax), %rdx
	movq	-48(%rbp), %rax
	movq	%rdx, 16(%rax)
	movq	_TIG_iO_JcQ3_1_make_socket_1_opaque_list_1(%rip), %rdx
	movq	-48(%rbp), %rax
	movq	%rdx, 8(%rax)
	movq	_TIG_iO_JcQ3_1_make_socket_1_opaque_list_1(%rip), %rax
	movq	16(%rax), %rax
	movq	-48(%rbp), %rdx
	movq	%rdx, 8(%rax)
	movq	_TIG_iO_JcQ3_1_make_socket_1_opaque_list_1(%rip), %rax
	movq	-48(%rbp), %rdx
	movq	%rdx, 16(%rax)
	call	rand@PLT
	movl	%eax, -68(%rbp)
	movl	$24, %edi
	call	malloc@PLT
	movq	%rax, -40(%rbp)
	movq	-40(%rbp), %rax
	movl	-68(%rbp), %edx
	movl	%edx, (%rax)
	movq	_TIG_iO_JcQ3_1_make_socket_1_opaque_list_1(%rip), %rax
	movq	16(%rax), %rdx
	movq	-40(%rbp), %rax
	movq	%rdx, 16(%rax)
	movq	_TIG_iO_JcQ3_1_make_socket_1_opaque_list_1(%rip), %rdx
	movq	-40(%rbp), %rax
	movq	%rdx, 8(%rax)
	movq	_TIG_iO_JcQ3_1_make_socket_1_opaque_list_1(%rip), %rax
	movq	16(%rax), %rax
	movq	-40(%rbp), %rdx
	movq	%rdx, 8(%rax)
	movq	_TIG_iO_JcQ3_1_make_socket_1_opaque_list_1(%rip), %rax
	movq	-40(%rbp), %rdx
	movq	%rdx, 16(%rax)
	movq	_TIG_iO_JcQ3_1_make_socket_1_opaque_list_1(%rip), %rax
	movq	16(%rax), %rax
	movq	%rax, _TIG_iO_JcQ3_1_make_socket_1_opaque_ptr_1(%rip)
	movq	_TIG_iO_JcQ3_1_make_socket_1_opaque_ptr_1(%rip), %rax
	movq	%rax, _TIG_iO_JcQ3_1_make_socket_1_opaque_ptr_2(%rip)
	nop
	nop
	movl	$0, %edx
	movl	$1, %esi
	movl	$2, %edi
	call	socket@PLT
	movl	%eax, -64(%rbp)
	movq	_TIG_iO_JcQ3_1_read_from_client_1_opaque_ptr_1(%rip), %rdx
	movq	_TIG_iO_JcQ3_1_read_from_client_1_opaque_ptr_2(%rip), %rax
	cmpq	%rax, %rdx
	jne	.L2
#APP
# 32 "iains_gcc-14-branch_fd-glibc-byte-stream-connection-server.c" 1
	.byte 0x31
# 0 "" 2
#NO_APP
	jmp	.L3
.L2:
	cmpl	$0, -64(%rbp)
	jns	.L3
	leaq	.LC0(%rip), %rax
	movq	%rax, %rdi
	call	perror@PLT
	movl	$1, %edi
	call	exit@PLT
.L3:
	movw	$2, -32(%rbp)
	movzwl	-84(%rbp), %eax
	movl	%eax, %edi
	call	htons@PLT
	movw	%ax, -30(%rbp)
	movl	$0, %edi
	call	htonl@PLT
	movl	%eax, -28(%rbp)
	leaq	-32(%rbp), %rcx
	movl	-64(%rbp), %eax
	movl	$16, %edx
	movq	%rcx, %rsi
	movl	%eax, %edi
	call	bind@PLT
	movl	%eax, -60(%rbp)
	cmpl	$0, -60(%rbp)
	jns	.L4
	leaq	.LC1(%rip), %rax
	movq	%rax, %rdi
	call	perror@PLT
	movl	$1, %edi
	call	exit@PLT
.L4:
	movl	-64(%rbp), %eax
	movq	-8(%rbp), %rdx
	subq	%fs:40, %rdx
	je	.L6
	call	__stack_chk_fail@PLT
.L6:
	leave
	.cfi_def_cfa 7, 8
	ret
	.cfi_endproc
.LFE0:
	.size	make_socket, .-make_socket
	.section	.rodata
.LC2:
	.string	"listen"
.LC3:
	.string	"select"
.LC4:
	.string	"accept"
	.align 8
.LC5:
	.string	"Server: connect from host %s, port %hd.\n"
	.text
	.globl	main
	.type	main, @function
main:
.LFB3:
	.cfi_startproc
	endbr64
	pushq	%rbp
	.cfi_def_cfa_offset 16
	.cfi_offset 6, -16
	movq	%rsp, %rbp
	.cfi_def_cfa_register 6
	subq	$432, %rsp
	movl	%edi, -404(%rbp)
	movq	%rsi, -416(%rbp)
	movq	%rdx, -424(%rbp)
	movq	%fs:40, %rax
	movq	%rax, -8(%rbp)
	xorl	%eax, %eax
	movq	$0, _TIG_IZ_JcQ3_envp(%rip)
	nop
.L8:
	movq	$0, _TIG_IZ_JcQ3_argv(%rip)
	nop
.L9:
	movl	$0, _TIG_IZ_JcQ3_argc(%rip)
	nop
	nop
.L10:
.L11:
#APP
# 134 "/usr/include/x86_64-linux-gnu/bits/byteswap.h" 1
	##_ANNOTATION_INITIALREGION_-TIG-IZ-JcQ3--0
# 0 "" 2
#NO_APP
	movl	-404(%rbp), %eax
	movl	%eax, _TIG_IZ_JcQ3_argc(%rip)
	movq	-416(%rbp), %rax
	movq	%rax, _TIG_IZ_JcQ3_argv(%rip)
	movq	-424(%rbp), %rax
	movq	%rax, _TIG_IZ_JcQ3_envp(%rip)
#APP
# 141 "/usr/include/x86_64-linux-gnu/bits/byteswap.h" 1
	##_ANNOTATION_ATOMICREGION_-TIG-iO-JcQ3-1-main--13
# 0 "" 2
#NO_APP
	movl	$24, %edi
	call	malloc@PLT
	movq	%rax, -344(%rbp)
	movq	-344(%rbp), %rax
	movq	-344(%rbp), %rdx
	movq	%rdx, (%rax)
	movq	-344(%rbp), %rax
	movq	-344(%rbp), %rdx
	movq	%rdx, 8(%rax)
	movq	-344(%rbp), %rax
	movq	%rax, _TIG_iO_JcQ3_1_main_1_opaque_list_1(%rip)
	call	rand@PLT
	movl	%eax, -376(%rbp)
	movl	$24, %edi
	call	malloc@PLT
	movq	%rax, -336(%rbp)
	movq	-336(%rbp), %rax
	movl	$0, 16(%rax)
	movq	_TIG_iO_JcQ3_1_main_1_opaque_list_1(%rip), %rax
	movq	(%rax), %rdx
	movq	-336(%rbp), %rax
	movq	%rdx, (%rax)
	movq	_TIG_iO_JcQ3_1_main_1_opaque_list_1(%rip), %rdx
	movq	-336(%rbp), %rax
	movq	%rdx, 8(%rax)
	movq	_TIG_iO_JcQ3_1_main_1_opaque_list_1(%rip), %rax
	movq	(%rax), %rax
	movq	-336(%rbp), %rdx
	movq	%rdx, 8(%rax)
	movq	_TIG_iO_JcQ3_1_main_1_opaque_list_1(%rip), %rax
	movq	-336(%rbp), %rdx
	movq	%rdx, (%rax)
	call	rand@PLT
	movl	%eax, -372(%rbp)
	movl	$24, %edi
	call	malloc@PLT
	movq	%rax, -328(%rbp)
	movq	-328(%rbp), %rax
	movl	-372(%rbp), %edx
	movl	%edx, 16(%rax)
	movq	_TIG_iO_JcQ3_1_main_1_opaque_list_1(%rip), %rax
	movq	(%rax), %rdx
	movq	-328(%rbp), %rax
	movq	%rdx, (%rax)
	movq	_TIG_iO_JcQ3_1_main_1_opaque_list_1(%rip), %rdx
	movq	-328(%rbp), %rax
	movq	%rdx, 8(%rax)
	movq	_TIG_iO_JcQ3_1_main_1_opaque_list_1(%rip), %rax
	movq	(%rax), %rax
	movq	-328(%rbp), %rdx
	movq	%rdx, 8(%rax)
	movq	_TIG_iO_JcQ3_1_main_1_opaque_list_1(%rip), %rax
	movq	-328(%rbp), %rdx
	movq	%rdx, (%rax)
	call	rand@PLT
	movl	%eax, -368(%rbp)
	movl	$24, %edi
	call	malloc@PLT
	movq	%rax, -320(%rbp)
	movl	-368(%rbp), %eax
	leal	(%rax,%rax), %edx
	movq	-320(%rbp), %rax
	movl	%edx, 16(%rax)
	movq	_TIG_iO_JcQ3_1_main_1_opaque_list_1(%rip), %rax
	movq	(%rax), %rdx
	movq	-320(%rbp), %rax
	movq	%rdx, (%rax)
	movq	_TIG_iO_JcQ3_1_main_1_opaque_list_1(%rip), %rdx
	movq	-320(%rbp), %rax
	movq	%rdx, 8(%rax)
	movq	_TIG_iO_JcQ3_1_main_1_opaque_list_1(%rip), %rax
	movq	(%rax), %rax
	movq	-320(%rbp), %rdx
	movq	%rdx, 8(%rax)
	movq	_TIG_iO_JcQ3_1_main_1_opaque_list_1(%rip), %rax
	movq	-320(%rbp), %rdx
	movq	%rdx, (%rax)
	call	rand@PLT
	movl	%eax, -364(%rbp)
	movl	$24, %edi
	call	malloc@PLT
	movq	%rax, -312(%rbp)
	movl	-364(%rbp), %edx
	movl	%edx, %eax
	addl	%eax, %eax
	addl	%eax, %edx
	movq	-312(%rbp), %rax
	movl	%edx, 16(%rax)
	movq	_TIG_iO_JcQ3_1_main_1_opaque_list_1(%rip), %rax
	movq	(%rax), %rdx
	movq	-312(%rbp), %rax
	movq	%rdx, (%rax)
	movq	_TIG_iO_JcQ3_1_main_1_opaque_list_1(%rip), %rdx
	movq	-312(%rbp), %rax
	movq	%rdx, 8(%rax)
	movq	_TIG_iO_JcQ3_1_main_1_opaque_list_1(%rip), %rax
	movq	(%rax), %rax
	movq	-312(%rbp), %rdx
	movq	%rdx, 8(%rax)
	movq	_TIG_iO_JcQ3_1_main_1_opaque_list_1(%rip), %rax
	movq	-312(%rbp), %rdx
	movq	%rdx, (%rax)
	movq	_TIG_iO_JcQ3_1_main_1_opaque_list_1(%rip), %rax
	movq	(%rax), %rax
	movq	%rax, _TIG_iO_JcQ3_1_main_1_opaque_ptr_1(%rip)
	movq	_TIG_iO_JcQ3_1_main_1_opaque_ptr_1(%rip), %rax
	movq	%rax, _TIG_iO_JcQ3_1_main_1_opaque_ptr_2(%rip)
	movq	_TIG_iO_JcQ3_1_main_1_opaque_ptr_2(%rip), %rax
	movq	(%rax), %rax
	movq	%rax, _TIG_iO_JcQ3_1_main_1_opaque_ptr_2(%rip)
	nop
	nop
	movl	$5555, %edi
	call	make_socket
	movl	%eax, -360(%rbp)
	movl	-360(%rbp), %eax
	movl	$1, %esi
	movl	%eax, %edi
	call	listen@PLT
	movl	%eax, -356(%rbp)
	cmpl	$0, -356(%rbp)
	jns	.L12
	leaq	.LC2(%rip), %rax
	movq	%rax, %rdi
	call	perror@PLT
	movl	$1, %edi
	call	exit@PLT
.L12:
	leaq	-272(%rbp), %rax
	movq	%rax, -304(%rbp)
	movl	$0, -384(%rbp)
	jmp	.L13
.L14:
	movq	-304(%rbp), %rax
	movl	-384(%rbp), %edx
	movq	$0, (%rax,%rdx,8)
	addl	$1, -384(%rbp)
.L13:
	cmpl	$15, -384(%rbp)
	jbe	.L14
	nop
	movl	-360(%rbp), %eax
	leal	63(%rax), %edx
	testl	%eax, %eax
	cmovs	%edx, %eax
	sarl	$6, %eax
	movl	%eax, %esi
	movslq	%esi, %rax
	movq	-272(%rbp,%rax,8), %rdx
	movl	-360(%rbp), %eax
	andl	$63, %eax
	movl	$1, %edi
	movl	%eax, %ecx
	salq	%cl, %rdi
	movq	%rdi, %rax
	orq	%rax, %rdx
	movslq	%esi, %rax
	movq	%rdx, -272(%rbp,%rax,8)
.L22:
	movq	-272(%rbp), %rax
	movq	-264(%rbp), %rdx
	movq	%rax, -144(%rbp)
	movq	%rdx, -136(%rbp)
	movq	-256(%rbp), %rax
	movq	-248(%rbp), %rdx
	movq	%rax, -128(%rbp)
	movq	%rdx, -120(%rbp)
	movq	-240(%rbp), %rax
	movq	-232(%rbp), %rdx
	movq	%rax, -112(%rbp)
	movq	%rdx, -104(%rbp)
	movq	-224(%rbp), %rax
	movq	-216(%rbp), %rdx
	movq	%rax, -96(%rbp)
	movq	%rdx, -88(%rbp)
	movq	-208(%rbp), %rax
	movq	-200(%rbp), %rdx
	movq	%rax, -80(%rbp)
	movq	%rdx, -72(%rbp)
	movq	-192(%rbp), %rax
	movq	-184(%rbp), %rdx
	movq	%rax, -64(%rbp)
	movq	%rdx, -56(%rbp)
	movq	-176(%rbp), %rax
	movq	-168(%rbp), %rdx
	movq	%rax, -48(%rbp)
	movq	%rdx, -40(%rbp)
	movq	-160(%rbp), %rax
	movq	-152(%rbp), %rdx
	movq	%rax, -32(%rbp)
	movq	%rdx, -24(%rbp)
	leaq	-144(%rbp), %rax
	movl	$0, %r8d
	movl	$0, %ecx
	movl	$0, %edx
	movq	%rax, %rsi
	movl	$1024, %edi
	call	select@PLT
	movl	%eax, -352(%rbp)
	cmpl	$0, -352(%rbp)
	jns	.L15
	leaq	.LC3(%rip), %rax
	movq	%rax, %rdi
	call	perror@PLT
	movl	$1, %edi
	call	exit@PLT
.L15:
	movl	$0, -388(%rbp)
	jmp	.L16
.L21:
	movl	-388(%rbp), %eax
	leal	63(%rax), %edx
	testl	%eax, %eax
	cmovs	%edx, %eax
	sarl	$6, %eax
	cltq
	movq	-144(%rbp,%rax,8), %rdx
	movl	-388(%rbp), %eax
	andl	$63, %eax
	movl	$1, %esi
	movl	%eax, %ecx
	salq	%cl, %rsi
	movq	%rsi, %rax
	andq	%rdx, %rax
	testq	%rax, %rax
	je	.L17
	movl	-388(%rbp), %eax
	cmpl	-360(%rbp), %eax
	jne	.L18
	movq	_TIG_iO_JcQ3_1_read_from_client_1_opaque_ptr_1(%rip), %rdx
	movq	_TIG_iO_JcQ3_1_read_from_client_1_opaque_ptr_2(%rip), %rax
	cmpq	%rax, %rdx
	je	.L19
	movl	$16, -392(%rbp)
	leaq	-392(%rbp), %rdx
	leaq	-288(%rbp), %rcx
	movl	-360(%rbp), %eax
	movq	%rcx, %rsi
	movl	%eax, %edi
	call	accept@PLT
	movl	%eax, -380(%rbp)
.L19:
	cmpl	$0, -380(%rbp)
	jns	.L20
	leaq	.LC4(%rip), %rax
	movq	%rax, %rdi
	call	perror@PLT
	movl	$1, %edi
	call	exit@PLT
.L20:
	movzwl	-286(%rbp), %eax
	movzwl	%ax, %eax
	movl	%eax, %edi
	call	ntohs@PLT
	movw	%ax, -394(%rbp)
	movl	-284(%rbp), %eax
	movl	%eax, %edi
	call	inet_ntoa@PLT
	movq	%rax, -296(%rbp)
	movzwl	-394(%rbp), %ecx
	movq	stderr(%rip), %rax
	movq	-296(%rbp), %rdx
	leaq	.LC5(%rip), %rsi
	movq	%rax, %rdi
	movl	$0, %eax
	call	fprintf@PLT
	movl	-380(%rbp), %eax
	leal	63(%rax), %edx
	testl	%eax, %eax
	cmovs	%edx, %eax
	sarl	$6, %eax
	movl	%eax, %esi
	movslq	%esi, %rax
	movq	-272(%rbp,%rax,8), %rdx
	movl	-380(%rbp), %eax
	andl	$63, %eax
	movl	$1, %edi
	movl	%eax, %ecx
	salq	%cl, %rdi
	movq	%rdi, %rax
	orq	%rax, %rdx
	movslq	%esi, %rax
	movq	%rdx, -272(%rbp,%rax,8)
	jmp	.L17
.L18:
	movl	-388(%rbp), %eax
	movl	%eax, %edi
	call	read_from_client
	movl	%eax, -348(%rbp)
	cmpl	$0, -348(%rbp)
	jns	.L17
	movl	-388(%rbp), %eax
	movl	%eax, %edi
	call	close@PLT
	movl	-388(%rbp), %eax
	leal	63(%rax), %edx
	testl	%eax, %eax
	cmovs	%edx, %eax
	sarl	$6, %eax
	movl	%eax, %esi
	movslq	%esi, %rax
	movq	-272(%rbp,%rax,8), %rdx
	movl	-388(%rbp), %eax
	andl	$63, %eax
	movl	$1, %edi
	movl	%eax, %ecx
	salq	%cl, %rdi
	movq	%rdi, %rax
	notq	%rax
	andq	%rax, %rdx
	movslq	%esi, %rax
	movq	%rdx, -272(%rbp,%rax,8)
.L17:
	addl	$1, -388(%rbp)
.L16:
	cmpl	$1023, -388(%rbp)
	jle	.L21
	jmp	.L22
	.cfi_endproc
.LFE3:
	.size	main, .-main
	.section	.rodata
.LC6:
	.string	"read"
.LC7:
	.string	"Server: got message: `%s'\n"
	.text
	.globl	read_from_client
	.type	read_from_client, @function
read_from_client:
.LFB6:
	.cfi_startproc
	endbr64
	pushq	%rbp
	.cfi_def_cfa_offset 16
	.cfi_offset 6, -16
	movq	%rsp, %rbp
	.cfi_def_cfa_register 6
	subq	$592, %rsp
	movl	%edi, -580(%rbp)
	movq	%fs:40, %rax
	movq	%rax, -8(%rbp)
	xorl	%eax, %eax
#APP
# 72 "/usr/include/x86_64-linux-gnu/bits/byteswap.h" 1
	##_ANNOTATION_INITIALREGION_-TIG-iO-JcQ3-1-read-from-client--18
# 0 "" 2
# 76 "/usr/include/x86_64-linux-gnu/bits/byteswap.h" 1
	##_ANNOTATION_ATOMICREGION_-TIG-iO-JcQ3-1-read-from-client--17
# 0 "" 2
#NO_APP
	movl	$24, %edi
	call	malloc@PLT
	movq	%rax, -560(%rbp)
	movq	-560(%rbp), %rax
	movq	-560(%rbp), %rdx
	movq	%rdx, 8(%rax)
	movq	-560(%rbp), %rax
	movq	-560(%rbp), %rdx
	movq	%rdx, (%rax)
	movq	-560(%rbp), %rax
	movq	%rax, _TIG_iO_JcQ3_1_read_from_client_1_opaque_list_1(%rip)
	call	rand@PLT
	movl	%eax, -572(%rbp)
	movl	$24, %edi
	call	malloc@PLT
	movq	%rax, -552(%rbp)
	movq	-552(%rbp), %rax
	movl	$0, 16(%rax)
	movq	_TIG_iO_JcQ3_1_read_from_client_1_opaque_list_1(%rip), %rax
	movq	8(%rax), %rdx
	movq	-552(%rbp), %rax
	movq	%rdx, 8(%rax)
	movq	_TIG_iO_JcQ3_1_read_from_client_1_opaque_list_1(%rip), %rdx
	movq	-552(%rbp), %rax
	movq	%rdx, (%rax)
	movq	_TIG_iO_JcQ3_1_read_from_client_1_opaque_list_1(%rip), %rax
	movq	8(%rax), %rax
	movq	-552(%rbp), %rdx
	movq	%rdx, (%rax)
	movq	_TIG_iO_JcQ3_1_read_from_client_1_opaque_list_1(%rip), %rax
	movq	-552(%rbp), %rdx
	movq	%rdx, 8(%rax)
	call	rand@PLT
	movl	%eax, -568(%rbp)
	movl	$24, %edi
	call	malloc@PLT
	movq	%rax, -544(%rbp)
	movq	-544(%rbp), %rax
	movl	-568(%rbp), %edx
	movl	%edx, 16(%rax)
	movq	_TIG_iO_JcQ3_1_read_from_client_1_opaque_list_1(%rip), %rax
	movq	8(%rax), %rdx
	movq	-544(%rbp), %rax
	movq	%rdx, 8(%rax)
	movq	_TIG_iO_JcQ3_1_read_from_client_1_opaque_list_1(%rip), %rdx
	movq	-544(%rbp), %rax
	movq	%rdx, (%rax)
	movq	_TIG_iO_JcQ3_1_read_from_client_1_opaque_list_1(%rip), %rax
	movq	8(%rax), %rax
	movq	-544(%rbp), %rdx
	movq	%rdx, (%rax)
	movq	_TIG_iO_JcQ3_1_read_from_client_1_opaque_list_1(%rip), %rax
	movq	-544(%rbp), %rdx
	movq	%rdx, 8(%rax)
	movq	_TIG_iO_JcQ3_1_read_from_client_1_opaque_list_1(%rip), %rax
	movq	8(%rax), %rax
	movq	%rax, _TIG_iO_JcQ3_1_read_from_client_1_opaque_ptr_1(%rip)
	movq	_TIG_iO_JcQ3_1_read_from_client_1_opaque_ptr_1(%rip), %rax
	movq	%rax, _TIG_iO_JcQ3_1_read_from_client_1_opaque_ptr_2(%rip)
	movq	_TIG_iO_JcQ3_1_read_from_client_1_opaque_ptr_2(%rip), %rax
	movq	8(%rax), %rax
	movq	%rax, _TIG_iO_JcQ3_1_read_from_client_1_opaque_ptr_2(%rip)
	nop
	nop
	leaq	-528(%rbp), %rcx
	movl	-580(%rbp), %eax
	movl	$512, %edx
	movq	%rcx, %rsi
	movl	%eax, %edi
	call	read@PLT
	movq	%rax, -536(%rbp)
	movq	-536(%rbp), %rax
	movl	%eax, -564(%rbp)
	cmpl	$0, -564(%rbp)
	jns	.L25
	leaq	.LC6(%rip), %rax
	movq	%rax, %rdi
	call	perror@PLT
	movl	$1, %edi
	call	exit@PLT
.L25:
	movq	_TIG_iO_JcQ3_1_read_from_client_1_opaque_ptr_1(%rip), %rdx
	movq	_TIG_iO_JcQ3_1_read_from_client_1_opaque_ptr_2(%rip), %rax
	cmpq	%rax, %rdx
	jne	.L26
#APP
# 64 "iains_gcc-14-branch_fd-glibc-byte-stream-connection-server.c" 1
	.byte 0x31,0x51
# 0 "" 2
#NO_APP
	movl	$0, %eax
	jmp	.L30
.L26:
	cmpl	$0, -564(%rbp)
	jne	.L28
	movl	$-1, %eax
	jmp	.L30
.L28:
	movq	stderr(%rip), %rax
	leaq	-528(%rbp), %rdx
	leaq	.LC7(%rip), %rcx
	movq	%rcx, %rsi
	movq	%rax, %rdi
	movl	$0, %eax
	call	fprintf@PLT
	movl	$0, %eax
.L30:
	movq	-8(%rbp), %rdx
	subq	%fs:40, %rdx
	je	.L31
	call	__stack_chk_fail@PLT
.L31:
	leave
	.cfi_def_cfa 7, 8
	ret
	.cfi_endproc
.LFE6:
	.size	read_from_client, .-read_from_client
	.ident	"GCC: (Ubuntu 11.4.0-1ubuntu1~22.04) 11.4.0"
	.section	.note.GNU-stack,"",@progbits
	.section	.note.gnu.property,"a"
	.align 8
	.long	1f - 0f
	.long	4f - 1f
	.long	5
0:
	.string	"GNU"
1:
	.align 8
	.long	0xc0000002
	.long	3f - 2f
2:
	.long	0x3
3:
	.align 8
4:
