	.file	"jspast_Maratona-SBC-2024_e_opaque.c"
	.text
	.globl	_TIG_iO_BciZ_1___bswap_64_1_opaque_list_1
	.bss
	.align 8
	.type	_TIG_iO_BciZ_1___bswap_64_1_opaque_list_1, @object
	.size	_TIG_iO_BciZ_1___bswap_64_1_opaque_list_1, 8
_TIG_iO_BciZ_1___bswap_64_1_opaque_list_1:
	.zero	8
	.globl	_TIG_iO_BciZ_1_main_1_opaque_list_1
	.align 8
	.type	_TIG_iO_BciZ_1_main_1_opaque_list_1, @object
	.size	_TIG_iO_BciZ_1_main_1_opaque_list_1, 8
_TIG_iO_BciZ_1_main_1_opaque_list_1:
	.zero	8
	.globl	_TIG_iO_BciZ_1___uint16_identity_1_opaque_ptr_1
	.align 8
	.type	_TIG_iO_BciZ_1___uint16_identity_1_opaque_ptr_1, @object
	.size	_TIG_iO_BciZ_1___uint16_identity_1_opaque_ptr_1, 8
_TIG_iO_BciZ_1___uint16_identity_1_opaque_ptr_1:
	.zero	8
	.globl	_TIG_iO_BciZ_1___uint16_identity_1_opaque_ptr_2
	.align 8
	.type	_TIG_iO_BciZ_1___uint16_identity_1_opaque_ptr_2, @object
	.size	_TIG_iO_BciZ_1___uint16_identity_1_opaque_ptr_2, 8
_TIG_iO_BciZ_1___uint16_identity_1_opaque_ptr_2:
	.zero	8
	.globl	_TIG_iO_BciZ_1___bswap_16_1_opaque_ptr_1
	.align 8
	.type	_TIG_iO_BciZ_1___bswap_16_1_opaque_ptr_1, @object
	.size	_TIG_iO_BciZ_1___bswap_16_1_opaque_ptr_1, 8
_TIG_iO_BciZ_1___bswap_16_1_opaque_ptr_1:
	.zero	8
	.globl	_TIG_iO_BciZ_1___bswap_16_1_opaque_ptr_2
	.align 8
	.type	_TIG_iO_BciZ_1___bswap_16_1_opaque_ptr_2, @object
	.size	_TIG_iO_BciZ_1___bswap_16_1_opaque_ptr_2, 8
_TIG_iO_BciZ_1___bswap_16_1_opaque_ptr_2:
	.zero	8
	.globl	_TIG_iO_BciZ_1_main_1_opaque_ptr_1
	.align 8
	.type	_TIG_iO_BciZ_1_main_1_opaque_ptr_1, @object
	.size	_TIG_iO_BciZ_1_main_1_opaque_ptr_1, 8
_TIG_iO_BciZ_1_main_1_opaque_ptr_1:
	.zero	8
	.globl	_TIG_iO_BciZ_1___uint32_identity_1_opaque_list_2
	.align 8
	.type	_TIG_iO_BciZ_1___uint32_identity_1_opaque_list_2, @object
	.size	_TIG_iO_BciZ_1___uint32_identity_1_opaque_list_2, 8
_TIG_iO_BciZ_1___uint32_identity_1_opaque_list_2:
	.zero	8
	.globl	_TIG_iO_BciZ_1___uint64_identity_1_opaque_list_2
	.align 8
	.type	_TIG_iO_BciZ_1___uint64_identity_1_opaque_list_2, @object
	.size	_TIG_iO_BciZ_1___uint64_identity_1_opaque_list_2, 8
_TIG_iO_BciZ_1___uint64_identity_1_opaque_list_2:
	.zero	8
	.globl	_TIG_iO_BciZ_1___bswap_32_1_opaque_ptr_1
	.align 8
	.type	_TIG_iO_BciZ_1___bswap_32_1_opaque_ptr_1, @object
	.size	_TIG_iO_BciZ_1___bswap_32_1_opaque_ptr_1, 8
_TIG_iO_BciZ_1___bswap_32_1_opaque_ptr_1:
	.zero	8
	.globl	_TIG_iO_BciZ_1___bswap_16_1_opaque_list_2
	.align 8
	.type	_TIG_iO_BciZ_1___bswap_16_1_opaque_list_2, @object
	.size	_TIG_iO_BciZ_1___bswap_16_1_opaque_list_2, 8
_TIG_iO_BciZ_1___bswap_16_1_opaque_list_2:
	.zero	8
	.globl	_TIG_iO_BciZ_1___bswap_64_1_opaque_list_2
	.align 8
	.type	_TIG_iO_BciZ_1___bswap_64_1_opaque_list_2, @object
	.size	_TIG_iO_BciZ_1___bswap_64_1_opaque_list_2, 8
_TIG_iO_BciZ_1___bswap_64_1_opaque_list_2:
	.zero	8
	.globl	_TIG_iO_BciZ_1___uint16_identity_1_opaque_list_1
	.align 8
	.type	_TIG_iO_BciZ_1___uint16_identity_1_opaque_list_1, @object
	.size	_TIG_iO_BciZ_1___uint16_identity_1_opaque_list_1, 8
_TIG_iO_BciZ_1___uint16_identity_1_opaque_list_1:
	.zero	8
	.globl	_TIG_iO_BciZ_1___bswap_16_1_opaque_list_1
	.align 8
	.type	_TIG_iO_BciZ_1___bswap_16_1_opaque_list_1, @object
	.size	_TIG_iO_BciZ_1___bswap_16_1_opaque_list_1, 8
_TIG_iO_BciZ_1___bswap_16_1_opaque_list_1:
	.zero	8
	.globl	_TIG_iO_BciZ_1___bswap_32_1_opaque_list_1
	.align 8
	.type	_TIG_iO_BciZ_1___bswap_32_1_opaque_list_1, @object
	.size	_TIG_iO_BciZ_1___bswap_32_1_opaque_list_1, 8
_TIG_iO_BciZ_1___bswap_32_1_opaque_list_1:
	.zero	8
	.globl	_TIG_iO_BciZ_1_main_1_opaque_list_2
	.align 8
	.type	_TIG_iO_BciZ_1_main_1_opaque_list_2, @object
	.size	_TIG_iO_BciZ_1_main_1_opaque_list_2, 8
_TIG_iO_BciZ_1_main_1_opaque_list_2:
	.zero	8
	.globl	_TIG_iO_BciZ_1___bswap_32_1_opaque_list_2
	.align 8
	.type	_TIG_iO_BciZ_1___bswap_32_1_opaque_list_2, @object
	.size	_TIG_iO_BciZ_1___bswap_32_1_opaque_list_2, 8
_TIG_iO_BciZ_1___bswap_32_1_opaque_list_2:
	.zero	8
	.globl	_TIG_iO_BciZ_1___uint64_identity_1_opaque_ptr_1
	.align 8
	.type	_TIG_iO_BciZ_1___uint64_identity_1_opaque_ptr_1, @object
	.size	_TIG_iO_BciZ_1___uint64_identity_1_opaque_ptr_1, 8
_TIG_iO_BciZ_1___uint64_identity_1_opaque_ptr_1:
	.zero	8
	.globl	_TIG_IZ_BciZ_argv
	.align 8
	.type	_TIG_IZ_BciZ_argv, @object
	.size	_TIG_IZ_BciZ_argv, 8
_TIG_IZ_BciZ_argv:
	.zero	8
	.globl	_TIG_iO_BciZ_1___uint64_identity_1_opaque_list_1
	.align 8
	.type	_TIG_iO_BciZ_1___uint64_identity_1_opaque_list_1, @object
	.size	_TIG_iO_BciZ_1___uint64_identity_1_opaque_list_1, 8
_TIG_iO_BciZ_1___uint64_identity_1_opaque_list_1:
	.zero	8
	.globl	_TIG_iO_BciZ_1___uint64_identity_1_opaque_ptr_2
	.align 8
	.type	_TIG_iO_BciZ_1___uint64_identity_1_opaque_ptr_2, @object
	.size	_TIG_iO_BciZ_1___uint64_identity_1_opaque_ptr_2, 8
_TIG_iO_BciZ_1___uint64_identity_1_opaque_ptr_2:
	.zero	8
	.globl	_TIG_iO_BciZ_1___uint32_identity_1_opaque_list_1
	.align 8
	.type	_TIG_iO_BciZ_1___uint32_identity_1_opaque_list_1, @object
	.size	_TIG_iO_BciZ_1___uint32_identity_1_opaque_list_1, 8
_TIG_iO_BciZ_1___uint32_identity_1_opaque_list_1:
	.zero	8
	.globl	_TIG_iO_BciZ_1_main_1_opaque_ptr_2
	.align 8
	.type	_TIG_iO_BciZ_1_main_1_opaque_ptr_2, @object
	.size	_TIG_iO_BciZ_1_main_1_opaque_ptr_2, 8
_TIG_iO_BciZ_1_main_1_opaque_ptr_2:
	.zero	8
	.globl	_TIG_IZ_BciZ_argc
	.align 4
	.type	_TIG_IZ_BciZ_argc, @object
	.size	_TIG_IZ_BciZ_argc, 4
_TIG_IZ_BciZ_argc:
	.zero	4
	.globl	_TIG_iO_BciZ_1___bswap_64_1_opaque_ptr_2
	.align 8
	.type	_TIG_iO_BciZ_1___bswap_64_1_opaque_ptr_2, @object
	.size	_TIG_iO_BciZ_1___bswap_64_1_opaque_ptr_2, 8
_TIG_iO_BciZ_1___bswap_64_1_opaque_ptr_2:
	.zero	8
	.globl	_TIG_iO_BciZ_1___bswap_64_1_opaque_ptr_1
	.align 8
	.type	_TIG_iO_BciZ_1___bswap_64_1_opaque_ptr_1, @object
	.size	_TIG_iO_BciZ_1___bswap_64_1_opaque_ptr_1, 8
_TIG_iO_BciZ_1___bswap_64_1_opaque_ptr_1:
	.zero	8
	.globl	_TIG_iO_BciZ_1___uint16_identity_1_opaque_list_2
	.align 8
	.type	_TIG_iO_BciZ_1___uint16_identity_1_opaque_list_2, @object
	.size	_TIG_iO_BciZ_1___uint16_identity_1_opaque_list_2, 8
_TIG_iO_BciZ_1___uint16_identity_1_opaque_list_2:
	.zero	8
	.globl	_TIG_iO_BciZ_1___uint32_identity_1_opaque_ptr_2
	.align 8
	.type	_TIG_iO_BciZ_1___uint32_identity_1_opaque_ptr_2, @object
	.size	_TIG_iO_BciZ_1___uint32_identity_1_opaque_ptr_2, 8
_TIG_iO_BciZ_1___uint32_identity_1_opaque_ptr_2:
	.zero	8
	.globl	_TIG_IZ_BciZ_envp
	.align 8
	.type	_TIG_IZ_BciZ_envp, @object
	.size	_TIG_IZ_BciZ_envp, 8
_TIG_IZ_BciZ_envp:
	.zero	8
	.globl	_TIG_iO_BciZ_1___uint32_identity_1_opaque_ptr_1
	.align 8
	.type	_TIG_iO_BciZ_1___uint32_identity_1_opaque_ptr_1, @object
	.size	_TIG_iO_BciZ_1___uint32_identity_1_opaque_ptr_1, 8
_TIG_iO_BciZ_1___uint32_identity_1_opaque_ptr_1:
	.zero	8
	.globl	_TIG_iO_BciZ_1___bswap_32_1_opaque_ptr_2
	.align 8
	.type	_TIG_iO_BciZ_1___bswap_32_1_opaque_ptr_2, @object
	.size	_TIG_iO_BciZ_1___bswap_32_1_opaque_ptr_2, 8
_TIG_iO_BciZ_1___bswap_32_1_opaque_ptr_2:
	.zero	8
	.section	.rodata
.LC0:
	.string	"%d"
	.text
	.globl	main
	.type	main, @function
main:
.LFB6:
	.cfi_startproc
	endbr64
	pushq	%rbp
	.cfi_def_cfa_offset 16
	.cfi_offset 6, -16
	movq	%rsp, %rbp
	.cfi_def_cfa_register 6
	pushq	%r15
	pushq	%r14
	pushq	%r13
	pushq	%r12
	pushq	%rbx
	subq	$216, %rsp
	.cfi_offset 15, -24
	.cfi_offset 14, -32
	.cfi_offset 13, -40
	.cfi_offset 12, -48
	.cfi_offset 3, -56
	movl	%edi, -180(%rbp)
	movq	%rsi, -192(%rbp)
	movq	%rdx, -200(%rbp)
	movq	%fs:40, %rax
	movq	%rax, -56(%rbp)
	xorl	%eax, %eax
	movq	$0, _TIG_IZ_BciZ_envp(%rip)
	nop
.L2:
	movq	$0, _TIG_IZ_BciZ_argv(%rip)
	nop
.L3:
	movl	$0, _TIG_IZ_BciZ_argc(%rip)
	nop
	nop
.L4:
.L5:
#APP
# 92 "/usr/include/x86_64-linux-gnu/bits/byteswap.h" 1
	##_ANNOTATION_INITIALREGION_-TIG-IZ-BciZ--0
# 0 "" 2
#NO_APP
	movl	-180(%rbp), %eax
	movl	%eax, _TIG_IZ_BciZ_argc(%rip)
	movq	-192(%rbp), %rax
	movq	%rax, _TIG_IZ_BciZ_argv(%rip)
	movq	-200(%rbp), %rax
	movq	%rax, _TIG_IZ_BciZ_envp(%rip)
#APP
# 99 "/usr/include/x86_64-linux-gnu/bits/byteswap.h" 1
	##_ANNOTATION_ATOMICREGION_-TIG-iO-BciZ-1-main--13
# 0 "" 2
#NO_APP
	movl	$24, %edi
	call	malloc@PLT
	movq	%rax, -120(%rbp)
	movq	-120(%rbp), %rax
	movq	-120(%rbp), %rdx
	movq	%rdx, (%rax)
	movq	-120(%rbp), %rax
	movq	-120(%rbp), %rdx
	movq	%rdx, 8(%rax)
	movq	-120(%rbp), %rax
	movq	%rax, _TIG_iO_BciZ_1_main_1_opaque_list_1(%rip)
	call	rand@PLT
	movl	%eax, -136(%rbp)
	movl	$24, %edi
	call	malloc@PLT
	movq	%rax, -112(%rbp)
	movq	-112(%rbp), %rax
	movl	$0, 16(%rax)
	movq	_TIG_iO_BciZ_1_main_1_opaque_list_1(%rip), %rax
	movq	(%rax), %rdx
	movq	-112(%rbp), %rax
	movq	%rdx, (%rax)
	movq	_TIG_iO_BciZ_1_main_1_opaque_list_1(%rip), %rdx
	movq	-112(%rbp), %rax
	movq	%rdx, 8(%rax)
	movq	_TIG_iO_BciZ_1_main_1_opaque_list_1(%rip), %rax
	movq	(%rax), %rax
	movq	-112(%rbp), %rdx
	movq	%rdx, 8(%rax)
	movq	_TIG_iO_BciZ_1_main_1_opaque_list_1(%rip), %rax
	movq	-112(%rbp), %rdx
	movq	%rdx, (%rax)
	call	rand@PLT
	movl	%eax, -132(%rbp)
	movl	$24, %edi
	call	malloc@PLT
	movq	%rax, -104(%rbp)
	movq	-104(%rbp), %rax
	movl	-132(%rbp), %edx
	movl	%edx, 16(%rax)
	movq	_TIG_iO_BciZ_1_main_1_opaque_list_1(%rip), %rax
	movq	(%rax), %rdx
	movq	-104(%rbp), %rax
	movq	%rdx, (%rax)
	movq	_TIG_iO_BciZ_1_main_1_opaque_list_1(%rip), %rdx
	movq	-104(%rbp), %rax
	movq	%rdx, 8(%rax)
	movq	_TIG_iO_BciZ_1_main_1_opaque_list_1(%rip), %rax
	movq	(%rax), %rax
	movq	-104(%rbp), %rdx
	movq	%rdx, 8(%rax)
	movq	_TIG_iO_BciZ_1_main_1_opaque_list_1(%rip), %rax
	movq	-104(%rbp), %rdx
	movq	%rdx, (%rax)
	call	rand@PLT
	movl	%eax, -128(%rbp)
	movl	$24, %edi
	call	malloc@PLT
	movq	%rax, -96(%rbp)
	movl	-128(%rbp), %eax
	leal	(%rax,%rax), %edx
	movq	-96(%rbp), %rax
	movl	%edx, 16(%rax)
	movq	_TIG_iO_BciZ_1_main_1_opaque_list_1(%rip), %rax
	movq	(%rax), %rdx
	movq	-96(%rbp), %rax
	movq	%rdx, (%rax)
	movq	_TIG_iO_BciZ_1_main_1_opaque_list_1(%rip), %rdx
	movq	-96(%rbp), %rax
	movq	%rdx, 8(%rax)
	movq	_TIG_iO_BciZ_1_main_1_opaque_list_1(%rip), %rax
	movq	(%rax), %rax
	movq	-96(%rbp), %rdx
	movq	%rdx, 8(%rax)
	movq	_TIG_iO_BciZ_1_main_1_opaque_list_1(%rip), %rax
	movq	-96(%rbp), %rdx
	movq	%rdx, (%rax)
	call	rand@PLT
	movl	%eax, -124(%rbp)
	movl	$24, %edi
	call	malloc@PLT
	movq	%rax, -88(%rbp)
	movl	-124(%rbp), %edx
	movl	%edx, %eax
	addl	%eax, %eax
	addl	%eax, %edx
	movq	-88(%rbp), %rax
	movl	%edx, 16(%rax)
	movq	_TIG_iO_BciZ_1_main_1_opaque_list_1(%rip), %rax
	movq	(%rax), %rdx
	movq	-88(%rbp), %rax
	movq	%rdx, (%rax)
	movq	_TIG_iO_BciZ_1_main_1_opaque_list_1(%rip), %rdx
	movq	-88(%rbp), %rax
	movq	%rdx, 8(%rax)
	movq	_TIG_iO_BciZ_1_main_1_opaque_list_1(%rip), %rax
	movq	(%rax), %rax
	movq	-88(%rbp), %rdx
	movq	%rdx, 8(%rax)
	movq	_TIG_iO_BciZ_1_main_1_opaque_list_1(%rip), %rax
	movq	-88(%rbp), %rdx
	movq	%rdx, (%rax)
	movq	_TIG_iO_BciZ_1_main_1_opaque_list_1(%rip), %rax
	movq	(%rax), %rax
	movq	%rax, _TIG_iO_BciZ_1_main_1_opaque_ptr_1(%rip)
	movq	_TIG_iO_BciZ_1_main_1_opaque_ptr_1(%rip), %rax
	movq	%rax, _TIG_iO_BciZ_1_main_1_opaque_ptr_2(%rip)
	movq	_TIG_iO_BciZ_1_main_1_opaque_ptr_2(%rip), %rax
	movq	(%rax), %rax
	movq	%rax, _TIG_iO_BciZ_1_main_1_opaque_ptr_2(%rip)
	nop
	nop
	leaq	-168(%rbp), %rax
	movq	%rax, %rsi
	leaq	.LC0(%rip), %rax
	movq	%rax, %rdi
	movl	$0, %eax
	call	__isoc99_scanf@PLT
	movl	-168(%rbp), %ecx
	movl	-168(%rbp), %esi
	movq	%rsp, %rax
	movq	%rax, -208(%rbp)
	movslq	%ecx, %rax
	subq	$1, %rax
	movq	%rax, -80(%rbp)
	movslq	%ecx, %rax
	movq	%rax, -256(%rbp)
	movq	$0, -248(%rbp)
	movslq	%ecx, %rax
	leaq	0(,%rax,4), %rbx
	movslq	%esi, %rax
	subq	$1, %rax
	movq	%rax, -72(%rbp)
	movslq	%ecx, %rax
	movq	%rax, -224(%rbp)
	movq	$0, -216(%rbp)
	movslq	%esi, %rax
	movq	%rax, -240(%rbp)
	movq	$0, -232(%rbp)
	movq	-224(%rbp), %r8
	movq	-216(%rbp), %r9
	movq	%r9, %rdx
	movq	-240(%rbp), %r10
	movq	-232(%rbp), %r11
	imulq	%r10, %rdx
	movq	%r11, %rax
	imulq	%r8, %rax
	leaq	(%rdx,%rax), %rdi
	movq	%r8, %rax
	mulq	%r10
	addq	%rdx, %rdi
	movq	%rdi, %rdx
	movslq	%ecx, %rax
	movq	%rax, %r14
	movl	$0, %r15d
	movslq	%esi, %rax
	movq	%rax, %r12
	movl	$0, %r13d
	movq	%r15, %rdx
	imulq	%r12, %rdx
	movq	%r13, %rax
	imulq	%r14, %rax
	leaq	(%rdx,%rax), %rdi
	movq	%r14, %rax
	mulq	%r12
	addq	%rdx, %rdi
	movq	%rdi, %rdx
	movslq	%ecx, %rdx
	movslq	%esi, %rax
	imulq	%rdx, %rax
	leaq	0(,%rax,4), %rdx
	movl	$16, %eax
	subq	$1, %rax
	addq	%rdx, %rax
	movl	$16, %edi
	movl	$0, %edx
	divq	%rdi
	imulq	$16, %rax, %rax
	movq	%rax, %rcx
	andq	$-4096, %rcx
	movq	%rsp, %rdx
	subq	%rcx, %rdx
.L6:
	cmpq	%rdx, %rsp
	je	.L7
	subq	$4096, %rsp
	orq	$0, 4088(%rsp)
	jmp	.L6
.L7:
	movq	%rax, %rdx
	andl	$4095, %edx
	subq	%rdx, %rsp
	movq	%rax, %rdx
	andl	$4095, %edx
	testq	%rdx, %rdx
	je	.L8
	andl	$4095, %eax
	subq	$8, %rax
	addq	%rsp, %rax
	orq	$0, (%rax)
.L8:
	movq	%rsp, %rax
	addq	$3, %rax
	shrq	$2, %rax
	salq	$2, %rax
	movq	%rax, -64(%rbp)
	movl	$0, -164(%rbp)
	jmp	.L9
.L12:
	movl	$0, -160(%rbp)
	jmp	.L10
.L11:
	movq	%rbx, %rdx
	shrq	$2, %rdx
	movl	-160(%rbp), %eax
	movslq	%eax, %rcx
	movl	-164(%rbp), %eax
	cltq
	imulq	%rdx, %rax
	addq	%rcx, %rax
	leaq	0(,%rax,4), %rdx
	movq	-64(%rbp), %rax
	addq	%rdx, %rax
	movq	%rax, %rsi
	leaq	.LC0(%rip), %rax
	movq	%rax, %rdi
	movl	$0, %eax
	call	__isoc99_scanf@PLT
	addl	$1, -160(%rbp)
.L10:
	movl	-168(%rbp), %eax
	cmpl	%eax, -160(%rbp)
	jl	.L11
	addl	$1, -164(%rbp)
.L9:
	movl	-168(%rbp), %eax
	cmpl	%eax, -164(%rbp)
	jl	.L12
	movq	_TIG_iO_BciZ_1_main_1_opaque_ptr_1(%rip), %rdx
	movq	_TIG_iO_BciZ_1_main_1_opaque_ptr_2(%rip), %rax
	cmpq	%rax, %rdx
	jne	.L13
	movq	-192(%rbp), %rdx
	movq	-200(%rbp), %rcx
	movl	-144(%rbp), %eax
	movq	%rcx, %rsi
	movl	%eax, %edi
	call	main
	movl	%eax, -132(%rbp)
.L13:
	movl	$0, -156(%rbp)
	movl	$0, -152(%rbp)
.L37:
	cmpl	$3, -152(%rbp)
	jg	.L40
	cmpl	$0, -156(%rbp)
	jne	.L41
	movl	$1, -148(%rbp)
	movl	$0, -144(%rbp)
.L34:
	cmpl	$0, -148(%rbp)
	je	.L42
	movl	-144(%rbp), %eax
	leal	1(%rax), %edx
	movl	-168(%rbp), %eax
	cmpl	%eax, %edx
	jge	.L43
	movl	$0, -140(%rbp)
.L33:
	cmpl	$0, -148(%rbp)
	je	.L44
	movl	-140(%rbp), %eax
	leal	1(%rax), %edx
	movl	-168(%rbp), %eax
	cmpl	%eax, %edx
	jge	.L45
	cmpl	$0, -152(%rbp)
	je	.L46
	cmpl	$3, -152(%rbp)
	jne	.L47
	jmp	.L24
.L46:
	nop
.L24:
	movq	%rbx, %rcx
	shrq	$2, %rcx
	movq	-64(%rbp), %rax
	movl	-140(%rbp), %edx
	movslq	%edx, %rsi
	movl	-144(%rbp), %edx
	movslq	%edx, %rdx
	imulq	%rcx, %rdx
	addq	%rsi, %rdx
	movl	(%rax,%rdx,4), %edx
	movq	%rbx, %rsi
	shrq	$2, %rsi
	movl	-140(%rbp), %eax
	leal	1(%rax), %ecx
	movq	-64(%rbp), %rax
	movslq	%ecx, %rdi
	movl	-144(%rbp), %ecx
	movslq	%ecx, %rcx
	imulq	%rsi, %rcx
	addq	%rdi, %rcx
	movl	(%rax,%rcx,4), %eax
	cmpl	%eax, %edx
	jle	.L48
	movl	$0, -148(%rbp)
	jmp	.L27
.L47:
	nop
	jmp	.L25
.L48:
	nop
.L25:
	cmpl	$1, -152(%rbp)
	je	.L49
	cmpl	$2, -152(%rbp)
	jne	.L27
	jmp	.L29
.L49:
	nop
.L29:
	movq	%rbx, %rcx
	shrq	$2, %rcx
	movq	-64(%rbp), %rax
	movl	-140(%rbp), %edx
	movslq	%edx, %rsi
	movl	-144(%rbp), %edx
	movslq	%edx, %rdx
	imulq	%rcx, %rdx
	addq	%rsi, %rdx
	movl	(%rax,%rdx,4), %edx
	movq	%rbx, %rsi
	shrq	$2, %rsi
	movl	-140(%rbp), %eax
	leal	1(%rax), %ecx
	movq	-64(%rbp), %rax
	movslq	%ecx, %rdi
	movl	-144(%rbp), %ecx
	movslq	%ecx, %rcx
	imulq	%rsi, %rcx
	addq	%rdi, %rcx
	movl	(%rax,%rcx,4), %eax
	cmpl	%eax, %edx
	jge	.L27
	movl	$0, -148(%rbp)
.L27:
	addl	$1, -140(%rbp)
	cmpl	$1, -152(%rbp)
	jg	.L50
	movq	%rbx, %rcx
	shrq	$2, %rcx
	movq	-64(%rbp), %rax
	movl	-144(%rbp), %edx
	movslq	%edx, %rdx
	imulq	%rcx, %rdx
	movl	(%rax,%rdx,4), %ecx
	movq	%rbx, %rsi
	shrq	$2, %rsi
	movl	-144(%rbp), %eax
	leal	1(%rax), %edx
	movq	-64(%rbp), %rax
	movslq	%edx, %rdx
	imulq	%rsi, %rdx
	movl	(%rax,%rdx,4), %eax
	cmpl	%eax, %ecx
	jle	.L51
	movl	$0, -148(%rbp)
	jmp	.L33
.L50:
	nop
	jmp	.L30
.L51:
	nop
.L30:
	cmpl	$1, -152(%rbp)
	jle	.L33
	movq	%rbx, %rcx
	shrq	$2, %rcx
	movq	-64(%rbp), %rax
	movl	-144(%rbp), %edx
	movslq	%edx, %rdx
	imulq	%rcx, %rdx
	movl	(%rax,%rdx,4), %ecx
	movq	%rbx, %rsi
	shrq	$2, %rsi
	movl	-144(%rbp), %eax
	leal	1(%rax), %edx
	movq	-64(%rbp), %rax
	movslq	%edx, %rdx
	imulq	%rsi, %rdx
	movl	(%rax,%rdx,4), %eax
	cmpl	%eax, %ecx
	jge	.L33
	movl	$0, -148(%rbp)
	jmp	.L33
.L44:
	nop
	jmp	.L22
.L45:
	nop
.L22:
	addl	$1, -144(%rbp)
	jmp	.L34
.L42:
	nop
	jmp	.L19
.L43:
	nop
.L19:
	cmpl	$0, -148(%rbp)
	je	.L35
	movl	$1, -156(%rbp)
	jmp	.L37
.L35:
	addl	$1, -152(%rbp)
	jmp	.L37
.L40:
	nop
	jmp	.L16
.L41:
	nop
.L16:
	movl	-152(%rbp), %eax
	movl	%eax, %esi
	leaq	.LC0(%rip), %rax
	movq	%rax, %rdi
	movl	$0, %eax
	call	printf@PLT
	movl	$0, %eax
	movq	-208(%rbp), %rsp
	movq	-56(%rbp), %rdx
	subq	%fs:40, %rdx
	je	.L39
	call	__stack_chk_fail@PLT
.L39:
	leaq	-40(%rbp), %rsp
	popq	%rbx
	popq	%r12
	popq	%r13
	popq	%r14
	popq	%r15
	popq	%rbp
	.cfi_def_cfa 7, 8
	ret
	.cfi_endproc
.LFE6:
	.size	main, .-main
	.ident	"GCC: (Ubuntu 11.4.0-1ubuntu1~22.04) 11.4.0"
	.section	.note.GNU-stack,"",@progbits
	.section	.note.gnu.property,"a"
	.align 8
	.long	1f - 0f
	.long	4f - 1f
	.long	5
0:
	.string	"GNU"
1:
	.align 8
	.long	0xc0000002
	.long	3f - 2f
2:
	.long	0x3
3:
	.align 8
4:
