	.file	"katekitova_practicum_5_33_opaque.c"
	.text
	.globl	_TIG_iO_eybx_1___uint64_identity_1_opaque_ptr_1
	.bss
	.align 8
	.type	_TIG_iO_eybx_1___uint64_identity_1_opaque_ptr_1, @object
	.size	_TIG_iO_eybx_1___uint64_identity_1_opaque_ptr_1, 8
_TIG_iO_eybx_1___uint64_identity_1_opaque_ptr_1:
	.zero	8
	.globl	_TIG_iO_eybx_1___bswap_16_1_opaque_ptr_1
	.align 8
	.type	_TIG_iO_eybx_1___bswap_16_1_opaque_ptr_1, @object
	.size	_TIG_iO_eybx_1___bswap_16_1_opaque_ptr_1, 8
_TIG_iO_eybx_1___bswap_16_1_opaque_ptr_1:
	.zero	8
	.globl	_TIG_iO_eybx_1___bswap_16_1_opaque_ptr_2
	.align 8
	.type	_TIG_iO_eybx_1___bswap_16_1_opaque_ptr_2, @object
	.size	_TIG_iO_eybx_1___bswap_16_1_opaque_ptr_2, 8
_TIG_iO_eybx_1___bswap_16_1_opaque_ptr_2:
	.zero	8
	.globl	_TIG_iO_eybx_1_f_1_opaque_list_1
	.align 8
	.type	_TIG_iO_eybx_1_f_1_opaque_list_1, @object
	.size	_TIG_iO_eybx_1_f_1_opaque_list_1, 8
_TIG_iO_eybx_1_f_1_opaque_list_1:
	.zero	8
	.globl	_TIG_iO_eybx_1_main_1_opaque_ptr_1
	.align 8
	.type	_TIG_iO_eybx_1_main_1_opaque_ptr_1, @object
	.size	_TIG_iO_eybx_1_main_1_opaque_ptr_1, 8
_TIG_iO_eybx_1_main_1_opaque_ptr_1:
	.zero	8
	.globl	_TIG_iO_eybx_1___uint64_identity_1_opaque_ptr_2
	.align 8
	.type	_TIG_iO_eybx_1___uint64_identity_1_opaque_ptr_2, @object
	.size	_TIG_iO_eybx_1___uint64_identity_1_opaque_ptr_2, 8
_TIG_iO_eybx_1___uint64_identity_1_opaque_ptr_2:
	.zero	8
	.globl	_TIG_iO_eybx_1___uint32_identity_1_opaque_ptr_1
	.align 8
	.type	_TIG_iO_eybx_1___uint32_identity_1_opaque_ptr_1, @object
	.size	_TIG_iO_eybx_1___uint32_identity_1_opaque_ptr_1, 8
_TIG_iO_eybx_1___uint32_identity_1_opaque_ptr_1:
	.zero	8
	.globl	_TIG_iO_eybx_1___uint32_identity_1_opaque_list_1
	.align 8
	.type	_TIG_iO_eybx_1___uint32_identity_1_opaque_list_1, @object
	.size	_TIG_iO_eybx_1___uint32_identity_1_opaque_list_1, 8
_TIG_iO_eybx_1___uint32_identity_1_opaque_list_1:
	.zero	8
	.globl	_TIG_IZ_eybx_envp
	.align 8
	.type	_TIG_IZ_eybx_envp, @object
	.size	_TIG_IZ_eybx_envp, 8
_TIG_IZ_eybx_envp:
	.zero	8
	.globl	_TIG_iO_eybx_1___bswap_32_1_opaque_list_2
	.align 8
	.type	_TIG_iO_eybx_1___bswap_32_1_opaque_list_2, @object
	.size	_TIG_iO_eybx_1___bswap_32_1_opaque_list_2, 8
_TIG_iO_eybx_1___bswap_32_1_opaque_list_2:
	.zero	8
	.globl	_TIG_iO_eybx_1___uint32_identity_1_opaque_list_2
	.align 8
	.type	_TIG_iO_eybx_1___uint32_identity_1_opaque_list_2, @object
	.size	_TIG_iO_eybx_1___uint32_identity_1_opaque_list_2, 8
_TIG_iO_eybx_1___uint32_identity_1_opaque_list_2:
	.zero	8
	.globl	_TIG_iO_eybx_1___bswap_32_1_opaque_ptr_1
	.align 8
	.type	_TIG_iO_eybx_1___bswap_32_1_opaque_ptr_1, @object
	.size	_TIG_iO_eybx_1___bswap_32_1_opaque_ptr_1, 8
_TIG_iO_eybx_1___bswap_32_1_opaque_ptr_1:
	.zero	8
	.globl	_TIG_iO_eybx_1_main_1_opaque_list_1
	.align 8
	.type	_TIG_iO_eybx_1_main_1_opaque_list_1, @object
	.size	_TIG_iO_eybx_1_main_1_opaque_list_1, 8
_TIG_iO_eybx_1_main_1_opaque_list_1:
	.zero	8
	.globl	_TIG_iO_eybx_1_main_1_opaque_list_2
	.align 8
	.type	_TIG_iO_eybx_1_main_1_opaque_list_2, @object
	.size	_TIG_iO_eybx_1_main_1_opaque_list_2, 8
_TIG_iO_eybx_1_main_1_opaque_list_2:
	.zero	8
	.globl	_TIG_iO_eybx_1___uint16_identity_1_opaque_list_1
	.align 8
	.type	_TIG_iO_eybx_1___uint16_identity_1_opaque_list_1, @object
	.size	_TIG_iO_eybx_1___uint16_identity_1_opaque_list_1, 8
_TIG_iO_eybx_1___uint16_identity_1_opaque_list_1:
	.zero	8
	.globl	_TIG_iO_eybx_1_f_1_opaque_list_2
	.align 8
	.type	_TIG_iO_eybx_1_f_1_opaque_list_2, @object
	.size	_TIG_iO_eybx_1_f_1_opaque_list_2, 8
_TIG_iO_eybx_1_f_1_opaque_list_2:
	.zero	8
	.globl	_TIG_iO_eybx_1___bswap_16_1_opaque_list_1
	.align 8
	.type	_TIG_iO_eybx_1___bswap_16_1_opaque_list_1, @object
	.size	_TIG_iO_eybx_1___bswap_16_1_opaque_list_1, 8
_TIG_iO_eybx_1___bswap_16_1_opaque_list_1:
	.zero	8
	.globl	_TIG_iO_eybx_1___uint16_identity_1_opaque_ptr_1
	.align 8
	.type	_TIG_iO_eybx_1___uint16_identity_1_opaque_ptr_1, @object
	.size	_TIG_iO_eybx_1___uint16_identity_1_opaque_ptr_1, 8
_TIG_iO_eybx_1___uint16_identity_1_opaque_ptr_1:
	.zero	8
	.globl	_TIG_iO_eybx_1___uint64_identity_1_opaque_list_1
	.align 8
	.type	_TIG_iO_eybx_1___uint64_identity_1_opaque_list_1, @object
	.size	_TIG_iO_eybx_1___uint64_identity_1_opaque_list_1, 8
_TIG_iO_eybx_1___uint64_identity_1_opaque_list_1:
	.zero	8
	.globl	_TIG_IZ_eybx_argv
	.align 8
	.type	_TIG_IZ_eybx_argv, @object
	.size	_TIG_IZ_eybx_argv, 8
_TIG_IZ_eybx_argv:
	.zero	8
	.globl	_TIG_iO_eybx_1___bswap_32_1_opaque_ptr_2
	.align 8
	.type	_TIG_iO_eybx_1___bswap_32_1_opaque_ptr_2, @object
	.size	_TIG_iO_eybx_1___bswap_32_1_opaque_ptr_2, 8
_TIG_iO_eybx_1___bswap_32_1_opaque_ptr_2:
	.zero	8
	.globl	_TIG_iO_eybx_1___bswap_64_1_opaque_list_2
	.align 8
	.type	_TIG_iO_eybx_1___bswap_64_1_opaque_list_2, @object
	.size	_TIG_iO_eybx_1___bswap_64_1_opaque_list_2, 8
_TIG_iO_eybx_1___bswap_64_1_opaque_list_2:
	.zero	8
	.globl	_TIG_iO_eybx_1_f_1_opaque_ptr_2
	.align 8
	.type	_TIG_iO_eybx_1_f_1_opaque_ptr_2, @object
	.size	_TIG_iO_eybx_1_f_1_opaque_ptr_2, 8
_TIG_iO_eybx_1_f_1_opaque_ptr_2:
	.zero	8
	.globl	_TIG_iO_eybx_1___uint16_identity_1_opaque_ptr_2
	.align 8
	.type	_TIG_iO_eybx_1___uint16_identity_1_opaque_ptr_2, @object
	.size	_TIG_iO_eybx_1___uint16_identity_1_opaque_ptr_2, 8
_TIG_iO_eybx_1___uint16_identity_1_opaque_ptr_2:
	.zero	8
	.globl	_TIG_iO_eybx_1___uint64_identity_1_opaque_list_2
	.align 8
	.type	_TIG_iO_eybx_1___uint64_identity_1_opaque_list_2, @object
	.size	_TIG_iO_eybx_1___uint64_identity_1_opaque_list_2, 8
_TIG_iO_eybx_1___uint64_identity_1_opaque_list_2:
	.zero	8
	.globl	_TIG_iO_eybx_1___bswap_16_1_opaque_list_2
	.align 8
	.type	_TIG_iO_eybx_1___bswap_16_1_opaque_list_2, @object
	.size	_TIG_iO_eybx_1___bswap_16_1_opaque_list_2, 8
_TIG_iO_eybx_1___bswap_16_1_opaque_list_2:
	.zero	8
	.globl	_TIG_iO_eybx_1_main_1_opaque_ptr_2
	.align 8
	.type	_TIG_iO_eybx_1_main_1_opaque_ptr_2, @object
	.size	_TIG_iO_eybx_1_main_1_opaque_ptr_2, 8
_TIG_iO_eybx_1_main_1_opaque_ptr_2:
	.zero	8
	.globl	_TIG_iO_eybx_1_f_1_opaque_ptr_1
	.align 8
	.type	_TIG_iO_eybx_1_f_1_opaque_ptr_1, @object
	.size	_TIG_iO_eybx_1_f_1_opaque_ptr_1, 8
_TIG_iO_eybx_1_f_1_opaque_ptr_1:
	.zero	8
	.globl	_TIG_IZ_eybx_argc
	.align 4
	.type	_TIG_IZ_eybx_argc, @object
	.size	_TIG_IZ_eybx_argc, 4
_TIG_IZ_eybx_argc:
	.zero	4
	.globl	_TIG_iO_eybx_1___bswap_32_1_opaque_list_1
	.align 8
	.type	_TIG_iO_eybx_1___bswap_32_1_opaque_list_1, @object
	.size	_TIG_iO_eybx_1___bswap_32_1_opaque_list_1, 8
_TIG_iO_eybx_1___bswap_32_1_opaque_list_1:
	.zero	8
	.globl	_TIG_iO_eybx_1___uint32_identity_1_opaque_ptr_2
	.align 8
	.type	_TIG_iO_eybx_1___uint32_identity_1_opaque_ptr_2, @object
	.size	_TIG_iO_eybx_1___uint32_identity_1_opaque_ptr_2, 8
_TIG_iO_eybx_1___uint32_identity_1_opaque_ptr_2:
	.zero	8
	.globl	_TIG_iO_eybx_1___bswap_64_1_opaque_ptr_2
	.align 8
	.type	_TIG_iO_eybx_1___bswap_64_1_opaque_ptr_2, @object
	.size	_TIG_iO_eybx_1___bswap_64_1_opaque_ptr_2, 8
_TIG_iO_eybx_1___bswap_64_1_opaque_ptr_2:
	.zero	8
	.globl	_TIG_iO_eybx_1___bswap_64_1_opaque_ptr_1
	.align 8
	.type	_TIG_iO_eybx_1___bswap_64_1_opaque_ptr_1, @object
	.size	_TIG_iO_eybx_1___bswap_64_1_opaque_ptr_1, 8
_TIG_iO_eybx_1___bswap_64_1_opaque_ptr_1:
	.zero	8
	.globl	_TIG_iO_eybx_1___uint16_identity_1_opaque_list_2
	.align 8
	.type	_TIG_iO_eybx_1___uint16_identity_1_opaque_list_2, @object
	.size	_TIG_iO_eybx_1___uint16_identity_1_opaque_list_2, 8
_TIG_iO_eybx_1___uint16_identity_1_opaque_list_2:
	.zero	8
	.globl	_TIG_iO_eybx_1___bswap_64_1_opaque_list_1
	.align 8
	.type	_TIG_iO_eybx_1___bswap_64_1_opaque_list_1, @object
	.size	_TIG_iO_eybx_1___bswap_64_1_opaque_list_1, 8
_TIG_iO_eybx_1___bswap_64_1_opaque_list_1:
	.zero	8
	.text
	.globl	f
	.type	f, @function
f:
.LFB5:
	.cfi_startproc
	endbr64
	pushq	%rbp
	.cfi_def_cfa_offset 16
	.cfi_offset 6, -16
	movq	%rsp, %rbp
	.cfi_def_cfa_register 6
	subq	$1152, %rsp
	movq	%rdi, -1128(%rbp)
	movl	%esi, -1132(%rbp)
	movq	%rdx, -1144(%rbp)
	movq	%rcx, -1152(%rbp)
	movq	%fs:40, %rax
	movq	%rax, -8(%rbp)
	xorl	%eax, %eax
#APP
# 69 "/usr/include/x86_64-linux-gnu/bits/uintn-identity.h" 1
	##_ANNOTATION_INITIALREGION_-TIG-iO-eybx-1-f--14
# 0 "" 2
# 73 "/usr/include/x86_64-linux-gnu/bits/uintn-identity.h" 1
	##_ANNOTATION_ATOMICREGION_-TIG-iO-eybx-1-f--13
# 0 "" 2
#NO_APP
	movl	$24, %edi
	call	malloc@PLT
	movq	%rax, -1080(%rbp)
	movq	-1080(%rbp), %rax
	movq	-1080(%rbp), %rdx
	movq	%rdx, (%rax)
	movq	-1080(%rbp), %rax
	movq	-1080(%rbp), %rdx
	movq	%rdx, 8(%rax)
	movq	-1080(%rbp), %rax
	movq	%rax, _TIG_iO_eybx_1_f_1_opaque_list_1(%rip)
	call	rand@PLT
	movl	%eax, -1096(%rbp)
	movl	$24, %edi
	call	malloc@PLT
	movq	%rax, -1072(%rbp)
	movq	-1072(%rbp), %rax
	movl	$0, 16(%rax)
	movq	_TIG_iO_eybx_1_f_1_opaque_list_1(%rip), %rax
	movq	(%rax), %rdx
	movq	-1072(%rbp), %rax
	movq	%rdx, (%rax)
	movq	_TIG_iO_eybx_1_f_1_opaque_list_1(%rip), %rdx
	movq	-1072(%rbp), %rax
	movq	%rdx, 8(%rax)
	movq	_TIG_iO_eybx_1_f_1_opaque_list_1(%rip), %rax
	movq	(%rax), %rax
	movq	-1072(%rbp), %rdx
	movq	%rdx, 8(%rax)
	movq	_TIG_iO_eybx_1_f_1_opaque_list_1(%rip), %rax
	movq	-1072(%rbp), %rdx
	movq	%rdx, (%rax)
	call	rand@PLT
	movl	%eax, -1092(%rbp)
	movl	$24, %edi
	call	malloc@PLT
	movq	%rax, -1064(%rbp)
	movq	-1064(%rbp), %rax
	movl	-1092(%rbp), %edx
	movl	%edx, 16(%rax)
	movq	_TIG_iO_eybx_1_f_1_opaque_list_1(%rip), %rax
	movq	(%rax), %rdx
	movq	-1064(%rbp), %rax
	movq	%rdx, (%rax)
	movq	_TIG_iO_eybx_1_f_1_opaque_list_1(%rip), %rdx
	movq	-1064(%rbp), %rax
	movq	%rdx, 8(%rax)
	movq	_TIG_iO_eybx_1_f_1_opaque_list_1(%rip), %rax
	movq	(%rax), %rax
	movq	-1064(%rbp), %rdx
	movq	%rdx, 8(%rax)
	movq	_TIG_iO_eybx_1_f_1_opaque_list_1(%rip), %rax
	movq	-1064(%rbp), %rdx
	movq	%rdx, (%rax)
	call	rand@PLT
	movl	%eax, -1088(%rbp)
	movl	$24, %edi
	call	malloc@PLT
	movq	%rax, -1056(%rbp)
	movl	-1088(%rbp), %eax
	leal	(%rax,%rax), %edx
	movq	-1056(%rbp), %rax
	movl	%edx, 16(%rax)
	movq	_TIG_iO_eybx_1_f_1_opaque_list_1(%rip), %rax
	movq	(%rax), %rdx
	movq	-1056(%rbp), %rax
	movq	%rdx, (%rax)
	movq	_TIG_iO_eybx_1_f_1_opaque_list_1(%rip), %rdx
	movq	-1056(%rbp), %rax
	movq	%rdx, 8(%rax)
	movq	_TIG_iO_eybx_1_f_1_opaque_list_1(%rip), %rax
	movq	(%rax), %rax
	movq	-1056(%rbp), %rdx
	movq	%rdx, 8(%rax)
	movq	_TIG_iO_eybx_1_f_1_opaque_list_1(%rip), %rax
	movq	-1056(%rbp), %rdx
	movq	%rdx, (%rax)
	call	rand@PLT
	movl	%eax, -1084(%rbp)
	movl	$24, %edi
	call	malloc@PLT
	movq	%rax, -1048(%rbp)
	movl	-1084(%rbp), %edx
	movl	%edx, %eax
	addl	%eax, %eax
	addl	%eax, %edx
	movq	-1048(%rbp), %rax
	movl	%edx, 16(%rax)
	movq	_TIG_iO_eybx_1_f_1_opaque_list_1(%rip), %rax
	movq	(%rax), %rdx
	movq	-1048(%rbp), %rax
	movq	%rdx, (%rax)
	movq	_TIG_iO_eybx_1_f_1_opaque_list_1(%rip), %rdx
	movq	-1048(%rbp), %rax
	movq	%rdx, 8(%rax)
	movq	_TIG_iO_eybx_1_f_1_opaque_list_1(%rip), %rax
	movq	(%rax), %rax
	movq	-1048(%rbp), %rdx
	movq	%rdx, 8(%rax)
	movq	_TIG_iO_eybx_1_f_1_opaque_list_1(%rip), %rax
	movq	-1048(%rbp), %rdx
	movq	%rdx, (%rax)
	movq	_TIG_iO_eybx_1_f_1_opaque_list_1(%rip), %rax
	movq	(%rax), %rax
	movq	%rax, _TIG_iO_eybx_1_f_1_opaque_ptr_1(%rip)
	movq	_TIG_iO_eybx_1_f_1_opaque_ptr_1(%rip), %rax
	movq	%rax, _TIG_iO_eybx_1_f_1_opaque_ptr_2(%rip)
	movq	_TIG_iO_eybx_1_f_1_opaque_ptr_2(%rip), %rax
	movq	(%rax), %rax
	movq	%rax, _TIG_iO_eybx_1_f_1_opaque_ptr_2(%rip)
	nop
	nop
	movl	$0, -1040(%rbp)
	movl	$1, -1112(%rbp)
	jmp	.L2
.L3:
	movl	-1112(%rbp), %eax
	movl	$0, -1040(%rbp,%rax,4)
	addl	$1, -1112(%rbp)
.L2:
	cmpl	$255, -1112(%rbp)
	jbe	.L3
	movl	-1132(%rbp), %eax
	addl	$1, %eax
	movl	%eax, -1108(%rbp)
	movb	$0, -1113(%rbp)
	movl	$0, -1104(%rbp)
	jmp	.L4
.L8:
	movl	-1104(%rbp), %eax
	movslq	%eax, %rdx
	movq	-1128(%rbp), %rax
	addq	%rdx, %rax
	movzbl	(%rax), %eax
	cmpb	$64, %al
	jle	.L16
	movq	_TIG_iO_eybx_1_main_1_opaque_ptr_1(%rip), %rdx
	movq	_TIG_iO_eybx_1_main_1_opaque_ptr_2(%rip), %rax
	cmpq	%rax, %rdx
	jne	.L6
	movl	-1104(%rbp), %eax
	movslq	%eax, %rdx
	movq	-1128(%rbp), %rax
	addq	%rdx, %rax
	movzbl	(%rax), %eax
	cmpb	$90, %al
	jg	.L17
	movl	-1104(%rbp), %eax
	movslq	%eax, %rdx
	movq	-1128(%rbp), %rax
	addq	%rdx, %rax
	movzbl	(%rax), %eax
	movzbl	%al, %eax
	movslq	%eax, %rdx
	movl	-1040(%rbp,%rdx,4), %edx
	addl	$1, %edx
	cltq
	movl	%edx, -1040(%rbp,%rax,4)
	jmp	.L6
.L16:
	nop
	jmp	.L5
.L17:
	nop
.L5:
	movl	-1104(%rbp), %eax
	movslq	%eax, %rdx
	movq	-1128(%rbp), %rax
	addq	%rdx, %rax
	movzbl	(%rax), %eax
	cmpb	$96, %al
	jle	.L6
	movl	-1104(%rbp), %eax
	movslq	%eax, %rdx
	movq	-1128(%rbp), %rax
	addq	%rdx, %rax
	movzbl	(%rax), %eax
	cmpb	$122, %al
	jg	.L6
	movl	-1104(%rbp), %eax
	movslq	%eax, %rdx
	movq	-1128(%rbp), %rax
	addq	%rdx, %rax
	movzbl	(%rax), %eax
	movzbl	%al, %eax
	movslq	%eax, %rdx
	movl	-1040(%rbp,%rdx,4), %edx
	addl	$1, %edx
	cltq
	movl	%edx, -1040(%rbp,%rax,4)
.L6:
	addl	$1, -1104(%rbp)
.L4:
	movl	-1104(%rbp), %eax
	cmpl	-1132(%rbp), %eax
	jl	.L8
	movl	$0, -1100(%rbp)
	jmp	.L9
.L13:
	movl	-1100(%rbp), %eax
	cltq
	movl	-1040(%rbp,%rax,4), %eax
	testl	%eax, %eax
	jle	.L18
	movl	-1100(%rbp), %eax
	cltq
	movl	-1040(%rbp,%rax,4), %eax
	cmpl	%eax, -1108(%rbp)
	jle	.L19
	movl	-1100(%rbp), %eax
	cltq
	movl	-1040(%rbp,%rax,4), %eax
	movl	%eax, -1108(%rbp)
	movl	-1100(%rbp), %eax
	movb	%al, -1113(%rbp)
	jmp	.L12
.L18:
	nop
	jmp	.L10
.L19:
	nop
.L10:
	movl	-1100(%rbp), %eax
	cltq
	movl	-1040(%rbp,%rax,4), %eax
	cmpl	%eax, -1108(%rbp)
	jne	.L12
	movl	-1100(%rbp), %eax
	cmpb	%al, -1113(%rbp)
	jle	.L12
	movl	-1100(%rbp), %eax
	movb	%al, -1113(%rbp)
.L12:
	addl	$1, -1100(%rbp)
.L9:
	cmpl	$255, -1100(%rbp)
	jle	.L13
	movq	-1144(%rbp), %rax
	movzbl	-1113(%rbp), %edx
	movb	%dl, (%rax)
	movq	-1152(%rbp), %rax
	movl	-1108(%rbp), %edx
	movl	%edx, (%rax)
	nop
	movq	-8(%rbp), %rax
	subq	%fs:40, %rax
	je	.L15
	call	__stack_chk_fail@PLT
.L15:
	leave
	.cfi_def_cfa 7, 8
	ret
	.cfi_endproc
.LFE5:
	.size	f, .-f
	.section	.rodata
.LC0:
	.string	"'%c': %d\n"
.LC1:
	.string	"error "
	.text
	.globl	main
	.type	main, @function
main:
.LFB7:
	.cfi_startproc
	endbr64
	pushq	%rbp
	.cfi_def_cfa_offset 16
	.cfi_offset 6, -16
	movq	%rsp, %rbp
	.cfi_def_cfa_register 6
	subq	$112, %rsp
	movl	%edi, -84(%rbp)
	movq	%rsi, -96(%rbp)
	movq	%rdx, -104(%rbp)
	movq	%fs:40, %rax
	movq	%rax, -8(%rbp)
	xorl	%eax, %eax
	movq	$0, _TIG_IZ_eybx_envp(%rip)
	nop
.L21:
	movq	$0, _TIG_IZ_eybx_argv(%rip)
	nop
.L22:
	movl	$0, _TIG_IZ_eybx_argc(%rip)
	nop
	nop
.L23:
.L24:
#APP
# 85 "/usr/include/x86_64-linux-gnu/bits/uintn-identity.h" 1
	##_ANNOTATION_INITIALREGION_-TIG-IZ-eybx--0
# 0 "" 2
#NO_APP
	movl	-84(%rbp), %eax
	movl	%eax, _TIG_IZ_eybx_argc(%rip)
	movq	-96(%rbp), %rax
	movq	%rax, _TIG_IZ_eybx_argv(%rip)
	movq	-104(%rbp), %rax
	movq	%rax, _TIG_IZ_eybx_envp(%rip)
#APP
# 92 "/usr/include/x86_64-linux-gnu/bits/uintn-identity.h" 1
	##_ANNOTATION_ATOMICREGION_-TIG-iO-eybx-1-main--15
# 0 "" 2
#NO_APP
	movl	$24, %edi
	call	malloc@PLT
	movq	%rax, -64(%rbp)
	movq	-64(%rbp), %rax
	movq	-64(%rbp), %rdx
	movq	%rdx, 16(%rax)
	movq	-64(%rbp), %rax
	movq	-64(%rbp), %rdx
	movq	%rdx, 8(%rax)
	movq	-64(%rbp), %rax
	movq	%rax, _TIG_iO_eybx_1_main_1_opaque_list_1(%rip)
	call	rand@PLT
	movl	%eax, -72(%rbp)
	movl	$24, %edi
	call	malloc@PLT
	movq	%rax, -56(%rbp)
	movq	-56(%rbp), %rax
	movl	$0, (%rax)
	movq	_TIG_iO_eybx_1_main_1_opaque_list_1(%rip), %rax
	movq	16(%rax), %rdx
	movq	-56(%rbp), %rax
	movq	%rdx, 16(%rax)
	movq	_TIG_iO_eybx_1_main_1_opaque_list_1(%rip), %rdx
	movq	-56(%rbp), %rax
	movq	%rdx, 8(%rax)
	movq	_TIG_iO_eybx_1_main_1_opaque_list_1(%rip), %rax
	movq	16(%rax), %rax
	movq	-56(%rbp), %rdx
	movq	%rdx, 8(%rax)
	movq	_TIG_iO_eybx_1_main_1_opaque_list_1(%rip), %rax
	movq	-56(%rbp), %rdx
	movq	%rdx, 16(%rax)
	call	rand@PLT
	movl	%eax, -68(%rbp)
	movl	$24, %edi
	call	malloc@PLT
	movq	%rax, -48(%rbp)
	movq	-48(%rbp), %rax
	movl	-68(%rbp), %edx
	movl	%edx, (%rax)
	movq	_TIG_iO_eybx_1_main_1_opaque_list_1(%rip), %rax
	movq	16(%rax), %rdx
	movq	-48(%rbp), %rax
	movq	%rdx, 16(%rax)
	movq	_TIG_iO_eybx_1_main_1_opaque_list_1(%rip), %rdx
	movq	-48(%rbp), %rax
	movq	%rdx, 8(%rax)
	movq	_TIG_iO_eybx_1_main_1_opaque_list_1(%rip), %rax
	movq	16(%rax), %rax
	movq	-48(%rbp), %rdx
	movq	%rdx, 8(%rax)
	movq	_TIG_iO_eybx_1_main_1_opaque_list_1(%rip), %rax
	movq	-48(%rbp), %rdx
	movq	%rdx, 16(%rax)
	movq	_TIG_iO_eybx_1_main_1_opaque_list_1(%rip), %rax
	movq	16(%rax), %rax
	movq	%rax, _TIG_iO_eybx_1_main_1_opaque_ptr_1(%rip)
	movq	_TIG_iO_eybx_1_main_1_opaque_ptr_1(%rip), %rax
	movq	%rax, _TIG_iO_eybx_1_main_1_opaque_ptr_2(%rip)
	nop
	nop
	movb	$97, -18(%rbp)
	movb	$97, -17(%rbp)
	movb	$97, -16(%rbp)
	movb	$97, -15(%rbp)
	movb	$97, -14(%rbp)
	movb	$99, -13(%rbp)
	movb	$99, -12(%rbp)
	movb	$98, -11(%rbp)
	movb	$98, -10(%rbp)
	movb	$0, -9(%rbp)
	leaq	-18(%rbp), %rax
	movq	%rax, %rdi
	call	strlen@PLT
	movq	%rax, -40(%rbp)
	movq	-40(%rbp), %rax
	movq	%rax, -32(%rbp)
	movq	-32(%rbp), %rax
	movl	%eax, %esi
	leaq	-76(%rbp), %rcx
	leaq	-77(%rbp), %rdx
	leaq	-18(%rbp), %rax
	movq	%rax, %rdi
	call	f
	movq	_TIG_iO_eybx_1_main_1_opaque_ptr_1(%rip), %rdx
	movq	_TIG_iO_eybx_1_main_1_opaque_ptr_2(%rip), %rax
	cmpq	%rax, %rdx
	jne	.L25
	movzbl	-77(%rbp), %eax
	testb	%al, %al
	je	.L26
	movl	-76(%rbp), %edx
	movzbl	-77(%rbp), %eax
	movsbl	%al, %eax
	movl	%eax, %esi
	leaq	.LC0(%rip), %rax
	movq	%rax, %rdi
	movl	$0, %eax
	call	printf@PLT
	jmp	.L27
.L26:
	leaq	.LC1(%rip), %rax
	movq	%rax, %rdi
	call	puts@PLT
	jmp	.L27
.L25:
#APP
# 56 "katekitova_practicum_5_33.c" 1
	.byte 0x44,0x89,0xe0,0xe9,0xf0,0xfe
# 0 "" 2
#NO_APP
.L27:
	movl	$0, %eax
	movq	-8(%rbp), %rdx
	subq	%fs:40, %rdx
	je	.L29
	call	__stack_chk_fail@PLT
.L29:
	leave
	.cfi_def_cfa 7, 8
	ret
	.cfi_endproc
.LFE7:
	.size	main, .-main
	.ident	"GCC: (Ubuntu 11.4.0-1ubuntu1~22.04) 11.4.0"
	.section	.note.GNU-stack,"",@progbits
	.section	.note.gnu.property,"a"
	.align 8
	.long	1f - 0f
	.long	4f - 1f
	.long	5
0:
	.string	"GNU"
1:
	.align 8
	.long	0xc0000002
	.long	3f - 2f
2:
	.long	0x3
3:
	.align 8
4:
