	.file	"Kawser-nerd_CLCDSA_20_opaque.c"
	.text
	.globl	_TIG_iO_E7c3_1___uint32_identity_1_opaque_ptr_1
	.bss
	.align 8
	.type	_TIG_iO_E7c3_1___uint32_identity_1_opaque_ptr_1, @object
	.size	_TIG_iO_E7c3_1___uint32_identity_1_opaque_ptr_1, 8
_TIG_iO_E7c3_1___uint32_identity_1_opaque_ptr_1:
	.zero	8
	.globl	_TIG_iO_E7c3_1_doit_1_opaque_ptr_2
	.align 8
	.type	_TIG_iO_E7c3_1_doit_1_opaque_ptr_2, @object
	.size	_TIG_iO_E7c3_1_doit_1_opaque_ptr_2, 8
_TIG_iO_E7c3_1_doit_1_opaque_ptr_2:
	.zero	8
	.globl	_TIG_iO_E7c3_1___uint32_identity_1_opaque_list_2
	.align 8
	.type	_TIG_iO_E7c3_1___uint32_identity_1_opaque_list_2, @object
	.size	_TIG_iO_E7c3_1___uint32_identity_1_opaque_list_2, 8
_TIG_iO_E7c3_1___uint32_identity_1_opaque_list_2:
	.zero	8
	.globl	_TIG_iO_E7c3_1_main_1_opaque_list_2
	.align 8
	.type	_TIG_iO_E7c3_1_main_1_opaque_list_2, @object
	.size	_TIG_iO_E7c3_1_main_1_opaque_list_2, 8
_TIG_iO_E7c3_1_main_1_opaque_list_2:
	.zero	8
	.globl	_TIG_IZ_E7c3_argv
	.align 8
	.type	_TIG_IZ_E7c3_argv, @object
	.size	_TIG_IZ_E7c3_argv, 8
_TIG_IZ_E7c3_argv:
	.zero	8
	.globl	_TIG_IZ_E7c3_argc
	.align 4
	.type	_TIG_IZ_E7c3_argc, @object
	.size	_TIG_IZ_E7c3_argc, 4
_TIG_IZ_E7c3_argc:
	.zero	4
	.globl	_TIG_iO_E7c3_1___bswap_16_1_opaque_list_2
	.align 8
	.type	_TIG_iO_E7c3_1___bswap_16_1_opaque_list_2, @object
	.size	_TIG_iO_E7c3_1___bswap_16_1_opaque_list_2, 8
_TIG_iO_E7c3_1___bswap_16_1_opaque_list_2:
	.zero	8
	.globl	_TIG_iO_E7c3_1_doit_1_opaque_list_1
	.align 8
	.type	_TIG_iO_E7c3_1_doit_1_opaque_list_1, @object
	.size	_TIG_iO_E7c3_1_doit_1_opaque_list_1, 8
_TIG_iO_E7c3_1_doit_1_opaque_list_1:
	.zero	8
	.globl	_TIG_iO_E7c3_1___bswap_64_1_opaque_list_2
	.align 8
	.type	_TIG_iO_E7c3_1___bswap_64_1_opaque_list_2, @object
	.size	_TIG_iO_E7c3_1___bswap_64_1_opaque_list_2, 8
_TIG_iO_E7c3_1___bswap_64_1_opaque_list_2:
	.zero	8
	.globl	_TIG_iO_E7c3_1___bswap_32_1_opaque_ptr_2
	.align 8
	.type	_TIG_iO_E7c3_1___bswap_32_1_opaque_ptr_2, @object
	.size	_TIG_iO_E7c3_1___bswap_32_1_opaque_ptr_2, 8
_TIG_iO_E7c3_1___bswap_32_1_opaque_ptr_2:
	.zero	8
	.globl	_TIG_iO_E7c3_1___bswap_32_1_opaque_list_2
	.align 8
	.type	_TIG_iO_E7c3_1___bswap_32_1_opaque_list_2, @object
	.size	_TIG_iO_E7c3_1___bswap_32_1_opaque_list_2, 8
_TIG_iO_E7c3_1___bswap_32_1_opaque_list_2:
	.zero	8
	.globl	_TIG_iO_E7c3_1___uint64_identity_1_opaque_list_1
	.align 8
	.type	_TIG_iO_E7c3_1___uint64_identity_1_opaque_list_1, @object
	.size	_TIG_iO_E7c3_1___uint64_identity_1_opaque_list_1, 8
_TIG_iO_E7c3_1___uint64_identity_1_opaque_list_1:
	.zero	8
	.globl	_TIG_iO_E7c3_1___bswap_32_1_opaque_list_1
	.align 8
	.type	_TIG_iO_E7c3_1___bswap_32_1_opaque_list_1, @object
	.size	_TIG_iO_E7c3_1___bswap_32_1_opaque_list_1, 8
_TIG_iO_E7c3_1___bswap_32_1_opaque_list_1:
	.zero	8
	.globl	_TIG_iO_E7c3_1___uint16_identity_1_opaque_ptr_1
	.align 8
	.type	_TIG_iO_E7c3_1___uint16_identity_1_opaque_ptr_1, @object
	.size	_TIG_iO_E7c3_1___uint16_identity_1_opaque_ptr_1, 8
_TIG_iO_E7c3_1___uint16_identity_1_opaque_ptr_1:
	.zero	8
	.globl	_TIG_iO_E7c3_1___uint64_identity_1_opaque_list_2
	.align 8
	.type	_TIG_iO_E7c3_1___uint64_identity_1_opaque_list_2, @object
	.size	_TIG_iO_E7c3_1___uint64_identity_1_opaque_list_2, 8
_TIG_iO_E7c3_1___uint64_identity_1_opaque_list_2:
	.zero	8
	.globl	_TIG_iO_E7c3_1_doit_1_opaque_list_2
	.align 8
	.type	_TIG_iO_E7c3_1_doit_1_opaque_list_2, @object
	.size	_TIG_iO_E7c3_1_doit_1_opaque_list_2, 8
_TIG_iO_E7c3_1_doit_1_opaque_list_2:
	.zero	8
	.globl	_TIG_iO_E7c3_1___uint32_identity_1_opaque_ptr_2
	.align 8
	.type	_TIG_iO_E7c3_1___uint32_identity_1_opaque_ptr_2, @object
	.size	_TIG_iO_E7c3_1___uint32_identity_1_opaque_ptr_2, 8
_TIG_iO_E7c3_1___uint32_identity_1_opaque_ptr_2:
	.zero	8
	.globl	_TIG_iO_E7c3_1___uint64_identity_1_opaque_ptr_2
	.align 8
	.type	_TIG_iO_E7c3_1___uint64_identity_1_opaque_ptr_2, @object
	.size	_TIG_iO_E7c3_1___uint64_identity_1_opaque_ptr_2, 8
_TIG_iO_E7c3_1___uint64_identity_1_opaque_ptr_2:
	.zero	8
	.globl	_TIG_iO_E7c3_1___bswap_16_1_opaque_ptr_1
	.align 8
	.type	_TIG_iO_E7c3_1___bswap_16_1_opaque_ptr_1, @object
	.size	_TIG_iO_E7c3_1___bswap_16_1_opaque_ptr_1, 8
_TIG_iO_E7c3_1___bswap_16_1_opaque_ptr_1:
	.zero	8
	.globl	_TIG_iO_E7c3_1_main_1_opaque_ptr_1
	.align 8
	.type	_TIG_iO_E7c3_1_main_1_opaque_ptr_1, @object
	.size	_TIG_iO_E7c3_1_main_1_opaque_ptr_1, 8
_TIG_iO_E7c3_1_main_1_opaque_ptr_1:
	.zero	8
	.globl	_TIG_iO_E7c3_1___bswap_16_1_opaque_list_1
	.align 8
	.type	_TIG_iO_E7c3_1___bswap_16_1_opaque_list_1, @object
	.size	_TIG_iO_E7c3_1___bswap_16_1_opaque_list_1, 8
_TIG_iO_E7c3_1___bswap_16_1_opaque_list_1:
	.zero	8
	.globl	_TIG_IZ_E7c3_envp
	.align 8
	.type	_TIG_IZ_E7c3_envp, @object
	.size	_TIG_IZ_E7c3_envp, 8
_TIG_IZ_E7c3_envp:
	.zero	8
	.globl	_TIG_iO_E7c3_1_doit_1_opaque_ptr_1
	.align 8
	.type	_TIG_iO_E7c3_1_doit_1_opaque_ptr_1, @object
	.size	_TIG_iO_E7c3_1_doit_1_opaque_ptr_1, 8
_TIG_iO_E7c3_1_doit_1_opaque_ptr_1:
	.zero	8
	.globl	_TIG_iO_E7c3_1___bswap_64_1_opaque_ptr_1
	.align 8
	.type	_TIG_iO_E7c3_1___bswap_64_1_opaque_ptr_1, @object
	.size	_TIG_iO_E7c3_1___bswap_64_1_opaque_ptr_1, 8
_TIG_iO_E7c3_1___bswap_64_1_opaque_ptr_1:
	.zero	8
	.globl	_TIG_iO_E7c3_1___bswap_64_1_opaque_list_1
	.align 8
	.type	_TIG_iO_E7c3_1___bswap_64_1_opaque_list_1, @object
	.size	_TIG_iO_E7c3_1___bswap_64_1_opaque_list_1, 8
_TIG_iO_E7c3_1___bswap_64_1_opaque_list_1:
	.zero	8
	.globl	_TIG_iO_E7c3_1___uint16_identity_1_opaque_list_2
	.align 8
	.type	_TIG_iO_E7c3_1___uint16_identity_1_opaque_list_2, @object
	.size	_TIG_iO_E7c3_1___uint16_identity_1_opaque_list_2, 8
_TIG_iO_E7c3_1___uint16_identity_1_opaque_list_2:
	.zero	8
	.globl	_TIG_iO_E7c3_1_main_1_opaque_list_1
	.align 8
	.type	_TIG_iO_E7c3_1_main_1_opaque_list_1, @object
	.size	_TIG_iO_E7c3_1_main_1_opaque_list_1, 8
_TIG_iO_E7c3_1_main_1_opaque_list_1:
	.zero	8
	.globl	_TIG_iO_E7c3_1___uint16_identity_1_opaque_list_1
	.align 8
	.type	_TIG_iO_E7c3_1___uint16_identity_1_opaque_list_1, @object
	.size	_TIG_iO_E7c3_1___uint16_identity_1_opaque_list_1, 8
_TIG_iO_E7c3_1___uint16_identity_1_opaque_list_1:
	.zero	8
	.globl	_TIG_iO_E7c3_1___uint64_identity_1_opaque_ptr_1
	.align 8
	.type	_TIG_iO_E7c3_1___uint64_identity_1_opaque_ptr_1, @object
	.size	_TIG_iO_E7c3_1___uint64_identity_1_opaque_ptr_1, 8
_TIG_iO_E7c3_1___uint64_identity_1_opaque_ptr_1:
	.zero	8
	.globl	_TIG_iO_E7c3_1_main_1_opaque_ptr_2
	.align 8
	.type	_TIG_iO_E7c3_1_main_1_opaque_ptr_2, @object
	.size	_TIG_iO_E7c3_1_main_1_opaque_ptr_2, 8
_TIG_iO_E7c3_1_main_1_opaque_ptr_2:
	.zero	8
	.globl	_TIG_iO_E7c3_1___bswap_64_1_opaque_ptr_2
	.align 8
	.type	_TIG_iO_E7c3_1___bswap_64_1_opaque_ptr_2, @object
	.size	_TIG_iO_E7c3_1___bswap_64_1_opaque_ptr_2, 8
_TIG_iO_E7c3_1___bswap_64_1_opaque_ptr_2:
	.zero	8
	.globl	_TIG_iO_E7c3_1___uint32_identity_1_opaque_list_1
	.align 8
	.type	_TIG_iO_E7c3_1___uint32_identity_1_opaque_list_1, @object
	.size	_TIG_iO_E7c3_1___uint32_identity_1_opaque_list_1, 8
_TIG_iO_E7c3_1___uint32_identity_1_opaque_list_1:
	.zero	8
	.globl	_TIG_iO_E7c3_1___bswap_16_1_opaque_ptr_2
	.align 8
	.type	_TIG_iO_E7c3_1___bswap_16_1_opaque_ptr_2, @object
	.size	_TIG_iO_E7c3_1___bswap_16_1_opaque_ptr_2, 8
_TIG_iO_E7c3_1___bswap_16_1_opaque_ptr_2:
	.zero	8
	.globl	_TIG_iO_E7c3_1___uint16_identity_1_opaque_ptr_2
	.align 8
	.type	_TIG_iO_E7c3_1___uint16_identity_1_opaque_ptr_2, @object
	.size	_TIG_iO_E7c3_1___uint16_identity_1_opaque_ptr_2, 8
_TIG_iO_E7c3_1___uint16_identity_1_opaque_ptr_2:
	.zero	8
	.globl	_TIG_iO_E7c3_1___bswap_32_1_opaque_ptr_1
	.align 8
	.type	_TIG_iO_E7c3_1___bswap_32_1_opaque_ptr_1, @object
	.size	_TIG_iO_E7c3_1___bswap_32_1_opaque_ptr_1, 8
_TIG_iO_E7c3_1___bswap_32_1_opaque_ptr_1:
	.zero	8
	.section	.rodata
.LC0:
	.string	"%u"
	.text
	.globl	main
	.type	main, @function
main:
.LFB0:
	.cfi_startproc
	endbr64
	pushq	%rbp
	.cfi_def_cfa_offset 16
	.cfi_offset 6, -16
	movq	%rsp, %rbp
	.cfi_def_cfa_register 6
	subq	$80, %rsp
	movl	%edi, -52(%rbp)
	movq	%rsi, -64(%rbp)
	movq	%rdx, -72(%rbp)
	movq	%fs:40, %rax
	movq	%rax, -8(%rbp)
	xorl	%eax, %eax
	movq	$0, _TIG_IZ_E7c3_envp(%rip)
	nop
.L2:
	movq	$0, _TIG_IZ_E7c3_argv(%rip)
	nop
.L3:
	movl	$0, _TIG_IZ_E7c3_argc(%rip)
	nop
	nop
.L4:
.L5:
#APP
# 105 "/usr/include/stdlib.h" 1
	##_ANNOTATION_INITIALREGION_-TIG-IZ-E7c3--0
# 0 "" 2
#NO_APP
	movl	-52(%rbp), %eax
	movl	%eax, _TIG_IZ_E7c3_argc(%rip)
	movq	-64(%rbp), %rax
	movq	%rax, _TIG_IZ_E7c3_argv(%rip)
	movq	-72(%rbp), %rax
	movq	%rax, _TIG_IZ_E7c3_envp(%rip)
#APP
# 112 "/usr/include/stdlib.h" 1
	##_ANNOTATION_ATOMICREGION_-TIG-iO-E7c3-1-main--15
# 0 "" 2
#NO_APP
	movl	$24, %edi
	call	malloc@PLT
	movq	%rax, -32(%rbp)
	movq	-32(%rbp), %rax
	movq	-32(%rbp), %rdx
	movq	%rdx, 16(%rax)
	movq	-32(%rbp), %rax
	movq	-32(%rbp), %rdx
	movq	%rdx, 8(%rax)
	movq	-32(%rbp), %rax
	movq	%rax, _TIG_iO_E7c3_1_main_1_opaque_list_1(%rip)
	call	rand@PLT
	movl	%eax, -40(%rbp)
	movl	$24, %edi
	call	malloc@PLT
	movq	%rax, -24(%rbp)
	movq	-24(%rbp), %rax
	movl	$0, (%rax)
	movq	_TIG_iO_E7c3_1_main_1_opaque_list_1(%rip), %rax
	movq	16(%rax), %rdx
	movq	-24(%rbp), %rax
	movq	%rdx, 16(%rax)
	movq	_TIG_iO_E7c3_1_main_1_opaque_list_1(%rip), %rdx
	movq	-24(%rbp), %rax
	movq	%rdx, 8(%rax)
	movq	_TIG_iO_E7c3_1_main_1_opaque_list_1(%rip), %rax
	movq	16(%rax), %rax
	movq	-24(%rbp), %rdx
	movq	%rdx, 8(%rax)
	movq	_TIG_iO_E7c3_1_main_1_opaque_list_1(%rip), %rax
	movq	-24(%rbp), %rdx
	movq	%rdx, 16(%rax)
	call	rand@PLT
	movl	%eax, -36(%rbp)
	movl	$24, %edi
	call	malloc@PLT
	movq	%rax, -16(%rbp)
	movq	-16(%rbp), %rax
	movl	-36(%rbp), %edx
	movl	%edx, (%rax)
	movq	_TIG_iO_E7c3_1_main_1_opaque_list_1(%rip), %rax
	movq	16(%rax), %rdx
	movq	-16(%rbp), %rax
	movq	%rdx, 16(%rax)
	movq	_TIG_iO_E7c3_1_main_1_opaque_list_1(%rip), %rdx
	movq	-16(%rbp), %rax
	movq	%rdx, 8(%rax)
	movq	_TIG_iO_E7c3_1_main_1_opaque_list_1(%rip), %rax
	movq	16(%rax), %rax
	movq	-16(%rbp), %rdx
	movq	%rdx, 8(%rax)
	movq	_TIG_iO_E7c3_1_main_1_opaque_list_1(%rip), %rax
	movq	-16(%rbp), %rdx
	movq	%rdx, 16(%rax)
	movq	_TIG_iO_E7c3_1_main_1_opaque_list_1(%rip), %rax
	movq	16(%rax), %rax
	movq	%rax, _TIG_iO_E7c3_1_main_1_opaque_ptr_1(%rip)
	movq	_TIG_iO_E7c3_1_main_1_opaque_ptr_1(%rip), %rax
	movq	%rax, _TIG_iO_E7c3_1_main_1_opaque_ptr_2(%rip)
	nop
	nop
	leaq	-48(%rbp), %rax
	movq	%rax, %rsi
	leaq	.LC0(%rip), %rax
	movq	%rax, %rdi
	movl	$0, %eax
	call	__isoc99_scanf@PLT
	movl	$1, -44(%rbp)
	jmp	.L6
.L8:
	movq	_TIG_iO_E7c3_1_main_1_opaque_ptr_1(%rip), %rdx
	movq	_TIG_iO_E7c3_1_main_1_opaque_ptr_2(%rip), %rax
	cmpq	%rax, %rdx
	jne	.L7
	movl	-44(%rbp), %eax
	movl	%eax, %edi
	call	doit
	addl	$1, -44(%rbp)
	jmp	.L6
.L7:
#APP
# 24 "Kawser-nerd_CLCDSA_20.c" 1
	.byte 0x45,0x2f,0x8e,0xec,0xd0,0xba,0xf2,0x6e
# 0 "" 2
#NO_APP
.L6:
	movl	-48(%rbp), %eax
	cmpl	%eax, -44(%rbp)
	jbe	.L8
	movl	$0, %eax
	movq	-8(%rbp), %rdx
	subq	%fs:40, %rdx
	je	.L10
	call	__stack_chk_fail@PLT
.L10:
	leave
	.cfi_def_cfa 7, 8
	ret
	.cfi_endproc
.LFE0:
	.size	main, .-main
	.section	.rodata
.LC1:
	.string	"%u %u"
.LC2:
	.string	"Case #%u: ON\n"
.LC3:
	.string	"Case #%u: OFF\n"
	.text
	.globl	doit
	.type	doit, @function
doit:
.LFB4:
	.cfi_startproc
	endbr64
	pushq	%rbp
	.cfi_def_cfa_offset 16
	.cfi_offset 6, -16
	movq	%rsp, %rbp
	.cfi_def_cfa_register 6
	subq	$96, %rsp
	movl	%edi, -84(%rbp)
	movq	%fs:40, %rax
	movq	%rax, -8(%rbp)
	xorl	%eax, %eax
#APP
# 62 "/usr/include/x86_64-linux-gnu/bits/byteswap.h" 1
	##_ANNOTATION_INITIALREGION_-TIG-iO-E7c3-1-doit--14
# 0 "" 2
# 66 "/usr/include/x86_64-linux-gnu/bits/byteswap.h" 1
	##_ANNOTATION_ATOMICREGION_-TIG-iO-E7c3-1-doit--13
# 0 "" 2
#NO_APP
	movl	$24, %edi
	call	malloc@PLT
	movq	%rax, -48(%rbp)
	movq	-48(%rbp), %rax
	movq	-48(%rbp), %rdx
	movq	%rdx, (%rax)
	movq	-48(%rbp), %rax
	movq	-48(%rbp), %rdx
	movq	%rdx, 8(%rax)
	movq	-48(%rbp), %rax
	movq	%rax, _TIG_iO_E7c3_1_doit_1_opaque_list_1(%rip)
	call	rand@PLT
	movl	%eax, -68(%rbp)
	movl	$24, %edi
	call	malloc@PLT
	movq	%rax, -40(%rbp)
	movq	-40(%rbp), %rax
	movl	$0, 16(%rax)
	movq	_TIG_iO_E7c3_1_doit_1_opaque_list_1(%rip), %rax
	movq	(%rax), %rdx
	movq	-40(%rbp), %rax
	movq	%rdx, (%rax)
	movq	_TIG_iO_E7c3_1_doit_1_opaque_list_1(%rip), %rdx
	movq	-40(%rbp), %rax
	movq	%rdx, 8(%rax)
	movq	_TIG_iO_E7c3_1_doit_1_opaque_list_1(%rip), %rax
	movq	(%rax), %rax
	movq	-40(%rbp), %rdx
	movq	%rdx, 8(%rax)
	movq	_TIG_iO_E7c3_1_doit_1_opaque_list_1(%rip), %rax
	movq	-40(%rbp), %rdx
	movq	%rdx, (%rax)
	call	rand@PLT
	movl	%eax, -64(%rbp)
	movl	$24, %edi
	call	malloc@PLT
	movq	%rax, -32(%rbp)
	movq	-32(%rbp), %rax
	movl	-64(%rbp), %edx
	movl	%edx, 16(%rax)
	movq	_TIG_iO_E7c3_1_doit_1_opaque_list_1(%rip), %rax
	movq	(%rax), %rdx
	movq	-32(%rbp), %rax
	movq	%rdx, (%rax)
	movq	_TIG_iO_E7c3_1_doit_1_opaque_list_1(%rip), %rdx
	movq	-32(%rbp), %rax
	movq	%rdx, 8(%rax)
	movq	_TIG_iO_E7c3_1_doit_1_opaque_list_1(%rip), %rax
	movq	(%rax), %rax
	movq	-32(%rbp), %rdx
	movq	%rdx, 8(%rax)
	movq	_TIG_iO_E7c3_1_doit_1_opaque_list_1(%rip), %rax
	movq	-32(%rbp), %rdx
	movq	%rdx, (%rax)
	call	rand@PLT
	movl	%eax, -60(%rbp)
	movl	$24, %edi
	call	malloc@PLT
	movq	%rax, -24(%rbp)
	movl	-60(%rbp), %eax
	leal	(%rax,%rax), %edx
	movq	-24(%rbp), %rax
	movl	%edx, 16(%rax)
	movq	_TIG_iO_E7c3_1_doit_1_opaque_list_1(%rip), %rax
	movq	(%rax), %rdx
	movq	-24(%rbp), %rax
	movq	%rdx, (%rax)
	movq	_TIG_iO_E7c3_1_doit_1_opaque_list_1(%rip), %rdx
	movq	-24(%rbp), %rax
	movq	%rdx, 8(%rax)
	movq	_TIG_iO_E7c3_1_doit_1_opaque_list_1(%rip), %rax
	movq	(%rax), %rax
	movq	-24(%rbp), %rdx
	movq	%rdx, 8(%rax)
	movq	_TIG_iO_E7c3_1_doit_1_opaque_list_1(%rip), %rax
	movq	-24(%rbp), %rdx
	movq	%rdx, (%rax)
	call	rand@PLT
	movl	%eax, -56(%rbp)
	movl	$24, %edi
	call	malloc@PLT
	movq	%rax, -16(%rbp)
	movl	-56(%rbp), %edx
	movl	%edx, %eax
	addl	%eax, %eax
	addl	%eax, %edx
	movq	-16(%rbp), %rax
	movl	%edx, 16(%rax)
	movq	_TIG_iO_E7c3_1_doit_1_opaque_list_1(%rip), %rax
	movq	(%rax), %rdx
	movq	-16(%rbp), %rax
	movq	%rdx, (%rax)
	movq	_TIG_iO_E7c3_1_doit_1_opaque_list_1(%rip), %rdx
	movq	-16(%rbp), %rax
	movq	%rdx, 8(%rax)
	movq	_TIG_iO_E7c3_1_doit_1_opaque_list_1(%rip), %rax
	movq	(%rax), %rax
	movq	-16(%rbp), %rdx
	movq	%rdx, 8(%rax)
	movq	_TIG_iO_E7c3_1_doit_1_opaque_list_1(%rip), %rax
	movq	-16(%rbp), %rdx
	movq	%rdx, (%rax)
	movq	_TIG_iO_E7c3_1_doit_1_opaque_list_1(%rip), %rax
	movq	(%rax), %rax
	movq	%rax, _TIG_iO_E7c3_1_doit_1_opaque_ptr_1(%rip)
	movq	_TIG_iO_E7c3_1_doit_1_opaque_ptr_1(%rip), %rax
	movq	%rax, _TIG_iO_E7c3_1_doit_1_opaque_ptr_2(%rip)
	movq	_TIG_iO_E7c3_1_doit_1_opaque_ptr_2(%rip), %rax
	movq	(%rax), %rax
	movq	%rax, _TIG_iO_E7c3_1_doit_1_opaque_ptr_2(%rip)
	nop
	nop
	leaq	-72(%rbp), %rdx
	leaq	-76(%rbp), %rax
	movq	%rax, %rsi
	leaq	.LC1(%rip), %rax
	movq	%rax, %rdi
	movl	$0, %eax
	call	__isoc99_scanf@PLT
	movl	-76(%rbp), %edx
	movl	$32, %eax
	subl	%edx, %eax
	movl	$-1, %edx
	movl	%eax, %ecx
	shrl	%cl, %edx
	movl	%edx, %eax
	movl	%eax, -52(%rbp)
	movl	-72(%rbp), %eax
	andl	-52(%rbp), %eax
	cmpl	%eax, -52(%rbp)
	jne	.L12
	movl	-84(%rbp), %eax
	movl	%eax, %esi
	leaq	.LC2(%rip), %rax
	movq	%rax, %rdi
	movl	$0, %eax
	call	printf@PLT
	jmp	.L13
.L12:
	movl	-84(%rbp), %eax
	movl	%eax, %esi
	leaq	.LC3(%rip), %rax
	movq	%rax, %rdi
	movl	$0, %eax
	call	printf@PLT
.L13:
	movq	_TIG_iO_E7c3_1_main_1_opaque_ptr_1(%rip), %rdx
	movq	_TIG_iO_E7c3_1_main_1_opaque_ptr_2(%rip), %rax
	cmpq	%rax, %rdx
	movq	-8(%rbp), %rax
	subq	%fs:40, %rax
	je	.L16
	call	__stack_chk_fail@PLT
.L16:
	leave
	.cfi_def_cfa 7, 8
	ret
	.cfi_endproc
.LFE4:
	.size	doit, .-doit
	.ident	"GCC: (Ubuntu 11.4.0-1ubuntu1~22.04) 11.4.0"
	.section	.note.GNU-stack,"",@progbits
	.section	.note.gnu.property,"a"
	.align 8
	.long	1f - 0f
	.long	4f - 1f
	.long	5
0:
	.string	"GNU"
1:
	.align 8
	.long	0xc0000002
	.long	3f - 2f
2:
	.long	0x3
3:
	.align 8
4:
