	.file	"Kirsaxg1_02-Programming_9_opaque.c"
	.text
	.globl	_TIG_iO_pjAr_1___uint16_identity_1_opaque_list_1
	.bss
	.align 8
	.type	_TIG_iO_pjAr_1___uint16_identity_1_opaque_list_1, @object
	.size	_TIG_iO_pjAr_1___uint16_identity_1_opaque_list_1, 8
_TIG_iO_pjAr_1___uint16_identity_1_opaque_list_1:
	.zero	8
	.globl	_TIG_iO_pjAr_1_main_1_opaque_ptr_1
	.align 8
	.type	_TIG_iO_pjAr_1_main_1_opaque_ptr_1, @object
	.size	_TIG_iO_pjAr_1_main_1_opaque_ptr_1, 8
_TIG_iO_pjAr_1_main_1_opaque_ptr_1:
	.zero	8
	.globl	_TIG_iO_pjAr_1_print_memory_dump_1_opaque_ptr_1
	.align 8
	.type	_TIG_iO_pjAr_1_print_memory_dump_1_opaque_ptr_1, @object
	.size	_TIG_iO_pjAr_1_print_memory_dump_1_opaque_ptr_1, 8
_TIG_iO_pjAr_1_print_memory_dump_1_opaque_ptr_1:
	.zero	8
	.globl	_TIG_iO_pjAr_1_int_to_roman_1_opaque_ptr_2
	.align 8
	.type	_TIG_iO_pjAr_1_int_to_roman_1_opaque_ptr_2, @object
	.size	_TIG_iO_pjAr_1_int_to_roman_1_opaque_ptr_2, 8
_TIG_iO_pjAr_1_int_to_roman_1_opaque_ptr_2:
	.zero	8
	.globl	_TIG_iO_pjAr_1___bswap_16_1_opaque_ptr_1
	.align 8
	.type	_TIG_iO_pjAr_1___bswap_16_1_opaque_ptr_1, @object
	.size	_TIG_iO_pjAr_1___bswap_16_1_opaque_ptr_1, 8
_TIG_iO_pjAr_1___bswap_16_1_opaque_ptr_1:
	.zero	8
	.globl	_TIG_iO_pjAr_1___bswap_32_1_opaque_ptr_1
	.align 8
	.type	_TIG_iO_pjAr_1___bswap_32_1_opaque_ptr_1, @object
	.size	_TIG_iO_pjAr_1___bswap_32_1_opaque_ptr_1, 8
_TIG_iO_pjAr_1___bswap_32_1_opaque_ptr_1:
	.zero	8
	.globl	_TIG_iO_pjAr_1___bswap_32_1_opaque_ptr_2
	.align 8
	.type	_TIG_iO_pjAr_1___bswap_32_1_opaque_ptr_2, @object
	.size	_TIG_iO_pjAr_1___bswap_32_1_opaque_ptr_2, 8
_TIG_iO_pjAr_1___bswap_32_1_opaque_ptr_2:
	.zero	8
	.globl	_TIG_iO_pjAr_1___bswap_64_1_opaque_list_1
	.align 8
	.type	_TIG_iO_pjAr_1___bswap_64_1_opaque_list_1, @object
	.size	_TIG_iO_pjAr_1___bswap_64_1_opaque_list_1, 8
_TIG_iO_pjAr_1___bswap_64_1_opaque_list_1:
	.zero	8
	.globl	_TIG_iO_pjAr_1___bswap_16_1_opaque_list_1
	.align 8
	.type	_TIG_iO_pjAr_1___bswap_16_1_opaque_list_1, @object
	.size	_TIG_iO_pjAr_1___bswap_16_1_opaque_list_1, 8
_TIG_iO_pjAr_1___bswap_16_1_opaque_list_1:
	.zero	8
	.globl	_TIG_iO_pjAr_1_overprintf_1_opaque_list_2
	.align 8
	.type	_TIG_iO_pjAr_1_overprintf_1_opaque_list_2, @object
	.size	_TIG_iO_pjAr_1_overprintf_1_opaque_list_2, 8
_TIG_iO_pjAr_1_overprintf_1_opaque_list_2:
	.zero	8
	.globl	_TIG_iO_pjAr_1___uint32_identity_1_opaque_list_2
	.align 8
	.type	_TIG_iO_pjAr_1___uint32_identity_1_opaque_list_2, @object
	.size	_TIG_iO_pjAr_1___uint32_identity_1_opaque_list_2, 8
_TIG_iO_pjAr_1___uint32_identity_1_opaque_list_2:
	.zero	8
	.globl	_TIG_iO_pjAr_1___bswap_64_1_opaque_ptr_1
	.align 8
	.type	_TIG_iO_pjAr_1___bswap_64_1_opaque_ptr_1, @object
	.size	_TIG_iO_pjAr_1___bswap_64_1_opaque_ptr_1, 8
_TIG_iO_pjAr_1___bswap_64_1_opaque_ptr_1:
	.zero	8
	.globl	_TIG_iO_pjAr_1_str_to_int_1_opaque_ptr_1
	.align 8
	.type	_TIG_iO_pjAr_1_str_to_int_1_opaque_ptr_1, @object
	.size	_TIG_iO_pjAr_1_str_to_int_1_opaque_ptr_1, 8
_TIG_iO_pjAr_1_str_to_int_1_opaque_ptr_1:
	.zero	8
	.globl	_TIG_IZ_pjAr_argc
	.align 4
	.type	_TIG_IZ_pjAr_argc, @object
	.size	_TIG_IZ_pjAr_argc, 4
_TIG_IZ_pjAr_argc:
	.zero	4
	.globl	_TIG_iO_pjAr_1___uint16_identity_1_opaque_list_2
	.align 8
	.type	_TIG_iO_pjAr_1___uint16_identity_1_opaque_list_2, @object
	.size	_TIG_iO_pjAr_1___uint16_identity_1_opaque_list_2, 8
_TIG_iO_pjAr_1___uint16_identity_1_opaque_list_2:
	.zero	8
	.globl	_TIG_iO_pjAr_1___bswap_64_1_opaque_list_2
	.align 8
	.type	_TIG_iO_pjAr_1___bswap_64_1_opaque_list_2, @object
	.size	_TIG_iO_pjAr_1___bswap_64_1_opaque_list_2, 8
_TIG_iO_pjAr_1___bswap_64_1_opaque_list_2:
	.zero	8
	.globl	_TIG_iO_pjAr_1_overprintf_1_opaque_list_1
	.align 8
	.type	_TIG_iO_pjAr_1_overprintf_1_opaque_list_1, @object
	.size	_TIG_iO_pjAr_1_overprintf_1_opaque_list_1, 8
_TIG_iO_pjAr_1_overprintf_1_opaque_list_1:
	.zero	8
	.globl	_TIG_iO_pjAr_1_print_memory_dump_1_opaque_list_2
	.align 8
	.type	_TIG_iO_pjAr_1_print_memory_dump_1_opaque_list_2, @object
	.size	_TIG_iO_pjAr_1_print_memory_dump_1_opaque_list_2, 8
_TIG_iO_pjAr_1_print_memory_dump_1_opaque_list_2:
	.zero	8
	.globl	_TIG_iO_pjAr_1_int_to_roman_1_opaque_list_1
	.align 8
	.type	_TIG_iO_pjAr_1_int_to_roman_1_opaque_list_1, @object
	.size	_TIG_iO_pjAr_1_int_to_roman_1_opaque_list_1, 8
_TIG_iO_pjAr_1_int_to_roman_1_opaque_list_1:
	.zero	8
	.globl	_TIG_iO_pjAr_1_int_to_base_1_opaque_list_2
	.align 8
	.type	_TIG_iO_pjAr_1_int_to_base_1_opaque_list_2, @object
	.size	_TIG_iO_pjAr_1_int_to_base_1_opaque_list_2, 8
_TIG_iO_pjAr_1_int_to_base_1_opaque_list_2:
	.zero	8
	.globl	_TIG_iO_pjAr_1_int_to_zeckendorf_1_opaque_list_1
	.align 8
	.type	_TIG_iO_pjAr_1_int_to_zeckendorf_1_opaque_list_1, @object
	.size	_TIG_iO_pjAr_1_int_to_zeckendorf_1_opaque_list_1, 8
_TIG_iO_pjAr_1_int_to_zeckendorf_1_opaque_list_1:
	.zero	8
	.globl	_TIG_iO_pjAr_1___bswap_16_1_opaque_list_2
	.align 8
	.type	_TIG_iO_pjAr_1___bswap_16_1_opaque_list_2, @object
	.size	_TIG_iO_pjAr_1___bswap_16_1_opaque_list_2, 8
_TIG_iO_pjAr_1___bswap_16_1_opaque_list_2:
	.zero	8
	.globl	_TIG_iO_pjAr_1___uint32_identity_1_opaque_ptr_2
	.align 8
	.type	_TIG_iO_pjAr_1___uint32_identity_1_opaque_ptr_2, @object
	.size	_TIG_iO_pjAr_1___uint32_identity_1_opaque_ptr_2, 8
_TIG_iO_pjAr_1___uint32_identity_1_opaque_ptr_2:
	.zero	8
	.globl	_TIG_iO_pjAr_1___uint64_identity_1_opaque_ptr_2
	.align 8
	.type	_TIG_iO_pjAr_1___uint64_identity_1_opaque_ptr_2, @object
	.size	_TIG_iO_pjAr_1___uint64_identity_1_opaque_ptr_2, 8
_TIG_iO_pjAr_1___uint64_identity_1_opaque_ptr_2:
	.zero	8
	.globl	_TIG_iO_pjAr_1_int_to_base_1_opaque_list_1
	.align 8
	.type	_TIG_iO_pjAr_1_int_to_base_1_opaque_list_1, @object
	.size	_TIG_iO_pjAr_1_int_to_base_1_opaque_list_1, 8
_TIG_iO_pjAr_1_int_to_base_1_opaque_list_1:
	.zero	8
	.globl	_TIG_iO_pjAr_1___bswap_32_1_opaque_list_2
	.align 8
	.type	_TIG_iO_pjAr_1___bswap_32_1_opaque_list_2, @object
	.size	_TIG_iO_pjAr_1___bswap_32_1_opaque_list_2, 8
_TIG_iO_pjAr_1___bswap_32_1_opaque_list_2:
	.zero	8
	.globl	_TIG_iO_pjAr_1___uint16_identity_1_opaque_ptr_1
	.align 8
	.type	_TIG_iO_pjAr_1___uint16_identity_1_opaque_ptr_1, @object
	.size	_TIG_iO_pjAr_1___uint16_identity_1_opaque_ptr_1, 8
_TIG_iO_pjAr_1___uint16_identity_1_opaque_ptr_1:
	.zero	8
	.globl	_TIG_iO_pjAr_1___bswap_32_1_opaque_list_1
	.align 8
	.type	_TIG_iO_pjAr_1___bswap_32_1_opaque_list_1, @object
	.size	_TIG_iO_pjAr_1___bswap_32_1_opaque_list_1, 8
_TIG_iO_pjAr_1___bswap_32_1_opaque_list_1:
	.zero	8
	.globl	_TIG_iO_pjAr_1_main_1_opaque_list_1
	.align 8
	.type	_TIG_iO_pjAr_1_main_1_opaque_list_1, @object
	.size	_TIG_iO_pjAr_1_main_1_opaque_list_1, 8
_TIG_iO_pjAr_1_main_1_opaque_list_1:
	.zero	8
	.globl	_TIG_iO_pjAr_1_str_to_int_1_opaque_list_1
	.align 8
	.type	_TIG_iO_pjAr_1_str_to_int_1_opaque_list_1, @object
	.size	_TIG_iO_pjAr_1_str_to_int_1_opaque_list_1, 8
_TIG_iO_pjAr_1_str_to_int_1_opaque_list_1:
	.zero	8
	.globl	_TIG_iO_pjAr_1___bswap_64_1_opaque_ptr_2
	.align 8
	.type	_TIG_iO_pjAr_1___bswap_64_1_opaque_ptr_2, @object
	.size	_TIG_iO_pjAr_1___bswap_64_1_opaque_ptr_2, 8
_TIG_iO_pjAr_1___bswap_64_1_opaque_ptr_2:
	.zero	8
	.globl	_TIG_iO_pjAr_1___uint64_identity_1_opaque_list_2
	.align 8
	.type	_TIG_iO_pjAr_1___uint64_identity_1_opaque_list_2, @object
	.size	_TIG_iO_pjAr_1___uint64_identity_1_opaque_list_2, 8
_TIG_iO_pjAr_1___uint64_identity_1_opaque_list_2:
	.zero	8
	.globl	_TIG_iO_pjAr_1_int_to_zeckendorf_1_opaque_ptr_2
	.align 8
	.type	_TIG_iO_pjAr_1_int_to_zeckendorf_1_opaque_ptr_2, @object
	.size	_TIG_iO_pjAr_1_int_to_zeckendorf_1_opaque_ptr_2, 8
_TIG_iO_pjAr_1_int_to_zeckendorf_1_opaque_ptr_2:
	.zero	8
	.globl	_TIG_iO_pjAr_1_int_to_base_1_opaque_ptr_2
	.align 8
	.type	_TIG_iO_pjAr_1_int_to_base_1_opaque_ptr_2, @object
	.size	_TIG_iO_pjAr_1_int_to_base_1_opaque_ptr_2, 8
_TIG_iO_pjAr_1_int_to_base_1_opaque_ptr_2:
	.zero	8
	.globl	_TIG_iO_pjAr_1___uint32_identity_1_opaque_ptr_1
	.align 8
	.type	_TIG_iO_pjAr_1___uint32_identity_1_opaque_ptr_1, @object
	.size	_TIG_iO_pjAr_1___uint32_identity_1_opaque_ptr_1, 8
_TIG_iO_pjAr_1___uint32_identity_1_opaque_ptr_1:
	.zero	8
	.globl	_TIG_iO_pjAr_1_main_1_opaque_list_2
	.align 8
	.type	_TIG_iO_pjAr_1_main_1_opaque_list_2, @object
	.size	_TIG_iO_pjAr_1_main_1_opaque_list_2, 8
_TIG_iO_pjAr_1_main_1_opaque_list_2:
	.zero	8
	.globl	_TIG_iO_pjAr_1___uint64_identity_1_opaque_ptr_1
	.align 8
	.type	_TIG_iO_pjAr_1___uint64_identity_1_opaque_ptr_1, @object
	.size	_TIG_iO_pjAr_1___uint64_identity_1_opaque_ptr_1, 8
_TIG_iO_pjAr_1___uint64_identity_1_opaque_ptr_1:
	.zero	8
	.globl	_TIG_iO_pjAr_1___uint16_identity_1_opaque_ptr_2
	.align 8
	.type	_TIG_iO_pjAr_1___uint16_identity_1_opaque_ptr_2, @object
	.size	_TIG_iO_pjAr_1___uint16_identity_1_opaque_ptr_2, 8
_TIG_iO_pjAr_1___uint16_identity_1_opaque_ptr_2:
	.zero	8
	.globl	_TIG_iO_pjAr_1___uint64_identity_1_opaque_list_1
	.align 8
	.type	_TIG_iO_pjAr_1___uint64_identity_1_opaque_list_1, @object
	.size	_TIG_iO_pjAr_1___uint64_identity_1_opaque_list_1, 8
_TIG_iO_pjAr_1___uint64_identity_1_opaque_list_1:
	.zero	8
	.globl	_TIG_IZ_pjAr_argv
	.align 8
	.type	_TIG_IZ_pjAr_argv, @object
	.size	_TIG_IZ_pjAr_argv, 8
_TIG_IZ_pjAr_argv:
	.zero	8
	.globl	_TIG_iO_pjAr_1_str_to_int_1_opaque_ptr_2
	.align 8
	.type	_TIG_iO_pjAr_1_str_to_int_1_opaque_ptr_2, @object
	.size	_TIG_iO_pjAr_1_str_to_int_1_opaque_ptr_2, 8
_TIG_iO_pjAr_1_str_to_int_1_opaque_ptr_2:
	.zero	8
	.globl	_TIG_iO_pjAr_1_main_1_opaque_ptr_2
	.align 8
	.type	_TIG_iO_pjAr_1_main_1_opaque_ptr_2, @object
	.size	_TIG_iO_pjAr_1_main_1_opaque_ptr_2, 8
_TIG_iO_pjAr_1_main_1_opaque_ptr_2:
	.zero	8
	.globl	_TIG_iO_pjAr_1_overprintf_1_opaque_ptr_1
	.align 8
	.type	_TIG_iO_pjAr_1_overprintf_1_opaque_ptr_1, @object
	.size	_TIG_iO_pjAr_1_overprintf_1_opaque_ptr_1, 8
_TIG_iO_pjAr_1_overprintf_1_opaque_ptr_1:
	.zero	8
	.globl	_TIG_iO_pjAr_1_print_memory_dump_1_opaque_ptr_2
	.align 8
	.type	_TIG_iO_pjAr_1_print_memory_dump_1_opaque_ptr_2, @object
	.size	_TIG_iO_pjAr_1_print_memory_dump_1_opaque_ptr_2, 8
_TIG_iO_pjAr_1_print_memory_dump_1_opaque_ptr_2:
	.zero	8
	.globl	_TIG_iO_pjAr_1_int_to_roman_1_opaque_list_2
	.align 8
	.type	_TIG_iO_pjAr_1_int_to_roman_1_opaque_list_2, @object
	.size	_TIG_iO_pjAr_1_int_to_roman_1_opaque_list_2, 8
_TIG_iO_pjAr_1_int_to_roman_1_opaque_list_2:
	.zero	8
	.globl	_TIG_iO_pjAr_1_overprintf_1_opaque_ptr_2
	.align 8
	.type	_TIG_iO_pjAr_1_overprintf_1_opaque_ptr_2, @object
	.size	_TIG_iO_pjAr_1_overprintf_1_opaque_ptr_2, 8
_TIG_iO_pjAr_1_overprintf_1_opaque_ptr_2:
	.zero	8
	.globl	_TIG_iO_pjAr_1_print_memory_dump_1_opaque_list_1
	.align 8
	.type	_TIG_iO_pjAr_1_print_memory_dump_1_opaque_list_1, @object
	.size	_TIG_iO_pjAr_1_print_memory_dump_1_opaque_list_1, 8
_TIG_iO_pjAr_1_print_memory_dump_1_opaque_list_1:
	.zero	8
	.globl	_TIG_iO_pjAr_1___uint32_identity_1_opaque_list_1
	.align 8
	.type	_TIG_iO_pjAr_1___uint32_identity_1_opaque_list_1, @object
	.size	_TIG_iO_pjAr_1___uint32_identity_1_opaque_list_1, 8
_TIG_iO_pjAr_1___uint32_identity_1_opaque_list_1:
	.zero	8
	.globl	_TIG_iO_pjAr_1___bswap_16_1_opaque_ptr_2
	.align 8
	.type	_TIG_iO_pjAr_1___bswap_16_1_opaque_ptr_2, @object
	.size	_TIG_iO_pjAr_1___bswap_16_1_opaque_ptr_2, 8
_TIG_iO_pjAr_1___bswap_16_1_opaque_ptr_2:
	.zero	8
	.globl	_TIG_iO_pjAr_1_int_to_roman_1_opaque_ptr_1
	.align 8
	.type	_TIG_iO_pjAr_1_int_to_roman_1_opaque_ptr_1, @object
	.size	_TIG_iO_pjAr_1_int_to_roman_1_opaque_ptr_1, 8
_TIG_iO_pjAr_1_int_to_roman_1_opaque_ptr_1:
	.zero	8
	.globl	_TIG_iO_pjAr_1_int_to_zeckendorf_1_opaque_list_2
	.align 8
	.type	_TIG_iO_pjAr_1_int_to_zeckendorf_1_opaque_list_2, @object
	.size	_TIG_iO_pjAr_1_int_to_zeckendorf_1_opaque_list_2, 8
_TIG_iO_pjAr_1_int_to_zeckendorf_1_opaque_list_2:
	.zero	8
	.globl	_TIG_iO_pjAr_1_str_to_int_1_opaque_list_2
	.align 8
	.type	_TIG_iO_pjAr_1_str_to_int_1_opaque_list_2, @object
	.size	_TIG_iO_pjAr_1_str_to_int_1_opaque_list_2, 8
_TIG_iO_pjAr_1_str_to_int_1_opaque_list_2:
	.zero	8
	.globl	_TIG_iO_pjAr_1_int_to_base_1_opaque_ptr_1
	.align 8
	.type	_TIG_iO_pjAr_1_int_to_base_1_opaque_ptr_1, @object
	.size	_TIG_iO_pjAr_1_int_to_base_1_opaque_ptr_1, 8
_TIG_iO_pjAr_1_int_to_base_1_opaque_ptr_1:
	.zero	8
	.globl	_TIG_iO_pjAr_1_int_to_zeckendorf_1_opaque_ptr_1
	.align 8
	.type	_TIG_iO_pjAr_1_int_to_zeckendorf_1_opaque_ptr_1, @object
	.size	_TIG_iO_pjAr_1_int_to_zeckendorf_1_opaque_ptr_1, 8
_TIG_iO_pjAr_1_int_to_zeckendorf_1_opaque_ptr_1:
	.zero	8
	.globl	_TIG_IZ_pjAr_envp
	.align 8
	.type	_TIG_IZ_pjAr_envp, @object
	.size	_TIG_IZ_pjAr_envp, 8
_TIG_IZ_pjAr_envp:
	.zero	8
	.section	.rodata
.LC0:
	.string	"M"
.LC1:
	.string	"CM"
.LC2:
	.string	"D"
.LC3:
	.string	"CD"
.LC4:
	.string	"C"
.LC5:
	.string	"XC"
.LC6:
	.string	"L"
.LC7:
	.string	"XL"
.LC8:
	.string	"X"
.LC9:
	.string	"IX"
.LC10:
	.string	"V"
.LC11:
	.string	"IV"
.LC12:
	.string	"I"
	.text
	.globl	int_to_roman
	.type	int_to_roman, @function
int_to_roman:
.LFB3:
	.cfi_startproc
	endbr64
	pushq	%rbp
	.cfi_def_cfa_offset 16
	.cfi_offset 6, -16
	movq	%rsp, %rbp
	.cfi_def_cfa_register 6
	subq	$240, %rsp
	movl	%edi, -228(%rbp)
	movq	%rsi, -240(%rbp)
	movq	%fs:40, %rax
	movq	%rax, -8(%rbp)
	xorl	%eax, %eax
#APP
# 67 "/usr/include/x86_64-linux-gnu/bits/uintn-identity.h" 1
	##_ANNOTATION_INITIALREGION_-TIG-iO-pjAr-1-int-to-roman--16
# 0 "" 2
# 71 "/usr/include/x86_64-linux-gnu/bits/uintn-identity.h" 1
	##_ANNOTATION_ATOMICREGION_-TIG-iO-pjAr-1-int-to-roman--15
# 0 "" 2
#NO_APP
	movl	$24, %edi
	call	malloc@PLT
	movq	%rax, -200(%rbp)
	movq	-200(%rbp), %rax
	movq	-200(%rbp), %rdx
	movq	%rdx, 16(%rax)
	movq	-200(%rbp), %rax
	movq	-200(%rbp), %rdx
	movq	%rdx, 8(%rax)
	movq	-200(%rbp), %rax
	movq	%rax, _TIG_iO_pjAr_1_int_to_roman_1_opaque_list_1(%rip)
	call	rand@PLT
	movl	%eax, -208(%rbp)
	movl	$24, %edi
	call	malloc@PLT
	movq	%rax, -192(%rbp)
	movq	-192(%rbp), %rax
	movl	$0, (%rax)
	movq	_TIG_iO_pjAr_1_int_to_roman_1_opaque_list_1(%rip), %rax
	movq	16(%rax), %rdx
	movq	-192(%rbp), %rax
	movq	%rdx, 16(%rax)
	movq	_TIG_iO_pjAr_1_int_to_roman_1_opaque_list_1(%rip), %rdx
	movq	-192(%rbp), %rax
	movq	%rdx, 8(%rax)
	movq	_TIG_iO_pjAr_1_int_to_roman_1_opaque_list_1(%rip), %rax
	movq	16(%rax), %rax
	movq	-192(%rbp), %rdx
	movq	%rdx, 8(%rax)
	movq	_TIG_iO_pjAr_1_int_to_roman_1_opaque_list_1(%rip), %rax
	movq	-192(%rbp), %rdx
	movq	%rdx, 16(%rax)
	call	rand@PLT
	movl	%eax, -204(%rbp)
	movl	$24, %edi
	call	malloc@PLT
	movq	%rax, -184(%rbp)
	movq	-184(%rbp), %rax
	movl	-204(%rbp), %edx
	movl	%edx, (%rax)
	movq	_TIG_iO_pjAr_1_int_to_roman_1_opaque_list_1(%rip), %rax
	movq	16(%rax), %rdx
	movq	-184(%rbp), %rax
	movq	%rdx, 16(%rax)
	movq	_TIG_iO_pjAr_1_int_to_roman_1_opaque_list_1(%rip), %rdx
	movq	-184(%rbp), %rax
	movq	%rdx, 8(%rax)
	movq	_TIG_iO_pjAr_1_int_to_roman_1_opaque_list_1(%rip), %rax
	movq	16(%rax), %rax
	movq	-184(%rbp), %rdx
	movq	%rdx, 8(%rax)
	movq	_TIG_iO_pjAr_1_int_to_roman_1_opaque_list_1(%rip), %rax
	movq	-184(%rbp), %rdx
	movq	%rdx, 16(%rax)
	movq	_TIG_iO_pjAr_1_int_to_roman_1_opaque_list_1(%rip), %rax
	movq	16(%rax), %rax
	movq	%rax, _TIG_iO_pjAr_1_int_to_roman_1_opaque_ptr_1(%rip)
	movq	_TIG_iO_pjAr_1_int_to_roman_1_opaque_ptr_1(%rip), %rax
	movq	%rax, _TIG_iO_pjAr_1_int_to_roman_1_opaque_ptr_2(%rip)
	nop
	nop
	cmpq	$0, -240(%rbp)
	je	.L12
	movl	$1000, -176(%rbp)
	movl	$900, -172(%rbp)
	movl	$500, -168(%rbp)
	movl	$400, -164(%rbp)
	movl	$100, -160(%rbp)
	movl	$90, -156(%rbp)
	movl	$50, -152(%rbp)
	movl	$40, -148(%rbp)
	movl	$10, -144(%rbp)
	movl	$9, -140(%rbp)
	movl	$5, -136(%rbp)
	movl	$4, -132(%rbp)
	movl	$1, -128(%rbp)
	leaq	.LC0(%rip), %rax
	movq	%rax, -112(%rbp)
	leaq	.LC1(%rip), %rax
	movq	%rax, -104(%rbp)
	leaq	.LC2(%rip), %rax
	movq	%rax, -96(%rbp)
	leaq	.LC3(%rip), %rax
	movq	%rax, -88(%rbp)
	leaq	.LC4(%rip), %rax
	movq	%rax, -80(%rbp)
	leaq	.LC5(%rip), %rax
	movq	%rax, -72(%rbp)
	leaq	.LC6(%rip), %rax
	movq	%rax, -64(%rbp)
	leaq	.LC7(%rip), %rax
	movq	%rax, -56(%rbp)
	leaq	.LC8(%rip), %rax
	movq	%rax, -48(%rbp)
	leaq	.LC9(%rip), %rax
	movq	%rax, -40(%rbp)
	leaq	.LC10(%rip), %rax
	movq	%rax, -32(%rbp)
	leaq	.LC11(%rip), %rax
	movq	%rax, -24(%rbp)
	leaq	.LC12(%rip), %rax
	movq	%rax, -16(%rbp)
	movq	-240(%rbp), %rax
	movb	$0, (%rax)
	movl	$0, -212(%rbp)
	movq	_TIG_iO_pjAr_1_str_to_int_1_opaque_ptr_1(%rip), %rdx
	movq	_TIG_iO_pjAr_1_str_to_int_1_opaque_ptr_2(%rip), %rax
	cmpq	%rax, %rdx
	je	.L6
#APP
# 60 "Kirsaxg1_02-Programming_9.c" 1
	.byte 0x7e,0x60
# 0 "" 2
#NO_APP
	jmp	.L1
.L8:
	movl	-212(%rbp), %eax
	cltq
	movq	-112(%rbp,%rax,8), %rdx
	movq	-240(%rbp), %rax
	movq	%rdx, %rsi
	movq	%rax, %rdi
	call	strcat@PLT
	movl	-212(%rbp), %eax
	cltq
	movl	-176(%rbp,%rax,4), %eax
	subl	%eax, -228(%rbp)
.L7:
	movl	-212(%rbp), %eax
	cltq
	movl	-176(%rbp,%rax,4), %eax
	cmpl	%eax, -228(%rbp)
	jge	.L8
	addl	$1, -212(%rbp)
.L6:
	cmpl	$12, -212(%rbp)
	jle	.L7
	jmp	.L1
.L12:
	nop
.L1:
	movq	-8(%rbp), %rax
	subq	%fs:40, %rax
	je	.L11
	call	__stack_chk_fail@PLT
.L11:
	leave
	.cfi_def_cfa 7, 8
	ret
	.cfi_endproc
.LFE3:
	.size	int_to_roman, .-int_to_roman
	.globl	str_to_int
	.type	str_to_int, @function
str_to_int:
.LFB5:
	.cfi_startproc
	endbr64
	pushq	%rbp
	.cfi_def_cfa_offset 16
	.cfi_offset 6, -16
	movq	%rsp, %rbp
	.cfi_def_cfa_register 6
	subq	$112, %rsp
	movq	%rdi, -104(%rbp)
	movl	%esi, -108(%rbp)
#APP
# 66 "/usr/include/x86_64-linux-gnu/bits/byteswap.h" 1
	##_ANNOTATION_INITIALREGION_-TIG-iO-pjAr-1-str-to-int--26
# 0 "" 2
# 70 "/usr/include/x86_64-linux-gnu/bits/byteswap.h" 1
	##_ANNOTATION_ATOMICREGION_-TIG-iO-pjAr-1-str-to-int--25
# 0 "" 2
#NO_APP
	movl	$24, %edi
	call	malloc@PLT
	movq	%rax, -56(%rbp)
	movq	-56(%rbp), %rax
	movq	-56(%rbp), %rdx
	movq	%rdx, (%rax)
	movq	-56(%rbp), %rax
	movq	-56(%rbp), %rdx
	movq	%rdx, 16(%rax)
	movq	-56(%rbp), %rax
	movq	%rax, _TIG_iO_pjAr_1_str_to_int_1_opaque_list_1(%rip)
	call	rand@PLT
	movl	%eax, -76(%rbp)
	movl	$24, %edi
	call	malloc@PLT
	movq	%rax, -48(%rbp)
	movq	-48(%rbp), %rax
	movl	$0, 8(%rax)
	movq	_TIG_iO_pjAr_1_str_to_int_1_opaque_list_1(%rip), %rax
	movq	(%rax), %rdx
	movq	-48(%rbp), %rax
	movq	%rdx, (%rax)
	movq	_TIG_iO_pjAr_1_str_to_int_1_opaque_list_1(%rip), %rdx
	movq	-48(%rbp), %rax
	movq	%rdx, 16(%rax)
	movq	_TIG_iO_pjAr_1_str_to_int_1_opaque_list_1(%rip), %rax
	movq	(%rax), %rax
	movq	-48(%rbp), %rdx
	movq	%rdx, 16(%rax)
	movq	_TIG_iO_pjAr_1_str_to_int_1_opaque_list_1(%rip), %rax
	movq	-48(%rbp), %rdx
	movq	%rdx, (%rax)
	call	rand@PLT
	movl	%eax, -72(%rbp)
	movl	$24, %edi
	call	malloc@PLT
	movq	%rax, -40(%rbp)
	movq	-40(%rbp), %rax
	movl	-72(%rbp), %edx
	movl	%edx, 8(%rax)
	movq	_TIG_iO_pjAr_1_str_to_int_1_opaque_list_1(%rip), %rax
	movq	(%rax), %rdx
	movq	-40(%rbp), %rax
	movq	%rdx, (%rax)
	movq	_TIG_iO_pjAr_1_str_to_int_1_opaque_list_1(%rip), %rdx
	movq	-40(%rbp), %rax
	movq	%rdx, 16(%rax)
	movq	_TIG_iO_pjAr_1_str_to_int_1_opaque_list_1(%rip), %rax
	movq	(%rax), %rax
	movq	-40(%rbp), %rdx
	movq	%rdx, 16(%rax)
	movq	_TIG_iO_pjAr_1_str_to_int_1_opaque_list_1(%rip), %rax
	movq	-40(%rbp), %rdx
	movq	%rdx, (%rax)
	call	rand@PLT
	movl	%eax, -68(%rbp)
	movl	$24, %edi
	call	malloc@PLT
	movq	%rax, -32(%rbp)
	movl	-68(%rbp), %eax
	leal	(%rax,%rax), %edx
	movq	-32(%rbp), %rax
	movl	%edx, 8(%rax)
	movq	_TIG_iO_pjAr_1_str_to_int_1_opaque_list_1(%rip), %rax
	movq	(%rax), %rdx
	movq	-32(%rbp), %rax
	movq	%rdx, (%rax)
	movq	_TIG_iO_pjAr_1_str_to_int_1_opaque_list_1(%rip), %rdx
	movq	-32(%rbp), %rax
	movq	%rdx, 16(%rax)
	movq	_TIG_iO_pjAr_1_str_to_int_1_opaque_list_1(%rip), %rax
	movq	(%rax), %rax
	movq	-32(%rbp), %rdx
	movq	%rdx, 16(%rax)
	movq	_TIG_iO_pjAr_1_str_to_int_1_opaque_list_1(%rip), %rax
	movq	-32(%rbp), %rdx
	movq	%rdx, (%rax)
	call	rand@PLT
	movl	%eax, -64(%rbp)
	movl	$24, %edi
	call	malloc@PLT
	movq	%rax, -24(%rbp)
	movl	-64(%rbp), %edx
	movl	%edx, %eax
	addl	%eax, %eax
	addl	%eax, %edx
	movq	-24(%rbp), %rax
	movl	%edx, 8(%rax)
	movq	_TIG_iO_pjAr_1_str_to_int_1_opaque_list_1(%rip), %rax
	movq	(%rax), %rdx
	movq	-24(%rbp), %rax
	movq	%rdx, (%rax)
	movq	_TIG_iO_pjAr_1_str_to_int_1_opaque_list_1(%rip), %rdx
	movq	-24(%rbp), %rax
	movq	%rdx, 16(%rax)
	movq	_TIG_iO_pjAr_1_str_to_int_1_opaque_list_1(%rip), %rax
	movq	(%rax), %rax
	movq	-24(%rbp), %rdx
	movq	%rdx, 16(%rax)
	movq	_TIG_iO_pjAr_1_str_to_int_1_opaque_list_1(%rip), %rax
	movq	-24(%rbp), %rdx
	movq	%rdx, (%rax)
	movq	_TIG_iO_pjAr_1_str_to_int_1_opaque_list_1(%rip), %rax
	movq	(%rax), %rax
	movq	%rax, _TIG_iO_pjAr_1_str_to_int_1_opaque_ptr_1(%rip)
	movq	_TIG_iO_pjAr_1_str_to_int_1_opaque_ptr_1(%rip), %rax
	movq	%rax, _TIG_iO_pjAr_1_str_to_int_1_opaque_ptr_2(%rip)
	nop
	nop
	cmpq	$0, -104(%rbp)
	jne	.L14
	movl	$0, %eax
	jmp	.L15
.L14:
	movq	_TIG_iO_pjAr_1_str_to_int_1_opaque_ptr_1(%rip), %rdx
	movq	_TIG_iO_pjAr_1_str_to_int_1_opaque_ptr_2(%rip), %rax
	cmpq	%rax, %rdx
	je	.L16
	movl	-108(%rbp), %eax
	movl	$0, %edx
	movl	$0, %esi
	movl	%eax, %edi
	call	main
	movl	%eax, -84(%rbp)
.L16:
	cmpl	$1, -108(%rbp)
	jg	.L17
	movl	$0, %eax
	jmp	.L15
.L17:
	cmpl	$36, -108(%rbp)
	jle	.L18
	movl	$0, %eax
	jmp	.L15
.L18:
	movl	$0, -92(%rbp)
	movl	$1, -88(%rbp)
	movl	$0, -84(%rbp)
	movl	-84(%rbp), %eax
	movslq	%eax, %rdx
	movq	-104(%rbp), %rax
	addq	%rdx, %rax
	movzbl	(%rax), %eax
	cmpb	$45, %al
	jne	.L20
	movl	$-1, -88(%rbp)
	addl	$1, -84(%rbp)
	jmp	.L20
.L25:
	movl	-84(%rbp), %eax
	movslq	%eax, %rdx
	movq	-104(%rbp), %rax
	addq	%rdx, %rax
	movzbl	(%rax), %eax
	movb	%al, -93(%rbp)
	call	__ctype_b_loc@PLT
	movq	%rax, -16(%rbp)
	movq	-16(%rbp), %rax
	movq	(%rax), %rdx
	movsbq	-93(%rbp), %rax
	addq	%rax, %rax
	addq	%rdx, %rax
	movzwl	(%rax), %eax
	movzwl	%ax, %eax
	andl	$2048, %eax
	testl	%eax, %eax
	je	.L21
	movsbl	-93(%rbp), %eax
	subl	$48, %eax
	movl	%eax, -80(%rbp)
	jmp	.L22
.L21:
	call	__ctype_b_loc@PLT
	movq	%rax, -8(%rbp)
	movq	-8(%rbp), %rax
	movq	(%rax), %rdx
	movsbq	-93(%rbp), %rax
	addq	%rax, %rax
	addq	%rdx, %rax
	movzwl	(%rax), %eax
	movzwl	%ax, %eax
	andl	$1024, %eax
	testl	%eax, %eax
	je	.L23
	movsbl	-93(%rbp), %eax
	movl	%eax, %edi
	call	toupper@PLT
	movl	%eax, -60(%rbp)
	movl	-60(%rbp), %eax
	subl	$55, %eax
	movl	%eax, -80(%rbp)
	jmp	.L22
.L23:
	movl	$0, %eax
	jmp	.L15
.L22:
	movl	-80(%rbp), %eax
	cmpl	-108(%rbp), %eax
	jl	.L24
	movl	$0, %eax
	jmp	.L15
.L24:
	movl	-92(%rbp), %eax
	imull	-108(%rbp), %eax
	movl	%eax, %edx
	movl	-80(%rbp), %eax
	addl	%edx, %eax
	movl	%eax, -92(%rbp)
	addl	$1, -84(%rbp)
.L20:
	movl	-84(%rbp), %eax
	movslq	%eax, %rdx
	movq	-104(%rbp), %rax
	addq	%rdx, %rax
	movzbl	(%rax), %eax
	testb	%al, %al
	jne	.L25
	movl	-92(%rbp), %eax
	imull	-88(%rbp), %eax
.L15:
	leave
	.cfi_def_cfa 7, 8
	ret
	.cfi_endproc
.LFE5:
	.size	str_to_int, .-str_to_int
	.globl	int_to_zeckendorf
	.type	int_to_zeckendorf, @function
int_to_zeckendorf:
.LFB6:
	.cfi_startproc
	endbr64
	pushq	%rbp
	.cfi_def_cfa_offset 16
	.cfi_offset 6, -16
	movq	%rsp, %rbp
	.cfi_def_cfa_register 6
	subq	$256, %rsp
	movl	%edi, -244(%rbp)
	movq	%rsi, -256(%rbp)
	movq	%fs:40, %rax
	movq	%rax, -8(%rbp)
	xorl	%eax, %eax
#APP
# 63 "Kirsaxg1_02-Programming_9.c" 1
	##_ANNOTATION_INITIALREGION_-TIG-iO-pjAr-1-int-to-zeckendorf--18
# 0 "" 2
# 67 "Kirsaxg1_02-Programming_9.c" 1
	##_ANNOTATION_ATOMICREGION_-TIG-iO-pjAr-1-int-to-zeckendorf--17
# 0 "" 2
#NO_APP
	movl	$24, %edi
	call	malloc@PLT
	movq	%rax, -216(%rbp)
	movq	-216(%rbp), %rax
	movq	-216(%rbp), %rdx
	movq	%rdx, 8(%rax)
	movq	-216(%rbp), %rax
	movq	-216(%rbp), %rdx
	movq	%rdx, (%rax)
	movq	-216(%rbp), %rax
	movq	%rax, _TIG_iO_pjAr_1_int_to_zeckendorf_1_opaque_list_1(%rip)
	call	rand@PLT
	movl	%eax, -224(%rbp)
	movl	$24, %edi
	call	malloc@PLT
	movq	%rax, -208(%rbp)
	movq	-208(%rbp), %rax
	movl	$0, 16(%rax)
	movq	_TIG_iO_pjAr_1_int_to_zeckendorf_1_opaque_list_1(%rip), %rax
	movq	8(%rax), %rdx
	movq	-208(%rbp), %rax
	movq	%rdx, 8(%rax)
	movq	_TIG_iO_pjAr_1_int_to_zeckendorf_1_opaque_list_1(%rip), %rdx
	movq	-208(%rbp), %rax
	movq	%rdx, (%rax)
	movq	_TIG_iO_pjAr_1_int_to_zeckendorf_1_opaque_list_1(%rip), %rax
	movq	8(%rax), %rax
	movq	-208(%rbp), %rdx
	movq	%rdx, (%rax)
	movq	_TIG_iO_pjAr_1_int_to_zeckendorf_1_opaque_list_1(%rip), %rax
	movq	-208(%rbp), %rdx
	movq	%rdx, 8(%rax)
	call	rand@PLT
	movl	%eax, -220(%rbp)
	movl	$24, %edi
	call	malloc@PLT
	movq	%rax, -200(%rbp)
	movq	-200(%rbp), %rax
	movl	-220(%rbp), %edx
	movl	%edx, 16(%rax)
	movq	_TIG_iO_pjAr_1_int_to_zeckendorf_1_opaque_list_1(%rip), %rax
	movq	8(%rax), %rdx
	movq	-200(%rbp), %rax
	movq	%rdx, 8(%rax)
	movq	_TIG_iO_pjAr_1_int_to_zeckendorf_1_opaque_list_1(%rip), %rdx
	movq	-200(%rbp), %rax
	movq	%rdx, (%rax)
	movq	_TIG_iO_pjAr_1_int_to_zeckendorf_1_opaque_list_1(%rip), %rax
	movq	8(%rax), %rax
	movq	-200(%rbp), %rdx
	movq	%rdx, (%rax)
	movq	_TIG_iO_pjAr_1_int_to_zeckendorf_1_opaque_list_1(%rip), %rax
	movq	-200(%rbp), %rdx
	movq	%rdx, 8(%rax)
	movq	_TIG_iO_pjAr_1_int_to_zeckendorf_1_opaque_list_1(%rip), %rax
	movq	8(%rax), %rax
	movq	%rax, _TIG_iO_pjAr_1_int_to_zeckendorf_1_opaque_ptr_1(%rip)
	movq	_TIG_iO_pjAr_1_int_to_zeckendorf_1_opaque_ptr_1(%rip), %rax
	movq	%rax, _TIG_iO_pjAr_1_int_to_zeckendorf_1_opaque_ptr_2(%rip)
	movq	_TIG_iO_pjAr_1_int_to_zeckendorf_1_opaque_ptr_2(%rip), %rax
	movq	8(%rax), %rax
	movq	%rax, _TIG_iO_pjAr_1_int_to_zeckendorf_1_opaque_ptr_2(%rip)
	nop
	nop
	cmpq	$0, -256(%rbp)
	je	.L41
	cmpl	$0, -244(%rbp)
	jne	.L29
	movq	-256(%rbp), %rax
	movw	$48, (%rax)
	jmp	.L26
.L29:
	movl	$1, -192(%rbp)
	movl	$2, -188(%rbp)
	movl	$2, -232(%rbp)
	jmp	.L30
.L31:
	movl	-232(%rbp), %eax
	subl	$1, %eax
	cltq
	movl	-192(%rbp,%rax,4), %edx
	movl	-232(%rbp), %eax
	subl	$2, %eax
	cltq
	movl	-192(%rbp,%rax,4), %eax
	addl	%eax, %edx
	movl	-232(%rbp), %eax
	cltq
	movl	%edx, -192(%rbp,%rax,4)
	addl	$1, -232(%rbp)
.L30:
	cmpl	$45, -232(%rbp)
	jle	.L31
	movl	$45, -228(%rbp)
	jmp	.L32
.L33:
	subl	$1, -228(%rbp)
.L32:
	movl	-228(%rbp), %eax
	cltq
	movl	-192(%rbp,%rax,4), %eax
	cmpl	%eax, -244(%rbp)
	jb	.L33
	movq	-256(%rbp), %rax
	movb	$0, (%rax)
	jmp	.L34
.L38:
	movl	-228(%rbp), %eax
	cltq
	movl	-192(%rbp,%rax,4), %eax
	cmpl	%eax, -244(%rbp)
	jb	.L35
	movq	-256(%rbp), %rax
	movq	%rax, %rdi
	call	strlen@PLT
	movq	%rax, %rdx
	movq	-256(%rbp), %rax
	addq	%rdx, %rax
	movw	$49, (%rax)
	movl	-228(%rbp), %eax
	cltq
	movl	-192(%rbp,%rax,4), %eax
	subl	%eax, -244(%rbp)
	jmp	.L36
.L35:
	movq	-256(%rbp), %rax
	movq	%rax, %rdi
	call	strlen@PLT
	movq	%rax, %rdx
	movq	-256(%rbp), %rax
	addq	%rdx, %rax
	movw	$48, (%rax)
.L36:
	movq	_TIG_iO_pjAr_1_str_to_int_1_opaque_ptr_1(%rip), %rdx
	movq	_TIG_iO_pjAr_1_str_to_int_1_opaque_ptr_2(%rip), %rax
	cmpq	%rax, %rdx
	je	.L37
	movl	-228(%rbp), %eax
	leal	-1(%rax), %edx
	movl	-224(%rbp), %eax
	addl	%edx, %eax
	movl	%eax, -228(%rbp)
	jmp	.L34
.L37:
	subl	$1, -228(%rbp)
.L34:
	cmpl	$0, -228(%rbp)
	jns	.L38
	movq	-256(%rbp), %rax
	movq	%rax, %rdi
	call	strlen@PLT
	movq	%rax, %rdx
	movq	-256(%rbp), %rax
	addq	%rdx, %rax
	movw	$49, (%rax)
	jmp	.L26
.L41:
	nop
.L26:
	movq	-8(%rbp), %rax
	subq	%fs:40, %rax
	je	.L40
	call	__stack_chk_fail@PLT
.L40:
	leave
	.cfi_def_cfa 7, 8
	ret
	.cfi_endproc
.LFE6:
	.size	int_to_zeckendorf, .-int_to_zeckendorf
	.globl	print_memory_dump
	.type	print_memory_dump, @function
print_memory_dump:
.LFB7:
	.cfi_startproc
	endbr64
	pushq	%rbp
	.cfi_def_cfa_offset 16
	.cfi_offset 6, -16
	movq	%rsp, %rbp
	.cfi_def_cfa_register 6
	addq	$-128, %rsp
	movq	%rdi, -104(%rbp)
	movq	%rsi, -112(%rbp)
	movq	%rdx, -120(%rbp)
	movq	%fs:40, %rax
	movq	%rax, -8(%rbp)
	xorl	%eax, %eax
#APP
# 120 "Kirsaxg1_02-Programming_9.c" 1
	##_ANNOTATION_INITIALREGION_-TIG-iO-pjAr-1-print-memory-dump--24
# 0 "" 2
# 124 "Kirsaxg1_02-Programming_9.c" 1
	##_ANNOTATION_ATOMICREGION_-TIG-iO-pjAr-1-print-memory-dump--23
# 0 "" 2
#NO_APP
	movl	$24, %edi
	call	malloc@PLT
	movq	%rax, -64(%rbp)
	movq	-64(%rbp), %rax
	movq	-64(%rbp), %rdx
	movq	%rdx, (%rax)
	movq	-64(%rbp), %rax
	movq	-64(%rbp), %rdx
	movq	%rdx, 8(%rax)
	movq	-64(%rbp), %rax
	movq	%rax, _TIG_iO_pjAr_1_print_memory_dump_1_opaque_list_1(%rip)
	call	rand@PLT
	movl	%eax, -84(%rbp)
	movl	$24, %edi
	call	malloc@PLT
	movq	%rax, -56(%rbp)
	movq	-56(%rbp), %rax
	movl	$0, 16(%rax)
	movq	_TIG_iO_pjAr_1_print_memory_dump_1_opaque_list_1(%rip), %rax
	movq	(%rax), %rdx
	movq	-56(%rbp), %rax
	movq	%rdx, (%rax)
	movq	_TIG_iO_pjAr_1_print_memory_dump_1_opaque_list_1(%rip), %rdx
	movq	-56(%rbp), %rax
	movq	%rdx, 8(%rax)
	movq	_TIG_iO_pjAr_1_print_memory_dump_1_opaque_list_1(%rip), %rax
	movq	(%rax), %rax
	movq	-56(%rbp), %rdx
	movq	%rdx, 8(%rax)
	movq	_TIG_iO_pjAr_1_print_memory_dump_1_opaque_list_1(%rip), %rax
	movq	-56(%rbp), %rdx
	movq	%rdx, (%rax)
	call	rand@PLT
	movl	%eax, -80(%rbp)
	movl	$24, %edi
	call	malloc@PLT
	movq	%rax, -48(%rbp)
	movq	-48(%rbp), %rax
	movl	-80(%rbp), %edx
	movl	%edx, 16(%rax)
	movq	_TIG_iO_pjAr_1_print_memory_dump_1_opaque_list_1(%rip), %rax
	movq	(%rax), %rdx
	movq	-48(%rbp), %rax
	movq	%rdx, (%rax)
	movq	_TIG_iO_pjAr_1_print_memory_dump_1_opaque_list_1(%rip), %rdx
	movq	-48(%rbp), %rax
	movq	%rdx, 8(%rax)
	movq	_TIG_iO_pjAr_1_print_memory_dump_1_opaque_list_1(%rip), %rax
	movq	(%rax), %rax
	movq	-48(%rbp), %rdx
	movq	%rdx, 8(%rax)
	movq	_TIG_iO_pjAr_1_print_memory_dump_1_opaque_list_1(%rip), %rax
	movq	-48(%rbp), %rdx
	movq	%rdx, (%rax)
	call	rand@PLT
	movl	%eax, -76(%rbp)
	movl	$24, %edi
	call	malloc@PLT
	movq	%rax, -40(%rbp)
	movl	-76(%rbp), %eax
	leal	(%rax,%rax), %edx
	movq	-40(%rbp), %rax
	movl	%edx, 16(%rax)
	movq	_TIG_iO_pjAr_1_print_memory_dump_1_opaque_list_1(%rip), %rax
	movq	(%rax), %rdx
	movq	-40(%rbp), %rax
	movq	%rdx, (%rax)
	movq	_TIG_iO_pjAr_1_print_memory_dump_1_opaque_list_1(%rip), %rdx
	movq	-40(%rbp), %rax
	movq	%rdx, 8(%rax)
	movq	_TIG_iO_pjAr_1_print_memory_dump_1_opaque_list_1(%rip), %rax
	movq	(%rax), %rax
	movq	-40(%rbp), %rdx
	movq	%rdx, 8(%rax)
	movq	_TIG_iO_pjAr_1_print_memory_dump_1_opaque_list_1(%rip), %rax
	movq	-40(%rbp), %rdx
	movq	%rdx, (%rax)
	movq	_TIG_iO_pjAr_1_print_memory_dump_1_opaque_list_1(%rip), %rax
	movq	(%rax), %rax
	movq	%rax, _TIG_iO_pjAr_1_print_memory_dump_1_opaque_ptr_1(%rip)
	movq	_TIG_iO_pjAr_1_print_memory_dump_1_opaque_ptr_1(%rip), %rax
	movq	%rax, _TIG_iO_pjAr_1_print_memory_dump_1_opaque_ptr_2(%rip)
	movq	_TIG_iO_pjAr_1_print_memory_dump_1_opaque_ptr_2(%rip), %rax
	movq	(%rax), %rax
	movq	%rax, _TIG_iO_pjAr_1_print_memory_dump_1_opaque_ptr_2(%rip)
	nop
	nop
	cmpq	$0, -120(%rbp)
	je	.L56
	cmpq	$0, -104(%rbp)
	je	.L57
	movq	-104(%rbp), %rax
	movq	%rax, -32(%rbp)
	movq	-120(%rbp), %rax
	movb	$0, (%rax)
	movq	$0, -72(%rbp)
	jmp	.L46
.L52:
	movl	$7, -88(%rbp)
	jmp	.L47
.L50:
	movq	-32(%rbp), %rdx
	movq	-72(%rbp), %rax
	addq	%rdx, %rax
	movzbl	(%rax), %eax
	movzbl	%al, %edx
	movl	-88(%rbp), %eax
	movl	%eax, %ecx
	sarl	%cl, %edx
	movl	%edx, %eax
	andl	$1, %eax
	testl	%eax, %eax
	je	.L48
	movl	$7, %eax
	subl	-88(%rbp), %eax
	cltq
	movb	$49, -17(%rbp,%rax)
	jmp	.L49
.L48:
	movl	$7, %eax
	subl	-88(%rbp), %eax
	cltq
	movb	$48, -17(%rbp,%rax)
.L49:
	subl	$1, -88(%rbp)
.L47:
	cmpl	$0, -88(%rbp)
	jns	.L50
	movb	$0, -9(%rbp)
	leaq	-17(%rbp), %rdx
	movq	-120(%rbp), %rax
	movq	%rdx, %rsi
	movq	%rax, %rdi
	call	strcat@PLT
	movq	-112(%rbp), %rax
	subq	$1, %rax
	cmpq	%rax, -72(%rbp)
	jnb	.L51
	movq	-120(%rbp), %rax
	movq	%rax, %rdi
	call	strlen@PLT
	movq	%rax, %rdx
	movq	-120(%rbp), %rax
	addq	%rdx, %rax
	movw	$32, (%rax)
.L51:
	addq	$1, -72(%rbp)
.L46:
	movq	-72(%rbp), %rax
	cmpq	-112(%rbp), %rax
	jb	.L52
	movq	_TIG_iO_pjAr_1_str_to_int_1_opaque_ptr_1(%rip), %rdx
	movq	_TIG_iO_pjAr_1_str_to_int_1_opaque_ptr_2(%rip), %rax
	cmpq	%rax, %rdx
	je	.L58
#APP
# 159 "Kirsaxg1_02-Programming_9.c" 1
	.byte 0x41
# 0 "" 2
#NO_APP
	jmp	.L42
.L56:
	nop
	jmp	.L42
.L57:
	nop
	jmp	.L42
.L58:
	nop
.L42:
	movq	-8(%rbp), %rax
	subq	%fs:40, %rax
	je	.L55
	call	__stack_chk_fail@PLT
.L55:
	leave
	.cfi_def_cfa 7, 8
	ret
	.cfi_endproc
.LFE7:
	.size	print_memory_dump, .-print_memory_dump
	.section	.rodata
.LC13:
	.string	"%s"
.LC14:
	.string	"%d"
	.text
	.globl	overprintf
	.type	overprintf, @function
overprintf:
.LFB10:
	.cfi_startproc
	endbr64
	pushq	%rbp
	.cfi_def_cfa_offset 16
	.cfi_offset 6, -16
	movq	%rsp, %rbp
	.cfi_def_cfa_register 6
	subq	$1312, %rsp
	movq	%rdi, -1304(%rbp)
	movq	%rsi, -168(%rbp)
	movq	%rdx, -160(%rbp)
	movq	%rcx, -152(%rbp)
	movq	%r8, -144(%rbp)
	movq	%r9, -136(%rbp)
	testb	%al, %al
	je	.L60
	movaps	%xmm0, -128(%rbp)
	movaps	%xmm1, -112(%rbp)
	movaps	%xmm2, -96(%rbp)
	movaps	%xmm3, -80(%rbp)
	movaps	%xmm4, -64(%rbp)
	movaps	%xmm5, -48(%rbp)
	movaps	%xmm6, -32(%rbp)
	movaps	%xmm7, -16(%rbp)
.L60:
	movq	%fs:40, %rax
	movq	%rax, -184(%rbp)
	xorl	%eax, %eax
#APP
# 117 "/usr/include/x86_64-linux-gnu/bits/uintn-identity.h" 1
	##_ANNOTATION_INITIALREGION_-TIG-iO-pjAr-1-overprintf--22
# 0 "" 2
# 121 "/usr/include/x86_64-linux-gnu/bits/uintn-identity.h" 1
	##_ANNOTATION_ATOMICREGION_-TIG-iO-pjAr-1-overprintf--21
# 0 "" 2
#NO_APP
	movl	$24, %edi
	call	malloc@PLT
	movq	%rax, -1096(%rbp)
	movq	-1096(%rbp), %rax
	movq	-1096(%rbp), %rdx
	movq	%rdx, (%rax)
	movq	-1096(%rbp), %rax
	movq	-1096(%rbp), %rdx
	movq	%rdx, 16(%rax)
	movq	-1096(%rbp), %rax
	movq	%rax, _TIG_iO_pjAr_1_overprintf_1_opaque_list_1(%rip)
	call	rand@PLT
	movl	%eax, -1244(%rbp)
	movl	$24, %edi
	call	malloc@PLT
	movq	%rax, -1088(%rbp)
	movq	-1088(%rbp), %rax
	movl	$0, 8(%rax)
	movq	_TIG_iO_pjAr_1_overprintf_1_opaque_list_1(%rip), %rax
	movq	(%rax), %rdx
	movq	-1088(%rbp), %rax
	movq	%rdx, (%rax)
	movq	_TIG_iO_pjAr_1_overprintf_1_opaque_list_1(%rip), %rdx
	movq	-1088(%rbp), %rax
	movq	%rdx, 16(%rax)
	movq	_TIG_iO_pjAr_1_overprintf_1_opaque_list_1(%rip), %rax
	movq	(%rax), %rax
	movq	-1088(%rbp), %rdx
	movq	%rdx, 16(%rax)
	movq	_TIG_iO_pjAr_1_overprintf_1_opaque_list_1(%rip), %rax
	movq	-1088(%rbp), %rdx
	movq	%rdx, (%rax)
	call	rand@PLT
	movl	%eax, -1240(%rbp)
	movl	$24, %edi
	call	malloc@PLT
	movq	%rax, -1080(%rbp)
	movq	-1080(%rbp), %rax
	movl	-1240(%rbp), %edx
	movl	%edx, 8(%rax)
	movq	_TIG_iO_pjAr_1_overprintf_1_opaque_list_1(%rip), %rax
	movq	(%rax), %rdx
	movq	-1080(%rbp), %rax
	movq	%rdx, (%rax)
	movq	_TIG_iO_pjAr_1_overprintf_1_opaque_list_1(%rip), %rdx
	movq	-1080(%rbp), %rax
	movq	%rdx, 16(%rax)
	movq	_TIG_iO_pjAr_1_overprintf_1_opaque_list_1(%rip), %rax
	movq	(%rax), %rax
	movq	-1080(%rbp), %rdx
	movq	%rdx, 16(%rax)
	movq	_TIG_iO_pjAr_1_overprintf_1_opaque_list_1(%rip), %rax
	movq	-1080(%rbp), %rdx
	movq	%rdx, (%rax)
	call	rand@PLT
	movl	%eax, -1236(%rbp)
	movl	$24, %edi
	call	malloc@PLT
	movq	%rax, -1072(%rbp)
	movl	-1236(%rbp), %eax
	leal	(%rax,%rax), %edx
	movq	-1072(%rbp), %rax
	movl	%edx, 8(%rax)
	movq	_TIG_iO_pjAr_1_overprintf_1_opaque_list_1(%rip), %rax
	movq	(%rax), %rdx
	movq	-1072(%rbp), %rax
	movq	%rdx, (%rax)
	movq	_TIG_iO_pjAr_1_overprintf_1_opaque_list_1(%rip), %rdx
	movq	-1072(%rbp), %rax
	movq	%rdx, 16(%rax)
	movq	_TIG_iO_pjAr_1_overprintf_1_opaque_list_1(%rip), %rax
	movq	(%rax), %rax
	movq	-1072(%rbp), %rdx
	movq	%rdx, 16(%rax)
	movq	_TIG_iO_pjAr_1_overprintf_1_opaque_list_1(%rip), %rax
	movq	-1072(%rbp), %rdx
	movq	%rdx, (%rax)
	movq	_TIG_iO_pjAr_1_overprintf_1_opaque_list_1(%rip), %rax
	movq	(%rax), %rax
	movq	%rax, _TIG_iO_pjAr_1_overprintf_1_opaque_ptr_1(%rip)
	movq	_TIG_iO_pjAr_1_overprintf_1_opaque_ptr_1(%rip), %rax
	movq	%rax, _TIG_iO_pjAr_1_overprintf_1_opaque_ptr_2(%rip)
	movq	_TIG_iO_pjAr_1_overprintf_1_opaque_ptr_2(%rip), %rax
	movq	(%rax), %rax
	movq	%rax, _TIG_iO_pjAr_1_overprintf_1_opaque_ptr_2(%rip)
	nop
	nop
	cmpq	$0, -1304(%rbp)
	jne	.L61
	movl	$-1, %eax
	jmp	.L131
.L61:
	movq	_TIG_iO_pjAr_1_str_to_int_1_opaque_ptr_1(%rip), %rdx
	movq	_TIG_iO_pjAr_1_str_to_int_1_opaque_ptr_2(%rip), %rax
	cmpq	%rax, %rdx
	jne	.L64
	movl	$8, -1016(%rbp)
	movl	$48, -1012(%rbp)
	leaq	16(%rbp), %rax
	movq	%rax, -1008(%rbp)
	leaq	-176(%rbp), %rax
	movq	%rax, -1000(%rbp)
	movl	$0, -1280(%rbp)
	jmp	.L64
.L130:
	movq	-1304(%rbp), %rax
	movzbl	(%rax), %eax
	cmpb	$37, %al
	jne	.L65
	addq	$1, -1304(%rbp)
	movq	-1304(%rbp), %rax
	movzbl	(%rax), %eax
	cmpb	$82, %al
	jne	.L133
	movq	-1304(%rbp), %rax
	addq	$1, %rax
	movzbl	(%rax), %eax
	cmpb	$111, %al
	jne	.L134
	addq	$2, -1304(%rbp)
	movl	-1016(%rbp), %eax
	cmpl	$47, %eax
	ja	.L68
	movq	-1000(%rbp), %rax
	movl	-1016(%rbp), %edx
	movl	%edx, %edx
	addq	%rdx, %rax
	movl	-1016(%rbp), %edx
	addl	$8, %edx
	movl	%edx, -1016(%rbp)
	jmp	.L69
.L68:
	movq	-1008(%rbp), %rax
	leaq	8(%rax), %rdx
	movq	%rdx, -1008(%rbp)
.L69:
	movl	(%rax), %eax
	movl	%eax, -1232(%rbp)
	movl	-1232(%rbp), %eax
	movl	%eax, -1228(%rbp)
	movb	$0, -992(%rbp)
	movl	$1, -1276(%rbp)
	jmp	.L70
.L71:
	movl	-1276(%rbp), %eax
	movb	$0, -992(%rbp,%rax)
	addl	$1, -1276(%rbp)
.L70:
	cmpl	$19, -1276(%rbp)
	jbe	.L71
	leaq	-992(%rbp), %rdx
	movl	-1228(%rbp), %eax
	movq	%rdx, %rsi
	movl	%eax, %edi
	call	int_to_roman
	leaq	-992(%rbp), %rax
	movq	%rax, %rsi
	leaq	.LC13(%rip), %rax
	movq	%rax, %rdi
	movl	$0, %eax
	call	printf@PLT
	movl	%eax, -1224(%rbp)
	movl	-1224(%rbp), %eax
	addl	%eax, -1280(%rbp)
	jmp	.L64
.L133:
	nop
	jmp	.L66
.L134:
	nop
.L66:
	movq	-1304(%rbp), %rax
	movzbl	(%rax), %eax
	cmpb	$90, %al
	jne	.L135
	movq	-1304(%rbp), %rax
	addq	$1, %rax
	movzbl	(%rax), %eax
	cmpb	$114, %al
	jne	.L136
	addq	$2, -1304(%rbp)
	movl	-1016(%rbp), %eax
	cmpl	$47, %eax
	ja	.L74
	movq	-1000(%rbp), %rax
	movl	-1016(%rbp), %edx
	movl	%edx, %edx
	addq	%rdx, %rax
	movl	-1016(%rbp), %edx
	addl	$8, %edx
	movl	%edx, -1016(%rbp)
	jmp	.L75
.L74:
	movq	-1008(%rbp), %rax
	leaq	8(%rax), %rdx
	movq	%rdx, -1008(%rbp)
.L75:
	movl	(%rax), %eax
	movl	%eax, -1220(%rbp)
	movl	-1220(%rbp), %eax
	movl	%eax, -1216(%rbp)
	movb	$0, -960(%rbp)
	movl	$1, -1272(%rbp)
	jmp	.L76
.L77:
	movl	-1272(%rbp), %eax
	movb	$0, -960(%rbp,%rax)
	addl	$1, -1272(%rbp)
.L76:
	cmpl	$99, -1272(%rbp)
	jbe	.L77
	leaq	-960(%rbp), %rdx
	movl	-1216(%rbp), %eax
	movq	%rdx, %rsi
	movl	%eax, %edi
	call	int_to_zeckendorf
	leaq	-960(%rbp), %rax
	movq	%rax, %rsi
	leaq	.LC13(%rip), %rax
	movq	%rax, %rdi
	movl	$0, %eax
	call	printf@PLT
	movl	%eax, -1212(%rbp)
	movl	-1212(%rbp), %eax
	addl	%eax, -1280(%rbp)
	jmp	.L64
.L135:
	nop
	jmp	.L72
.L136:
	nop
.L72:
	movq	-1304(%rbp), %rax
	movzbl	(%rax), %eax
	cmpb	$67, %al
	jne	.L137
	movq	-1304(%rbp), %rax
	addq	$1, %rax
	movzbl	(%rax), %eax
	cmpb	$118, %al
	jne	.L138
	addq	$2, -1304(%rbp)
	movl	-1016(%rbp), %eax
	cmpl	$47, %eax
	ja	.L80
	movq	-1000(%rbp), %rax
	movl	-1016(%rbp), %edx
	movl	%edx, %edx
	addq	%rdx, %rax
	movl	-1016(%rbp), %edx
	addl	$8, %edx
	movl	%edx, -1016(%rbp)
	jmp	.L81
.L80:
	movq	-1008(%rbp), %rax
	leaq	8(%rax), %rdx
	movq	%rdx, -1008(%rbp)
.L81:
	movl	(%rax), %eax
	movl	%eax, -1208(%rbp)
	movl	-1208(%rbp), %eax
	movl	%eax, -1204(%rbp)
	movl	-1016(%rbp), %eax
	cmpl	$47, %eax
	ja	.L82
	movq	-1000(%rbp), %rax
	movl	-1016(%rbp), %edx
	movl	%edx, %edx
	addq	%rdx, %rax
	movl	-1016(%rbp), %edx
	addl	$8, %edx
	movl	%edx, -1016(%rbp)
	jmp	.L83
.L82:
	movq	-1008(%rbp), %rax
	leaq	8(%rax), %rdx
	movq	%rdx, -1008(%rbp)
.L83:
	movl	(%rax), %eax
	movl	%eax, -1200(%rbp)
	movl	-1200(%rbp), %eax
	movl	%eax, -1196(%rbp)
	movb	$0, -848(%rbp)
	movl	$1, -1268(%rbp)
	jmp	.L84
.L85:
	movl	-1268(%rbp), %eax
	movb	$0, -848(%rbp,%rax)
	addl	$1, -1268(%rbp)
.L84:
	cmpl	$99, -1268(%rbp)
	jbe	.L85
	leaq	-848(%rbp), %rdx
	movl	-1196(%rbp), %esi
	movl	-1204(%rbp), %eax
	movl	$0, %ecx
	movl	%eax, %edi
	call	int_to_base
	leaq	-848(%rbp), %rax
	movq	%rax, %rsi
	leaq	.LC13(%rip), %rax
	movq	%rax, %rdi
	movl	$0, %eax
	call	printf@PLT
	movl	%eax, -1192(%rbp)
	movl	-1192(%rbp), %eax
	addl	%eax, -1280(%rbp)
	jmp	.L64
.L137:
	nop
	jmp	.L78
.L138:
	nop
.L78:
	movq	-1304(%rbp), %rax
	movzbl	(%rax), %eax
	cmpb	$67, %al
	jne	.L139
	movq	-1304(%rbp), %rax
	addq	$1, %rax
	movzbl	(%rax), %eax
	cmpb	$86, %al
	jne	.L140
	addq	$2, -1304(%rbp)
	movl	-1016(%rbp), %eax
	cmpl	$47, %eax
	ja	.L88
	movq	-1000(%rbp), %rax
	movl	-1016(%rbp), %edx
	movl	%edx, %edx
	addq	%rdx, %rax
	movl	-1016(%rbp), %edx
	addl	$8, %edx
	movl	%edx, -1016(%rbp)
	jmp	.L89
.L88:
	movq	-1008(%rbp), %rax
	leaq	8(%rax), %rdx
	movq	%rdx, -1008(%rbp)
.L89:
	movl	(%rax), %eax
	movl	%eax, -1188(%rbp)
	movl	-1188(%rbp), %eax
	movl	%eax, -1184(%rbp)
	movl	-1016(%rbp), %eax
	cmpl	$47, %eax
	ja	.L90
	movq	-1000(%rbp), %rax
	movl	-1016(%rbp), %edx
	movl	%edx, %edx
	addq	%rdx, %rax
	movl	-1016(%rbp), %edx
	addl	$8, %edx
	movl	%edx, -1016(%rbp)
	jmp	.L91
.L90:
	movq	-1008(%rbp), %rax
	leaq	8(%rax), %rdx
	movq	%rdx, -1008(%rbp)
.L91:
	movl	(%rax), %eax
	movl	%eax, -1180(%rbp)
	movl	-1180(%rbp), %eax
	movl	%eax, -1176(%rbp)
	movb	$0, -736(%rbp)
	movl	$1, -1264(%rbp)
	jmp	.L92
.L93:
	movl	-1264(%rbp), %eax
	movb	$0, -736(%rbp,%rax)
	addl	$1, -1264(%rbp)
.L92:
	cmpl	$99, -1264(%rbp)
	jbe	.L93
	leaq	-736(%rbp), %rdx
	movl	-1176(%rbp), %esi
	movl	-1184(%rbp), %eax
	movl	$1, %ecx
	movl	%eax, %edi
	call	int_to_base
	leaq	-736(%rbp), %rax
	movq	%rax, %rsi
	leaq	.LC13(%rip), %rax
	movq	%rax, %rdi
	movl	$0, %eax
	call	printf@PLT
	movl	%eax, -1172(%rbp)
	movl	-1172(%rbp), %eax
	addl	%eax, -1280(%rbp)
	jmp	.L64
.L139:
	nop
	jmp	.L86
.L140:
	nop
.L86:
	movq	-1304(%rbp), %rax
	movzbl	(%rax), %eax
	cmpb	$116, %al
	jne	.L141
	movq	-1304(%rbp), %rax
	addq	$1, %rax
	movzbl	(%rax), %eax
	cmpb	$111, %al
	jne	.L142
	addq	$2, -1304(%rbp)
	movl	-1016(%rbp), %eax
	cmpl	$47, %eax
	ja	.L96
	movq	-1000(%rbp), %rax
	movl	-1016(%rbp), %edx
	movl	%edx, %edx
	addq	%rdx, %rax
	movl	-1016(%rbp), %edx
	addl	$8, %edx
	movl	%edx, -1016(%rbp)
	jmp	.L97
.L96:
	movq	-1008(%rbp), %rax
	leaq	8(%rax), %rdx
	movq	%rdx, -1008(%rbp)
.L97:
	movq	(%rax), %rax
	movq	%rax, -1064(%rbp)
	movq	-1064(%rbp), %rax
	movq	%rax, -1056(%rbp)
	movl	-1016(%rbp), %eax
	cmpl	$47, %eax
	ja	.L98
	movq	-1000(%rbp), %rax
	movl	-1016(%rbp), %edx
	movl	%edx, %edx
	addq	%rdx, %rax
	movl	-1016(%rbp), %edx
	addl	$8, %edx
	movl	%edx, -1016(%rbp)
	jmp	.L99
.L98:
	movq	-1008(%rbp), %rax
	leaq	8(%rax), %rdx
	movq	%rdx, -1008(%rbp)
.L99:
	movl	(%rax), %eax
	movl	%eax, -1168(%rbp)
	movl	-1168(%rbp), %eax
	movl	%eax, -1164(%rbp)
	movl	-1164(%rbp), %edx
	movq	-1056(%rbp), %rax
	movl	%edx, %esi
	movq	%rax, %rdi
	call	str_to_int
	movl	%eax, -1160(%rbp)
	movl	-1160(%rbp), %eax
	movl	%eax, -1156(%rbp)
	movl	-1156(%rbp), %eax
	movl	%eax, %esi
	leaq	.LC14(%rip), %rax
	movq	%rax, %rdi
	movl	$0, %eax
	call	printf@PLT
	movl	%eax, -1152(%rbp)
	movl	-1152(%rbp), %eax
	addl	%eax, -1280(%rbp)
	jmp	.L64
.L141:
	nop
	jmp	.L94
.L142:
	nop
.L94:
	movq	-1304(%rbp), %rax
	movzbl	(%rax), %eax
	cmpb	$84, %al
	jne	.L143
	movq	-1304(%rbp), %rax
	addq	$1, %rax
	movzbl	(%rax), %eax
	cmpb	$79, %al
	jne	.L144
	addq	$2, -1304(%rbp)
	movl	-1016(%rbp), %eax
	cmpl	$47, %eax
	ja	.L102
	movq	-1000(%rbp), %rax
	movl	-1016(%rbp), %edx
	movl	%edx, %edx
	addq	%rdx, %rax
	movl	-1016(%rbp), %edx
	addl	$8, %edx
	movl	%edx, -1016(%rbp)
	jmp	.L103
.L102:
	movq	-1008(%rbp), %rax
	leaq	8(%rax), %rdx
	movq	%rdx, -1008(%rbp)
.L103:
	movq	(%rax), %rax
	movq	%rax, -1048(%rbp)
	movq	-1048(%rbp), %rax
	movq	%rax, -1040(%rbp)
	movl	-1016(%rbp), %eax
	cmpl	$47, %eax
	ja	.L104
	movq	-1000(%rbp), %rax
	movl	-1016(%rbp), %edx
	movl	%edx, %edx
	addq	%rdx, %rax
	movl	-1016(%rbp), %edx
	addl	$8, %edx
	movl	%edx, -1016(%rbp)
	jmp	.L105
.L104:
	movq	-1008(%rbp), %rax
	leaq	8(%rax), %rdx
	movq	%rdx, -1008(%rbp)
.L105:
	movl	(%rax), %eax
	movl	%eax, -1148(%rbp)
	movl	-1148(%rbp), %eax
	movl	%eax, -1144(%rbp)
	movl	-1144(%rbp), %edx
	movq	-1040(%rbp), %rax
	movl	%edx, %esi
	movq	%rax, %rdi
	call	str_to_int
	movl	%eax, -1140(%rbp)
	movl	-1140(%rbp), %eax
	movl	%eax, -1136(%rbp)
	movl	-1136(%rbp), %eax
	movl	%eax, %esi
	leaq	.LC14(%rip), %rax
	movq	%rax, %rdi
	movl	$0, %eax
	call	printf@PLT
	movl	%eax, -1132(%rbp)
	movl	-1132(%rbp), %eax
	addl	%eax, -1280(%rbp)
	jmp	.L64
.L143:
	nop
	jmp	.L100
.L144:
	nop
.L100:
	movq	-1304(%rbp), %rax
	movzbl	(%rax), %eax
	cmpb	$109, %al
	jne	.L145
	movq	-1304(%rbp), %rax
	addq	$1, %rax
	movzbl	(%rax), %eax
	cmpb	$105, %al
	jne	.L146
	addq	$2, -1304(%rbp)
	movl	-1016(%rbp), %eax
	cmpl	$47, %eax
	ja	.L108
	movq	-1000(%rbp), %rax
	movl	-1016(%rbp), %edx
	movl	%edx, %edx
	addq	%rdx, %rax
	movl	-1016(%rbp), %edx
	addl	$8, %edx
	movl	%edx, -1016(%rbp)
	jmp	.L109
.L108:
	movq	-1008(%rbp), %rax
	leaq	8(%rax), %rdx
	movq	%rdx, -1008(%rbp)
.L109:
	movl	(%rax), %eax
	movl	%eax, -1128(%rbp)
	movl	-1128(%rbp), %eax
	movl	%eax, -1292(%rbp)
	movb	$0, -624(%rbp)
	movl	$1, -1260(%rbp)
	jmp	.L110
.L111:
	movl	-1260(%rbp), %eax
	movb	$0, -624(%rbp,%rax)
	addl	$1, -1260(%rbp)
.L110:
	cmpl	$99, -1260(%rbp)
	jbe	.L111
	leaq	-624(%rbp), %rdx
	leaq	-1292(%rbp), %rax
	movl	$4, %esi
	movq	%rax, %rdi
	call	print_memory_dump
	leaq	-624(%rbp), %rax
	movq	%rax, %rsi
	leaq	.LC13(%rip), %rax
	movq	%rax, %rdi
	movl	$0, %eax
	call	printf@PLT
	movl	%eax, -1124(%rbp)
	movl	-1124(%rbp), %eax
	addl	%eax, -1280(%rbp)
	jmp	.L64
.L145:
	nop
	jmp	.L106
.L146:
	nop
.L106:
	movq	-1304(%rbp), %rax
	movzbl	(%rax), %eax
	cmpb	$109, %al
	jne	.L147
	movq	-1304(%rbp), %rax
	addq	$1, %rax
	movzbl	(%rax), %eax
	cmpb	$117, %al
	jne	.L148
	addq	$2, -1304(%rbp)
	movl	-1016(%rbp), %eax
	cmpl	$47, %eax
	ja	.L114
	movq	-1000(%rbp), %rax
	movl	-1016(%rbp), %edx
	movl	%edx, %edx
	addq	%rdx, %rax
	movl	-1016(%rbp), %edx
	addl	$8, %edx
	movl	%edx, -1016(%rbp)
	jmp	.L115
.L114:
	movq	-1008(%rbp), %rax
	leaq	8(%rax), %rdx
	movq	%rdx, -1008(%rbp)
.L115:
	movl	(%rax), %eax
	movl	%eax, -1120(%rbp)
	movl	-1120(%rbp), %eax
	movl	%eax, -1288(%rbp)
	movb	$0, -512(%rbp)
	movl	$1, -1256(%rbp)
	jmp	.L116
.L117:
	movl	-1256(%rbp), %eax
	movb	$0, -512(%rbp,%rax)
	addl	$1, -1256(%rbp)
.L116:
	cmpl	$99, -1256(%rbp)
	jbe	.L117
	leaq	-512(%rbp), %rdx
	leaq	-1288(%rbp), %rax
	movl	$4, %esi
	movq	%rax, %rdi
	call	print_memory_dump
	leaq	-512(%rbp), %rax
	movq	%rax, %rsi
	leaq	.LC13(%rip), %rax
	movq	%rax, %rdi
	movl	$0, %eax
	call	printf@PLT
	movl	%eax, -1116(%rbp)
	movl	-1116(%rbp), %eax
	addl	%eax, -1280(%rbp)
	jmp	.L64
.L147:
	nop
	jmp	.L112
.L148:
	nop
.L112:
	movq	-1304(%rbp), %rax
	movzbl	(%rax), %eax
	cmpb	$109, %al
	jne	.L149
	movq	-1304(%rbp), %rax
	addq	$1, %rax
	movzbl	(%rax), %eax
	cmpb	$100, %al
	jne	.L150
	addq	$2, -1304(%rbp)
	movl	-1012(%rbp), %eax
	cmpl	$175, %eax
	ja	.L120
	movq	-1000(%rbp), %rax
	movl	-1012(%rbp), %edx
	movl	%edx, %edx
	addq	%rdx, %rax
	movl	-1012(%rbp), %edx
	addl	$16, %edx
	movl	%edx, -1012(%rbp)
	jmp	.L121
.L120:
	movq	-1008(%rbp), %rax
	leaq	8(%rax), %rdx
	movq	%rdx, -1008(%rbp)
.L121:
	movsd	(%rax), %xmm0
	movsd	%xmm0, -1032(%rbp)
	movsd	-1032(%rbp), %xmm0
	movsd	%xmm0, -1104(%rbp)
	movb	$0, -400(%rbp)
	movl	$1, -1252(%rbp)
	jmp	.L122
.L123:
	movl	-1252(%rbp), %eax
	movb	$0, -400(%rbp,%rax)
	addl	$1, -1252(%rbp)
.L122:
	cmpl	$99, -1252(%rbp)
	jbe	.L123
	leaq	-400(%rbp), %rdx
	leaq	-1104(%rbp), %rax
	movl	$8, %esi
	movq	%rax, %rdi
	call	print_memory_dump
	leaq	-400(%rbp), %rax
	movq	%rax, %rsi
	leaq	.LC13(%rip), %rax
	movq	%rax, %rdi
	movl	$0, %eax
	call	printf@PLT
	movl	%eax, -1112(%rbp)
	movl	-1112(%rbp), %eax
	addl	%eax, -1280(%rbp)
	jmp	.L64
.L149:
	nop
	jmp	.L118
.L150:
	nop
.L118:
	movq	-1304(%rbp), %rax
	movzbl	(%rax), %eax
	cmpb	$109, %al
	jne	.L124
	movq	-1304(%rbp), %rax
	addq	$1, %rax
	movzbl	(%rax), %eax
	cmpb	$102, %al
	jne	.L125
	addq	$2, -1304(%rbp)
	movl	-1012(%rbp), %eax
	cmpl	$175, %eax
	ja	.L126
	movq	-1000(%rbp), %rax
	movl	-1012(%rbp), %edx
	movl	%edx, %edx
	addq	%rdx, %rax
	movl	-1012(%rbp), %edx
	addl	$16, %edx
	movl	%edx, -1012(%rbp)
	jmp	.L127
.L126:
	movq	-1008(%rbp), %rax
	leaq	8(%rax), %rdx
	movq	%rdx, -1008(%rbp)
.L127:
	movsd	(%rax), %xmm0
	movsd	%xmm0, -1024(%rbp)
	pxor	%xmm0, %xmm0
	cvtsd2ss	-1024(%rbp), %xmm0
	movss	%xmm0, -1284(%rbp)
	movb	$0, -288(%rbp)
	movl	$1, -1248(%rbp)
	jmp	.L128
.L129:
	movl	-1248(%rbp), %eax
	movb	$0, -288(%rbp,%rax)
	addl	$1, -1248(%rbp)
.L128:
	cmpl	$99, -1248(%rbp)
	jbe	.L129
	leaq	-288(%rbp), %rdx
	leaq	-1284(%rbp), %rax
	movl	$4, %esi
	movq	%rax, %rdi
	call	print_memory_dump
	leaq	-288(%rbp), %rax
	movq	%rax, %rsi
	leaq	.LC13(%rip), %rax
	movq	%rax, %rdi
	movl	$0, %eax
	call	printf@PLT
	movl	%eax, -1108(%rbp)
	movl	-1108(%rbp), %eax
	addl	%eax, -1280(%rbp)
	jmp	.L64
.L125:
	movl	$37, %edi
	call	putchar@PLT
	movq	-1304(%rbp), %rax
	movzbl	(%rax), %eax
	movsbl	%al, %eax
	movl	%eax, %edi
	call	putchar@PLT
	addl	$2, -1280(%rbp)
	addq	$1, -1304(%rbp)
	jmp	.L64
.L124:
	movl	$37, %edi
	call	putchar@PLT
	movq	-1304(%rbp), %rax
	movzbl	(%rax), %eax
	movsbl	%al, %eax
	movl	%eax, %edi
	call	putchar@PLT
	addl	$2, -1280(%rbp)
	addq	$1, -1304(%rbp)
	jmp	.L64
.L65:
	movq	-1304(%rbp), %rax
	movzbl	(%rax), %eax
	movsbl	%al, %eax
	movl	%eax, %edi
	call	putchar@PLT
	addl	$1, -1280(%rbp)
	addq	$1, -1304(%rbp)
.L64:
	movq	-1304(%rbp), %rax
	movzbl	(%rax), %eax
	testb	%al, %al
	jne	.L130
	movl	-1280(%rbp), %eax
.L131:
	movq	-184(%rbp), %rdx
	subq	%fs:40, %rdx
	je	.L132
	call	__stack_chk_fail@PLT
.L132:
	leave
	.cfi_def_cfa 7, 8
	ret
	.cfi_endproc
.LFE10:
	.size	overprintf, .-overprintf
	.globl	int_to_base
	.type	int_to_base, @function
int_to_base:
.LFB11:
	.cfi_startproc
	endbr64
	pushq	%rbp
	.cfi_def_cfa_offset 16
	.cfi_offset 6, -16
	movq	%rsp, %rbp
	.cfi_def_cfa_register 6
	subq	$160, %rsp
	movl	%edi, -132(%rbp)
	movl	%esi, -136(%rbp)
	movq	%rdx, -144(%rbp)
	movl	%ecx, -148(%rbp)
	movq	%fs:40, %rax
	movq	%rax, -8(%rbp)
	xorl	%eax, %eax
#APP
# 285 "Kirsaxg1_02-Programming_9.c" 1
	##_ANNOTATION_INITIALREGION_-TIG-iO-pjAr-1-int-to-base--14
# 0 "" 2
# 289 "Kirsaxg1_02-Programming_9.c" 1
	##_ANNOTATION_ATOMICREGION_-TIG-iO-pjAr-1-int-to-base--13
# 0 "" 2
#NO_APP
	movl	$24, %edi
	call	malloc@PLT
	movq	%rax, -88(%rbp)
	movq	-88(%rbp), %rax
	movq	-88(%rbp), %rdx
	movq	%rdx, (%rax)
	movq	-88(%rbp), %rax
	movq	-88(%rbp), %rdx
	movq	%rdx, 8(%rax)
	movq	-88(%rbp), %rax
	movq	%rax, _TIG_iO_pjAr_1_int_to_base_1_opaque_list_1(%rip)
	call	rand@PLT
	movl	%eax, -112(%rbp)
	movl	$24, %edi
	call	malloc@PLT
	movq	%rax, -80(%rbp)
	movq	-80(%rbp), %rax
	movl	$0, 16(%rax)
	movq	_TIG_iO_pjAr_1_int_to_base_1_opaque_list_1(%rip), %rax
	movq	(%rax), %rdx
	movq	-80(%rbp), %rax
	movq	%rdx, (%rax)
	movq	_TIG_iO_pjAr_1_int_to_base_1_opaque_list_1(%rip), %rdx
	movq	-80(%rbp), %rax
	movq	%rdx, 8(%rax)
	movq	_TIG_iO_pjAr_1_int_to_base_1_opaque_list_1(%rip), %rax
	movq	(%rax), %rax
	movq	-80(%rbp), %rdx
	movq	%rdx, 8(%rax)
	movq	_TIG_iO_pjAr_1_int_to_base_1_opaque_list_1(%rip), %rax
	movq	-80(%rbp), %rdx
	movq	%rdx, (%rax)
	call	rand@PLT
	movl	%eax, -108(%rbp)
	movl	$24, %edi
	call	malloc@PLT
	movq	%rax, -72(%rbp)
	movq	-72(%rbp), %rax
	movl	-108(%rbp), %edx
	movl	%edx, 16(%rax)
	movq	_TIG_iO_pjAr_1_int_to_base_1_opaque_list_1(%rip), %rax
	movq	(%rax), %rdx
	movq	-72(%rbp), %rax
	movq	%rdx, (%rax)
	movq	_TIG_iO_pjAr_1_int_to_base_1_opaque_list_1(%rip), %rdx
	movq	-72(%rbp), %rax
	movq	%rdx, 8(%rax)
	movq	_TIG_iO_pjAr_1_int_to_base_1_opaque_list_1(%rip), %rax
	movq	(%rax), %rax
	movq	-72(%rbp), %rdx
	movq	%rdx, 8(%rax)
	movq	_TIG_iO_pjAr_1_int_to_base_1_opaque_list_1(%rip), %rax
	movq	-72(%rbp), %rdx
	movq	%rdx, (%rax)
	call	rand@PLT
	movl	%eax, -104(%rbp)
	movl	$24, %edi
	call	malloc@PLT
	movq	%rax, -64(%rbp)
	movl	-104(%rbp), %eax
	leal	(%rax,%rax), %edx
	movq	-64(%rbp), %rax
	movl	%edx, 16(%rax)
	movq	_TIG_iO_pjAr_1_int_to_base_1_opaque_list_1(%rip), %rax
	movq	(%rax), %rdx
	movq	-64(%rbp), %rax
	movq	%rdx, (%rax)
	movq	_TIG_iO_pjAr_1_int_to_base_1_opaque_list_1(%rip), %rdx
	movq	-64(%rbp), %rax
	movq	%rdx, 8(%rax)
	movq	_TIG_iO_pjAr_1_int_to_base_1_opaque_list_1(%rip), %rax
	movq	(%rax), %rax
	movq	-64(%rbp), %rdx
	movq	%rdx, 8(%rax)
	movq	_TIG_iO_pjAr_1_int_to_base_1_opaque_list_1(%rip), %rax
	movq	-64(%rbp), %rdx
	movq	%rdx, (%rax)
	call	rand@PLT
	movl	%eax, -100(%rbp)
	movl	$24, %edi
	call	malloc@PLT
	movq	%rax, -56(%rbp)
	movl	-100(%rbp), %edx
	movl	%edx, %eax
	addl	%eax, %eax
	addl	%eax, %edx
	movq	-56(%rbp), %rax
	movl	%edx, 16(%rax)
	movq	_TIG_iO_pjAr_1_int_to_base_1_opaque_list_1(%rip), %rax
	movq	(%rax), %rdx
	movq	-56(%rbp), %rax
	movq	%rdx, (%rax)
	movq	_TIG_iO_pjAr_1_int_to_base_1_opaque_list_1(%rip), %rdx
	movq	-56(%rbp), %rax
	movq	%rdx, 8(%rax)
	movq	_TIG_iO_pjAr_1_int_to_base_1_opaque_list_1(%rip), %rax
	movq	(%rax), %rax
	movq	-56(%rbp), %rdx
	movq	%rdx, 8(%rax)
	movq	_TIG_iO_pjAr_1_int_to_base_1_opaque_list_1(%rip), %rax
	movq	-56(%rbp), %rdx
	movq	%rdx, (%rax)
	movq	_TIG_iO_pjAr_1_int_to_base_1_opaque_list_1(%rip), %rax
	movq	(%rax), %rax
	movq	%rax, _TIG_iO_pjAr_1_int_to_base_1_opaque_ptr_1(%rip)
	movq	_TIG_iO_pjAr_1_int_to_base_1_opaque_ptr_1(%rip), %rax
	movq	%rax, _TIG_iO_pjAr_1_int_to_base_1_opaque_ptr_2(%rip)
	movq	_TIG_iO_pjAr_1_int_to_base_1_opaque_ptr_2(%rip), %rax
	movq	(%rax), %rax
	movq	%rax, _TIG_iO_pjAr_1_int_to_base_1_opaque_ptr_2(%rip)
	nop
	nop
	cmpq	$0, -144(%rbp)
	je	.L168
	cmpl	$1, -136(%rbp)
	jle	.L169
	cmpl	$36, -136(%rbp)
	jg	.L170
	movb	$48, -48(%rbp)
	movb	$49, -47(%rbp)
	movb	$50, -46(%rbp)
	movb	$51, -45(%rbp)
	movb	$52, -44(%rbp)
	movb	$53, -43(%rbp)
	movb	$54, -42(%rbp)
	movb	$55, -41(%rbp)
	movb	$56, -40(%rbp)
	movb	$57, -39(%rbp)
	movb	$97, -38(%rbp)
	movb	$98, -37(%rbp)
	movb	$99, -36(%rbp)
	movb	$100, -35(%rbp)
	movb	$101, -34(%rbp)
	movb	$102, -33(%rbp)
	movb	$103, -32(%rbp)
	movb	$104, -31(%rbp)
	movb	$105, -30(%rbp)
	movb	$106, -29(%rbp)
	movb	$107, -28(%rbp)
	movb	$108, -27(%rbp)
	movb	$109, -26(%rbp)
	movb	$110, -25(%rbp)
	movb	$111, -24(%rbp)
	movb	$112, -23(%rbp)
	movb	$113, -22(%rbp)
	movb	$114, -21(%rbp)
	movb	$115, -20(%rbp)
	movb	$116, -19(%rbp)
	movb	$117, -18(%rbp)
	movb	$118, -17(%rbp)
	movb	$119, -16(%rbp)
	movb	$120, -15(%rbp)
	movb	$121, -14(%rbp)
	movb	$122, -13(%rbp)
	movb	$0, -12(%rbp)
	cmpl	$0, -148(%rbp)
	je	.L156
	movb	$65, -38(%rbp)
.L156:
	movl	$0, -124(%rbp)
	movl	$0, -120(%rbp)
	cmpl	$0, -132(%rbp)
	jns	.L160
	movl	$1, -120(%rbp)
	negl	-132(%rbp)
.L160:
	movl	-124(%rbp), %eax
	movl	%eax, -96(%rbp)
	addl	$1, -124(%rbp)
	movl	-132(%rbp), %eax
	cltd
	idivl	-136(%rbp)
	movl	%edx, %ecx
	movl	-96(%rbp), %eax
	movslq	%eax, %rdx
	movq	-144(%rbp), %rax
	addq	%rax, %rdx
	movslq	%ecx, %rax
	movzbl	-48(%rbp,%rax), %eax
	movb	%al, (%rdx)
	movl	-132(%rbp), %eax
	cltd
	idivl	-136(%rbp)
	movl	%eax, -132(%rbp)
	cmpl	$0, -132(%rbp)
	jle	.L171
	jmp	.L160
.L171:
	nop
	cmpl	$0, -120(%rbp)
	je	.L161
	movl	-124(%rbp), %eax
	movl	%eax, -92(%rbp)
	addl	$1, -124(%rbp)
	movl	-92(%rbp), %eax
	movslq	%eax, %rdx
	movq	-144(%rbp), %rax
	addq	%rdx, %rax
	movb	$45, (%rax)
.L161:
	movq	_TIG_iO_pjAr_1_str_to_int_1_opaque_ptr_1(%rip), %rdx
	movq	_TIG_iO_pjAr_1_str_to_int_1_opaque_ptr_2(%rip), %rax
	cmpq	%rax, %rdx
	jne	.L163
	movl	-124(%rbp), %eax
	movslq	%eax, %rdx
	movq	-144(%rbp), %rax
	addq	%rdx, %rax
	movb	$0, (%rax)
	movl	$0, -116(%rbp)
	jmp	.L163
.L164:
	movl	-116(%rbp), %eax
	movslq	%eax, %rdx
	movq	-144(%rbp), %rax
	addq	%rdx, %rax
	movzbl	(%rax), %eax
	movb	%al, -125(%rbp)
	movl	-124(%rbp), %eax
	subl	-116(%rbp), %eax
	cltq
	leaq	-1(%rax), %rdx
	movq	-144(%rbp), %rax
	addq	%rdx, %rax
	movl	-116(%rbp), %edx
	movslq	%edx, %rcx
	movq	-144(%rbp), %rdx
	addq	%rcx, %rdx
	movzbl	(%rax), %eax
	movb	%al, (%rdx)
	movl	-124(%rbp), %eax
	subl	-116(%rbp), %eax
	cltq
	leaq	-1(%rax), %rdx
	movq	-144(%rbp), %rax
	addq	%rax, %rdx
	movzbl	-125(%rbp), %eax
	movb	%al, (%rdx)
	addl	$1, -116(%rbp)
.L163:
	movl	-124(%rbp), %eax
	movl	%eax, %edx
	shrl	$31, %edx
	addl	%edx, %eax
	sarl	%eax
	cmpl	%eax, -116(%rbp)
	jl	.L164
	jmp	.L151
.L168:
	nop
	jmp	.L151
.L169:
	nop
	jmp	.L151
.L170:
	nop
.L151:
	movq	-8(%rbp), %rax
	subq	%fs:40, %rax
	je	.L166
	call	__stack_chk_fail@PLT
.L166:
	leave
	.cfi_def_cfa 7, 8
	ret
	.cfi_endproc
.LFE11:
	.size	int_to_base, .-int_to_base
	.section	.rodata
.LC15:
	.string	"Roman: %Ro\n"
.LC16:
	.string	"Zeckendorf: %Zr\n"
.LC17:
	.string	"Base 16: %Cv\n"
.LC18:
	.string	"Base 16 (uppercase): %CV\n"
.LC19:
	.string	"ff"
.LC20:
	.string	"String to int: %to\n"
.LC21:
	.string	"FF"
	.align 8
.LC22:
	.string	"String to int (uppercase): %TO\n"
.LC23:
	.string	"Memory dump (int): %mi\n"
	.align 8
.LC24:
	.string	"Memory dump (unsigned int): %mu\n"
.LC26:
	.string	"Memory dump (double): %md\n"
.LC28:
	.string	"Memory dump (float): %mf\n"
	.text
	.globl	main
	.type	main, @function
main:
.LFB12:
	.cfi_startproc
	endbr64
	pushq	%rbp
	.cfi_def_cfa_offset 16
	.cfi_offset 6, -16
	movq	%rsp, %rbp
	.cfi_def_cfa_register 6
	subq	$64, %rsp
	movl	%edi, -36(%rbp)
	movq	%rsi, -48(%rbp)
	movq	%rdx, -56(%rbp)
	movq	$0, _TIG_IZ_pjAr_envp(%rip)
	nop
.L173:
	movq	$0, _TIG_IZ_pjAr_argv(%rip)
	nop
.L174:
	movl	$0, _TIG_IZ_pjAr_argc(%rip)
	nop
	nop
.L175:
.L176:
#APP
# 177 "Kirsaxg1_02-Programming_9.c" 1
	##_ANNOTATION_INITIALREGION_-TIG-IZ-pjAr--0
# 0 "" 2
#NO_APP
	movl	-36(%rbp), %eax
	movl	%eax, _TIG_IZ_pjAr_argc(%rip)
	movq	-48(%rbp), %rax
	movq	%rax, _TIG_IZ_pjAr_argv(%rip)
	movq	-56(%rbp), %rax
	movq	%rax, _TIG_IZ_pjAr_envp(%rip)
#APP
# 184 "Kirsaxg1_02-Programming_9.c" 1
	##_ANNOTATION_ATOMICREGION_-TIG-iO-pjAr-1-main--19
# 0 "" 2
#NO_APP
	movl	$24, %edi
	call	malloc@PLT
	movq	%rax, -24(%rbp)
	movq	-24(%rbp), %rax
	movq	-24(%rbp), %rdx
	movq	%rdx, 8(%rax)
	movq	-24(%rbp), %rax
	movq	-24(%rbp), %rdx
	movq	%rdx, 16(%rax)
	movq	-24(%rbp), %rax
	movq	%rax, _TIG_iO_pjAr_1_main_1_opaque_list_1(%rip)
	call	rand@PLT
	movl	%eax, -32(%rbp)
	movl	$24, %edi
	call	malloc@PLT
	movq	%rax, -16(%rbp)
	movq	-16(%rbp), %rax
	movl	$0, (%rax)
	movq	_TIG_iO_pjAr_1_main_1_opaque_list_1(%rip), %rax
	movq	8(%rax), %rdx
	movq	-16(%rbp), %rax
	movq	%rdx, 8(%rax)
	movq	_TIG_iO_pjAr_1_main_1_opaque_list_1(%rip), %rdx
	movq	-16(%rbp), %rax
	movq	%rdx, 16(%rax)
	movq	_TIG_iO_pjAr_1_main_1_opaque_list_1(%rip), %rax
	movq	8(%rax), %rax
	movq	-16(%rbp), %rdx
	movq	%rdx, 16(%rax)
	movq	_TIG_iO_pjAr_1_main_1_opaque_list_1(%rip), %rax
	movq	-16(%rbp), %rdx
	movq	%rdx, 8(%rax)
	call	rand@PLT
	movl	%eax, -28(%rbp)
	movl	$24, %edi
	call	malloc@PLT
	movq	%rax, -8(%rbp)
	movq	-8(%rbp), %rax
	movl	-28(%rbp), %edx
	movl	%edx, (%rax)
	movq	_TIG_iO_pjAr_1_main_1_opaque_list_1(%rip), %rax
	movq	8(%rax), %rdx
	movq	-8(%rbp), %rax
	movq	%rdx, 8(%rax)
	movq	_TIG_iO_pjAr_1_main_1_opaque_list_1(%rip), %rdx
	movq	-8(%rbp), %rax
	movq	%rdx, 16(%rax)
	movq	_TIG_iO_pjAr_1_main_1_opaque_list_1(%rip), %rax
	movq	8(%rax), %rax
	movq	-8(%rbp), %rdx
	movq	%rdx, 16(%rax)
	movq	_TIG_iO_pjAr_1_main_1_opaque_list_1(%rip), %rax
	movq	-8(%rbp), %rdx
	movq	%rdx, 8(%rax)
	movq	_TIG_iO_pjAr_1_main_1_opaque_list_1(%rip), %rax
	movq	8(%rax), %rax
	movq	%rax, _TIG_iO_pjAr_1_main_1_opaque_ptr_1(%rip)
	movq	_TIG_iO_pjAr_1_main_1_opaque_ptr_1(%rip), %rax
	movq	%rax, _TIG_iO_pjAr_1_main_1_opaque_ptr_2(%rip)
	nop
	nop
	movl	$2023, %esi
	leaq	.LC15(%rip), %rax
	movq	%rax, %rdi
	movl	$0, %eax
	call	overprintf
	movl	$123, %esi
	leaq	.LC16(%rip), %rax
	movq	%rax, %rdi
	movl	$0, %eax
	call	overprintf
	movl	$16, %edx
	movl	$255, %esi
	leaq	.LC17(%rip), %rax
	movq	%rax, %rdi
	movl	$0, %eax
	call	overprintf
	movl	$16, %edx
	movl	$255, %esi
	leaq	.LC18(%rip), %rax
	movq	%rax, %rdi
	movl	$0, %eax
	call	overprintf
	movl	$16, %edx
	leaq	.LC19(%rip), %rax
	movq	%rax, %rsi
	leaq	.LC20(%rip), %rax
	movq	%rax, %rdi
	movl	$0, %eax
	call	overprintf
	movl	$16, %edx
	leaq	.LC21(%rip), %rax
	movq	%rax, %rsi
	leaq	.LC22(%rip), %rax
	movq	%rax, %rdi
	movl	$0, %eax
	call	overprintf
	movl	$123, %esi
	leaq	.LC23(%rip), %rax
	movq	%rax, %rdi
	movl	$0, %eax
	call	overprintf
	movl	$123, %esi
	leaq	.LC24(%rip), %rax
	movq	%rax, %rdi
	movl	$0, %eax
	call	overprintf
	movq	.LC25(%rip), %rax
	movq	%rax, %xmm0
	leaq	.LC26(%rip), %rax
	movq	%rax, %rdi
	movl	$1, %eax
	call	overprintf
	movq	.LC27(%rip), %rax
	movq	%rax, %xmm0
	leaq	.LC28(%rip), %rax
	movq	%rax, %rdi
	movl	$1, %eax
	call	overprintf
	movq	_TIG_iO_pjAr_1_str_to_int_1_opaque_ptr_1(%rip), %rdx
	movq	_TIG_iO_pjAr_1_str_to_int_1_opaque_ptr_2(%rip), %rax
	cmpq	%rax, %rdx
	je	.L177
	movl	-36(%rbp), %eax
	movl	%eax, %esi
	movl	$0, %edi
	call	str_to_int
	movl	%eax, -36(%rbp)
.L177:
	movl	$0, %eax
	leave
	.cfi_def_cfa 7, 8
	ret
	.cfi_endproc
.LFE12:
	.size	main, .-main
	.section	.rodata
	.align 8
.LC25:
	.long	446676599
	.long	1079958831
	.align 8
.LC27:
	.long	536870912
	.long	1079958831
	.ident	"GCC: (Ubuntu 11.4.0-1ubuntu1~22.04) 11.4.0"
	.section	.note.GNU-stack,"",@progbits
	.section	.note.gnu.property,"a"
	.align 8
	.long	1f - 0f
	.long	4f - 1f
	.long	5
0:
	.string	"GNU"
1:
	.align 8
	.long	0xc0000002
	.long	3f - 2f
2:
	.long	0x3
3:
	.align 8
4:
