	.file	"kswit_Arduino-VT100-I2C-LCD_termios_opaque.c"
	.text
	.globl	_TIG_iO_BKEp_1___bswap_64_1_opaque_list_2
	.bss
	.align 8
	.type	_TIG_iO_BKEp_1___bswap_64_1_opaque_list_2, @object
	.size	_TIG_iO_BKEp_1___bswap_64_1_opaque_list_2, 8
_TIG_iO_BKEp_1___bswap_64_1_opaque_list_2:
	.zero	8
	.globl	_TIG_iO_BKEp_1___uint16_identity_1_opaque_ptr_2
	.align 8
	.type	_TIG_iO_BKEp_1___uint16_identity_1_opaque_ptr_2, @object
	.size	_TIG_iO_BKEp_1___uint16_identity_1_opaque_ptr_2, 8
_TIG_iO_BKEp_1___uint16_identity_1_opaque_ptr_2:
	.zero	8
	.globl	retval
	.align 4
	.type	retval, @object
	.size	retval, 4
retval:
	.zero	4
	.globl	_TIG_IZ_BKEp_envp
	.align 8
	.type	_TIG_IZ_BKEp_envp, @object
	.size	_TIG_IZ_BKEp_envp, 8
_TIG_IZ_BKEp_envp:
	.zero	8
	.globl	_TIG_iO_BKEp_1___bswap_16_1_opaque_ptr_2
	.align 8
	.type	_TIG_iO_BKEp_1___bswap_16_1_opaque_ptr_2, @object
	.size	_TIG_iO_BKEp_1___bswap_16_1_opaque_ptr_2, 8
_TIG_iO_BKEp_1___bswap_16_1_opaque_ptr_2:
	.zero	8
	.globl	_TIG_iO_BKEp_1___bswap_32_1_opaque_list_1
	.align 8
	.type	_TIG_iO_BKEp_1___bswap_32_1_opaque_list_1, @object
	.size	_TIG_iO_BKEp_1___bswap_32_1_opaque_list_1, 8
_TIG_iO_BKEp_1___bswap_32_1_opaque_list_1:
	.zero	8
	.globl	_TIG_IZ_BKEp_argv
	.align 8
	.type	_TIG_IZ_BKEp_argv, @object
	.size	_TIG_IZ_BKEp_argv, 8
_TIG_IZ_BKEp_argv:
	.zero	8
	.globl	_TIG_iO_BKEp_1_main_1_opaque_ptr_1
	.align 8
	.type	_TIG_iO_BKEp_1_main_1_opaque_ptr_1, @object
	.size	_TIG_iO_BKEp_1_main_1_opaque_ptr_1, 8
_TIG_iO_BKEp_1_main_1_opaque_ptr_1:
	.zero	8
	.globl	_TIG_iO_BKEp_1___uint64_identity_1_opaque_ptr_1
	.align 8
	.type	_TIG_iO_BKEp_1___uint64_identity_1_opaque_ptr_1, @object
	.size	_TIG_iO_BKEp_1___uint64_identity_1_opaque_ptr_1, 8
_TIG_iO_BKEp_1___uint64_identity_1_opaque_ptr_1:
	.zero	8
	.globl	_TIG_iO_BKEp_1___uint64_identity_1_opaque_ptr_2
	.align 8
	.type	_TIG_iO_BKEp_1___uint64_identity_1_opaque_ptr_2, @object
	.size	_TIG_iO_BKEp_1___uint64_identity_1_opaque_ptr_2, 8
_TIG_iO_BKEp_1___uint64_identity_1_opaque_ptr_2:
	.zero	8
	.globl	_TIG_iO_BKEp_1___bswap_64_1_opaque_ptr_1
	.align 8
	.type	_TIG_iO_BKEp_1___bswap_64_1_opaque_ptr_1, @object
	.size	_TIG_iO_BKEp_1___bswap_64_1_opaque_ptr_1, 8
_TIG_iO_BKEp_1___bswap_64_1_opaque_ptr_1:
	.zero	8
	.globl	_TIG_iO_BKEp_1___bswap_16_1_opaque_list_1
	.align 8
	.type	_TIG_iO_BKEp_1___bswap_16_1_opaque_list_1, @object
	.size	_TIG_iO_BKEp_1___bswap_16_1_opaque_list_1, 8
_TIG_iO_BKEp_1___bswap_16_1_opaque_list_1:
	.zero	8
	.globl	rfds
	.align 32
	.type	rfds, @object
	.size	rfds, 128
rfds:
	.zero	128
	.globl	_TIG_iO_BKEp_1___bswap_16_1_opaque_list_2
	.align 8
	.type	_TIG_iO_BKEp_1___bswap_16_1_opaque_list_2, @object
	.size	_TIG_iO_BKEp_1___bswap_16_1_opaque_list_2, 8
_TIG_iO_BKEp_1___bswap_16_1_opaque_list_2:
	.zero	8
	.globl	STOP
	.align 4
	.type	STOP, @object
	.size	STOP, 4
STOP:
	.zero	4
	.globl	_TIG_iO_BKEp_1_serial_open_1_opaque_ptr_1
	.align 8
	.type	_TIG_iO_BKEp_1_serial_open_1_opaque_ptr_1, @object
	.size	_TIG_iO_BKEp_1_serial_open_1_opaque_ptr_1, 8
_TIG_iO_BKEp_1_serial_open_1_opaque_ptr_1:
	.zero	8
	.globl	tty
	.align 32
	.type	tty, @object
	.size	tty, 60
tty:
	.zero	60
	.globl	_TIG_iO_BKEp_1_serial_open_1_opaque_ptr_2
	.align 8
	.type	_TIG_iO_BKEp_1_serial_open_1_opaque_ptr_2, @object
	.size	_TIG_iO_BKEp_1_serial_open_1_opaque_ptr_2, 8
_TIG_iO_BKEp_1_serial_open_1_opaque_ptr_2:
	.zero	8
	.globl	_TIG_iO_BKEp_1___uint32_identity_1_opaque_ptr_1
	.align 8
	.type	_TIG_iO_BKEp_1___uint32_identity_1_opaque_ptr_1, @object
	.size	_TIG_iO_BKEp_1___uint32_identity_1_opaque_ptr_1, 8
_TIG_iO_BKEp_1___uint32_identity_1_opaque_ptr_1:
	.zero	8
	.globl	_TIG_iO_BKEp_1___uint16_identity_1_opaque_ptr_1
	.align 8
	.type	_TIG_iO_BKEp_1___uint16_identity_1_opaque_ptr_1, @object
	.size	_TIG_iO_BKEp_1___uint16_identity_1_opaque_ptr_1, 8
_TIG_iO_BKEp_1___uint16_identity_1_opaque_ptr_1:
	.zero	8
	.globl	_TIG_IZ_BKEp_argc
	.align 4
	.type	_TIG_IZ_BKEp_argc, @object
	.size	_TIG_IZ_BKEp_argc, 4
_TIG_IZ_BKEp_argc:
	.zero	4
	.globl	_TIG_iO_BKEp_1_serial_open_1_opaque_list_1
	.align 8
	.type	_TIG_iO_BKEp_1_serial_open_1_opaque_list_1, @object
	.size	_TIG_iO_BKEp_1_serial_open_1_opaque_list_1, 8
_TIG_iO_BKEp_1_serial_open_1_opaque_list_1:
	.zero	8
	.globl	wait_flag
	.align 4
	.type	wait_flag, @object
	.size	wait_flag, 4
wait_flag:
	.zero	4
	.globl	_TIG_iO_BKEp_1___uint32_identity_1_opaque_list_2
	.align 8
	.type	_TIG_iO_BKEp_1___uint32_identity_1_opaque_list_2, @object
	.size	_TIG_iO_BKEp_1___uint32_identity_1_opaque_list_2, 8
_TIG_iO_BKEp_1___uint32_identity_1_opaque_list_2:
	.zero	8
	.globl	_TIG_iO_BKEp_1___uint32_identity_1_opaque_list_1
	.align 8
	.type	_TIG_iO_BKEp_1___uint32_identity_1_opaque_list_1, @object
	.size	_TIG_iO_BKEp_1___uint32_identity_1_opaque_list_1, 8
_TIG_iO_BKEp_1___uint32_identity_1_opaque_list_1:
	.zero	8
	.globl	_TIG_iO_BKEp_1_main_1_opaque_ptr_2
	.align 8
	.type	_TIG_iO_BKEp_1_main_1_opaque_ptr_2, @object
	.size	_TIG_iO_BKEp_1_main_1_opaque_ptr_2, 8
_TIG_iO_BKEp_1_main_1_opaque_ptr_2:
	.zero	8
	.globl	_TIG_iO_BKEp_1___bswap_32_1_opaque_list_2
	.align 8
	.type	_TIG_iO_BKEp_1___bswap_32_1_opaque_list_2, @object
	.size	_TIG_iO_BKEp_1___bswap_32_1_opaque_list_2, 8
_TIG_iO_BKEp_1___bswap_32_1_opaque_list_2:
	.zero	8
	.globl	_TIG_iO_BKEp_1___bswap_64_1_opaque_ptr_2
	.align 8
	.type	_TIG_iO_BKEp_1___bswap_64_1_opaque_ptr_2, @object
	.size	_TIG_iO_BKEp_1___bswap_64_1_opaque_ptr_2, 8
_TIG_iO_BKEp_1___bswap_64_1_opaque_ptr_2:
	.zero	8
	.globl	read_buf
	.align 32
	.type	read_buf, @object
	.size	read_buf, 256
read_buf:
	.zero	256
	.globl	_TIG_iO_BKEp_1___uint32_identity_1_opaque_ptr_2
	.align 8
	.type	_TIG_iO_BKEp_1___uint32_identity_1_opaque_ptr_2, @object
	.size	_TIG_iO_BKEp_1___uint32_identity_1_opaque_ptr_2, 8
_TIG_iO_BKEp_1___uint32_identity_1_opaque_ptr_2:
	.zero	8
	.globl	_TIG_iO_BKEp_1___uint64_identity_1_opaque_list_2
	.align 8
	.type	_TIG_iO_BKEp_1___uint64_identity_1_opaque_list_2, @object
	.size	_TIG_iO_BKEp_1___uint64_identity_1_opaque_list_2, 8
_TIG_iO_BKEp_1___uint64_identity_1_opaque_list_2:
	.zero	8
	.globl	_TIG_iO_BKEp_1___bswap_64_1_opaque_list_1
	.align 8
	.type	_TIG_iO_BKEp_1___bswap_64_1_opaque_list_1, @object
	.size	_TIG_iO_BKEp_1___bswap_64_1_opaque_list_1, 8
_TIG_iO_BKEp_1___bswap_64_1_opaque_list_1:
	.zero	8
	.globl	_TIG_iO_BKEp_1_main_1_opaque_list_2
	.align 8
	.type	_TIG_iO_BKEp_1_main_1_opaque_list_2, @object
	.size	_TIG_iO_BKEp_1_main_1_opaque_list_2, 8
_TIG_iO_BKEp_1_main_1_opaque_list_2:
	.zero	8
	.globl	_TIG_iO_BKEp_1___bswap_32_1_opaque_ptr_1
	.align 8
	.type	_TIG_iO_BKEp_1___bswap_32_1_opaque_ptr_1, @object
	.size	_TIG_iO_BKEp_1___bswap_32_1_opaque_ptr_1, 8
_TIG_iO_BKEp_1___bswap_32_1_opaque_ptr_1:
	.zero	8
	.globl	_TIG_iO_BKEp_1_main_1_opaque_list_1
	.align 8
	.type	_TIG_iO_BKEp_1_main_1_opaque_list_1, @object
	.size	_TIG_iO_BKEp_1_main_1_opaque_list_1, 8
_TIG_iO_BKEp_1_main_1_opaque_list_1:
	.zero	8
	.globl	_TIG_iO_BKEp_1___uint16_identity_1_opaque_list_2
	.align 8
	.type	_TIG_iO_BKEp_1___uint16_identity_1_opaque_list_2, @object
	.size	_TIG_iO_BKEp_1___uint16_identity_1_opaque_list_2, 8
_TIG_iO_BKEp_1___uint16_identity_1_opaque_list_2:
	.zero	8
	.globl	_TIG_iO_BKEp_1___uint16_identity_1_opaque_list_1
	.align 8
	.type	_TIG_iO_BKEp_1___uint16_identity_1_opaque_list_1, @object
	.size	_TIG_iO_BKEp_1___uint16_identity_1_opaque_list_1, 8
_TIG_iO_BKEp_1___uint16_identity_1_opaque_list_1:
	.zero	8
	.globl	_TIG_iO_BKEp_1___bswap_32_1_opaque_ptr_2
	.align 8
	.type	_TIG_iO_BKEp_1___bswap_32_1_opaque_ptr_2, @object
	.size	_TIG_iO_BKEp_1___bswap_32_1_opaque_ptr_2, 8
_TIG_iO_BKEp_1___bswap_32_1_opaque_ptr_2:
	.zero	8
	.globl	tv
	.align 16
	.type	tv, @object
	.size	tv, 16
tv:
	.zero	16
	.globl	_TIG_iO_BKEp_1___bswap_16_1_opaque_ptr_1
	.align 8
	.type	_TIG_iO_BKEp_1___bswap_16_1_opaque_ptr_1, @object
	.size	_TIG_iO_BKEp_1___bswap_16_1_opaque_ptr_1, 8
_TIG_iO_BKEp_1___bswap_16_1_opaque_ptr_1:
	.zero	8
	.globl	_TIG_iO_BKEp_1___uint64_identity_1_opaque_list_1
	.align 8
	.type	_TIG_iO_BKEp_1___uint64_identity_1_opaque_list_1, @object
	.size	_TIG_iO_BKEp_1___uint64_identity_1_opaque_list_1, 8
_TIG_iO_BKEp_1___uint64_identity_1_opaque_list_1:
	.zero	8
	.globl	_TIG_iO_BKEp_1_serial_open_1_opaque_list_2
	.align 8
	.type	_TIG_iO_BKEp_1_serial_open_1_opaque_list_2, @object
	.size	_TIG_iO_BKEp_1_serial_open_1_opaque_list_2, 8
_TIG_iO_BKEp_1_serial_open_1_opaque_list_2:
	.zero	8
	.text
	.globl	serial_open
	.type	serial_open, @function
serial_open:
.LFB3:
	.cfi_startproc
	endbr64
	pushq	%rbp
	.cfi_def_cfa_offset 16
	.cfi_offset 6, -16
	movq	%rsp, %rbp
	.cfi_def_cfa_register 6
	subq	$64, %rsp
	movq	%rdi, -56(%rbp)
	movl	%esi, -60(%rbp)
#APP
# 92 "/usr/include/x86_64-linux-gnu/bits/byteswap.h" 1
	##_ANNOTATION_INITIALREGION_-TIG-iO-BKEp-1-serial-open--16
# 0 "" 2
# 96 "/usr/include/x86_64-linux-gnu/bits/byteswap.h" 1
	##_ANNOTATION_ATOMICREGION_-TIG-iO-BKEp-1-serial-open--15
# 0 "" 2
#NO_APP
	movl	$24, %edi
	call	malloc@PLT
	movq	%rax, -24(%rbp)
	movq	-24(%rbp), %rax
	movq	-24(%rbp), %rdx
	movq	%rdx, 16(%rax)
	movq	-24(%rbp), %rax
	movq	-24(%rbp), %rdx
	movq	%rdx, 8(%rax)
	movq	-24(%rbp), %rax
	movq	%rax, _TIG_iO_BKEp_1_serial_open_1_opaque_list_1(%rip)
	call	rand@PLT
	movl	%eax, -44(%rbp)
	movl	$24, %edi
	call	malloc@PLT
	movq	%rax, -16(%rbp)
	movq	-16(%rbp), %rax
	movl	$0, (%rax)
	movq	_TIG_iO_BKEp_1_serial_open_1_opaque_list_1(%rip), %rax
	movq	16(%rax), %rdx
	movq	-16(%rbp), %rax
	movq	%rdx, 16(%rax)
	movq	_TIG_iO_BKEp_1_serial_open_1_opaque_list_1(%rip), %rdx
	movq	-16(%rbp), %rax
	movq	%rdx, 8(%rax)
	movq	_TIG_iO_BKEp_1_serial_open_1_opaque_list_1(%rip), %rax
	movq	16(%rax), %rax
	movq	-16(%rbp), %rdx
	movq	%rdx, 8(%rax)
	movq	_TIG_iO_BKEp_1_serial_open_1_opaque_list_1(%rip), %rax
	movq	-16(%rbp), %rdx
	movq	%rdx, 16(%rax)
	call	rand@PLT
	movl	%eax, -40(%rbp)
	movl	$24, %edi
	call	malloc@PLT
	movq	%rax, -8(%rbp)
	movq	-8(%rbp), %rax
	movl	-40(%rbp), %edx
	movl	%edx, (%rax)
	movq	_TIG_iO_BKEp_1_serial_open_1_opaque_list_1(%rip), %rax
	movq	16(%rax), %rdx
	movq	-8(%rbp), %rax
	movq	%rdx, 16(%rax)
	movq	_TIG_iO_BKEp_1_serial_open_1_opaque_list_1(%rip), %rdx
	movq	-8(%rbp), %rax
	movq	%rdx, 8(%rax)
	movq	_TIG_iO_BKEp_1_serial_open_1_opaque_list_1(%rip), %rax
	movq	16(%rax), %rax
	movq	-8(%rbp), %rdx
	movq	%rdx, 8(%rax)
	movq	_TIG_iO_BKEp_1_serial_open_1_opaque_list_1(%rip), %rax
	movq	-8(%rbp), %rdx
	movq	%rdx, 16(%rax)
	movq	_TIG_iO_BKEp_1_serial_open_1_opaque_list_1(%rip), %rax
	movq	16(%rax), %rax
	movq	%rax, _TIG_iO_BKEp_1_serial_open_1_opaque_ptr_1(%rip)
	movq	_TIG_iO_BKEp_1_serial_open_1_opaque_ptr_1(%rip), %rax
	movq	%rax, _TIG_iO_BKEp_1_serial_open_1_opaque_ptr_2(%rip)
	nop
	nop
	movq	-56(%rbp), %rax
	movl	$2306, %esi
	movq	%rax, %rdi
	movl	$0, %eax
	call	open@PLT
	movl	%eax, -36(%rbp)
	cmpl	$0, -36(%rbp)
	jns	.L2
	movl	$-1, %eax
	jmp	.L3
.L2:
	movl	-36(%rbp), %eax
	leaq	tty(%rip), %rdx
	movq	%rdx, %rsi
	movl	%eax, %edi
	call	tcgetattr@PLT
	movl	%eax, -32(%rbp)
	movq	_TIG_iO_BKEp_1_serial_open_1_opaque_ptr_1(%rip), %rdx
	movq	_TIG_iO_BKEp_1_serial_open_1_opaque_ptr_2(%rip), %rax
	cmpq	%rax, %rdx
	jne	.L4
	cmpl	$0, -32(%rbp)
	jns	.L4
	movl	$-1, %eax
	jmp	.L3
.L4:
	movl	-60(%rbp), %eax
	movl	%eax, %esi
	leaq	tty(%rip), %rax
	movq	%rax, %rdi
	call	cfsetospeed@PLT
	movl	-60(%rbp), %eax
	movl	%eax, %esi
	leaq	tty(%rip), %rax
	movq	%rax, %rdi
	call	cfsetispeed@PLT
	movl	8+tty(%rip), %eax
	andl	$-65, %eax
	movl	%eax, 8+tty(%rip)
	movl	8+tty(%rip), %eax
	andl	$-49, %eax
	movl	%eax, 8+tty(%rip)
	movl	8+tty(%rip), %eax
	orl	$48, %eax
	movl	%eax, 8+tty(%rip)
	movl	8+tty(%rip), %eax
	andl	$2147483647, %eax
	movl	%eax, 8+tty(%rip)
	movl	8+tty(%rip), %eax
	orl	$2176, %eax
	movl	%eax, 8+tty(%rip)
	movl	8+tty(%rip), %eax
	andb	$-4, %ah
	movl	%eax, 8+tty(%rip)
	movl	12+tty(%rip), %eax
	andl	$-3, %eax
	movl	%eax, 12+tty(%rip)
	movl	12+tty(%rip), %eax
	andl	$-9, %eax
	movl	%eax, 12+tty(%rip)
	movl	12+tty(%rip), %eax
	andl	$-17, %eax
	movl	%eax, 12+tty(%rip)
	movl	12+tty(%rip), %eax
	andl	$-65, %eax
	movl	%eax, 12+tty(%rip)
	movl	12+tty(%rip), %eax
	orl	$1, %eax
	movl	%eax, 12+tty(%rip)
	movl	tty(%rip), %eax
	andb	$-29, %ah
	movl	%eax, tty(%rip)
	movl	tty(%rip), %eax
	andl	$-492, %eax
	movl	%eax, tty(%rip)
	movl	4+tty(%rip), %eax
	andl	$-5, %eax
	movl	%eax, 4+tty(%rip)
	movl	8+tty(%rip), %eax
	andb	$-5, %ah
	movl	%eax, 8+tty(%rip)
	movb	$17, 25+tty(%rip)
	movb	$19, 26+tty(%rip)
	movb	$0, 22+tty(%rip)
	movb	$0, 23+tty(%rip)
	movl	-36(%rbp), %eax
	leaq	tty(%rip), %rdx
	movl	$0, %esi
	movl	%eax, %edi
	call	tcsetattr@PLT
	movl	%eax, -28(%rbp)
	cmpl	$0, -28(%rbp)
	je	.L5
	movl	$-1, %eax
	jmp	.L3
.L5:
	movl	-36(%rbp), %eax
.L3:
	leave
	.cfi_def_cfa 7, 8
	ret
	.cfi_endproc
.LFE3:
	.size	serial_open, .-serial_open
	.section	.rodata
.LC0:
	.string	"input buff=0x%x \n"
.LC1:
	.string	"write %d,%d "
.LC2:
	.string	"stop %d ,%d"
	.text
	.globl	main
	.type	main, @function
main:
.LFB6:
	.cfi_startproc
	endbr64
	pushq	%rbp
	.cfi_def_cfa_offset 16
	.cfi_offset 6, -16
	movq	%rsp, %rbp
	.cfi_def_cfa_register 6
	subq	$160, %rsp
	movl	%edi, -132(%rbp)
	movq	%rsi, -144(%rbp)
	movq	%rdx, -152(%rbp)
	movq	%fs:40, %rax
	movq	%rax, -8(%rbp)
	xorl	%eax, %eax
	movl	$0, tty(%rip)
	movl	$0, 4+tty(%rip)
	movl	$0, 8+tty(%rip)
	movl	$0, 12+tty(%rip)
	movb	$0, 16+tty(%rip)
	movb	$0, 17+tty(%rip)
	movb	$0, 18+tty(%rip)
	movb	$0, 19+tty(%rip)
	movb	$0, 20+tty(%rip)
	movb	$0, 21+tty(%rip)
	movb	$0, 22+tty(%rip)
	movb	$0, 23+tty(%rip)
	movb	$0, 24+tty(%rip)
	movb	$0, 25+tty(%rip)
	movb	$0, 26+tty(%rip)
	movb	$0, 27+tty(%rip)
	movb	$0, 28+tty(%rip)
	movb	$0, 29+tty(%rip)
	movb	$0, 30+tty(%rip)
	movb	$0, 31+tty(%rip)
	movb	$0, 32+tty(%rip)
	movb	$0, 33+tty(%rip)
	movb	$0, 34+tty(%rip)
	movb	$0, 35+tty(%rip)
	movb	$0, 36+tty(%rip)
	movb	$0, 37+tty(%rip)
	movb	$0, 38+tty(%rip)
	movb	$0, 39+tty(%rip)
	movb	$0, 40+tty(%rip)
	movb	$0, 41+tty(%rip)
	movb	$0, 42+tty(%rip)
	movb	$0, 43+tty(%rip)
	movb	$0, 44+tty(%rip)
	movb	$0, 45+tty(%rip)
	movb	$0, 46+tty(%rip)
	movb	$0, 47+tty(%rip)
	movb	$0, 48+tty(%rip)
	movl	$0, 52+tty(%rip)
	movl	$0, 56+tty(%rip)
	nop
.L7:
	movl	$1, wait_flag(%rip)
	nop
.L8:
	movl	$0, retval(%rip)
	nop
.L9:
	movq	$0, tv(%rip)
	movq	$0, 8+tv(%rip)
	nop
.L10:
	movq	$0, rfds(%rip)
	movq	$0, 8+rfds(%rip)
	movq	$0, 16+rfds(%rip)
	movq	$0, 24+rfds(%rip)
	movq	$0, 32+rfds(%rip)
	movq	$0, 40+rfds(%rip)
	movq	$0, 48+rfds(%rip)
	movq	$0, 56+rfds(%rip)
	movq	$0, 64+rfds(%rip)
	movq	$0, 72+rfds(%rip)
	movq	$0, 80+rfds(%rip)
	movq	$0, 88+rfds(%rip)
	movq	$0, 96+rfds(%rip)
	movq	$0, 104+rfds(%rip)
	movq	$0, 112+rfds(%rip)
	movq	$0, 120+rfds(%rip)
	nop
.L11:
	movl	$0, STOP(%rip)
	nop
.L12:
	movl	$0, -120(%rbp)
	jmp	.L13
.L14:
	movl	-120(%rbp), %eax
	cltq
	leaq	read_buf(%rip), %rdx
	movb	$0, (%rax,%rdx)
	addl	$1, -120(%rbp)
.L13:
	cmpl	$255, -120(%rbp)
	jle	.L14
	nop
.L15:
	movq	$0, _TIG_IZ_BKEp_envp(%rip)
	nop
.L16:
	movq	$0, _TIG_IZ_BKEp_argv(%rip)
	nop
.L17:
	movl	$0, _TIG_IZ_BKEp_argc(%rip)
	nop
	nop
.L18:
.L19:
#APP
# 213 "/usr/include/x86_64-linux-gnu/bits/uintn-identity.h" 1
	##_ANNOTATION_INITIALREGION_-TIG-IZ-BKEp--0
# 0 "" 2
#NO_APP
	movl	-132(%rbp), %eax
	movl	%eax, _TIG_IZ_BKEp_argc(%rip)
	movq	-144(%rbp), %rax
	movq	%rax, _TIG_IZ_BKEp_argv(%rip)
	movq	-152(%rbp), %rax
	movq	%rax, _TIG_IZ_BKEp_envp(%rip)
#APP
# 220 "/usr/include/x86_64-linux-gnu/bits/uintn-identity.h" 1
	##_ANNOTATION_ATOMICREGION_-TIG-iO-BKEp-1-main--13
# 0 "" 2
#NO_APP
	movl	$24, %edi
	call	malloc@PLT
	movq	%rax, -72(%rbp)
	movq	-72(%rbp), %rax
	movq	-72(%rbp), %rdx
	movq	%rdx, (%rax)
	movq	-72(%rbp), %rax
	movq	-72(%rbp), %rdx
	movq	%rdx, 8(%rax)
	movq	-72(%rbp), %rax
	movq	%rax, _TIG_iO_BKEp_1_main_1_opaque_list_1(%rip)
	call	rand@PLT
	movl	%eax, -100(%rbp)
	movl	$24, %edi
	call	malloc@PLT
	movq	%rax, -64(%rbp)
	movq	-64(%rbp), %rax
	movl	$0, 16(%rax)
	movq	_TIG_iO_BKEp_1_main_1_opaque_list_1(%rip), %rax
	movq	(%rax), %rdx
	movq	-64(%rbp), %rax
	movq	%rdx, (%rax)
	movq	_TIG_iO_BKEp_1_main_1_opaque_list_1(%rip), %rdx
	movq	-64(%rbp), %rax
	movq	%rdx, 8(%rax)
	movq	_TIG_iO_BKEp_1_main_1_opaque_list_1(%rip), %rax
	movq	(%rax), %rax
	movq	-64(%rbp), %rdx
	movq	%rdx, 8(%rax)
	movq	_TIG_iO_BKEp_1_main_1_opaque_list_1(%rip), %rax
	movq	-64(%rbp), %rdx
	movq	%rdx, (%rax)
	call	rand@PLT
	movl	%eax, -96(%rbp)
	movl	$24, %edi
	call	malloc@PLT
	movq	%rax, -56(%rbp)
	movq	-56(%rbp), %rax
	movl	-96(%rbp), %edx
	movl	%edx, 16(%rax)
	movq	_TIG_iO_BKEp_1_main_1_opaque_list_1(%rip), %rax
	movq	(%rax), %rdx
	movq	-56(%rbp), %rax
	movq	%rdx, (%rax)
	movq	_TIG_iO_BKEp_1_main_1_opaque_list_1(%rip), %rdx
	movq	-56(%rbp), %rax
	movq	%rdx, 8(%rax)
	movq	_TIG_iO_BKEp_1_main_1_opaque_list_1(%rip), %rax
	movq	(%rax), %rax
	movq	-56(%rbp), %rdx
	movq	%rdx, 8(%rax)
	movq	_TIG_iO_BKEp_1_main_1_opaque_list_1(%rip), %rax
	movq	-56(%rbp), %rdx
	movq	%rdx, (%rax)
	call	rand@PLT
	movl	%eax, -92(%rbp)
	movl	$24, %edi
	call	malloc@PLT
	movq	%rax, -48(%rbp)
	movl	-92(%rbp), %eax
	leal	(%rax,%rax), %edx
	movq	-48(%rbp), %rax
	movl	%edx, 16(%rax)
	movq	_TIG_iO_BKEp_1_main_1_opaque_list_1(%rip), %rax
	movq	(%rax), %rdx
	movq	-48(%rbp), %rax
	movq	%rdx, (%rax)
	movq	_TIG_iO_BKEp_1_main_1_opaque_list_1(%rip), %rdx
	movq	-48(%rbp), %rax
	movq	%rdx, 8(%rax)
	movq	_TIG_iO_BKEp_1_main_1_opaque_list_1(%rip), %rax
	movq	(%rax), %rax
	movq	-48(%rbp), %rdx
	movq	%rdx, 8(%rax)
	movq	_TIG_iO_BKEp_1_main_1_opaque_list_1(%rip), %rax
	movq	-48(%rbp), %rdx
	movq	%rdx, (%rax)
	call	rand@PLT
	movl	%eax, -88(%rbp)
	movl	$24, %edi
	call	malloc@PLT
	movq	%rax, -40(%rbp)
	movl	-88(%rbp), %edx
	movl	%edx, %eax
	addl	%eax, %eax
	addl	%eax, %edx
	movq	-40(%rbp), %rax
	movl	%edx, 16(%rax)
	movq	_TIG_iO_BKEp_1_main_1_opaque_list_1(%rip), %rax
	movq	(%rax), %rdx
	movq	-40(%rbp), %rax
	movq	%rdx, (%rax)
	movq	_TIG_iO_BKEp_1_main_1_opaque_list_1(%rip), %rdx
	movq	-40(%rbp), %rax
	movq	%rdx, 8(%rax)
	movq	_TIG_iO_BKEp_1_main_1_opaque_list_1(%rip), %rax
	movq	(%rax), %rax
	movq	-40(%rbp), %rdx
	movq	%rdx, 8(%rax)
	movq	_TIG_iO_BKEp_1_main_1_opaque_list_1(%rip), %rax
	movq	-40(%rbp), %rdx
	movq	%rdx, (%rax)
	movq	_TIG_iO_BKEp_1_main_1_opaque_list_1(%rip), %rax
	movq	(%rax), %rax
	movq	%rax, _TIG_iO_BKEp_1_main_1_opaque_ptr_1(%rip)
	movq	_TIG_iO_BKEp_1_main_1_opaque_ptr_1(%rip), %rax
	movq	%rax, _TIG_iO_BKEp_1_main_1_opaque_ptr_2(%rip)
	movq	_TIG_iO_BKEp_1_main_1_opaque_ptr_2(%rip), %rax
	movq	(%rax), %rax
	movq	%rax, _TIG_iO_BKEp_1_main_1_opaque_ptr_2(%rip)
	nop
	nop
	movq	_TIG_iO_BKEp_1_serial_open_1_opaque_ptr_1(%rip), %rdx
	movq	_TIG_iO_BKEp_1_serial_open_1_opaque_ptr_2(%rip), %rax
	cmpq	%rax, %rdx
	jne	.L20
	movb	$97, -128(%rbp)
	movb	$68, -126(%rbp)
	movb	$17, -125(%rbp)
	movq	-144(%rbp), %rax
	addq	$8, %rax
	movq	(%rax), %rax
	movl	$13, %esi
	movq	%rax, %rdi
	call	serial_open
	movl	%eax, -116(%rbp)
.L20:
	cmpl	$0, -116(%rbp)
	jle	.L21
	leaq	rfds(%rip), %rax
	movq	%rax, -32(%rbp)
	movl	$0, -112(%rbp)
	jmp	.L22
.L23:
	movq	-32(%rbp), %rax
	movl	-112(%rbp), %edx
	movq	$0, (%rax,%rdx,8)
	addl	$1, -112(%rbp)
.L22:
	cmpl	$15, -112(%rbp)
	jbe	.L23
	nop
	movl	-116(%rbp), %eax
	leal	63(%rax), %edx
	testl	%eax, %eax
	cmovs	%edx, %eax
	sarl	$6, %eax
	movslq	%eax, %rdx
	leaq	0(,%rdx,8), %rcx
	leaq	rfds(%rip), %rdx
	movq	(%rcx,%rdx), %rsi
	movl	-116(%rbp), %edx
	andl	$63, %edx
	movl	$1, %edi
	movl	%edx, %ecx
	salq	%cl, %rdi
	movq	%rdi, %rdx
	movq	%rsi, %rcx
	orq	%rdx, %rcx
	cltq
	leaq	0(,%rax,8), %rdx
	leaq	rfds(%rip), %rax
	movq	%rcx, (%rdx,%rax)
	movq	$5, tv(%rip)
	movq	$0, 8+tv(%rip)
	movl	$5, %edi
	call	sleep@PLT
	movl	-116(%rbp), %eax
	movl	$3, %esi
	movl	%eax, %edi
	call	tcflow@PLT
	movl	$0, -108(%rbp)
	movl	$0, -104(%rbp)
	jmp	.L25
.L21:
	movl	$1, %edi
	call	exit@PLT
.L30:
	movl	-116(%rbp), %eax
	movl	$256, %edx
	leaq	read_buf(%rip), %rcx
	movq	%rcx, %rsi
	movl	%eax, %edi
	call	read@PLT
	movq	%rax, -24(%rbp)
	movq	-24(%rbp), %rax
	movl	%eax, -84(%rbp)
	leaq	-128(%rbp), %rcx
	movl	-116(%rbp), %eax
	movl	$1, %edx
	movq	%rcx, %rsi
	movl	%eax, %edi
	call	write@PLT
	movq	%rax, -16(%rbp)
	movq	-16(%rbp), %rax
	movl	%eax, -124(%rbp)
	movl	-124(%rbp), %eax
	testl	%eax, %eax
	jle	.L26
	movzbl	read_buf(%rip), %eax
	cmpb	$19, %al
	jne	.L27
	movl	$1, %edi
	call	sleep@PLT
.L27:
	movzbl	read_buf(%rip), %eax
	movsbl	%al, %eax
	movl	%eax, %esi
	leaq	.LC0(%rip), %rax
	movq	%rax, %rdi
	movl	$0, %eax
	call	printf@PLT
	movl	-108(%rbp), %eax
	movl	%eax, -80(%rbp)
	addl	$1, -108(%rbp)
	movl	-104(%rbp), %edx
	movl	-80(%rbp), %eax
	movl	%eax, %esi
	leaq	.LC1(%rip), %rax
	movq	%rax, %rdi
	movl	$0, %eax
	call	printf@PLT
	movl	-116(%rbp), %eax
	movl	%eax, %edi
	call	tcdrain@PLT
	cmpl	$0, -76(%rbp)
	jle	.L28
	movb	$0, -127(%rbp)
	jmp	.L28
.L26:
	movzbl	-127(%rbp), %eax
	xorl	$1, %eax
	testb	%al, %al
	je	.L29
	movl	-116(%rbp), %eax
	movl	$0, %esi
	movl	%eax, %edi
	call	tcflow@PLT
.L29:
	movzbl	-127(%rbp), %edx
	movl	-124(%rbp), %eax
	movl	%eax, %esi
	leaq	.LC2(%rip), %rax
	movq	%rax, %rdi
	movl	$0, %eax
	call	printf@PLT
	movl	$0, %edi
	call	sleep@PLT
	movl	$1, -124(%rbp)
	movl	$0, -108(%rbp)
	movl	-116(%rbp), %eax
	leaq	tty(%rip), %rdx
	movl	$2, %esi
	movl	%eax, %edi
	call	tcsetattr@PLT
.L28:
	addl	$1, -104(%rbp)
.L25:
	cmpl	$149, -104(%rbp)
	jle	.L30
	movl	-116(%rbp), %eax
	movl	%eax, %edi
	call	close@PLT
	movl	$0, %eax
	movq	-8(%rbp), %rdx
	subq	%fs:40, %rdx
	je	.L32
	call	__stack_chk_fail@PLT
.L32:
	leave
	.cfi_def_cfa 7, 8
	ret
	.cfi_endproc
.LFE6:
	.size	main, .-main
	.ident	"GCC: (Ubuntu 11.4.0-1ubuntu1~22.04) 11.4.0"
	.section	.note.GNU-stack,"",@progbits
	.section	.note.gnu.property,"a"
	.align 8
	.long	1f - 0f
	.long	4f - 1f
	.long	5
0:
	.string	"GNU"
1:
	.align 8
	.long	0xc0000002
	.long	3f - 2f
2:
	.long	0x3
3:
	.align 8
4:
