	.file	"Kunwar-Yuvraj_ada-lab_2_opaque.c"
	.text
	.globl	_TIG_iO_l4N8_1___bswap_16_1_opaque_ptr_2
	.bss
	.align 8
	.type	_TIG_iO_l4N8_1___bswap_16_1_opaque_ptr_2, @object
	.size	_TIG_iO_l4N8_1___bswap_16_1_opaque_ptr_2, 8
_TIG_iO_l4N8_1___bswap_16_1_opaque_ptr_2:
	.zero	8
	.globl	_TIG_iO_l4N8_1_writeFiles_1_opaque_list_1
	.align 8
	.type	_TIG_iO_l4N8_1_writeFiles_1_opaque_list_1, @object
	.size	_TIG_iO_l4N8_1_writeFiles_1_opaque_list_1, 8
_TIG_iO_l4N8_1_writeFiles_1_opaque_list_1:
	.zero	8
	.globl	_TIG_iO_l4N8_1___bswap_32_1_opaque_list_2
	.align 8
	.type	_TIG_iO_l4N8_1___bswap_32_1_opaque_list_2, @object
	.size	_TIG_iO_l4N8_1___bswap_32_1_opaque_list_2, 8
_TIG_iO_l4N8_1___bswap_32_1_opaque_list_2:
	.zero	8
	.globl	_TIG_iO_l4N8_1_plotter_1_opaque_list_1
	.align 8
	.type	_TIG_iO_l4N8_1_plotter_1_opaque_list_1, @object
	.size	_TIG_iO_l4N8_1_plotter_1_opaque_list_1, 8
_TIG_iO_l4N8_1_plotter_1_opaque_list_1:
	.zero	8
	.globl	_TIG_iO_l4N8_1___bswap_32_1_opaque_ptr_2
	.align 8
	.type	_TIG_iO_l4N8_1___bswap_32_1_opaque_ptr_2, @object
	.size	_TIG_iO_l4N8_1___bswap_32_1_opaque_ptr_2, 8
_TIG_iO_l4N8_1___bswap_32_1_opaque_ptr_2:
	.zero	8
	.globl	_TIG_iO_l4N8_1___bswap_16_1_opaque_list_1
	.align 8
	.type	_TIG_iO_l4N8_1___bswap_16_1_opaque_list_1, @object
	.size	_TIG_iO_l4N8_1___bswap_16_1_opaque_list_1, 8
_TIG_iO_l4N8_1___bswap_16_1_opaque_list_1:
	.zero	8
	.globl	_TIG_iO_l4N8_1___uint16_identity_1_opaque_list_2
	.align 8
	.type	_TIG_iO_l4N8_1___uint16_identity_1_opaque_list_2, @object
	.size	_TIG_iO_l4N8_1___uint16_identity_1_opaque_list_2, 8
_TIG_iO_l4N8_1___uint16_identity_1_opaque_list_2:
	.zero	8
	.globl	_TIG_iO_l4N8_1_linearSearch_1_opaque_ptr_2
	.align 8
	.type	_TIG_iO_l4N8_1_linearSearch_1_opaque_ptr_2, @object
	.size	_TIG_iO_l4N8_1_linearSearch_1_opaque_ptr_2, 8
_TIG_iO_l4N8_1_linearSearch_1_opaque_ptr_2:
	.zero	8
	.globl	_TIG_iO_l4N8_1___uint64_identity_1_opaque_list_1
	.align 8
	.type	_TIG_iO_l4N8_1___uint64_identity_1_opaque_list_1, @object
	.size	_TIG_iO_l4N8_1___uint64_identity_1_opaque_list_1, 8
_TIG_iO_l4N8_1___uint64_identity_1_opaque_list_1:
	.zero	8
	.globl	_TIG_iO_l4N8_1___uint32_identity_1_opaque_list_1
	.align 8
	.type	_TIG_iO_l4N8_1___uint32_identity_1_opaque_list_1, @object
	.size	_TIG_iO_l4N8_1___uint32_identity_1_opaque_list_1, 8
_TIG_iO_l4N8_1___uint32_identity_1_opaque_list_1:
	.zero	8
	.globl	_TIG_iO_l4N8_1_binarySearch_1_opaque_list_1
	.align 8
	.type	_TIG_iO_l4N8_1_binarySearch_1_opaque_list_1, @object
	.size	_TIG_iO_l4N8_1_binarySearch_1_opaque_list_1, 8
_TIG_iO_l4N8_1_binarySearch_1_opaque_list_1:
	.zero	8
	.globl	_TIG_iO_l4N8_1_linearSearch_1_opaque_list_1
	.align 8
	.type	_TIG_iO_l4N8_1_linearSearch_1_opaque_list_1, @object
	.size	_TIG_iO_l4N8_1_linearSearch_1_opaque_list_1, 8
_TIG_iO_l4N8_1_linearSearch_1_opaque_list_1:
	.zero	8
	.globl	_TIG_iO_l4N8_1___bswap_64_1_opaque_list_1
	.align 8
	.type	_TIG_iO_l4N8_1___bswap_64_1_opaque_list_1, @object
	.size	_TIG_iO_l4N8_1___bswap_64_1_opaque_list_1, 8
_TIG_iO_l4N8_1___bswap_64_1_opaque_list_1:
	.zero	8
	.globl	_TIG_iO_l4N8_1___bswap_16_1_opaque_list_2
	.align 8
	.type	_TIG_iO_l4N8_1___bswap_16_1_opaque_list_2, @object
	.size	_TIG_iO_l4N8_1___bswap_16_1_opaque_list_2, 8
_TIG_iO_l4N8_1___bswap_16_1_opaque_list_2:
	.zero	8
	.globl	_TIG_iO_l4N8_1___bswap_64_1_opaque_list_2
	.align 8
	.type	_TIG_iO_l4N8_1___bswap_64_1_opaque_list_2, @object
	.size	_TIG_iO_l4N8_1___bswap_64_1_opaque_list_2, 8
_TIG_iO_l4N8_1___bswap_64_1_opaque_list_2:
	.zero	8
	.globl	_TIG_iO_l4N8_1_binarySearch_1_opaque_list_2
	.align 8
	.type	_TIG_iO_l4N8_1_binarySearch_1_opaque_list_2, @object
	.size	_TIG_iO_l4N8_1_binarySearch_1_opaque_list_2, 8
_TIG_iO_l4N8_1_binarySearch_1_opaque_list_2:
	.zero	8
	.globl	_TIG_iO_l4N8_1_main_1_opaque_list_2
	.align 8
	.type	_TIG_iO_l4N8_1_main_1_opaque_list_2, @object
	.size	_TIG_iO_l4N8_1_main_1_opaque_list_2, 8
_TIG_iO_l4N8_1_main_1_opaque_list_2:
	.zero	8
	.globl	_TIG_iO_l4N8_1_binarySearch_1_opaque_ptr_1
	.align 8
	.type	_TIG_iO_l4N8_1_binarySearch_1_opaque_ptr_1, @object
	.size	_TIG_iO_l4N8_1_binarySearch_1_opaque_ptr_1, 8
_TIG_iO_l4N8_1_binarySearch_1_opaque_ptr_1:
	.zero	8
	.globl	_TIG_iO_l4N8_1___uint64_identity_1_opaque_ptr_1
	.align 8
	.type	_TIG_iO_l4N8_1___uint64_identity_1_opaque_ptr_1, @object
	.size	_TIG_iO_l4N8_1___uint64_identity_1_opaque_ptr_1, 8
_TIG_iO_l4N8_1___uint64_identity_1_opaque_ptr_1:
	.zero	8
	.globl	_TIG_iO_l4N8_1___uint64_identity_1_opaque_ptr_2
	.align 8
	.type	_TIG_iO_l4N8_1___uint64_identity_1_opaque_ptr_2, @object
	.size	_TIG_iO_l4N8_1___uint64_identity_1_opaque_ptr_2, 8
_TIG_iO_l4N8_1___uint64_identity_1_opaque_ptr_2:
	.zero	8
	.globl	_TIG_iO_l4N8_1_writeFiles_1_opaque_list_2
	.align 8
	.type	_TIG_iO_l4N8_1_writeFiles_1_opaque_list_2, @object
	.size	_TIG_iO_l4N8_1_writeFiles_1_opaque_list_2, 8
_TIG_iO_l4N8_1_writeFiles_1_opaque_list_2:
	.zero	8
	.globl	_TIG_iO_l4N8_1_binarySearch_1_opaque_ptr_2
	.align 8
	.type	_TIG_iO_l4N8_1_binarySearch_1_opaque_ptr_2, @object
	.size	_TIG_iO_l4N8_1_binarySearch_1_opaque_ptr_2, 8
_TIG_iO_l4N8_1_binarySearch_1_opaque_ptr_2:
	.zero	8
	.globl	_TIG_iO_l4N8_1___uint16_identity_1_opaque_ptr_2
	.align 8
	.type	_TIG_iO_l4N8_1___uint16_identity_1_opaque_ptr_2, @object
	.size	_TIG_iO_l4N8_1___uint16_identity_1_opaque_ptr_2, 8
_TIG_iO_l4N8_1___uint16_identity_1_opaque_ptr_2:
	.zero	8
	.globl	_TIG_iO_l4N8_1___uint32_identity_1_opaque_list_2
	.align 8
	.type	_TIG_iO_l4N8_1___uint32_identity_1_opaque_list_2, @object
	.size	_TIG_iO_l4N8_1___uint32_identity_1_opaque_list_2, 8
_TIG_iO_l4N8_1___uint32_identity_1_opaque_list_2:
	.zero	8
	.globl	_TIG_IZ_l4N8_envp
	.align 8
	.type	_TIG_IZ_l4N8_envp, @object
	.size	_TIG_IZ_l4N8_envp, 8
_TIG_IZ_l4N8_envp:
	.zero	8
	.globl	_TIG_iO_l4N8_1_linearSearch_1_opaque_list_2
	.align 8
	.type	_TIG_iO_l4N8_1_linearSearch_1_opaque_list_2, @object
	.size	_TIG_iO_l4N8_1_linearSearch_1_opaque_list_2, 8
_TIG_iO_l4N8_1_linearSearch_1_opaque_list_2:
	.zero	8
	.globl	_TIG_iO_l4N8_1___uint32_identity_1_opaque_ptr_2
	.align 8
	.type	_TIG_iO_l4N8_1___uint32_identity_1_opaque_ptr_2, @object
	.size	_TIG_iO_l4N8_1___uint32_identity_1_opaque_ptr_2, 8
_TIG_iO_l4N8_1___uint32_identity_1_opaque_ptr_2:
	.zero	8
	.globl	_TIG_iO_l4N8_1___bswap_64_1_opaque_ptr_2
	.align 8
	.type	_TIG_iO_l4N8_1___bswap_64_1_opaque_ptr_2, @object
	.size	_TIG_iO_l4N8_1___bswap_64_1_opaque_ptr_2, 8
_TIG_iO_l4N8_1___bswap_64_1_opaque_ptr_2:
	.zero	8
	.globl	_TIG_iO_l4N8_1_plotter_1_opaque_list_2
	.align 8
	.type	_TIG_iO_l4N8_1_plotter_1_opaque_list_2, @object
	.size	_TIG_iO_l4N8_1_plotter_1_opaque_list_2, 8
_TIG_iO_l4N8_1_plotter_1_opaque_list_2:
	.zero	8
	.globl	_TIG_iO_l4N8_1_writeFiles_1_opaque_ptr_1
	.align 8
	.type	_TIG_iO_l4N8_1_writeFiles_1_opaque_ptr_1, @object
	.size	_TIG_iO_l4N8_1_writeFiles_1_opaque_ptr_1, 8
_TIG_iO_l4N8_1_writeFiles_1_opaque_ptr_1:
	.zero	8
	.globl	_TIG_iO_l4N8_1_tester_1_opaque_ptr_1
	.align 8
	.type	_TIG_iO_l4N8_1_tester_1_opaque_ptr_1, @object
	.size	_TIG_iO_l4N8_1_tester_1_opaque_ptr_1, 8
_TIG_iO_l4N8_1_tester_1_opaque_ptr_1:
	.zero	8
	.globl	_TIG_iO_l4N8_1_main_1_opaque_list_1
	.align 8
	.type	_TIG_iO_l4N8_1_main_1_opaque_list_1, @object
	.size	_TIG_iO_l4N8_1_main_1_opaque_list_1, 8
_TIG_iO_l4N8_1_main_1_opaque_list_1:
	.zero	8
	.globl	_TIG_iO_l4N8_1___bswap_32_1_opaque_ptr_1
	.align 8
	.type	_TIG_iO_l4N8_1___bswap_32_1_opaque_ptr_1, @object
	.size	_TIG_iO_l4N8_1___bswap_32_1_opaque_ptr_1, 8
_TIG_iO_l4N8_1___bswap_32_1_opaque_ptr_1:
	.zero	8
	.globl	_TIG_IZ_l4N8_argc
	.align 4
	.type	_TIG_IZ_l4N8_argc, @object
	.size	_TIG_IZ_l4N8_argc, 4
_TIG_IZ_l4N8_argc:
	.zero	4
	.globl	_TIG_iO_l4N8_1_plotter_1_opaque_ptr_1
	.align 8
	.type	_TIG_iO_l4N8_1_plotter_1_opaque_ptr_1, @object
	.size	_TIG_iO_l4N8_1_plotter_1_opaque_ptr_1, 8
_TIG_iO_l4N8_1_plotter_1_opaque_ptr_1:
	.zero	8
	.globl	_TIG_iO_l4N8_1___uint32_identity_1_opaque_ptr_1
	.align 8
	.type	_TIG_iO_l4N8_1___uint32_identity_1_opaque_ptr_1, @object
	.size	_TIG_iO_l4N8_1___uint32_identity_1_opaque_ptr_1, 8
_TIG_iO_l4N8_1___uint32_identity_1_opaque_ptr_1:
	.zero	8
	.globl	_TIG_iO_l4N8_1_writeFiles_1_opaque_ptr_2
	.align 8
	.type	_TIG_iO_l4N8_1_writeFiles_1_opaque_ptr_2, @object
	.size	_TIG_iO_l4N8_1_writeFiles_1_opaque_ptr_2, 8
_TIG_iO_l4N8_1_writeFiles_1_opaque_ptr_2:
	.zero	8
	.globl	_TIG_iO_l4N8_1___uint16_identity_1_opaque_list_1
	.align 8
	.type	_TIG_iO_l4N8_1___uint16_identity_1_opaque_list_1, @object
	.size	_TIG_iO_l4N8_1___uint16_identity_1_opaque_list_1, 8
_TIG_iO_l4N8_1___uint16_identity_1_opaque_list_1:
	.zero	8
	.globl	_TIG_iO_l4N8_1___bswap_32_1_opaque_list_1
	.align 8
	.type	_TIG_iO_l4N8_1___bswap_32_1_opaque_list_1, @object
	.size	_TIG_iO_l4N8_1___bswap_32_1_opaque_list_1, 8
_TIG_iO_l4N8_1___bswap_32_1_opaque_list_1:
	.zero	8
	.globl	_TIG_iO_l4N8_1_main_1_opaque_ptr_2
	.align 8
	.type	_TIG_iO_l4N8_1_main_1_opaque_ptr_2, @object
	.size	_TIG_iO_l4N8_1_main_1_opaque_ptr_2, 8
_TIG_iO_l4N8_1_main_1_opaque_ptr_2:
	.zero	8
	.globl	_TIG_IZ_l4N8_argv
	.align 8
	.type	_TIG_IZ_l4N8_argv, @object
	.size	_TIG_IZ_l4N8_argv, 8
_TIG_IZ_l4N8_argv:
	.zero	8
	.globl	_TIG_iO_l4N8_1_plotter_1_opaque_ptr_2
	.align 8
	.type	_TIG_iO_l4N8_1_plotter_1_opaque_ptr_2, @object
	.size	_TIG_iO_l4N8_1_plotter_1_opaque_ptr_2, 8
_TIG_iO_l4N8_1_plotter_1_opaque_ptr_2:
	.zero	8
	.globl	_TIG_iO_l4N8_1___uint64_identity_1_opaque_list_2
	.align 8
	.type	_TIG_iO_l4N8_1___uint64_identity_1_opaque_list_2, @object
	.size	_TIG_iO_l4N8_1___uint64_identity_1_opaque_list_2, 8
_TIG_iO_l4N8_1___uint64_identity_1_opaque_list_2:
	.zero	8
	.globl	_TIG_iO_l4N8_1_main_1_opaque_ptr_1
	.align 8
	.type	_TIG_iO_l4N8_1_main_1_opaque_ptr_1, @object
	.size	_TIG_iO_l4N8_1_main_1_opaque_ptr_1, 8
_TIG_iO_l4N8_1_main_1_opaque_ptr_1:
	.zero	8
	.globl	_TIG_iO_l4N8_1_linearSearch_1_opaque_ptr_1
	.align 8
	.type	_TIG_iO_l4N8_1_linearSearch_1_opaque_ptr_1, @object
	.size	_TIG_iO_l4N8_1_linearSearch_1_opaque_ptr_1, 8
_TIG_iO_l4N8_1_linearSearch_1_opaque_ptr_1:
	.zero	8
	.globl	_TIG_iO_l4N8_1_tester_1_opaque_list_1
	.align 8
	.type	_TIG_iO_l4N8_1_tester_1_opaque_list_1, @object
	.size	_TIG_iO_l4N8_1_tester_1_opaque_list_1, 8
_TIG_iO_l4N8_1_tester_1_opaque_list_1:
	.zero	8
	.globl	_TIG_iO_l4N8_1_tester_1_opaque_ptr_2
	.align 8
	.type	_TIG_iO_l4N8_1_tester_1_opaque_ptr_2, @object
	.size	_TIG_iO_l4N8_1_tester_1_opaque_ptr_2, 8
_TIG_iO_l4N8_1_tester_1_opaque_ptr_2:
	.zero	8
	.globl	_TIG_iO_l4N8_1___uint16_identity_1_opaque_ptr_1
	.align 8
	.type	_TIG_iO_l4N8_1___uint16_identity_1_opaque_ptr_1, @object
	.size	_TIG_iO_l4N8_1___uint16_identity_1_opaque_ptr_1, 8
_TIG_iO_l4N8_1___uint16_identity_1_opaque_ptr_1:
	.zero	8
	.globl	count
	.align 4
	.type	count, @object
	.size	count, 4
count:
	.zero	4
	.globl	_TIG_iO_l4N8_1___bswap_16_1_opaque_ptr_1
	.align 8
	.type	_TIG_iO_l4N8_1___bswap_16_1_opaque_ptr_1, @object
	.size	_TIG_iO_l4N8_1___bswap_16_1_opaque_ptr_1, 8
_TIG_iO_l4N8_1___bswap_16_1_opaque_ptr_1:
	.zero	8
	.globl	_TIG_iO_l4N8_1___bswap_64_1_opaque_ptr_1
	.align 8
	.type	_TIG_iO_l4N8_1___bswap_64_1_opaque_ptr_1, @object
	.size	_TIG_iO_l4N8_1___bswap_64_1_opaque_ptr_1, 8
_TIG_iO_l4N8_1___bswap_64_1_opaque_ptr_1:
	.zero	8
	.globl	_TIG_iO_l4N8_1_tester_1_opaque_list_2
	.align 8
	.type	_TIG_iO_l4N8_1_tester_1_opaque_list_2, @object
	.size	_TIG_iO_l4N8_1_tester_1_opaque_list_2, 8
_TIG_iO_l4N8_1_tester_1_opaque_list_2:
	.zero	8
	.section	.rodata
.LC0:
	.string	"Enter number of elements: "
.LC1:
	.string	"%d"
.LC2:
	.string	"Enter elements: "
.LC3:
	.string	"Enter key to search: "
.LC4:
	.string	"Index by Binary search: %d\n"
.LC5:
	.string	"Index by Linear search: %d\n"
	.text
	.globl	tester
	.type	tester, @function
tester:
.LFB0:
	.cfi_startproc
	endbr64
	pushq	%rbp
	.cfi_def_cfa_offset 16
	.cfi_offset 6, -16
	movq	%rsp, %rbp
	.cfi_def_cfa_register 6
	pushq	%r15
	pushq	%r14
	pushq	%r13
	pushq	%r12
	pushq	%rbx
	subq	$104, %rsp
	.cfi_offset 15, -24
	.cfi_offset 14, -32
	.cfi_offset 13, -40
	.cfi_offset 12, -48
	.cfi_offset 3, -56
	movq	%fs:40, %rax
	movq	%rax, -56(%rbp)
	xorl	%eax, %eax
	movq	%rsp, %rax
	movq	%rax, %rbx
#APP
# 83 "/usr/include/stdlib.h" 1
	##_ANNOTATION_INITIALREGION_-TIG-iO-l4N8-1-tester--22
# 0 "" 2
# 87 "/usr/include/stdlib.h" 1
	##_ANNOTATION_ATOMICREGION_-TIG-iO-l4N8-1-tester--21
# 0 "" 2
#NO_APP
	movl	$24, %edi
	call	malloc@PLT
	movq	%rax, -104(%rbp)
	movq	-104(%rbp), %rax
	movq	-104(%rbp), %rdx
	movq	%rdx, (%rax)
	movq	-104(%rbp), %rax
	movq	-104(%rbp), %rdx
	movq	%rdx, 16(%rax)
	movq	-104(%rbp), %rax
	movq	%rax, _TIG_iO_l4N8_1_tester_1_opaque_list_1(%rip)
	call	rand@PLT
	movl	%eax, -124(%rbp)
	movl	$24, %edi
	call	malloc@PLT
	movq	%rax, -96(%rbp)
	movq	-96(%rbp), %rax
	movl	$0, 8(%rax)
	movq	_TIG_iO_l4N8_1_tester_1_opaque_list_1(%rip), %rax
	movq	(%rax), %rdx
	movq	-96(%rbp), %rax
	movq	%rdx, (%rax)
	movq	_TIG_iO_l4N8_1_tester_1_opaque_list_1(%rip), %rdx
	movq	-96(%rbp), %rax
	movq	%rdx, 16(%rax)
	movq	_TIG_iO_l4N8_1_tester_1_opaque_list_1(%rip), %rax
	movq	(%rax), %rax
	movq	-96(%rbp), %rdx
	movq	%rdx, 16(%rax)
	movq	_TIG_iO_l4N8_1_tester_1_opaque_list_1(%rip), %rax
	movq	-96(%rbp), %rdx
	movq	%rdx, (%rax)
	call	rand@PLT
	movl	%eax, -120(%rbp)
	movl	$24, %edi
	call	malloc@PLT
	movq	%rax, -88(%rbp)
	movq	-88(%rbp), %rax
	movl	-120(%rbp), %edx
	movl	%edx, 8(%rax)
	movq	_TIG_iO_l4N8_1_tester_1_opaque_list_1(%rip), %rax
	movq	(%rax), %rdx
	movq	-88(%rbp), %rax
	movq	%rdx, (%rax)
	movq	_TIG_iO_l4N8_1_tester_1_opaque_list_1(%rip), %rdx
	movq	-88(%rbp), %rax
	movq	%rdx, 16(%rax)
	movq	_TIG_iO_l4N8_1_tester_1_opaque_list_1(%rip), %rax
	movq	(%rax), %rax
	movq	-88(%rbp), %rdx
	movq	%rdx, 16(%rax)
	movq	_TIG_iO_l4N8_1_tester_1_opaque_list_1(%rip), %rax
	movq	-88(%rbp), %rdx
	movq	%rdx, (%rax)
	call	rand@PLT
	movl	%eax, -116(%rbp)
	movl	$24, %edi
	call	malloc@PLT
	movq	%rax, -80(%rbp)
	movl	-116(%rbp), %eax
	leal	(%rax,%rax), %edx
	movq	-80(%rbp), %rax
	movl	%edx, 8(%rax)
	movq	_TIG_iO_l4N8_1_tester_1_opaque_list_1(%rip), %rax
	movq	(%rax), %rdx
	movq	-80(%rbp), %rax
	movq	%rdx, (%rax)
	movq	_TIG_iO_l4N8_1_tester_1_opaque_list_1(%rip), %rdx
	movq	-80(%rbp), %rax
	movq	%rdx, 16(%rax)
	movq	_TIG_iO_l4N8_1_tester_1_opaque_list_1(%rip), %rax
	movq	(%rax), %rax
	movq	-80(%rbp), %rdx
	movq	%rdx, 16(%rax)
	movq	_TIG_iO_l4N8_1_tester_1_opaque_list_1(%rip), %rax
	movq	-80(%rbp), %rdx
	movq	%rdx, (%rax)
	movq	_TIG_iO_l4N8_1_tester_1_opaque_list_1(%rip), %rax
	movq	(%rax), %rax
	movq	%rax, _TIG_iO_l4N8_1_tester_1_opaque_ptr_1(%rip)
	movq	_TIG_iO_l4N8_1_tester_1_opaque_ptr_1(%rip), %rax
	movq	%rax, _TIG_iO_l4N8_1_tester_1_opaque_ptr_2(%rip)
	movq	_TIG_iO_l4N8_1_tester_1_opaque_ptr_2(%rip), %rax
	movq	(%rax), %rax
	movq	%rax, _TIG_iO_l4N8_1_tester_1_opaque_ptr_2(%rip)
	nop
	nop
	leaq	.LC0(%rip), %rax
	movq	%rax, %rdi
	movl	$0, %eax
	call	printf@PLT
	leaq	-136(%rbp), %rax
	movq	%rax, %rsi
	leaq	.LC1(%rip), %rax
	movq	%rax, %rdi
	movl	$0, %eax
	call	__isoc99_scanf@PLT
	movl	-136(%rbp), %eax
	movslq	%eax, %rdx
	subq	$1, %rdx
	movq	%rdx, -72(%rbp)
	movslq	%eax, %rdx
	movq	%rdx, %r14
	movl	$0, %r15d
	movslq	%eax, %rdx
	movq	%rdx, %r12
	movl	$0, %r13d
	cltq
	leaq	0(,%rax,4), %rdx
	movl	$16, %eax
	subq	$1, %rax
	addq	%rdx, %rax
	movl	$16, %esi
	movl	$0, %edx
	divq	%rsi
	imulq	$16, %rax, %rax
	movq	%rax, %rcx
	andq	$-4096, %rcx
	movq	%rsp, %rdx
	subq	%rcx, %rdx
.L2:
	cmpq	%rdx, %rsp
	je	.L3
	subq	$4096, %rsp
	orq	$0, 4088(%rsp)
	jmp	.L2
.L3:
	movq	%rax, %rdx
	andl	$4095, %edx
	subq	%rdx, %rsp
	movq	%rax, %rdx
	andl	$4095, %edx
	testq	%rdx, %rdx
	je	.L4
	andl	$4095, %eax
	subq	$8, %rax
	addq	%rsp, %rax
	orq	$0, (%rax)
.L4:
	movq	%rsp, %rax
	addq	$3, %rax
	shrq	$2, %rax
	salq	$2, %rax
	movq	%rax, -64(%rbp)
	leaq	.LC2(%rip), %rax
	movq	%rax, %rdi
	movl	$0, %eax
	call	printf@PLT
	movl	$0, -128(%rbp)
	jmp	.L5
.L6:
	movl	-128(%rbp), %eax
	cltq
	leaq	0(,%rax,4), %rdx
	movq	-64(%rbp), %rax
	addq	%rdx, %rax
	movq	%rax, %rsi
	leaq	.LC1(%rip), %rax
	movq	%rax, %rdi
	movl	$0, %eax
	call	__isoc99_scanf@PLT
	addl	$1, -128(%rbp)
.L5:
	movl	-136(%rbp), %eax
	cmpl	%eax, -128(%rbp)
	jl	.L6
	leaq	.LC3(%rip), %rax
	movq	%rax, %rdi
	movl	$0, %eax
	call	printf@PLT
	leaq	-132(%rbp), %rax
	movq	%rax, %rsi
	leaq	.LC1(%rip), %rax
	movq	%rax, %rdi
	movl	$0, %eax
	call	__isoc99_scanf@PLT
	movl	-132(%rbp), %edx
	movl	-136(%rbp), %ecx
	movq	-64(%rbp), %rax
	movl	%ecx, %esi
	movq	%rax, %rdi
	call	binarySearch
	movl	%eax, -112(%rbp)
	movl	-112(%rbp), %eax
	movl	%eax, %esi
	leaq	.LC4(%rip), %rax
	movq	%rax, %rdi
	movl	$0, %eax
	call	printf@PLT
	movl	-132(%rbp), %edx
	movl	-136(%rbp), %ecx
	movq	-64(%rbp), %rax
	movl	%ecx, %esi
	movq	%rax, %rdi
	call	linearSearch
	movl	%eax, -108(%rbp)
	movl	-108(%rbp), %eax
	movl	%eax, %esi
	leaq	.LC5(%rip), %rax
	movq	%rax, %rdi
	movl	$0, %eax
	call	printf@PLT
	movq	_TIG_iO_l4N8_1_writeFiles_1_opaque_ptr_1(%rip), %rdx
	movq	_TIG_iO_l4N8_1_writeFiles_1_opaque_ptr_2(%rip), %rax
	cmpq	%rax, %rdx
	jne	.L7
#APP
# 49 "Kunwar-Yuvraj_ada-lab_2.c" 1
	.byte 0x5,0x9b,0x40,0x0,0x0,0x0,0x0,0x0
# 0 "" 2
#NO_APP
	movq	%rbx, %rsp
	jmp	.L1
.L7:
	movq	%rbx, %rsp
.L1:
	movq	-56(%rbp), %rax
	subq	%fs:40, %rax
	je	.L9
	call	__stack_chk_fail@PLT
.L9:
	leaq	-40(%rbp), %rsp
	popq	%rbx
	popq	%r12
	popq	%r13
	popq	%r14
	popq	%r15
	popq	%rbp
	.cfi_def_cfa 7, 8
	ret
	.cfi_endproc
.LFE0:
	.size	tester, .-tester
	.section	.rodata
.LC6:
	.string	"Generating files..."
.LC7:
	.string	"avg-linear.txt"
.LC8:
	.string	"worst-linear.txt"
.LC9:
	.string	"best-linear.txt"
.LC10:
	.string	"avg-binary.txt"
.LC11:
	.string	"worst-binary.txt"
.LC12:
	.string	"best-binary.txt"
.LC13:
	.string	"Files generated successfully!"
	.text
	.globl	plotter
	.type	plotter, @function
plotter:
.LFB4:
	.cfi_startproc
	endbr64
	pushq	%rbp
	.cfi_def_cfa_offset 16
	.cfi_offset 6, -16
	movq	%rsp, %rbp
	.cfi_def_cfa_register 6
	subq	$32, %rsp
#APP
# 53 "/usr/include/x86_64-linux-gnu/bits/byteswap.h" 1
	##_ANNOTATION_INITIALREGION_-TIG-iO-l4N8-1-plotter--20
# 0 "" 2
# 57 "/usr/include/x86_64-linux-gnu/bits/byteswap.h" 1
	##_ANNOTATION_ATOMICREGION_-TIG-iO-l4N8-1-plotter--19
# 0 "" 2
#NO_APP
	movl	$24, %edi
	call	malloc@PLT
	movq	%rax, -24(%rbp)
	movq	-24(%rbp), %rax
	movq	-24(%rbp), %rdx
	movq	%rdx, 8(%rax)
	movq	-24(%rbp), %rax
	movq	-24(%rbp), %rdx
	movq	%rdx, 16(%rax)
	movq	-24(%rbp), %rax
	movq	%rax, _TIG_iO_l4N8_1_plotter_1_opaque_list_1(%rip)
	call	rand@PLT
	movl	%eax, -32(%rbp)
	movl	$24, %edi
	call	malloc@PLT
	movq	%rax, -16(%rbp)
	movq	-16(%rbp), %rax
	movl	$0, (%rax)
	movq	_TIG_iO_l4N8_1_plotter_1_opaque_list_1(%rip), %rax
	movq	8(%rax), %rdx
	movq	-16(%rbp), %rax
	movq	%rdx, 8(%rax)
	movq	_TIG_iO_l4N8_1_plotter_1_opaque_list_1(%rip), %rdx
	movq	-16(%rbp), %rax
	movq	%rdx, 16(%rax)
	movq	_TIG_iO_l4N8_1_plotter_1_opaque_list_1(%rip), %rax
	movq	8(%rax), %rax
	movq	-16(%rbp), %rdx
	movq	%rdx, 16(%rax)
	movq	_TIG_iO_l4N8_1_plotter_1_opaque_list_1(%rip), %rax
	movq	-16(%rbp), %rdx
	movq	%rdx, 8(%rax)
	call	rand@PLT
	movl	%eax, -28(%rbp)
	movl	$24, %edi
	call	malloc@PLT
	movq	%rax, -8(%rbp)
	movq	-8(%rbp), %rax
	movl	-28(%rbp), %edx
	movl	%edx, (%rax)
	movq	_TIG_iO_l4N8_1_plotter_1_opaque_list_1(%rip), %rax
	movq	8(%rax), %rdx
	movq	-8(%rbp), %rax
	movq	%rdx, 8(%rax)
	movq	_TIG_iO_l4N8_1_plotter_1_opaque_list_1(%rip), %rdx
	movq	-8(%rbp), %rax
	movq	%rdx, 16(%rax)
	movq	_TIG_iO_l4N8_1_plotter_1_opaque_list_1(%rip), %rax
	movq	8(%rax), %rax
	movq	-8(%rbp), %rdx
	movq	%rdx, 16(%rax)
	movq	_TIG_iO_l4N8_1_plotter_1_opaque_list_1(%rip), %rax
	movq	-8(%rbp), %rdx
	movq	%rdx, 8(%rax)
	movq	_TIG_iO_l4N8_1_plotter_1_opaque_list_1(%rip), %rax
	movq	8(%rax), %rax
	movq	%rax, _TIG_iO_l4N8_1_plotter_1_opaque_ptr_1(%rip)
	movq	_TIG_iO_l4N8_1_plotter_1_opaque_ptr_1(%rip), %rax
	movq	%rax, _TIG_iO_l4N8_1_plotter_1_opaque_ptr_2(%rip)
	nop
	nop
	leaq	.LC6(%rip), %rax
	movq	%rax, %rdi
	call	puts@PLT
	leaq	linearSearch(%rip), %rax
	movq	%rax, %rcx
	leaq	.LC7(%rip), %rax
	movq	%rax, %rdx
	leaq	.LC8(%rip), %rax
	movq	%rax, %rsi
	leaq	.LC9(%rip), %rax
	movq	%rax, %rdi
	call	writeFiles
	leaq	binarySearch(%rip), %rax
	movq	%rax, %rcx
	leaq	.LC10(%rip), %rax
	movq	%rax, %rdx
	leaq	.LC11(%rip), %rax
	movq	%rax, %rsi
	leaq	.LC12(%rip), %rax
	movq	%rax, %rdi
	call	writeFiles
	leaq	.LC13(%rip), %rax
	movq	%rax, %rdi
	call	puts@PLT
	movq	_TIG_iO_l4N8_1_writeFiles_1_opaque_ptr_1(%rip), %rdx
	movq	_TIG_iO_l4N8_1_writeFiles_1_opaque_ptr_2(%rip), %rax
	cmpq	%rax, %rdx
	jne	.L13
	call	plotter
	nop
.L13:
	nop
	leave
	.cfi_def_cfa 7, 8
	ret
	.cfi_endproc
.LFE4:
	.size	plotter, .-plotter
	.globl	linearSearch
	.type	linearSearch, @function
linearSearch:
.LFB5:
	.cfi_startproc
	endbr64
	pushq	%rbp
	.cfi_def_cfa_offset 16
	.cfi_offset 6, -16
	movq	%rsp, %rbp
	.cfi_def_cfa_register 6
	subq	$64, %rsp
	movq	%rdi, -56(%rbp)
	movl	%esi, -60(%rbp)
	movl	%edx, -64(%rbp)
#APP
# 106 "Kunwar-Yuvraj_ada-lab_2.c" 1
	##_ANNOTATION_INITIALREGION_-TIG-iO-l4N8-1-linearSearch--16
# 0 "" 2
# 110 "Kunwar-Yuvraj_ada-lab_2.c" 1
	##_ANNOTATION_ATOMICREGION_-TIG-iO-l4N8-1-linearSearch--15
# 0 "" 2
#NO_APP
	movl	$24, %edi
	call	malloc@PLT
	movq	%rax, -24(%rbp)
	movq	-24(%rbp), %rax
	movq	-24(%rbp), %rdx
	movq	%rdx, 16(%rax)
	movq	-24(%rbp), %rax
	movq	-24(%rbp), %rdx
	movq	%rdx, 8(%rax)
	movq	-24(%rbp), %rax
	movq	%rax, _TIG_iO_l4N8_1_linearSearch_1_opaque_list_1(%rip)
	call	rand@PLT
	movl	%eax, -32(%rbp)
	movl	$24, %edi
	call	malloc@PLT
	movq	%rax, -16(%rbp)
	movq	-16(%rbp), %rax
	movl	$0, (%rax)
	movq	_TIG_iO_l4N8_1_linearSearch_1_opaque_list_1(%rip), %rax
	movq	16(%rax), %rdx
	movq	-16(%rbp), %rax
	movq	%rdx, 16(%rax)
	movq	_TIG_iO_l4N8_1_linearSearch_1_opaque_list_1(%rip), %rdx
	movq	-16(%rbp), %rax
	movq	%rdx, 8(%rax)
	movq	_TIG_iO_l4N8_1_linearSearch_1_opaque_list_1(%rip), %rax
	movq	16(%rax), %rax
	movq	-16(%rbp), %rdx
	movq	%rdx, 8(%rax)
	movq	_TIG_iO_l4N8_1_linearSearch_1_opaque_list_1(%rip), %rax
	movq	-16(%rbp), %rdx
	movq	%rdx, 16(%rax)
	call	rand@PLT
	movl	%eax, -28(%rbp)
	movl	$24, %edi
	call	malloc@PLT
	movq	%rax, -8(%rbp)
	movq	-8(%rbp), %rax
	movl	-28(%rbp), %edx
	movl	%edx, (%rax)
	movq	_TIG_iO_l4N8_1_linearSearch_1_opaque_list_1(%rip), %rax
	movq	16(%rax), %rdx
	movq	-8(%rbp), %rax
	movq	%rdx, 16(%rax)
	movq	_TIG_iO_l4N8_1_linearSearch_1_opaque_list_1(%rip), %rdx
	movq	-8(%rbp), %rax
	movq	%rdx, 8(%rax)
	movq	_TIG_iO_l4N8_1_linearSearch_1_opaque_list_1(%rip), %rax
	movq	16(%rax), %rax
	movq	-8(%rbp), %rdx
	movq	%rdx, 8(%rax)
	movq	_TIG_iO_l4N8_1_linearSearch_1_opaque_list_1(%rip), %rax
	movq	-8(%rbp), %rdx
	movq	%rdx, 16(%rax)
	movq	_TIG_iO_l4N8_1_linearSearch_1_opaque_list_1(%rip), %rax
	movq	16(%rax), %rax
	movq	%rax, _TIG_iO_l4N8_1_linearSearch_1_opaque_ptr_1(%rip)
	movq	_TIG_iO_l4N8_1_linearSearch_1_opaque_ptr_1(%rip), %rax
	movq	%rax, _TIG_iO_l4N8_1_linearSearch_1_opaque_ptr_2(%rip)
	nop
	nop
	movl	$0, count(%rip)
	movl	$0, -36(%rbp)
	jmp	.L15
.L18:
	movl	count(%rip), %eax
	addl	$1, %eax
	movl	%eax, count(%rip)
	movl	-36(%rbp), %eax
	cltq
	leaq	0(,%rax,4), %rdx
	movq	-56(%rbp), %rax
	addq	%rdx, %rax
	movl	(%rax), %eax
	cmpl	%eax, -64(%rbp)
	jne	.L16
	movl	-36(%rbp), %eax
	jmp	.L14
.L16:
	addl	$1, -36(%rbp)
.L15:
	movl	-36(%rbp), %eax
	cmpl	-60(%rbp), %eax
	jl	.L18
	movq	_TIG_iO_l4N8_1_writeFiles_1_opaque_ptr_1(%rip), %rdx
	movq	_TIG_iO_l4N8_1_writeFiles_1_opaque_ptr_2(%rip), %rax
	cmpq	%rax, %rdx
	je	.L19
	movl	$-1, %eax
	jmp	.L14
.L19:
.L14:
	leave
	.cfi_def_cfa 7, 8
	ret
	.cfi_endproc
.LFE5:
	.size	linearSearch, .-linearSearch
	.globl	binarySearch
	.type	binarySearch, @function
binarySearch:
.LFB6:
	.cfi_startproc
	endbr64
	pushq	%rbp
	.cfi_def_cfa_offset 16
	.cfi_offset 6, -16
	movq	%rsp, %rbp
	.cfi_def_cfa_register 6
	subq	$96, %rsp
	movq	%rdi, -88(%rbp)
	movl	%esi, -92(%rbp)
	movl	%edx, -96(%rbp)
#APP
# 58 "Kunwar-Yuvraj_ada-lab_2.c" 1
	##_ANNOTATION_INITIALREGION_-TIG-iO-l4N8-1-binarySearch--14
# 0 "" 2
# 62 "Kunwar-Yuvraj_ada-lab_2.c" 1
	##_ANNOTATION_ATOMICREGION_-TIG-iO-l4N8-1-binarySearch--13
# 0 "" 2
#NO_APP
	movl	$24, %edi
	call	malloc@PLT
	movq	%rax, -40(%rbp)
	movq	-40(%rbp), %rax
	movq	-40(%rbp), %rdx
	movq	%rdx, (%rax)
	movq	-40(%rbp), %rax
	movq	-40(%rbp), %rdx
	movq	%rdx, 8(%rax)
	movq	-40(%rbp), %rax
	movq	%rax, _TIG_iO_l4N8_1_binarySearch_1_opaque_list_1(%rip)
	call	rand@PLT
	movl	%eax, -56(%rbp)
	movl	$24, %edi
	call	malloc@PLT
	movq	%rax, -32(%rbp)
	movq	-32(%rbp), %rax
	movl	$0, 16(%rax)
	movq	_TIG_iO_l4N8_1_binarySearch_1_opaque_list_1(%rip), %rax
	movq	(%rax), %rdx
	movq	-32(%rbp), %rax
	movq	%rdx, (%rax)
	movq	_TIG_iO_l4N8_1_binarySearch_1_opaque_list_1(%rip), %rdx
	movq	-32(%rbp), %rax
	movq	%rdx, 8(%rax)
	movq	_TIG_iO_l4N8_1_binarySearch_1_opaque_list_1(%rip), %rax
	movq	(%rax), %rax
	movq	-32(%rbp), %rdx
	movq	%rdx, 8(%rax)
	movq	_TIG_iO_l4N8_1_binarySearch_1_opaque_list_1(%rip), %rax
	movq	-32(%rbp), %rdx
	movq	%rdx, (%rax)
	call	rand@PLT
	movl	%eax, -52(%rbp)
	movl	$24, %edi
	call	malloc@PLT
	movq	%rax, -24(%rbp)
	movq	-24(%rbp), %rax
	movl	-52(%rbp), %edx
	movl	%edx, 16(%rax)
	movq	_TIG_iO_l4N8_1_binarySearch_1_opaque_list_1(%rip), %rax
	movq	(%rax), %rdx
	movq	-24(%rbp), %rax
	movq	%rdx, (%rax)
	movq	_TIG_iO_l4N8_1_binarySearch_1_opaque_list_1(%rip), %rdx
	movq	-24(%rbp), %rax
	movq	%rdx, 8(%rax)
	movq	_TIG_iO_l4N8_1_binarySearch_1_opaque_list_1(%rip), %rax
	movq	(%rax), %rax
	movq	-24(%rbp), %rdx
	movq	%rdx, 8(%rax)
	movq	_TIG_iO_l4N8_1_binarySearch_1_opaque_list_1(%rip), %rax
	movq	-24(%rbp), %rdx
	movq	%rdx, (%rax)
	call	rand@PLT
	movl	%eax, -48(%rbp)
	movl	$24, %edi
	call	malloc@PLT
	movq	%rax, -16(%rbp)
	movl	-48(%rbp), %eax
	leal	(%rax,%rax), %edx
	movq	-16(%rbp), %rax
	movl	%edx, 16(%rax)
	movq	_TIG_iO_l4N8_1_binarySearch_1_opaque_list_1(%rip), %rax
	movq	(%rax), %rdx
	movq	-16(%rbp), %rax
	movq	%rdx, (%rax)
	movq	_TIG_iO_l4N8_1_binarySearch_1_opaque_list_1(%rip), %rdx
	movq	-16(%rbp), %rax
	movq	%rdx, 8(%rax)
	movq	_TIG_iO_l4N8_1_binarySearch_1_opaque_list_1(%rip), %rax
	movq	(%rax), %rax
	movq	-16(%rbp), %rdx
	movq	%rdx, 8(%rax)
	movq	_TIG_iO_l4N8_1_binarySearch_1_opaque_list_1(%rip), %rax
	movq	-16(%rbp), %rdx
	movq	%rdx, (%rax)
	call	rand@PLT
	movl	%eax, -44(%rbp)
	movl	$24, %edi
	call	malloc@PLT
	movq	%rax, -8(%rbp)
	movl	-44(%rbp), %edx
	movl	%edx, %eax
	addl	%eax, %eax
	addl	%eax, %edx
	movq	-8(%rbp), %rax
	movl	%edx, 16(%rax)
	movq	_TIG_iO_l4N8_1_binarySearch_1_opaque_list_1(%rip), %rax
	movq	(%rax), %rdx
	movq	-8(%rbp), %rax
	movq	%rdx, (%rax)
	movq	_TIG_iO_l4N8_1_binarySearch_1_opaque_list_1(%rip), %rdx
	movq	-8(%rbp), %rax
	movq	%rdx, 8(%rax)
	movq	_TIG_iO_l4N8_1_binarySearch_1_opaque_list_1(%rip), %rax
	movq	(%rax), %rax
	movq	-8(%rbp), %rdx
	movq	%rdx, 8(%rax)
	movq	_TIG_iO_l4N8_1_binarySearch_1_opaque_list_1(%rip), %rax
	movq	-8(%rbp), %rdx
	movq	%rdx, (%rax)
	movq	_TIG_iO_l4N8_1_binarySearch_1_opaque_list_1(%rip), %rax
	movq	(%rax), %rax
	movq	%rax, _TIG_iO_l4N8_1_binarySearch_1_opaque_ptr_1(%rip)
	movq	_TIG_iO_l4N8_1_binarySearch_1_opaque_ptr_1(%rip), %rax
	movq	%rax, _TIG_iO_l4N8_1_binarySearch_1_opaque_ptr_2(%rip)
	movq	_TIG_iO_l4N8_1_binarySearch_1_opaque_ptr_2(%rip), %rax
	movq	(%rax), %rax
	movq	%rax, _TIG_iO_l4N8_1_binarySearch_1_opaque_ptr_2(%rip)
	nop
	nop
	movl	$0, count(%rip)
	movl	$0, -68(%rbp)
	movl	-92(%rbp), %eax
	subl	$1, %eax
	movl	%eax, -64(%rbp)
	movl	-64(%rbp), %eax
	subl	-68(%rbp), %eax
	movl	%eax, %edx
	shrl	$31, %edx
	addl	%edx, %eax
	sarl	%eax
	movl	%eax, %edx
	movl	-68(%rbp), %eax
	addl	%edx, %eax
	movl	%eax, -60(%rbp)
.L29:
	movl	count(%rip), %eax
	addl	$1, %eax
	movl	%eax, count(%rip)
	movl	count(%rip), %eax
	testl	%eax, %eax
	je	.L30
	movl	-68(%rbp), %eax
	cmpl	-64(%rbp), %eax
	jg	.L31
	movl	-60(%rbp), %eax
	cltq
	leaq	0(,%rax,4), %rdx
	movq	-88(%rbp), %rax
	addq	%rdx, %rax
	movl	(%rax), %eax
	cmpl	%eax, -96(%rbp)
	jne	.L24
	movl	-60(%rbp), %eax
	jmp	.L25
.L24:
	movl	-60(%rbp), %eax
	cltq
	leaq	0(,%rax,4), %rdx
	movq	-88(%rbp), %rax
	addq	%rdx, %rax
	movl	(%rax), %eax
	cmpl	%eax, -96(%rbp)
	jle	.L26
	movl	-60(%rbp), %eax
	addl	$1, %eax
	movl	%eax, -68(%rbp)
	jmp	.L27
.L26:
	movl	-60(%rbp), %eax
	subl	$1, %eax
	movl	%eax, -64(%rbp)
.L27:
	movq	_TIG_iO_l4N8_1_writeFiles_1_opaque_ptr_1(%rip), %rdx
	movq	_TIG_iO_l4N8_1_writeFiles_1_opaque_ptr_2(%rip), %rax
	cmpq	%rax, %rdx
	jne	.L28
	call	plotter
.L28:
	movl	-64(%rbp), %eax
	subl	-68(%rbp), %eax
	movl	%eax, %edx
	shrl	$31, %edx
	addl	%edx, %eax
	sarl	%eax
	movl	%eax, %edx
	movl	-68(%rbp), %eax
	addl	%edx, %eax
	movl	%eax, -60(%rbp)
	jmp	.L29
.L30:
	nop
	jmp	.L23
.L31:
	nop
.L23:
	movl	$-1, %eax
.L25:
	leave
	.cfi_def_cfa 7, 8
	ret
	.cfi_endproc
.LFE6:
	.size	binarySearch, .-binarySearch
	.section	.rodata
.LC14:
	.string	"w"
.LC15:
	.string	"%d\t%d\n"
	.text
	.globl	writeFiles
	.type	writeFiles, @function
writeFiles:
.LFB7:
	.cfi_startproc
	endbr64
	pushq	%rbp
	.cfi_def_cfa_offset 16
	.cfi_offset 6, -16
	movq	%rsp, %rbp
	.cfi_def_cfa_register 6
	subq	$144, %rsp
	movq	%rdi, -120(%rbp)
	movq	%rsi, -128(%rbp)
	movq	%rdx, -136(%rbp)
	movq	%rcx, -144(%rbp)
#APP
# 51 "Kunwar-Yuvraj_ada-lab_2.c" 1
	##_ANNOTATION_INITIALREGION_-TIG-iO-l4N8-1-writeFiles--24
# 0 "" 2
# 55 "Kunwar-Yuvraj_ada-lab_2.c" 1
	##_ANNOTATION_ATOMICREGION_-TIG-iO-l4N8-1-writeFiles--23
# 0 "" 2
#NO_APP
	movl	$24, %edi
	call	malloc@PLT
	movq	%rax, -72(%rbp)
	movq	-72(%rbp), %rax
	movq	-72(%rbp), %rdx
	movq	%rdx, (%rax)
	movq	-72(%rbp), %rax
	movq	-72(%rbp), %rdx
	movq	%rdx, 8(%rax)
	movq	-72(%rbp), %rax
	movq	%rax, _TIG_iO_l4N8_1_writeFiles_1_opaque_list_1(%rip)
	call	rand@PLT
	movl	%eax, -92(%rbp)
	movl	$24, %edi
	call	malloc@PLT
	movq	%rax, -64(%rbp)
	movq	-64(%rbp), %rax
	movl	$0, 16(%rax)
	movq	_TIG_iO_l4N8_1_writeFiles_1_opaque_list_1(%rip), %rax
	movq	(%rax), %rdx
	movq	-64(%rbp), %rax
	movq	%rdx, (%rax)
	movq	_TIG_iO_l4N8_1_writeFiles_1_opaque_list_1(%rip), %rdx
	movq	-64(%rbp), %rax
	movq	%rdx, 8(%rax)
	movq	_TIG_iO_l4N8_1_writeFiles_1_opaque_list_1(%rip), %rax
	movq	(%rax), %rax
	movq	-64(%rbp), %rdx
	movq	%rdx, 8(%rax)
	movq	_TIG_iO_l4N8_1_writeFiles_1_opaque_list_1(%rip), %rax
	movq	-64(%rbp), %rdx
	movq	%rdx, (%rax)
	call	rand@PLT
	movl	%eax, -88(%rbp)
	movl	$24, %edi
	call	malloc@PLT
	movq	%rax, -56(%rbp)
	movq	-56(%rbp), %rax
	movl	-88(%rbp), %edx
	movl	%edx, 16(%rax)
	movq	_TIG_iO_l4N8_1_writeFiles_1_opaque_list_1(%rip), %rax
	movq	(%rax), %rdx
	movq	-56(%rbp), %rax
	movq	%rdx, (%rax)
	movq	_TIG_iO_l4N8_1_writeFiles_1_opaque_list_1(%rip), %rdx
	movq	-56(%rbp), %rax
	movq	%rdx, 8(%rax)
	movq	_TIG_iO_l4N8_1_writeFiles_1_opaque_list_1(%rip), %rax
	movq	(%rax), %rax
	movq	-56(%rbp), %rdx
	movq	%rdx, 8(%rax)
	movq	_TIG_iO_l4N8_1_writeFiles_1_opaque_list_1(%rip), %rax
	movq	-56(%rbp), %rdx
	movq	%rdx, (%rax)
	call	rand@PLT
	movl	%eax, -84(%rbp)
	movl	$24, %edi
	call	malloc@PLT
	movq	%rax, -48(%rbp)
	movl	-84(%rbp), %eax
	leal	(%rax,%rax), %edx
	movq	-48(%rbp), %rax
	movl	%edx, 16(%rax)
	movq	_TIG_iO_l4N8_1_writeFiles_1_opaque_list_1(%rip), %rax
	movq	(%rax), %rdx
	movq	-48(%rbp), %rax
	movq	%rdx, (%rax)
	movq	_TIG_iO_l4N8_1_writeFiles_1_opaque_list_1(%rip), %rdx
	movq	-48(%rbp), %rax
	movq	%rdx, 8(%rax)
	movq	_TIG_iO_l4N8_1_writeFiles_1_opaque_list_1(%rip), %rax
	movq	(%rax), %rax
	movq	-48(%rbp), %rdx
	movq	%rdx, 8(%rax)
	movq	_TIG_iO_l4N8_1_writeFiles_1_opaque_list_1(%rip), %rax
	movq	-48(%rbp), %rdx
	movq	%rdx, (%rax)
	movq	_TIG_iO_l4N8_1_writeFiles_1_opaque_list_1(%rip), %rax
	movq	(%rax), %rax
	movq	%rax, _TIG_iO_l4N8_1_writeFiles_1_opaque_ptr_1(%rip)
	movq	_TIG_iO_l4N8_1_writeFiles_1_opaque_ptr_1(%rip), %rax
	movq	%rax, _TIG_iO_l4N8_1_writeFiles_1_opaque_ptr_2(%rip)
	movq	_TIG_iO_l4N8_1_writeFiles_1_opaque_ptr_2(%rip), %rax
	movq	(%rax), %rax
	movq	%rax, _TIG_iO_l4N8_1_writeFiles_1_opaque_ptr_2(%rip)
	nop
	nop
	movq	-120(%rbp), %rax
	leaq	.LC14(%rip), %rdx
	movq	%rdx, %rsi
	movq	%rax, %rdi
	call	fopen@PLT
	movq	%rax, -40(%rbp)
	movq	-128(%rbp), %rax
	leaq	.LC14(%rip), %rdx
	movq	%rdx, %rsi
	movq	%rax, %rdi
	call	fopen@PLT
	movq	%rax, -32(%rbp)
	movq	-136(%rbp), %rax
	leaq	.LC14(%rip), %rdx
	movq	%rdx, %rsi
	movq	%rax, %rdi
	call	fopen@PLT
	movq	%rax, -24(%rbp)
	movl	$2, -108(%rbp)
.L43:
	movq	_TIG_iO_l4N8_1_writeFiles_1_opaque_ptr_1(%rip), %rdx
	movq	_TIG_iO_l4N8_1_writeFiles_1_opaque_ptr_2(%rip), %rax
	cmpq	%rax, %rdx
	jne	.L33
	cmpl	$1024, -108(%rbp)
	setle	%al
	movzbl	%al, %eax
	cmpl	%eax, -100(%rbp)
	jne	.L34
	jmp	.L32
.L33:
	cmpl	$1024, -108(%rbp)
	jg	.L45
.L34:
	movl	-108(%rbp), %eax
	cltq
	salq	$2, %rax
	movq	%rax, %rdi
	call	malloc@PLT
	movq	%rax, -16(%rbp)
	movq	-16(%rbp), %rax
	movq	%rax, -8(%rbp)
	movl	$0, -104(%rbp)
	jmp	.L37
.L38:
	movl	-104(%rbp), %eax
	cltq
	leaq	0(,%rax,4), %rdx
	movq	-8(%rbp), %rax
	addq	%rdx, %rax
	movl	$1, (%rax)
	addl	$1, -104(%rbp)
.L37:
	movl	-104(%rbp), %eax
	cmpl	-108(%rbp), %eax
	jl	.L38
	movl	-108(%rbp), %ecx
	movq	-8(%rbp), %rax
	movq	-144(%rbp), %r8
	movl	$1, %edx
	movl	%ecx, %esi
	movq	%rax, %rdi
	call	*%r8
	movl	count(%rip), %ecx
	movl	-108(%rbp), %edx
	movq	-40(%rbp), %rax
	leaq	.LC15(%rip), %rsi
	movq	%rax, %rdi
	movl	$0, %eax
	call	fprintf@PLT
	movl	$0, -100(%rbp)
	jmp	.L39
.L40:
	movl	-100(%rbp), %eax
	cltq
	leaq	0(,%rax,4), %rdx
	movq	-8(%rbp), %rax
	addq	%rdx, %rax
	movl	$0, (%rax)
	addl	$1, -100(%rbp)
.L39:
	movl	-100(%rbp), %eax
	cmpl	-108(%rbp), %eax
	jl	.L40
	movl	-108(%rbp), %ecx
	movq	-8(%rbp), %rax
	movq	-144(%rbp), %r8
	movl	$1, %edx
	movl	%ecx, %esi
	movq	%rax, %rdi
	call	*%r8
	movl	count(%rip), %ecx
	movl	-108(%rbp), %edx
	movq	-32(%rbp), %rax
	leaq	.LC15(%rip), %rsi
	movq	%rax, %rdi
	movl	$0, %eax
	call	fprintf@PLT
	movl	$0, -96(%rbp)
	jmp	.L41
.L42:
	call	rand@PLT
	movl	%eax, -76(%rbp)
	movl	-96(%rbp), %eax
	cltq
	leaq	0(,%rax,4), %rdx
	movq	-8(%rbp), %rax
	leaq	(%rdx,%rax), %rcx
	movl	-76(%rbp), %eax
	cltd
	idivl	-108(%rbp)
	movl	%edx, %eax
	movl	%eax, (%rcx)
	addl	$1, -96(%rbp)
.L41:
	movl	-96(%rbp), %eax
	cmpl	-108(%rbp), %eax
	jl	.L42
	call	rand@PLT
	movl	%eax, -80(%rbp)
	movl	-80(%rbp), %eax
	cltd
	idivl	-108(%rbp)
	movl	-108(%rbp), %ecx
	movq	-8(%rbp), %rax
	movq	-144(%rbp), %r8
	movl	%ecx, %esi
	movq	%rax, %rdi
	call	*%r8
	movl	count(%rip), %ecx
	movl	-108(%rbp), %edx
	movq	-24(%rbp), %rax
	leaq	.LC15(%rip), %rsi
	movq	%rax, %rdi
	movl	$0, %eax
	call	fprintf@PLT
	movq	-8(%rbp), %rax
	movq	%rax, %rdi
	call	free@PLT
	sall	-108(%rbp)
	jmp	.L43
.L45:
	nop
	movq	-40(%rbp), %rax
	movq	%rax, %rdi
	call	fclose@PLT
	movq	-24(%rbp), %rax
	movq	%rax, %rdi
	call	fclose@PLT
	movq	-32(%rbp), %rax
	movq	%rax, %rdi
	call	fclose@PLT
	nop
.L32:
	leave
	.cfi_def_cfa 7, 8
	ret
	.cfi_endproc
.LFE7:
	.size	writeFiles, .-writeFiles
	.section	.rodata
.LC16:
	.string	"1. Tester\n2. Plotter"
.LC17:
	.string	"Enter your choice: "
.LC18:
	.string	"Invalid choice!"
	.text
	.globl	main
	.type	main, @function
main:
.LFB10:
	.cfi_startproc
	endbr64
	pushq	%rbp
	.cfi_def_cfa_offset 16
	.cfi_offset 6, -16
	movq	%rsp, %rbp
	.cfi_def_cfa_register 6
	subq	$80, %rsp
	movl	%edi, -52(%rbp)
	movq	%rsi, -64(%rbp)
	movq	%rdx, -72(%rbp)
	movq	%fs:40, %rax
	movq	%rax, -8(%rbp)
	xorl	%eax, %eax
	movl	$0, count(%rip)
	nop
.L47:
	movq	$0, _TIG_IZ_l4N8_envp(%rip)
	nop
.L48:
	movq	$0, _TIG_IZ_l4N8_argv(%rip)
	nop
.L49:
	movl	$0, _TIG_IZ_l4N8_argc(%rip)
	nop
	nop
.L50:
.L51:
#APP
# 126 "/usr/include/x86_64-linux-gnu/bits/byteswap.h" 1
	##_ANNOTATION_INITIALREGION_-TIG-IZ-l4N8--0
# 0 "" 2
#NO_APP
	movl	-52(%rbp), %eax
	movl	%eax, _TIG_IZ_l4N8_argc(%rip)
	movq	-64(%rbp), %rax
	movq	%rax, _TIG_IZ_l4N8_argv(%rip)
	movq	-72(%rbp), %rax
	movq	%rax, _TIG_IZ_l4N8_envp(%rip)
#APP
# 133 "/usr/include/x86_64-linux-gnu/bits/byteswap.h" 1
	##_ANNOTATION_ATOMICREGION_-TIG-iO-l4N8-1-main--17
# 0 "" 2
#NO_APP
	movl	$24, %edi
	call	malloc@PLT
	movq	%rax, -32(%rbp)
	movq	-32(%rbp), %rax
	movq	-32(%rbp), %rdx
	movq	%rdx, 8(%rax)
	movq	-32(%rbp), %rax
	movq	-32(%rbp), %rdx
	movq	%rdx, (%rax)
	movq	-32(%rbp), %rax
	movq	%rax, _TIG_iO_l4N8_1_main_1_opaque_list_1(%rip)
	call	rand@PLT
	movl	%eax, -40(%rbp)
	movl	$24, %edi
	call	malloc@PLT
	movq	%rax, -24(%rbp)
	movq	-24(%rbp), %rax
	movl	$0, 16(%rax)
	movq	_TIG_iO_l4N8_1_main_1_opaque_list_1(%rip), %rax
	movq	8(%rax), %rdx
	movq	-24(%rbp), %rax
	movq	%rdx, 8(%rax)
	movq	_TIG_iO_l4N8_1_main_1_opaque_list_1(%rip), %rdx
	movq	-24(%rbp), %rax
	movq	%rdx, (%rax)
	movq	_TIG_iO_l4N8_1_main_1_opaque_list_1(%rip), %rax
	movq	8(%rax), %rax
	movq	-24(%rbp), %rdx
	movq	%rdx, (%rax)
	movq	_TIG_iO_l4N8_1_main_1_opaque_list_1(%rip), %rax
	movq	-24(%rbp), %rdx
	movq	%rdx, 8(%rax)
	call	rand@PLT
	movl	%eax, -36(%rbp)
	movl	$24, %edi
	call	malloc@PLT
	movq	%rax, -16(%rbp)
	movq	-16(%rbp), %rax
	movl	-36(%rbp), %edx
	movl	%edx, 16(%rax)
	movq	_TIG_iO_l4N8_1_main_1_opaque_list_1(%rip), %rax
	movq	8(%rax), %rdx
	movq	-16(%rbp), %rax
	movq	%rdx, 8(%rax)
	movq	_TIG_iO_l4N8_1_main_1_opaque_list_1(%rip), %rdx
	movq	-16(%rbp), %rax
	movq	%rdx, (%rax)
	movq	_TIG_iO_l4N8_1_main_1_opaque_list_1(%rip), %rax
	movq	8(%rax), %rax
	movq	-16(%rbp), %rdx
	movq	%rdx, (%rax)
	movq	_TIG_iO_l4N8_1_main_1_opaque_list_1(%rip), %rax
	movq	-16(%rbp), %rdx
	movq	%rdx, 8(%rax)
	movq	_TIG_iO_l4N8_1_main_1_opaque_list_1(%rip), %rax
	movq	8(%rax), %rax
	movq	%rax, _TIG_iO_l4N8_1_main_1_opaque_ptr_1(%rip)
	movq	_TIG_iO_l4N8_1_main_1_opaque_ptr_1(%rip), %rax
	movq	%rax, _TIG_iO_l4N8_1_main_1_opaque_ptr_2(%rip)
	movq	_TIG_iO_l4N8_1_main_1_opaque_ptr_2(%rip), %rax
	movq	8(%rax), %rax
	movq	%rax, _TIG_iO_l4N8_1_main_1_opaque_ptr_2(%rip)
	nop
	nop
	leaq	.LC16(%rip), %rax
	movq	%rax, %rdi
	call	puts@PLT
	leaq	.LC17(%rip), %rax
	movq	%rax, %rdi
	movl	$0, %eax
	call	printf@PLT
	leaq	-44(%rbp), %rax
	movq	%rax, %rsi
	leaq	.LC1(%rip), %rax
	movq	%rax, %rdi
	movl	$0, %eax
	call	__isoc99_scanf@PLT
	movl	-44(%rbp), %eax
	cmpl	$1, %eax
	jne	.L52
	call	tester
	jmp	.L53
.L52:
	movl	-44(%rbp), %eax
	cmpl	$2, %eax
	jne	.L54
	movq	_TIG_iO_l4N8_1_writeFiles_1_opaque_ptr_1(%rip), %rdx
	movq	_TIG_iO_l4N8_1_writeFiles_1_opaque_ptr_2(%rip), %rax
	cmpq	%rax, %rdx
	jne	.L55
	call	tester
.L55:
	call	plotter
	jmp	.L53
.L54:
	leaq	.LC18(%rip), %rax
	movq	%rax, %rdi
	call	puts@PLT
.L53:
	movl	$0, %eax
	movq	-8(%rbp), %rdx
	subq	%fs:40, %rdx
	je	.L57
	call	__stack_chk_fail@PLT
.L57:
	leave
	.cfi_def_cfa 7, 8
	ret
	.cfi_endproc
.LFE10:
	.size	main, .-main
	.ident	"GCC: (Ubuntu 11.4.0-1ubuntu1~22.04) 11.4.0"
	.section	.note.GNU-stack,"",@progbits
	.section	.note.gnu.property,"a"
	.align 8
	.long	1f - 0f
	.long	4f - 1f
	.long	5
0:
	.string	"GNU"
1:
	.align 8
	.long	0xc0000002
	.long	3f - 2f
2:
	.long	0x3
3:
	.align 8
4:
