	.file	"logicchains_LPATHBench_c_opaque.c"
	.text
	.globl	_TIG_iO_IT6a_1___uint16_identity_1_opaque_ptr_1
	.bss
	.align 8
	.type	_TIG_iO_IT6a_1___uint16_identity_1_opaque_ptr_1, @object
	.size	_TIG_iO_IT6a_1___uint16_identity_1_opaque_ptr_1, 8
_TIG_iO_IT6a_1___uint16_identity_1_opaque_ptr_1:
	.zero	8
	.globl	_TIG_iO_IT6a_1___uint32_identity_1_opaque_ptr_2
	.align 8
	.type	_TIG_iO_IT6a_1___uint32_identity_1_opaque_ptr_2, @object
	.size	_TIG_iO_IT6a_1___uint32_identity_1_opaque_ptr_2, 8
_TIG_iO_IT6a_1___uint32_identity_1_opaque_ptr_2:
	.zero	8
	.globl	_TIG_iO_IT6a_1_max_distance_branchless_1_opaque_ptr_2
	.align 8
	.type	_TIG_iO_IT6a_1_max_distance_branchless_1_opaque_ptr_2, @object
	.size	_TIG_iO_IT6a_1_max_distance_branchless_1_opaque_ptr_2, 8
_TIG_iO_IT6a_1_max_distance_branchless_1_opaque_ptr_2:
	.zero	8
	.globl	_TIG_iO_IT6a_1_main_1_opaque_list_2
	.align 8
	.type	_TIG_iO_IT6a_1_main_1_opaque_list_2, @object
	.size	_TIG_iO_IT6a_1_main_1_opaque_list_2, 8
_TIG_iO_IT6a_1_main_1_opaque_list_2:
	.zero	8
	.globl	_TIG_iO_IT6a_1_bitmap_set_bit_1_opaque_ptr_1
	.align 8
	.type	_TIG_iO_IT6a_1_bitmap_set_bit_1_opaque_ptr_1, @object
	.size	_TIG_iO_IT6a_1_bitmap_set_bit_1_opaque_ptr_1, 8
_TIG_iO_IT6a_1_bitmap_set_bit_1_opaque_ptr_1:
	.zero	8
	.globl	_TIG_iO_IT6a_1_bitmap_set_bit_1_opaque_list_2
	.align 8
	.type	_TIG_iO_IT6a_1_bitmap_set_bit_1_opaque_list_2, @object
	.size	_TIG_iO_IT6a_1_bitmap_set_bit_1_opaque_list_2, 8
_TIG_iO_IT6a_1_bitmap_set_bit_1_opaque_list_2:
	.zero	8
	.globl	_TIG_iO_IT6a_1_bitmap_clear_bit_1_opaque_ptr_1
	.align 8
	.type	_TIG_iO_IT6a_1_bitmap_clear_bit_1_opaque_ptr_1, @object
	.size	_TIG_iO_IT6a_1_bitmap_clear_bit_1_opaque_ptr_1, 8
_TIG_iO_IT6a_1_bitmap_clear_bit_1_opaque_ptr_1:
	.zero	8
	.globl	_TIG_iO_IT6a_1_max_distance_simple_1_opaque_ptr_1
	.align 8
	.type	_TIG_iO_IT6a_1_max_distance_simple_1_opaque_ptr_1, @object
	.size	_TIG_iO_IT6a_1_max_distance_simple_1_opaque_ptr_1, 8
_TIG_iO_IT6a_1_max_distance_simple_1_opaque_ptr_1:
	.zero	8
	.globl	_TIG_iO_IT6a_1_max_distance_branchless_1_opaque_list_1
	.align 8
	.type	_TIG_iO_IT6a_1_max_distance_branchless_1_opaque_list_1, @object
	.size	_TIG_iO_IT6a_1_max_distance_branchless_1_opaque_list_1, 8
_TIG_iO_IT6a_1_max_distance_branchless_1_opaque_list_1:
	.zero	8
	.globl	_TIG_iO_IT6a_1_read_graph_file_1_opaque_list_2
	.align 8
	.type	_TIG_iO_IT6a_1_read_graph_file_1_opaque_list_2, @object
	.size	_TIG_iO_IT6a_1_read_graph_file_1_opaque_list_2, 8
_TIG_iO_IT6a_1_read_graph_file_1_opaque_list_2:
	.zero	8
	.globl	_TIG_iO_IT6a_1___uint16_identity_1_opaque_list_1
	.align 8
	.type	_TIG_iO_IT6a_1___uint16_identity_1_opaque_list_1, @object
	.size	_TIG_iO_IT6a_1___uint16_identity_1_opaque_list_1, 8
_TIG_iO_IT6a_1___uint16_identity_1_opaque_list_1:
	.zero	8
	.globl	_TIG_iO_IT6a_1_read_graph_file_1_opaque_list_1
	.align 8
	.type	_TIG_iO_IT6a_1_read_graph_file_1_opaque_list_1, @object
	.size	_TIG_iO_IT6a_1_read_graph_file_1_opaque_list_1, 8
_TIG_iO_IT6a_1_read_graph_file_1_opaque_list_1:
	.zero	8
	.globl	_TIG_iO_IT6a_1_bitmap_is_set_1_opaque_ptr_2
	.align 8
	.type	_TIG_iO_IT6a_1_bitmap_is_set_1_opaque_ptr_2, @object
	.size	_TIG_iO_IT6a_1_bitmap_is_set_1_opaque_ptr_2, 8
_TIG_iO_IT6a_1_bitmap_is_set_1_opaque_ptr_2:
	.zero	8
	.globl	_TIG_iO_IT6a_1___bswap_64_1_opaque_list_1
	.align 8
	.type	_TIG_iO_IT6a_1___bswap_64_1_opaque_list_1, @object
	.size	_TIG_iO_IT6a_1___bswap_64_1_opaque_list_1, 8
_TIG_iO_IT6a_1___bswap_64_1_opaque_list_1:
	.zero	8
	.globl	_TIG_iO_IT6a_1_bitmap_set_bit_1_opaque_list_1
	.align 8
	.type	_TIG_iO_IT6a_1_bitmap_set_bit_1_opaque_list_1, @object
	.size	_TIG_iO_IT6a_1_bitmap_set_bit_1_opaque_list_1, 8
_TIG_iO_IT6a_1_bitmap_set_bit_1_opaque_list_1:
	.zero	8
	.globl	_TIG_iO_IT6a_1_max_distance_bitmap_1_opaque_list_1
	.align 8
	.type	_TIG_iO_IT6a_1_max_distance_bitmap_1_opaque_list_1, @object
	.size	_TIG_iO_IT6a_1_max_distance_bitmap_1_opaque_list_1, 8
_TIG_iO_IT6a_1_max_distance_bitmap_1_opaque_list_1:
	.zero	8
	.globl	_TIG_iO_IT6a_1___uint64_identity_1_opaque_list_1
	.align 8
	.type	_TIG_iO_IT6a_1___uint64_identity_1_opaque_list_1, @object
	.size	_TIG_iO_IT6a_1___uint64_identity_1_opaque_list_1, 8
_TIG_iO_IT6a_1___uint64_identity_1_opaque_list_1:
	.zero	8
	.globl	_TIG_iO_IT6a_1_bitmap_is_set_1_opaque_list_2
	.align 8
	.type	_TIG_iO_IT6a_1_bitmap_is_set_1_opaque_list_2, @object
	.size	_TIG_iO_IT6a_1_bitmap_is_set_1_opaque_list_2, 8
_TIG_iO_IT6a_1_bitmap_is_set_1_opaque_list_2:
	.zero	8
	.globl	_TIG_iO_IT6a_1___uint64_identity_1_opaque_ptr_2
	.align 8
	.type	_TIG_iO_IT6a_1___uint64_identity_1_opaque_ptr_2, @object
	.size	_TIG_iO_IT6a_1___uint64_identity_1_opaque_ptr_2, 8
_TIG_iO_IT6a_1___uint64_identity_1_opaque_ptr_2:
	.zero	8
	.globl	_TIG_iO_IT6a_1_max_distance_branchless_1_opaque_list_2
	.align 8
	.type	_TIG_iO_IT6a_1_max_distance_branchless_1_opaque_list_2, @object
	.size	_TIG_iO_IT6a_1_max_distance_branchless_1_opaque_list_2, 8
_TIG_iO_IT6a_1_max_distance_branchless_1_opaque_list_2:
	.zero	8
	.globl	_TIG_iO_IT6a_1_max_distance_branchless_1_opaque_ptr_1
	.align 8
	.type	_TIG_iO_IT6a_1_max_distance_branchless_1_opaque_ptr_1, @object
	.size	_TIG_iO_IT6a_1_max_distance_branchless_1_opaque_ptr_1, 8
_TIG_iO_IT6a_1_max_distance_branchless_1_opaque_ptr_1:
	.zero	8
	.globl	_TIG_iO_IT6a_1_bitmap_clear_bit_1_opaque_list_1
	.align 8
	.type	_TIG_iO_IT6a_1_bitmap_clear_bit_1_opaque_list_1, @object
	.size	_TIG_iO_IT6a_1_bitmap_clear_bit_1_opaque_list_1, 8
_TIG_iO_IT6a_1_bitmap_clear_bit_1_opaque_list_1:
	.zero	8
	.globl	_TIG_iO_IT6a_1___bswap_32_1_opaque_ptr_1
	.align 8
	.type	_TIG_iO_IT6a_1___bswap_32_1_opaque_ptr_1, @object
	.size	_TIG_iO_IT6a_1___bswap_32_1_opaque_ptr_1, 8
_TIG_iO_IT6a_1___bswap_32_1_opaque_ptr_1:
	.zero	8
	.globl	_TIG_iO_IT6a_1___bswap_16_1_opaque_list_1
	.align 8
	.type	_TIG_iO_IT6a_1___bswap_16_1_opaque_list_1, @object
	.size	_TIG_iO_IT6a_1___bswap_16_1_opaque_list_1, 8
_TIG_iO_IT6a_1___bswap_16_1_opaque_list_1:
	.zero	8
	.globl	_TIG_iO_IT6a_1_max_distance_bitmap_1_opaque_ptr_2
	.align 8
	.type	_TIG_iO_IT6a_1_max_distance_bitmap_1_opaque_ptr_2, @object
	.size	_TIG_iO_IT6a_1_max_distance_bitmap_1_opaque_ptr_2, 8
_TIG_iO_IT6a_1_max_distance_bitmap_1_opaque_ptr_2:
	.zero	8
	.globl	_TIG_iO_IT6a_1_max_distance_simple_1_opaque_ptr_2
	.align 8
	.type	_TIG_iO_IT6a_1_max_distance_simple_1_opaque_ptr_2, @object
	.size	_TIG_iO_IT6a_1_max_distance_simple_1_opaque_ptr_2, 8
_TIG_iO_IT6a_1_max_distance_simple_1_opaque_ptr_2:
	.zero	8
	.globl	_TIG_iO_IT6a_1_main_1_opaque_ptr_1
	.align 8
	.type	_TIG_iO_IT6a_1_main_1_opaque_ptr_1, @object
	.size	_TIG_iO_IT6a_1_main_1_opaque_ptr_1, 8
_TIG_iO_IT6a_1_main_1_opaque_ptr_1:
	.zero	8
	.globl	_TIG_iO_IT6a_1_max_distance_bitmap_1_opaque_ptr_1
	.align 8
	.type	_TIG_iO_IT6a_1_max_distance_bitmap_1_opaque_ptr_1, @object
	.size	_TIG_iO_IT6a_1_max_distance_bitmap_1_opaque_ptr_1, 8
_TIG_iO_IT6a_1_max_distance_bitmap_1_opaque_ptr_1:
	.zero	8
	.globl	_TIG_iO_IT6a_1___bswap_64_1_opaque_ptr_2
	.align 8
	.type	_TIG_iO_IT6a_1___bswap_64_1_opaque_ptr_2, @object
	.size	_TIG_iO_IT6a_1___bswap_64_1_opaque_ptr_2, 8
_TIG_iO_IT6a_1___bswap_64_1_opaque_ptr_2:
	.zero	8
	.globl	_TIG_iO_IT6a_1___uint32_identity_1_opaque_list_2
	.align 8
	.type	_TIG_iO_IT6a_1___uint32_identity_1_opaque_list_2, @object
	.size	_TIG_iO_IT6a_1___uint32_identity_1_opaque_list_2, 8
_TIG_iO_IT6a_1___uint32_identity_1_opaque_list_2:
	.zero	8
	.globl	_TIG_iO_IT6a_1_max_distance_simple_1_opaque_list_1
	.align 8
	.type	_TIG_iO_IT6a_1_max_distance_simple_1_opaque_list_1, @object
	.size	_TIG_iO_IT6a_1_max_distance_simple_1_opaque_list_1, 8
_TIG_iO_IT6a_1_max_distance_simple_1_opaque_list_1:
	.zero	8
	.globl	_TIG_iO_IT6a_1___bswap_64_1_opaque_list_2
	.align 8
	.type	_TIG_iO_IT6a_1___bswap_64_1_opaque_list_2, @object
	.size	_TIG_iO_IT6a_1___bswap_64_1_opaque_list_2, 8
_TIG_iO_IT6a_1___bswap_64_1_opaque_list_2:
	.zero	8
	.globl	_TIG_iO_IT6a_1_max_distance_bitmap_1_opaque_list_2
	.align 8
	.type	_TIG_iO_IT6a_1_max_distance_bitmap_1_opaque_list_2, @object
	.size	_TIG_iO_IT6a_1_max_distance_bitmap_1_opaque_list_2, 8
_TIG_iO_IT6a_1_max_distance_bitmap_1_opaque_list_2:
	.zero	8
	.globl	_TIG_iO_IT6a_1_read_graph_file_1_opaque_ptr_1
	.align 8
	.type	_TIG_iO_IT6a_1_read_graph_file_1_opaque_ptr_1, @object
	.size	_TIG_iO_IT6a_1_read_graph_file_1_opaque_ptr_1, 8
_TIG_iO_IT6a_1_read_graph_file_1_opaque_ptr_1:
	.zero	8
	.globl	_TIG_IZ_IT6a_argc
	.align 4
	.type	_TIG_IZ_IT6a_argc, @object
	.size	_TIG_IZ_IT6a_argc, 4
_TIG_IZ_IT6a_argc:
	.zero	4
	.globl	_TIG_iO_IT6a_1_bitmap_is_set_1_opaque_list_1
	.align 8
	.type	_TIG_iO_IT6a_1_bitmap_is_set_1_opaque_list_1, @object
	.size	_TIG_iO_IT6a_1_bitmap_is_set_1_opaque_list_1, 8
_TIG_iO_IT6a_1_bitmap_is_set_1_opaque_list_1:
	.zero	8
	.globl	_TIG_iO_IT6a_1_main_1_opaque_list_1
	.align 8
	.type	_TIG_iO_IT6a_1_main_1_opaque_list_1, @object
	.size	_TIG_iO_IT6a_1_main_1_opaque_list_1, 8
_TIG_iO_IT6a_1_main_1_opaque_list_1:
	.zero	8
	.globl	_TIG_iO_IT6a_1_bitmap_clear_bit_1_opaque_ptr_2
	.align 8
	.type	_TIG_iO_IT6a_1_bitmap_clear_bit_1_opaque_ptr_2, @object
	.size	_TIG_iO_IT6a_1_bitmap_clear_bit_1_opaque_ptr_2, 8
_TIG_iO_IT6a_1_bitmap_clear_bit_1_opaque_ptr_2:
	.zero	8
	.globl	_TIG_iO_IT6a_1___uint32_identity_1_opaque_ptr_1
	.align 8
	.type	_TIG_iO_IT6a_1___uint32_identity_1_opaque_ptr_1, @object
	.size	_TIG_iO_IT6a_1___uint32_identity_1_opaque_ptr_1, 8
_TIG_iO_IT6a_1___uint32_identity_1_opaque_ptr_1:
	.zero	8
	.globl	_TIG_IZ_IT6a_envp
	.align 8
	.type	_TIG_IZ_IT6a_envp, @object
	.size	_TIG_IZ_IT6a_envp, 8
_TIG_IZ_IT6a_envp:
	.zero	8
	.globl	_TIG_iO_IT6a_1___bswap_16_1_opaque_ptr_2
	.align 8
	.type	_TIG_iO_IT6a_1___bswap_16_1_opaque_ptr_2, @object
	.size	_TIG_iO_IT6a_1___bswap_16_1_opaque_ptr_2, 8
_TIG_iO_IT6a_1___bswap_16_1_opaque_ptr_2:
	.zero	8
	.globl	_TIG_iO_IT6a_1_bitmap_clear_bit_1_opaque_list_2
	.align 8
	.type	_TIG_iO_IT6a_1_bitmap_clear_bit_1_opaque_list_2, @object
	.size	_TIG_iO_IT6a_1_bitmap_clear_bit_1_opaque_list_2, 8
_TIG_iO_IT6a_1_bitmap_clear_bit_1_opaque_list_2:
	.zero	8
	.globl	_TIG_iO_IT6a_1___bswap_16_1_opaque_list_2
	.align 8
	.type	_TIG_iO_IT6a_1___bswap_16_1_opaque_list_2, @object
	.size	_TIG_iO_IT6a_1___bswap_16_1_opaque_list_2, 8
_TIG_iO_IT6a_1___bswap_16_1_opaque_list_2:
	.zero	8
	.globl	_TIG_iO_IT6a_1_bitmap_set_bit_1_opaque_ptr_2
	.align 8
	.type	_TIG_iO_IT6a_1_bitmap_set_bit_1_opaque_ptr_2, @object
	.size	_TIG_iO_IT6a_1_bitmap_set_bit_1_opaque_ptr_2, 8
_TIG_iO_IT6a_1_bitmap_set_bit_1_opaque_ptr_2:
	.zero	8
	.globl	_TIG_iO_IT6a_1___uint64_identity_1_opaque_list_2
	.align 8
	.type	_TIG_iO_IT6a_1___uint64_identity_1_opaque_list_2, @object
	.size	_TIG_iO_IT6a_1___uint64_identity_1_opaque_list_2, 8
_TIG_iO_IT6a_1___uint64_identity_1_opaque_list_2:
	.zero	8
	.globl	_TIG_iO_IT6a_1___bswap_64_1_opaque_ptr_1
	.align 8
	.type	_TIG_iO_IT6a_1___bswap_64_1_opaque_ptr_1, @object
	.size	_TIG_iO_IT6a_1___bswap_64_1_opaque_ptr_1, 8
_TIG_iO_IT6a_1___bswap_64_1_opaque_ptr_1:
	.zero	8
	.globl	_TIG_iO_IT6a_1___uint16_identity_1_opaque_ptr_2
	.align 8
	.type	_TIG_iO_IT6a_1___uint16_identity_1_opaque_ptr_2, @object
	.size	_TIG_iO_IT6a_1___uint16_identity_1_opaque_ptr_2, 8
_TIG_iO_IT6a_1___uint16_identity_1_opaque_ptr_2:
	.zero	8
	.globl	_TIG_IZ_IT6a_argv
	.align 8
	.type	_TIG_IZ_IT6a_argv, @object
	.size	_TIG_IZ_IT6a_argv, 8
_TIG_IZ_IT6a_argv:
	.zero	8
	.globl	_TIG_iO_IT6a_1_bitmap_is_set_1_opaque_ptr_1
	.align 8
	.type	_TIG_iO_IT6a_1_bitmap_is_set_1_opaque_ptr_1, @object
	.size	_TIG_iO_IT6a_1_bitmap_is_set_1_opaque_ptr_1, 8
_TIG_iO_IT6a_1_bitmap_is_set_1_opaque_ptr_1:
	.zero	8
	.globl	_TIG_iO_IT6a_1___bswap_16_1_opaque_ptr_1
	.align 8
	.type	_TIG_iO_IT6a_1___bswap_16_1_opaque_ptr_1, @object
	.size	_TIG_iO_IT6a_1___bswap_16_1_opaque_ptr_1, 8
_TIG_iO_IT6a_1___bswap_16_1_opaque_ptr_1:
	.zero	8
	.globl	_TIG_iO_IT6a_1_main_1_opaque_ptr_2
	.align 8
	.type	_TIG_iO_IT6a_1_main_1_opaque_ptr_2, @object
	.size	_TIG_iO_IT6a_1_main_1_opaque_ptr_2, 8
_TIG_iO_IT6a_1_main_1_opaque_ptr_2:
	.zero	8
	.globl	_TIG_iO_IT6a_1_read_graph_file_1_opaque_ptr_2
	.align 8
	.type	_TIG_iO_IT6a_1_read_graph_file_1_opaque_ptr_2, @object
	.size	_TIG_iO_IT6a_1_read_graph_file_1_opaque_ptr_2, 8
_TIG_iO_IT6a_1_read_graph_file_1_opaque_ptr_2:
	.zero	8
	.globl	_TIG_iO_IT6a_1___uint64_identity_1_opaque_ptr_1
	.align 8
	.type	_TIG_iO_IT6a_1___uint64_identity_1_opaque_ptr_1, @object
	.size	_TIG_iO_IT6a_1___uint64_identity_1_opaque_ptr_1, 8
_TIG_iO_IT6a_1___uint64_identity_1_opaque_ptr_1:
	.zero	8
	.globl	_TIG_iO_IT6a_1_max_distance_simple_1_opaque_list_2
	.align 8
	.type	_TIG_iO_IT6a_1_max_distance_simple_1_opaque_list_2, @object
	.size	_TIG_iO_IT6a_1_max_distance_simple_1_opaque_list_2, 8
_TIG_iO_IT6a_1_max_distance_simple_1_opaque_list_2:
	.zero	8
	.globl	_TIG_iO_IT6a_1___bswap_32_1_opaque_list_2
	.align 8
	.type	_TIG_iO_IT6a_1___bswap_32_1_opaque_list_2, @object
	.size	_TIG_iO_IT6a_1___bswap_32_1_opaque_list_2, 8
_TIG_iO_IT6a_1___bswap_32_1_opaque_list_2:
	.zero	8
	.globl	_TIG_iO_IT6a_1___bswap_32_1_opaque_ptr_2
	.align 8
	.type	_TIG_iO_IT6a_1___bswap_32_1_opaque_ptr_2, @object
	.size	_TIG_iO_IT6a_1___bswap_32_1_opaque_ptr_2, 8
_TIG_iO_IT6a_1___bswap_32_1_opaque_ptr_2:
	.zero	8
	.globl	_TIG_iO_IT6a_1___bswap_32_1_opaque_list_1
	.align 8
	.type	_TIG_iO_IT6a_1___bswap_32_1_opaque_list_1, @object
	.size	_TIG_iO_IT6a_1___bswap_32_1_opaque_list_1, 8
_TIG_iO_IT6a_1___bswap_32_1_opaque_list_1:
	.zero	8
	.globl	_TIG_iO_IT6a_1___uint16_identity_1_opaque_list_2
	.align 8
	.type	_TIG_iO_IT6a_1___uint16_identity_1_opaque_list_2, @object
	.size	_TIG_iO_IT6a_1___uint16_identity_1_opaque_list_2, 8
_TIG_iO_IT6a_1___uint16_identity_1_opaque_list_2:
	.zero	8
	.globl	_TIG_iO_IT6a_1___uint32_identity_1_opaque_list_1
	.align 8
	.type	_TIG_iO_IT6a_1___uint32_identity_1_opaque_list_1, @object
	.size	_TIG_iO_IT6a_1___uint32_identity_1_opaque_list_1, 8
_TIG_iO_IT6a_1___uint32_identity_1_opaque_list_1:
	.zero	8
	.text
	.globl	max_distance_simple
	.type	max_distance_simple, @function
max_distance_simple:
.LFB0:
	.cfi_startproc
	endbr64
	pushq	%rbp
	.cfi_def_cfa_offset 16
	.cfi_offset 6, -16
	movq	%rsp, %rbp
	.cfi_def_cfa_register 6
	subq	$112, %rsp
	movq	%rdi, -104(%rbp)
	movq	%rsi, -112(%rbp)
#APP
# 88 "/usr/include/stdlib.h" 1
	##_ANNOTATION_INITIALREGION_-TIG-iO-IT6a-1-max-distance-simple--26
# 0 "" 2
# 92 "/usr/include/stdlib.h" 1
	##_ANNOTATION_ATOMICREGION_-TIG-iO-IT6a-1-max-distance-simple--25
# 0 "" 2
#NO_APP
	movl	$24, %edi
	call	malloc@PLT
	movq	%rax, -56(%rbp)
	movq	-56(%rbp), %rax
	movq	-56(%rbp), %rdx
	movq	%rdx, (%rax)
	movq	-56(%rbp), %rax
	movq	-56(%rbp), %rdx
	movq	%rdx, 16(%rax)
	movq	-56(%rbp), %rax
	movq	%rax, _TIG_iO_IT6a_1_max_distance_simple_1_opaque_list_1(%rip)
	call	rand@PLT
	movl	%eax, -88(%rbp)
	movl	$24, %edi
	call	malloc@PLT
	movq	%rax, -48(%rbp)
	movq	-48(%rbp), %rax
	movl	$0, 8(%rax)
	movq	_TIG_iO_IT6a_1_max_distance_simple_1_opaque_list_1(%rip), %rax
	movq	(%rax), %rdx
	movq	-48(%rbp), %rax
	movq	%rdx, (%rax)
	movq	_TIG_iO_IT6a_1_max_distance_simple_1_opaque_list_1(%rip), %rdx
	movq	-48(%rbp), %rax
	movq	%rdx, 16(%rax)
	movq	_TIG_iO_IT6a_1_max_distance_simple_1_opaque_list_1(%rip), %rax
	movq	(%rax), %rax
	movq	-48(%rbp), %rdx
	movq	%rdx, 16(%rax)
	movq	_TIG_iO_IT6a_1_max_distance_simple_1_opaque_list_1(%rip), %rax
	movq	-48(%rbp), %rdx
	movq	%rdx, (%rax)
	call	rand@PLT
	movl	%eax, -84(%rbp)
	movl	$24, %edi
	call	malloc@PLT
	movq	%rax, -40(%rbp)
	movq	-40(%rbp), %rax
	movl	-84(%rbp), %edx
	movl	%edx, 8(%rax)
	movq	_TIG_iO_IT6a_1_max_distance_simple_1_opaque_list_1(%rip), %rax
	movq	(%rax), %rdx
	movq	-40(%rbp), %rax
	movq	%rdx, (%rax)
	movq	_TIG_iO_IT6a_1_max_distance_simple_1_opaque_list_1(%rip), %rdx
	movq	-40(%rbp), %rax
	movq	%rdx, 16(%rax)
	movq	_TIG_iO_IT6a_1_max_distance_simple_1_opaque_list_1(%rip), %rax
	movq	(%rax), %rax
	movq	-40(%rbp), %rdx
	movq	%rdx, 16(%rax)
	movq	_TIG_iO_IT6a_1_max_distance_simple_1_opaque_list_1(%rip), %rax
	movq	-40(%rbp), %rdx
	movq	%rdx, (%rax)
	call	rand@PLT
	movl	%eax, -80(%rbp)
	movl	$24, %edi
	call	malloc@PLT
	movq	%rax, -32(%rbp)
	movl	-80(%rbp), %eax
	leal	(%rax,%rax), %edx
	movq	-32(%rbp), %rax
	movl	%edx, 8(%rax)
	movq	_TIG_iO_IT6a_1_max_distance_simple_1_opaque_list_1(%rip), %rax
	movq	(%rax), %rdx
	movq	-32(%rbp), %rax
	movq	%rdx, (%rax)
	movq	_TIG_iO_IT6a_1_max_distance_simple_1_opaque_list_1(%rip), %rdx
	movq	-32(%rbp), %rax
	movq	%rdx, 16(%rax)
	movq	_TIG_iO_IT6a_1_max_distance_simple_1_opaque_list_1(%rip), %rax
	movq	(%rax), %rax
	movq	-32(%rbp), %rdx
	movq	%rdx, 16(%rax)
	movq	_TIG_iO_IT6a_1_max_distance_simple_1_opaque_list_1(%rip), %rax
	movq	-32(%rbp), %rdx
	movq	%rdx, (%rax)
	call	rand@PLT
	movl	%eax, -76(%rbp)
	movl	$24, %edi
	call	malloc@PLT
	movq	%rax, -24(%rbp)
	movl	-76(%rbp), %edx
	movl	%edx, %eax
	addl	%eax, %eax
	addl	%eax, %edx
	movq	-24(%rbp), %rax
	movl	%edx, 8(%rax)
	movq	_TIG_iO_IT6a_1_max_distance_simple_1_opaque_list_1(%rip), %rax
	movq	(%rax), %rdx
	movq	-24(%rbp), %rax
	movq	%rdx, (%rax)
	movq	_TIG_iO_IT6a_1_max_distance_simple_1_opaque_list_1(%rip), %rdx
	movq	-24(%rbp), %rax
	movq	%rdx, 16(%rax)
	movq	_TIG_iO_IT6a_1_max_distance_simple_1_opaque_list_1(%rip), %rax
	movq	(%rax), %rax
	movq	-24(%rbp), %rdx
	movq	%rdx, 16(%rax)
	movq	_TIG_iO_IT6a_1_max_distance_simple_1_opaque_list_1(%rip), %rax
	movq	-24(%rbp), %rdx
	movq	%rdx, (%rax)
	movq	_TIG_iO_IT6a_1_max_distance_simple_1_opaque_list_1(%rip), %rax
	movq	(%rax), %rax
	movq	%rax, _TIG_iO_IT6a_1_max_distance_simple_1_opaque_ptr_1(%rip)
	movq	_TIG_iO_IT6a_1_max_distance_simple_1_opaque_ptr_1(%rip), %rax
	movq	%rax, _TIG_iO_IT6a_1_max_distance_simple_1_opaque_ptr_2(%rip)
	nop
	nop
	movl	$0, -96(%rbp)
	movq	-112(%rbp), %rax
	movl	(%rax), %eax
	movl	%eax, -72(%rbp)
	movq	-112(%rbp), %rax
	movl	(%rax), %eax
	orl	$-2147483648, %eax
	movl	%eax, %edx
	movq	-112(%rbp), %rax
	movl	%edx, (%rax)
	movl	$0, -92(%rbp)
	movq	_TIG_iO_IT6a_1_read_graph_file_1_opaque_ptr_1(%rip), %rdx
	movq	_TIG_iO_IT6a_1_read_graph_file_1_opaque_ptr_2(%rip), %rax
	cmpq	%rax, %rdx
	jne	.L2
	jmp	.L3
.L6:
	movq	-112(%rbp), %rax
	leaq	4(%rax), %rdx
	movl	-92(%rbp), %eax
	salq	$3, %rax
	addq	%rdx, %rax
	movq	%rax, -16(%rbp)
	movq	-16(%rbp), %rax
	movl	(%rax), %eax
	movl	%eax, %eax
	leaq	0(,%rax,8), %rdx
	movq	-104(%rbp), %rax
	addq	%rdx, %rax
	movq	(%rax), %rax
	movq	%rax, -8(%rbp)
	movq	-8(%rbp), %rax
	movl	(%rax), %eax
	testl	%eax, %eax
	js	.L9
	movq	-8(%rbp), %rdx
	movq	-104(%rbp), %rax
	movq	%rdx, %rsi
	movq	%rax, %rdi
	call	max_distance_simple
	movl	%eax, -68(%rbp)
	movl	-68(%rbp), %eax
	movl	%eax, -64(%rbp)
	movq	-16(%rbp), %rax
	movl	4(%rax), %edx
	movl	-64(%rbp), %eax
	addl	%edx, %eax
	movl	%eax, -60(%rbp)
	movl	-60(%rbp), %eax
	cmpl	-96(%rbp), %eax
	jbe	.L10
	movl	-60(%rbp), %eax
	movl	%eax, -96(%rbp)
	jmp	.L5
.L9:
	nop
	jmp	.L5
.L10:
	nop
.L5:
	addl	$1, -92(%rbp)
.L3:
	movl	-92(%rbp), %eax
	cmpl	-72(%rbp), %eax
	jb	.L6
	jmp	.L7
.L2:
#APP
# 87 "logicchains_LPATHBench_c.c" 1
	.byte 0x35,0x33
# 0 "" 2
#NO_APP
.L7:
	movq	-112(%rbp), %rax
	movl	(%rax), %eax
	andl	$2147483647, %eax
	movl	%eax, %edx
	movq	-112(%rbp), %rax
	movl	%edx, (%rax)
	movl	-96(%rbp), %eax
	leave
	.cfi_def_cfa 7, 8
	ret
	.cfi_endproc
.LFE0:
	.size	max_distance_simple, .-max_distance_simple
	.type	bitmap_is_set, @function
bitmap_is_set:
.LFB3:
	.cfi_startproc
	pushq	%rbp
	.cfi_def_cfa_offset 16
	.cfi_offset 6, -16
	movq	%rsp, %rbp
	.cfi_def_cfa_register 6
	subq	$48, %rsp
	movq	%rdi, -40(%rbp)
	movq	%rsi, -48(%rbp)
#APP
# 53 "/usr/include/x86_64-linux-gnu/bits/byteswap.h" 1
	##_ANNOTATION_INITIALREGION_-TIG-iO-IT6a-1-bitmap-is-set--16
# 0 "" 2
# 57 "/usr/include/x86_64-linux-gnu/bits/byteswap.h" 1
	##_ANNOTATION_ATOMICREGION_-TIG-iO-IT6a-1-bitmap-is-set--15
# 0 "" 2
#NO_APP
	movl	$24, %edi
	call	malloc@PLT
	movq	%rax, -24(%rbp)
	movq	-24(%rbp), %rax
	movq	-24(%rbp), %rdx
	movq	%rdx, 16(%rax)
	movq	-24(%rbp), %rax
	movq	-24(%rbp), %rdx
	movq	%rdx, 8(%rax)
	movq	-24(%rbp), %rax
	movq	%rax, _TIG_iO_IT6a_1_bitmap_is_set_1_opaque_list_1(%rip)
	call	rand@PLT
	movl	%eax, -32(%rbp)
	movl	$24, %edi
	call	malloc@PLT
	movq	%rax, -16(%rbp)
	movq	-16(%rbp), %rax
	movl	$0, (%rax)
	movq	_TIG_iO_IT6a_1_bitmap_is_set_1_opaque_list_1(%rip), %rax
	movq	16(%rax), %rdx
	movq	-16(%rbp), %rax
	movq	%rdx, 16(%rax)
	movq	_TIG_iO_IT6a_1_bitmap_is_set_1_opaque_list_1(%rip), %rdx
	movq	-16(%rbp), %rax
	movq	%rdx, 8(%rax)
	movq	_TIG_iO_IT6a_1_bitmap_is_set_1_opaque_list_1(%rip), %rax
	movq	16(%rax), %rax
	movq	-16(%rbp), %rdx
	movq	%rdx, 8(%rax)
	movq	_TIG_iO_IT6a_1_bitmap_is_set_1_opaque_list_1(%rip), %rax
	movq	-16(%rbp), %rdx
	movq	%rdx, 16(%rax)
	call	rand@PLT
	movl	%eax, -28(%rbp)
	movl	$24, %edi
	call	malloc@PLT
	movq	%rax, -8(%rbp)
	movq	-8(%rbp), %rax
	movl	-28(%rbp), %edx
	movl	%edx, (%rax)
	movq	_TIG_iO_IT6a_1_bitmap_is_set_1_opaque_list_1(%rip), %rax
	movq	16(%rax), %rdx
	movq	-8(%rbp), %rax
	movq	%rdx, 16(%rax)
	movq	_TIG_iO_IT6a_1_bitmap_is_set_1_opaque_list_1(%rip), %rdx
	movq	-8(%rbp), %rax
	movq	%rdx, 8(%rax)
	movq	_TIG_iO_IT6a_1_bitmap_is_set_1_opaque_list_1(%rip), %rax
	movq	16(%rax), %rax
	movq	-8(%rbp), %rdx
	movq	%rdx, 8(%rax)
	movq	_TIG_iO_IT6a_1_bitmap_is_set_1_opaque_list_1(%rip), %rax
	movq	-8(%rbp), %rdx
	movq	%rdx, 16(%rax)
	movq	_TIG_iO_IT6a_1_bitmap_is_set_1_opaque_list_1(%rip), %rax
	movq	16(%rax), %rax
	movq	%rax, _TIG_iO_IT6a_1_bitmap_is_set_1_opaque_ptr_1(%rip)
	movq	_TIG_iO_IT6a_1_bitmap_is_set_1_opaque_ptr_1(%rip), %rax
	movq	%rax, _TIG_iO_IT6a_1_bitmap_is_set_1_opaque_ptr_2(%rip)
	nop
	nop
	movq	_TIG_iO_IT6a_1_read_graph_file_1_opaque_ptr_1(%rip), %rdx
	movq	_TIG_iO_IT6a_1_read_graph_file_1_opaque_ptr_2(%rip), %rax
	cmpq	%rax, %rdx
	jne	.L12
	movq	-48(%rbp), %rax
	shrq	$6, %rax
	leaq	0(,%rax,8), %rdx
	movq	-40(%rbp), %rax
	addq	%rdx, %rax
	movq	(%rax), %rdx
	movq	-48(%rbp), %rax
	andl	$63, %eax
	movl	%eax, %ecx
	shrq	%cl, %rdx
	movq	%rdx, %rax
	andl	$1, %eax
	testq	%rax, %rax
	setne	%al
	jmp	.L13
.L12:
	movl	$1, %eax
.L13:
	leave
	.cfi_def_cfa 7, 8
	ret
	.cfi_endproc
.LFE3:
	.size	bitmap_is_set, .-bitmap_is_set
	.type	bitmap_set_bit, @function
bitmap_set_bit:
.LFB6:
	.cfi_startproc
	pushq	%rbp
	.cfi_def_cfa_offset 16
	.cfi_offset 6, -16
	movq	%rsp, %rbp
	.cfi_def_cfa_register 6
	subq	$48, %rsp
	movq	%rdi, -40(%rbp)
	movq	%rsi, -48(%rbp)
#APP
# 55 "/usr/include/x86_64-linux-gnu/bits/uintn-identity.h" 1
	##_ANNOTATION_INITIALREGION_-TIG-iO-IT6a-1-bitmap-set-bit--18
# 0 "" 2
# 59 "/usr/include/x86_64-linux-gnu/bits/uintn-identity.h" 1
	##_ANNOTATION_ATOMICREGION_-TIG-iO-IT6a-1-bitmap-set-bit--17
# 0 "" 2
#NO_APP
	movl	$24, %edi
	call	malloc@PLT
	movq	%rax, -24(%rbp)
	movq	-24(%rbp), %rax
	movq	-24(%rbp), %rdx
	movq	%rdx, 8(%rax)
	movq	-24(%rbp), %rax
	movq	-24(%rbp), %rdx
	movq	%rdx, (%rax)
	movq	-24(%rbp), %rax
	movq	%rax, _TIG_iO_IT6a_1_bitmap_set_bit_1_opaque_list_1(%rip)
	call	rand@PLT
	movl	%eax, -32(%rbp)
	movl	$24, %edi
	call	malloc@PLT
	movq	%rax, -16(%rbp)
	movq	-16(%rbp), %rax
	movl	$0, 16(%rax)
	movq	_TIG_iO_IT6a_1_bitmap_set_bit_1_opaque_list_1(%rip), %rax
	movq	8(%rax), %rdx
	movq	-16(%rbp), %rax
	movq	%rdx, 8(%rax)
	movq	_TIG_iO_IT6a_1_bitmap_set_bit_1_opaque_list_1(%rip), %rdx
	movq	-16(%rbp), %rax
	movq	%rdx, (%rax)
	movq	_TIG_iO_IT6a_1_bitmap_set_bit_1_opaque_list_1(%rip), %rax
	movq	8(%rax), %rax
	movq	-16(%rbp), %rdx
	movq	%rdx, (%rax)
	movq	_TIG_iO_IT6a_1_bitmap_set_bit_1_opaque_list_1(%rip), %rax
	movq	-16(%rbp), %rdx
	movq	%rdx, 8(%rax)
	call	rand@PLT
	movl	%eax, -28(%rbp)
	movl	$24, %edi
	call	malloc@PLT
	movq	%rax, -8(%rbp)
	movq	-8(%rbp), %rax
	movl	-28(%rbp), %edx
	movl	%edx, 16(%rax)
	movq	_TIG_iO_IT6a_1_bitmap_set_bit_1_opaque_list_1(%rip), %rax
	movq	8(%rax), %rdx
	movq	-8(%rbp), %rax
	movq	%rdx, 8(%rax)
	movq	_TIG_iO_IT6a_1_bitmap_set_bit_1_opaque_list_1(%rip), %rdx
	movq	-8(%rbp), %rax
	movq	%rdx, (%rax)
	movq	_TIG_iO_IT6a_1_bitmap_set_bit_1_opaque_list_1(%rip), %rax
	movq	8(%rax), %rax
	movq	-8(%rbp), %rdx
	movq	%rdx, (%rax)
	movq	_TIG_iO_IT6a_1_bitmap_set_bit_1_opaque_list_1(%rip), %rax
	movq	-8(%rbp), %rdx
	movq	%rdx, 8(%rax)
	movq	_TIG_iO_IT6a_1_bitmap_set_bit_1_opaque_list_1(%rip), %rax
	movq	8(%rax), %rax
	movq	%rax, _TIG_iO_IT6a_1_bitmap_set_bit_1_opaque_ptr_1(%rip)
	movq	_TIG_iO_IT6a_1_bitmap_set_bit_1_opaque_ptr_1(%rip), %rax
	movq	%rax, _TIG_iO_IT6a_1_bitmap_set_bit_1_opaque_ptr_2(%rip)
	movq	_TIG_iO_IT6a_1_bitmap_set_bit_1_opaque_ptr_2(%rip), %rax
	movq	8(%rax), %rax
	movq	%rax, _TIG_iO_IT6a_1_bitmap_set_bit_1_opaque_ptr_2(%rip)
	nop
	nop
	movq	-48(%rbp), %rax
	shrq	$6, %rax
	leaq	0(,%rax,8), %rcx
	movq	-40(%rbp), %rdx
	addq	%rcx, %rdx
	movq	(%rdx), %rsi
	movq	-48(%rbp), %rdx
	andl	$63, %edx
	movl	$1, %edi
	movl	%edx, %ecx
	salq	%cl, %rdi
	movq	%rdi, %rdx
	leaq	0(,%rax,8), %rcx
	movq	-40(%rbp), %rax
	addq	%rcx, %rax
	orq	%rsi, %rdx
	movq	%rdx, (%rax)
	movq	_TIG_iO_IT6a_1_read_graph_file_1_opaque_ptr_1(%rip), %rdx
	movq	_TIG_iO_IT6a_1_read_graph_file_1_opaque_ptr_2(%rip), %rax
	cmpq	%rax, %rdx
	nop
	leave
	.cfi_def_cfa 7, 8
	ret
	.cfi_endproc
.LFE6:
	.size	bitmap_set_bit, .-bitmap_set_bit
	.globl	max_distance_branchless
	.type	max_distance_branchless, @function
max_distance_branchless:
.LFB7:
	.cfi_startproc
	endbr64
	pushq	%rbp
	.cfi_def_cfa_offset 16
	.cfi_offset 6, -16
	movq	%rsp, %rbp
	.cfi_def_cfa_register 6
	subq	$1328, %rsp
	movq	%rdi, -1320(%rbp)
	movq	%rsi, -1328(%rbp)
	movq	%fs:40, %rax
	movq	%rax, -8(%rbp)
	xorl	%eax, %eax
#APP
# 77 "logicchains_LPATHBench_c.c" 1
	##_ANNOTATION_INITIALREGION_-TIG-iO-IT6a-1-max-distance-branchless--24
# 0 "" 2
# 81 "logicchains_LPATHBench_c.c" 1
	##_ANNOTATION_ATOMICREGION_-TIG-iO-IT6a-1-max-distance-branchless--23
# 0 "" 2
#NO_APP
	movl	$24, %edi
	call	malloc@PLT
	movq	%rax, -1264(%rbp)
	movq	-1264(%rbp), %rax
	movq	-1264(%rbp), %rdx
	movq	%rdx, (%rax)
	movq	-1264(%rbp), %rax
	movq	-1264(%rbp), %rdx
	movq	%rdx, 8(%rax)
	movq	-1264(%rbp), %rax
	movq	%rax, _TIG_iO_IT6a_1_max_distance_branchless_1_opaque_list_1(%rip)
	call	rand@PLT
	movl	%eax, -1296(%rbp)
	movl	$24, %edi
	call	malloc@PLT
	movq	%rax, -1256(%rbp)
	movq	-1256(%rbp), %rax
	movl	$0, 16(%rax)
	movq	_TIG_iO_IT6a_1_max_distance_branchless_1_opaque_list_1(%rip), %rax
	movq	(%rax), %rdx
	movq	-1256(%rbp), %rax
	movq	%rdx, (%rax)
	movq	_TIG_iO_IT6a_1_max_distance_branchless_1_opaque_list_1(%rip), %rdx
	movq	-1256(%rbp), %rax
	movq	%rdx, 8(%rax)
	movq	_TIG_iO_IT6a_1_max_distance_branchless_1_opaque_list_1(%rip), %rax
	movq	(%rax), %rax
	movq	-1256(%rbp), %rdx
	movq	%rdx, 8(%rax)
	movq	_TIG_iO_IT6a_1_max_distance_branchless_1_opaque_list_1(%rip), %rax
	movq	-1256(%rbp), %rdx
	movq	%rdx, (%rax)
	call	rand@PLT
	movl	%eax, -1292(%rbp)
	movl	$24, %edi
	call	malloc@PLT
	movq	%rax, -1248(%rbp)
	movq	-1248(%rbp), %rax
	movl	-1292(%rbp), %edx
	movl	%edx, 16(%rax)
	movq	_TIG_iO_IT6a_1_max_distance_branchless_1_opaque_list_1(%rip), %rax
	movq	(%rax), %rdx
	movq	-1248(%rbp), %rax
	movq	%rdx, (%rax)
	movq	_TIG_iO_IT6a_1_max_distance_branchless_1_opaque_list_1(%rip), %rdx
	movq	-1248(%rbp), %rax
	movq	%rdx, 8(%rax)
	movq	_TIG_iO_IT6a_1_max_distance_branchless_1_opaque_list_1(%rip), %rax
	movq	(%rax), %rax
	movq	-1248(%rbp), %rdx
	movq	%rdx, 8(%rax)
	movq	_TIG_iO_IT6a_1_max_distance_branchless_1_opaque_list_1(%rip), %rax
	movq	-1248(%rbp), %rdx
	movq	%rdx, (%rax)
	call	rand@PLT
	movl	%eax, -1288(%rbp)
	movl	$24, %edi
	call	malloc@PLT
	movq	%rax, -1240(%rbp)
	movl	-1288(%rbp), %eax
	leal	(%rax,%rax), %edx
	movq	-1240(%rbp), %rax
	movl	%edx, 16(%rax)
	movq	_TIG_iO_IT6a_1_max_distance_branchless_1_opaque_list_1(%rip), %rax
	movq	(%rax), %rdx
	movq	-1240(%rbp), %rax
	movq	%rdx, (%rax)
	movq	_TIG_iO_IT6a_1_max_distance_branchless_1_opaque_list_1(%rip), %rdx
	movq	-1240(%rbp), %rax
	movq	%rdx, 8(%rax)
	movq	_TIG_iO_IT6a_1_max_distance_branchless_1_opaque_list_1(%rip), %rax
	movq	(%rax), %rax
	movq	-1240(%rbp), %rdx
	movq	%rdx, 8(%rax)
	movq	_TIG_iO_IT6a_1_max_distance_branchless_1_opaque_list_1(%rip), %rax
	movq	-1240(%rbp), %rdx
	movq	%rdx, (%rax)
	movq	_TIG_iO_IT6a_1_max_distance_branchless_1_opaque_list_1(%rip), %rax
	movq	(%rax), %rax
	movq	%rax, _TIG_iO_IT6a_1_max_distance_branchless_1_opaque_ptr_1(%rip)
	movq	_TIG_iO_IT6a_1_max_distance_branchless_1_opaque_ptr_1(%rip), %rax
	movq	%rax, _TIG_iO_IT6a_1_max_distance_branchless_1_opaque_ptr_2(%rip)
	movq	_TIG_iO_IT6a_1_max_distance_branchless_1_opaque_ptr_2(%rip), %rax
	movq	(%rax), %rax
	movq	%rax, _TIG_iO_IT6a_1_max_distance_branchless_1_opaque_ptr_2(%rip)
	nop
	nop
	movq	-1328(%rbp), %rax
	movl	(%rax), %eax
	movl	%eax, -1308(%rbp)
	movq	-1328(%rbp), %rax
	movl	(%rax), %eax
	orl	$-2147483648, %eax
	movl	%eax, %edx
	movq	-1328(%rbp), %rax
	movl	%edx, (%rax)
	movl	$1, -1304(%rbp)
	movq	-1328(%rbp), %rax
	addq	$4, %rax
	movq	%rax, -1272(%rbp)
	movl	$0, -1300(%rbp)
.L21:
	movq	-1272(%rbp), %rax
	movl	(%rax), %eax
	movl	%eax, %eax
	leaq	0(,%rax,8), %rdx
	movq	-1320(%rbp), %rax
	addq	%rdx, %rax
	movq	(%rax), %rax
	movq	%rax, -1232(%rbp)
	movl	-1304(%rbp), %eax
	movq	-1232(%rbp), %rdx
	movq	%rdx, -816(%rbp,%rax,8)
	movq	-1272(%rbp), %rax
	movl	4(%rax), %edx
	movl	-1304(%rbp), %eax
	movl	%edx, -1216(%rbp,%rax,4)
	movq	-1232(%rbp), %rax
	movl	(%rax), %eax
	testl	%eax, %eax
	js	.L18
	addl	$1, -1304(%rbp)
.L18:
	addq	$8, -1272(%rbp)
	subl	$1, -1308(%rbp)
	cmpl	$0, -1308(%rbp)
	jne	.L21
.L20:
	subl	$1, -1304(%rbp)
	cmpl	$0, -1304(%rbp)
	je	.L28
	movl	-1304(%rbp), %eax
	movq	-816(%rbp,%rax,8), %rax
	movq	%rax, -1224(%rbp)
	movq	-1224(%rbp), %rdx
	movq	-1320(%rbp), %rax
	movq	%rdx, %rsi
	movq	%rax, %rdi
	call	max_distance_branchless
	movl	%eax, -1284(%rbp)
	movl	-1284(%rbp), %eax
	movl	%eax, -1280(%rbp)
	movl	-1304(%rbp), %eax
	movl	-1216(%rbp,%rax,4), %edx
	movl	-1280(%rbp), %eax
	addl	%edx, %eax
	movl	%eax, -1276(%rbp)
	movl	-1276(%rbp), %eax
	cmpl	-1300(%rbp), %eax
	jbe	.L20
	movq	_TIG_iO_IT6a_1_read_graph_file_1_opaque_ptr_1(%rip), %rdx
	movq	_TIG_iO_IT6a_1_read_graph_file_1_opaque_ptr_2(%rip), %rax
	cmpq	%rax, %rdx
	jne	.L20
	movl	-1276(%rbp), %eax
	movl	%eax, -1300(%rbp)
	jmp	.L20
.L28:
	nop
	movq	-1328(%rbp), %rax
	movl	(%rax), %eax
	andl	$2147483647, %eax
	movl	%eax, %edx
	movq	-1328(%rbp), %rax
	movl	%edx, (%rax)
	movl	-1300(%rbp), %eax
	movq	-8(%rbp), %rdx
	subq	%fs:40, %rdx
	je	.L26
	call	__stack_chk_fail@PLT
.L26:
	leave
	.cfi_def_cfa 7, 8
	ret
	.cfi_endproc
.LFE7:
	.size	max_distance_branchless, .-max_distance_branchless
	.globl	max_distance_bitmap
	.type	max_distance_bitmap, @function
max_distance_bitmap:
.LFB9:
	.cfi_startproc
	endbr64
	pushq	%rbp
	.cfi_def_cfa_offset 16
	.cfi_offset 6, -16
	movq	%rsp, %rbp
	.cfi_def_cfa_register 6
	addq	$-128, %rsp
	movq	%rdi, -104(%rbp)
	movl	%esi, -108(%rbp)
	movq	%rdx, -120(%rbp)
#APP
# 76 "/usr/include/x86_64-linux-gnu/bits/uintn-identity.h" 1
	##_ANNOTATION_INITIALREGION_-TIG-iO-IT6a-1-max-distance-bitmap--22
# 0 "" 2
# 80 "/usr/include/x86_64-linux-gnu/bits/uintn-identity.h" 1
	##_ANNOTATION_ATOMICREGION_-TIG-iO-IT6a-1-max-distance-bitmap--21
# 0 "" 2
#NO_APP
	movl	$24, %edi
	call	malloc@PLT
	movq	%rax, -48(%rbp)
	movq	-48(%rbp), %rax
	movq	-48(%rbp), %rdx
	movq	%rdx, (%rax)
	movq	-48(%rbp), %rax
	movq	-48(%rbp), %rdx
	movq	%rdx, 16(%rax)
	movq	-48(%rbp), %rax
	movq	%rax, _TIG_iO_IT6a_1_max_distance_bitmap_1_opaque_list_1(%rip)
	call	rand@PLT
	movl	%eax, -80(%rbp)
	movl	$24, %edi
	call	malloc@PLT
	movq	%rax, -40(%rbp)
	movq	-40(%rbp), %rax
	movl	$0, 8(%rax)
	movq	_TIG_iO_IT6a_1_max_distance_bitmap_1_opaque_list_1(%rip), %rax
	movq	(%rax), %rdx
	movq	-40(%rbp), %rax
	movq	%rdx, (%rax)
	movq	_TIG_iO_IT6a_1_max_distance_bitmap_1_opaque_list_1(%rip), %rdx
	movq	-40(%rbp), %rax
	movq	%rdx, 16(%rax)
	movq	_TIG_iO_IT6a_1_max_distance_bitmap_1_opaque_list_1(%rip), %rax
	movq	(%rax), %rax
	movq	-40(%rbp), %rdx
	movq	%rdx, 16(%rax)
	movq	_TIG_iO_IT6a_1_max_distance_bitmap_1_opaque_list_1(%rip), %rax
	movq	-40(%rbp), %rdx
	movq	%rdx, (%rax)
	call	rand@PLT
	movl	%eax, -76(%rbp)
	movl	$24, %edi
	call	malloc@PLT
	movq	%rax, -32(%rbp)
	movq	-32(%rbp), %rax
	movl	-76(%rbp), %edx
	movl	%edx, 8(%rax)
	movq	_TIG_iO_IT6a_1_max_distance_bitmap_1_opaque_list_1(%rip), %rax
	movq	(%rax), %rdx
	movq	-32(%rbp), %rax
	movq	%rdx, (%rax)
	movq	_TIG_iO_IT6a_1_max_distance_bitmap_1_opaque_list_1(%rip), %rdx
	movq	-32(%rbp), %rax
	movq	%rdx, 16(%rax)
	movq	_TIG_iO_IT6a_1_max_distance_bitmap_1_opaque_list_1(%rip), %rax
	movq	(%rax), %rax
	movq	-32(%rbp), %rdx
	movq	%rdx, 16(%rax)
	movq	_TIG_iO_IT6a_1_max_distance_bitmap_1_opaque_list_1(%rip), %rax
	movq	-32(%rbp), %rdx
	movq	%rdx, (%rax)
	call	rand@PLT
	movl	%eax, -72(%rbp)
	movl	$24, %edi
	call	malloc@PLT
	movq	%rax, -24(%rbp)
	movl	-72(%rbp), %eax
	leal	(%rax,%rax), %edx
	movq	-24(%rbp), %rax
	movl	%edx, 8(%rax)
	movq	_TIG_iO_IT6a_1_max_distance_bitmap_1_opaque_list_1(%rip), %rax
	movq	(%rax), %rdx
	movq	-24(%rbp), %rax
	movq	%rdx, (%rax)
	movq	_TIG_iO_IT6a_1_max_distance_bitmap_1_opaque_list_1(%rip), %rdx
	movq	-24(%rbp), %rax
	movq	%rdx, 16(%rax)
	movq	_TIG_iO_IT6a_1_max_distance_bitmap_1_opaque_list_1(%rip), %rax
	movq	(%rax), %rax
	movq	-24(%rbp), %rdx
	movq	%rdx, 16(%rax)
	movq	_TIG_iO_IT6a_1_max_distance_bitmap_1_opaque_list_1(%rip), %rax
	movq	-24(%rbp), %rdx
	movq	%rdx, (%rax)
	movq	_TIG_iO_IT6a_1_max_distance_bitmap_1_opaque_list_1(%rip), %rax
	movq	(%rax), %rax
	movq	%rax, _TIG_iO_IT6a_1_max_distance_bitmap_1_opaque_ptr_1(%rip)
	movq	_TIG_iO_IT6a_1_max_distance_bitmap_1_opaque_ptr_1(%rip), %rax
	movq	%rax, _TIG_iO_IT6a_1_max_distance_bitmap_1_opaque_ptr_2(%rip)
	movq	_TIG_iO_IT6a_1_max_distance_bitmap_1_opaque_ptr_2(%rip), %rax
	movq	(%rax), %rax
	movq	%rax, _TIG_iO_IT6a_1_max_distance_bitmap_1_opaque_ptr_2(%rip)
	nop
	nop
	movl	-108(%rbp), %eax
	leaq	0(,%rax,8), %rdx
	movq	-104(%rbp), %rax
	addq	%rdx, %rax
	movq	(%rax), %rax
	movq	%rax, -16(%rbp)
	movq	-16(%rbp), %rax
	movl	(%rax), %eax
	movl	%eax, -68(%rbp)
	movl	$0, -88(%rbp)
	movl	-108(%rbp), %edx
	movq	-120(%rbp), %rax
	movq	%rdx, %rsi
	movq	%rax, %rdi
	call	bitmap_set_bit
	movl	$0, -84(%rbp)
	jmp	.L30
.L34:
	movq	-16(%rbp), %rax
	leaq	4(%rax), %rdx
	movl	-84(%rbp), %eax
	salq	$3, %rax
	addq	%rdx, %rax
	movq	%rax, -8(%rbp)
	movq	-8(%rbp), %rax
	movl	4(%rax), %eax
	movl	%eax, -64(%rbp)
	movq	-8(%rbp), %rax
	movl	(%rax), %eax
	movl	%eax, -60(%rbp)
	movl	-60(%rbp), %edx
	movq	-120(%rbp), %rax
	movq	%rdx, %rsi
	movq	%rax, %rdi
	call	bitmap_is_set
	movb	%al, -89(%rbp)
	cmpb	$0, -89(%rbp)
	jne	.L36
	movq	-120(%rbp), %rdx
	movl	-60(%rbp), %ecx
	movq	-104(%rbp), %rax
	movl	%ecx, %esi
	movq	%rax, %rdi
	call	max_distance_bitmap
	movl	%eax, -56(%rbp)
	movl	-56(%rbp), %eax
	movl	%eax, -52(%rbp)
	movl	-52(%rbp), %eax
	addl	%eax, -64(%rbp)
	movl	-64(%rbp), %eax
	cmpl	-88(%rbp), %eax
	jbe	.L33
	movl	-64(%rbp), %eax
	movl	%eax, -88(%rbp)
.L33:
	movq	_TIG_iO_IT6a_1_read_graph_file_1_opaque_ptr_1(%rip), %rdx
	movq	_TIG_iO_IT6a_1_read_graph_file_1_opaque_ptr_2(%rip), %rax
	cmpq	%rax, %rdx
	jne	.L30
	jmp	.L32
.L36:
	nop
.L32:
	addl	$1, -84(%rbp)
.L30:
	movl	-84(%rbp), %eax
	cmpl	-68(%rbp), %eax
	jb	.L34
	movl	-108(%rbp), %edx
	movq	-120(%rbp), %rax
	movq	%rdx, %rsi
	movq	%rax, %rdi
	call	bitmap_clear_bit
	movl	-88(%rbp), %eax
	leave
	.cfi_def_cfa 7, 8
	ret
	.cfi_endproc
.LFE9:
	.size	max_distance_bitmap, .-max_distance_bitmap
	.section	.rodata
.LC0:
	.string	"agraph"
.LC1:
	.string	""
.LC2:
	.string	"%d LANGUAGE C%s %ld\n"
	.text
	.globl	main
	.type	main, @function
main:
.LFB10:
	.cfi_startproc
	endbr64
	pushq	%rbp
	.cfi_def_cfa_offset 16
	.cfi_offset 6, -16
	movq	%rsp, %rbp
	.cfi_def_cfa_register 6
	subq	$176, %rsp
	movl	%edi, -148(%rbp)
	movq	%rsi, -160(%rbp)
	movq	%rdx, -168(%rbp)
	movq	%fs:40, %rax
	movq	%rax, -8(%rbp)
	xorl	%eax, %eax
	movq	$0, _TIG_IZ_IT6a_envp(%rip)
	nop
.L38:
	movq	$0, _TIG_IZ_IT6a_argv(%rip)
	nop
.L39:
	movl	$0, _TIG_IZ_IT6a_argc(%rip)
	nop
	nop
.L40:
.L41:
#APP
# 126 "logicchains_LPATHBench_c.c" 1
	##_ANNOTATION_INITIALREGION_-TIG-IZ-IT6a--0
# 0 "" 2
#NO_APP
	movl	-148(%rbp), %eax
	movl	%eax, _TIG_IZ_IT6a_argc(%rip)
	movq	-160(%rbp), %rax
	movq	%rax, _TIG_IZ_IT6a_argv(%rip)
	movq	-168(%rbp), %rax
	movq	%rax, _TIG_IZ_IT6a_envp(%rip)
#APP
# 133 "logicchains_LPATHBench_c.c" 1
	##_ANNOTATION_ATOMICREGION_-TIG-iO-IT6a-1-main--19
# 0 "" 2
#NO_APP
	movl	$24, %edi
	call	malloc@PLT
	movq	%rax, -120(%rbp)
	movq	-120(%rbp), %rax
	movq	-120(%rbp), %rdx
	movq	%rdx, 8(%rax)
	movq	-120(%rbp), %rax
	movq	-120(%rbp), %rdx
	movq	%rdx, 16(%rax)
	movq	-120(%rbp), %rax
	movq	%rax, _TIG_iO_IT6a_1_main_1_opaque_list_1(%rip)
	call	rand@PLT
	movl	%eax, -136(%rbp)
	movl	$24, %edi
	call	malloc@PLT
	movq	%rax, -112(%rbp)
	movq	-112(%rbp), %rax
	movl	$0, (%rax)
	movq	_TIG_iO_IT6a_1_main_1_opaque_list_1(%rip), %rax
	movq	8(%rax), %rdx
	movq	-112(%rbp), %rax
	movq	%rdx, 8(%rax)
	movq	_TIG_iO_IT6a_1_main_1_opaque_list_1(%rip), %rdx
	movq	-112(%rbp), %rax
	movq	%rdx, 16(%rax)
	movq	_TIG_iO_IT6a_1_main_1_opaque_list_1(%rip), %rax
	movq	8(%rax), %rax
	movq	-112(%rbp), %rdx
	movq	%rdx, 16(%rax)
	movq	_TIG_iO_IT6a_1_main_1_opaque_list_1(%rip), %rax
	movq	-112(%rbp), %rdx
	movq	%rdx, 8(%rax)
	call	rand@PLT
	movl	%eax, -132(%rbp)
	movl	$24, %edi
	call	malloc@PLT
	movq	%rax, -104(%rbp)
	movq	-104(%rbp), %rax
	movl	-132(%rbp), %edx
	movl	%edx, (%rax)
	movq	_TIG_iO_IT6a_1_main_1_opaque_list_1(%rip), %rax
	movq	8(%rax), %rdx
	movq	-104(%rbp), %rax
	movq	%rdx, 8(%rax)
	movq	_TIG_iO_IT6a_1_main_1_opaque_list_1(%rip), %rdx
	movq	-104(%rbp), %rax
	movq	%rdx, 16(%rax)
	movq	_TIG_iO_IT6a_1_main_1_opaque_list_1(%rip), %rax
	movq	8(%rax), %rax
	movq	-104(%rbp), %rdx
	movq	%rdx, 16(%rax)
	movq	_TIG_iO_IT6a_1_main_1_opaque_list_1(%rip), %rax
	movq	-104(%rbp), %rdx
	movq	%rdx, 8(%rax)
	movq	_TIG_iO_IT6a_1_main_1_opaque_list_1(%rip), %rax
	movq	8(%rax), %rax
	movq	%rax, _TIG_iO_IT6a_1_main_1_opaque_ptr_1(%rip)
	movq	_TIG_iO_IT6a_1_main_1_opaque_ptr_1(%rip), %rax
	movq	%rax, _TIG_iO_IT6a_1_main_1_opaque_ptr_2(%rip)
	nop
	nop
	movq	_TIG_iO_IT6a_1_read_graph_file_1_opaque_ptr_1(%rip), %rdx
	movq	_TIG_iO_IT6a_1_read_graph_file_1_opaque_ptr_2(%rip), %rax
	cmpq	%rax, %rdx
	je	.L42
	movl	-128(%rbp), %ecx
	movq	-96(%rbp), %rax
	movl	$0, %edx
	movl	%ecx, %esi
	movq	%rax, %rdi
	call	max_distance_bitmap
	movl	%eax, -128(%rbp)
.L42:
	leaq	.LC0(%rip), %rax
	movq	%rax, %rdi
	call	read_graph_file
	movq	%rax, -88(%rbp)
	movq	-88(%rbp), %rax
	movq	%rax, -96(%rbp)
	leaq	-64(%rbp), %rax
	movl	$0, %esi
	movq	%rax, %rdi
	call	gettimeofday@PLT
	leaq	.LC1(%rip), %rax
	movq	%rax, -80(%rbp)
	movq	-96(%rbp), %rax
	movq	(%rax), %rdx
	movq	-96(%rbp), %rax
	movq	%rdx, %rsi
	movq	%rax, %rdi
	call	max_distance_branchless
	movl	%eax, -124(%rbp)
	movl	-124(%rbp), %eax
	movl	%eax, -128(%rbp)
	leaq	-48(%rbp), %rax
	movl	$0, %esi
	movq	%rax, %rdi
	call	gettimeofday@PLT
	movq	-48(%rbp), %rax
	movq	-64(%rbp), %rdx
	subq	%rdx, %rax
	movq	%rax, -32(%rbp)
	movq	-40(%rbp), %rax
	movq	-56(%rbp), %rdx
	subq	%rdx, %rax
	movq	%rax, -24(%rbp)
	movq	-24(%rbp), %rax
	testq	%rax, %rax
	jns	.L47
	movq	-32(%rbp), %rax
	subq	$1, %rax
	movq	%rax, -32(%rbp)
	movq	-24(%rbp), %rax
	addq	$1000000, %rax
	movq	%rax, -24(%rbp)
.L47:
	nop
	movq	-32(%rbp), %rax
	imulq	$1000, %rax, %rsi
	movq	-24(%rbp), %rcx
	movabsq	$2361183241434822607, %rdx
	movq	%rcx, %rax
	imulq	%rdx
	movq	%rdx, %rax
	sarq	$7, %rax
	sarq	$63, %rcx
	movq	%rcx, %rdx
	subq	%rdx, %rax
	addq	%rsi, %rax
	movq	%rax, -72(%rbp)
	movq	-72(%rbp), %rcx
	movq	-80(%rbp), %rdx
	movl	-128(%rbp), %eax
	movl	%eax, %esi
	leaq	.LC2(%rip), %rax
	movq	%rax, %rdi
	movl	$0, %eax
	call	printf@PLT
	movl	$0, %eax
	movq	-8(%rbp), %rdx
	subq	%fs:40, %rdx
	je	.L45
	call	__stack_chk_fail@PLT
.L45:
	leave
	.cfi_def_cfa 7, 8
	ret
	.cfi_endproc
.LFE10:
	.size	main, .-main
	.type	bitmap_clear_bit, @function
bitmap_clear_bit:
.LFB12:
	.cfi_startproc
	pushq	%rbp
	.cfi_def_cfa_offset 16
	.cfi_offset 6, -16
	movq	%rsp, %rbp
	.cfi_def_cfa_register 6
	subq	$80, %rsp
	movq	%rdi, -72(%rbp)
	movq	%rsi, -80(%rbp)
#APP
# 65 "/usr/include/x86_64-linux-gnu/bits/uintn-identity.h" 1
	##_ANNOTATION_INITIALREGION_-TIG-iO-IT6a-1-bitmap-clear-bit--14
# 0 "" 2
# 69 "/usr/include/x86_64-linux-gnu/bits/uintn-identity.h" 1
	##_ANNOTATION_ATOMICREGION_-TIG-iO-IT6a-1-bitmap-clear-bit--13
# 0 "" 2
#NO_APP
	movl	$24, %edi
	call	malloc@PLT
	movq	%rax, -40(%rbp)
	movq	-40(%rbp), %rax
	movq	-40(%rbp), %rdx
	movq	%rdx, (%rax)
	movq	-40(%rbp), %rax
	movq	-40(%rbp), %rdx
	movq	%rdx, 8(%rax)
	movq	-40(%rbp), %rax
	movq	%rax, _TIG_iO_IT6a_1_bitmap_clear_bit_1_opaque_list_1(%rip)
	call	rand@PLT
	movl	%eax, -56(%rbp)
	movl	$24, %edi
	call	malloc@PLT
	movq	%rax, -32(%rbp)
	movq	-32(%rbp), %rax
	movl	$0, 16(%rax)
	movq	_TIG_iO_IT6a_1_bitmap_clear_bit_1_opaque_list_1(%rip), %rax
	movq	(%rax), %rdx
	movq	-32(%rbp), %rax
	movq	%rdx, (%rax)
	movq	_TIG_iO_IT6a_1_bitmap_clear_bit_1_opaque_list_1(%rip), %rdx
	movq	-32(%rbp), %rax
	movq	%rdx, 8(%rax)
	movq	_TIG_iO_IT6a_1_bitmap_clear_bit_1_opaque_list_1(%rip), %rax
	movq	(%rax), %rax
	movq	-32(%rbp), %rdx
	movq	%rdx, 8(%rax)
	movq	_TIG_iO_IT6a_1_bitmap_clear_bit_1_opaque_list_1(%rip), %rax
	movq	-32(%rbp), %rdx
	movq	%rdx, (%rax)
	call	rand@PLT
	movl	%eax, -52(%rbp)
	movl	$24, %edi
	call	malloc@PLT
	movq	%rax, -24(%rbp)
	movq	-24(%rbp), %rax
	movl	-52(%rbp), %edx
	movl	%edx, 16(%rax)
	movq	_TIG_iO_IT6a_1_bitmap_clear_bit_1_opaque_list_1(%rip), %rax
	movq	(%rax), %rdx
	movq	-24(%rbp), %rax
	movq	%rdx, (%rax)
	movq	_TIG_iO_IT6a_1_bitmap_clear_bit_1_opaque_list_1(%rip), %rdx
	movq	-24(%rbp), %rax
	movq	%rdx, 8(%rax)
	movq	_TIG_iO_IT6a_1_bitmap_clear_bit_1_opaque_list_1(%rip), %rax
	movq	(%rax), %rax
	movq	-24(%rbp), %rdx
	movq	%rdx, 8(%rax)
	movq	_TIG_iO_IT6a_1_bitmap_clear_bit_1_opaque_list_1(%rip), %rax
	movq	-24(%rbp), %rdx
	movq	%rdx, (%rax)
	call	rand@PLT
	movl	%eax, -48(%rbp)
	movl	$24, %edi
	call	malloc@PLT
	movq	%rax, -16(%rbp)
	movl	-48(%rbp), %eax
	leal	(%rax,%rax), %edx
	movq	-16(%rbp), %rax
	movl	%edx, 16(%rax)
	movq	_TIG_iO_IT6a_1_bitmap_clear_bit_1_opaque_list_1(%rip), %rax
	movq	(%rax), %rdx
	movq	-16(%rbp), %rax
	movq	%rdx, (%rax)
	movq	_TIG_iO_IT6a_1_bitmap_clear_bit_1_opaque_list_1(%rip), %rdx
	movq	-16(%rbp), %rax
	movq	%rdx, 8(%rax)
	movq	_TIG_iO_IT6a_1_bitmap_clear_bit_1_opaque_list_1(%rip), %rax
	movq	(%rax), %rax
	movq	-16(%rbp), %rdx
	movq	%rdx, 8(%rax)
	movq	_TIG_iO_IT6a_1_bitmap_clear_bit_1_opaque_list_1(%rip), %rax
	movq	-16(%rbp), %rdx
	movq	%rdx, (%rax)
	call	rand@PLT
	movl	%eax, -44(%rbp)
	movl	$24, %edi
	call	malloc@PLT
	movq	%rax, -8(%rbp)
	movl	-44(%rbp), %edx
	movl	%edx, %eax
	addl	%eax, %eax
	addl	%eax, %edx
	movq	-8(%rbp), %rax
	movl	%edx, 16(%rax)
	movq	_TIG_iO_IT6a_1_bitmap_clear_bit_1_opaque_list_1(%rip), %rax
	movq	(%rax), %rdx
	movq	-8(%rbp), %rax
	movq	%rdx, (%rax)
	movq	_TIG_iO_IT6a_1_bitmap_clear_bit_1_opaque_list_1(%rip), %rdx
	movq	-8(%rbp), %rax
	movq	%rdx, 8(%rax)
	movq	_TIG_iO_IT6a_1_bitmap_clear_bit_1_opaque_list_1(%rip), %rax
	movq	(%rax), %rax
	movq	-8(%rbp), %rdx
	movq	%rdx, 8(%rax)
	movq	_TIG_iO_IT6a_1_bitmap_clear_bit_1_opaque_list_1(%rip), %rax
	movq	-8(%rbp), %rdx
	movq	%rdx, (%rax)
	movq	_TIG_iO_IT6a_1_bitmap_clear_bit_1_opaque_list_1(%rip), %rax
	movq	(%rax), %rax
	movq	%rax, _TIG_iO_IT6a_1_bitmap_clear_bit_1_opaque_ptr_1(%rip)
	movq	_TIG_iO_IT6a_1_bitmap_clear_bit_1_opaque_ptr_1(%rip), %rax
	movq	%rax, _TIG_iO_IT6a_1_bitmap_clear_bit_1_opaque_ptr_2(%rip)
	movq	_TIG_iO_IT6a_1_bitmap_clear_bit_1_opaque_ptr_2(%rip), %rax
	movq	(%rax), %rax
	movq	%rax, _TIG_iO_IT6a_1_bitmap_clear_bit_1_opaque_ptr_2(%rip)
	nop
	nop
	movq	_TIG_iO_IT6a_1_read_graph_file_1_opaque_ptr_1(%rip), %rdx
	movq	_TIG_iO_IT6a_1_read_graph_file_1_opaque_ptr_2(%rip), %rax
	cmpq	%rax, %rdx
	jne	.L51
	movq	-80(%rbp), %rax
	shrq	$6, %rax
	leaq	0(,%rax,8), %rcx
	movq	-72(%rbp), %rdx
	addq	%rcx, %rdx
	movq	(%rdx), %rsi
	movq	-80(%rbp), %rdx
	andl	$63, %edx
	movl	$1, %edi
	movl	%edx, %ecx
	salq	%cl, %rdi
	movq	%rdi, %rdx
	notq	%rdx
	leaq	0(,%rax,8), %rcx
	movq	-72(%rbp), %rax
	addq	%rcx, %rax
	andq	%rsi, %rdx
	movq	%rdx, (%rax)
	nop
.L51:
	nop
	leave
	.cfi_def_cfa 7, 8
	ret
	.cfi_endproc
.LFE12:
	.size	bitmap_clear_bit, .-bitmap_clear_bit
	.section	.rodata
.LC3:
	.string	"r"
	.align 8
.LC4:
	.string	"Could not open graph file '%s'\n"
.LC5:
	.string	"%u\n"
	.align 8
.LC6:
	.string	"First line should be the non-zero number of nodes"
.LC7:
	.string	"%u %u %u\n"
.LC8:
	.string	"Invalid node at line %d\n"
	.align 8
.LC9:
	.string	"Error at line %d before end of file\n"
	.text
	.globl	read_graph_file
	.type	read_graph_file, @function
read_graph_file:
.LFB13:
	.cfi_startproc
	endbr64
	pushq	%rbp
	.cfi_def_cfa_offset 16
	.cfi_offset 6, -16
	movq	%rsp, %rbp
	.cfi_def_cfa_register 6
	subq	$144, %rsp
	movq	%rdi, -136(%rbp)
	movq	%fs:40, %rax
	movq	%rax, -8(%rbp)
	xorl	%eax, %eax
#APP
# 84 "logicchains_LPATHBench_c.c" 1
	##_ANNOTATION_INITIALREGION_-TIG-iO-IT6a-1-read-graph-file--28
# 0 "" 2
# 88 "logicchains_LPATHBench_c.c" 1
	##_ANNOTATION_ATOMICREGION_-TIG-iO-IT6a-1-read-graph-file--27
# 0 "" 2
#NO_APP
	movl	$24, %edi
	call	malloc@PLT
	movq	%rax, -72(%rbp)
	movq	-72(%rbp), %rax
	movq	-72(%rbp), %rdx
	movq	%rdx, 16(%rax)
	movq	-72(%rbp), %rax
	movq	-72(%rbp), %rdx
	movq	%rdx, 8(%rax)
	movq	-72(%rbp), %rax
	movq	%rax, _TIG_iO_IT6a_1_read_graph_file_1_opaque_list_1(%rip)
	call	rand@PLT
	movl	%eax, -100(%rbp)
	movl	$24, %edi
	call	malloc@PLT
	movq	%rax, -64(%rbp)
	movq	-64(%rbp), %rax
	movl	$0, (%rax)
	movq	_TIG_iO_IT6a_1_read_graph_file_1_opaque_list_1(%rip), %rax
	movq	16(%rax), %rdx
	movq	-64(%rbp), %rax
	movq	%rdx, 16(%rax)
	movq	_TIG_iO_IT6a_1_read_graph_file_1_opaque_list_1(%rip), %rdx
	movq	-64(%rbp), %rax
	movq	%rdx, 8(%rax)
	movq	_TIG_iO_IT6a_1_read_graph_file_1_opaque_list_1(%rip), %rax
	movq	16(%rax), %rax
	movq	-64(%rbp), %rdx
	movq	%rdx, 8(%rax)
	movq	_TIG_iO_IT6a_1_read_graph_file_1_opaque_list_1(%rip), %rax
	movq	-64(%rbp), %rdx
	movq	%rdx, 16(%rax)
	call	rand@PLT
	movl	%eax, -96(%rbp)
	movl	$24, %edi
	call	malloc@PLT
	movq	%rax, -56(%rbp)
	movq	-56(%rbp), %rax
	movl	-96(%rbp), %edx
	movl	%edx, (%rax)
	movq	_TIG_iO_IT6a_1_read_graph_file_1_opaque_list_1(%rip), %rax
	movq	16(%rax), %rdx
	movq	-56(%rbp), %rax
	movq	%rdx, 16(%rax)
	movq	_TIG_iO_IT6a_1_read_graph_file_1_opaque_list_1(%rip), %rdx
	movq	-56(%rbp), %rax
	movq	%rdx, 8(%rax)
	movq	_TIG_iO_IT6a_1_read_graph_file_1_opaque_list_1(%rip), %rax
	movq	16(%rax), %rax
	movq	-56(%rbp), %rdx
	movq	%rdx, 8(%rax)
	movq	_TIG_iO_IT6a_1_read_graph_file_1_opaque_list_1(%rip), %rax
	movq	-56(%rbp), %rdx
	movq	%rdx, 16(%rax)
	movq	_TIG_iO_IT6a_1_read_graph_file_1_opaque_list_1(%rip), %rax
	movq	16(%rax), %rax
	movq	%rax, _TIG_iO_IT6a_1_read_graph_file_1_opaque_ptr_1(%rip)
	movq	_TIG_iO_IT6a_1_read_graph_file_1_opaque_ptr_1(%rip), %rax
	movq	%rax, _TIG_iO_IT6a_1_read_graph_file_1_opaque_ptr_2(%rip)
	nop
	nop
	movq	-136(%rbp), %rax
	leaq	.LC3(%rip), %rdx
	movq	%rdx, %rsi
	movq	%rax, %rdi
	call	fopen@PLT
	movq	%rax, -48(%rbp)
	movq	-48(%rbp), %rax
	movq	%rax, -40(%rbp)
	cmpq	$0, -40(%rbp)
	jne	.L53
	leaq	.LC0(%rip), %rax
	movq	%rax, %rsi
	leaq	.LC4(%rip), %rax
	movq	%rax, %rdi
	movl	$0, %eax
	call	printf@PLT
	movl	$1, %edi
	call	exit@PLT
.L53:
	leaq	-128(%rbp), %rdx
	movq	-40(%rbp), %rax
	leaq	.LC5(%rip), %rcx
	movq	%rcx, %rsi
	movq	%rax, %rdi
	movl	$0, %eax
	call	__isoc99_fscanf@PLT
	movl	%eax, -92(%rbp)
	cmpl	$1, -92(%rbp)
	je	.L54
	leaq	.LC6(%rip), %rax
	movq	%rax, %rdi
	call	puts@PLT
	movl	$1, %edi
	call	exit@PLT
.L54:
	movl	-128(%rbp), %eax
	testl	%eax, %eax
	jne	.L55
	leaq	.LC6(%rip), %rax
	movq	%rax, %rdi
	call	puts@PLT
	movl	$1, %edi
	call	exit@PLT
.L55:
	movl	-128(%rbp), %eax
	imull	$100, %eax, %eax
	movl	%eax, %eax
	leaq	(%rax,%rax), %rdx
	movl	-128(%rbp), %eax
	movl	%eax, %eax
	addq	%rdx, %rax
	salq	$2, %rax
	movq	%rax, %rdi
	call	malloc@PLT
	movq	%rax, -32(%rbp)
	movq	-32(%rbp), %rax
	movq	%rax, -80(%rbp)
	movl	-128(%rbp), %eax
	movl	%eax, %eax
	movl	$8, %esi
	movq	%rax, %rdi
	call	calloc@PLT
	movq	%rax, -24(%rbp)
	movq	-24(%rbp), %rax
	movq	%rax, -16(%rbp)
	movl	$1, -112(%rbp)
	movl	$-1, -108(%rbp)
	movl	$0, -104(%rbp)
.L62:
	leaq	-116(%rbp), %rsi
	leaq	-120(%rbp), %rcx
	leaq	-124(%rbp), %rdx
	movq	-40(%rbp), %rax
	movq	%rsi, %r8
	leaq	.LC7(%rip), %rsi
	movq	%rax, %rdi
	movl	$0, %eax
	call	__isoc99_fscanf@PLT
	movl	%eax, -88(%rbp)
	cmpl	$3, -88(%rbp)
	jne	.L68
	addl	$1, -112(%rbp)
	movl	-124(%rbp), %eax
	cmpl	%eax, -108(%rbp)
	je	.L58
	cmpl	$2, -112(%rbp)
	jbe	.L59
	movl	-108(%rbp), %eax
	leaq	0(,%rax,8), %rdx
	movq	-16(%rbp), %rax
	addq	%rdx, %rax
	movq	(%rax), %rax
	movl	-104(%rbp), %edx
	movl	%edx, (%rax)
	movl	-104(%rbp), %eax
	salq	$3, %rax
	addq	$4, %rax
	addq	%rax, -80(%rbp)
	movl	-124(%rbp), %eax
	cmpl	%eax, -108(%rbp)
	jbe	.L60
	movl	-112(%rbp), %eax
	movl	%eax, %esi
	leaq	.LC8(%rip), %rax
	movq	%rax, %rdi
	movl	$0, %eax
	call	printf@PLT
	movl	$1, %edi
	call	exit@PLT
.L60:
	movl	-124(%rbp), %edx
	movl	-128(%rbp), %eax
	cmpl	%eax, %edx
	jb	.L61
	movl	-112(%rbp), %eax
	movl	%eax, %esi
	leaq	.LC8(%rip), %rax
	movq	%rax, %rdi
	movl	$0, %eax
	call	printf@PLT
	movl	$1, %edi
	call	exit@PLT
.L61:
	movl	-120(%rbp), %edx
	movl	-128(%rbp), %eax
	cmpl	%eax, %edx
	jb	.L59
	movl	-112(%rbp), %eax
	movl	%eax, %esi
	leaq	.LC8(%rip), %rax
	movq	%rax, %rdi
	movl	$0, %eax
	call	printf@PLT
	movl	$1, %edi
	call	exit@PLT
.L59:
	movl	-124(%rbp), %eax
	movl	%eax, %eax
	leaq	0(,%rax,8), %rdx
	movq	-16(%rbp), %rax
	addq	%rax, %rdx
	movq	-80(%rbp), %rax
	movq	%rax, (%rdx)
	movl	-124(%rbp), %eax
	movl	%eax, -108(%rbp)
	movl	$0, -104(%rbp)
.L58:
	movl	-124(%rbp), %eax
	movl	%eax, %eax
	leaq	0(,%rax,8), %rdx
	movq	-16(%rbp), %rax
	addq	%rdx, %rax
	movq	(%rax), %rax
	movl	-120(%rbp), %ecx
	movl	-104(%rbp), %edx
	movl	%ecx, 4(%rax,%rdx,8)
	movl	-124(%rbp), %eax
	movl	%eax, %eax
	leaq	0(,%rax,8), %rdx
	movq	-16(%rbp), %rax
	addq	%rdx, %rax
	movq	(%rax), %rax
	movl	-116(%rbp), %ecx
	movl	-104(%rbp), %edx
	movl	%ecx, 8(%rax,%rdx,8)
	addl	$1, -104(%rbp)
	jmp	.L62
.L68:
	nop
	movq	-40(%rbp), %rax
	movq	%rax, %rdi
	call	feof@PLT
	movl	%eax, -84(%rbp)
	cmpl	$0, -84(%rbp)
	jne	.L63
	movl	-112(%rbp), %eax
	movl	%eax, %esi
	leaq	.LC9(%rip), %rax
	movq	%rax, %rdi
	movl	$0, %eax
	call	printf@PLT
	movl	$1, %edi
	call	exit@PLT
.L63:
	movl	-108(%rbp), %eax
	leaq	0(,%rax,8), %rdx
	movq	-16(%rbp), %rax
	addq	%rdx, %rax
	movq	(%rax), %rax
	movl	-104(%rbp), %edx
	movl	%edx, (%rax)
	movq	-40(%rbp), %rax
	movq	%rax, %rdi
	call	fclose@PLT
	movq	_TIG_iO_IT6a_1_read_graph_file_1_opaque_ptr_1(%rip), %rdx
	movq	_TIG_iO_IT6a_1_read_graph_file_1_opaque_ptr_2(%rip), %rax
	cmpq	%rax, %rdx
	je	.L64
	movq	-16(%rbp), %rax
	movl	$0, %esi
	movq	%rax, %rdi
	call	max_distance_simple
	movl	%eax, -116(%rbp)
.L64:
	movq	-16(%rbp), %rax
	movq	-8(%rbp), %rdx
	subq	%fs:40, %rdx
	je	.L66
	call	__stack_chk_fail@PLT
.L66:
	leave
	.cfi_def_cfa 7, 8
	ret
	.cfi_endproc
.LFE13:
	.size	read_graph_file, .-read_graph_file
	.ident	"GCC: (Ubuntu 11.4.0-1ubuntu1~22.04) 11.4.0"
	.section	.note.GNU-stack,"",@progbits
	.section	.note.gnu.property,"a"
	.align 8
	.long	1f - 0f
	.long	4f - 1f
	.long	5
0:
	.string	"GNU"
1:
	.align 8
	.long	0xc0000002
	.long	3f - 2f
2:
	.long	0x3
3:
	.align 8
4:
