	.file	"mathur61_ECE368_A1_opaque.c"
	.text
	.globl	_TIG_iO_3deq_1___uint32_identity_1_opaque_ptr_2
	.bss
	.align 8
	.type	_TIG_iO_3deq_1___uint32_identity_1_opaque_ptr_2, @object
	.size	_TIG_iO_3deq_1___uint32_identity_1_opaque_ptr_2, 8
_TIG_iO_3deq_1___uint32_identity_1_opaque_ptr_2:
	.zero	8
	.globl	_TIG_iO_3deq_1___uint64_identity_1_opaque_ptr_1
	.align 8
	.type	_TIG_iO_3deq_1___uint64_identity_1_opaque_ptr_1, @object
	.size	_TIG_iO_3deq_1___uint64_identity_1_opaque_ptr_1, 8
_TIG_iO_3deq_1___uint64_identity_1_opaque_ptr_1:
	.zero	8
	.globl	_TIG_iO_3deq_1___bswap_32_1_opaque_list_2
	.align 8
	.type	_TIG_iO_3deq_1___bswap_32_1_opaque_list_2, @object
	.size	_TIG_iO_3deq_1___bswap_32_1_opaque_list_2, 8
_TIG_iO_3deq_1___bswap_32_1_opaque_list_2:
	.zero	8
	.globl	_TIG_iO_3deq_1___uint16_identity_1_opaque_list_2
	.align 8
	.type	_TIG_iO_3deq_1___uint16_identity_1_opaque_list_2, @object
	.size	_TIG_iO_3deq_1___uint16_identity_1_opaque_list_2, 8
_TIG_iO_3deq_1___uint16_identity_1_opaque_list_2:
	.zero	8
	.globl	_TIG_iO_3deq_1___bswap_16_1_opaque_list_2
	.align 8
	.type	_TIG_iO_3deq_1___bswap_16_1_opaque_list_2, @object
	.size	_TIG_iO_3deq_1___bswap_16_1_opaque_list_2, 8
_TIG_iO_3deq_1___bswap_16_1_opaque_list_2:
	.zero	8
	.globl	_TIG_iO_3deq_1___bswap_32_1_opaque_list_1
	.align 8
	.type	_TIG_iO_3deq_1___bswap_32_1_opaque_list_1, @object
	.size	_TIG_iO_3deq_1___bswap_32_1_opaque_list_1, 8
_TIG_iO_3deq_1___bswap_32_1_opaque_list_1:
	.zero	8
	.globl	_TIG_iO_3deq_1_main_1_opaque_list_1
	.align 8
	.type	_TIG_iO_3deq_1_main_1_opaque_list_1, @object
	.size	_TIG_iO_3deq_1_main_1_opaque_list_1, 8
_TIG_iO_3deq_1_main_1_opaque_list_1:
	.zero	8
	.globl	_TIG_iO_3deq_1_print_combinations_1_opaque_ptr_1
	.align 8
	.type	_TIG_iO_3deq_1_print_combinations_1_opaque_ptr_1, @object
	.size	_TIG_iO_3deq_1_print_combinations_1_opaque_ptr_1, 8
_TIG_iO_3deq_1_print_combinations_1_opaque_ptr_1:
	.zero	8
	.globl	_TIG_iO_3deq_1___bswap_32_1_opaque_ptr_1
	.align 8
	.type	_TIG_iO_3deq_1___bswap_32_1_opaque_ptr_1, @object
	.size	_TIG_iO_3deq_1___bswap_32_1_opaque_ptr_1, 8
_TIG_iO_3deq_1___bswap_32_1_opaque_ptr_1:
	.zero	8
	.globl	_TIG_IZ_3deq_argc
	.align 4
	.type	_TIG_IZ_3deq_argc, @object
	.size	_TIG_IZ_3deq_argc, 4
_TIG_IZ_3deq_argc:
	.zero	4
	.globl	_TIG_iO_3deq_1___bswap_16_1_opaque_ptr_2
	.align 8
	.type	_TIG_iO_3deq_1___bswap_16_1_opaque_ptr_2, @object
	.size	_TIG_iO_3deq_1___bswap_16_1_opaque_ptr_2, 8
_TIG_iO_3deq_1___bswap_16_1_opaque_ptr_2:
	.zero	8
	.globl	_TIG_iO_3deq_1_print_combinations_1_opaque_ptr_2
	.align 8
	.type	_TIG_iO_3deq_1_print_combinations_1_opaque_ptr_2, @object
	.size	_TIG_iO_3deq_1_print_combinations_1_opaque_ptr_2, 8
_TIG_iO_3deq_1_print_combinations_1_opaque_ptr_2:
	.zero	8
	.globl	_TIG_iO_3deq_1_main_1_opaque_list_2
	.align 8
	.type	_TIG_iO_3deq_1_main_1_opaque_list_2, @object
	.size	_TIG_iO_3deq_1_main_1_opaque_list_2, 8
_TIG_iO_3deq_1_main_1_opaque_list_2:
	.zero	8
	.globl	_TIG_iO_3deq_1_main_1_opaque_ptr_2
	.align 8
	.type	_TIG_iO_3deq_1_main_1_opaque_ptr_2, @object
	.size	_TIG_iO_3deq_1_main_1_opaque_ptr_2, 8
_TIG_iO_3deq_1_main_1_opaque_ptr_2:
	.zero	8
	.globl	_TIG_iO_3deq_1_print_combinations_1_opaque_list_2
	.align 8
	.type	_TIG_iO_3deq_1_print_combinations_1_opaque_list_2, @object
	.size	_TIG_iO_3deq_1_print_combinations_1_opaque_list_2, 8
_TIG_iO_3deq_1_print_combinations_1_opaque_list_2:
	.zero	8
	.globl	_TIG_iO_3deq_1___uint64_identity_1_opaque_list_2
	.align 8
	.type	_TIG_iO_3deq_1___uint64_identity_1_opaque_list_2, @object
	.size	_TIG_iO_3deq_1___uint64_identity_1_opaque_list_2, 8
_TIG_iO_3deq_1___uint64_identity_1_opaque_list_2:
	.zero	8
	.globl	_TIG_IZ_3deq_envp
	.align 8
	.type	_TIG_IZ_3deq_envp, @object
	.size	_TIG_IZ_3deq_envp, 8
_TIG_IZ_3deq_envp:
	.zero	8
	.globl	_TIG_iO_3deq_1___bswap_64_1_opaque_list_1
	.align 8
	.type	_TIG_iO_3deq_1___bswap_64_1_opaque_list_1, @object
	.size	_TIG_iO_3deq_1___bswap_64_1_opaque_list_1, 8
_TIG_iO_3deq_1___bswap_64_1_opaque_list_1:
	.zero	8
	.globl	_TIG_iO_3deq_1___bswap_16_1_opaque_ptr_1
	.align 8
	.type	_TIG_iO_3deq_1___bswap_16_1_opaque_ptr_1, @object
	.size	_TIG_iO_3deq_1___bswap_16_1_opaque_ptr_1, 8
_TIG_iO_3deq_1___bswap_16_1_opaque_ptr_1:
	.zero	8
	.globl	_TIG_iO_3deq_1___bswap_16_1_opaque_list_1
	.align 8
	.type	_TIG_iO_3deq_1___bswap_16_1_opaque_list_1, @object
	.size	_TIG_iO_3deq_1___bswap_16_1_opaque_list_1, 8
_TIG_iO_3deq_1___bswap_16_1_opaque_list_1:
	.zero	8
	.globl	_TIG_iO_3deq_1___uint16_identity_1_opaque_ptr_1
	.align 8
	.type	_TIG_iO_3deq_1___uint16_identity_1_opaque_ptr_1, @object
	.size	_TIG_iO_3deq_1___uint16_identity_1_opaque_ptr_1, 8
_TIG_iO_3deq_1___uint16_identity_1_opaque_ptr_1:
	.zero	8
	.globl	_TIG_iO_3deq_1___uint16_identity_1_opaque_list_1
	.align 8
	.type	_TIG_iO_3deq_1___uint16_identity_1_opaque_list_1, @object
	.size	_TIG_iO_3deq_1___uint16_identity_1_opaque_list_1, 8
_TIG_iO_3deq_1___uint16_identity_1_opaque_list_1:
	.zero	8
	.globl	_TIG_iO_3deq_1___bswap_64_1_opaque_ptr_2
	.align 8
	.type	_TIG_iO_3deq_1___bswap_64_1_opaque_ptr_2, @object
	.size	_TIG_iO_3deq_1___bswap_64_1_opaque_ptr_2, 8
_TIG_iO_3deq_1___bswap_64_1_opaque_ptr_2:
	.zero	8
	.globl	_TIG_IZ_3deq_argv
	.align 8
	.type	_TIG_IZ_3deq_argv, @object
	.size	_TIG_IZ_3deq_argv, 8
_TIG_IZ_3deq_argv:
	.zero	8
	.globl	_TIG_iO_3deq_1___bswap_64_1_opaque_ptr_1
	.align 8
	.type	_TIG_iO_3deq_1___bswap_64_1_opaque_ptr_1, @object
	.size	_TIG_iO_3deq_1___bswap_64_1_opaque_ptr_1, 8
_TIG_iO_3deq_1___bswap_64_1_opaque_ptr_1:
	.zero	8
	.globl	_TIG_iO_3deq_1___uint16_identity_1_opaque_ptr_2
	.align 8
	.type	_TIG_iO_3deq_1___uint16_identity_1_opaque_ptr_2, @object
	.size	_TIG_iO_3deq_1___uint16_identity_1_opaque_ptr_2, 8
_TIG_iO_3deq_1___uint16_identity_1_opaque_ptr_2:
	.zero	8
	.globl	_TIG_iO_3deq_1___bswap_64_1_opaque_list_2
	.align 8
	.type	_TIG_iO_3deq_1___bswap_64_1_opaque_list_2, @object
	.size	_TIG_iO_3deq_1___bswap_64_1_opaque_list_2, 8
_TIG_iO_3deq_1___bswap_64_1_opaque_list_2:
	.zero	8
	.globl	_TIG_iO_3deq_1___uint64_identity_1_opaque_ptr_2
	.align 8
	.type	_TIG_iO_3deq_1___uint64_identity_1_opaque_ptr_2, @object
	.size	_TIG_iO_3deq_1___uint64_identity_1_opaque_ptr_2, 8
_TIG_iO_3deq_1___uint64_identity_1_opaque_ptr_2:
	.zero	8
	.globl	_TIG_iO_3deq_1_print_combinations_1_opaque_list_1
	.align 8
	.type	_TIG_iO_3deq_1_print_combinations_1_opaque_list_1, @object
	.size	_TIG_iO_3deq_1_print_combinations_1_opaque_list_1, 8
_TIG_iO_3deq_1_print_combinations_1_opaque_list_1:
	.zero	8
	.globl	_TIG_iO_3deq_1___bswap_32_1_opaque_ptr_2
	.align 8
	.type	_TIG_iO_3deq_1___bswap_32_1_opaque_ptr_2, @object
	.size	_TIG_iO_3deq_1___bswap_32_1_opaque_ptr_2, 8
_TIG_iO_3deq_1___bswap_32_1_opaque_ptr_2:
	.zero	8
	.globl	_TIG_iO_3deq_1___uint32_identity_1_opaque_ptr_1
	.align 8
	.type	_TIG_iO_3deq_1___uint32_identity_1_opaque_ptr_1, @object
	.size	_TIG_iO_3deq_1___uint32_identity_1_opaque_ptr_1, 8
_TIG_iO_3deq_1___uint32_identity_1_opaque_ptr_1:
	.zero	8
	.globl	_TIG_iO_3deq_1___uint32_identity_1_opaque_list_1
	.align 8
	.type	_TIG_iO_3deq_1___uint32_identity_1_opaque_list_1, @object
	.size	_TIG_iO_3deq_1___uint32_identity_1_opaque_list_1, 8
_TIG_iO_3deq_1___uint32_identity_1_opaque_list_1:
	.zero	8
	.globl	_TIG_iO_3deq_1___uint32_identity_1_opaque_list_2
	.align 8
	.type	_TIG_iO_3deq_1___uint32_identity_1_opaque_list_2, @object
	.size	_TIG_iO_3deq_1___uint32_identity_1_opaque_list_2, 8
_TIG_iO_3deq_1___uint32_identity_1_opaque_list_2:
	.zero	8
	.globl	_TIG_iO_3deq_1___uint64_identity_1_opaque_list_1
	.align 8
	.type	_TIG_iO_3deq_1___uint64_identity_1_opaque_list_1, @object
	.size	_TIG_iO_3deq_1___uint64_identity_1_opaque_list_1, 8
_TIG_iO_3deq_1___uint64_identity_1_opaque_list_1:
	.zero	8
	.globl	_TIG_iO_3deq_1_main_1_opaque_ptr_1
	.align 8
	.type	_TIG_iO_3deq_1_main_1_opaque_ptr_1, @object
	.size	_TIG_iO_3deq_1_main_1_opaque_ptr_1, 8
_TIG_iO_3deq_1_main_1_opaque_ptr_1:
	.zero	8
	.section	.rodata
	.align 8
.LC0:
	.string	"%d quarter(s), %d dime(s), %d nickel(s), %d pennie(s)\n"
	.text
	.globl	print_combinations
	.type	print_combinations, @function
print_combinations:
.LFB0:
	.cfi_startproc
	endbr64
	pushq	%rbp
	.cfi_def_cfa_offset 16
	.cfi_offset 6, -16
	movq	%rsp, %rbp
	.cfi_def_cfa_register 6
	subq	$80, %rsp
	movl	%edi, -68(%rbp)
#APP
# 82 "/usr/include/stdlib.h" 1
	##_ANNOTATION_INITIALREGION_-TIG-iO-3deq-1-print-combinations--16
# 0 "" 2
# 86 "/usr/include/stdlib.h" 1
	##_ANNOTATION_ATOMICREGION_-TIG-iO-3deq-1-print-combinations--15
# 0 "" 2
#NO_APP
	movl	$24, %edi
	call	malloc@PLT
	movq	%rax, -24(%rbp)
	movq	-24(%rbp), %rax
	movq	-24(%rbp), %rdx
	movq	%rdx, 16(%rax)
	movq	-24(%rbp), %rax
	movq	-24(%rbp), %rdx
	movq	%rdx, 8(%rax)
	movq	-24(%rbp), %rax
	movq	%rax, _TIG_iO_3deq_1_print_combinations_1_opaque_list_1(%rip)
	call	rand@PLT
	movl	%eax, -40(%rbp)
	movl	$24, %edi
	call	malloc@PLT
	movq	%rax, -16(%rbp)
	movq	-16(%rbp), %rax
	movl	$0, (%rax)
	movq	_TIG_iO_3deq_1_print_combinations_1_opaque_list_1(%rip), %rax
	movq	16(%rax), %rdx
	movq	-16(%rbp), %rax
	movq	%rdx, 16(%rax)
	movq	_TIG_iO_3deq_1_print_combinations_1_opaque_list_1(%rip), %rdx
	movq	-16(%rbp), %rax
	movq	%rdx, 8(%rax)
	movq	_TIG_iO_3deq_1_print_combinations_1_opaque_list_1(%rip), %rax
	movq	16(%rax), %rax
	movq	-16(%rbp), %rdx
	movq	%rdx, 8(%rax)
	movq	_TIG_iO_3deq_1_print_combinations_1_opaque_list_1(%rip), %rax
	movq	-16(%rbp), %rdx
	movq	%rdx, 16(%rax)
	call	rand@PLT
	movl	%eax, -36(%rbp)
	movl	$24, %edi
	call	malloc@PLT
	movq	%rax, -8(%rbp)
	movq	-8(%rbp), %rax
	movl	-36(%rbp), %edx
	movl	%edx, (%rax)
	movq	_TIG_iO_3deq_1_print_combinations_1_opaque_list_1(%rip), %rax
	movq	16(%rax), %rdx
	movq	-8(%rbp), %rax
	movq	%rdx, 16(%rax)
	movq	_TIG_iO_3deq_1_print_combinations_1_opaque_list_1(%rip), %rdx
	movq	-8(%rbp), %rax
	movq	%rdx, 8(%rax)
	movq	_TIG_iO_3deq_1_print_combinations_1_opaque_list_1(%rip), %rax
	movq	16(%rax), %rax
	movq	-8(%rbp), %rdx
	movq	%rdx, 8(%rax)
	movq	_TIG_iO_3deq_1_print_combinations_1_opaque_list_1(%rip), %rax
	movq	-8(%rbp), %rdx
	movq	%rdx, 16(%rax)
	movq	_TIG_iO_3deq_1_print_combinations_1_opaque_list_1(%rip), %rax
	movq	16(%rax), %rax
	movq	%rax, _TIG_iO_3deq_1_print_combinations_1_opaque_ptr_1(%rip)
	movq	_TIG_iO_3deq_1_print_combinations_1_opaque_ptr_1(%rip), %rax
	movq	%rax, _TIG_iO_3deq_1_print_combinations_1_opaque_ptr_2(%rip)
	nop
	nop
	movl	-68(%rbp), %eax
	movslq	%eax, %rdx
	imulq	$1374389535, %rdx, %rdx
	shrq	$32, %rdx
	sarl	$3, %edx
	sarl	$31, %eax
	movl	%eax, %ecx
	movl	%edx, %eax
	subl	%ecx, %eax
	movl	%eax, -56(%rbp)
	jmp	.L2
.L9:
	movq	_TIG_iO_3deq_1_print_combinations_1_opaque_ptr_1(%rip), %rdx
	movq	_TIG_iO_3deq_1_print_combinations_1_opaque_ptr_2(%rip), %rax
	cmpq	%rax, %rdx
	jne	.L3
	movl	-56(%rbp), %eax
	imull	$-25, %eax, %edx
	movl	-68(%rbp), %eax
	addl	%edx, %eax
	movl	%eax, -52(%rbp)
	movl	-52(%rbp), %eax
	movslq	%eax, %rdx
	imulq	$1717986919, %rdx, %rdx
	shrq	$32, %rdx
	sarl	$2, %edx
	sarl	$31, %eax
	movl	%eax, %ecx
	movl	%edx, %eax
	subl	%ecx, %eax
	movl	%eax, -48(%rbp)
	jmp	.L5
.L3:
#APP
# 10 "mathur61_ECE368_A1.c" 1
	.byte 0x52,0x67
# 0 "" 2
#NO_APP
	jmp	.L5
.L8:
	movl	-48(%rbp), %eax
	imull	$-10, %eax, %edx
	movl	-52(%rbp), %eax
	addl	%edx, %eax
	movl	%eax, -32(%rbp)
	movl	-32(%rbp), %eax
	movslq	%eax, %rdx
	imulq	$1717986919, %rdx, %rdx
	shrq	$32, %rdx
	sarl	%edx
	sarl	$31, %eax
	movl	%eax, %ecx
	movl	%edx, %eax
	subl	%ecx, %eax
	movl	%eax, -44(%rbp)
	jmp	.L6
.L7:
	movl	-44(%rbp), %edx
	movl	%edx, %eax
	sall	$2, %eax
	addl	%edx, %eax
	negl	%eax
	movl	-32(%rbp), %edx
	addl	%edx, %eax
	movl	%eax, -28(%rbp)
	movl	-28(%rbp), %esi
	movl	-44(%rbp), %ecx
	movl	-48(%rbp), %edx
	movl	-56(%rbp), %eax
	movl	%esi, %r8d
	movl	%eax, %esi
	leaq	.LC0(%rip), %rax
	movq	%rax, %rdi
	movl	$0, %eax
	call	printf@PLT
	subl	$1, -44(%rbp)
.L6:
	cmpl	$0, -44(%rbp)
	jns	.L7
	subl	$1, -48(%rbp)
.L5:
	cmpl	$0, -48(%rbp)
	jns	.L8
	subl	$1, -56(%rbp)
.L2:
	cmpl	$0, -56(%rbp)
	jns	.L9
	nop
	leave
	.cfi_def_cfa 7, 8
	ret
	.cfi_endproc
.LFE0:
	.size	print_combinations, .-print_combinations
	.section	.rodata
.LC1:
	.string	"%d"
	.text
	.globl	main
	.type	main, @function
main:
.LFB2:
	.cfi_startproc
	endbr64
	pushq	%rbp
	.cfi_def_cfa_offset 16
	.cfi_offset 6, -16
	movq	%rsp, %rbp
	.cfi_def_cfa_register 6
	subq	$112, %rsp
	movl	%edi, -84(%rbp)
	movq	%rsi, -96(%rbp)
	movq	%rdx, -104(%rbp)
	movq	%fs:40, %rax
	movq	%rax, -8(%rbp)
	xorl	%eax, %eax
	movq	$0, _TIG_IZ_3deq_envp(%rip)
	nop
.L12:
	movq	$0, _TIG_IZ_3deq_argv(%rip)
	nop
.L13:
	movl	$0, _TIG_IZ_3deq_argc(%rip)
	nop
	nop
.L14:
.L15:
#APP
# 91 "/usr/include/x86_64-linux-gnu/bits/uintn-identity.h" 1
	##_ANNOTATION_INITIALREGION_-TIG-IZ-3deq--0
# 0 "" 2
#NO_APP
	movl	-84(%rbp), %eax
	movl	%eax, _TIG_IZ_3deq_argc(%rip)
	movq	-96(%rbp), %rax
	movq	%rax, _TIG_IZ_3deq_argv(%rip)
	movq	-104(%rbp), %rax
	movq	%rax, _TIG_IZ_3deq_envp(%rip)
#APP
# 98 "/usr/include/x86_64-linux-gnu/bits/uintn-identity.h" 1
	##_ANNOTATION_ATOMICREGION_-TIG-iO-3deq-1-main--13
# 0 "" 2
#NO_APP
	movl	$24, %edi
	call	malloc@PLT
	movq	%rax, -48(%rbp)
	movq	-48(%rbp), %rax
	movq	-48(%rbp), %rdx
	movq	%rdx, (%rax)
	movq	-48(%rbp), %rax
	movq	-48(%rbp), %rdx
	movq	%rdx, 8(%rax)
	movq	-48(%rbp), %rax
	movq	%rax, _TIG_iO_3deq_1_main_1_opaque_list_1(%rip)
	call	rand@PLT
	movl	%eax, -64(%rbp)
	movl	$24, %edi
	call	malloc@PLT
	movq	%rax, -40(%rbp)
	movq	-40(%rbp), %rax
	movl	$0, 16(%rax)
	movq	_TIG_iO_3deq_1_main_1_opaque_list_1(%rip), %rax
	movq	(%rax), %rdx
	movq	-40(%rbp), %rax
	movq	%rdx, (%rax)
	movq	_TIG_iO_3deq_1_main_1_opaque_list_1(%rip), %rdx
	movq	-40(%rbp), %rax
	movq	%rdx, 8(%rax)
	movq	_TIG_iO_3deq_1_main_1_opaque_list_1(%rip), %rax
	movq	(%rax), %rax
	movq	-40(%rbp), %rdx
	movq	%rdx, 8(%rax)
	movq	_TIG_iO_3deq_1_main_1_opaque_list_1(%rip), %rax
	movq	-40(%rbp), %rdx
	movq	%rdx, (%rax)
	call	rand@PLT
	movl	%eax, -60(%rbp)
	movl	$24, %edi
	call	malloc@PLT
	movq	%rax, -32(%rbp)
	movq	-32(%rbp), %rax
	movl	-60(%rbp), %edx
	movl	%edx, 16(%rax)
	movq	_TIG_iO_3deq_1_main_1_opaque_list_1(%rip), %rax
	movq	(%rax), %rdx
	movq	-32(%rbp), %rax
	movq	%rdx, (%rax)
	movq	_TIG_iO_3deq_1_main_1_opaque_list_1(%rip), %rdx
	movq	-32(%rbp), %rax
	movq	%rdx, 8(%rax)
	movq	_TIG_iO_3deq_1_main_1_opaque_list_1(%rip), %rax
	movq	(%rax), %rax
	movq	-32(%rbp), %rdx
	movq	%rdx, 8(%rax)
	movq	_TIG_iO_3deq_1_main_1_opaque_list_1(%rip), %rax
	movq	-32(%rbp), %rdx
	movq	%rdx, (%rax)
	call	rand@PLT
	movl	%eax, -56(%rbp)
	movl	$24, %edi
	call	malloc@PLT
	movq	%rax, -24(%rbp)
	movl	-56(%rbp), %eax
	leal	(%rax,%rax), %edx
	movq	-24(%rbp), %rax
	movl	%edx, 16(%rax)
	movq	_TIG_iO_3deq_1_main_1_opaque_list_1(%rip), %rax
	movq	(%rax), %rdx
	movq	-24(%rbp), %rax
	movq	%rdx, (%rax)
	movq	_TIG_iO_3deq_1_main_1_opaque_list_1(%rip), %rdx
	movq	-24(%rbp), %rax
	movq	%rdx, 8(%rax)
	movq	_TIG_iO_3deq_1_main_1_opaque_list_1(%rip), %rax
	movq	(%rax), %rax
	movq	-24(%rbp), %rdx
	movq	%rdx, 8(%rax)
	movq	_TIG_iO_3deq_1_main_1_opaque_list_1(%rip), %rax
	movq	-24(%rbp), %rdx
	movq	%rdx, (%rax)
	call	rand@PLT
	movl	%eax, -52(%rbp)
	movl	$24, %edi
	call	malloc@PLT
	movq	%rax, -16(%rbp)
	movl	-52(%rbp), %edx
	movl	%edx, %eax
	addl	%eax, %eax
	addl	%eax, %edx
	movq	-16(%rbp), %rax
	movl	%edx, 16(%rax)
	movq	_TIG_iO_3deq_1_main_1_opaque_list_1(%rip), %rax
	movq	(%rax), %rdx
	movq	-16(%rbp), %rax
	movq	%rdx, (%rax)
	movq	_TIG_iO_3deq_1_main_1_opaque_list_1(%rip), %rdx
	movq	-16(%rbp), %rax
	movq	%rdx, 8(%rax)
	movq	_TIG_iO_3deq_1_main_1_opaque_list_1(%rip), %rax
	movq	(%rax), %rax
	movq	-16(%rbp), %rdx
	movq	%rdx, 8(%rax)
	movq	_TIG_iO_3deq_1_main_1_opaque_list_1(%rip), %rax
	movq	-16(%rbp), %rdx
	movq	%rdx, (%rax)
	movq	_TIG_iO_3deq_1_main_1_opaque_list_1(%rip), %rax
	movq	(%rax), %rax
	movq	%rax, _TIG_iO_3deq_1_main_1_opaque_ptr_1(%rip)
	movq	_TIG_iO_3deq_1_main_1_opaque_ptr_1(%rip), %rax
	movq	%rax, _TIG_iO_3deq_1_main_1_opaque_ptr_2(%rip)
	movq	_TIG_iO_3deq_1_main_1_opaque_ptr_2(%rip), %rax
	movq	(%rax), %rax
	movq	%rax, _TIG_iO_3deq_1_main_1_opaque_ptr_2(%rip)
	nop
	nop
	movq	_TIG_iO_3deq_1_print_combinations_1_opaque_ptr_1(%rip), %rdx
	movq	_TIG_iO_3deq_1_print_combinations_1_opaque_ptr_2(%rip), %rax
	cmpq	%rax, %rdx
	jne	.L16
	leaq	-68(%rbp), %rax
	movq	%rax, %rsi
	leaq	.LC1(%rip), %rax
	movq	%rax, %rdi
	movl	$0, %eax
	call	__isoc99_scanf@PLT
	movl	-68(%rbp), %eax
	movl	%eax, %edi
	call	print_combinations
.L16:
	movl	$0, %eax
	movq	-8(%rbp), %rdx
	subq	%fs:40, %rdx
	je	.L18
	call	__stack_chk_fail@PLT
.L18:
	leave
	.cfi_def_cfa 7, 8
	ret
	.cfi_endproc
.LFE2:
	.size	main, .-main
	.ident	"GCC: (Ubuntu 11.4.0-1ubuntu1~22.04) 11.4.0"
	.section	.note.GNU-stack,"",@progbits
	.section	.note.gnu.property,"a"
	.align 8
	.long	1f - 0f
	.long	4f - 1f
	.long	5
0:
	.string	"GNU"
1:
	.align 8
	.long	0xc0000002
	.long	3f - 2f
2:
	.long	0x3
3:
	.align 8
4:
