	.file	"mblaszczykowski_algorithms-data-structures-c_5_opaque.c"
	.text
	.globl	_TIG_iO_r5Jm_1___bswap_64_1_opaque_ptr_1
	.bss
	.align 8
	.type	_TIG_iO_r5Jm_1___bswap_64_1_opaque_ptr_1, @object
	.size	_TIG_iO_r5Jm_1___bswap_64_1_opaque_ptr_1, 8
_TIG_iO_r5Jm_1___bswap_64_1_opaque_ptr_1:
	.zero	8
	.globl	_TIG_iO_r5Jm_1_empty_1_opaque_list_1
	.align 8
	.type	_TIG_iO_r5Jm_1_empty_1_opaque_list_1, @object
	.size	_TIG_iO_r5Jm_1_empty_1_opaque_list_1, 8
_TIG_iO_r5Jm_1_empty_1_opaque_list_1:
	.zero	8
	.globl	_TIG_iO_r5Jm_1___uint64_identity_1_opaque_list_2
	.align 8
	.type	_TIG_iO_r5Jm_1___uint64_identity_1_opaque_list_2, @object
	.size	_TIG_iO_r5Jm_1___uint64_identity_1_opaque_list_2, 8
_TIG_iO_r5Jm_1___uint64_identity_1_opaque_list_2:
	.zero	8
	.globl	_TIG_IZ_r5Jm_envp
	.align 8
	.type	_TIG_IZ_r5Jm_envp, @object
	.size	_TIG_IZ_r5Jm_envp, 8
_TIG_IZ_r5Jm_envp:
	.zero	8
	.globl	_TIG_iO_r5Jm_1_priorytety_1_opaque_ptr_2
	.align 8
	.type	_TIG_iO_r5Jm_1_priorytety_1_opaque_ptr_2, @object
	.size	_TIG_iO_r5Jm_1_priorytety_1_opaque_ptr_2, 8
_TIG_iO_r5Jm_1_priorytety_1_opaque_ptr_2:
	.zero	8
	.globl	_TIG_iO_r5Jm_1___uint64_identity_1_opaque_ptr_2
	.align 8
	.type	_TIG_iO_r5Jm_1___uint64_identity_1_opaque_ptr_2, @object
	.size	_TIG_iO_r5Jm_1___uint64_identity_1_opaque_ptr_2, 8
_TIG_iO_r5Jm_1___uint64_identity_1_opaque_ptr_2:
	.zero	8
	.globl	_TIG_iO_r5Jm_1_ONP_1_opaque_ptr_1
	.align 8
	.type	_TIG_iO_r5Jm_1_ONP_1_opaque_ptr_1, @object
	.size	_TIG_iO_r5Jm_1_ONP_1_opaque_ptr_1, 8
_TIG_iO_r5Jm_1_ONP_1_opaque_ptr_1:
	.zero	8
	.globl	_TIG_iO_r5Jm_1_showTop_1_opaque_list_1
	.align 8
	.type	_TIG_iO_r5Jm_1_showTop_1_opaque_list_1, @object
	.size	_TIG_iO_r5Jm_1_showTop_1_opaque_list_1, 8
_TIG_iO_r5Jm_1_showTop_1_opaque_list_1:
	.zero	8
	.globl	_TIG_iO_r5Jm_1___uint16_identity_1_opaque_ptr_2
	.align 8
	.type	_TIG_iO_r5Jm_1___uint16_identity_1_opaque_ptr_2, @object
	.size	_TIG_iO_r5Jm_1___uint16_identity_1_opaque_ptr_2, 8
_TIG_iO_r5Jm_1___uint16_identity_1_opaque_ptr_2:
	.zero	8
	.globl	_TIG_IZ_r5Jm_argv
	.align 8
	.type	_TIG_IZ_r5Jm_argv, @object
	.size	_TIG_IZ_r5Jm_argv, 8
_TIG_IZ_r5Jm_argv:
	.zero	8
	.globl	_TIG_iO_r5Jm_1___bswap_32_1_opaque_ptr_2
	.align 8
	.type	_TIG_iO_r5Jm_1___bswap_32_1_opaque_ptr_2, @object
	.size	_TIG_iO_r5Jm_1___bswap_32_1_opaque_ptr_2, 8
_TIG_iO_r5Jm_1___bswap_32_1_opaque_ptr_2:
	.zero	8
	.globl	_TIG_iO_r5Jm_1_showTop_1_opaque_ptr_1
	.align 8
	.type	_TIG_iO_r5Jm_1_showTop_1_opaque_ptr_1, @object
	.size	_TIG_iO_r5Jm_1_showTop_1_opaque_ptr_1, 8
_TIG_iO_r5Jm_1_showTop_1_opaque_ptr_1:
	.zero	8
	.globl	_TIG_iO_r5Jm_1___bswap_64_1_opaque_ptr_2
	.align 8
	.type	_TIG_iO_r5Jm_1___bswap_64_1_opaque_ptr_2, @object
	.size	_TIG_iO_r5Jm_1___bswap_64_1_opaque_ptr_2, 8
_TIG_iO_r5Jm_1___bswap_64_1_opaque_ptr_2:
	.zero	8
	.globl	_TIG_iO_r5Jm_1___uint16_identity_1_opaque_list_1
	.align 8
	.type	_TIG_iO_r5Jm_1___uint16_identity_1_opaque_list_1, @object
	.size	_TIG_iO_r5Jm_1___uint16_identity_1_opaque_list_1, 8
_TIG_iO_r5Jm_1___uint16_identity_1_opaque_list_1:
	.zero	8
	.globl	_TIG_iO_r5Jm_1_showTop_1_opaque_list_2
	.align 8
	.type	_TIG_iO_r5Jm_1_showTop_1_opaque_list_2, @object
	.size	_TIG_iO_r5Jm_1_showTop_1_opaque_list_2, 8
_TIG_iO_r5Jm_1_showTop_1_opaque_list_2:
	.zero	8
	.globl	_TIG_iO_r5Jm_1___uint16_identity_1_opaque_list_2
	.align 8
	.type	_TIG_iO_r5Jm_1___uint16_identity_1_opaque_list_2, @object
	.size	_TIG_iO_r5Jm_1___uint16_identity_1_opaque_list_2, 8
_TIG_iO_r5Jm_1___uint16_identity_1_opaque_list_2:
	.zero	8
	.globl	_TIG_iO_r5Jm_1_showTop_1_opaque_ptr_2
	.align 8
	.type	_TIG_iO_r5Jm_1_showTop_1_opaque_ptr_2, @object
	.size	_TIG_iO_r5Jm_1_showTop_1_opaque_ptr_2, 8
_TIG_iO_r5Jm_1_showTop_1_opaque_ptr_2:
	.zero	8
	.globl	_TIG_iO_r5Jm_1_display_1_opaque_list_1
	.align 8
	.type	_TIG_iO_r5Jm_1_display_1_opaque_list_1, @object
	.size	_TIG_iO_r5Jm_1_display_1_opaque_list_1, 8
_TIG_iO_r5Jm_1_display_1_opaque_list_1:
	.zero	8
	.globl	_TIG_iO_r5Jm_1_main_1_opaque_ptr_1
	.align 8
	.type	_TIG_iO_r5Jm_1_main_1_opaque_ptr_1, @object
	.size	_TIG_iO_r5Jm_1_main_1_opaque_ptr_1, 8
_TIG_iO_r5Jm_1_main_1_opaque_ptr_1:
	.zero	8
	.globl	_TIG_iO_r5Jm_1_pop_1_opaque_ptr_2
	.align 8
	.type	_TIG_iO_r5Jm_1_pop_1_opaque_ptr_2, @object
	.size	_TIG_iO_r5Jm_1_pop_1_opaque_ptr_2, 8
_TIG_iO_r5Jm_1_pop_1_opaque_ptr_2:
	.zero	8
	.globl	_TIG_iO_r5Jm_1_push_1_opaque_ptr_2
	.align 8
	.type	_TIG_iO_r5Jm_1_push_1_opaque_ptr_2, @object
	.size	_TIG_iO_r5Jm_1_push_1_opaque_ptr_2, 8
_TIG_iO_r5Jm_1_push_1_opaque_ptr_2:
	.zero	8
	.globl	_TIG_iO_r5Jm_1___bswap_32_1_opaque_ptr_1
	.align 8
	.type	_TIG_iO_r5Jm_1___bswap_32_1_opaque_ptr_1, @object
	.size	_TIG_iO_r5Jm_1___bswap_32_1_opaque_ptr_1, 8
_TIG_iO_r5Jm_1___bswap_32_1_opaque_ptr_1:
	.zero	8
	.globl	_TIG_iO_r5Jm_1_empty_1_opaque_ptr_2
	.align 8
	.type	_TIG_iO_r5Jm_1_empty_1_opaque_ptr_2, @object
	.size	_TIG_iO_r5Jm_1_empty_1_opaque_ptr_2, 8
_TIG_iO_r5Jm_1_empty_1_opaque_ptr_2:
	.zero	8
	.globl	_TIG_iO_r5Jm_1___bswap_16_1_opaque_list_2
	.align 8
	.type	_TIG_iO_r5Jm_1___bswap_16_1_opaque_list_2, @object
	.size	_TIG_iO_r5Jm_1___bswap_16_1_opaque_list_2, 8
_TIG_iO_r5Jm_1___bswap_16_1_opaque_list_2:
	.zero	8
	.globl	_TIG_iO_r5Jm_1_pop_1_opaque_ptr_1
	.align 8
	.type	_TIG_iO_r5Jm_1_pop_1_opaque_ptr_1, @object
	.size	_TIG_iO_r5Jm_1_pop_1_opaque_ptr_1, 8
_TIG_iO_r5Jm_1_pop_1_opaque_ptr_1:
	.zero	8
	.globl	_TIG_iO_r5Jm_1_display_1_opaque_ptr_2
	.align 8
	.type	_TIG_iO_r5Jm_1_display_1_opaque_ptr_2, @object
	.size	_TIG_iO_r5Jm_1_display_1_opaque_ptr_2, 8
_TIG_iO_r5Jm_1_display_1_opaque_ptr_2:
	.zero	8
	.globl	_TIG_iO_r5Jm_1___uint64_identity_1_opaque_ptr_1
	.align 8
	.type	_TIG_iO_r5Jm_1___uint64_identity_1_opaque_ptr_1, @object
	.size	_TIG_iO_r5Jm_1___uint64_identity_1_opaque_ptr_1, 8
_TIG_iO_r5Jm_1___uint64_identity_1_opaque_ptr_1:
	.zero	8
	.globl	_TIG_iO_r5Jm_1_ONP_1_opaque_list_1
	.align 8
	.type	_TIG_iO_r5Jm_1_ONP_1_opaque_list_1, @object
	.size	_TIG_iO_r5Jm_1_ONP_1_opaque_list_1, 8
_TIG_iO_r5Jm_1_ONP_1_opaque_list_1:
	.zero	8
	.globl	_TIG_iO_r5Jm_1___bswap_32_1_opaque_list_1
	.align 8
	.type	_TIG_iO_r5Jm_1___bswap_32_1_opaque_list_1, @object
	.size	_TIG_iO_r5Jm_1___bswap_32_1_opaque_list_1, 8
_TIG_iO_r5Jm_1___bswap_32_1_opaque_list_1:
	.zero	8
	.globl	_TIG_iO_r5Jm_1_main_1_opaque_list_2
	.align 8
	.type	_TIG_iO_r5Jm_1_main_1_opaque_list_2, @object
	.size	_TIG_iO_r5Jm_1_main_1_opaque_list_2, 8
_TIG_iO_r5Jm_1_main_1_opaque_list_2:
	.zero	8
	.globl	_TIG_iO_r5Jm_1_push_1_opaque_ptr_1
	.align 8
	.type	_TIG_iO_r5Jm_1_push_1_opaque_ptr_1, @object
	.size	_TIG_iO_r5Jm_1_push_1_opaque_ptr_1, 8
_TIG_iO_r5Jm_1_push_1_opaque_ptr_1:
	.zero	8
	.globl	_TIG_iO_r5Jm_1___bswap_64_1_opaque_list_1
	.align 8
	.type	_TIG_iO_r5Jm_1___bswap_64_1_opaque_list_1, @object
	.size	_TIG_iO_r5Jm_1___bswap_64_1_opaque_list_1, 8
_TIG_iO_r5Jm_1___bswap_64_1_opaque_list_1:
	.zero	8
	.globl	_TIG_iO_r5Jm_1_main_1_opaque_ptr_2
	.align 8
	.type	_TIG_iO_r5Jm_1_main_1_opaque_ptr_2, @object
	.size	_TIG_iO_r5Jm_1_main_1_opaque_ptr_2, 8
_TIG_iO_r5Jm_1_main_1_opaque_ptr_2:
	.zero	8
	.globl	_TIG_iO_r5Jm_1___uint32_identity_1_opaque_ptr_2
	.align 8
	.type	_TIG_iO_r5Jm_1___uint32_identity_1_opaque_ptr_2, @object
	.size	_TIG_iO_r5Jm_1___uint32_identity_1_opaque_ptr_2, 8
_TIG_iO_r5Jm_1___uint32_identity_1_opaque_ptr_2:
	.zero	8
	.globl	_TIG_iO_r5Jm_1_pop_1_opaque_list_2
	.align 8
	.type	_TIG_iO_r5Jm_1_pop_1_opaque_list_2, @object
	.size	_TIG_iO_r5Jm_1_pop_1_opaque_list_2, 8
_TIG_iO_r5Jm_1_pop_1_opaque_list_2:
	.zero	8
	.globl	_TIG_iO_r5Jm_1_ONP_1_opaque_list_2
	.align 8
	.type	_TIG_iO_r5Jm_1_ONP_1_opaque_list_2, @object
	.size	_TIG_iO_r5Jm_1_ONP_1_opaque_list_2, 8
_TIG_iO_r5Jm_1_ONP_1_opaque_list_2:
	.zero	8
	.globl	top
	.align 8
	.type	top, @object
	.size	top, 8
top:
	.zero	8
	.globl	_TIG_iO_r5Jm_1_main_1_opaque_list_1
	.align 8
	.type	_TIG_iO_r5Jm_1_main_1_opaque_list_1, @object
	.size	_TIG_iO_r5Jm_1_main_1_opaque_list_1, 8
_TIG_iO_r5Jm_1_main_1_opaque_list_1:
	.zero	8
	.globl	_TIG_iO_r5Jm_1___uint32_identity_1_opaque_list_1
	.align 8
	.type	_TIG_iO_r5Jm_1___uint32_identity_1_opaque_list_1, @object
	.size	_TIG_iO_r5Jm_1___uint32_identity_1_opaque_list_1, 8
_TIG_iO_r5Jm_1___uint32_identity_1_opaque_list_1:
	.zero	8
	.globl	_TIG_iO_r5Jm_1___bswap_64_1_opaque_list_2
	.align 8
	.type	_TIG_iO_r5Jm_1___bswap_64_1_opaque_list_2, @object
	.size	_TIG_iO_r5Jm_1___bswap_64_1_opaque_list_2, 8
_TIG_iO_r5Jm_1___bswap_64_1_opaque_list_2:
	.zero	8
	.globl	_TIG_IZ_r5Jm_argc
	.align 4
	.type	_TIG_IZ_r5Jm_argc, @object
	.size	_TIG_IZ_r5Jm_argc, 4
_TIG_IZ_r5Jm_argc:
	.zero	4
	.globl	_TIG_iO_r5Jm_1_priorytety_1_opaque_ptr_1
	.align 8
	.type	_TIG_iO_r5Jm_1_priorytety_1_opaque_ptr_1, @object
	.size	_TIG_iO_r5Jm_1_priorytety_1_opaque_ptr_1, 8
_TIG_iO_r5Jm_1_priorytety_1_opaque_ptr_1:
	.zero	8
	.globl	_TIG_iO_r5Jm_1_ONP_1_opaque_ptr_2
	.align 8
	.type	_TIG_iO_r5Jm_1_ONP_1_opaque_ptr_2, @object
	.size	_TIG_iO_r5Jm_1_ONP_1_opaque_ptr_2, 8
_TIG_iO_r5Jm_1_ONP_1_opaque_ptr_2:
	.zero	8
	.globl	_TIG_iO_r5Jm_1_empty_1_opaque_list_2
	.align 8
	.type	_TIG_iO_r5Jm_1_empty_1_opaque_list_2, @object
	.size	_TIG_iO_r5Jm_1_empty_1_opaque_list_2, 8
_TIG_iO_r5Jm_1_empty_1_opaque_list_2:
	.zero	8
	.globl	_TIG_iO_r5Jm_1___bswap_16_1_opaque_ptr_2
	.align 8
	.type	_TIG_iO_r5Jm_1___bswap_16_1_opaque_ptr_2, @object
	.size	_TIG_iO_r5Jm_1___bswap_16_1_opaque_ptr_2, 8
_TIG_iO_r5Jm_1___bswap_16_1_opaque_ptr_2:
	.zero	8
	.globl	_TIG_iO_r5Jm_1_empty_1_opaque_ptr_1
	.align 8
	.type	_TIG_iO_r5Jm_1_empty_1_opaque_ptr_1, @object
	.size	_TIG_iO_r5Jm_1_empty_1_opaque_ptr_1, 8
_TIG_iO_r5Jm_1_empty_1_opaque_ptr_1:
	.zero	8
	.globl	_TIG_iO_r5Jm_1_push_1_opaque_list_2
	.align 8
	.type	_TIG_iO_r5Jm_1_push_1_opaque_list_2, @object
	.size	_TIG_iO_r5Jm_1_push_1_opaque_list_2, 8
_TIG_iO_r5Jm_1_push_1_opaque_list_2:
	.zero	8
	.globl	_TIG_iO_r5Jm_1___uint16_identity_1_opaque_ptr_1
	.align 8
	.type	_TIG_iO_r5Jm_1___uint16_identity_1_opaque_ptr_1, @object
	.size	_TIG_iO_r5Jm_1___uint16_identity_1_opaque_ptr_1, 8
_TIG_iO_r5Jm_1___uint16_identity_1_opaque_ptr_1:
	.zero	8
	.globl	_TIG_iO_r5Jm_1_priorytety_1_opaque_list_1
	.align 8
	.type	_TIG_iO_r5Jm_1_priorytety_1_opaque_list_1, @object
	.size	_TIG_iO_r5Jm_1_priorytety_1_opaque_list_1, 8
_TIG_iO_r5Jm_1_priorytety_1_opaque_list_1:
	.zero	8
	.globl	_TIG_iO_r5Jm_1_priorytety_1_opaque_list_2
	.align 8
	.type	_TIG_iO_r5Jm_1_priorytety_1_opaque_list_2, @object
	.size	_TIG_iO_r5Jm_1_priorytety_1_opaque_list_2, 8
_TIG_iO_r5Jm_1_priorytety_1_opaque_list_2:
	.zero	8
	.globl	_TIG_iO_r5Jm_1_push_1_opaque_list_1
	.align 8
	.type	_TIG_iO_r5Jm_1_push_1_opaque_list_1, @object
	.size	_TIG_iO_r5Jm_1_push_1_opaque_list_1, 8
_TIG_iO_r5Jm_1_push_1_opaque_list_1:
	.zero	8
	.globl	_TIG_iO_r5Jm_1_display_1_opaque_list_2
	.align 8
	.type	_TIG_iO_r5Jm_1_display_1_opaque_list_2, @object
	.size	_TIG_iO_r5Jm_1_display_1_opaque_list_2, 8
_TIG_iO_r5Jm_1_display_1_opaque_list_2:
	.zero	8
	.globl	_TIG_iO_r5Jm_1___bswap_32_1_opaque_list_2
	.align 8
	.type	_TIG_iO_r5Jm_1___bswap_32_1_opaque_list_2, @object
	.size	_TIG_iO_r5Jm_1___bswap_32_1_opaque_list_2, 8
_TIG_iO_r5Jm_1___bswap_32_1_opaque_list_2:
	.zero	8
	.globl	_TIG_iO_r5Jm_1___bswap_16_1_opaque_ptr_1
	.align 8
	.type	_TIG_iO_r5Jm_1___bswap_16_1_opaque_ptr_1, @object
	.size	_TIG_iO_r5Jm_1___bswap_16_1_opaque_ptr_1, 8
_TIG_iO_r5Jm_1___bswap_16_1_opaque_ptr_1:
	.zero	8
	.globl	_TIG_iO_r5Jm_1___uint32_identity_1_opaque_list_2
	.align 8
	.type	_TIG_iO_r5Jm_1___uint32_identity_1_opaque_list_2, @object
	.size	_TIG_iO_r5Jm_1___uint32_identity_1_opaque_list_2, 8
_TIG_iO_r5Jm_1___uint32_identity_1_opaque_list_2:
	.zero	8
	.globl	_TIG_iO_r5Jm_1___uint64_identity_1_opaque_list_1
	.align 8
	.type	_TIG_iO_r5Jm_1___uint64_identity_1_opaque_list_1, @object
	.size	_TIG_iO_r5Jm_1___uint64_identity_1_opaque_list_1, 8
_TIG_iO_r5Jm_1___uint64_identity_1_opaque_list_1:
	.zero	8
	.globl	_TIG_iO_r5Jm_1___bswap_16_1_opaque_list_1
	.align 8
	.type	_TIG_iO_r5Jm_1___bswap_16_1_opaque_list_1, @object
	.size	_TIG_iO_r5Jm_1___bswap_16_1_opaque_list_1, 8
_TIG_iO_r5Jm_1___bswap_16_1_opaque_list_1:
	.zero	8
	.globl	_TIG_iO_r5Jm_1_pop_1_opaque_list_1
	.align 8
	.type	_TIG_iO_r5Jm_1_pop_1_opaque_list_1, @object
	.size	_TIG_iO_r5Jm_1_pop_1_opaque_list_1, 8
_TIG_iO_r5Jm_1_pop_1_opaque_list_1:
	.zero	8
	.globl	_TIG_iO_r5Jm_1_display_1_opaque_ptr_1
	.align 8
	.type	_TIG_iO_r5Jm_1_display_1_opaque_ptr_1, @object
	.size	_TIG_iO_r5Jm_1_display_1_opaque_ptr_1, 8
_TIG_iO_r5Jm_1_display_1_opaque_ptr_1:
	.zero	8
	.globl	_TIG_iO_r5Jm_1___uint32_identity_1_opaque_ptr_1
	.align 8
	.type	_TIG_iO_r5Jm_1___uint32_identity_1_opaque_ptr_1, @object
	.size	_TIG_iO_r5Jm_1___uint32_identity_1_opaque_ptr_1, 8
_TIG_iO_r5Jm_1___uint32_identity_1_opaque_ptr_1:
	.zero	8
	.text
	.globl	showTop
	.type	showTop, @function
showTop:
.LFB0:
	.cfi_startproc
	endbr64
	pushq	%rbp
	.cfi_def_cfa_offset 16
	.cfi_offset 6, -16
	movq	%rsp, %rbp
	.cfi_def_cfa_register 6
	subq	$32, %rsp
#APP
# 76 "/usr/include/stdlib.h" 1
	##_ANNOTATION_INITIALREGION_-TIG-iO-r5Jm-1-showTop--28
# 0 "" 2
# 80 "/usr/include/stdlib.h" 1
	##_ANNOTATION_ATOMICREGION_-TIG-iO-r5Jm-1-showTop--27
# 0 "" 2
#NO_APP
	movl	$24, %edi
	call	malloc@PLT
	movq	%rax, -24(%rbp)
	movq	-24(%rbp), %rax
	movq	-24(%rbp), %rdx
	movq	%rdx, 16(%rax)
	movq	-24(%rbp), %rax
	movq	-24(%rbp), %rdx
	movq	%rdx, 8(%rax)
	movq	-24(%rbp), %rax
	movq	%rax, _TIG_iO_r5Jm_1_showTop_1_opaque_list_1(%rip)
	call	rand@PLT
	movl	%eax, -32(%rbp)
	movl	$24, %edi
	call	malloc@PLT
	movq	%rax, -16(%rbp)
	movq	-16(%rbp), %rax
	movl	$0, (%rax)
	movq	_TIG_iO_r5Jm_1_showTop_1_opaque_list_1(%rip), %rax
	movq	16(%rax), %rdx
	movq	-16(%rbp), %rax
	movq	%rdx, 16(%rax)
	movq	_TIG_iO_r5Jm_1_showTop_1_opaque_list_1(%rip), %rdx
	movq	-16(%rbp), %rax
	movq	%rdx, 8(%rax)
	movq	_TIG_iO_r5Jm_1_showTop_1_opaque_list_1(%rip), %rax
	movq	16(%rax), %rax
	movq	-16(%rbp), %rdx
	movq	%rdx, 8(%rax)
	movq	_TIG_iO_r5Jm_1_showTop_1_opaque_list_1(%rip), %rax
	movq	-16(%rbp), %rdx
	movq	%rdx, 16(%rax)
	call	rand@PLT
	movl	%eax, -28(%rbp)
	movl	$24, %edi
	call	malloc@PLT
	movq	%rax, -8(%rbp)
	movq	-8(%rbp), %rax
	movl	-28(%rbp), %edx
	movl	%edx, (%rax)
	movq	_TIG_iO_r5Jm_1_showTop_1_opaque_list_1(%rip), %rax
	movq	16(%rax), %rdx
	movq	-8(%rbp), %rax
	movq	%rdx, 16(%rax)
	movq	_TIG_iO_r5Jm_1_showTop_1_opaque_list_1(%rip), %rdx
	movq	-8(%rbp), %rax
	movq	%rdx, 8(%rax)
	movq	_TIG_iO_r5Jm_1_showTop_1_opaque_list_1(%rip), %rax
	movq	16(%rax), %rax
	movq	-8(%rbp), %rdx
	movq	%rdx, 8(%rax)
	movq	_TIG_iO_r5Jm_1_showTop_1_opaque_list_1(%rip), %rax
	movq	-8(%rbp), %rdx
	movq	%rdx, 16(%rax)
	movq	_TIG_iO_r5Jm_1_showTop_1_opaque_list_1(%rip), %rax
	movq	16(%rax), %rax
	movq	%rax, _TIG_iO_r5Jm_1_showTop_1_opaque_ptr_1(%rip)
	movq	_TIG_iO_r5Jm_1_showTop_1_opaque_ptr_1(%rip), %rax
	movq	%rax, _TIG_iO_r5Jm_1_showTop_1_opaque_ptr_2(%rip)
	nop
	nop
	movq	_TIG_iO_r5Jm_1_showTop_1_opaque_ptr_1(%rip), %rdx
	movq	_TIG_iO_r5Jm_1_showTop_1_opaque_ptr_2(%rip), %rax
	cmpq	%rax, %rdx
	je	.L2
	call	display
.L2:
	movq	top(%rip), %rax
	movl	(%rax), %eax
	leave
	.cfi_def_cfa 7, 8
	ret
	.cfi_endproc
.LFE0:
	.size	showTop, .-showTop
	.section	.rodata
	.align 8
.LC0:
	.string	"Wpisz rownanie bez spacji np. '12+a*(b*c+d/e)' : "
.LC1:
	.string	"%s"
	.align 8
.LC2:
	.string	"Rownanie po zastosowaniu ONP: "
	.text
	.globl	main
	.type	main, @function
main:
.LFB2:
	.cfi_startproc
	endbr64
	pushq	%rbp
	.cfi_def_cfa_offset 16
	.cfi_offset 6, -16
	movq	%rsp, %rbp
	.cfi_def_cfa_register 6
	subq	$176, %rsp
	movl	%edi, -148(%rbp)
	movq	%rsi, -160(%rbp)
	movq	%rdx, -168(%rbp)
	movq	%fs:40, %rax
	movq	%rax, -8(%rbp)
	xorl	%eax, %eax
	movq	$0, top(%rip)
	nop
.L5:
	movq	$0, _TIG_IZ_r5Jm_envp(%rip)
	nop
.L6:
	movq	$0, _TIG_IZ_r5Jm_argv(%rip)
	nop
.L7:
	movl	$0, _TIG_IZ_r5Jm_argc(%rip)
	nop
	nop
.L8:
.L9:
#APP
# 125 "/usr/include/x86_64-linux-gnu/bits/byteswap.h" 1
	##_ANNOTATION_INITIALREGION_-TIG-IZ-r5Jm--0
# 0 "" 2
#NO_APP
	movl	-148(%rbp), %eax
	movl	%eax, _TIG_IZ_r5Jm_argc(%rip)
	movq	-160(%rbp), %rax
	movq	%rax, _TIG_IZ_r5Jm_argv(%rip)
	movq	-168(%rbp), %rax
	movq	%rax, _TIG_IZ_r5Jm_envp(%rip)
#APP
# 132 "/usr/include/x86_64-linux-gnu/bits/byteswap.h" 1
	##_ANNOTATION_ATOMICREGION_-TIG-iO-r5Jm-1-main--19
# 0 "" 2
#NO_APP
	movl	$24, %edi
	call	malloc@PLT
	movq	%rax, -136(%rbp)
	movq	-136(%rbp), %rax
	movq	-136(%rbp), %rdx
	movq	%rdx, 8(%rax)
	movq	-136(%rbp), %rax
	movq	-136(%rbp), %rdx
	movq	%rdx, 16(%rax)
	movq	-136(%rbp), %rax
	movq	%rax, _TIG_iO_r5Jm_1_main_1_opaque_list_1(%rip)
	call	rand@PLT
	movl	%eax, -144(%rbp)
	movl	$24, %edi
	call	malloc@PLT
	movq	%rax, -128(%rbp)
	movq	-128(%rbp), %rax
	movl	$0, (%rax)
	movq	_TIG_iO_r5Jm_1_main_1_opaque_list_1(%rip), %rax
	movq	8(%rax), %rdx
	movq	-128(%rbp), %rax
	movq	%rdx, 8(%rax)
	movq	_TIG_iO_r5Jm_1_main_1_opaque_list_1(%rip), %rdx
	movq	-128(%rbp), %rax
	movq	%rdx, 16(%rax)
	movq	_TIG_iO_r5Jm_1_main_1_opaque_list_1(%rip), %rax
	movq	8(%rax), %rax
	movq	-128(%rbp), %rdx
	movq	%rdx, 16(%rax)
	movq	_TIG_iO_r5Jm_1_main_1_opaque_list_1(%rip), %rax
	movq	-128(%rbp), %rdx
	movq	%rdx, 8(%rax)
	call	rand@PLT
	movl	%eax, -140(%rbp)
	movl	$24, %edi
	call	malloc@PLT
	movq	%rax, -120(%rbp)
	movq	-120(%rbp), %rax
	movl	-140(%rbp), %edx
	movl	%edx, (%rax)
	movq	_TIG_iO_r5Jm_1_main_1_opaque_list_1(%rip), %rax
	movq	8(%rax), %rdx
	movq	-120(%rbp), %rax
	movq	%rdx, 8(%rax)
	movq	_TIG_iO_r5Jm_1_main_1_opaque_list_1(%rip), %rdx
	movq	-120(%rbp), %rax
	movq	%rdx, 16(%rax)
	movq	_TIG_iO_r5Jm_1_main_1_opaque_list_1(%rip), %rax
	movq	8(%rax), %rax
	movq	-120(%rbp), %rdx
	movq	%rdx, 16(%rax)
	movq	_TIG_iO_r5Jm_1_main_1_opaque_list_1(%rip), %rax
	movq	-120(%rbp), %rdx
	movq	%rdx, 8(%rax)
	movq	_TIG_iO_r5Jm_1_main_1_opaque_list_1(%rip), %rax
	movq	8(%rax), %rax
	movq	%rax, _TIG_iO_r5Jm_1_main_1_opaque_ptr_1(%rip)
	movq	_TIG_iO_r5Jm_1_main_1_opaque_ptr_1(%rip), %rax
	movq	%rax, _TIG_iO_r5Jm_1_main_1_opaque_ptr_2(%rip)
	nop
	nop
	movq	_TIG_iO_r5Jm_1_showTop_1_opaque_ptr_1(%rip), %rdx
	movq	_TIG_iO_r5Jm_1_showTop_1_opaque_ptr_2(%rip), %rax
	cmpq	%rax, %rdx
	je	.L10
	call	showTop
	movl	%eax, -144(%rbp)
.L10:
	leaq	.LC0(%rip), %rax
	movq	%rax, %rdi
	movl	$0, %eax
	call	printf@PLT
	leaq	-112(%rbp), %rax
	movq	%rax, %rsi
	leaq	.LC1(%rip), %rax
	movq	%rax, %rdi
	movl	$0, %eax
	call	__isoc99_scanf@PLT
	leaq	.LC2(%rip), %rax
	movq	%rax, %rdi
	movl	$0, %eax
	call	printf@PLT
	leaq	-112(%rbp), %rax
	movq	%rax, %rdi
	call	ONP
	movl	$0, %eax
	movq	-8(%rbp), %rdx
	subq	%fs:40, %rdx
	je	.L12
	call	__stack_chk_fail@PLT
.L12:
	leave
	.cfi_def_cfa 7, 8
	ret
	.cfi_endproc
.LFE2:
	.size	main, .-main
	.section	.rodata
.LC3:
	.string	"Stos jest pusty"
	.text
	.globl	pop
	.type	pop, @function
pop:
.LFB3:
	.cfi_startproc
	endbr64
	pushq	%rbp
	.cfi_def_cfa_offset 16
	.cfi_offset 6, -16
	movq	%rsp, %rbp
	.cfi_def_cfa_register 6
	subq	$48, %rsp
#APP
# 157 "mblaszczykowski_algorithms-data-structures-c_5.c" 1
	##_ANNOTATION_INITIALREGION_-TIG-iO-r5Jm-1-pop--22
# 0 "" 2
# 161 "mblaszczykowski_algorithms-data-structures-c_5.c" 1
	##_ANNOTATION_ATOMICREGION_-TIG-iO-r5Jm-1-pop--21
# 0 "" 2
#NO_APP
	movl	$24, %edi
	call	malloc@PLT
	movq	%rax, -32(%rbp)
	movq	-32(%rbp), %rax
	movq	-32(%rbp), %rdx
	movq	%rdx, (%rax)
	movq	-32(%rbp), %rax
	movq	-32(%rbp), %rdx
	movq	%rdx, 16(%rax)
	movq	-32(%rbp), %rax
	movq	%rax, _TIG_iO_r5Jm_1_pop_1_opaque_list_1(%rip)
	call	rand@PLT
	movl	%eax, -44(%rbp)
	movl	$24, %edi
	call	malloc@PLT
	movq	%rax, -24(%rbp)
	movq	-24(%rbp), %rax
	movl	$0, 8(%rax)
	movq	_TIG_iO_r5Jm_1_pop_1_opaque_list_1(%rip), %rax
	movq	(%rax), %rdx
	movq	-24(%rbp), %rax
	movq	%rdx, (%rax)
	movq	_TIG_iO_r5Jm_1_pop_1_opaque_list_1(%rip), %rdx
	movq	-24(%rbp), %rax
	movq	%rdx, 16(%rax)
	movq	_TIG_iO_r5Jm_1_pop_1_opaque_list_1(%rip), %rax
	movq	(%rax), %rax
	movq	-24(%rbp), %rdx
	movq	%rdx, 16(%rax)
	movq	_TIG_iO_r5Jm_1_pop_1_opaque_list_1(%rip), %rax
	movq	-24(%rbp), %rdx
	movq	%rdx, (%rax)
	call	rand@PLT
	movl	%eax, -40(%rbp)
	movl	$24, %edi
	call	malloc@PLT
	movq	%rax, -16(%rbp)
	movq	-16(%rbp), %rax
	movl	-40(%rbp), %edx
	movl	%edx, 8(%rax)
	movq	_TIG_iO_r5Jm_1_pop_1_opaque_list_1(%rip), %rax
	movq	(%rax), %rdx
	movq	-16(%rbp), %rax
	movq	%rdx, (%rax)
	movq	_TIG_iO_r5Jm_1_pop_1_opaque_list_1(%rip), %rdx
	movq	-16(%rbp), %rax
	movq	%rdx, 16(%rax)
	movq	_TIG_iO_r5Jm_1_pop_1_opaque_list_1(%rip), %rax
	movq	(%rax), %rax
	movq	-16(%rbp), %rdx
	movq	%rdx, 16(%rax)
	movq	_TIG_iO_r5Jm_1_pop_1_opaque_list_1(%rip), %rax
	movq	-16(%rbp), %rdx
	movq	%rdx, (%rax)
	call	rand@PLT
	movl	%eax, -36(%rbp)
	movl	$24, %edi
	call	malloc@PLT
	movq	%rax, -8(%rbp)
	movl	-36(%rbp), %eax
	leal	(%rax,%rax), %edx
	movq	-8(%rbp), %rax
	movl	%edx, 8(%rax)
	movq	_TIG_iO_r5Jm_1_pop_1_opaque_list_1(%rip), %rax
	movq	(%rax), %rdx
	movq	-8(%rbp), %rax
	movq	%rdx, (%rax)
	movq	_TIG_iO_r5Jm_1_pop_1_opaque_list_1(%rip), %rdx
	movq	-8(%rbp), %rax
	movq	%rdx, 16(%rax)
	movq	_TIG_iO_r5Jm_1_pop_1_opaque_list_1(%rip), %rax
	movq	(%rax), %rax
	movq	-8(%rbp), %rdx
	movq	%rdx, 16(%rax)
	movq	_TIG_iO_r5Jm_1_pop_1_opaque_list_1(%rip), %rax
	movq	-8(%rbp), %rdx
	movq	%rdx, (%rax)
	movq	_TIG_iO_r5Jm_1_pop_1_opaque_list_1(%rip), %rax
	movq	(%rax), %rax
	movq	%rax, _TIG_iO_r5Jm_1_pop_1_opaque_ptr_1(%rip)
	movq	_TIG_iO_r5Jm_1_pop_1_opaque_ptr_1(%rip), %rax
	movq	%rax, _TIG_iO_r5Jm_1_pop_1_opaque_ptr_2(%rip)
	movq	_TIG_iO_r5Jm_1_pop_1_opaque_ptr_2(%rip), %rax
	movq	(%rax), %rax
	movq	%rax, _TIG_iO_r5Jm_1_pop_1_opaque_ptr_2(%rip)
	nop
	nop
	movq	top(%rip), %rax
	testq	%rax, %rax
	jne	.L14
	leaq	.LC3(%rip), %rax
	movq	%rax, %rdi
	call	puts@PLT
	jmp	.L13
.L14:
	movq	_TIG_iO_r5Jm_1_showTop_1_opaque_ptr_1(%rip), %rdx
	movq	_TIG_iO_r5Jm_1_showTop_1_opaque_ptr_2(%rip), %rax
	cmpq	%rax, %rdx
	jne	.L16
	movq	top(%rip), %rax
	movq	8(%rax), %rax
	movq	%rax, top(%rip)
	jmp	.L13
.L16:
#APP
# 31 "mblaszczykowski_algorithms-data-structures-c_5.c" 1
	.byte 0xb3
# 0 "" 2
#NO_APP
	nop
.L13:
	leave
	.cfi_def_cfa 7, 8
	ret
	.cfi_endproc
.LFE3:
	.size	pop, .-pop
	.globl	push
	.type	push, @function
push:
.LFB8:
	.cfi_startproc
	endbr64
	pushq	%rbp
	.cfi_def_cfa_offset 16
	.cfi_offset 6, -16
	movq	%rsp, %rbp
	.cfi_def_cfa_register 6
	subq	$96, %rsp
	movl	%edi, -84(%rbp)
#APP
# 74 "/usr/include/x86_64-linux-gnu/bits/byteswap.h" 1
	##_ANNOTATION_INITIALREGION_-TIG-iO-r5Jm-1-push--26
# 0 "" 2
# 78 "/usr/include/x86_64-linux-gnu/bits/byteswap.h" 1
	##_ANNOTATION_ATOMICREGION_-TIG-iO-r5Jm-1-push--25
# 0 "" 2
#NO_APP
	movl	$24, %edi
	call	malloc@PLT
	movq	%rax, -56(%rbp)
	movq	-56(%rbp), %rax
	movq	-56(%rbp), %rdx
	movq	%rdx, (%rax)
	movq	-56(%rbp), %rax
	movq	-56(%rbp), %rdx
	movq	%rdx, 16(%rax)
	movq	-56(%rbp), %rax
	movq	%rax, _TIG_iO_r5Jm_1_push_1_opaque_list_1(%rip)
	call	rand@PLT
	movl	%eax, -72(%rbp)
	movl	$24, %edi
	call	malloc@PLT
	movq	%rax, -48(%rbp)
	movq	-48(%rbp), %rax
	movl	$0, 8(%rax)
	movq	_TIG_iO_r5Jm_1_push_1_opaque_list_1(%rip), %rax
	movq	(%rax), %rdx
	movq	-48(%rbp), %rax
	movq	%rdx, (%rax)
	movq	_TIG_iO_r5Jm_1_push_1_opaque_list_1(%rip), %rdx
	movq	-48(%rbp), %rax
	movq	%rdx, 16(%rax)
	movq	_TIG_iO_r5Jm_1_push_1_opaque_list_1(%rip), %rax
	movq	(%rax), %rax
	movq	-48(%rbp), %rdx
	movq	%rdx, 16(%rax)
	movq	_TIG_iO_r5Jm_1_push_1_opaque_list_1(%rip), %rax
	movq	-48(%rbp), %rdx
	movq	%rdx, (%rax)
	call	rand@PLT
	movl	%eax, -68(%rbp)
	movl	$24, %edi
	call	malloc@PLT
	movq	%rax, -40(%rbp)
	movq	-40(%rbp), %rax
	movl	-68(%rbp), %edx
	movl	%edx, 8(%rax)
	movq	_TIG_iO_r5Jm_1_push_1_opaque_list_1(%rip), %rax
	movq	(%rax), %rdx
	movq	-40(%rbp), %rax
	movq	%rdx, (%rax)
	movq	_TIG_iO_r5Jm_1_push_1_opaque_list_1(%rip), %rdx
	movq	-40(%rbp), %rax
	movq	%rdx, 16(%rax)
	movq	_TIG_iO_r5Jm_1_push_1_opaque_list_1(%rip), %rax
	movq	(%rax), %rax
	movq	-40(%rbp), %rdx
	movq	%rdx, 16(%rax)
	movq	_TIG_iO_r5Jm_1_push_1_opaque_list_1(%rip), %rax
	movq	-40(%rbp), %rdx
	movq	%rdx, (%rax)
	call	rand@PLT
	movl	%eax, -64(%rbp)
	movl	$24, %edi
	call	malloc@PLT
	movq	%rax, -32(%rbp)
	movl	-64(%rbp), %eax
	leal	(%rax,%rax), %edx
	movq	-32(%rbp), %rax
	movl	%edx, 8(%rax)
	movq	_TIG_iO_r5Jm_1_push_1_opaque_list_1(%rip), %rax
	movq	(%rax), %rdx
	movq	-32(%rbp), %rax
	movq	%rdx, (%rax)
	movq	_TIG_iO_r5Jm_1_push_1_opaque_list_1(%rip), %rdx
	movq	-32(%rbp), %rax
	movq	%rdx, 16(%rax)
	movq	_TIG_iO_r5Jm_1_push_1_opaque_list_1(%rip), %rax
	movq	(%rax), %rax
	movq	-32(%rbp), %rdx
	movq	%rdx, 16(%rax)
	movq	_TIG_iO_r5Jm_1_push_1_opaque_list_1(%rip), %rax
	movq	-32(%rbp), %rdx
	movq	%rdx, (%rax)
	call	rand@PLT
	movl	%eax, -60(%rbp)
	movl	$24, %edi
	call	malloc@PLT
	movq	%rax, -24(%rbp)
	movl	-60(%rbp), %edx
	movl	%edx, %eax
	addl	%eax, %eax
	addl	%eax, %edx
	movq	-24(%rbp), %rax
	movl	%edx, 8(%rax)
	movq	_TIG_iO_r5Jm_1_push_1_opaque_list_1(%rip), %rax
	movq	(%rax), %rdx
	movq	-24(%rbp), %rax
	movq	%rdx, (%rax)
	movq	_TIG_iO_r5Jm_1_push_1_opaque_list_1(%rip), %rdx
	movq	-24(%rbp), %rax
	movq	%rdx, 16(%rax)
	movq	_TIG_iO_r5Jm_1_push_1_opaque_list_1(%rip), %rax
	movq	(%rax), %rax
	movq	-24(%rbp), %rdx
	movq	%rdx, 16(%rax)
	movq	_TIG_iO_r5Jm_1_push_1_opaque_list_1(%rip), %rax
	movq	-24(%rbp), %rdx
	movq	%rdx, (%rax)
	movq	_TIG_iO_r5Jm_1_push_1_opaque_list_1(%rip), %rax
	movq	(%rax), %rax
	movq	%rax, _TIG_iO_r5Jm_1_push_1_opaque_ptr_1(%rip)
	movq	_TIG_iO_r5Jm_1_push_1_opaque_ptr_1(%rip), %rax
	movq	%rax, _TIG_iO_r5Jm_1_push_1_opaque_ptr_2(%rip)
	nop
	nop
	movl	$16, %edi
	call	malloc@PLT
	movq	%rax, -16(%rbp)
	movq	-16(%rbp), %rax
	movq	%rax, -8(%rbp)
	movq	-8(%rbp), %rax
	movl	-84(%rbp), %edx
	movl	%edx, (%rax)
	movq	top(%rip), %rdx
	movq	-8(%rbp), %rax
	movq	%rdx, 8(%rax)
	movq	-8(%rbp), %rax
	movq	%rax, top(%rip)
	movq	_TIG_iO_r5Jm_1_showTop_1_opaque_ptr_1(%rip), %rdx
	movq	_TIG_iO_r5Jm_1_showTop_1_opaque_ptr_2(%rip), %rax
	cmpq	%rax, %rdx
	leave
	.cfi_def_cfa 7, 8
	ret
	.cfi_endproc
.LFE8:
	.size	push, .-push
	.globl	empty
	.type	empty, @function
empty:
.LFB9:
	.cfi_startproc
	endbr64
	pushq	%rbp
	.cfi_def_cfa_offset 16
	.cfi_offset 6, -16
	movq	%rsp, %rbp
	.cfi_def_cfa_register 6
	subq	$32, %rsp
#APP
# 40 "mblaszczykowski_algorithms-data-structures-c_5.c" 1
	##_ANNOTATION_INITIALREGION_-TIG-iO-r5Jm-1-empty--18
# 0 "" 2
# 44 "mblaszczykowski_algorithms-data-structures-c_5.c" 1
	##_ANNOTATION_ATOMICREGION_-TIG-iO-r5Jm-1-empty--17
# 0 "" 2
#NO_APP
	movl	$24, %edi
	call	malloc@PLT
	movq	%rax, -24(%rbp)
	movq	-24(%rbp), %rax
	movq	-24(%rbp), %rdx
	movq	%rdx, 8(%rax)
	movq	-24(%rbp), %rax
	movq	-24(%rbp), %rdx
	movq	%rdx, (%rax)
	movq	-24(%rbp), %rax
	movq	%rax, _TIG_iO_r5Jm_1_empty_1_opaque_list_1(%rip)
	call	rand@PLT
	movl	%eax, -32(%rbp)
	movl	$24, %edi
	call	malloc@PLT
	movq	%rax, -16(%rbp)
	movq	-16(%rbp), %rax
	movl	$0, 16(%rax)
	movq	_TIG_iO_r5Jm_1_empty_1_opaque_list_1(%rip), %rax
	movq	8(%rax), %rdx
	movq	-16(%rbp), %rax
	movq	%rdx, 8(%rax)
	movq	_TIG_iO_r5Jm_1_empty_1_opaque_list_1(%rip), %rdx
	movq	-16(%rbp), %rax
	movq	%rdx, (%rax)
	movq	_TIG_iO_r5Jm_1_empty_1_opaque_list_1(%rip), %rax
	movq	8(%rax), %rax
	movq	-16(%rbp), %rdx
	movq	%rdx, (%rax)
	movq	_TIG_iO_r5Jm_1_empty_1_opaque_list_1(%rip), %rax
	movq	-16(%rbp), %rdx
	movq	%rdx, 8(%rax)
	call	rand@PLT
	movl	%eax, -28(%rbp)
	movl	$24, %edi
	call	malloc@PLT
	movq	%rax, -8(%rbp)
	movq	-8(%rbp), %rax
	movl	-28(%rbp), %edx
	movl	%edx, 16(%rax)
	movq	_TIG_iO_r5Jm_1_empty_1_opaque_list_1(%rip), %rax
	movq	8(%rax), %rdx
	movq	-8(%rbp), %rax
	movq	%rdx, 8(%rax)
	movq	_TIG_iO_r5Jm_1_empty_1_opaque_list_1(%rip), %rdx
	movq	-8(%rbp), %rax
	movq	%rdx, (%rax)
	movq	_TIG_iO_r5Jm_1_empty_1_opaque_list_1(%rip), %rax
	movq	8(%rax), %rax
	movq	-8(%rbp), %rdx
	movq	%rdx, (%rax)
	movq	_TIG_iO_r5Jm_1_empty_1_opaque_list_1(%rip), %rax
	movq	-8(%rbp), %rdx
	movq	%rdx, 8(%rax)
	movq	_TIG_iO_r5Jm_1_empty_1_opaque_list_1(%rip), %rax
	movq	8(%rax), %rax
	movq	%rax, _TIG_iO_r5Jm_1_empty_1_opaque_ptr_1(%rip)
	movq	_TIG_iO_r5Jm_1_empty_1_opaque_ptr_1(%rip), %rax
	movq	%rax, _TIG_iO_r5Jm_1_empty_1_opaque_ptr_2(%rip)
	movq	_TIG_iO_r5Jm_1_empty_1_opaque_ptr_2(%rip), %rax
	movq	8(%rax), %rax
	movq	%rax, _TIG_iO_r5Jm_1_empty_1_opaque_ptr_2(%rip)
	nop
	nop
	movq	_TIG_iO_r5Jm_1_showTop_1_opaque_ptr_1(%rip), %rdx
	movq	_TIG_iO_r5Jm_1_showTop_1_opaque_ptr_2(%rip), %rax
	cmpq	%rax, %rdx
	jne	.L26
	movq	top(%rip), %rax
	testq	%rax, %rax
	jne	.L22
	movl	$1, %eax
	jmp	.L23
.L25:
	movl	-32(%rbp), %eax
	orl	$1, %eax
	jmp	.L23
.L26:
	nop
	movq	top(%rip), %rax
	testq	%rax, %rax
	sete	%al
	movzbl	%al, %eax
	cmpl	%eax, -32(%rbp)
	je	.L25
.L22:
	movl	$0, %eax
.L23:
	leave
	.cfi_def_cfa 7, 8
	ret
	.cfi_endproc
.LFE9:
	.size	empty, .-empty
	.globl	ONP
	.type	ONP, @function
ONP:
.LFB10:
	.cfi_startproc
	endbr64
	pushq	%rbp
	.cfi_def_cfa_offset 16
	.cfi_offset 6, -16
	movq	%rsp, %rbp
	.cfi_def_cfa_register 6
	subq	$224, %rsp
	movq	%rdi, -216(%rbp)
	movq	%fs:40, %rax
	movq	%rax, -8(%rbp)
	xorl	%eax, %eax
#APP
# 96 "mblaszczykowski_algorithms-data-structures-c_5.c" 1
	##_ANNOTATION_INITIALREGION_-TIG-iO-r5Jm-1-ONP--2
# 0 "" 2
# 100 "mblaszczykowski_algorithms-data-structures-c_5.c" 1
	##_ANNOTATION_ATOMICREGION_-TIG-iO-r5Jm-1-ONP--1
# 0 "" 2
#NO_APP
	movl	$24, %edi
	call	malloc@PLT
	movq	%rax, -152(%rbp)
	movq	-152(%rbp), %rax
	movq	-152(%rbp), %rdx
	movq	%rdx, 8(%rax)
	movq	-152(%rbp), %rax
	movq	-152(%rbp), %rdx
	movq	%rdx, (%rax)
	movq	-152(%rbp), %rax
	movq	%rax, _TIG_iO_r5Jm_1_ONP_1_opaque_list_1(%rip)
	call	rand@PLT
	movl	%eax, -196(%rbp)
	movl	$24, %edi
	call	malloc@PLT
	movq	%rax, -144(%rbp)
	movq	-144(%rbp), %rax
	movl	$0, 16(%rax)
	movq	_TIG_iO_r5Jm_1_ONP_1_opaque_list_1(%rip), %rax
	movq	8(%rax), %rdx
	movq	-144(%rbp), %rax
	movq	%rdx, 8(%rax)
	movq	_TIG_iO_r5Jm_1_ONP_1_opaque_list_1(%rip), %rdx
	movq	-144(%rbp), %rax
	movq	%rdx, (%rax)
	movq	_TIG_iO_r5Jm_1_ONP_1_opaque_list_1(%rip), %rax
	movq	8(%rax), %rax
	movq	-144(%rbp), %rdx
	movq	%rdx, (%rax)
	movq	_TIG_iO_r5Jm_1_ONP_1_opaque_list_1(%rip), %rax
	movq	-144(%rbp), %rdx
	movq	%rdx, 8(%rax)
	call	rand@PLT
	movl	%eax, -192(%rbp)
	movl	$24, %edi
	call	malloc@PLT
	movq	%rax, -136(%rbp)
	movq	-136(%rbp), %rax
	movl	-192(%rbp), %edx
	movl	%edx, 16(%rax)
	movq	_TIG_iO_r5Jm_1_ONP_1_opaque_list_1(%rip), %rax
	movq	8(%rax), %rdx
	movq	-136(%rbp), %rax
	movq	%rdx, 8(%rax)
	movq	_TIG_iO_r5Jm_1_ONP_1_opaque_list_1(%rip), %rdx
	movq	-136(%rbp), %rax
	movq	%rdx, (%rax)
	movq	_TIG_iO_r5Jm_1_ONP_1_opaque_list_1(%rip), %rax
	movq	8(%rax), %rax
	movq	-136(%rbp), %rdx
	movq	%rdx, (%rax)
	movq	_TIG_iO_r5Jm_1_ONP_1_opaque_list_1(%rip), %rax
	movq	-136(%rbp), %rdx
	movq	%rdx, 8(%rax)
	movq	_TIG_iO_r5Jm_1_ONP_1_opaque_list_1(%rip), %rax
	movq	8(%rax), %rax
	movq	%rax, _TIG_iO_r5Jm_1_ONP_1_opaque_ptr_1(%rip)
	movq	_TIG_iO_r5Jm_1_ONP_1_opaque_ptr_1(%rip), %rax
	movq	%rax, _TIG_iO_r5Jm_1_ONP_1_opaque_ptr_2(%rip)
	nop
	nop
	movb	$0, -112(%rbp)
	movl	$1, -204(%rbp)
	jmp	.L28
.L29:
	movl	-204(%rbp), %eax
	movb	$0, -112(%rbp,%rax)
	addl	$1, -204(%rbp)
.L28:
	cmpl	$99, -204(%rbp)
	jbe	.L29
	movl	$0, -200(%rbp)
.L51:
	movq	-216(%rbp), %rax
	movq	%rax, %rdi
	call	strlen@PLT
	movq	%rax, -128(%rbp)
	movl	-200(%rbp), %eax
	cltq
	cmpq	%rax, -128(%rbp)
	ja	.L30
	jmp	.L31
.L30:
	movl	-200(%rbp), %eax
	movslq	%eax, %rdx
	movq	-216(%rbp), %rax
	addq	%rdx, %rax
	movzbl	(%rax), %eax
	movb	%al, -205(%rbp)
	cmpb	$96, -205(%rbp)
	jle	.L58
	cmpb	$122, -205(%rbp)
	jg	.L59
	movzbl	-205(%rbp), %eax
	movb	%al, -120(%rbp)
	movb	$0, -119(%rbp)
	leaq	-120(%rbp), %rdx
	leaq	-112(%rbp), %rax
	movq	%rdx, %rsi
	movq	%rax, %rdi
	call	strcat@PLT
	jmp	.L34
.L58:
	nop
	jmp	.L32
.L59:
	nop
.L32:
	cmpb	$64, -205(%rbp)
	jle	.L60
	cmpb	$90, -205(%rbp)
	jg	.L61
	movzbl	-205(%rbp), %eax
	movb	%al, -120(%rbp)
	movb	$0, -119(%rbp)
	leaq	-120(%rbp), %rdx
	leaq	-112(%rbp), %rax
	movq	%rdx, %rsi
	movq	%rax, %rdi
	call	strcat@PLT
	jmp	.L34
.L60:
	nop
	jmp	.L35
.L61:
	nop
.L35:
	cmpb	$47, -205(%rbp)
	jle	.L62
	cmpb	$57, -205(%rbp)
	jg	.L63
	movzbl	-205(%rbp), %eax
	movb	%al, -120(%rbp)
	movb	$0, -119(%rbp)
	leaq	-120(%rbp), %rdx
	leaq	-112(%rbp), %rax
	movq	%rdx, %rsi
	movq	%rax, %rdi
	call	strcat@PLT
	jmp	.L34
.L62:
	nop
	jmp	.L37
.L63:
	nop
.L37:
	cmpb	$40, -205(%rbp)
	jne	.L39
	movl	$40, %edi
	call	push
	jmp	.L34
.L39:
	cmpb	$41, -205(%rbp)
	jne	.L40
	movq	_TIG_iO_r5Jm_1_showTop_1_opaque_ptr_1(%rip), %rdx
	movq	_TIG_iO_r5Jm_1_showTop_1_opaque_ptr_2(%rip), %rax
	cmpq	%rax, %rdx
	jne	.L41
.L44:
	call	showTop
	movl	%eax, -168(%rbp)
	cmpl	$40, -168(%rbp)
	je	.L64
	call	showTop
	movl	%eax, -164(%rbp)
	movl	-164(%rbp), %eax
	movb	%al, -118(%rbp)
	movb	$0, -117(%rbp)
	leaq	-118(%rbp), %rdx
	leaq	-112(%rbp), %rax
	movq	%rdx, %rsi
	movq	%rax, %rdi
	call	strcat@PLT
	call	pop
	jmp	.L44
.L41:
	call	showTop
	movl	%eax, -168(%rbp)
	cmpl	$40, -168(%rbp)
	setne	%al
	movzbl	%al, %eax
	cmpl	%eax, -192(%rbp)
	jl	.L65
	call	showTop
	movl	%eax, -164(%rbp)
	movzbl	-205(%rbp), %eax
	movb	%al, -118(%rbp)
	movb	$0, -117(%rbp)
	leaq	-118(%rbp), %rdx
	addq	$1, %rdx
	leaq	-112(%rbp), %rax
	addq	$1, %rax
	movq	%rdx, %rsi
	movq	%rax, %rdi
	call	strcat@PLT
	call	pop
	jmp	.L41
.L64:
	nop
	call	pop
	jmp	.L34
.L40:
	call	empty
	movl	%eax, -188(%rbp)
	cmpl	$0, -188(%rbp)
	jne	.L66
	movl	-200(%rbp), %eax
	movslq	%eax, %rdx
	movq	-216(%rbp), %rax
	addq	%rdx, %rax
	movzbl	(%rax), %eax
	movsbl	%al, %eax
	movl	%eax, %edi
	call	priorytety
	movl	%eax, -184(%rbp)
	call	showTop
	movl	%eax, -180(%rbp)
	movl	-180(%rbp), %eax
	movsbl	%al, %eax
	movl	%eax, %edi
	call	priorytety
	movl	%eax, -176(%rbp)
	movl	-184(%rbp), %eax
	cmpl	-176(%rbp), %eax
	jg	.L67
	call	showTop
	movl	%eax, -172(%rbp)
	movl	-172(%rbp), %eax
	movb	%al, -116(%rbp)
	movb	$0, -115(%rbp)
	leaq	-116(%rbp), %rdx
	leaq	-112(%rbp), %rax
	movq	%rdx, %rsi
	movq	%rax, %rdi
	call	strcat@PLT
	call	pop
	jmp	.L40
.L66:
	nop
	jmp	.L49
.L67:
	nop
.L49:
	movsbl	-205(%rbp), %eax
	movl	%eax, %edi
	call	push
.L34:
	addl	$1, -200(%rbp)
	jmp	.L51
.L31:
	call	empty
	movl	%eax, -160(%rbp)
	cmpl	$0, -160(%rbp)
	jne	.L68
	call	showTop
	movl	%eax, -156(%rbp)
	movl	-156(%rbp), %eax
	movb	%al, -114(%rbp)
	movb	$0, -113(%rbp)
	leaq	-114(%rbp), %rdx
	leaq	-112(%rbp), %rax
	movq	%rdx, %rsi
	movq	%rax, %rdi
	call	strcat@PLT
	call	pop
	jmp	.L31
.L68:
	nop
	leaq	-112(%rbp), %rax
	movq	%rax, %rdi
	call	puts@PLT
	jmp	.L27
.L65:
	nop
.L27:
	movq	-8(%rbp), %rax
	subq	%fs:40, %rax
	je	.L55
	call	__stack_chk_fail@PLT
.L55:
	leave
	.cfi_def_cfa 7, 8
	ret
	.cfi_endproc
.LFE10:
	.size	ONP, .-ONP
	.section	.rodata
.LC4:
	.string	"%d "
	.text
	.globl	display
	.type	display, @function
display:
.LFB11:
	.cfi_startproc
	endbr64
	pushq	%rbp
	.cfi_def_cfa_offset 16
	.cfi_offset 6, -16
	movq	%rsp, %rbp
	.cfi_def_cfa_register 6
	subq	$48, %rsp
#APP
# 143 "mblaszczykowski_algorithms-data-structures-c_5.c" 1
	##_ANNOTATION_INITIALREGION_-TIG-iO-r5Jm-1-display--16
# 0 "" 2
# 147 "mblaszczykowski_algorithms-data-structures-c_5.c" 1
	##_ANNOTATION_ATOMICREGION_-TIG-iO-r5Jm-1-display--15
# 0 "" 2
#NO_APP
	movl	$24, %edi
	call	malloc@PLT
	movq	%rax, -24(%rbp)
	movq	-24(%rbp), %rax
	movq	-24(%rbp), %rdx
	movq	%rdx, 16(%rax)
	movq	-24(%rbp), %rax
	movq	-24(%rbp), %rdx
	movq	%rdx, 8(%rax)
	movq	-24(%rbp), %rax
	movq	%rax, _TIG_iO_r5Jm_1_display_1_opaque_list_1(%rip)
	call	rand@PLT
	movl	%eax, -40(%rbp)
	movl	$24, %edi
	call	malloc@PLT
	movq	%rax, -16(%rbp)
	movq	-16(%rbp), %rax
	movl	$0, (%rax)
	movq	_TIG_iO_r5Jm_1_display_1_opaque_list_1(%rip), %rax
	movq	16(%rax), %rdx
	movq	-16(%rbp), %rax
	movq	%rdx, 16(%rax)
	movq	_TIG_iO_r5Jm_1_display_1_opaque_list_1(%rip), %rdx
	movq	-16(%rbp), %rax
	movq	%rdx, 8(%rax)
	movq	_TIG_iO_r5Jm_1_display_1_opaque_list_1(%rip), %rax
	movq	16(%rax), %rax
	movq	-16(%rbp), %rdx
	movq	%rdx, 8(%rax)
	movq	_TIG_iO_r5Jm_1_display_1_opaque_list_1(%rip), %rax
	movq	-16(%rbp), %rdx
	movq	%rdx, 16(%rax)
	call	rand@PLT
	movl	%eax, -36(%rbp)
	movl	$24, %edi
	call	malloc@PLT
	movq	%rax, -8(%rbp)
	movq	-8(%rbp), %rax
	movl	-36(%rbp), %edx
	movl	%edx, (%rax)
	movq	_TIG_iO_r5Jm_1_display_1_opaque_list_1(%rip), %rax
	movq	16(%rax), %rdx
	movq	-8(%rbp), %rax
	movq	%rdx, 16(%rax)
	movq	_TIG_iO_r5Jm_1_display_1_opaque_list_1(%rip), %rdx
	movq	-8(%rbp), %rax
	movq	%rdx, 8(%rax)
	movq	_TIG_iO_r5Jm_1_display_1_opaque_list_1(%rip), %rax
	movq	16(%rax), %rax
	movq	-8(%rbp), %rdx
	movq	%rdx, 8(%rax)
	movq	_TIG_iO_r5Jm_1_display_1_opaque_list_1(%rip), %rax
	movq	-8(%rbp), %rdx
	movq	%rdx, 16(%rax)
	movq	_TIG_iO_r5Jm_1_display_1_opaque_list_1(%rip), %rax
	movq	16(%rax), %rax
	movq	%rax, _TIG_iO_r5Jm_1_display_1_opaque_ptr_1(%rip)
	movq	_TIG_iO_r5Jm_1_display_1_opaque_ptr_1(%rip), %rax
	movq	%rax, _TIG_iO_r5Jm_1_display_1_opaque_ptr_2(%rip)
	nop
	nop
	movq	top(%rip), %rax
	testq	%rax, %rax
	jne	.L70
	leaq	.LC3(%rip), %rax
	movq	%rax, %rdi
	call	puts@PLT
	jmp	.L71
.L70:
	movq	top(%rip), %rax
	movq	%rax, -32(%rbp)
	jmp	.L72
.L74:
	movq	_TIG_iO_r5Jm_1_showTop_1_opaque_ptr_1(%rip), %rdx
	movq	_TIG_iO_r5Jm_1_showTop_1_opaque_ptr_2(%rip), %rax
	cmpq	%rax, %rdx
	je	.L73
#APP
# 47 "mblaszczykowski_algorithms-data-structures-c_5.c" 1
	.byte 0xb2,0x34,0x83,0x42,0x84,0x5d
# 0 "" 2
#NO_APP
	jmp	.L72
.L73:
	movq	-32(%rbp), %rax
	movl	(%rax), %eax
	movl	%eax, %esi
	leaq	.LC4(%rip), %rax
	movq	%rax, %rdi
	movl	$0, %eax
	call	printf@PLT
	movq	-32(%rbp), %rax
	movq	8(%rax), %rax
	movq	%rax, -32(%rbp)
.L72:
	cmpq	$0, -32(%rbp)
	jne	.L74
.L71:
	movl	$10, %edi
	call	putchar@PLT
	nop
	leave
	.cfi_def_cfa 7, 8
	ret
	.cfi_endproc
.LFE11:
	.size	display, .-display
	.globl	priorytety
	.type	priorytety, @function
priorytety:
.LFB12:
	.cfi_startproc
	endbr64
	pushq	%rbp
	.cfi_def_cfa_offset 16
	.cfi_offset 6, -16
	movq	%rsp, %rbp
	.cfi_def_cfa_register 6
	subq	$64, %rsp
	movl	%edi, %eax
	movb	%al, -52(%rbp)
#APP
# 69 "mblaszczykowski_algorithms-data-structures-c_5.c" 1
	##_ANNOTATION_INITIALREGION_-TIG-iO-r5Jm-1-priorytety--24
# 0 "" 2
# 73 "mblaszczykowski_algorithms-data-structures-c_5.c" 1
	##_ANNOTATION_ATOMICREGION_-TIG-iO-r5Jm-1-priorytety--23
# 0 "" 2
#NO_APP
	movl	$24, %edi
	call	malloc@PLT
	movq	%rax, -32(%rbp)
	movq	-32(%rbp), %rax
	movq	-32(%rbp), %rdx
	movq	%rdx, (%rax)
	movq	-32(%rbp), %rax
	movq	-32(%rbp), %rdx
	movq	%rdx, 8(%rax)
	movq	-32(%rbp), %rax
	movq	%rax, _TIG_iO_r5Jm_1_priorytety_1_opaque_list_1(%rip)
	call	rand@PLT
	movl	%eax, -44(%rbp)
	movl	$24, %edi
	call	malloc@PLT
	movq	%rax, -24(%rbp)
	movq	-24(%rbp), %rax
	movl	$0, 16(%rax)
	movq	_TIG_iO_r5Jm_1_priorytety_1_opaque_list_1(%rip), %rax
	movq	(%rax), %rdx
	movq	-24(%rbp), %rax
	movq	%rdx, (%rax)
	movq	_TIG_iO_r5Jm_1_priorytety_1_opaque_list_1(%rip), %rdx
	movq	-24(%rbp), %rax
	movq	%rdx, 8(%rax)
	movq	_TIG_iO_r5Jm_1_priorytety_1_opaque_list_1(%rip), %rax
	movq	(%rax), %rax
	movq	-24(%rbp), %rdx
	movq	%rdx, 8(%rax)
	movq	_TIG_iO_r5Jm_1_priorytety_1_opaque_list_1(%rip), %rax
	movq	-24(%rbp), %rdx
	movq	%rdx, (%rax)
	call	rand@PLT
	movl	%eax, -40(%rbp)
	movl	$24, %edi
	call	malloc@PLT
	movq	%rax, -16(%rbp)
	movq	-16(%rbp), %rax
	movl	-40(%rbp), %edx
	movl	%edx, 16(%rax)
	movq	_TIG_iO_r5Jm_1_priorytety_1_opaque_list_1(%rip), %rax
	movq	(%rax), %rdx
	movq	-16(%rbp), %rax
	movq	%rdx, (%rax)
	movq	_TIG_iO_r5Jm_1_priorytety_1_opaque_list_1(%rip), %rdx
	movq	-16(%rbp), %rax
	movq	%rdx, 8(%rax)
	movq	_TIG_iO_r5Jm_1_priorytety_1_opaque_list_1(%rip), %rax
	movq	(%rax), %rax
	movq	-16(%rbp), %rdx
	movq	%rdx, 8(%rax)
	movq	_TIG_iO_r5Jm_1_priorytety_1_opaque_list_1(%rip), %rax
	movq	-16(%rbp), %rdx
	movq	%rdx, (%rax)
	call	rand@PLT
	movl	%eax, -36(%rbp)
	movl	$24, %edi
	call	malloc@PLT
	movq	%rax, -8(%rbp)
	movl	-36(%rbp), %eax
	leal	(%rax,%rax), %edx
	movq	-8(%rbp), %rax
	movl	%edx, 16(%rax)
	movq	_TIG_iO_r5Jm_1_priorytety_1_opaque_list_1(%rip), %rax
	movq	(%rax), %rdx
	movq	-8(%rbp), %rax
	movq	%rdx, (%rax)
	movq	_TIG_iO_r5Jm_1_priorytety_1_opaque_list_1(%rip), %rdx
	movq	-8(%rbp), %rax
	movq	%rdx, 8(%rax)
	movq	_TIG_iO_r5Jm_1_priorytety_1_opaque_list_1(%rip), %rax
	movq	(%rax), %rax
	movq	-8(%rbp), %rdx
	movq	%rdx, 8(%rax)
	movq	_TIG_iO_r5Jm_1_priorytety_1_opaque_list_1(%rip), %rax
	movq	-8(%rbp), %rdx
	movq	%rdx, (%rax)
	movq	_TIG_iO_r5Jm_1_priorytety_1_opaque_list_1(%rip), %rax
	movq	(%rax), %rax
	movq	%rax, _TIG_iO_r5Jm_1_priorytety_1_opaque_ptr_1(%rip)
	movq	_TIG_iO_r5Jm_1_priorytety_1_opaque_ptr_1(%rip), %rax
	movq	%rax, _TIG_iO_r5Jm_1_priorytety_1_opaque_ptr_2(%rip)
	movq	_TIG_iO_r5Jm_1_priorytety_1_opaque_ptr_2(%rip), %rax
	movq	(%rax), %rax
	movq	%rax, _TIG_iO_r5Jm_1_priorytety_1_opaque_ptr_2(%rip)
	nop
	nop
	cmpb	$94, -52(%rbp)
	jne	.L77
	movl	$3, %eax
	jmp	.L78
.L77:
	cmpb	$47, -52(%rbp)
	jne	.L79
	movl	$2, %eax
	jmp	.L78
.L79:
	cmpb	$42, -52(%rbp)
	jne	.L80
	movl	$2, %eax
	jmp	.L78
.L80:
	cmpb	$43, -52(%rbp)
	jne	.L81
	movl	$1, %eax
	jmp	.L78
.L81:
	movq	_TIG_iO_r5Jm_1_showTop_1_opaque_ptr_1(%rip), %rdx
	movq	_TIG_iO_r5Jm_1_showTop_1_opaque_ptr_2(%rip), %rax
	cmpq	%rax, %rdx
	je	.L82
	call	pop
.L82:
	cmpb	$45, -52(%rbp)
	jne	.L83
	movl	$1, %eax
	jmp	.L78
.L83:
	movl	$-1, %eax
.L78:
	leave
	.cfi_def_cfa 7, 8
	ret
	.cfi_endproc
.LFE12:
	.size	priorytety, .-priorytety
	.ident	"GCC: (Ubuntu 11.4.0-1ubuntu1~22.04) 11.4.0"
	.section	.note.GNU-stack,"",@progbits
	.section	.note.gnu.property,"a"
	.align 8
	.long	1f - 0f
	.long	4f - 1f
	.long	5
0:
	.string	"GNU"
1:
	.align 8
	.long	0xc0000002
	.long	3f - 2f
2:
	.long	0x3
3:
	.align 8
4:
