	.file	"nim3xh_chat---Network-Chat-Client-C-Programming_client_opaque.c"
	.text
	.globl	_TIG_iO_Trw6_1_setNonBlocking_1_opaque_ptr_1
	.bss
	.align 8
	.type	_TIG_iO_Trw6_1_setNonBlocking_1_opaque_ptr_1, @object
	.size	_TIG_iO_Trw6_1_setNonBlocking_1_opaque_ptr_1, 8
_TIG_iO_Trw6_1_setNonBlocking_1_opaque_ptr_1:
	.zero	8
	.globl	_TIG_iO_Trw6_1_sendNameChange_1_opaque_list_1
	.align 8
	.type	_TIG_iO_Trw6_1_sendNameChange_1_opaque_list_1, @object
	.size	_TIG_iO_Trw6_1_sendNameChange_1_opaque_list_1, 8
_TIG_iO_Trw6_1_sendNameChange_1_opaque_list_1:
	.zero	8
	.globl	_TIG_IZ_Trw6_envp
	.align 8
	.type	_TIG_IZ_Trw6_envp, @object
	.size	_TIG_IZ_Trw6_envp, 8
_TIG_IZ_Trw6_envp:
	.zero	8
	.globl	_TIG_iO_Trw6_1___bswap_32_1_opaque_list_1
	.align 8
	.type	_TIG_iO_Trw6_1___bswap_32_1_opaque_list_1, @object
	.size	_TIG_iO_Trw6_1___bswap_32_1_opaque_list_1, 8
_TIG_iO_Trw6_1___bswap_32_1_opaque_list_1:
	.zero	8
	.globl	_TIG_iO_Trw6_1___uint64_identity_1_opaque_ptr_2
	.align 8
	.type	_TIG_iO_Trw6_1___uint64_identity_1_opaque_ptr_2, @object
	.size	_TIG_iO_Trw6_1___uint64_identity_1_opaque_ptr_2, 8
_TIG_iO_Trw6_1___uint64_identity_1_opaque_ptr_2:
	.zero	8
	.globl	_TIG_IZ_Trw6_argc
	.align 4
	.type	_TIG_IZ_Trw6_argc, @object
	.size	_TIG_IZ_Trw6_argc, 4
_TIG_IZ_Trw6_argc:
	.zero	4
	.globl	_TIG_iO_Trw6_1___uint64_identity_1_opaque_ptr_1
	.align 8
	.type	_TIG_iO_Trw6_1___uint64_identity_1_opaque_ptr_1, @object
	.size	_TIG_iO_Trw6_1___uint64_identity_1_opaque_ptr_1, 8
_TIG_iO_Trw6_1___uint64_identity_1_opaque_ptr_1:
	.zero	8
	.globl	_TIG_IZ_Trw6_argv
	.align 8
	.type	_TIG_IZ_Trw6_argv, @object
	.size	_TIG_IZ_Trw6_argv, 8
_TIG_IZ_Trw6_argv:
	.zero	8
	.globl	_TIG_iO_Trw6_1_sendNameChange_1_opaque_ptr_1
	.align 8
	.type	_TIG_iO_Trw6_1_sendNameChange_1_opaque_ptr_1, @object
	.size	_TIG_iO_Trw6_1_sendNameChange_1_opaque_ptr_1, 8
_TIG_iO_Trw6_1_sendNameChange_1_opaque_ptr_1:
	.zero	8
	.globl	_TIG_iO_Trw6_1___bswap_32_1_opaque_ptr_1
	.align 8
	.type	_TIG_iO_Trw6_1___bswap_32_1_opaque_ptr_1, @object
	.size	_TIG_iO_Trw6_1___bswap_32_1_opaque_ptr_1, 8
_TIG_iO_Trw6_1___bswap_32_1_opaque_ptr_1:
	.zero	8
	.globl	_TIG_iO_Trw6_1_main_1_opaque_ptr_1
	.align 8
	.type	_TIG_iO_Trw6_1_main_1_opaque_ptr_1, @object
	.size	_TIG_iO_Trw6_1_main_1_opaque_ptr_1, 8
_TIG_iO_Trw6_1_main_1_opaque_ptr_1:
	.zero	8
	.globl	_TIG_iO_Trw6_1_setNonBlocking_1_opaque_list_2
	.align 8
	.type	_TIG_iO_Trw6_1_setNonBlocking_1_opaque_list_2, @object
	.size	_TIG_iO_Trw6_1_setNonBlocking_1_opaque_list_2, 8
_TIG_iO_Trw6_1_setNonBlocking_1_opaque_list_2:
	.zero	8
	.globl	_TIG_iO_Trw6_1___bswap_16_1_opaque_list_2
	.align 8
	.type	_TIG_iO_Trw6_1___bswap_16_1_opaque_list_2, @object
	.size	_TIG_iO_Trw6_1___bswap_16_1_opaque_list_2, 8
_TIG_iO_Trw6_1___bswap_16_1_opaque_list_2:
	.zero	8
	.globl	_TIG_iO_Trw6_1___bswap_64_1_opaque_ptr_2
	.align 8
	.type	_TIG_iO_Trw6_1___bswap_64_1_opaque_ptr_2, @object
	.size	_TIG_iO_Trw6_1___bswap_64_1_opaque_ptr_2, 8
_TIG_iO_Trw6_1___bswap_64_1_opaque_ptr_2:
	.zero	8
	.globl	_TIG_iO_Trw6_1_setNonBlocking_1_opaque_list_1
	.align 8
	.type	_TIG_iO_Trw6_1_setNonBlocking_1_opaque_list_1, @object
	.size	_TIG_iO_Trw6_1_setNonBlocking_1_opaque_list_1, 8
_TIG_iO_Trw6_1_setNonBlocking_1_opaque_list_1:
	.zero	8
	.globl	_TIG_iO_Trw6_1___bswap_64_1_opaque_list_2
	.align 8
	.type	_TIG_iO_Trw6_1___bswap_64_1_opaque_list_2, @object
	.size	_TIG_iO_Trw6_1___bswap_64_1_opaque_list_2, 8
_TIG_iO_Trw6_1___bswap_64_1_opaque_list_2:
	.zero	8
	.globl	_TIG_iO_Trw6_1___uint16_identity_1_opaque_ptr_2
	.align 8
	.type	_TIG_iO_Trw6_1___uint16_identity_1_opaque_ptr_2, @object
	.size	_TIG_iO_Trw6_1___uint16_identity_1_opaque_ptr_2, 8
_TIG_iO_Trw6_1___uint16_identity_1_opaque_ptr_2:
	.zero	8
	.globl	_TIG_iO_Trw6_1_sendNameChange_1_opaque_ptr_2
	.align 8
	.type	_TIG_iO_Trw6_1_sendNameChange_1_opaque_ptr_2, @object
	.size	_TIG_iO_Trw6_1_sendNameChange_1_opaque_ptr_2, 8
_TIG_iO_Trw6_1_sendNameChange_1_opaque_ptr_2:
	.zero	8
	.globl	_TIG_iO_Trw6_1_sendQuitMessage_1_opaque_ptr_2
	.align 8
	.type	_TIG_iO_Trw6_1_sendQuitMessage_1_opaque_ptr_2, @object
	.size	_TIG_iO_Trw6_1_sendQuitMessage_1_opaque_ptr_2, 8
_TIG_iO_Trw6_1_sendQuitMessage_1_opaque_ptr_2:
	.zero	8
	.globl	_TIG_iO_Trw6_1_main_1_opaque_list_1
	.align 8
	.type	_TIG_iO_Trw6_1_main_1_opaque_list_1, @object
	.size	_TIG_iO_Trw6_1_main_1_opaque_list_1, 8
_TIG_iO_Trw6_1_main_1_opaque_list_1:
	.zero	8
	.globl	_TIG_iO_Trw6_1___bswap_64_1_opaque_list_1
	.align 8
	.type	_TIG_iO_Trw6_1___bswap_64_1_opaque_list_1, @object
	.size	_TIG_iO_Trw6_1___bswap_64_1_opaque_list_1, 8
_TIG_iO_Trw6_1___bswap_64_1_opaque_list_1:
	.zero	8
	.globl	_TIG_iO_Trw6_1___bswap_32_1_opaque_ptr_2
	.align 8
	.type	_TIG_iO_Trw6_1___bswap_32_1_opaque_ptr_2, @object
	.size	_TIG_iO_Trw6_1___bswap_32_1_opaque_ptr_2, 8
_TIG_iO_Trw6_1___bswap_32_1_opaque_ptr_2:
	.zero	8
	.globl	_TIG_iO_Trw6_1_sendQuitMessage_1_opaque_list_2
	.align 8
	.type	_TIG_iO_Trw6_1_sendQuitMessage_1_opaque_list_2, @object
	.size	_TIG_iO_Trw6_1_sendQuitMessage_1_opaque_list_2, 8
_TIG_iO_Trw6_1_sendQuitMessage_1_opaque_list_2:
	.zero	8
	.globl	_TIG_iO_Trw6_1___uint16_identity_1_opaque_ptr_1
	.align 8
	.type	_TIG_iO_Trw6_1___uint16_identity_1_opaque_ptr_1, @object
	.size	_TIG_iO_Trw6_1___uint16_identity_1_opaque_ptr_1, 8
_TIG_iO_Trw6_1___uint16_identity_1_opaque_ptr_1:
	.zero	8
	.globl	_TIG_iO_Trw6_1___uint16_identity_1_opaque_list_1
	.align 8
	.type	_TIG_iO_Trw6_1___uint16_identity_1_opaque_list_1, @object
	.size	_TIG_iO_Trw6_1___uint16_identity_1_opaque_list_1, 8
_TIG_iO_Trw6_1___uint16_identity_1_opaque_list_1:
	.zero	8
	.globl	_TIG_iO_Trw6_1_sendNameChange_1_opaque_list_2
	.align 8
	.type	_TIG_iO_Trw6_1_sendNameChange_1_opaque_list_2, @object
	.size	_TIG_iO_Trw6_1_sendNameChange_1_opaque_list_2, 8
_TIG_iO_Trw6_1_sendNameChange_1_opaque_list_2:
	.zero	8
	.globl	_TIG_iO_Trw6_1___bswap_32_1_opaque_list_2
	.align 8
	.type	_TIG_iO_Trw6_1___bswap_32_1_opaque_list_2, @object
	.size	_TIG_iO_Trw6_1___bswap_32_1_opaque_list_2, 8
_TIG_iO_Trw6_1___bswap_32_1_opaque_list_2:
	.zero	8
	.globl	_TIG_iO_Trw6_1_sendQuitMessage_1_opaque_ptr_1
	.align 8
	.type	_TIG_iO_Trw6_1_sendQuitMessage_1_opaque_ptr_1, @object
	.size	_TIG_iO_Trw6_1_sendQuitMessage_1_opaque_ptr_1, 8
_TIG_iO_Trw6_1_sendQuitMessage_1_opaque_ptr_1:
	.zero	8
	.globl	_TIG_iO_Trw6_1___uint16_identity_1_opaque_list_2
	.align 8
	.type	_TIG_iO_Trw6_1___uint16_identity_1_opaque_list_2, @object
	.size	_TIG_iO_Trw6_1___uint16_identity_1_opaque_list_2, 8
_TIG_iO_Trw6_1___uint16_identity_1_opaque_list_2:
	.zero	8
	.globl	_TIG_iO_Trw6_1___bswap_16_1_opaque_ptr_1
	.align 8
	.type	_TIG_iO_Trw6_1___bswap_16_1_opaque_ptr_1, @object
	.size	_TIG_iO_Trw6_1___bswap_16_1_opaque_ptr_1, 8
_TIG_iO_Trw6_1___bswap_16_1_opaque_ptr_1:
	.zero	8
	.globl	_TIG_iO_Trw6_1_main_1_opaque_list_2
	.align 8
	.type	_TIG_iO_Trw6_1_main_1_opaque_list_2, @object
	.size	_TIG_iO_Trw6_1_main_1_opaque_list_2, 8
_TIG_iO_Trw6_1_main_1_opaque_list_2:
	.zero	8
	.globl	_TIG_iO_Trw6_1___uint32_identity_1_opaque_ptr_2
	.align 8
	.type	_TIG_iO_Trw6_1___uint32_identity_1_opaque_ptr_2, @object
	.size	_TIG_iO_Trw6_1___uint32_identity_1_opaque_ptr_2, 8
_TIG_iO_Trw6_1___uint32_identity_1_opaque_ptr_2:
	.zero	8
	.globl	_TIG_iO_Trw6_1___uint32_identity_1_opaque_list_2
	.align 8
	.type	_TIG_iO_Trw6_1___uint32_identity_1_opaque_list_2, @object
	.size	_TIG_iO_Trw6_1___uint32_identity_1_opaque_list_2, 8
_TIG_iO_Trw6_1___uint32_identity_1_opaque_list_2:
	.zero	8
	.globl	_TIG_iO_Trw6_1___bswap_64_1_opaque_ptr_1
	.align 8
	.type	_TIG_iO_Trw6_1___bswap_64_1_opaque_ptr_1, @object
	.size	_TIG_iO_Trw6_1___bswap_64_1_opaque_ptr_1, 8
_TIG_iO_Trw6_1___bswap_64_1_opaque_ptr_1:
	.zero	8
	.globl	_TIG_iO_Trw6_1___uint32_identity_1_opaque_list_1
	.align 8
	.type	_TIG_iO_Trw6_1___uint32_identity_1_opaque_list_1, @object
	.size	_TIG_iO_Trw6_1___uint32_identity_1_opaque_list_1, 8
_TIG_iO_Trw6_1___uint32_identity_1_opaque_list_1:
	.zero	8
	.globl	_TIG_iO_Trw6_1___bswap_16_1_opaque_list_1
	.align 8
	.type	_TIG_iO_Trw6_1___bswap_16_1_opaque_list_1, @object
	.size	_TIG_iO_Trw6_1___bswap_16_1_opaque_list_1, 8
_TIG_iO_Trw6_1___bswap_16_1_opaque_list_1:
	.zero	8
	.globl	_TIG_iO_Trw6_1_sendQuitMessage_1_opaque_list_1
	.align 8
	.type	_TIG_iO_Trw6_1_sendQuitMessage_1_opaque_list_1, @object
	.size	_TIG_iO_Trw6_1_sendQuitMessage_1_opaque_list_1, 8
_TIG_iO_Trw6_1_sendQuitMessage_1_opaque_list_1:
	.zero	8
	.globl	_TIG_iO_Trw6_1___bswap_16_1_opaque_ptr_2
	.align 8
	.type	_TIG_iO_Trw6_1___bswap_16_1_opaque_ptr_2, @object
	.size	_TIG_iO_Trw6_1___bswap_16_1_opaque_ptr_2, 8
_TIG_iO_Trw6_1___bswap_16_1_opaque_ptr_2:
	.zero	8
	.globl	_TIG_iO_Trw6_1_main_1_opaque_ptr_2
	.align 8
	.type	_TIG_iO_Trw6_1_main_1_opaque_ptr_2, @object
	.size	_TIG_iO_Trw6_1_main_1_opaque_ptr_2, 8
_TIG_iO_Trw6_1_main_1_opaque_ptr_2:
	.zero	8
	.globl	_TIG_iO_Trw6_1___uint32_identity_1_opaque_ptr_1
	.align 8
	.type	_TIG_iO_Trw6_1___uint32_identity_1_opaque_ptr_1, @object
	.size	_TIG_iO_Trw6_1___uint32_identity_1_opaque_ptr_1, 8
_TIG_iO_Trw6_1___uint32_identity_1_opaque_ptr_1:
	.zero	8
	.globl	_TIG_iO_Trw6_1___uint64_identity_1_opaque_list_2
	.align 8
	.type	_TIG_iO_Trw6_1___uint64_identity_1_opaque_list_2, @object
	.size	_TIG_iO_Trw6_1___uint64_identity_1_opaque_list_2, 8
_TIG_iO_Trw6_1___uint64_identity_1_opaque_list_2:
	.zero	8
	.globl	_TIG_iO_Trw6_1_setNonBlocking_1_opaque_ptr_2
	.align 8
	.type	_TIG_iO_Trw6_1_setNonBlocking_1_opaque_ptr_2, @object
	.size	_TIG_iO_Trw6_1_setNonBlocking_1_opaque_ptr_2, 8
_TIG_iO_Trw6_1_setNonBlocking_1_opaque_ptr_2:
	.zero	8
	.globl	_TIG_iO_Trw6_1___uint64_identity_1_opaque_list_1
	.align 8
	.type	_TIG_iO_Trw6_1___uint64_identity_1_opaque_list_1, @object
	.size	_TIG_iO_Trw6_1___uint64_identity_1_opaque_list_1, 8
_TIG_iO_Trw6_1___uint64_identity_1_opaque_list_1:
	.zero	8
	.section	.rodata
.LC0:
	.string	"quit %s"
	.text
	.globl	sendQuitMessage
	.type	sendQuitMessage, @function
sendQuitMessage:
.LFB3:
	.cfi_startproc
	endbr64
	pushq	%rbp
	.cfi_def_cfa_offset 16
	.cfi_offset 6, -16
	movq	%rsp, %rbp
	.cfi_def_cfa_register 6
	subq	$1104, %rsp
	movl	%edi, -1092(%rbp)
	movq	%rsi, -1104(%rbp)
	movq	%fs:40, %rax
	movq	%rax, -8(%rbp)
	xorl	%eax, %eax
#APP
# 71 "/usr/include/x86_64-linux-gnu/bits/byteswap.h" 1
	##_ANNOTATION_INITIALREGION_-TIG-iO-Trw6-1-sendQuitMessage--18
# 0 "" 2
# 75 "/usr/include/x86_64-linux-gnu/bits/byteswap.h" 1
	##_ANNOTATION_ATOMICREGION_-TIG-iO-Trw6-1-sendQuitMessage--17
# 0 "" 2
#NO_APP
	movl	$24, %edi
	call	malloc@PLT
	movq	%rax, -1072(%rbp)
	movq	-1072(%rbp), %rax
	movq	-1072(%rbp), %rdx
	movq	%rdx, 8(%rax)
	movq	-1072(%rbp), %rax
	movq	-1072(%rbp), %rdx
	movq	%rdx, (%rax)
	movq	-1072(%rbp), %rax
	movq	%rax, _TIG_iO_Trw6_1_sendQuitMessage_1_opaque_list_1(%rip)
	call	rand@PLT
	movl	%eax, -1080(%rbp)
	movl	$24, %edi
	call	malloc@PLT
	movq	%rax, -1064(%rbp)
	movq	-1064(%rbp), %rax
	movl	$0, 16(%rax)
	movq	_TIG_iO_Trw6_1_sendQuitMessage_1_opaque_list_1(%rip), %rax
	movq	8(%rax), %rdx
	movq	-1064(%rbp), %rax
	movq	%rdx, 8(%rax)
	movq	_TIG_iO_Trw6_1_sendQuitMessage_1_opaque_list_1(%rip), %rdx
	movq	-1064(%rbp), %rax
	movq	%rdx, (%rax)
	movq	_TIG_iO_Trw6_1_sendQuitMessage_1_opaque_list_1(%rip), %rax
	movq	8(%rax), %rax
	movq	-1064(%rbp), %rdx
	movq	%rdx, (%rax)
	movq	_TIG_iO_Trw6_1_sendQuitMessage_1_opaque_list_1(%rip), %rax
	movq	-1064(%rbp), %rdx
	movq	%rdx, 8(%rax)
	call	rand@PLT
	movl	%eax, -1076(%rbp)
	movl	$24, %edi
	call	malloc@PLT
	movq	%rax, -1056(%rbp)
	movq	-1056(%rbp), %rax
	movl	-1076(%rbp), %edx
	movl	%edx, 16(%rax)
	movq	_TIG_iO_Trw6_1_sendQuitMessage_1_opaque_list_1(%rip), %rax
	movq	8(%rax), %rdx
	movq	-1056(%rbp), %rax
	movq	%rdx, 8(%rax)
	movq	_TIG_iO_Trw6_1_sendQuitMessage_1_opaque_list_1(%rip), %rdx
	movq	-1056(%rbp), %rax
	movq	%rdx, (%rax)
	movq	_TIG_iO_Trw6_1_sendQuitMessage_1_opaque_list_1(%rip), %rax
	movq	8(%rax), %rax
	movq	-1056(%rbp), %rdx
	movq	%rdx, (%rax)
	movq	_TIG_iO_Trw6_1_sendQuitMessage_1_opaque_list_1(%rip), %rax
	movq	-1056(%rbp), %rdx
	movq	%rdx, 8(%rax)
	movq	_TIG_iO_Trw6_1_sendQuitMessage_1_opaque_list_1(%rip), %rax
	movq	8(%rax), %rax
	movq	%rax, _TIG_iO_Trw6_1_sendQuitMessage_1_opaque_ptr_1(%rip)
	movq	_TIG_iO_Trw6_1_sendQuitMessage_1_opaque_ptr_1(%rip), %rax
	movq	%rax, _TIG_iO_Trw6_1_sendQuitMessage_1_opaque_ptr_2(%rip)
	movq	_TIG_iO_Trw6_1_sendQuitMessage_1_opaque_ptr_2(%rip), %rax
	movq	8(%rax), %rax
	movq	%rax, _TIG_iO_Trw6_1_sendQuitMessage_1_opaque_ptr_2(%rip)
	nop
	nop
	movq	_TIG_iO_Trw6_1_setNonBlocking_1_opaque_ptr_1(%rip), %rdx
	movq	_TIG_iO_Trw6_1_setNonBlocking_1_opaque_ptr_2(%rip), %rax
	cmpq	%rax, %rdx
	jne	.L2
	movq	-1104(%rbp), %rdx
	leaq	-1040(%rbp), %rax
	movq	%rdx, %rcx
	leaq	.LC0(%rip), %rdx
	movl	$1024, %esi
	movq	%rax, %rdi
	movl	$0, %eax
	call	snprintf@PLT
	leaq	-1040(%rbp), %rax
	movq	%rax, %rdi
	call	strlen@PLT
	movq	%rax, -1048(%rbp)
	movq	-1048(%rbp), %rdx
	leaq	-1040(%rbp), %rsi
	movl	-1092(%rbp), %eax
	movl	$0, %ecx
	movl	%eax, %edi
	call	send@PLT
	jmp	.L1
.L2:
	movq	-1104(%rbp), %rax
	leaq	-1(%rax), %rcx
	leaq	1+.LC0(%rip), %rdx
	leaq	-1040(%rbp), %rax
	addq	$1, %rax
	movl	$16384, %esi
	movq	%rax, %rdi
	movl	$0, %eax
	call	snprintf@PLT
	leaq	-1040(%rbp), %rax
	subq	$1, %rax
	movq	%rax, %rdi
	call	strlen@PLT
	movq	%rax, -1048(%rbp)
	movq	-1048(%rbp), %rax
	andl	$4, %eax
	movq	%rax, %rdi
	leaq	-1040(%rbp), %rsi
	addq	$1, %rsi
	movl	-1092(%rbp), %eax
	cltd
	idivl	-1080(%rbp)
	movl	$7, %ecx
	movq	%rdi, %rdx
	movl	%eax, %edi
	call	send@PLT
	nop
.L1:
	movq	-8(%rbp), %rax
	subq	%fs:40, %rax
	je	.L5
	call	__stack_chk_fail@PLT
.L5:
	leave
	.cfi_def_cfa 7, 8
	ret
	.cfi_endproc
.LFE3:
	.size	sendQuitMessage, .-sendQuitMessage
	.globl	setNonBlocking
	.type	setNonBlocking, @function
setNonBlocking:
.LFB6:
	.cfi_startproc
	endbr64
	pushq	%rbp
	.cfi_def_cfa_offset 16
	.cfi_offset 6, -16
	movq	%rsp, %rbp
	.cfi_def_cfa_register 6
	subq	$64, %rsp
	movl	%edi, -52(%rbp)
#APP
# 60 "/usr/include/x86_64-linux-gnu/bits/uintn-identity.h" 1
	##_ANNOTATION_INITIALREGION_-TIG-iO-Trw6-1-setNonBlocking--20
# 0 "" 2
# 64 "/usr/include/x86_64-linux-gnu/bits/uintn-identity.h" 1
	##_ANNOTATION_ATOMICREGION_-TIG-iO-Trw6-1-setNonBlocking--19
# 0 "" 2
#NO_APP
	movl	$24, %edi
	call	malloc@PLT
	movq	%rax, -24(%rbp)
	movq	-24(%rbp), %rax
	movq	-24(%rbp), %rdx
	movq	%rdx, 8(%rax)
	movq	-24(%rbp), %rax
	movq	-24(%rbp), %rdx
	movq	%rdx, 16(%rax)
	movq	-24(%rbp), %rax
	movq	%rax, _TIG_iO_Trw6_1_setNonBlocking_1_opaque_list_1(%rip)
	call	rand@PLT
	movl	%eax, -40(%rbp)
	movl	$24, %edi
	call	malloc@PLT
	movq	%rax, -16(%rbp)
	movq	-16(%rbp), %rax
	movl	$0, (%rax)
	movq	_TIG_iO_Trw6_1_setNonBlocking_1_opaque_list_1(%rip), %rax
	movq	8(%rax), %rdx
	movq	-16(%rbp), %rax
	movq	%rdx, 8(%rax)
	movq	_TIG_iO_Trw6_1_setNonBlocking_1_opaque_list_1(%rip), %rdx
	movq	-16(%rbp), %rax
	movq	%rdx, 16(%rax)
	movq	_TIG_iO_Trw6_1_setNonBlocking_1_opaque_list_1(%rip), %rax
	movq	8(%rax), %rax
	movq	-16(%rbp), %rdx
	movq	%rdx, 16(%rax)
	movq	_TIG_iO_Trw6_1_setNonBlocking_1_opaque_list_1(%rip), %rax
	movq	-16(%rbp), %rdx
	movq	%rdx, 8(%rax)
	call	rand@PLT
	movl	%eax, -36(%rbp)
	movl	$24, %edi
	call	malloc@PLT
	movq	%rax, -8(%rbp)
	movq	-8(%rbp), %rax
	movl	-36(%rbp), %edx
	movl	%edx, (%rax)
	movq	_TIG_iO_Trw6_1_setNonBlocking_1_opaque_list_1(%rip), %rax
	movq	8(%rax), %rdx
	movq	-8(%rbp), %rax
	movq	%rdx, 8(%rax)
	movq	_TIG_iO_Trw6_1_setNonBlocking_1_opaque_list_1(%rip), %rdx
	movq	-8(%rbp), %rax
	movq	%rdx, 16(%rax)
	movq	_TIG_iO_Trw6_1_setNonBlocking_1_opaque_list_1(%rip), %rax
	movq	8(%rax), %rax
	movq	-8(%rbp), %rdx
	movq	%rdx, 16(%rax)
	movq	_TIG_iO_Trw6_1_setNonBlocking_1_opaque_list_1(%rip), %rax
	movq	-8(%rbp), %rdx
	movq	%rdx, 8(%rax)
	movq	_TIG_iO_Trw6_1_setNonBlocking_1_opaque_list_1(%rip), %rax
	movq	8(%rax), %rax
	movq	%rax, _TIG_iO_Trw6_1_setNonBlocking_1_opaque_ptr_1(%rip)
	movq	_TIG_iO_Trw6_1_setNonBlocking_1_opaque_ptr_1(%rip), %rax
	movq	%rax, _TIG_iO_Trw6_1_setNonBlocking_1_opaque_ptr_2(%rip)
	nop
	nop
	movq	_TIG_iO_Trw6_1_setNonBlocking_1_opaque_ptr_1(%rip), %rdx
	movq	_TIG_iO_Trw6_1_setNonBlocking_1_opaque_ptr_2(%rip), %rax
	cmpq	%rax, %rdx
	je	.L7
	movl	-52(%rbp), %eax
	cltd
	idivl	-40(%rbp)
	movl	%eax, %ecx
	movl	-36(%rbp), %eax
	movl	$2, %edx
	movl	%eax, %esi
	movl	%ecx, %edi
	movl	$0, %eax
	call	fcntl@PLT
	movl	%eax, -32(%rbp)
	movl	-32(%rbp), %eax
	xorl	-52(%rbp), %eax
	movl	%eax, -28(%rbp)
	movl	$3, %edx
	movl	$2048, %esi
	movl	$0, %edi
	movl	$0, %eax
	call	fcntl@PLT
	jmp	.L6
.L7:
	movl	-52(%rbp), %eax
	movl	$0, %edx
	movl	$3, %esi
	movl	%eax, %edi
	movl	$0, %eax
	call	fcntl@PLT
	movl	%eax, -32(%rbp)
	movl	-32(%rbp), %eax
	movl	%eax, -28(%rbp)
	movl	-28(%rbp), %eax
	orb	$8, %ah
	movl	%eax, %edx
	movl	-52(%rbp), %eax
	movl	$4, %esi
	movl	%eax, %edi
	movl	$0, %eax
	call	fcntl@PLT
	nop
.L6:
	leave
	.cfi_def_cfa 7, 8
	ret
	.cfi_endproc
.LFE6:
	.size	setNonBlocking, .-setNonBlocking
	.section	.rodata
	.align 8
.LC1:
	.string	"Usage: %s <ip_address> <port>\n"
.LC2:
	.string	"Socket creation failed"
.LC3:
	.string	"Connection failed"
.LC4:
	.string	"Connected to the server"
	.align 8
.LC5:
	.string	"Server disconnected unexpectedly. Exiting..."
.LC6:
	.string	"Receive error"
.LC7:
	.string	"\n"
.LC8:
	.string	"quit"
.LC9:
	.string	"Sent quit message. Exiting..."
.LC10:
	.string	"name"
.LC11:
	.string	" "
.LC12:
	.string	"%s"
	.align 8
.LC13:
	.string	"%s has changed their name to %s\n"
	.align 8
.LC14:
	.string	"Invalid name format. Usage: name <new_name>"
.LC15:
	.string	"%s: %s"
	.text
	.globl	main
	.type	main, @function
main:
.LFB7:
	.cfi_startproc
	endbr64
	pushq	%rbp
	.cfi_def_cfa_offset 16
	.cfi_offset 6, -16
	movq	%rsp, %rbp
	.cfi_def_cfa_register 6
	subq	$2448, %rsp
	movl	%edi, -2420(%rbp)
	movq	%rsi, -2432(%rbp)
	movq	%rdx, -2440(%rbp)
	movq	%fs:40, %rax
	movq	%rax, -8(%rbp)
	xorl	%eax, %eax
	movq	$0, _TIG_IZ_Trw6_envp(%rip)
	nop
.L11:
	movq	$0, _TIG_IZ_Trw6_argv(%rip)
	nop
.L12:
	movl	$0, _TIG_IZ_Trw6_argc(%rip)
	nop
	nop
.L13:
.L14:
#APP
# 84 "nim3xh_chat---Network-Chat-Client-C-Programming_client.c" 1
	##_ANNOTATION_INITIALREGION_-TIG-IZ-Trw6--0
# 0 "" 2
#NO_APP
	movl	-2420(%rbp), %eax
	movl	%eax, _TIG_IZ_Trw6_argc(%rip)
	movq	-2432(%rbp), %rax
	movq	%rax, _TIG_IZ_Trw6_argv(%rip)
	movq	-2440(%rbp), %rax
	movq	%rax, _TIG_IZ_Trw6_envp(%rip)
#APP
# 91 "nim3xh_chat---Network-Chat-Client-C-Programming_client.c" 1
	##_ANNOTATION_ATOMICREGION_-TIG-iO-Trw6-1-main--13
# 0 "" 2
#NO_APP
	movl	$24, %edi
	call	malloc@PLT
	movq	%rax, -2376(%rbp)
	movq	-2376(%rbp), %rax
	movq	-2376(%rbp), %rdx
	movq	%rdx, (%rax)
	movq	-2376(%rbp), %rax
	movq	-2376(%rbp), %rdx
	movq	%rdx, 8(%rax)
	movq	-2376(%rbp), %rax
	movq	%rax, _TIG_iO_Trw6_1_main_1_opaque_list_1(%rip)
	call	rand@PLT
	movl	%eax, -2412(%rbp)
	movl	$24, %edi
	call	malloc@PLT
	movq	%rax, -2368(%rbp)
	movq	-2368(%rbp), %rax
	movl	$0, 16(%rax)
	movq	_TIG_iO_Trw6_1_main_1_opaque_list_1(%rip), %rax
	movq	(%rax), %rdx
	movq	-2368(%rbp), %rax
	movq	%rdx, (%rax)
	movq	_TIG_iO_Trw6_1_main_1_opaque_list_1(%rip), %rdx
	movq	-2368(%rbp), %rax
	movq	%rdx, 8(%rax)
	movq	_TIG_iO_Trw6_1_main_1_opaque_list_1(%rip), %rax
	movq	(%rax), %rax
	movq	-2368(%rbp), %rdx
	movq	%rdx, 8(%rax)
	movq	_TIG_iO_Trw6_1_main_1_opaque_list_1(%rip), %rax
	movq	-2368(%rbp), %rdx
	movq	%rdx, (%rax)
	call	rand@PLT
	movl	%eax, -2408(%rbp)
	movl	$24, %edi
	call	malloc@PLT
	movq	%rax, -2360(%rbp)
	movq	-2360(%rbp), %rax
	movl	-2408(%rbp), %edx
	movl	%edx, 16(%rax)
	movq	_TIG_iO_Trw6_1_main_1_opaque_list_1(%rip), %rax
	movq	(%rax), %rdx
	movq	-2360(%rbp), %rax
	movq	%rdx, (%rax)
	movq	_TIG_iO_Trw6_1_main_1_opaque_list_1(%rip), %rdx
	movq	-2360(%rbp), %rax
	movq	%rdx, 8(%rax)
	movq	_TIG_iO_Trw6_1_main_1_opaque_list_1(%rip), %rax
	movq	(%rax), %rax
	movq	-2360(%rbp), %rdx
	movq	%rdx, 8(%rax)
	movq	_TIG_iO_Trw6_1_main_1_opaque_list_1(%rip), %rax
	movq	-2360(%rbp), %rdx
	movq	%rdx, (%rax)
	call	rand@PLT
	movl	%eax, -2404(%rbp)
	movl	$24, %edi
	call	malloc@PLT
	movq	%rax, -2352(%rbp)
	movl	-2404(%rbp), %eax
	leal	(%rax,%rax), %edx
	movq	-2352(%rbp), %rax
	movl	%edx, 16(%rax)
	movq	_TIG_iO_Trw6_1_main_1_opaque_list_1(%rip), %rax
	movq	(%rax), %rdx
	movq	-2352(%rbp), %rax
	movq	%rdx, (%rax)
	movq	_TIG_iO_Trw6_1_main_1_opaque_list_1(%rip), %rdx
	movq	-2352(%rbp), %rax
	movq	%rdx, 8(%rax)
	movq	_TIG_iO_Trw6_1_main_1_opaque_list_1(%rip), %rax
	movq	(%rax), %rax
	movq	-2352(%rbp), %rdx
	movq	%rdx, 8(%rax)
	movq	_TIG_iO_Trw6_1_main_1_opaque_list_1(%rip), %rax
	movq	-2352(%rbp), %rdx
	movq	%rdx, (%rax)
	call	rand@PLT
	movl	%eax, -2400(%rbp)
	movl	$24, %edi
	call	malloc@PLT
	movq	%rax, -2344(%rbp)
	movl	-2400(%rbp), %edx
	movl	%edx, %eax
	addl	%eax, %eax
	addl	%eax, %edx
	movq	-2344(%rbp), %rax
	movl	%edx, 16(%rax)
	movq	_TIG_iO_Trw6_1_main_1_opaque_list_1(%rip), %rax
	movq	(%rax), %rdx
	movq	-2344(%rbp), %rax
	movq	%rdx, (%rax)
	movq	_TIG_iO_Trw6_1_main_1_opaque_list_1(%rip), %rdx
	movq	-2344(%rbp), %rax
	movq	%rdx, 8(%rax)
	movq	_TIG_iO_Trw6_1_main_1_opaque_list_1(%rip), %rax
	movq	(%rax), %rax
	movq	-2344(%rbp), %rdx
	movq	%rdx, 8(%rax)
	movq	_TIG_iO_Trw6_1_main_1_opaque_list_1(%rip), %rax
	movq	-2344(%rbp), %rdx
	movq	%rdx, (%rax)
	movq	_TIG_iO_Trw6_1_main_1_opaque_list_1(%rip), %rax
	movq	(%rax), %rax
	movq	%rax, _TIG_iO_Trw6_1_main_1_opaque_ptr_1(%rip)
	movq	_TIG_iO_Trw6_1_main_1_opaque_ptr_1(%rip), %rax
	movq	%rax, _TIG_iO_Trw6_1_main_1_opaque_ptr_2(%rip)
	movq	_TIG_iO_Trw6_1_main_1_opaque_ptr_2(%rip), %rax
	movq	(%rax), %rax
	movq	%rax, _TIG_iO_Trw6_1_main_1_opaque_ptr_2(%rip)
	nop
	nop
	cmpl	$3, -2420(%rbp)
	je	.L15
	movq	-2432(%rbp), %rax
	movq	(%rax), %rdx
	movq	stderr(%rip), %rax
	leaq	.LC1(%rip), %rcx
	movq	%rcx, %rsi
	movq	%rax, %rdi
	movl	$0, %eax
	call	fprintf@PLT
	movl	$1, %edi
	call	exit@PLT
.L15:
	movb	$85, -2256(%rbp)
	movb	$115, -2255(%rbp)
	movb	$101, -2254(%rbp)
	movb	$114, -2253(%rbp)
	movb	$0, -2252(%rbp)
	movl	$5, -2416(%rbp)
	jmp	.L16
.L17:
	movl	-2416(%rbp), %eax
	movb	$0, -2256(%rbp,%rax)
	addl	$1, -2416(%rbp)
.L16:
	cmpl	$63, -2416(%rbp)
	jbe	.L17
	movl	$0, %edx
	movl	$1, %esi
	movl	$2, %edi
	call	socket@PLT
	movl	%eax, -2396(%rbp)
	cmpl	$-1, -2396(%rbp)
	jne	.L18
	leaq	.LC2(%rip), %rax
	movq	%rax, %rdi
	call	perror@PLT
	movl	$1, %edi
	call	exit@PLT
.L18:
	leaq	-2272(%rbp), %rax
	movl	$16, %edx
	movl	$0, %esi
	movq	%rax, %rdi
	call	memset@PLT
	movw	$2, -2272(%rbp)
	movq	-2432(%rbp), %rax
	addq	$8, %rax
	movq	(%rax), %rax
	movq	%rax, %rdi
	call	inet_addr@PLT
	movl	%eax, -2268(%rbp)
	movq	-2432(%rbp), %rax
	addq	$16, %rax
	movq	(%rax), %rax
	movq	%rax, %rdi
	call	atoi@PLT
	movl	%eax, -2392(%rbp)
	movl	-2392(%rbp), %eax
	movzwl	%ax, %eax
	movl	%eax, %edi
	call	htons@PLT
	movw	%ax, -2270(%rbp)
	leaq	-2272(%rbp), %rcx
	movl	-2396(%rbp), %eax
	movl	$16, %edx
	movq	%rcx, %rsi
	movl	%eax, %edi
	call	connect@PLT
	movl	%eax, -2388(%rbp)
	cmpl	$-1, -2388(%rbp)
	jne	.L19
	leaq	.LC3(%rip), %rax
	movq	%rax, %rdi
	call	perror@PLT
	movl	-2396(%rbp), %eax
	movl	%eax, %edi
	call	close@PLT
	movl	$1, %edi
	call	exit@PLT
.L19:
	leaq	.LC4(%rip), %rax
	movq	%rax, %rdi
	call	puts@PLT
	movl	$0, %edi
	call	setNonBlocking
	movl	-2396(%rbp), %eax
	movl	%eax, %edi
	call	setNonBlocking
.L29:
	leaq	-2128(%rbp), %rax
	movl	$1024, %edx
	movl	$0, %esi
	movq	%rax, %rdi
	call	memset@PLT
	leaq	-2128(%rbp), %rsi
	movl	-2396(%rbp), %eax
	movl	$0, %ecx
	movl	$1024, %edx
	movl	%eax, %edi
	call	recv@PLT
	movq	%rax, -2336(%rbp)
	movq	-2336(%rbp), %rax
	movq	%rax, -2328(%rbp)
	cmpq	$0, -2328(%rbp)
	jle	.L20
	leaq	-2128(%rbp), %rdx
	movq	-2328(%rbp), %rax
	addq	%rdx, %rax
	movb	$0, (%rax)
	leaq	-2128(%rbp), %rax
	movq	%rax, %rdi
	call	puts@PLT
	jmp	.L21
.L20:
	cmpq	$0, -2328(%rbp)
	jne	.L22
	leaq	.LC5(%rip), %rax
	movq	%rax, %rdi
	call	puts@PLT
	jmp	.L23
.L22:
	call	__errno_location@PLT
	movq	%rax, -2320(%rbp)
	movq	-2320(%rbp), %rax
	movl	(%rax), %eax
	cmpl	$11, %eax
	je	.L21
	leaq	.LC6(%rip), %rax
	movq	%rax, %rdi
	call	perror@PLT
	leaq	.LC5(%rip), %rax
	movq	%rax, %rdi
	call	puts@PLT
	jmp	.L23
.L21:
	leaq	-2128(%rbp), %rax
	movl	$1024, %edx
	movl	$0, %esi
	movq	%rax, %rdi
	call	memset@PLT
	leaq	-2128(%rbp), %rax
	movl	$1024, %edx
	movq	%rax, %rsi
	movl	$0, %edi
	call	read@PLT
	movq	%rax, -2312(%rbp)
	cmpq	$0, -2312(%rbp)
	jle	.L29
	leaq	-2128(%rbp), %rax
	leaq	.LC7(%rip), %rdx
	movq	%rdx, %rsi
	movq	%rax, %rdi
	call	strcspn@PLT
	movq	%rax, -2304(%rbp)
	leaq	-2128(%rbp), %rdx
	movq	-2304(%rbp), %rax
	addq	%rdx, %rax
	movb	$0, (%rax)
	leaq	-2128(%rbp), %rax
	leaq	.LC8(%rip), %rdx
	movq	%rdx, %rsi
	movq	%rax, %rdi
	call	strcmp@PLT
	movl	%eax, -2384(%rbp)
	cmpl	$0, -2384(%rbp)
	jne	.L25
	leaq	.LC9(%rip), %rax
	movq	%rax, %rdi
	call	puts@PLT
	leaq	-2256(%rbp), %rdx
	movl	-2396(%rbp), %eax
	movq	%rdx, %rsi
	movl	%eax, %edi
	call	sendQuitMessage
	jmp	.L23
.L25:
	leaq	-2128(%rbp), %rax
	movl	$4, %edx
	leaq	.LC10(%rip), %rcx
	movq	%rcx, %rsi
	movq	%rax, %rdi
	call	strncmp@PLT
	movl	%eax, -2380(%rbp)
	cmpl	$0, -2380(%rbp)
	jne	.L26
	leaq	-2128(%rbp), %rax
	leaq	.LC11(%rip), %rdx
	movq	%rdx, %rsi
	movq	%rax, %rdi
	call	strtok@PLT
	movq	%rax, -2288(%rbp)
	movq	-2288(%rbp), %rax
	movq	%rax, -2280(%rbp)
	leaq	.LC11(%rip), %rax
	movq	%rax, %rsi
	movl	$0, %edi
	call	strtok@PLT
	movq	%rax, -2280(%rbp)
	cmpq	$0, -2280(%rbp)
	je	.L27
	movq	_TIG_iO_Trw6_1_setNonBlocking_1_opaque_ptr_1(%rip), %rdx
	movq	_TIG_iO_Trw6_1_setNonBlocking_1_opaque_ptr_2(%rip), %rax
	cmpq	%rax, %rdx
	jne	.L28
	leaq	-2256(%rbp), %rcx
	leaq	-2192(%rbp), %rax
	movl	$64, %edx
	movq	%rcx, %rsi
	movq	%rax, %rdi
	call	strncpy@PLT
	movq	-2280(%rbp), %rdx
	leaq	-2256(%rbp), %rax
	movq	%rdx, %rcx
	leaq	.LC12(%rip), %rdx
	movl	$64, %esi
	movq	%rax, %rdi
	movl	$0, %eax
	call	snprintf@PLT
	leaq	-2256(%rbp), %rdx
	leaq	-2192(%rbp), %rax
	movq	%rax, %rsi
	leaq	.LC13(%rip), %rax
	movq	%rax, %rdi
	movl	$0, %eax
	call	printf@PLT
	leaq	-2256(%rbp), %rdx
	leaq	-2192(%rbp), %rcx
	movl	-2396(%rbp), %eax
	movq	%rcx, %rsi
	movl	%eax, %edi
	call	sendNameChange
	jmp	.L29
.L28:
	movq	-2280(%rbp), %rax
	leaq	-1(%rax), %rcx
	leaq	-1+.LC12(%rip), %rdx
	leaq	-2256(%rbp), %rax
	addq	$1, %rax
	movl	$55, %esi
	movq	%rax, %rdi
	movl	$0, %eax
	call	snprintf@PLT
	leaq	-2256(%rbp), %rdx
	addq	$1, %rdx
	leaq	-2192(%rbp), %rax
	addq	$1, %rax
	leaq	-1+.LC13(%rip), %rcx
	movq	%rax, %rsi
	movq	%rcx, %rdi
	movl	$0, %eax
	call	printf@PLT
	leaq	-2256(%rbp), %rdx
	addq	$1, %rdx
	leaq	-2192(%rbp), %rax
	subq	$1, %rax
	movl	-2396(%rbp), %ecx
	sall	$10, %ecx
	movq	%rax, %rsi
	movl	%ecx, %edi
	call	sendNameChange
	jmp	.L29
.L27:
	leaq	.LC14(%rip), %rax
	movq	%rax, %rdi
	call	puts@PLT
	jmp	.L29
.L26:
	leaq	-2128(%rbp), %rcx
	leaq	-2256(%rbp), %rdx
	leaq	-1104(%rbp), %rax
	movq	%rcx, %r8
	movq	%rdx, %rcx
	leaq	.LC15(%rip), %rdx
	movl	$1091, %esi
	movq	%rax, %rdi
	movl	$0, %eax
	call	snprintf@PLT
	leaq	-1104(%rbp), %rax
	movq	%rax, %rdi
	call	strlen@PLT
	movq	%rax, -2296(%rbp)
	movq	-2296(%rbp), %rdx
	leaq	-1104(%rbp), %rsi
	movl	-2396(%rbp), %eax
	movl	$0, %ecx
	movl	%eax, %edi
	call	send@PLT
	jmp	.L29
.L23:
	movl	-2396(%rbp), %eax
	movl	%eax, %edi
	call	close@PLT
	movl	$0, %eax
	movq	-8(%rbp), %rdx
	subq	%fs:40, %rdx
	je	.L31
	call	__stack_chk_fail@PLT
.L31:
	leave
	.cfi_def_cfa 7, 8
	ret
	.cfi_endproc
.LFE7:
	.size	main, .-main
	.section	.rodata
	.align 8
.LC16:
	.string	"%s has changed their name to %s"
	.text
	.globl	sendNameChange
	.type	sendNameChange, @function
sendNameChange:
.LFB8:
	.cfi_startproc
	endbr64
	pushq	%rbp
	.cfi_def_cfa_offset 16
	.cfi_offset 6, -16
	movq	%rsp, %rbp
	.cfi_def_cfa_register 6
	subq	$1120, %rsp
	movl	%edi, -1092(%rbp)
	movq	%rsi, -1104(%rbp)
	movq	%rdx, -1112(%rbp)
	movq	%fs:40, %rax
	movq	%rax, -8(%rbp)
	xorl	%eax, %eax
#APP
# 145 "nim3xh_chat---Network-Chat-Client-C-Programming_client.c" 1
	##_ANNOTATION_INITIALREGION_-TIG-iO-Trw6-1-sendNameChange--16
# 0 "" 2
# 149 "nim3xh_chat---Network-Chat-Client-C-Programming_client.c" 1
	##_ANNOTATION_ATOMICREGION_-TIG-iO-Trw6-1-sendNameChange--15
# 0 "" 2
#NO_APP
	movl	$24, %edi
	call	malloc@PLT
	movq	%rax, -1072(%rbp)
	movq	-1072(%rbp), %rax
	movq	-1072(%rbp), %rdx
	movq	%rdx, 16(%rax)
	movq	-1072(%rbp), %rax
	movq	-1072(%rbp), %rdx
	movq	%rdx, 8(%rax)
	movq	-1072(%rbp), %rax
	movq	%rax, _TIG_iO_Trw6_1_sendNameChange_1_opaque_list_1(%rip)
	call	rand@PLT
	movl	%eax, -1080(%rbp)
	movl	$24, %edi
	call	malloc@PLT
	movq	%rax, -1064(%rbp)
	movq	-1064(%rbp), %rax
	movl	$0, (%rax)
	movq	_TIG_iO_Trw6_1_sendNameChange_1_opaque_list_1(%rip), %rax
	movq	16(%rax), %rdx
	movq	-1064(%rbp), %rax
	movq	%rdx, 16(%rax)
	movq	_TIG_iO_Trw6_1_sendNameChange_1_opaque_list_1(%rip), %rdx
	movq	-1064(%rbp), %rax
	movq	%rdx, 8(%rax)
	movq	_TIG_iO_Trw6_1_sendNameChange_1_opaque_list_1(%rip), %rax
	movq	16(%rax), %rax
	movq	-1064(%rbp), %rdx
	movq	%rdx, 8(%rax)
	movq	_TIG_iO_Trw6_1_sendNameChange_1_opaque_list_1(%rip), %rax
	movq	-1064(%rbp), %rdx
	movq	%rdx, 16(%rax)
	call	rand@PLT
	movl	%eax, -1076(%rbp)
	movl	$24, %edi
	call	malloc@PLT
	movq	%rax, -1056(%rbp)
	movq	-1056(%rbp), %rax
	movl	-1076(%rbp), %edx
	movl	%edx, (%rax)
	movq	_TIG_iO_Trw6_1_sendNameChange_1_opaque_list_1(%rip), %rax
	movq	16(%rax), %rdx
	movq	-1056(%rbp), %rax
	movq	%rdx, 16(%rax)
	movq	_TIG_iO_Trw6_1_sendNameChange_1_opaque_list_1(%rip), %rdx
	movq	-1056(%rbp), %rax
	movq	%rdx, 8(%rax)
	movq	_TIG_iO_Trw6_1_sendNameChange_1_opaque_list_1(%rip), %rax
	movq	16(%rax), %rax
	movq	-1056(%rbp), %rdx
	movq	%rdx, 8(%rax)
	movq	_TIG_iO_Trw6_1_sendNameChange_1_opaque_list_1(%rip), %rax
	movq	-1056(%rbp), %rdx
	movq	%rdx, 16(%rax)
	movq	_TIG_iO_Trw6_1_sendNameChange_1_opaque_list_1(%rip), %rax
	movq	16(%rax), %rax
	movq	%rax, _TIG_iO_Trw6_1_sendNameChange_1_opaque_ptr_1(%rip)
	movq	_TIG_iO_Trw6_1_sendNameChange_1_opaque_ptr_1(%rip), %rax
	movq	%rax, _TIG_iO_Trw6_1_sendNameChange_1_opaque_ptr_2(%rip)
	nop
	nop
	movq	_TIG_iO_Trw6_1_setNonBlocking_1_opaque_ptr_1(%rip), %rdx
	movq	_TIG_iO_Trw6_1_setNonBlocking_1_opaque_ptr_2(%rip), %rax
	cmpq	%rax, %rdx
	je	.L33
	movq	-1112(%rbp), %rax
	leaq	-1(%rax), %rdi
	movq	-1104(%rbp), %rax
	leaq	-1(%rax), %rcx
	leaq	-1+.LC16(%rip), %rdx
	leaq	-1040(%rbp), %rax
	subq	$1, %rax
	movq	-1048(%rbp), %rsi
	movq	%rdi, %r8
	movq	%rax, %rdi
	movl	$0, %eax
	call	snprintf@PLT
	leaq	-1040(%rbp), %rax
	addq	$1, %rax
	movq	%rax, %rdi
	call	strlen@PLT
	movq	%rax, -1048(%rbp)
	leaq	-1040(%rbp), %rax
	subq	$1, %rax
	movq	-1048(%rbp), %rdx
	movl	-1080(%rbp), %edi
	movl	$8, %ecx
	movq	%rax, %rsi
	call	send@PLT
	jmp	.L32
.L33:
	movq	-1112(%rbp), %rcx
	movq	-1104(%rbp), %rdx
	leaq	-1040(%rbp), %rax
	movq	%rcx, %r8
	movq	%rdx, %rcx
	leaq	.LC16(%rip), %rdx
	movl	$1024, %esi
	movq	%rax, %rdi
	movl	$0, %eax
	call	snprintf@PLT
	leaq	-1040(%rbp), %rax
	movq	%rax, %rdi
	call	strlen@PLT
	movq	%rax, -1048(%rbp)
	movq	-1048(%rbp), %rdx
	leaq	-1040(%rbp), %rsi
	movl	-1092(%rbp), %eax
	movl	$0, %ecx
	movl	%eax, %edi
	call	send@PLT
	nop
.L32:
	movq	-8(%rbp), %rax
	subq	%fs:40, %rax
	je	.L36
	call	__stack_chk_fail@PLT
.L36:
	leave
	.cfi_def_cfa 7, 8
	ret
	.cfi_endproc
.LFE8:
	.size	sendNameChange, .-sendNameChange
	.ident	"GCC: (Ubuntu 11.4.0-1ubuntu1~22.04) 11.4.0"
	.section	.note.GNU-stack,"",@progbits
	.section	.note.gnu.property,"a"
	.align 8
	.long	1f - 0f
	.long	4f - 1f
	.long	5
0:
	.string	"GNU"
1:
	.align 8
	.long	0xc0000002
	.long	3f - 2f
2:
	.long	0x3
3:
	.align 8
4:
