	.file	"nim3xh_chat---Network-Chat-Client-C-Programming_server_opaque.c"
	.text
	.globl	_TIG_iO_tHlW_1_broadcastNameChange_1_opaque_ptr_2
	.bss
	.align 8
	.type	_TIG_iO_tHlW_1_broadcastNameChange_1_opaque_ptr_2, @object
	.size	_TIG_iO_tHlW_1_broadcastNameChange_1_opaque_ptr_2, 8
_TIG_iO_tHlW_1_broadcastNameChange_1_opaque_ptr_2:
	.zero	8
	.globl	userCounter
	.align 4
	.type	userCounter, @object
	.size	userCounter, 4
userCounter:
	.zero	4
	.globl	_TIG_iO_tHlW_1_generateDefaultName_1_opaque_ptr_2
	.align 8
	.type	_TIG_iO_tHlW_1_generateDefaultName_1_opaque_ptr_2, @object
	.size	_TIG_iO_tHlW_1_generateDefaultName_1_opaque_ptr_2, 8
_TIG_iO_tHlW_1_generateDefaultName_1_opaque_ptr_2:
	.zero	8
	.globl	_TIG_iO_tHlW_1_broadcastNameChange_1_opaque_ptr_1
	.align 8
	.type	_TIG_iO_tHlW_1_broadcastNameChange_1_opaque_ptr_1, @object
	.size	_TIG_iO_tHlW_1_broadcastNameChange_1_opaque_ptr_1, 8
_TIG_iO_tHlW_1_broadcastNameChange_1_opaque_ptr_1:
	.zero	8
	.globl	_TIG_iO_tHlW_1_broadcastNameChange_1_opaque_list_1
	.align 8
	.type	_TIG_iO_tHlW_1_broadcastNameChange_1_opaque_list_1, @object
	.size	_TIG_iO_tHlW_1_broadcastNameChange_1_opaque_list_1, 8
_TIG_iO_tHlW_1_broadcastNameChange_1_opaque_list_1:
	.zero	8
	.globl	_TIG_iO_tHlW_1___uint32_identity_1_opaque_ptr_1
	.align 8
	.type	_TIG_iO_tHlW_1___uint32_identity_1_opaque_ptr_1, @object
	.size	_TIG_iO_tHlW_1___uint32_identity_1_opaque_ptr_1, 8
_TIG_iO_tHlW_1___uint32_identity_1_opaque_ptr_1:
	.zero	8
	.globl	_TIG_iO_tHlW_1___uint64_identity_1_opaque_list_1
	.align 8
	.type	_TIG_iO_tHlW_1___uint64_identity_1_opaque_list_1, @object
	.size	_TIG_iO_tHlW_1___uint64_identity_1_opaque_list_1, 8
_TIG_iO_tHlW_1___uint64_identity_1_opaque_list_1:
	.zero	8
	.globl	_TIG_iO_tHlW_1___bswap_32_1_opaque_list_2
	.align 8
	.type	_TIG_iO_tHlW_1___bswap_32_1_opaque_list_2, @object
	.size	_TIG_iO_tHlW_1___bswap_32_1_opaque_list_2, 8
_TIG_iO_tHlW_1___bswap_32_1_opaque_list_2:
	.zero	8
	.globl	_TIG_iO_tHlW_1___uint64_identity_1_opaque_list_2
	.align 8
	.type	_TIG_iO_tHlW_1___uint64_identity_1_opaque_list_2, @object
	.size	_TIG_iO_tHlW_1___uint64_identity_1_opaque_list_2, 8
_TIG_iO_tHlW_1___uint64_identity_1_opaque_list_2:
	.zero	8
	.globl	_TIG_iO_tHlW_1_generateDefaultName_1_opaque_list_1
	.align 8
	.type	_TIG_iO_tHlW_1_generateDefaultName_1_opaque_list_1, @object
	.size	_TIG_iO_tHlW_1_generateDefaultName_1_opaque_list_1, 8
_TIG_iO_tHlW_1_generateDefaultName_1_opaque_list_1:
	.zero	8
	.globl	_TIG_iO_tHlW_1___uint16_identity_1_opaque_ptr_2
	.align 8
	.type	_TIG_iO_tHlW_1___uint16_identity_1_opaque_ptr_2, @object
	.size	_TIG_iO_tHlW_1___uint16_identity_1_opaque_ptr_2, 8
_TIG_iO_tHlW_1___uint16_identity_1_opaque_ptr_2:
	.zero	8
	.globl	_TIG_iO_tHlW_1___bswap_64_1_opaque_ptr_2
	.align 8
	.type	_TIG_iO_tHlW_1___bswap_64_1_opaque_ptr_2, @object
	.size	_TIG_iO_tHlW_1___bswap_64_1_opaque_ptr_2, 8
_TIG_iO_tHlW_1___bswap_64_1_opaque_ptr_2:
	.zero	8
	.globl	_TIG_iO_tHlW_1_sendWelcomeMessage_1_opaque_list_1
	.align 8
	.type	_TIG_iO_tHlW_1_sendWelcomeMessage_1_opaque_list_1, @object
	.size	_TIG_iO_tHlW_1_sendWelcomeMessage_1_opaque_list_1, 8
_TIG_iO_tHlW_1_sendWelcomeMessage_1_opaque_list_1:
	.zero	8
	.globl	_TIG_iO_tHlW_1___bswap_64_1_opaque_list_1
	.align 8
	.type	_TIG_iO_tHlW_1___bswap_64_1_opaque_list_1, @object
	.size	_TIG_iO_tHlW_1___bswap_64_1_opaque_list_1, 8
_TIG_iO_tHlW_1___bswap_64_1_opaque_list_1:
	.zero	8
	.globl	_TIG_iO_tHlW_1___bswap_64_1_opaque_list_2
	.align 8
	.type	_TIG_iO_tHlW_1___bswap_64_1_opaque_list_2, @object
	.size	_TIG_iO_tHlW_1___bswap_64_1_opaque_list_2, 8
_TIG_iO_tHlW_1___bswap_64_1_opaque_list_2:
	.zero	8
	.globl	_TIG_iO_tHlW_1_broadcast_1_opaque_ptr_1
	.align 8
	.type	_TIG_iO_tHlW_1_broadcast_1_opaque_ptr_1, @object
	.size	_TIG_iO_tHlW_1_broadcast_1_opaque_ptr_1, 8
_TIG_iO_tHlW_1_broadcast_1_opaque_ptr_1:
	.zero	8
	.globl	_TIG_iO_tHlW_1_sendWelcomeMessage_1_opaque_ptr_2
	.align 8
	.type	_TIG_iO_tHlW_1_sendWelcomeMessage_1_opaque_ptr_2, @object
	.size	_TIG_iO_tHlW_1_sendWelcomeMessage_1_opaque_ptr_2, 8
_TIG_iO_tHlW_1_sendWelcomeMessage_1_opaque_ptr_2:
	.zero	8
	.globl	_TIG_iO_tHlW_1___bswap_16_1_opaque_list_2
	.align 8
	.type	_TIG_iO_tHlW_1___bswap_16_1_opaque_list_2, @object
	.size	_TIG_iO_tHlW_1___bswap_16_1_opaque_list_2, 8
_TIG_iO_tHlW_1___bswap_16_1_opaque_list_2:
	.zero	8
	.globl	_TIG_iO_tHlW_1_broadcast_1_opaque_ptr_2
	.align 8
	.type	_TIG_iO_tHlW_1_broadcast_1_opaque_ptr_2, @object
	.size	_TIG_iO_tHlW_1_broadcast_1_opaque_ptr_2, 8
_TIG_iO_tHlW_1_broadcast_1_opaque_ptr_2:
	.zero	8
	.globl	_TIG_iO_tHlW_1_sendWelcomeMessage_1_opaque_ptr_1
	.align 8
	.type	_TIG_iO_tHlW_1_sendWelcomeMessage_1_opaque_ptr_1, @object
	.size	_TIG_iO_tHlW_1_sendWelcomeMessage_1_opaque_ptr_1, 8
_TIG_iO_tHlW_1_sendWelcomeMessage_1_opaque_ptr_1:
	.zero	8
	.globl	_TIG_iO_tHlW_1_main_1_opaque_ptr_1
	.align 8
	.type	_TIG_iO_tHlW_1_main_1_opaque_ptr_1, @object
	.size	_TIG_iO_tHlW_1_main_1_opaque_ptr_1, 8
_TIG_iO_tHlW_1_main_1_opaque_ptr_1:
	.zero	8
	.globl	_TIG_iO_tHlW_1___bswap_16_1_opaque_ptr_1
	.align 8
	.type	_TIG_iO_tHlW_1___bswap_16_1_opaque_ptr_1, @object
	.size	_TIG_iO_tHlW_1___bswap_16_1_opaque_ptr_1, 8
_TIG_iO_tHlW_1___bswap_16_1_opaque_ptr_1:
	.zero	8
	.globl	_TIG_iO_tHlW_1___uint32_identity_1_opaque_ptr_2
	.align 8
	.type	_TIG_iO_tHlW_1___uint32_identity_1_opaque_ptr_2, @object
	.size	_TIG_iO_tHlW_1___uint32_identity_1_opaque_ptr_2, 8
_TIG_iO_tHlW_1___uint32_identity_1_opaque_ptr_2:
	.zero	8
	.globl	_TIG_iO_tHlW_1_generateDefaultName_1_opaque_list_2
	.align 8
	.type	_TIG_iO_tHlW_1_generateDefaultName_1_opaque_list_2, @object
	.size	_TIG_iO_tHlW_1_generateDefaultName_1_opaque_list_2, 8
_TIG_iO_tHlW_1_generateDefaultName_1_opaque_list_2:
	.zero	8
	.globl	_TIG_iO_tHlW_1___uint64_identity_1_opaque_ptr_1
	.align 8
	.type	_TIG_iO_tHlW_1___uint64_identity_1_opaque_ptr_1, @object
	.size	_TIG_iO_tHlW_1___uint64_identity_1_opaque_ptr_1, 8
_TIG_iO_tHlW_1___uint64_identity_1_opaque_ptr_1:
	.zero	8
	.globl	_TIG_iO_tHlW_1_main_1_opaque_list_1
	.align 8
	.type	_TIG_iO_tHlW_1_main_1_opaque_list_1, @object
	.size	_TIG_iO_tHlW_1_main_1_opaque_list_1, 8
_TIG_iO_tHlW_1_main_1_opaque_list_1:
	.zero	8
	.globl	_TIG_iO_tHlW_1___bswap_16_1_opaque_ptr_2
	.align 8
	.type	_TIG_iO_tHlW_1___bswap_16_1_opaque_ptr_2, @object
	.size	_TIG_iO_tHlW_1___bswap_16_1_opaque_ptr_2, 8
_TIG_iO_tHlW_1___bswap_16_1_opaque_ptr_2:
	.zero	8
	.globl	_TIG_iO_tHlW_1___bswap_64_1_opaque_ptr_1
	.align 8
	.type	_TIG_iO_tHlW_1___bswap_64_1_opaque_ptr_1, @object
	.size	_TIG_iO_tHlW_1___bswap_64_1_opaque_ptr_1, 8
_TIG_iO_tHlW_1___bswap_64_1_opaque_ptr_1:
	.zero	8
	.globl	_TIG_iO_tHlW_1_broadcastNameChange_1_opaque_list_2
	.align 8
	.type	_TIG_iO_tHlW_1_broadcastNameChange_1_opaque_list_2, @object
	.size	_TIG_iO_tHlW_1_broadcastNameChange_1_opaque_list_2, 8
_TIG_iO_tHlW_1_broadcastNameChange_1_opaque_list_2:
	.zero	8
	.globl	_TIG_iO_tHlW_1___bswap_32_1_opaque_ptr_2
	.align 8
	.type	_TIG_iO_tHlW_1___bswap_32_1_opaque_ptr_2, @object
	.size	_TIG_iO_tHlW_1___bswap_32_1_opaque_ptr_2, 8
_TIG_iO_tHlW_1___bswap_32_1_opaque_ptr_2:
	.zero	8
	.globl	_TIG_iO_tHlW_1___uint32_identity_1_opaque_list_2
	.align 8
	.type	_TIG_iO_tHlW_1___uint32_identity_1_opaque_list_2, @object
	.size	_TIG_iO_tHlW_1___uint32_identity_1_opaque_list_2, 8
_TIG_iO_tHlW_1___uint32_identity_1_opaque_list_2:
	.zero	8
	.globl	_TIG_iO_tHlW_1_sendWelcomeMessage_1_opaque_list_2
	.align 8
	.type	_TIG_iO_tHlW_1_sendWelcomeMessage_1_opaque_list_2, @object
	.size	_TIG_iO_tHlW_1_sendWelcomeMessage_1_opaque_list_2, 8
_TIG_iO_tHlW_1_sendWelcomeMessage_1_opaque_list_2:
	.zero	8
	.globl	_TIG_IZ_tHlW_argc
	.align 4
	.type	_TIG_IZ_tHlW_argc, @object
	.size	_TIG_IZ_tHlW_argc, 4
_TIG_IZ_tHlW_argc:
	.zero	4
	.globl	_TIG_iO_tHlW_1_main_1_opaque_list_2
	.align 8
	.type	_TIG_iO_tHlW_1_main_1_opaque_list_2, @object
	.size	_TIG_iO_tHlW_1_main_1_opaque_list_2, 8
_TIG_iO_tHlW_1_main_1_opaque_list_2:
	.zero	8
	.globl	_TIG_iO_tHlW_1_generateDefaultName_1_opaque_ptr_1
	.align 8
	.type	_TIG_iO_tHlW_1_generateDefaultName_1_opaque_ptr_1, @object
	.size	_TIG_iO_tHlW_1_generateDefaultName_1_opaque_ptr_1, 8
_TIG_iO_tHlW_1_generateDefaultName_1_opaque_ptr_1:
	.zero	8
	.globl	_TIG_iO_tHlW_1___bswap_16_1_opaque_list_1
	.align 8
	.type	_TIG_iO_tHlW_1___bswap_16_1_opaque_list_1, @object
	.size	_TIG_iO_tHlW_1___bswap_16_1_opaque_list_1, 8
_TIG_iO_tHlW_1___bswap_16_1_opaque_list_1:
	.zero	8
	.globl	_TIG_IZ_tHlW_envp
	.align 8
	.type	_TIG_IZ_tHlW_envp, @object
	.size	_TIG_IZ_tHlW_envp, 8
_TIG_IZ_tHlW_envp:
	.zero	8
	.globl	_TIG_iO_tHlW_1___bswap_32_1_opaque_ptr_1
	.align 8
	.type	_TIG_iO_tHlW_1___bswap_32_1_opaque_ptr_1, @object
	.size	_TIG_iO_tHlW_1___bswap_32_1_opaque_ptr_1, 8
_TIG_iO_tHlW_1___bswap_32_1_opaque_ptr_1:
	.zero	8
	.globl	_TIG_iO_tHlW_1___uint64_identity_1_opaque_ptr_2
	.align 8
	.type	_TIG_iO_tHlW_1___uint64_identity_1_opaque_ptr_2, @object
	.size	_TIG_iO_tHlW_1___uint64_identity_1_opaque_ptr_2, 8
_TIG_iO_tHlW_1___uint64_identity_1_opaque_ptr_2:
	.zero	8
	.globl	_TIG_iO_tHlW_1_broadcast_1_opaque_list_2
	.align 8
	.type	_TIG_iO_tHlW_1_broadcast_1_opaque_list_2, @object
	.size	_TIG_iO_tHlW_1_broadcast_1_opaque_list_2, 8
_TIG_iO_tHlW_1_broadcast_1_opaque_list_2:
	.zero	8
	.globl	_TIG_iO_tHlW_1___bswap_32_1_opaque_list_1
	.align 8
	.type	_TIG_iO_tHlW_1___bswap_32_1_opaque_list_1, @object
	.size	_TIG_iO_tHlW_1___bswap_32_1_opaque_list_1, 8
_TIG_iO_tHlW_1___bswap_32_1_opaque_list_1:
	.zero	8
	.globl	_TIG_iO_tHlW_1_main_1_opaque_ptr_2
	.align 8
	.type	_TIG_iO_tHlW_1_main_1_opaque_ptr_2, @object
	.size	_TIG_iO_tHlW_1_main_1_opaque_ptr_2, 8
_TIG_iO_tHlW_1_main_1_opaque_ptr_2:
	.zero	8
	.globl	_TIG_iO_tHlW_1_broadcast_1_opaque_list_1
	.align 8
	.type	_TIG_iO_tHlW_1_broadcast_1_opaque_list_1, @object
	.size	_TIG_iO_tHlW_1_broadcast_1_opaque_list_1, 8
_TIG_iO_tHlW_1_broadcast_1_opaque_list_1:
	.zero	8
	.globl	_TIG_iO_tHlW_1___uint16_identity_1_opaque_list_1
	.align 8
	.type	_TIG_iO_tHlW_1___uint16_identity_1_opaque_list_1, @object
	.size	_TIG_iO_tHlW_1___uint16_identity_1_opaque_list_1, 8
_TIG_iO_tHlW_1___uint16_identity_1_opaque_list_1:
	.zero	8
	.globl	_TIG_iO_tHlW_1___uint16_identity_1_opaque_list_2
	.align 8
	.type	_TIG_iO_tHlW_1___uint16_identity_1_opaque_list_2, @object
	.size	_TIG_iO_tHlW_1___uint16_identity_1_opaque_list_2, 8
_TIG_iO_tHlW_1___uint16_identity_1_opaque_list_2:
	.zero	8
	.globl	_TIG_IZ_tHlW_argv
	.align 8
	.type	_TIG_IZ_tHlW_argv, @object
	.size	_TIG_IZ_tHlW_argv, 8
_TIG_IZ_tHlW_argv:
	.zero	8
	.globl	_TIG_iO_tHlW_1___uint16_identity_1_opaque_ptr_1
	.align 8
	.type	_TIG_iO_tHlW_1___uint16_identity_1_opaque_ptr_1, @object
	.size	_TIG_iO_tHlW_1___uint16_identity_1_opaque_ptr_1, 8
_TIG_iO_tHlW_1___uint16_identity_1_opaque_ptr_1:
	.zero	8
	.globl	_TIG_iO_tHlW_1___uint32_identity_1_opaque_list_1
	.align 8
	.type	_TIG_iO_tHlW_1___uint32_identity_1_opaque_list_1, @object
	.size	_TIG_iO_tHlW_1___uint32_identity_1_opaque_list_1, 8
_TIG_iO_tHlW_1___uint32_identity_1_opaque_list_1:
	.zero	8
	.text
	.globl	broadcast
	.type	broadcast, @function
broadcast:
.LFB4:
	.cfi_startproc
	endbr64
	pushq	%rbp
	.cfi_def_cfa_offset 16
	.cfi_offset 6, -16
	movq	%rsp, %rbp
	.cfi_def_cfa_register 6
	subq	$112, %rsp
	movl	%edi, -84(%rbp)
	movq	%rsi, -96(%rbp)
	movq	%rdx, -104(%rbp)
	movq	%rcx, -112(%rbp)
#APP
# 71 "/usr/include/x86_64-linux-gnu/bits/uintn-identity.h" 1
	##_ANNOTATION_INITIALREGION_-TIG-iO-tHlW-1-broadcast--14
# 0 "" 2
# 75 "/usr/include/x86_64-linux-gnu/bits/uintn-identity.h" 1
	##_ANNOTATION_ATOMICREGION_-TIG-iO-tHlW-1-broadcast--13
# 0 "" 2
#NO_APP
	movl	$24, %edi
	call	malloc@PLT
	movq	%rax, -48(%rbp)
	movq	-48(%rbp), %rax
	movq	-48(%rbp), %rdx
	movq	%rdx, (%rax)
	movq	-48(%rbp), %rax
	movq	-48(%rbp), %rdx
	movq	%rdx, 8(%rax)
	movq	-48(%rbp), %rax
	movq	%rax, _TIG_iO_tHlW_1_broadcast_1_opaque_list_1(%rip)
	call	rand@PLT
	movl	%eax, -64(%rbp)
	movl	$24, %edi
	call	malloc@PLT
	movq	%rax, -40(%rbp)
	movq	-40(%rbp), %rax
	movl	$0, 16(%rax)
	movq	_TIG_iO_tHlW_1_broadcast_1_opaque_list_1(%rip), %rax
	movq	(%rax), %rdx
	movq	-40(%rbp), %rax
	movq	%rdx, (%rax)
	movq	_TIG_iO_tHlW_1_broadcast_1_opaque_list_1(%rip), %rdx
	movq	-40(%rbp), %rax
	movq	%rdx, 8(%rax)
	movq	_TIG_iO_tHlW_1_broadcast_1_opaque_list_1(%rip), %rax
	movq	(%rax), %rax
	movq	-40(%rbp), %rdx
	movq	%rdx, 8(%rax)
	movq	_TIG_iO_tHlW_1_broadcast_1_opaque_list_1(%rip), %rax
	movq	-40(%rbp), %rdx
	movq	%rdx, (%rax)
	call	rand@PLT
	movl	%eax, -60(%rbp)
	movl	$24, %edi
	call	malloc@PLT
	movq	%rax, -32(%rbp)
	movq	-32(%rbp), %rax
	movl	-60(%rbp), %edx
	movl	%edx, 16(%rax)
	movq	_TIG_iO_tHlW_1_broadcast_1_opaque_list_1(%rip), %rax
	movq	(%rax), %rdx
	movq	-32(%rbp), %rax
	movq	%rdx, (%rax)
	movq	_TIG_iO_tHlW_1_broadcast_1_opaque_list_1(%rip), %rdx
	movq	-32(%rbp), %rax
	movq	%rdx, 8(%rax)
	movq	_TIG_iO_tHlW_1_broadcast_1_opaque_list_1(%rip), %rax
	movq	(%rax), %rax
	movq	-32(%rbp), %rdx
	movq	%rdx, 8(%rax)
	movq	_TIG_iO_tHlW_1_broadcast_1_opaque_list_1(%rip), %rax
	movq	-32(%rbp), %rdx
	movq	%rdx, (%rax)
	call	rand@PLT
	movl	%eax, -56(%rbp)
	movl	$24, %edi
	call	malloc@PLT
	movq	%rax, -24(%rbp)
	movl	-56(%rbp), %eax
	leal	(%rax,%rax), %edx
	movq	-24(%rbp), %rax
	movl	%edx, 16(%rax)
	movq	_TIG_iO_tHlW_1_broadcast_1_opaque_list_1(%rip), %rax
	movq	(%rax), %rdx
	movq	-24(%rbp), %rax
	movq	%rdx, (%rax)
	movq	_TIG_iO_tHlW_1_broadcast_1_opaque_list_1(%rip), %rdx
	movq	-24(%rbp), %rax
	movq	%rdx, 8(%rax)
	movq	_TIG_iO_tHlW_1_broadcast_1_opaque_list_1(%rip), %rax
	movq	(%rax), %rax
	movq	-24(%rbp), %rdx
	movq	%rdx, 8(%rax)
	movq	_TIG_iO_tHlW_1_broadcast_1_opaque_list_1(%rip), %rax
	movq	-24(%rbp), %rdx
	movq	%rdx, (%rax)
	call	rand@PLT
	movl	%eax, -52(%rbp)
	movl	$24, %edi
	call	malloc@PLT
	movq	%rax, -16(%rbp)
	movl	-52(%rbp), %edx
	movl	%edx, %eax
	addl	%eax, %eax
	addl	%eax, %edx
	movq	-16(%rbp), %rax
	movl	%edx, 16(%rax)
	movq	_TIG_iO_tHlW_1_broadcast_1_opaque_list_1(%rip), %rax
	movq	(%rax), %rdx
	movq	-16(%rbp), %rax
	movq	%rdx, (%rax)
	movq	_TIG_iO_tHlW_1_broadcast_1_opaque_list_1(%rip), %rdx
	movq	-16(%rbp), %rax
	movq	%rdx, 8(%rax)
	movq	_TIG_iO_tHlW_1_broadcast_1_opaque_list_1(%rip), %rax
	movq	(%rax), %rax
	movq	-16(%rbp), %rdx
	movq	%rdx, 8(%rax)
	movq	_TIG_iO_tHlW_1_broadcast_1_opaque_list_1(%rip), %rax
	movq	-16(%rbp), %rdx
	movq	%rdx, (%rax)
	movq	_TIG_iO_tHlW_1_broadcast_1_opaque_list_1(%rip), %rax
	movq	(%rax), %rax
	movq	%rax, _TIG_iO_tHlW_1_broadcast_1_opaque_ptr_1(%rip)
	movq	_TIG_iO_tHlW_1_broadcast_1_opaque_ptr_1(%rip), %rax
	movq	%rax, _TIG_iO_tHlW_1_broadcast_1_opaque_ptr_2(%rip)
	movq	_TIG_iO_tHlW_1_broadcast_1_opaque_ptr_2(%rip), %rax
	movq	(%rax), %rax
	movq	%rax, _TIG_iO_tHlW_1_broadcast_1_opaque_ptr_2(%rip)
	nop
	nop
	movl	$0, -68(%rbp)
	jmp	.L2
.L4:
	movl	-68(%rbp), %eax
	cltq
	leaq	0(,%rax,4), %rdx
	movq	-96(%rbp), %rax
	addq	%rdx, %rax
	movl	(%rax), %eax
	cmpl	$-1, %eax
	je	.L3
	movl	-68(%rbp), %eax
	cltq
	leaq	0(,%rax,4), %rdx
	movq	-96(%rbp), %rax
	addq	%rdx, %rax
	movl	(%rax), %eax
	cmpl	%eax, -84(%rbp)
	je	.L3
	movq	_TIG_iO_tHlW_1_sendWelcomeMessage_1_opaque_ptr_1(%rip), %rdx
	movq	_TIG_iO_tHlW_1_sendWelcomeMessage_1_opaque_ptr_2(%rip), %rax
	cmpq	%rax, %rdx
	je	.L3
	movl	-68(%rbp), %eax
	cltq
	leaq	0(,%rax,4), %rdx
	movq	-96(%rbp), %rax
	addq	%rdx, %rax
	movl	(%rax), %eax
	leal	63(%rax), %edx
	testl	%eax, %eax
	cmovs	%edx, %eax
	sarl	$6, %eax
	movl	%eax, %edx
	movq	-104(%rbp), %rax
	movslq	%edx, %rdx
	movq	(%rax,%rdx,8), %rdx
	movl	-68(%rbp), %eax
	cltq
	leaq	0(,%rax,4), %rcx
	movq	-96(%rbp), %rax
	addq	%rcx, %rax
	movl	(%rax), %eax
	andl	$63, %eax
	movl	$1, %esi
	movl	%eax, %ecx
	salq	%cl, %rsi
	movq	%rsi, %rax
	andq	%rdx, %rax
	testq	%rax, %rax
	je	.L3
	movq	-112(%rbp), %rax
	movq	%rax, %rdi
	call	strlen@PLT
	movq	%rax, -8(%rbp)
	movl	-68(%rbp), %eax
	cltq
	leaq	0(,%rax,4), %rdx
	movq	-96(%rbp), %rax
	addq	%rdx, %rax
	movl	(%rax), %eax
	movq	-8(%rbp), %rdx
	movq	-112(%rbp), %rsi
	movl	$0, %ecx
	movl	%eax, %edi
	call	send@PLT
.L3:
	addl	$1, -68(%rbp)
.L2:
	cmpl	$9, -68(%rbp)
	jle	.L4
	nop
	leave
	.cfi_def_cfa 7, 8
	ret
	.cfi_endproc
.LFE4:
	.size	broadcast, .-broadcast
	.section	.rodata
.LC0:
	.string	"Usage: %s <port>\n"
.LC1:
	.string	"Socket creation failed"
.LC2:
	.string	"Bind failed"
.LC3:
	.string	"Listen failed"
	.align 8
.LC4:
	.string	"Server is listening on port %s...\n"
.LC5:
	.string	"Select failed"
.LC6:
	.string	"New client connected"
.LC7:
	.string	"%s has connected"
.LC8:
	.string	"Received from client %d: %s\n"
.LC9:
	.string	"quit"
.LC10:
	.string	" "
.LC11:
	.string	"%s has quit"
.LC12:
	.string	"Client %d disconnected.\n"
.LC13:
	.string	"name"
.LC14:
	.string	"User%d"
	.align 8
.LC15:
	.string	"Invalid name format. Usage: name <new_name>"
.LC16:
	.string	"User %d disconnected.\n"
.LC17:
	.string	"Receive error"
	.text
	.globl	main
	.type	main, @function
main:
.LFB5:
	.cfi_startproc
	endbr64
	pushq	%rbp
	.cfi_def_cfa_offset 16
	.cfi_offset 6, -16
	movq	%rsp, %rbp
	.cfi_def_cfa_register 6
	subq	$1952, %rsp
	movl	%edi, -1924(%rbp)
	movq	%rsi, -1936(%rbp)
	movq	%rdx, -1944(%rbp)
	movq	%fs:40, %rax
	movq	%rax, -8(%rbp)
	xorl	%eax, %eax
	movl	$0, userCounter(%rip)
	nop
.L7:
	movq	$0, _TIG_IZ_tHlW_envp(%rip)
	nop
.L8:
	movq	$0, _TIG_IZ_tHlW_argv(%rip)
	nop
.L9:
	movl	$0, _TIG_IZ_tHlW_argc(%rip)
	nop
	nop
.L10:
.L11:
#APP
# 104 "nim3xh_chat---Network-Chat-Client-C-Programming_server.c" 1
	##_ANNOTATION_INITIALREGION_-TIG-IZ-tHlW--0
# 0 "" 2
#NO_APP
	movl	-1924(%rbp), %eax
	movl	%eax, _TIG_IZ_tHlW_argc(%rip)
	movq	-1936(%rbp), %rax
	movq	%rax, _TIG_IZ_tHlW_argv(%rip)
	movq	-1944(%rbp), %rax
	movq	%rax, _TIG_IZ_tHlW_envp(%rip)
#APP
# 111 "nim3xh_chat---Network-Chat-Client-C-Programming_server.c" 1
	##_ANNOTATION_ATOMICREGION_-TIG-iO-tHlW-1-main--19
# 0 "" 2
#NO_APP
	movl	$24, %edi
	call	malloc@PLT
	movq	%rax, -1840(%rbp)
	movq	-1840(%rbp), %rax
	movq	-1840(%rbp), %rdx
	movq	%rdx, 8(%rax)
	movq	-1840(%rbp), %rax
	movq	-1840(%rbp), %rdx
	movq	%rdx, 16(%rax)
	movq	-1840(%rbp), %rax
	movq	%rax, _TIG_iO_tHlW_1_main_1_opaque_list_1(%rip)
	call	rand@PLT
	movl	%eax, -1884(%rbp)
	movl	$24, %edi
	call	malloc@PLT
	movq	%rax, -1832(%rbp)
	movq	-1832(%rbp), %rax
	movl	$0, (%rax)
	movq	_TIG_iO_tHlW_1_main_1_opaque_list_1(%rip), %rax
	movq	8(%rax), %rdx
	movq	-1832(%rbp), %rax
	movq	%rdx, 8(%rax)
	movq	_TIG_iO_tHlW_1_main_1_opaque_list_1(%rip), %rdx
	movq	-1832(%rbp), %rax
	movq	%rdx, 16(%rax)
	movq	_TIG_iO_tHlW_1_main_1_opaque_list_1(%rip), %rax
	movq	8(%rax), %rax
	movq	-1832(%rbp), %rdx
	movq	%rdx, 16(%rax)
	movq	_TIG_iO_tHlW_1_main_1_opaque_list_1(%rip), %rax
	movq	-1832(%rbp), %rdx
	movq	%rdx, 8(%rax)
	call	rand@PLT
	movl	%eax, -1880(%rbp)
	movl	$24, %edi
	call	malloc@PLT
	movq	%rax, -1824(%rbp)
	movq	-1824(%rbp), %rax
	movl	-1880(%rbp), %edx
	movl	%edx, (%rax)
	movq	_TIG_iO_tHlW_1_main_1_opaque_list_1(%rip), %rax
	movq	8(%rax), %rdx
	movq	-1824(%rbp), %rax
	movq	%rdx, 8(%rax)
	movq	_TIG_iO_tHlW_1_main_1_opaque_list_1(%rip), %rdx
	movq	-1824(%rbp), %rax
	movq	%rdx, 16(%rax)
	movq	_TIG_iO_tHlW_1_main_1_opaque_list_1(%rip), %rax
	movq	8(%rax), %rax
	movq	-1824(%rbp), %rdx
	movq	%rdx, 16(%rax)
	movq	_TIG_iO_tHlW_1_main_1_opaque_list_1(%rip), %rax
	movq	-1824(%rbp), %rdx
	movq	%rdx, 8(%rax)
	movq	_TIG_iO_tHlW_1_main_1_opaque_list_1(%rip), %rax
	movq	8(%rax), %rax
	movq	%rax, _TIG_iO_tHlW_1_main_1_opaque_ptr_1(%rip)
	movq	_TIG_iO_tHlW_1_main_1_opaque_ptr_1(%rip), %rax
	movq	%rax, _TIG_iO_tHlW_1_main_1_opaque_ptr_2(%rip)
	nop
	nop
	cmpl	$2, -1924(%rbp)
	je	.L12
	movq	-1936(%rbp), %rax
	movq	(%rax), %rdx
	movq	stderr(%rip), %rax
	leaq	.LC0(%rip), %rcx
	movq	%rcx, %rsi
	movq	%rax, %rdi
	movl	$0, %eax
	call	fprintf@PLT
	movl	$1, %edi
	call	exit@PLT
.L12:
	movl	$16, -1912(%rbp)
	movl	$0, %edx
	movl	$1, %esi
	movl	$2, %edi
	call	socket@PLT
	movl	%eax, -1876(%rbp)
	cmpl	$-1, -1876(%rbp)
	jne	.L13
	leaq	.LC1(%rip), %rax
	movq	%rax, %rdi
	call	perror@PLT
	movl	$1, %edi
	call	exit@PLT
.L13:
	leaq	-1760(%rbp), %rax
	movl	$16, %edx
	movl	$0, %esi
	movq	%rax, %rdi
	call	memset@PLT
	movw	$2, -1760(%rbp)
	movl	$0, -1756(%rbp)
	movq	-1936(%rbp), %rax
	addq	$8, %rax
	movq	(%rax), %rax
	movq	%rax, %rdi
	call	atoi@PLT
	movl	%eax, -1872(%rbp)
	movl	-1872(%rbp), %eax
	movzwl	%ax, %eax
	movl	%eax, %edi
	call	htons@PLT
	movw	%ax, -1758(%rbp)
	leaq	-1760(%rbp), %rcx
	movl	-1876(%rbp), %eax
	movl	$16, %edx
	movq	%rcx, %rsi
	movl	%eax, %edi
	call	bind@PLT
	movl	%eax, -1868(%rbp)
	cmpl	$-1, -1868(%rbp)
	jne	.L14
	leaq	.LC2(%rip), %rax
	movq	%rax, %rdi
	call	perror@PLT
	movl	-1876(%rbp), %eax
	movl	%eax, %edi
	call	close@PLT
	movl	$1, %edi
	call	exit@PLT
.L14:
	movl	-1876(%rbp), %eax
	movl	$10, %esi
	movl	%eax, %edi
	call	listen@PLT
	movl	%eax, -1864(%rbp)
	cmpl	$-1, -1864(%rbp)
	jne	.L15
	leaq	.LC3(%rip), %rax
	movq	%rax, %rdi
	call	perror@PLT
	movl	-1876(%rbp), %eax
	movl	%eax, %edi
	call	close@PLT
	movl	$1, %edi
	call	exit@PLT
.L15:
	movq	-1936(%rbp), %rax
	addq	$8, %rax
	movq	(%rax), %rax
	movq	%rax, %rsi
	leaq	.LC4(%rip), %rax
	movq	%rax, %rdi
	movl	$0, %eax
	call	printf@PLT
	leaq	-1680(%rbp), %rax
	movq	%rax, -1816(%rbp)
	movl	$0, -1908(%rbp)
	jmp	.L16
.L17:
	movq	-1816(%rbp), %rax
	movl	-1908(%rbp), %edx
	movq	$0, (%rax,%rdx,8)
	addl	$1, -1908(%rbp)
.L16:
	cmpl	$15, -1908(%rbp)
	jbe	.L17
	nop
	movl	-1876(%rbp), %eax
	leal	63(%rax), %edx
	testl	%eax, %eax
	cmovs	%edx, %eax
	sarl	$6, %eax
	movl	%eax, %esi
	movslq	%esi, %rax
	movq	-1680(%rbp,%rax,8), %rdx
	movl	-1876(%rbp), %eax
	andl	$63, %eax
	movl	$1, %edi
	movl	%eax, %ecx
	salq	%cl, %rdi
	movq	%rdi, %rax
	orq	%rax, %rdx
	movslq	%esi, %rax
	movq	%rdx, -1680(%rbp,%rax,8)
	movl	$0, -1904(%rbp)
	jmp	.L18
.L19:
	movl	-1904(%rbp), %eax
	cltq
	movl	$-1, -1728(%rbp,%rax,4)
	addl	$1, -1904(%rbp)
.L18:
	cmpl	$9, -1904(%rbp)
	jle	.L19
.L47:
	movq	-1680(%rbp), %rax
	movq	-1672(%rbp), %rdx
	movq	%rax, -1552(%rbp)
	movq	%rdx, -1544(%rbp)
	movq	-1664(%rbp), %rax
	movq	-1656(%rbp), %rdx
	movq	%rax, -1536(%rbp)
	movq	%rdx, -1528(%rbp)
	movq	-1648(%rbp), %rax
	movq	-1640(%rbp), %rdx
	movq	%rax, -1520(%rbp)
	movq	%rdx, -1512(%rbp)
	movq	-1632(%rbp), %rax
	movq	-1624(%rbp), %rdx
	movq	%rax, -1504(%rbp)
	movq	%rdx, -1496(%rbp)
	movq	-1616(%rbp), %rax
	movq	-1608(%rbp), %rdx
	movq	%rax, -1488(%rbp)
	movq	%rdx, -1480(%rbp)
	movq	-1600(%rbp), %rax
	movq	-1592(%rbp), %rdx
	movq	%rax, -1472(%rbp)
	movq	%rdx, -1464(%rbp)
	movq	-1584(%rbp), %rax
	movq	-1576(%rbp), %rdx
	movq	%rax, -1456(%rbp)
	movq	%rdx, -1448(%rbp)
	movq	-1568(%rbp), %rax
	movq	-1560(%rbp), %rdx
	movq	%rax, -1440(%rbp)
	movq	%rdx, -1432(%rbp)
	leaq	-1552(%rbp), %rax
	movl	$0, %r8d
	movl	$0, %ecx
	movl	$0, %edx
	movq	%rax, %rsi
	movl	$1024, %edi
	call	select@PLT
	movl	%eax, -1860(%rbp)
	cmpl	$-1, -1860(%rbp)
	jne	.L20
	leaq	.LC5(%rip), %rax
	movq	%rax, %rdi
	call	perror@PLT
	movl	-1876(%rbp), %eax
	movl	%eax, %edi
	call	close@PLT
	movl	$1, %edi
	call	exit@PLT
.L20:
	movl	$0, -1900(%rbp)
	jmp	.L21
.L46:
	movl	-1900(%rbp), %eax
	leal	63(%rax), %edx
	testl	%eax, %eax
	cmovs	%edx, %eax
	sarl	$6, %eax
	cltq
	movq	-1552(%rbp,%rax,8), %rdx
	movl	-1900(%rbp), %eax
	andl	$63, %eax
	movl	$1, %esi
	movl	%eax, %ecx
	salq	%cl, %rsi
	movq	%rsi, %rax
	andq	%rdx, %rax
	testq	%rax, %rax
	je	.L22
	movl	-1900(%rbp), %eax
	cmpl	-1876(%rbp), %eax
	jne	.L23
	leaq	-1912(%rbp), %rdx
	leaq	-1744(%rbp), %rcx
	movl	-1876(%rbp), %eax
	movq	%rcx, %rsi
	movl	%eax, %edi
	call	accept@PLT
	movl	%eax, -1848(%rbp)
	movl	-1848(%rbp), %eax
	movl	%eax, -1844(%rbp)
	cmpl	$-1, -1844(%rbp)
	je	.L22
	leaq	.LC6(%rip), %rax
	movq	%rax, %rdi
	call	puts@PLT
	movl	userCounter(%rip), %edx
	leaq	-1424(%rbp), %rax
	movl	%edx, %esi
	movq	%rax, %rdi
	call	generateDefaultName
	leaq	-1424(%rbp), %rdx
	leaq	-1296(%rbp), %rax
	movq	%rdx, %rcx
	leaq	.LC7(%rip), %rdx
	movl	$128, %esi
	movq	%rax, %rdi
	movl	$0, %eax
	call	snprintf@PLT
	leaq	-1296(%rbp), %rcx
	leaq	-1680(%rbp), %rdx
	leaq	-1728(%rbp), %rsi
	movl	-1844(%rbp), %eax
	movl	%eax, %edi
	call	broadcast
	leaq	-1424(%rbp), %rdx
	movl	-1844(%rbp), %eax
	movq	%rdx, %rsi
	movl	%eax, %edi
	call	sendWelcomeMessage
	movl	$0, -1896(%rbp)
	jmp	.L25
.L27:
	movl	-1896(%rbp), %eax
	cltq
	movl	-1728(%rbp,%rax,4), %eax
	cmpl	$-1, %eax
	jne	.L26
	movl	-1896(%rbp), %eax
	cltq
	movl	-1844(%rbp), %edx
	movl	%edx, -1728(%rbp,%rax,4)
	movl	-1844(%rbp), %eax
	leal	63(%rax), %edx
	testl	%eax, %eax
	cmovs	%edx, %eax
	sarl	$6, %eax
	movl	%eax, %esi
	movslq	%esi, %rax
	movq	-1680(%rbp,%rax,8), %rdx
	movl	-1844(%rbp), %eax
	andl	$63, %eax
	movl	$1, %edi
	movl	%eax, %ecx
	salq	%cl, %rdi
	movq	%rdi, %rax
	orq	%rax, %rdx
	movslq	%esi, %rax
	movq	%rdx, -1680(%rbp,%rax,8)
	jmp	.L22
.L26:
	addl	$1, -1896(%rbp)
.L25:
	cmpl	$9, -1896(%rbp)
	jle	.L27
	jmp	.L22
.L23:
	leaq	-1040(%rbp), %rsi
	movl	-1900(%rbp), %eax
	movl	$0, %ecx
	movl	$1024, %edx
	movl	%eax, %edi
	call	recv@PLT
	movq	%rax, -1808(%rbp)
	movq	-1808(%rbp), %rax
	movq	%rax, -1800(%rbp)
	cmpq	$0, -1800(%rbp)
	jle	.L28
	leaq	-1040(%rbp), %rdx
	movq	-1800(%rbp), %rax
	addq	%rdx, %rax
	movb	$0, (%rax)
	leaq	-1040(%rbp), %rdx
	movl	-1900(%rbp), %eax
	movl	%eax, %esi
	leaq	.LC8(%rip), %rax
	movq	%rax, %rdi
	movl	$0, %eax
	call	printf@PLT
	leaq	-1040(%rbp), %rax
	movl	$4, %edx
	leaq	.LC9(%rip), %rcx
	movq	%rcx, %rsi
	movq	%rax, %rdi
	call	strncmp@PLT
	movl	%eax, -1856(%rbp)
	cmpl	$0, -1856(%rbp)
	jne	.L29
	leaq	-1040(%rbp), %rax
	addq	$5, %rax
	leaq	.LC10(%rip), %rdx
	movq	%rdx, %rsi
	movq	%rax, %rdi
	call	strtok@PLT
	movq	%rax, -1776(%rbp)
	movq	-1776(%rbp), %rax
	movq	%rax, -1768(%rbp)
	movq	-1768(%rbp), %rdx
	leaq	-1168(%rbp), %rax
	movq	%rdx, %rcx
	leaq	.LC11(%rip), %rdx
	movl	$128, %esi
	movq	%rax, %rdi
	movl	$0, %eax
	call	snprintf@PLT
	leaq	-1168(%rbp), %rcx
	leaq	-1680(%rbp), %rdx
	leaq	-1728(%rbp), %rsi
	movl	-1900(%rbp), %eax
	movl	%eax, %edi
	call	broadcast
	movl	-1900(%rbp), %eax
	movl	%eax, %esi
	leaq	.LC12(%rip), %rax
	movq	%rax, %rdi
	movl	$0, %eax
	call	printf@PLT
	movl	-1900(%rbp), %eax
	movl	%eax, %edi
	call	close@PLT
	movl	-1900(%rbp), %eax
	leal	63(%rax), %edx
	testl	%eax, %eax
	cmovs	%edx, %eax
	sarl	$6, %eax
	movl	%eax, %esi
	movslq	%esi, %rax
	movq	-1680(%rbp,%rax,8), %rdx
	movl	-1900(%rbp), %eax
	andl	$63, %eax
	movl	$1, %edi
	movl	%eax, %ecx
	salq	%cl, %rdi
	movq	%rdi, %rax
	notq	%rax
	andq	%rax, %rdx
	movslq	%esi, %rax
	movq	%rdx, -1680(%rbp,%rax,8)
	movl	$0, -1892(%rbp)
	movq	_TIG_iO_tHlW_1_sendWelcomeMessage_1_opaque_ptr_1(%rip), %rdx
	movq	_TIG_iO_tHlW_1_sendWelcomeMessage_1_opaque_ptr_2(%rip), %rax
	cmpq	%rax, %rdx
	jne	.L35
.L34:
	cmpl	$9, -1892(%rbp)
	setle	%al
	movzbl	%al, %eax
	cmpl	%eax, -1900(%rbp)
	jl	.L31
	movl	-1872(%rbp), %eax
	jmp	.L48
.L31:
	movl	-1892(%rbp), %eax
	cltq
	movl	-1728(%rbp,%rax,4), %eax
	cmpl	%eax, -1900(%rbp)
	sete	%al
	movzbl	%al, %eax
	cmpl	%eax, -1880(%rbp)
	jne	.L33
	movl	-1892(%rbp), %eax
	cltq
	movl	$5, -1728(%rbp,%rax,4)
	movl	-1872(%rbp), %eax
	jmp	.L48
.L33:
	movl	$3, -1892(%rbp)
	jmp	.L34
.L38:
	movl	-1892(%rbp), %eax
	cltq
	movl	-1728(%rbp,%rax,4), %eax
	cmpl	%eax, -1900(%rbp)
	jne	.L36
	movl	-1892(%rbp), %eax
	cltq
	movl	$-1, -1728(%rbp,%rax,4)
	jmp	.L22
.L36:
	addl	$1, -1892(%rbp)
.L35:
	cmpl	$9, -1892(%rbp)
	jle	.L38
	jmp	.L22
.L29:
	leaq	-1040(%rbp), %rax
	movl	$4, %edx
	leaq	.LC13(%rip), %rcx
	movq	%rcx, %rsi
	movq	%rax, %rdi
	call	strncmp@PLT
	movl	%eax, -1852(%rbp)
	cmpl	$0, -1852(%rbp)
	jne	.L39
	leaq	-1040(%rbp), %rax
	leaq	.LC10(%rip), %rdx
	movq	%rdx, %rsi
	movq	%rax, %rdi
	call	strtok@PLT
	movq	%rax, -1792(%rbp)
	movq	-1792(%rbp), %rax
	movq	%rax, -1784(%rbp)
	leaq	.LC10(%rip), %rax
	movq	%rax, %rsi
	movl	$0, %edi
	call	strtok@PLT
	movq	%rax, -1784(%rbp)
	cmpq	$0, -1784(%rbp)
	je	.L40
	movl	-1900(%rbp), %edx
	leaq	-1360(%rbp), %rax
	movl	%edx, %ecx
	leaq	.LC14(%rip), %rdx
	movl	$64, %esi
	movq	%rax, %rdi
	movl	$0, %eax
	call	snprintf@PLT
	movq	-1784(%rbp), %rdi
	leaq	-1360(%rbp), %rcx
	leaq	-1680(%rbp), %rdx
	leaq	-1728(%rbp), %rsi
	movl	-1900(%rbp), %eax
	movq	%rdi, %r8
	movl	%eax, %edi
	call	broadcastNameChange
	jmp	.L22
.L40:
	leaq	.LC15(%rip), %rax
	movq	%rax, %rdi
	call	puts@PLT
	jmp	.L22
.L39:
	leaq	-1040(%rbp), %rcx
	leaq	-1680(%rbp), %rdx
	leaq	-1728(%rbp), %rsi
	movl	-1900(%rbp), %eax
	movl	%eax, %edi
	call	broadcast
	jmp	.L22
.L28:
	cmpq	$0, -1800(%rbp)
	jne	.L41
	movl	userCounter(%rip), %eax
	movl	%eax, %esi
	leaq	.LC16(%rip), %rax
	movq	%rax, %rdi
	movl	$0, %eax
	call	printf@PLT
	movl	-1900(%rbp), %eax
	movl	%eax, %edi
	call	close@PLT
	movl	-1900(%rbp), %eax
	leal	63(%rax), %edx
	testl	%eax, %eax
	cmovs	%edx, %eax
	sarl	$6, %eax
	movl	%eax, %esi
	movslq	%esi, %rax
	movq	-1680(%rbp,%rax,8), %rdx
	movl	-1900(%rbp), %eax
	andl	$63, %eax
	movl	$1, %edi
	movl	%eax, %ecx
	salq	%cl, %rdi
	movq	%rdi, %rax
	notq	%rax
	andq	%rax, %rdx
	movslq	%esi, %rax
	movq	%rdx, -1680(%rbp,%rax,8)
	movl	$0, -1888(%rbp)
	jmp	.L42
.L45:
	movl	-1888(%rbp), %eax
	cltq
	movl	-1728(%rbp,%rax,4), %eax
	cmpl	%eax, -1900(%rbp)
	jne	.L43
	movl	-1888(%rbp), %eax
	cltq
	movl	$-1, -1728(%rbp,%rax,4)
	jmp	.L22
.L43:
	addl	$1, -1888(%rbp)
.L42:
	cmpl	$9, -1888(%rbp)
	jle	.L45
	jmp	.L22
.L41:
	leaq	.LC17(%rip), %rax
	movq	%rax, %rdi
	call	perror@PLT
	movl	-1900(%rbp), %eax
	movl	%eax, %edi
	call	close@PLT
	movl	-1900(%rbp), %eax
	leal	63(%rax), %edx
	testl	%eax, %eax
	cmovs	%edx, %eax
	sarl	$6, %eax
	movl	%eax, %esi
	movslq	%esi, %rax
	movq	-1680(%rbp,%rax,8), %rdx
	movl	-1900(%rbp), %eax
	andl	$63, %eax
	movl	$1, %edi
	movl	%eax, %ecx
	salq	%cl, %rdi
	movq	%rdi, %rax
	notq	%rax
	andq	%rax, %rdx
	movslq	%esi, %rax
	movq	%rdx, -1680(%rbp,%rax,8)
.L22:
	addl	$1, -1900(%rbp)
.L21:
	cmpl	$1023, -1900(%rbp)
	jle	.L46
	jmp	.L47
.L48:
	movq	-8(%rbp), %rdx
	subq	%fs:40, %rdx
	je	.L49
	call	__stack_chk_fail@PLT
.L49:
	leave
	.cfi_def_cfa 7, 8
	ret
	.cfi_endproc
.LFE5:
	.size	main, .-main
	.section	.rodata
	.align 8
.LC18:
	.string	"%s has changed their name to %s"
	.text
	.globl	broadcastNameChange
	.type	broadcastNameChange, @function
broadcastNameChange:
.LFB8:
	.cfi_startproc
	endbr64
	pushq	%rbp
	.cfi_def_cfa_offset 16
	.cfi_offset 6, -16
	movq	%rsp, %rbp
	.cfi_def_cfa_register 6
	subq	$240, %rsp
	movl	%edi, -196(%rbp)
	movq	%rsi, -208(%rbp)
	movq	%rdx, -216(%rbp)
	movq	%rcx, -224(%rbp)
	movq	%r8, -232(%rbp)
	movq	%fs:40, %rax
	movq	%rax, -8(%rbp)
	xorl	%eax, %eax
#APP
# 92 "/usr/include/x86_64-linux-gnu/bits/byteswap.h" 1
	##_ANNOTATION_INITIALREGION_-TIG-iO-tHlW-1-broadcastNameChange--16
# 0 "" 2
# 96 "/usr/include/x86_64-linux-gnu/bits/byteswap.h" 1
	##_ANNOTATION_ATOMICREGION_-TIG-iO-tHlW-1-broadcastNameChange--15
# 0 "" 2
#NO_APP
	movl	$24, %edi
	call	malloc@PLT
	movq	%rax, -176(%rbp)
	movq	-176(%rbp), %rax
	movq	-176(%rbp), %rdx
	movq	%rdx, 16(%rax)
	movq	-176(%rbp), %rax
	movq	-176(%rbp), %rdx
	movq	%rdx, 8(%rax)
	movq	-176(%rbp), %rax
	movq	%rax, _TIG_iO_tHlW_1_broadcastNameChange_1_opaque_list_1(%rip)
	call	rand@PLT
	movl	%eax, -184(%rbp)
	movl	$24, %edi
	call	malloc@PLT
	movq	%rax, -168(%rbp)
	movq	-168(%rbp), %rax
	movl	$0, (%rax)
	movq	_TIG_iO_tHlW_1_broadcastNameChange_1_opaque_list_1(%rip), %rax
	movq	16(%rax), %rdx
	movq	-168(%rbp), %rax
	movq	%rdx, 16(%rax)
	movq	_TIG_iO_tHlW_1_broadcastNameChange_1_opaque_list_1(%rip), %rdx
	movq	-168(%rbp), %rax
	movq	%rdx, 8(%rax)
	movq	_TIG_iO_tHlW_1_broadcastNameChange_1_opaque_list_1(%rip), %rax
	movq	16(%rax), %rax
	movq	-168(%rbp), %rdx
	movq	%rdx, 8(%rax)
	movq	_TIG_iO_tHlW_1_broadcastNameChange_1_opaque_list_1(%rip), %rax
	movq	-168(%rbp), %rdx
	movq	%rdx, 16(%rax)
	call	rand@PLT
	movl	%eax, -180(%rbp)
	movl	$24, %edi
	call	malloc@PLT
	movq	%rax, -160(%rbp)
	movq	-160(%rbp), %rax
	movl	-180(%rbp), %edx
	movl	%edx, (%rax)
	movq	_TIG_iO_tHlW_1_broadcastNameChange_1_opaque_list_1(%rip), %rax
	movq	16(%rax), %rdx
	movq	-160(%rbp), %rax
	movq	%rdx, 16(%rax)
	movq	_TIG_iO_tHlW_1_broadcastNameChange_1_opaque_list_1(%rip), %rdx
	movq	-160(%rbp), %rax
	movq	%rdx, 8(%rax)
	movq	_TIG_iO_tHlW_1_broadcastNameChange_1_opaque_list_1(%rip), %rax
	movq	16(%rax), %rax
	movq	-160(%rbp), %rdx
	movq	%rdx, 8(%rax)
	movq	_TIG_iO_tHlW_1_broadcastNameChange_1_opaque_list_1(%rip), %rax
	movq	-160(%rbp), %rdx
	movq	%rdx, 16(%rax)
	movq	_TIG_iO_tHlW_1_broadcastNameChange_1_opaque_list_1(%rip), %rax
	movq	16(%rax), %rax
	movq	%rax, _TIG_iO_tHlW_1_broadcastNameChange_1_opaque_ptr_1(%rip)
	movq	_TIG_iO_tHlW_1_broadcastNameChange_1_opaque_ptr_1(%rip), %rax
	movq	%rax, _TIG_iO_tHlW_1_broadcastNameChange_1_opaque_ptr_2(%rip)
	nop
	nop
	movq	_TIG_iO_tHlW_1_sendWelcomeMessage_1_opaque_ptr_1(%rip), %rdx
	movq	_TIG_iO_tHlW_1_sendWelcomeMessage_1_opaque_ptr_2(%rip), %rax
	cmpq	%rax, %rdx
	je	.L51
	movq	-232(%rbp), %rcx
	movq	-224(%rbp), %rdx
	leaq	-144(%rbp), %rax
	movq	%rcx, %r8
	movq	%rdx, %rcx
	leaq	.LC18(%rip), %rdx
	movl	$128, %esi
	movq	%rax, %rdi
	movl	$0, %eax
	call	snprintf@PLT
	leaq	-144(%rbp), %rcx
	movq	-216(%rbp), %rdx
	movq	-208(%rbp), %rsi
	movl	-196(%rbp), %eax
	movl	%eax, %edi
	call	broadcast
	jmp	.L50
.L51:
	movq	-232(%rbp), %rax
	leaq	-1(%rax), %rdi
	movq	-224(%rbp), %rax
	leaq	1(%rax), %rcx
	leaq	1+.LC18(%rip), %rdx
	leaq	-144(%rbp), %rax
	addq	$1, %rax
	movq	-152(%rbp), %rsi
	movq	%rdi, %r8
	movq	%rax, %rdi
	movl	$0, %eax
	call	snprintf@PLT
	leaq	-144(%rbp), %rax
	addq	$1, %rax
	movq	-216(%rbp), %rdx
	subq	$-128, %rdx
	movq	-208(%rbp), %rcx
	leaq	-4(%rcx), %rsi
	movl	-196(%rbp), %ecx
	movl	%ecx, %edi
	orl	$2, %edi
	movq	%rax, %rcx
	call	broadcast
	nop
.L50:
	movq	-8(%rbp), %rax
	subq	%fs:40, %rax
	je	.L54
	call	__stack_chk_fail@PLT
.L54:
	leave
	.cfi_def_cfa 7, 8
	ret
	.cfi_endproc
.LFE8:
	.size	broadcastNameChange, .-broadcastNameChange
	.section	.rodata
.LC19:
	.string	"Welcome, %s!"
	.text
	.globl	sendWelcomeMessage
	.type	sendWelcomeMessage, @function
sendWelcomeMessage:
.LFB9:
	.cfi_startproc
	endbr64
	pushq	%rbp
	.cfi_def_cfa_offset 16
	.cfi_offset 6, -16
	movq	%rsp, %rbp
	.cfi_def_cfa_register 6
	subq	$224, %rsp
	movl	%edi, -212(%rbp)
	movq	%rsi, -224(%rbp)
	movq	%fs:40, %rax
	movq	%rax, -8(%rbp)
	xorl	%eax, %eax
#APP
# 53 "nim3xh_chat---Network-Chat-Client-C-Programming_server.c" 1
	##_ANNOTATION_INITIALREGION_-TIG-iO-tHlW-1-sendWelcomeMessage--22
# 0 "" 2
# 57 "nim3xh_chat---Network-Chat-Client-C-Programming_server.c" 1
	##_ANNOTATION_ATOMICREGION_-TIG-iO-tHlW-1-sendWelcomeMessage--21
# 0 "" 2
#NO_APP
	movl	$24, %edi
	call	malloc@PLT
	movq	%rax, -184(%rbp)
	movq	-184(%rbp), %rax
	movq	-184(%rbp), %rdx
	movq	%rdx, (%rax)
	movq	-184(%rbp), %rax
	movq	-184(%rbp), %rdx
	movq	%rdx, 16(%rax)
	movq	-184(%rbp), %rax
	movq	%rax, _TIG_iO_tHlW_1_sendWelcomeMessage_1_opaque_list_1(%rip)
	call	rand@PLT
	movl	%eax, -196(%rbp)
	movl	$24, %edi
	call	malloc@PLT
	movq	%rax, -176(%rbp)
	movq	-176(%rbp), %rax
	movl	$0, 8(%rax)
	movq	_TIG_iO_tHlW_1_sendWelcomeMessage_1_opaque_list_1(%rip), %rax
	movq	(%rax), %rdx
	movq	-176(%rbp), %rax
	movq	%rdx, (%rax)
	movq	_TIG_iO_tHlW_1_sendWelcomeMessage_1_opaque_list_1(%rip), %rdx
	movq	-176(%rbp), %rax
	movq	%rdx, 16(%rax)
	movq	_TIG_iO_tHlW_1_sendWelcomeMessage_1_opaque_list_1(%rip), %rax
	movq	(%rax), %rax
	movq	-176(%rbp), %rdx
	movq	%rdx, 16(%rax)
	movq	_TIG_iO_tHlW_1_sendWelcomeMessage_1_opaque_list_1(%rip), %rax
	movq	-176(%rbp), %rdx
	movq	%rdx, (%rax)
	call	rand@PLT
	movl	%eax, -192(%rbp)
	movl	$24, %edi
	call	malloc@PLT
	movq	%rax, -168(%rbp)
	movq	-168(%rbp), %rax
	movl	-192(%rbp), %edx
	movl	%edx, 8(%rax)
	movq	_TIG_iO_tHlW_1_sendWelcomeMessage_1_opaque_list_1(%rip), %rax
	movq	(%rax), %rdx
	movq	-168(%rbp), %rax
	movq	%rdx, (%rax)
	movq	_TIG_iO_tHlW_1_sendWelcomeMessage_1_opaque_list_1(%rip), %rdx
	movq	-168(%rbp), %rax
	movq	%rdx, 16(%rax)
	movq	_TIG_iO_tHlW_1_sendWelcomeMessage_1_opaque_list_1(%rip), %rax
	movq	(%rax), %rax
	movq	-168(%rbp), %rdx
	movq	%rdx, 16(%rax)
	movq	_TIG_iO_tHlW_1_sendWelcomeMessage_1_opaque_list_1(%rip), %rax
	movq	-168(%rbp), %rdx
	movq	%rdx, (%rax)
	call	rand@PLT
	movl	%eax, -188(%rbp)
	movl	$24, %edi
	call	malloc@PLT
	movq	%rax, -160(%rbp)
	movl	-188(%rbp), %eax
	leal	(%rax,%rax), %edx
	movq	-160(%rbp), %rax
	movl	%edx, 8(%rax)
	movq	_TIG_iO_tHlW_1_sendWelcomeMessage_1_opaque_list_1(%rip), %rax
	movq	(%rax), %rdx
	movq	-160(%rbp), %rax
	movq	%rdx, (%rax)
	movq	_TIG_iO_tHlW_1_sendWelcomeMessage_1_opaque_list_1(%rip), %rdx
	movq	-160(%rbp), %rax
	movq	%rdx, 16(%rax)
	movq	_TIG_iO_tHlW_1_sendWelcomeMessage_1_opaque_list_1(%rip), %rax
	movq	(%rax), %rax
	movq	-160(%rbp), %rdx
	movq	%rdx, 16(%rax)
	movq	_TIG_iO_tHlW_1_sendWelcomeMessage_1_opaque_list_1(%rip), %rax
	movq	-160(%rbp), %rdx
	movq	%rdx, (%rax)
	movq	_TIG_iO_tHlW_1_sendWelcomeMessage_1_opaque_list_1(%rip), %rax
	movq	(%rax), %rax
	movq	%rax, _TIG_iO_tHlW_1_sendWelcomeMessage_1_opaque_ptr_1(%rip)
	movq	_TIG_iO_tHlW_1_sendWelcomeMessage_1_opaque_ptr_1(%rip), %rax
	movq	%rax, _TIG_iO_tHlW_1_sendWelcomeMessage_1_opaque_ptr_2(%rip)
	movq	_TIG_iO_tHlW_1_sendWelcomeMessage_1_opaque_ptr_2(%rip), %rax
	movq	(%rax), %rax
	movq	%rax, _TIG_iO_tHlW_1_sendWelcomeMessage_1_opaque_ptr_2(%rip)
	nop
	nop
	movq	_TIG_iO_tHlW_1_sendWelcomeMessage_1_opaque_ptr_1(%rip), %rdx
	movq	_TIG_iO_tHlW_1_sendWelcomeMessage_1_opaque_ptr_2(%rip), %rax
	cmpq	%rax, %rdx
	je	.L59
	movq	-224(%rbp), %rdx
	leaq	-144(%rbp), %rax
	movq	%rdx, %rcx
	leaq	.LC19(%rip), %rdx
	movl	$128, %esi
	movq	%rax, %rdi
	movl	$0, %eax
	call	snprintf@PLT
	leaq	-144(%rbp), %rax
	movq	%rax, %rdi
	call	strlen@PLT
	movq	%rax, -152(%rbp)
	movq	-152(%rbp), %rdx
	leaq	-144(%rbp), %rsi
	movl	-212(%rbp), %eax
	movl	$0, %ecx
	movl	%eax, %edi
	call	send@PLT
	nop
.L59:
	nop
	movq	-8(%rbp), %rax
	subq	%fs:40, %rax
	je	.L58
	call	__stack_chk_fail@PLT
.L58:
	leave
	.cfi_def_cfa 7, 8
	ret
	.cfi_endproc
.LFE9:
	.size	sendWelcomeMessage, .-sendWelcomeMessage
	.globl	generateDefaultName
	.type	generateDefaultName, @function
generateDefaultName:
.LFB10:
	.cfi_startproc
	endbr64
	pushq	%rbp
	.cfi_def_cfa_offset 16
	.cfi_offset 6, -16
	movq	%rsp, %rbp
	.cfi_def_cfa_register 6
	subq	$48, %rsp
	movq	%rdi, -40(%rbp)
	movl	%esi, -44(%rbp)
#APP
# 43 "nim3xh_chat---Network-Chat-Client-C-Programming_server.c" 1
	##_ANNOTATION_INITIALREGION_-TIG-iO-tHlW-1-generateDefaultName--18
# 0 "" 2
# 47 "nim3xh_chat---Network-Chat-Client-C-Programming_server.c" 1
	##_ANNOTATION_ATOMICREGION_-TIG-iO-tHlW-1-generateDefaultName--17
# 0 "" 2
#NO_APP
	movl	$24, %edi
	call	malloc@PLT
	movq	%rax, -24(%rbp)
	movq	-24(%rbp), %rax
	movq	-24(%rbp), %rdx
	movq	%rdx, 8(%rax)
	movq	-24(%rbp), %rax
	movq	-24(%rbp), %rdx
	movq	%rdx, (%rax)
	movq	-24(%rbp), %rax
	movq	%rax, _TIG_iO_tHlW_1_generateDefaultName_1_opaque_list_1(%rip)
	call	rand@PLT
	movl	%eax, -32(%rbp)
	movl	$24, %edi
	call	malloc@PLT
	movq	%rax, -16(%rbp)
	movq	-16(%rbp), %rax
	movl	$0, 16(%rax)
	movq	_TIG_iO_tHlW_1_generateDefaultName_1_opaque_list_1(%rip), %rax
	movq	8(%rax), %rdx
	movq	-16(%rbp), %rax
	movq	%rdx, 8(%rax)
	movq	_TIG_iO_tHlW_1_generateDefaultName_1_opaque_list_1(%rip), %rdx
	movq	-16(%rbp), %rax
	movq	%rdx, (%rax)
	movq	_TIG_iO_tHlW_1_generateDefaultName_1_opaque_list_1(%rip), %rax
	movq	8(%rax), %rax
	movq	-16(%rbp), %rdx
	movq	%rdx, (%rax)
	movq	_TIG_iO_tHlW_1_generateDefaultName_1_opaque_list_1(%rip), %rax
	movq	-16(%rbp), %rdx
	movq	%rdx, 8(%rax)
	call	rand@PLT
	movl	%eax, -28(%rbp)
	movl	$24, %edi
	call	malloc@PLT
	movq	%rax, -8(%rbp)
	movq	-8(%rbp), %rax
	movl	-28(%rbp), %edx
	movl	%edx, 16(%rax)
	movq	_TIG_iO_tHlW_1_generateDefaultName_1_opaque_list_1(%rip), %rax
	movq	8(%rax), %rdx
	movq	-8(%rbp), %rax
	movq	%rdx, 8(%rax)
	movq	_TIG_iO_tHlW_1_generateDefaultName_1_opaque_list_1(%rip), %rdx
	movq	-8(%rbp), %rax
	movq	%rdx, (%rax)
	movq	_TIG_iO_tHlW_1_generateDefaultName_1_opaque_list_1(%rip), %rax
	movq	8(%rax), %rax
	movq	-8(%rbp), %rdx
	movq	%rdx, (%rax)
	movq	_TIG_iO_tHlW_1_generateDefaultName_1_opaque_list_1(%rip), %rax
	movq	-8(%rbp), %rdx
	movq	%rdx, 8(%rax)
	movq	_TIG_iO_tHlW_1_generateDefaultName_1_opaque_list_1(%rip), %rax
	movq	8(%rax), %rax
	movq	%rax, _TIG_iO_tHlW_1_generateDefaultName_1_opaque_ptr_1(%rip)
	movq	_TIG_iO_tHlW_1_generateDefaultName_1_opaque_ptr_1(%rip), %rax
	movq	%rax, _TIG_iO_tHlW_1_generateDefaultName_1_opaque_ptr_2(%rip)
	movq	_TIG_iO_tHlW_1_generateDefaultName_1_opaque_ptr_2(%rip), %rax
	movq	8(%rax), %rax
	movq	%rax, _TIG_iO_tHlW_1_generateDefaultName_1_opaque_ptr_2(%rip)
	nop
	nop
	movl	-44(%rbp), %edx
	movq	-40(%rbp), %rax
	movl	%edx, %ecx
	leaq	.LC14(%rip), %rdx
	movl	$64, %esi
	movq	%rax, %rdi
	movl	$0, %eax
	call	snprintf@PLT
	movl	userCounter(%rip), %eax
	addl	$1, %eax
	movl	%eax, userCounter(%rip)
	movq	_TIG_iO_tHlW_1_sendWelcomeMessage_1_opaque_ptr_1(%rip), %rdx
	movq	_TIG_iO_tHlW_1_sendWelcomeMessage_1_opaque_ptr_2(%rip), %rax
	cmpq	%rax, %rdx
	leave
	.cfi_def_cfa 7, 8
	ret
	.cfi_endproc
.LFE10:
	.size	generateDefaultName, .-generateDefaultName
	.ident	"GCC: (Ubuntu 11.4.0-1ubuntu1~22.04) 11.4.0"
	.section	.note.GNU-stack,"",@progbits
	.section	.note.gnu.property,"a"
	.align 8
	.long	1f - 0f
	.long	4f - 1f
	.long	5
0:
	.string	"GNU"
1:
	.align 8
	.long	0xc0000002
	.long	3f - 2f
2:
	.long	0x3
3:
	.align 8
4:
