	.file	"nus-apr_itsp-benchmark_Main_opaque.c"
	.text
	.globl	_TIG_iO_swyp_1___uint16_identity_1_opaque_ptr_1
	.bss
	.align 8
	.type	_TIG_iO_swyp_1___uint16_identity_1_opaque_ptr_1, @object
	.size	_TIG_iO_swyp_1___uint16_identity_1_opaque_ptr_1, 8
_TIG_iO_swyp_1___uint16_identity_1_opaque_ptr_1:
	.zero	8
	.globl	_TIG_iO_swyp_1___bswap_32_1_opaque_list_1
	.align 8
	.type	_TIG_iO_swyp_1___bswap_32_1_opaque_list_1, @object
	.size	_TIG_iO_swyp_1___bswap_32_1_opaque_list_1, 8
_TIG_iO_swyp_1___bswap_32_1_opaque_list_1:
	.zero	8
	.globl	_TIG_iO_swyp_1___bswap_16_1_opaque_ptr_1
	.align 8
	.type	_TIG_iO_swyp_1___bswap_16_1_opaque_ptr_1, @object
	.size	_TIG_iO_swyp_1___bswap_16_1_opaque_ptr_1, 8
_TIG_iO_swyp_1___bswap_16_1_opaque_ptr_1:
	.zero	8
	.globl	_TIG_iO_swyp_1___uint32_identity_1_opaque_list_2
	.align 8
	.type	_TIG_iO_swyp_1___uint32_identity_1_opaque_list_2, @object
	.size	_TIG_iO_swyp_1___uint32_identity_1_opaque_list_2, 8
_TIG_iO_swyp_1___uint32_identity_1_opaque_list_2:
	.zero	8
	.globl	_TIG_iO_swyp_1___bswap_64_1_opaque_ptr_2
	.align 8
	.type	_TIG_iO_swyp_1___bswap_64_1_opaque_ptr_2, @object
	.size	_TIG_iO_swyp_1___bswap_64_1_opaque_ptr_2, 8
_TIG_iO_swyp_1___bswap_64_1_opaque_ptr_2:
	.zero	8
	.globl	_TIG_iO_swyp_1___bswap_64_1_opaque_list_1
	.align 8
	.type	_TIG_iO_swyp_1___bswap_64_1_opaque_list_1, @object
	.size	_TIG_iO_swyp_1___bswap_64_1_opaque_list_1, 8
_TIG_iO_swyp_1___bswap_64_1_opaque_list_1:
	.zero	8
	.globl	_TIG_IZ_swyp_argc
	.align 4
	.type	_TIG_IZ_swyp_argc, @object
	.size	_TIG_IZ_swyp_argc, 4
_TIG_IZ_swyp_argc:
	.zero	4
	.globl	_TIG_iO_swyp_1_main_1_opaque_list_2
	.align 8
	.type	_TIG_iO_swyp_1_main_1_opaque_list_2, @object
	.size	_TIG_iO_swyp_1_main_1_opaque_list_2, 8
_TIG_iO_swyp_1_main_1_opaque_list_2:
	.zero	8
	.globl	_TIG_iO_swyp_1___bswap_16_1_opaque_list_2
	.align 8
	.type	_TIG_iO_swyp_1___bswap_16_1_opaque_list_2, @object
	.size	_TIG_iO_swyp_1___bswap_16_1_opaque_list_2, 8
_TIG_iO_swyp_1___bswap_16_1_opaque_list_2:
	.zero	8
	.globl	_TIG_iO_swyp_1___bswap_32_1_opaque_list_2
	.align 8
	.type	_TIG_iO_swyp_1___bswap_32_1_opaque_list_2, @object
	.size	_TIG_iO_swyp_1___bswap_32_1_opaque_list_2, 8
_TIG_iO_swyp_1___bswap_32_1_opaque_list_2:
	.zero	8
	.globl	_TIG_iO_swyp_1_push_1_opaque_list_1
	.align 8
	.type	_TIG_iO_swyp_1_push_1_opaque_list_1, @object
	.size	_TIG_iO_swyp_1_push_1_opaque_list_1, 8
_TIG_iO_swyp_1_push_1_opaque_list_1:
	.zero	8
	.globl	_TIG_iO_swyp_1___uint64_identity_1_opaque_list_2
	.align 8
	.type	_TIG_iO_swyp_1___uint64_identity_1_opaque_list_2, @object
	.size	_TIG_iO_swyp_1___uint64_identity_1_opaque_list_2, 8
_TIG_iO_swyp_1___uint64_identity_1_opaque_list_2:
	.zero	8
	.globl	_TIG_IZ_swyp_argv
	.align 8
	.type	_TIG_IZ_swyp_argv, @object
	.size	_TIG_IZ_swyp_argv, 8
_TIG_IZ_swyp_argv:
	.zero	8
	.globl	_TIG_iO_swyp_1___uint16_identity_1_opaque_list_2
	.align 8
	.type	_TIG_iO_swyp_1___uint16_identity_1_opaque_list_2, @object
	.size	_TIG_iO_swyp_1___uint16_identity_1_opaque_list_2, 8
_TIG_iO_swyp_1___uint16_identity_1_opaque_list_2:
	.zero	8
	.globl	_TIG_iO_swyp_1___bswap_64_1_opaque_ptr_1
	.align 8
	.type	_TIG_iO_swyp_1___bswap_64_1_opaque_ptr_1, @object
	.size	_TIG_iO_swyp_1___bswap_64_1_opaque_ptr_1, 8
_TIG_iO_swyp_1___bswap_64_1_opaque_ptr_1:
	.zero	8
	.globl	_TIG_iO_swyp_1_printList_1_opaque_list_1
	.align 8
	.type	_TIG_iO_swyp_1_printList_1_opaque_list_1, @object
	.size	_TIG_iO_swyp_1_printList_1_opaque_list_1, 8
_TIG_iO_swyp_1_printList_1_opaque_list_1:
	.zero	8
	.globl	_TIG_iO_swyp_1_isPalindrome_1_opaque_list_1
	.align 8
	.type	_TIG_iO_swyp_1_isPalindrome_1_opaque_list_1, @object
	.size	_TIG_iO_swyp_1_isPalindrome_1_opaque_list_1, 8
_TIG_iO_swyp_1_isPalindrome_1_opaque_list_1:
	.zero	8
	.globl	_TIG_iO_swyp_1___uint64_identity_1_opaque_ptr_2
	.align 8
	.type	_TIG_iO_swyp_1___uint64_identity_1_opaque_ptr_2, @object
	.size	_TIG_iO_swyp_1___uint64_identity_1_opaque_ptr_2, 8
_TIG_iO_swyp_1___uint64_identity_1_opaque_ptr_2:
	.zero	8
	.globl	_TIG_iO_swyp_1___bswap_32_1_opaque_ptr_2
	.align 8
	.type	_TIG_iO_swyp_1___bswap_32_1_opaque_ptr_2, @object
	.size	_TIG_iO_swyp_1___bswap_32_1_opaque_ptr_2, 8
_TIG_iO_swyp_1___bswap_32_1_opaque_ptr_2:
	.zero	8
	.globl	_TIG_iO_swyp_1___bswap_32_1_opaque_ptr_1
	.align 8
	.type	_TIG_iO_swyp_1___bswap_32_1_opaque_ptr_1, @object
	.size	_TIG_iO_swyp_1___bswap_32_1_opaque_ptr_1, 8
_TIG_iO_swyp_1___bswap_32_1_opaque_ptr_1:
	.zero	8
	.globl	_TIG_iO_swyp_1_compareLists_1_opaque_ptr_2
	.align 8
	.type	_TIG_iO_swyp_1_compareLists_1_opaque_ptr_2, @object
	.size	_TIG_iO_swyp_1_compareLists_1_opaque_ptr_2, 8
_TIG_iO_swyp_1_compareLists_1_opaque_ptr_2:
	.zero	8
	.globl	_TIG_iO_swyp_1_reverse_1_opaque_ptr_1
	.align 8
	.type	_TIG_iO_swyp_1_reverse_1_opaque_ptr_1, @object
	.size	_TIG_iO_swyp_1_reverse_1_opaque_ptr_1, 8
_TIG_iO_swyp_1_reverse_1_opaque_ptr_1:
	.zero	8
	.globl	_TIG_iO_swyp_1___uint32_identity_1_opaque_ptr_1
	.align 8
	.type	_TIG_iO_swyp_1___uint32_identity_1_opaque_ptr_1, @object
	.size	_TIG_iO_swyp_1___uint32_identity_1_opaque_ptr_1, 8
_TIG_iO_swyp_1___uint32_identity_1_opaque_ptr_1:
	.zero	8
	.globl	_TIG_iO_swyp_1_compareLists_1_opaque_ptr_1
	.align 8
	.type	_TIG_iO_swyp_1_compareLists_1_opaque_ptr_1, @object
	.size	_TIG_iO_swyp_1_compareLists_1_opaque_ptr_1, 8
_TIG_iO_swyp_1_compareLists_1_opaque_ptr_1:
	.zero	8
	.globl	_TIG_iO_swyp_1_main_1_opaque_ptr_2
	.align 8
	.type	_TIG_iO_swyp_1_main_1_opaque_ptr_2, @object
	.size	_TIG_iO_swyp_1_main_1_opaque_ptr_2, 8
_TIG_iO_swyp_1_main_1_opaque_ptr_2:
	.zero	8
	.globl	_TIG_iO_swyp_1_isPalindrome_1_opaque_ptr_2
	.align 8
	.type	_TIG_iO_swyp_1_isPalindrome_1_opaque_ptr_2, @object
	.size	_TIG_iO_swyp_1_isPalindrome_1_opaque_ptr_2, 8
_TIG_iO_swyp_1_isPalindrome_1_opaque_ptr_2:
	.zero	8
	.globl	_TIG_iO_swyp_1___uint64_identity_1_opaque_ptr_1
	.align 8
	.type	_TIG_iO_swyp_1___uint64_identity_1_opaque_ptr_1, @object
	.size	_TIG_iO_swyp_1___uint64_identity_1_opaque_ptr_1, 8
_TIG_iO_swyp_1___uint64_identity_1_opaque_ptr_1:
	.zero	8
	.globl	_TIG_IZ_swyp_envp
	.align 8
	.type	_TIG_IZ_swyp_envp, @object
	.size	_TIG_IZ_swyp_envp, 8
_TIG_IZ_swyp_envp:
	.zero	8
	.globl	_TIG_iO_swyp_1_main_1_opaque_list_1
	.align 8
	.type	_TIG_iO_swyp_1_main_1_opaque_list_1, @object
	.size	_TIG_iO_swyp_1_main_1_opaque_list_1, 8
_TIG_iO_swyp_1_main_1_opaque_list_1:
	.zero	8
	.globl	_TIG_iO_swyp_1_push_1_opaque_ptr_2
	.align 8
	.type	_TIG_iO_swyp_1_push_1_opaque_ptr_2, @object
	.size	_TIG_iO_swyp_1_push_1_opaque_ptr_2, 8
_TIG_iO_swyp_1_push_1_opaque_ptr_2:
	.zero	8
	.globl	_TIG_iO_swyp_1___bswap_16_1_opaque_ptr_2
	.align 8
	.type	_TIG_iO_swyp_1___bswap_16_1_opaque_ptr_2, @object
	.size	_TIG_iO_swyp_1___bswap_16_1_opaque_ptr_2, 8
_TIG_iO_swyp_1___bswap_16_1_opaque_ptr_2:
	.zero	8
	.globl	_TIG_iO_swyp_1_main_1_opaque_ptr_1
	.align 8
	.type	_TIG_iO_swyp_1_main_1_opaque_ptr_1, @object
	.size	_TIG_iO_swyp_1_main_1_opaque_ptr_1, 8
_TIG_iO_swyp_1_main_1_opaque_ptr_1:
	.zero	8
	.globl	_TIG_iO_swyp_1_reverse_1_opaque_list_2
	.align 8
	.type	_TIG_iO_swyp_1_reverse_1_opaque_list_2, @object
	.size	_TIG_iO_swyp_1_reverse_1_opaque_list_2, 8
_TIG_iO_swyp_1_reverse_1_opaque_list_2:
	.zero	8
	.globl	_TIG_iO_swyp_1_printList_1_opaque_ptr_2
	.align 8
	.type	_TIG_iO_swyp_1_printList_1_opaque_ptr_2, @object
	.size	_TIG_iO_swyp_1_printList_1_opaque_ptr_2, 8
_TIG_iO_swyp_1_printList_1_opaque_ptr_2:
	.zero	8
	.globl	_TIG_iO_swyp_1___bswap_64_1_opaque_list_2
	.align 8
	.type	_TIG_iO_swyp_1___bswap_64_1_opaque_list_2, @object
	.size	_TIG_iO_swyp_1___bswap_64_1_opaque_list_2, 8
_TIG_iO_swyp_1___bswap_64_1_opaque_list_2:
	.zero	8
	.globl	_TIG_iO_swyp_1_isPalindrome_1_opaque_list_2
	.align 8
	.type	_TIG_iO_swyp_1_isPalindrome_1_opaque_list_2, @object
	.size	_TIG_iO_swyp_1_isPalindrome_1_opaque_list_2, 8
_TIG_iO_swyp_1_isPalindrome_1_opaque_list_2:
	.zero	8
	.globl	_TIG_iO_swyp_1___uint16_identity_1_opaque_list_1
	.align 8
	.type	_TIG_iO_swyp_1___uint16_identity_1_opaque_list_1, @object
	.size	_TIG_iO_swyp_1___uint16_identity_1_opaque_list_1, 8
_TIG_iO_swyp_1___uint16_identity_1_opaque_list_1:
	.zero	8
	.globl	_TIG_iO_swyp_1_reverse_1_opaque_ptr_2
	.align 8
	.type	_TIG_iO_swyp_1_reverse_1_opaque_ptr_2, @object
	.size	_TIG_iO_swyp_1_reverse_1_opaque_ptr_2, 8
_TIG_iO_swyp_1_reverse_1_opaque_ptr_2:
	.zero	8
	.globl	_TIG_iO_swyp_1___bswap_16_1_opaque_list_1
	.align 8
	.type	_TIG_iO_swyp_1___bswap_16_1_opaque_list_1, @object
	.size	_TIG_iO_swyp_1___bswap_16_1_opaque_list_1, 8
_TIG_iO_swyp_1___bswap_16_1_opaque_list_1:
	.zero	8
	.globl	_TIG_iO_swyp_1___uint32_identity_1_opaque_list_1
	.align 8
	.type	_TIG_iO_swyp_1___uint32_identity_1_opaque_list_1, @object
	.size	_TIG_iO_swyp_1___uint32_identity_1_opaque_list_1, 8
_TIG_iO_swyp_1___uint32_identity_1_opaque_list_1:
	.zero	8
	.globl	_TIG_iO_swyp_1___uint64_identity_1_opaque_list_1
	.align 8
	.type	_TIG_iO_swyp_1___uint64_identity_1_opaque_list_1, @object
	.size	_TIG_iO_swyp_1___uint64_identity_1_opaque_list_1, 8
_TIG_iO_swyp_1___uint64_identity_1_opaque_list_1:
	.zero	8
	.globl	_TIG_iO_swyp_1___uint32_identity_1_opaque_ptr_2
	.align 8
	.type	_TIG_iO_swyp_1___uint32_identity_1_opaque_ptr_2, @object
	.size	_TIG_iO_swyp_1___uint32_identity_1_opaque_ptr_2, 8
_TIG_iO_swyp_1___uint32_identity_1_opaque_ptr_2:
	.zero	8
	.globl	_TIG_iO_swyp_1_isPalindrome_1_opaque_ptr_1
	.align 8
	.type	_TIG_iO_swyp_1_isPalindrome_1_opaque_ptr_1, @object
	.size	_TIG_iO_swyp_1_isPalindrome_1_opaque_ptr_1, 8
_TIG_iO_swyp_1_isPalindrome_1_opaque_ptr_1:
	.zero	8
	.globl	_TIG_iO_swyp_1_compareLists_1_opaque_list_2
	.align 8
	.type	_TIG_iO_swyp_1_compareLists_1_opaque_list_2, @object
	.size	_TIG_iO_swyp_1_compareLists_1_opaque_list_2, 8
_TIG_iO_swyp_1_compareLists_1_opaque_list_2:
	.zero	8
	.globl	_TIG_iO_swyp_1___uint16_identity_1_opaque_ptr_2
	.align 8
	.type	_TIG_iO_swyp_1___uint16_identity_1_opaque_ptr_2, @object
	.size	_TIG_iO_swyp_1___uint16_identity_1_opaque_ptr_2, 8
_TIG_iO_swyp_1___uint16_identity_1_opaque_ptr_2:
	.zero	8
	.globl	_TIG_iO_swyp_1_push_1_opaque_ptr_1
	.align 8
	.type	_TIG_iO_swyp_1_push_1_opaque_ptr_1, @object
	.size	_TIG_iO_swyp_1_push_1_opaque_ptr_1, 8
_TIG_iO_swyp_1_push_1_opaque_ptr_1:
	.zero	8
	.globl	_TIG_iO_swyp_1_compareLists_1_opaque_list_1
	.align 8
	.type	_TIG_iO_swyp_1_compareLists_1_opaque_list_1, @object
	.size	_TIG_iO_swyp_1_compareLists_1_opaque_list_1, 8
_TIG_iO_swyp_1_compareLists_1_opaque_list_1:
	.zero	8
	.globl	_TIG_iO_swyp_1_printList_1_opaque_list_2
	.align 8
	.type	_TIG_iO_swyp_1_printList_1_opaque_list_2, @object
	.size	_TIG_iO_swyp_1_printList_1_opaque_list_2, 8
_TIG_iO_swyp_1_printList_1_opaque_list_2:
	.zero	8
	.globl	_TIG_iO_swyp_1_push_1_opaque_list_2
	.align 8
	.type	_TIG_iO_swyp_1_push_1_opaque_list_2, @object
	.size	_TIG_iO_swyp_1_push_1_opaque_list_2, 8
_TIG_iO_swyp_1_push_1_opaque_list_2:
	.zero	8
	.globl	_TIG_iO_swyp_1_reverse_1_opaque_list_1
	.align 8
	.type	_TIG_iO_swyp_1_reverse_1_opaque_list_1, @object
	.size	_TIG_iO_swyp_1_reverse_1_opaque_list_1, 8
_TIG_iO_swyp_1_reverse_1_opaque_list_1:
	.zero	8
	.globl	_TIG_iO_swyp_1_printList_1_opaque_ptr_1
	.align 8
	.type	_TIG_iO_swyp_1_printList_1_opaque_ptr_1, @object
	.size	_TIG_iO_swyp_1_printList_1_opaque_ptr_1, 8
_TIG_iO_swyp_1_printList_1_opaque_ptr_1:
	.zero	8
	.text
	.globl	push
	.type	push, @function
push:
.LFB0:
	.cfi_startproc
	endbr64
	pushq	%rbp
	.cfi_def_cfa_offset 16
	.cfi_offset 6, -16
	movq	%rsp, %rbp
	.cfi_def_cfa_register 6
	subq	$80, %rsp
	movq	%rdi, -72(%rbp)
	movl	%esi, %eax
	movb	%al, -76(%rbp)
#APP
# 80 "/usr/include/stdlib.h" 1
	##_ANNOTATION_INITIALREGION_-TIG-iO-swyp-1-push--22
# 0 "" 2
# 84 "/usr/include/stdlib.h" 1
	##_ANNOTATION_ATOMICREGION_-TIG-iO-swyp-1-push--21
# 0 "" 2
#NO_APP
	movl	$24, %edi
	call	malloc@PLT
	movq	%rax, -48(%rbp)
	movq	-48(%rbp), %rax
	movq	-48(%rbp), %rdx
	movq	%rdx, (%rax)
	movq	-48(%rbp), %rax
	movq	-48(%rbp), %rdx
	movq	%rdx, 16(%rax)
	movq	-48(%rbp), %rax
	movq	%rax, _TIG_iO_swyp_1_push_1_opaque_list_1(%rip)
	call	rand@PLT
	movl	%eax, -60(%rbp)
	movl	$24, %edi
	call	malloc@PLT
	movq	%rax, -40(%rbp)
	movq	-40(%rbp), %rax
	movl	$0, 8(%rax)
	movq	_TIG_iO_swyp_1_push_1_opaque_list_1(%rip), %rax
	movq	(%rax), %rdx
	movq	-40(%rbp), %rax
	movq	%rdx, (%rax)
	movq	_TIG_iO_swyp_1_push_1_opaque_list_1(%rip), %rdx
	movq	-40(%rbp), %rax
	movq	%rdx, 16(%rax)
	movq	_TIG_iO_swyp_1_push_1_opaque_list_1(%rip), %rax
	movq	(%rax), %rax
	movq	-40(%rbp), %rdx
	movq	%rdx, 16(%rax)
	movq	_TIG_iO_swyp_1_push_1_opaque_list_1(%rip), %rax
	movq	-40(%rbp), %rdx
	movq	%rdx, (%rax)
	call	rand@PLT
	movl	%eax, -56(%rbp)
	movl	$24, %edi
	call	malloc@PLT
	movq	%rax, -32(%rbp)
	movq	-32(%rbp), %rax
	movl	-56(%rbp), %edx
	movl	%edx, 8(%rax)
	movq	_TIG_iO_swyp_1_push_1_opaque_list_1(%rip), %rax
	movq	(%rax), %rdx
	movq	-32(%rbp), %rax
	movq	%rdx, (%rax)
	movq	_TIG_iO_swyp_1_push_1_opaque_list_1(%rip), %rdx
	movq	-32(%rbp), %rax
	movq	%rdx, 16(%rax)
	movq	_TIG_iO_swyp_1_push_1_opaque_list_1(%rip), %rax
	movq	(%rax), %rax
	movq	-32(%rbp), %rdx
	movq	%rdx, 16(%rax)
	movq	_TIG_iO_swyp_1_push_1_opaque_list_1(%rip), %rax
	movq	-32(%rbp), %rdx
	movq	%rdx, (%rax)
	call	rand@PLT
	movl	%eax, -52(%rbp)
	movl	$24, %edi
	call	malloc@PLT
	movq	%rax, -24(%rbp)
	movl	-52(%rbp), %eax
	leal	(%rax,%rax), %edx
	movq	-24(%rbp), %rax
	movl	%edx, 8(%rax)
	movq	_TIG_iO_swyp_1_push_1_opaque_list_1(%rip), %rax
	movq	(%rax), %rdx
	movq	-24(%rbp), %rax
	movq	%rdx, (%rax)
	movq	_TIG_iO_swyp_1_push_1_opaque_list_1(%rip), %rdx
	movq	-24(%rbp), %rax
	movq	%rdx, 16(%rax)
	movq	_TIG_iO_swyp_1_push_1_opaque_list_1(%rip), %rax
	movq	(%rax), %rax
	movq	-24(%rbp), %rdx
	movq	%rdx, 16(%rax)
	movq	_TIG_iO_swyp_1_push_1_opaque_list_1(%rip), %rax
	movq	-24(%rbp), %rdx
	movq	%rdx, (%rax)
	movq	_TIG_iO_swyp_1_push_1_opaque_list_1(%rip), %rax
	movq	(%rax), %rax
	movq	%rax, _TIG_iO_swyp_1_push_1_opaque_ptr_1(%rip)
	movq	_TIG_iO_swyp_1_push_1_opaque_ptr_1(%rip), %rax
	movq	%rax, _TIG_iO_swyp_1_push_1_opaque_ptr_2(%rip)
	movq	_TIG_iO_swyp_1_push_1_opaque_ptr_2(%rip), %rax
	movq	(%rax), %rax
	movq	%rax, _TIG_iO_swyp_1_push_1_opaque_ptr_2(%rip)
	nop
	nop
	movq	_TIG_iO_swyp_1_reverse_1_opaque_ptr_1(%rip), %rdx
	movq	_TIG_iO_swyp_1_reverse_1_opaque_ptr_2(%rip), %rax
	cmpq	%rax, %rdx
	je	.L2
	movl	$16, %edi
	call	malloc@PLT
	movq	%rax, -16(%rbp)
	movq	-16(%rbp), %rax
	movq	%rax, -8(%rbp)
	movq	-8(%rbp), %rax
	movzbl	-76(%rbp), %edx
	movb	%dl, (%rax)
	movq	-72(%rbp), %rax
	movq	(%rax), %rdx
	movq	-8(%rbp), %rax
	movq	%rdx, 8(%rax)
	movq	-72(%rbp), %rax
	movq	-8(%rbp), %rdx
	movq	%rdx, (%rax)
	jmp	.L1
.L2:
#APP
# 162 "nus-apr_itsp-benchmark_Main.c" 1
	.byte 0xe,0x8c
# 0 "" 2
#NO_APP
	nop
.L1:
	leave
	.cfi_def_cfa 7, 8
	ret
	.cfi_endproc
.LFE0:
	.size	push, .-push
	.globl	reverse
	.type	reverse, @function
reverse:
.LFB1:
	.cfi_startproc
	endbr64
	pushq	%rbp
	.cfi_def_cfa_offset 16
	.cfi_offset 6, -16
	movq	%rsp, %rbp
	.cfi_def_cfa_register 6
	subq	$96, %rsp
	movq	%rdi, -88(%rbp)
#APP
# 182 "nus-apr_itsp-benchmark_Main.c" 1
	##_ANNOTATION_INITIALREGION_-TIG-iO-swyp-1-reverse--24
# 0 "" 2
# 186 "nus-apr_itsp-benchmark_Main.c" 1
	##_ANNOTATION_ATOMICREGION_-TIG-iO-swyp-1-reverse--23
# 0 "" 2
#NO_APP
	movl	$24, %edi
	call	malloc@PLT
	movq	%rax, -40(%rbp)
	movq	-40(%rbp), %rax
	movq	-40(%rbp), %rdx
	movq	%rdx, (%rax)
	movq	-40(%rbp), %rax
	movq	-40(%rbp), %rdx
	movq	%rdx, 8(%rax)
	movq	-40(%rbp), %rax
	movq	%rax, _TIG_iO_swyp_1_reverse_1_opaque_list_1(%rip)
	call	rand@PLT
	movl	%eax, -68(%rbp)
	movl	$24, %edi
	call	malloc@PLT
	movq	%rax, -32(%rbp)
	movq	-32(%rbp), %rax
	movl	$0, 16(%rax)
	movq	_TIG_iO_swyp_1_reverse_1_opaque_list_1(%rip), %rax
	movq	(%rax), %rdx
	movq	-32(%rbp), %rax
	movq	%rdx, (%rax)
	movq	_TIG_iO_swyp_1_reverse_1_opaque_list_1(%rip), %rdx
	movq	-32(%rbp), %rax
	movq	%rdx, 8(%rax)
	movq	_TIG_iO_swyp_1_reverse_1_opaque_list_1(%rip), %rax
	movq	(%rax), %rax
	movq	-32(%rbp), %rdx
	movq	%rdx, 8(%rax)
	movq	_TIG_iO_swyp_1_reverse_1_opaque_list_1(%rip), %rax
	movq	-32(%rbp), %rdx
	movq	%rdx, (%rax)
	call	rand@PLT
	movl	%eax, -64(%rbp)
	movl	$24, %edi
	call	malloc@PLT
	movq	%rax, -24(%rbp)
	movq	-24(%rbp), %rax
	movl	-64(%rbp), %edx
	movl	%edx, 16(%rax)
	movq	_TIG_iO_swyp_1_reverse_1_opaque_list_1(%rip), %rax
	movq	(%rax), %rdx
	movq	-24(%rbp), %rax
	movq	%rdx, (%rax)
	movq	_TIG_iO_swyp_1_reverse_1_opaque_list_1(%rip), %rdx
	movq	-24(%rbp), %rax
	movq	%rdx, 8(%rax)
	movq	_TIG_iO_swyp_1_reverse_1_opaque_list_1(%rip), %rax
	movq	(%rax), %rax
	movq	-24(%rbp), %rdx
	movq	%rdx, 8(%rax)
	movq	_TIG_iO_swyp_1_reverse_1_opaque_list_1(%rip), %rax
	movq	-24(%rbp), %rdx
	movq	%rdx, (%rax)
	call	rand@PLT
	movl	%eax, -60(%rbp)
	movl	$24, %edi
	call	malloc@PLT
	movq	%rax, -16(%rbp)
	movl	-60(%rbp), %eax
	leal	(%rax,%rax), %edx
	movq	-16(%rbp), %rax
	movl	%edx, 16(%rax)
	movq	_TIG_iO_swyp_1_reverse_1_opaque_list_1(%rip), %rax
	movq	(%rax), %rdx
	movq	-16(%rbp), %rax
	movq	%rdx, (%rax)
	movq	_TIG_iO_swyp_1_reverse_1_opaque_list_1(%rip), %rdx
	movq	-16(%rbp), %rax
	movq	%rdx, 8(%rax)
	movq	_TIG_iO_swyp_1_reverse_1_opaque_list_1(%rip), %rax
	movq	(%rax), %rax
	movq	-16(%rbp), %rdx
	movq	%rdx, 8(%rax)
	movq	_TIG_iO_swyp_1_reverse_1_opaque_list_1(%rip), %rax
	movq	-16(%rbp), %rdx
	movq	%rdx, (%rax)
	movq	_TIG_iO_swyp_1_reverse_1_opaque_list_1(%rip), %rax
	movq	(%rax), %rax
	movq	%rax, _TIG_iO_swyp_1_reverse_1_opaque_ptr_1(%rip)
	movq	_TIG_iO_swyp_1_reverse_1_opaque_ptr_1(%rip), %rax
	movq	%rax, _TIG_iO_swyp_1_reverse_1_opaque_ptr_2(%rip)
	movq	_TIG_iO_swyp_1_reverse_1_opaque_ptr_2(%rip), %rax
	movq	(%rax), %rax
	movq	%rax, _TIG_iO_swyp_1_reverse_1_opaque_ptr_2(%rip)
	nop
	nop
	movq	$0, -56(%rbp)
	movq	-88(%rbp), %rax
	movq	(%rax), %rax
	movq	%rax, -48(%rbp)
	movq	_TIG_iO_swyp_1_reverse_1_opaque_ptr_1(%rip), %rdx
	movq	_TIG_iO_swyp_1_reverse_1_opaque_ptr_2(%rip), %rax
	cmpq	%rax, %rdx
	jne	.L9
.L8:
	nop
.L7:
	cmpq	$0, -48(%rbp)
	setne	%al
	movzbl	%al, %eax
	cmpl	%eax, -68(%rbp)
	jg	.L7
	movq	-48(%rbp), %rax
	movq	8(%rax), %rax
	addq	$16, %rax
	movq	%rax, -8(%rbp)
	movq	-56(%rbp), %rax
	leaq	16(%rax), %rdx
	movq	-48(%rbp), %rax
	movq	%rdx, 8(%rax)
	movq	-48(%rbp), %rax
	subq	$16, %rax
	movq	%rax, -56(%rbp)
	movq	-8(%rbp), %rax
	addq	$16, %rax
	movq	%rax, -48(%rbp)
	jmp	.L8
.L10:
	movq	-48(%rbp), %rax
	movq	8(%rax), %rax
	movq	%rax, -8(%rbp)
	movq	-48(%rbp), %rax
	movq	-56(%rbp), %rdx
	movq	%rdx, 8(%rax)
	movq	-48(%rbp), %rax
	movq	%rax, -56(%rbp)
	movq	-8(%rbp), %rax
	movq	%rax, -48(%rbp)
.L9:
	cmpq	$0, -48(%rbp)
	jne	.L10
	movq	-88(%rbp), %rax
	movq	-56(%rbp), %rdx
	movq	%rdx, (%rax)
	nop
	leave
	.cfi_def_cfa 7, 8
	ret
	.cfi_endproc
.LFE1:
	.size	reverse, .-reverse
	.globl	isPalindrome
	.type	isPalindrome, @function
isPalindrome:
.LFB2:
	.cfi_startproc
	endbr64
	pushq	%rbp
	.cfi_def_cfa_offset 16
	.cfi_offset 6, -16
	movq	%rsp, %rbp
	.cfi_def_cfa_register 6
	subq	$112, %rsp
	movq	%rdi, -104(%rbp)
	movq	%fs:40, %rax
	movq	%rax, -8(%rbp)
	xorl	%eax, %eax
#APP
# 140 "nus-apr_itsp-benchmark_Main.c" 1
	##_ANNOTATION_INITIALREGION_-TIG-iO-swyp-1-isPalindrome--16
# 0 "" 2
# 144 "nus-apr_itsp-benchmark_Main.c" 1
	##_ANNOTATION_ATOMICREGION_-TIG-iO-swyp-1-isPalindrome--15
# 0 "" 2
#NO_APP
	movl	$24, %edi
	call	malloc@PLT
	movq	%rax, -32(%rbp)
	movq	-32(%rbp), %rax
	movq	-32(%rbp), %rdx
	movq	%rdx, 16(%rax)
	movq	-32(%rbp), %rax
	movq	-32(%rbp), %rdx
	movq	%rdx, 8(%rax)
	movq	-32(%rbp), %rax
	movq	%rax, _TIG_iO_swyp_1_isPalindrome_1_opaque_list_1(%rip)
	call	rand@PLT
	movl	%eax, -80(%rbp)
	movl	$24, %edi
	call	malloc@PLT
	movq	%rax, -24(%rbp)
	movq	-24(%rbp), %rax
	movl	$0, (%rax)
	movq	_TIG_iO_swyp_1_isPalindrome_1_opaque_list_1(%rip), %rax
	movq	16(%rax), %rdx
	movq	-24(%rbp), %rax
	movq	%rdx, 16(%rax)
	movq	_TIG_iO_swyp_1_isPalindrome_1_opaque_list_1(%rip), %rdx
	movq	-24(%rbp), %rax
	movq	%rdx, 8(%rax)
	movq	_TIG_iO_swyp_1_isPalindrome_1_opaque_list_1(%rip), %rax
	movq	16(%rax), %rax
	movq	-24(%rbp), %rdx
	movq	%rdx, 8(%rax)
	movq	_TIG_iO_swyp_1_isPalindrome_1_opaque_list_1(%rip), %rax
	movq	-24(%rbp), %rdx
	movq	%rdx, 16(%rax)
	call	rand@PLT
	movl	%eax, -76(%rbp)
	movl	$24, %edi
	call	malloc@PLT
	movq	%rax, -16(%rbp)
	movq	-16(%rbp), %rax
	movl	-76(%rbp), %edx
	movl	%edx, (%rax)
	movq	_TIG_iO_swyp_1_isPalindrome_1_opaque_list_1(%rip), %rax
	movq	16(%rax), %rdx
	movq	-16(%rbp), %rax
	movq	%rdx, 16(%rax)
	movq	_TIG_iO_swyp_1_isPalindrome_1_opaque_list_1(%rip), %rdx
	movq	-16(%rbp), %rax
	movq	%rdx, 8(%rax)
	movq	_TIG_iO_swyp_1_isPalindrome_1_opaque_list_1(%rip), %rax
	movq	16(%rax), %rax
	movq	-16(%rbp), %rdx
	movq	%rdx, 8(%rax)
	movq	_TIG_iO_swyp_1_isPalindrome_1_opaque_list_1(%rip), %rax
	movq	-16(%rbp), %rdx
	movq	%rdx, 16(%rax)
	movq	_TIG_iO_swyp_1_isPalindrome_1_opaque_list_1(%rip), %rax
	movq	16(%rax), %rax
	movq	%rax, _TIG_iO_swyp_1_isPalindrome_1_opaque_ptr_1(%rip)
	movq	_TIG_iO_swyp_1_isPalindrome_1_opaque_ptr_1(%rip), %rax
	movq	%rax, _TIG_iO_swyp_1_isPalindrome_1_opaque_ptr_2(%rip)
	nop
	nop
	movq	-104(%rbp), %rax
	movq	%rax, -64(%rbp)
	movq	-104(%rbp), %rax
	movq	%rax, -56(%rbp)
	movq	-104(%rbp), %rax
	movq	%rax, -48(%rbp)
	movq	$0, -40(%rbp)
	movl	$1, -84(%rbp)
	cmpq	$0, -104(%rbp)
	je	.L13
	movq	-104(%rbp), %rax
	movq	8(%rax), %rax
	testq	%rax, %rax
	je	.L13
.L19:
	cmpq	$0, -56(%rbp)
	je	.L24
	movq	-56(%rbp), %rax
	movq	8(%rax), %rax
	testq	%rax, %rax
	je	.L25
	movq	_TIG_iO_swyp_1_reverse_1_opaque_ptr_1(%rip), %rdx
	movq	_TIG_iO_swyp_1_reverse_1_opaque_ptr_2(%rip), %rax
	cmpq	%rax, %rdx
	je	.L17
	movq	-56(%rbp), %rax
	movq	8(%rax), %rax
	movq	8(%rax), %rax
	movq	%rax, -56(%rbp)
	movq	-64(%rbp), %rax
	movq	%rax, -48(%rbp)
	movq	-64(%rbp), %rax
	movq	8(%rax), %rax
	movq	%rax, -64(%rbp)
	jmp	.L19
.L17:
	movq	-56(%rbp), %rax
	movq	8(%rax), %rax
	movq	8(%rax), %rax
	addq	$16, %rax
	movq	%rax, -56(%rbp)
	movq	-64(%rbp), %rax
	addq	$16, %rax
	movq	%rax, -48(%rbp)
	movq	-64(%rbp), %rax
	movq	8(%rax), %rax
	addq	$16, %rax
	movq	%rax, -64(%rbp)
	jmp	.L19
.L24:
	nop
	jmp	.L16
.L25:
	nop
.L16:
	cmpq	$0, -56(%rbp)
	je	.L20
	movq	-64(%rbp), %rax
	movq	%rax, -40(%rbp)
	movq	-64(%rbp), %rax
	movq	8(%rax), %rax
	movq	%rax, -64(%rbp)
.L20:
	movq	-64(%rbp), %rax
	movq	%rax, -72(%rbp)
	movq	-48(%rbp), %rax
	movq	$0, 8(%rax)
	leaq	-72(%rbp), %rax
	movq	%rax, %rdi
	call	reverse
	movq	-72(%rbp), %rdx
	movq	-104(%rbp), %rax
	movq	%rdx, %rsi
	movq	%rax, %rdi
	call	compareLists
	movl	%eax, -84(%rbp)
	leaq	-72(%rbp), %rax
	movq	%rax, %rdi
	call	reverse
	cmpq	$0, -40(%rbp)
	je	.L21
	movq	-48(%rbp), %rax
	movq	-40(%rbp), %rdx
	movq	%rdx, 8(%rax)
	movq	-72(%rbp), %rdx
	movq	-40(%rbp), %rax
	movq	%rdx, 8(%rax)
	jmp	.L13
.L21:
	movq	-72(%rbp), %rdx
	movq	-48(%rbp), %rax
	movq	%rdx, 8(%rax)
.L13:
	movl	-84(%rbp), %eax
	movq	-8(%rbp), %rdx
	subq	%fs:40, %rdx
	je	.L23
	call	__stack_chk_fail@PLT
.L23:
	leave
	.cfi_def_cfa 7, 8
	ret
	.cfi_endproc
.LFE2:
	.size	isPalindrome, .-isPalindrome
	.section	.rodata
.LC0:
	.string	"Yes"
.LC1:
	.string	"No"
.LC2:
	.string	"No\n"
.LC3:
	.string	"Yes\n"
	.text
	.globl	main
	.type	main, @function
main:
.LFB4:
	.cfi_startproc
	endbr64
	pushq	%rbp
	.cfi_def_cfa_offset 16
	.cfi_offset 6, -16
	movq	%rsp, %rbp
	.cfi_def_cfa_register 6
	subq	$96, %rsp
	movl	%edi, -68(%rbp)
	movq	%rsi, -80(%rbp)
	movq	%rdx, -88(%rbp)
	movq	%fs:40, %rax
	movq	%rax, -8(%rbp)
	xorl	%eax, %eax
	movq	$0, _TIG_IZ_swyp_envp(%rip)
	nop
.L27:
	movq	$0, _TIG_IZ_swyp_argv(%rip)
	nop
.L28:
	movl	$0, _TIG_IZ_swyp_argc(%rip)
	nop
	nop
.L29:
.L30:
#APP
# 122 "/usr/include/x86_64-linux-gnu/bits/byteswap.h" 1
	##_ANNOTATION_INITIALREGION_-TIG-IZ-swyp--0
# 0 "" 2
#NO_APP
	movl	-68(%rbp), %eax
	movl	%eax, _TIG_IZ_swyp_argc(%rip)
	movq	-80(%rbp), %rax
	movq	%rax, _TIG_IZ_swyp_argv(%rip)
	movq	-88(%rbp), %rax
	movq	%rax, _TIG_IZ_swyp_envp(%rip)
#APP
# 129 "/usr/include/x86_64-linux-gnu/bits/byteswap.h" 1
	##_ANNOTATION_ATOMICREGION_-TIG-iO-swyp-1-main--17
# 0 "" 2
#NO_APP
	movl	$24, %edi
	call	malloc@PLT
	movq	%rax, -32(%rbp)
	movq	-32(%rbp), %rax
	movq	-32(%rbp), %rdx
	movq	%rdx, 8(%rax)
	movq	-32(%rbp), %rax
	movq	-32(%rbp), %rdx
	movq	%rdx, (%rax)
	movq	-32(%rbp), %rax
	movq	%rax, _TIG_iO_swyp_1_main_1_opaque_list_1(%rip)
	call	rand@PLT
	movl	%eax, -56(%rbp)
	movl	$24, %edi
	call	malloc@PLT
	movq	%rax, -24(%rbp)
	movq	-24(%rbp), %rax
	movl	$0, 16(%rax)
	movq	_TIG_iO_swyp_1_main_1_opaque_list_1(%rip), %rax
	movq	8(%rax), %rdx
	movq	-24(%rbp), %rax
	movq	%rdx, 8(%rax)
	movq	_TIG_iO_swyp_1_main_1_opaque_list_1(%rip), %rdx
	movq	-24(%rbp), %rax
	movq	%rdx, (%rax)
	movq	_TIG_iO_swyp_1_main_1_opaque_list_1(%rip), %rax
	movq	8(%rax), %rax
	movq	-24(%rbp), %rdx
	movq	%rdx, (%rax)
	movq	_TIG_iO_swyp_1_main_1_opaque_list_1(%rip), %rax
	movq	-24(%rbp), %rdx
	movq	%rdx, 8(%rax)
	call	rand@PLT
	movl	%eax, -52(%rbp)
	movl	$24, %edi
	call	malloc@PLT
	movq	%rax, -16(%rbp)
	movq	-16(%rbp), %rax
	movl	-52(%rbp), %edx
	movl	%edx, 16(%rax)
	movq	_TIG_iO_swyp_1_main_1_opaque_list_1(%rip), %rax
	movq	8(%rax), %rdx
	movq	-16(%rbp), %rax
	movq	%rdx, 8(%rax)
	movq	_TIG_iO_swyp_1_main_1_opaque_list_1(%rip), %rdx
	movq	-16(%rbp), %rax
	movq	%rdx, (%rax)
	movq	_TIG_iO_swyp_1_main_1_opaque_list_1(%rip), %rax
	movq	8(%rax), %rax
	movq	-16(%rbp), %rdx
	movq	%rdx, (%rax)
	movq	_TIG_iO_swyp_1_main_1_opaque_list_1(%rip), %rax
	movq	-16(%rbp), %rdx
	movq	%rdx, 8(%rax)
	movq	_TIG_iO_swyp_1_main_1_opaque_list_1(%rip), %rax
	movq	8(%rax), %rax
	movq	%rax, _TIG_iO_swyp_1_main_1_opaque_ptr_1(%rip)
	movq	_TIG_iO_swyp_1_main_1_opaque_ptr_1(%rip), %rax
	movq	%rax, _TIG_iO_swyp_1_main_1_opaque_ptr_2(%rip)
	movq	_TIG_iO_swyp_1_main_1_opaque_ptr_2(%rip), %rax
	movq	8(%rax), %rax
	movq	%rax, _TIG_iO_swyp_1_main_1_opaque_ptr_2(%rip)
	nop
	nop
	movq	$0, -40(%rbp)
	call	getchar@PLT
	movl	%eax, -48(%rbp)
	movl	-48(%rbp), %eax
	movl	%eax, -60(%rbp)
	jmp	.L31
.L32:
	movl	-60(%rbp), %eax
	movsbl	%al, %edx
	leaq	-40(%rbp), %rax
	movl	%edx, %esi
	movq	%rax, %rdi
	call	push
	call	getchar@PLT
	movl	%eax, -60(%rbp)
.L31:
	cmpl	$10, -60(%rbp)
	jne	.L32
	movq	-40(%rbp), %rax
	movq	%rax, %rdi
	call	isPalindrome
	movl	%eax, -44(%rbp)
	movq	_TIG_iO_swyp_1_reverse_1_opaque_ptr_1(%rip), %rdx
	movq	_TIG_iO_swyp_1_reverse_1_opaque_ptr_2(%rip), %rax
	cmpq	%rax, %rdx
	je	.L33
	cmpl	$0, -44(%rbp)
	je	.L34
	leaq	.LC0(%rip), %rax
	movq	%rax, %rdi
	call	puts@PLT
	jmp	.L35
.L34:
	leaq	.LC1(%rip), %rax
	movq	%rax, %rdi
	call	puts@PLT
	jmp	.L35
.L33:
	movl	-44(%rbp), %eax
	cmpl	-56(%rbp), %eax
	jne	.L36
	leaq	-1+.LC2(%rip), %rax
	movq	%rax, %rdi
	movl	$0, %eax
	call	printf@PLT
	jmp	.L35
.L36:
	leaq	1+.LC3(%rip), %rax
	movq	%rax, %rdi
	movl	$0, %eax
	call	printf@PLT
.L35:
	movl	$0, %eax
	movq	-8(%rbp), %rdx
	subq	%fs:40, %rdx
	je	.L38
	call	__stack_chk_fail@PLT
.L38:
	leave
	.cfi_def_cfa 7, 8
	ret
	.cfi_endproc
.LFE4:
	.size	main, .-main
	.section	.rodata
.LC4:
	.string	"%c->"
.LC5:
	.string	"NULL"
	.text
	.globl	printList
	.type	printList, @function
printList:
.LFB10:
	.cfi_startproc
	endbr64
	pushq	%rbp
	.cfi_def_cfa_offset 16
	.cfi_offset 6, -16
	movq	%rsp, %rbp
	.cfi_def_cfa_register 6
	subq	$48, %rsp
	movq	%rdi, -40(%rbp)
#APP
# 68 "/usr/include/x86_64-linux-gnu/bits/byteswap.h" 1
	##_ANNOTATION_INITIALREGION_-TIG-iO-swyp-1-printList--20
# 0 "" 2
# 72 "/usr/include/x86_64-linux-gnu/bits/byteswap.h" 1
	##_ANNOTATION_ATOMICREGION_-TIG-iO-swyp-1-printList--19
# 0 "" 2
#NO_APP
	movl	$24, %edi
	call	malloc@PLT
	movq	%rax, -24(%rbp)
	movq	-24(%rbp), %rax
	movq	-24(%rbp), %rdx
	movq	%rdx, 8(%rax)
	movq	-24(%rbp), %rax
	movq	-24(%rbp), %rdx
	movq	%rdx, 16(%rax)
	movq	-24(%rbp), %rax
	movq	%rax, _TIG_iO_swyp_1_printList_1_opaque_list_1(%rip)
	call	rand@PLT
	movl	%eax, -32(%rbp)
	movl	$24, %edi
	call	malloc@PLT
	movq	%rax, -16(%rbp)
	movq	-16(%rbp), %rax
	movl	$0, (%rax)
	movq	_TIG_iO_swyp_1_printList_1_opaque_list_1(%rip), %rax
	movq	8(%rax), %rdx
	movq	-16(%rbp), %rax
	movq	%rdx, 8(%rax)
	movq	_TIG_iO_swyp_1_printList_1_opaque_list_1(%rip), %rdx
	movq	-16(%rbp), %rax
	movq	%rdx, 16(%rax)
	movq	_TIG_iO_swyp_1_printList_1_opaque_list_1(%rip), %rax
	movq	8(%rax), %rax
	movq	-16(%rbp), %rdx
	movq	%rdx, 16(%rax)
	movq	_TIG_iO_swyp_1_printList_1_opaque_list_1(%rip), %rax
	movq	-16(%rbp), %rdx
	movq	%rdx, 8(%rax)
	call	rand@PLT
	movl	%eax, -28(%rbp)
	movl	$24, %edi
	call	malloc@PLT
	movq	%rax, -8(%rbp)
	movq	-8(%rbp), %rax
	movl	-28(%rbp), %edx
	movl	%edx, (%rax)
	movq	_TIG_iO_swyp_1_printList_1_opaque_list_1(%rip), %rax
	movq	8(%rax), %rdx
	movq	-8(%rbp), %rax
	movq	%rdx, 8(%rax)
	movq	_TIG_iO_swyp_1_printList_1_opaque_list_1(%rip), %rdx
	movq	-8(%rbp), %rax
	movq	%rdx, 16(%rax)
	movq	_TIG_iO_swyp_1_printList_1_opaque_list_1(%rip), %rax
	movq	8(%rax), %rax
	movq	-8(%rbp), %rdx
	movq	%rdx, 16(%rax)
	movq	_TIG_iO_swyp_1_printList_1_opaque_list_1(%rip), %rax
	movq	-8(%rbp), %rdx
	movq	%rdx, 8(%rax)
	movq	_TIG_iO_swyp_1_printList_1_opaque_list_1(%rip), %rax
	movq	8(%rax), %rax
	movq	%rax, _TIG_iO_swyp_1_printList_1_opaque_ptr_1(%rip)
	movq	_TIG_iO_swyp_1_printList_1_opaque_ptr_1(%rip), %rax
	movq	%rax, _TIG_iO_swyp_1_printList_1_opaque_ptr_2(%rip)
	nop
	nop
	jmp	.L40
.L41:
	movq	-40(%rbp), %rax
	movzbl	(%rax), %eax
	movsbl	%al, %eax
	movl	%eax, %esi
	leaq	.LC4(%rip), %rax
	movq	%rax, %rdi
	movl	$0, %eax
	call	printf@PLT
	movq	-40(%rbp), %rax
	movq	8(%rax), %rax
	movq	%rax, -40(%rbp)
.L40:
	cmpq	$0, -40(%rbp)
	jne	.L41
	leaq	.LC5(%rip), %rax
	movq	%rax, %rdi
	call	puts@PLT
	movq	_TIG_iO_swyp_1_reverse_1_opaque_ptr_1(%rip), %rdx
	movq	_TIG_iO_swyp_1_reverse_1_opaque_ptr_2(%rip), %rax
	cmpq	%rax, %rdx
	leave
	.cfi_def_cfa 7, 8
	ret
	.cfi_endproc
.LFE10:
	.size	printList, .-printList
	.globl	compareLists
	.type	compareLists, @function
compareLists:
.LFB11:
	.cfi_startproc
	endbr64
	pushq	%rbp
	.cfi_def_cfa_offset 16
	.cfi_offset 6, -16
	movq	%rsp, %rbp
	.cfi_def_cfa_register 6
	subq	$96, %rsp
	movq	%rdi, -88(%rbp)
	movq	%rsi, -96(%rbp)
#APP
# 196 "nus-apr_itsp-benchmark_Main.c" 1
	##_ANNOTATION_INITIALREGION_-TIG-iO-swyp-1-compareLists--14
# 0 "" 2
# 200 "nus-apr_itsp-benchmark_Main.c" 1
	##_ANNOTATION_ATOMICREGION_-TIG-iO-swyp-1-compareLists--13
# 0 "" 2
#NO_APP
	movl	$24, %edi
	call	malloc@PLT
	movq	%rax, -40(%rbp)
	movq	-40(%rbp), %rax
	movq	-40(%rbp), %rdx
	movq	%rdx, (%rax)
	movq	-40(%rbp), %rax
	movq	-40(%rbp), %rdx
	movq	%rdx, 8(%rax)
	movq	-40(%rbp), %rax
	movq	%rax, _TIG_iO_swyp_1_compareLists_1_opaque_list_1(%rip)
	call	rand@PLT
	movl	%eax, -72(%rbp)
	movl	$24, %edi
	call	malloc@PLT
	movq	%rax, -32(%rbp)
	movq	-32(%rbp), %rax
	movl	$0, 16(%rax)
	movq	_TIG_iO_swyp_1_compareLists_1_opaque_list_1(%rip), %rax
	movq	(%rax), %rdx
	movq	-32(%rbp), %rax
	movq	%rdx, (%rax)
	movq	_TIG_iO_swyp_1_compareLists_1_opaque_list_1(%rip), %rdx
	movq	-32(%rbp), %rax
	movq	%rdx, 8(%rax)
	movq	_TIG_iO_swyp_1_compareLists_1_opaque_list_1(%rip), %rax
	movq	(%rax), %rax
	movq	-32(%rbp), %rdx
	movq	%rdx, 8(%rax)
	movq	_TIG_iO_swyp_1_compareLists_1_opaque_list_1(%rip), %rax
	movq	-32(%rbp), %rdx
	movq	%rdx, (%rax)
	call	rand@PLT
	movl	%eax, -68(%rbp)
	movl	$24, %edi
	call	malloc@PLT
	movq	%rax, -24(%rbp)
	movq	-24(%rbp), %rax
	movl	-68(%rbp), %edx
	movl	%edx, 16(%rax)
	movq	_TIG_iO_swyp_1_compareLists_1_opaque_list_1(%rip), %rax
	movq	(%rax), %rdx
	movq	-24(%rbp), %rax
	movq	%rdx, (%rax)
	movq	_TIG_iO_swyp_1_compareLists_1_opaque_list_1(%rip), %rdx
	movq	-24(%rbp), %rax
	movq	%rdx, 8(%rax)
	movq	_TIG_iO_swyp_1_compareLists_1_opaque_list_1(%rip), %rax
	movq	(%rax), %rax
	movq	-24(%rbp), %rdx
	movq	%rdx, 8(%rax)
	movq	_TIG_iO_swyp_1_compareLists_1_opaque_list_1(%rip), %rax
	movq	-24(%rbp), %rdx
	movq	%rdx, (%rax)
	call	rand@PLT
	movl	%eax, -64(%rbp)
	movl	$24, %edi
	call	malloc@PLT
	movq	%rax, -16(%rbp)
	movl	-64(%rbp), %eax
	leal	(%rax,%rax), %edx
	movq	-16(%rbp), %rax
	movl	%edx, 16(%rax)
	movq	_TIG_iO_swyp_1_compareLists_1_opaque_list_1(%rip), %rax
	movq	(%rax), %rdx
	movq	-16(%rbp), %rax
	movq	%rdx, (%rax)
	movq	_TIG_iO_swyp_1_compareLists_1_opaque_list_1(%rip), %rdx
	movq	-16(%rbp), %rax
	movq	%rdx, 8(%rax)
	movq	_TIG_iO_swyp_1_compareLists_1_opaque_list_1(%rip), %rax
	movq	(%rax), %rax
	movq	-16(%rbp), %rdx
	movq	%rdx, 8(%rax)
	movq	_TIG_iO_swyp_1_compareLists_1_opaque_list_1(%rip), %rax
	movq	-16(%rbp), %rdx
	movq	%rdx, (%rax)
	call	rand@PLT
	movl	%eax, -60(%rbp)
	movl	$24, %edi
	call	malloc@PLT
	movq	%rax, -8(%rbp)
	movl	-60(%rbp), %edx
	movl	%edx, %eax
	addl	%eax, %eax
	addl	%eax, %edx
	movq	-8(%rbp), %rax
	movl	%edx, 16(%rax)
	movq	_TIG_iO_swyp_1_compareLists_1_opaque_list_1(%rip), %rax
	movq	(%rax), %rdx
	movq	-8(%rbp), %rax
	movq	%rdx, (%rax)
	movq	_TIG_iO_swyp_1_compareLists_1_opaque_list_1(%rip), %rdx
	movq	-8(%rbp), %rax
	movq	%rdx, 8(%rax)
	movq	_TIG_iO_swyp_1_compareLists_1_opaque_list_1(%rip), %rax
	movq	(%rax), %rax
	movq	-8(%rbp), %rdx
	movq	%rdx, 8(%rax)
	movq	_TIG_iO_swyp_1_compareLists_1_opaque_list_1(%rip), %rax
	movq	-8(%rbp), %rdx
	movq	%rdx, (%rax)
	movq	_TIG_iO_swyp_1_compareLists_1_opaque_list_1(%rip), %rax
	movq	(%rax), %rax
	movq	%rax, _TIG_iO_swyp_1_compareLists_1_opaque_ptr_1(%rip)
	movq	_TIG_iO_swyp_1_compareLists_1_opaque_ptr_1(%rip), %rax
	movq	%rax, _TIG_iO_swyp_1_compareLists_1_opaque_ptr_2(%rip)
	movq	_TIG_iO_swyp_1_compareLists_1_opaque_ptr_2(%rip), %rax
	movq	(%rax), %rax
	movq	%rax, _TIG_iO_swyp_1_compareLists_1_opaque_ptr_2(%rip)
	nop
	nop
	movq	-88(%rbp), %rax
	movq	%rax, -56(%rbp)
	movq	-96(%rbp), %rax
	movq	%rax, -48(%rbp)
.L51:
	movq	_TIG_iO_swyp_1_reverse_1_opaque_ptr_1(%rip), %rdx
	movq	_TIG_iO_swyp_1_reverse_1_opaque_ptr_2(%rip), %rax
	cmpq	%rax, %rdx
	jne	.L44
	movq	-88(%rbp), %rax
	movq	%rax, %rdi
	call	isPalindrome
	movl	%eax, -72(%rbp)
.L44:
	cmpq	$0, -56(%rbp)
	je	.L54
	cmpq	$0, -48(%rbp)
	je	.L55
	movq	-56(%rbp), %rax
	movzbl	(%rax), %edx
	movq	-48(%rbp), %rax
	movzbl	(%rax), %eax
	cmpb	%al, %dl
	jne	.L48
	movq	-56(%rbp), %rax
	movq	8(%rax), %rax
	movq	%rax, -56(%rbp)
	movq	-48(%rbp), %rax
	movq	8(%rax), %rax
	movq	%rax, -48(%rbp)
	jmp	.L51
.L48:
	movl	$0, %eax
	jmp	.L50
.L54:
	nop
	jmp	.L47
.L55:
	nop
.L47:
	cmpq	$0, -56(%rbp)
	jne	.L52
	cmpq	$0, -48(%rbp)
	jne	.L52
	movl	$1, %eax
	jmp	.L50
.L52:
	movl	$0, %eax
.L50:
	leave
	.cfi_def_cfa 7, 8
	ret
	.cfi_endproc
.LFE11:
	.size	compareLists, .-compareLists
	.ident	"GCC: (Ubuntu 11.4.0-1ubuntu1~22.04) 11.4.0"
	.section	.note.GNU-stack,"",@progbits
	.section	.note.gnu.property,"a"
	.align 8
	.long	1f - 0f
	.long	4f - 1f
	.long	5
0:
	.string	"GNU"
1:
	.align 8
	.long	0xc0000002
	.long	3f - 2f
2:
	.long	0x3
3:
	.align 8
4:
