	.file	"rubengill_Comp2510Assignments_a1_opaque.c"
	.text
	.globl	_TIG_iO_3hiG_1___bswap_32_1_opaque_ptr_1
	.bss
	.align 8
	.type	_TIG_iO_3hiG_1___bswap_32_1_opaque_ptr_1, @object
	.size	_TIG_iO_3hiG_1___bswap_32_1_opaque_ptr_1, 8
_TIG_iO_3hiG_1___bswap_32_1_opaque_ptr_1:
	.zero	8
	.globl	_TIG_iO_3hiG_1___bswap_16_1_opaque_list_2
	.align 8
	.type	_TIG_iO_3hiG_1___bswap_16_1_opaque_list_2, @object
	.size	_TIG_iO_3hiG_1___bswap_16_1_opaque_list_2, 8
_TIG_iO_3hiG_1___bswap_16_1_opaque_list_2:
	.zero	8
	.globl	_TIG_iO_3hiG_1_justify_rows_1_opaque_list_1
	.align 8
	.type	_TIG_iO_3hiG_1_justify_rows_1_opaque_list_1, @object
	.size	_TIG_iO_3hiG_1_justify_rows_1_opaque_list_1, 8
_TIG_iO_3hiG_1_justify_rows_1_opaque_list_1:
	.zero	8
	.globl	_TIG_iO_3hiG_1___bswap_32_1_opaque_list_2
	.align 8
	.type	_TIG_iO_3hiG_1___bswap_32_1_opaque_list_2, @object
	.size	_TIG_iO_3hiG_1___bswap_32_1_opaque_list_2, 8
_TIG_iO_3hiG_1___bswap_32_1_opaque_list_2:
	.zero	8
	.globl	_TIG_iO_3hiG_1___bswap_32_1_opaque_list_1
	.align 8
	.type	_TIG_iO_3hiG_1___bswap_32_1_opaque_list_1, @object
	.size	_TIG_iO_3hiG_1___bswap_32_1_opaque_list_1, 8
_TIG_iO_3hiG_1___bswap_32_1_opaque_list_1:
	.zero	8
	.globl	_TIG_iO_3hiG_1_count_lines_1_opaque_list_1
	.align 8
	.type	_TIG_iO_3hiG_1_count_lines_1_opaque_list_1, @object
	.size	_TIG_iO_3hiG_1_count_lines_1_opaque_list_1, 8
_TIG_iO_3hiG_1_count_lines_1_opaque_list_1:
	.zero	8
	.globl	_TIG_iO_3hiG_1___bswap_64_1_opaque_list_1
	.align 8
	.type	_TIG_iO_3hiG_1___bswap_64_1_opaque_list_1, @object
	.size	_TIG_iO_3hiG_1___bswap_64_1_opaque_list_1, 8
_TIG_iO_3hiG_1___bswap_64_1_opaque_list_1:
	.zero	8
	.globl	_TIG_iO_3hiG_1_count_lines_1_opaque_ptr_2
	.align 8
	.type	_TIG_iO_3hiG_1_count_lines_1_opaque_ptr_2, @object
	.size	_TIG_iO_3hiG_1_count_lines_1_opaque_ptr_2, 8
_TIG_iO_3hiG_1_count_lines_1_opaque_ptr_2:
	.zero	8
	.globl	_TIG_iO_3hiG_1_divide_input_1_opaque_list_2
	.align 8
	.type	_TIG_iO_3hiG_1_divide_input_1_opaque_list_2, @object
	.size	_TIG_iO_3hiG_1_divide_input_1_opaque_list_2, 8
_TIG_iO_3hiG_1_divide_input_1_opaque_list_2:
	.zero	8
	.globl	_TIG_IZ_3hiG_argc
	.align 4
	.type	_TIG_IZ_3hiG_argc, @object
	.size	_TIG_IZ_3hiG_argc, 4
_TIG_IZ_3hiG_argc:
	.zero	4
	.globl	_TIG_iO_3hiG_1___uint64_identity_1_opaque_list_1
	.align 8
	.type	_TIG_iO_3hiG_1___uint64_identity_1_opaque_list_1, @object
	.size	_TIG_iO_3hiG_1___uint64_identity_1_opaque_list_1, 8
_TIG_iO_3hiG_1___uint64_identity_1_opaque_list_1:
	.zero	8
	.globl	_TIG_iO_3hiG_1_main_1_opaque_list_2
	.align 8
	.type	_TIG_iO_3hiG_1_main_1_opaque_list_2, @object
	.size	_TIG_iO_3hiG_1_main_1_opaque_list_2, 8
_TIG_iO_3hiG_1_main_1_opaque_list_2:
	.zero	8
	.globl	_TIG_iO_3hiG_1___bswap_16_1_opaque_ptr_2
	.align 8
	.type	_TIG_iO_3hiG_1___bswap_16_1_opaque_ptr_2, @object
	.size	_TIG_iO_3hiG_1___bswap_16_1_opaque_ptr_2, 8
_TIG_iO_3hiG_1___bswap_16_1_opaque_ptr_2:
	.zero	8
	.globl	_TIG_iO_3hiG_1_count_lines_1_opaque_list_2
	.align 8
	.type	_TIG_iO_3hiG_1_count_lines_1_opaque_list_2, @object
	.size	_TIG_iO_3hiG_1_count_lines_1_opaque_list_2, 8
_TIG_iO_3hiG_1_count_lines_1_opaque_list_2:
	.zero	8
	.globl	_TIG_iO_3hiG_1___bswap_16_1_opaque_list_1
	.align 8
	.type	_TIG_iO_3hiG_1___bswap_16_1_opaque_list_1, @object
	.size	_TIG_iO_3hiG_1___bswap_16_1_opaque_list_1, 8
_TIG_iO_3hiG_1___bswap_16_1_opaque_list_1:
	.zero	8
	.globl	_TIG_iO_3hiG_1_main_1_opaque_list_1
	.align 8
	.type	_TIG_iO_3hiG_1_main_1_opaque_list_1, @object
	.size	_TIG_iO_3hiG_1_main_1_opaque_list_1, 8
_TIG_iO_3hiG_1_main_1_opaque_list_1:
	.zero	8
	.globl	_TIG_iO_3hiG_1_divide_input_1_opaque_list_1
	.align 8
	.type	_TIG_iO_3hiG_1_divide_input_1_opaque_list_1, @object
	.size	_TIG_iO_3hiG_1_divide_input_1_opaque_list_1, 8
_TIG_iO_3hiG_1_divide_input_1_opaque_list_1:
	.zero	8
	.globl	_TIG_iO_3hiG_1___uint32_identity_1_opaque_list_1
	.align 8
	.type	_TIG_iO_3hiG_1___uint32_identity_1_opaque_list_1, @object
	.size	_TIG_iO_3hiG_1___uint32_identity_1_opaque_list_1, 8
_TIG_iO_3hiG_1___uint32_identity_1_opaque_list_1:
	.zero	8
	.globl	_TIG_iO_3hiG_1___bswap_64_1_opaque_ptr_1
	.align 8
	.type	_TIG_iO_3hiG_1___bswap_64_1_opaque_ptr_1, @object
	.size	_TIG_iO_3hiG_1___bswap_64_1_opaque_ptr_1, 8
_TIG_iO_3hiG_1___bswap_64_1_opaque_ptr_1:
	.zero	8
	.globl	_TIG_iO_3hiG_1_divide_input_1_opaque_ptr_1
	.align 8
	.type	_TIG_iO_3hiG_1_divide_input_1_opaque_ptr_1, @object
	.size	_TIG_iO_3hiG_1_divide_input_1_opaque_ptr_1, 8
_TIG_iO_3hiG_1_divide_input_1_opaque_ptr_1:
	.zero	8
	.globl	_TIG_iO_3hiG_1___bswap_64_1_opaque_ptr_2
	.align 8
	.type	_TIG_iO_3hiG_1___bswap_64_1_opaque_ptr_2, @object
	.size	_TIG_iO_3hiG_1___bswap_64_1_opaque_ptr_2, 8
_TIG_iO_3hiG_1___bswap_64_1_opaque_ptr_2:
	.zero	8
	.globl	_TIG_iO_3hiG_1___uint64_identity_1_opaque_ptr_2
	.align 8
	.type	_TIG_iO_3hiG_1___uint64_identity_1_opaque_ptr_2, @object
	.size	_TIG_iO_3hiG_1___uint64_identity_1_opaque_ptr_2, 8
_TIG_iO_3hiG_1___uint64_identity_1_opaque_ptr_2:
	.zero	8
	.globl	_TIG_iO_3hiG_1_justify_rows_1_opaque_list_2
	.align 8
	.type	_TIG_iO_3hiG_1_justify_rows_1_opaque_list_2, @object
	.size	_TIG_iO_3hiG_1_justify_rows_1_opaque_list_2, 8
_TIG_iO_3hiG_1_justify_rows_1_opaque_list_2:
	.zero	8
	.globl	_TIG_iO_3hiG_1___uint16_identity_1_opaque_ptr_1
	.align 8
	.type	_TIG_iO_3hiG_1___uint16_identity_1_opaque_ptr_1, @object
	.size	_TIG_iO_3hiG_1___uint16_identity_1_opaque_ptr_1, 8
_TIG_iO_3hiG_1___uint16_identity_1_opaque_ptr_1:
	.zero	8
	.globl	_TIG_iO_3hiG_1___bswap_32_1_opaque_ptr_2
	.align 8
	.type	_TIG_iO_3hiG_1___bswap_32_1_opaque_ptr_2, @object
	.size	_TIG_iO_3hiG_1___bswap_32_1_opaque_ptr_2, 8
_TIG_iO_3hiG_1___bswap_32_1_opaque_ptr_2:
	.zero	8
	.globl	_TIG_iO_3hiG_1_main_1_opaque_ptr_1
	.align 8
	.type	_TIG_iO_3hiG_1_main_1_opaque_ptr_1, @object
	.size	_TIG_iO_3hiG_1_main_1_opaque_ptr_1, 8
_TIG_iO_3hiG_1_main_1_opaque_ptr_1:
	.zero	8
	.globl	_TIG_iO_3hiG_1___uint64_identity_1_opaque_ptr_1
	.align 8
	.type	_TIG_iO_3hiG_1___uint64_identity_1_opaque_ptr_1, @object
	.size	_TIG_iO_3hiG_1___uint64_identity_1_opaque_ptr_1, 8
_TIG_iO_3hiG_1___uint64_identity_1_opaque_ptr_1:
	.zero	8
	.globl	_TIG_iO_3hiG_1___uint32_identity_1_opaque_ptr_2
	.align 8
	.type	_TIG_iO_3hiG_1___uint32_identity_1_opaque_ptr_2, @object
	.size	_TIG_iO_3hiG_1___uint32_identity_1_opaque_ptr_2, 8
_TIG_iO_3hiG_1___uint32_identity_1_opaque_ptr_2:
	.zero	8
	.globl	_TIG_iO_3hiG_1___uint64_identity_1_opaque_list_2
	.align 8
	.type	_TIG_iO_3hiG_1___uint64_identity_1_opaque_list_2, @object
	.size	_TIG_iO_3hiG_1___uint64_identity_1_opaque_list_2, 8
_TIG_iO_3hiG_1___uint64_identity_1_opaque_list_2:
	.zero	8
	.globl	_TIG_iO_3hiG_1_count_lines_1_opaque_ptr_1
	.align 8
	.type	_TIG_iO_3hiG_1_count_lines_1_opaque_ptr_1, @object
	.size	_TIG_iO_3hiG_1_count_lines_1_opaque_ptr_1, 8
_TIG_iO_3hiG_1_count_lines_1_opaque_ptr_1:
	.zero	8
	.globl	_TIG_iO_3hiG_1___uint16_identity_1_opaque_ptr_2
	.align 8
	.type	_TIG_iO_3hiG_1___uint16_identity_1_opaque_ptr_2, @object
	.size	_TIG_iO_3hiG_1___uint16_identity_1_opaque_ptr_2, 8
_TIG_iO_3hiG_1___uint16_identity_1_opaque_ptr_2:
	.zero	8
	.globl	_TIG_iO_3hiG_1___uint32_identity_1_opaque_list_2
	.align 8
	.type	_TIG_iO_3hiG_1___uint32_identity_1_opaque_list_2, @object
	.size	_TIG_iO_3hiG_1___uint32_identity_1_opaque_list_2, 8
_TIG_iO_3hiG_1___uint32_identity_1_opaque_list_2:
	.zero	8
	.globl	_TIG_iO_3hiG_1___uint16_identity_1_opaque_list_1
	.align 8
	.type	_TIG_iO_3hiG_1___uint16_identity_1_opaque_list_1, @object
	.size	_TIG_iO_3hiG_1___uint16_identity_1_opaque_list_1, 8
_TIG_iO_3hiG_1___uint16_identity_1_opaque_list_1:
	.zero	8
	.globl	_TIG_iO_3hiG_1_justify_rows_1_opaque_ptr_2
	.align 8
	.type	_TIG_iO_3hiG_1_justify_rows_1_opaque_ptr_2, @object
	.size	_TIG_iO_3hiG_1_justify_rows_1_opaque_ptr_2, 8
_TIG_iO_3hiG_1_justify_rows_1_opaque_ptr_2:
	.zero	8
	.globl	_TIG_iO_3hiG_1_justify_rows_1_opaque_ptr_1
	.align 8
	.type	_TIG_iO_3hiG_1_justify_rows_1_opaque_ptr_1, @object
	.size	_TIG_iO_3hiG_1_justify_rows_1_opaque_ptr_1, 8
_TIG_iO_3hiG_1_justify_rows_1_opaque_ptr_1:
	.zero	8
	.globl	_TIG_iO_3hiG_1_main_1_opaque_ptr_2
	.align 8
	.type	_TIG_iO_3hiG_1_main_1_opaque_ptr_2, @object
	.size	_TIG_iO_3hiG_1_main_1_opaque_ptr_2, 8
_TIG_iO_3hiG_1_main_1_opaque_ptr_2:
	.zero	8
	.globl	_TIG_iO_3hiG_1___bswap_64_1_opaque_list_2
	.align 8
	.type	_TIG_iO_3hiG_1___bswap_64_1_opaque_list_2, @object
	.size	_TIG_iO_3hiG_1___bswap_64_1_opaque_list_2, 8
_TIG_iO_3hiG_1___bswap_64_1_opaque_list_2:
	.zero	8
	.globl	_TIG_IZ_3hiG_envp
	.align 8
	.type	_TIG_IZ_3hiG_envp, @object
	.size	_TIG_IZ_3hiG_envp, 8
_TIG_IZ_3hiG_envp:
	.zero	8
	.globl	_TIG_IZ_3hiG_argv
	.align 8
	.type	_TIG_IZ_3hiG_argv, @object
	.size	_TIG_IZ_3hiG_argv, 8
_TIG_IZ_3hiG_argv:
	.zero	8
	.globl	_TIG_iO_3hiG_1___bswap_16_1_opaque_ptr_1
	.align 8
	.type	_TIG_iO_3hiG_1___bswap_16_1_opaque_ptr_1, @object
	.size	_TIG_iO_3hiG_1___bswap_16_1_opaque_ptr_1, 8
_TIG_iO_3hiG_1___bswap_16_1_opaque_ptr_1:
	.zero	8
	.globl	_TIG_iO_3hiG_1___uint16_identity_1_opaque_list_2
	.align 8
	.type	_TIG_iO_3hiG_1___uint16_identity_1_opaque_list_2, @object
	.size	_TIG_iO_3hiG_1___uint16_identity_1_opaque_list_2, 8
_TIG_iO_3hiG_1___uint16_identity_1_opaque_list_2:
	.zero	8
	.globl	_TIG_iO_3hiG_1_divide_input_1_opaque_ptr_2
	.align 8
	.type	_TIG_iO_3hiG_1_divide_input_1_opaque_ptr_2, @object
	.size	_TIG_iO_3hiG_1_divide_input_1_opaque_ptr_2, 8
_TIG_iO_3hiG_1_divide_input_1_opaque_ptr_2:
	.zero	8
	.globl	_TIG_iO_3hiG_1___uint32_identity_1_opaque_ptr_1
	.align 8
	.type	_TIG_iO_3hiG_1___uint32_identity_1_opaque_ptr_1, @object
	.size	_TIG_iO_3hiG_1___uint32_identity_1_opaque_ptr_1, 8
_TIG_iO_3hiG_1___uint32_identity_1_opaque_ptr_1:
	.zero	8
	.text
	.globl	divide_input
	.type	divide_input, @function
divide_input:
.LFB1:
	.cfi_startproc
	endbr64
	pushq	%rbp
	.cfi_def_cfa_offset 16
	.cfi_offset 6, -16
	movq	%rsp, %rbp
	.cfi_def_cfa_register 6
	subq	$176, %rsp
	movq	%rdi, -152(%rbp)
	movl	%esi, -156(%rbp)
	movl	%edx, -160(%rbp)
	movl	%ecx, -164(%rbp)
#APP
# 82 "/usr/include/x86_64-linux-gnu/bits/byteswap.h" 1
	##_ANNOTATION_INITIALREGION_-TIG-iO-3hiG-1-divide-input--16
# 0 "" 2
# 86 "/usr/include/x86_64-linux-gnu/bits/byteswap.h" 1
	##_ANNOTATION_ATOMICREGION_-TIG-iO-3hiG-1-divide-input--15
# 0 "" 2
#NO_APP
	movl	$24, %edi
	call	malloc@PLT
	movq	%rax, -80(%rbp)
	movq	-80(%rbp), %rax
	movq	-80(%rbp), %rdx
	movq	%rdx, 16(%rax)
	movq	-80(%rbp), %rax
	movq	-80(%rbp), %rdx
	movq	%rdx, 8(%rax)
	movq	-80(%rbp), %rax
	movq	%rax, _TIG_iO_3hiG_1_divide_input_1_opaque_list_1(%rip)
	call	rand@PLT
	movl	%eax, -128(%rbp)
	movl	$24, %edi
	call	malloc@PLT
	movq	%rax, -72(%rbp)
	movq	-72(%rbp), %rax
	movl	$0, (%rax)
	movq	_TIG_iO_3hiG_1_divide_input_1_opaque_list_1(%rip), %rax
	movq	16(%rax), %rdx
	movq	-72(%rbp), %rax
	movq	%rdx, 16(%rax)
	movq	_TIG_iO_3hiG_1_divide_input_1_opaque_list_1(%rip), %rdx
	movq	-72(%rbp), %rax
	movq	%rdx, 8(%rax)
	movq	_TIG_iO_3hiG_1_divide_input_1_opaque_list_1(%rip), %rax
	movq	16(%rax), %rax
	movq	-72(%rbp), %rdx
	movq	%rdx, 8(%rax)
	movq	_TIG_iO_3hiG_1_divide_input_1_opaque_list_1(%rip), %rax
	movq	-72(%rbp), %rdx
	movq	%rdx, 16(%rax)
	call	rand@PLT
	movl	%eax, -124(%rbp)
	movl	$24, %edi
	call	malloc@PLT
	movq	%rax, -64(%rbp)
	movq	-64(%rbp), %rax
	movl	-124(%rbp), %edx
	movl	%edx, (%rax)
	movq	_TIG_iO_3hiG_1_divide_input_1_opaque_list_1(%rip), %rax
	movq	16(%rax), %rdx
	movq	-64(%rbp), %rax
	movq	%rdx, 16(%rax)
	movq	_TIG_iO_3hiG_1_divide_input_1_opaque_list_1(%rip), %rdx
	movq	-64(%rbp), %rax
	movq	%rdx, 8(%rax)
	movq	_TIG_iO_3hiG_1_divide_input_1_opaque_list_1(%rip), %rax
	movq	16(%rax), %rax
	movq	-64(%rbp), %rdx
	movq	%rdx, 8(%rax)
	movq	_TIG_iO_3hiG_1_divide_input_1_opaque_list_1(%rip), %rax
	movq	-64(%rbp), %rdx
	movq	%rdx, 16(%rax)
	movq	_TIG_iO_3hiG_1_divide_input_1_opaque_list_1(%rip), %rax
	movq	16(%rax), %rax
	movq	%rax, _TIG_iO_3hiG_1_divide_input_1_opaque_ptr_1(%rip)
	movq	_TIG_iO_3hiG_1_divide_input_1_opaque_ptr_1(%rip), %rax
	movq	%rax, _TIG_iO_3hiG_1_divide_input_1_opaque_ptr_2(%rip)
	nop
	nop
	movl	-160(%rbp), %eax
	cltq
	salq	$3, %rax
	movq	%rax, %rdi
	call	malloc@PLT
	movq	%rax, -56(%rbp)
	movq	-56(%rbp), %rax
	movq	%rax, -48(%rbp)
	movq	-152(%rbp), %rax
	movq	%rax, -120(%rbp)
	movq	-48(%rbp), %rax
	movq	%rax, -112(%rbp)
	movl	-164(%rbp), %eax
	cltq
	leaq	-1(%rax), %rdx
	movq	-152(%rbp), %rax
	addq	%rdx, %rax
	movzbl	(%rax), %eax
	cmpb	$10, %al
	jne	.L2
	subl	$1, -164(%rbp)
.L2:
	movl	$0, -136(%rbp)
	jmp	.L3
.L23:
	movl	$0, -132(%rbp)
	movq	-120(%rbp), %rax
	movq	%rax, -104(%rbp)
.L7:
	movl	-132(%rbp), %eax
	cmpl	-156(%rbp), %eax
	jge	.L25
	movl	-164(%rbp), %eax
	movslq	%eax, %rdx
	movq	-152(%rbp), %rax
	addq	%rdx, %rax
	movq	%rax, %rdx
	movq	-120(%rbp), %rax
	cmpq	%rax, %rdx
	jbe	.L26
	addl	$1, -132(%rbp)
	addq	$1, -120(%rbp)
	jmp	.L7
.L25:
	nop
	jmp	.L6
.L26:
	nop
.L6:
	movl	-164(%rbp), %eax
	movslq	%eax, %rdx
	movq	-152(%rbp), %rax
	addq	%rdx, %rax
	movq	%rax, %rdx
	movq	-120(%rbp), %rax
	cmpq	%rax, %rdx
	jbe	.L8
	movq	-120(%rbp), %rax
	movzbl	(%rax), %eax
	cmpb	$32, %al
	je	.L8
	movq	-120(%rbp), %rax
	subq	$1, %rax
	movq	%rax, -96(%rbp)
.L13:
	movq	-96(%rbp), %rdx
	movq	-104(%rbp), %rax
	cmpq	%rax, %rdx
	jbe	.L27
	movq	-96(%rbp), %rax
	movzbl	(%rax), %eax
	cmpb	$32, %al
	je	.L28
	movq	-96(%rbp), %rax
	movzbl	(%rax), %eax
	cmpb	$45, %al
	je	.L29
	subq	$1, -96(%rbp)
	jmp	.L13
.L27:
	nop
	jmp	.L12
.L28:
	nop
	jmp	.L12
.L29:
	nop
.L12:
	movq	-96(%rbp), %rax
	movzbl	(%rax), %eax
	cmpb	$45, %al
	jne	.L14
	movq	-96(%rbp), %rax
	addq	$1, %rax
	movq	%rax, -120(%rbp)
	jmp	.L8
.L14:
	movq	-96(%rbp), %rax
	movq	%rax, -120(%rbp)
.L8:
	movq	-120(%rbp), %rax
	movq	%rax, -40(%rbp)
	movl	-156(%rbp), %eax
	cltq
	movq	%rax, %rdi
	call	malloc@PLT
	movq	%rax, -32(%rbp)
	movq	-112(%rbp), %rax
	movq	-32(%rbp), %rdx
	movq	%rdx, (%rax)
	movq	-112(%rbp), %rax
	movq	(%rax), %rax
	movq	%rax, -88(%rbp)
	jmp	.L15
.L16:
	movq	-88(%rbp), %rax
	movq	%rax, -16(%rbp)
	addq	$1, -88(%rbp)
	movq	-104(%rbp), %rax
	movq	%rax, -8(%rbp)
	addq	$1, -104(%rbp)
	movq	-8(%rbp), %rax
	movzbl	(%rax), %edx
	movq	-16(%rbp), %rax
	movb	%dl, (%rax)
.L15:
	movq	-104(%rbp), %rdx
	movq	-40(%rbp), %rax
	cmpq	%rax, %rdx
	jb	.L16
.L19:
	movq	-112(%rbp), %rax
	movq	(%rax), %rdx
	movl	-156(%rbp), %eax
	cltq
	addq	%rdx, %rax
	movq	%rax, %rdx
	movq	-88(%rbp), %rax
	cmpq	%rax, %rdx
	ja	.L17
	movq	_TIG_iO_3hiG_1_main_1_opaque_ptr_1(%rip), %rdx
	movq	_TIG_iO_3hiG_1_main_1_opaque_ptr_2(%rip), %rax
	cmpq	%rax, %rdx
	jne	.L17
	jmp	.L18
.L17:
	movq	-88(%rbp), %rax
	movq	%rax, -24(%rbp)
	addq	$1, -88(%rbp)
	movq	-24(%rbp), %rax
	movb	$32, (%rax)
	jmp	.L19
.L18:
	movl	-164(%rbp), %eax
	movslq	%eax, %rdx
	movq	-152(%rbp), %rax
	addq	%rdx, %rax
	movq	%rax, %rdx
	movq	-120(%rbp), %rax
	cmpq	%rax, %rdx
	jbe	.L30
	movq	-120(%rbp), %rax
	movzbl	(%rax), %eax
	cmpb	$32, %al
	jne	.L31
	addq	$1, -120(%rbp)
	jmp	.L18
.L30:
	nop
	jmp	.L22
.L31:
	nop
.L22:
	addq	$8, -112(%rbp)
	addl	$1, -136(%rbp)
.L3:
	movl	-136(%rbp), %eax
	cmpl	-160(%rbp), %eax
	jl	.L23
	movq	-48(%rbp), %rax
	leave
	.cfi_def_cfa 7, 8
	ret
	.cfi_endproc
.LFE1:
	.size	divide_input, .-divide_input
	.globl	justify_rows
	.type	justify_rows, @function
justify_rows:
.LFB2:
	.cfi_startproc
	endbr64
	pushq	%rbp
	.cfi_def_cfa_offset 16
	.cfi_offset 6, -16
	movq	%rsp, %rbp
	.cfi_def_cfa_register 6
	addq	$-128, %rsp
	movq	%rdi, -120(%rbp)
	movl	%esi, -124(%rbp)
	movl	%edx, -128(%rbp)
#APP
# 152 "rubengill_Comp2510Assignments_a1.c" 1
	##_ANNOTATION_INITIALREGION_-TIG-iO-3hiG-1-justify-rows--18
# 0 "" 2
# 156 "rubengill_Comp2510Assignments_a1.c" 1
	##_ANNOTATION_ATOMICREGION_-TIG-iO-3hiG-1-justify-rows--17
# 0 "" 2
#NO_APP
	movl	$24, %edi
	call	malloc@PLT
	movq	%rax, -32(%rbp)
	movq	-32(%rbp), %rax
	movq	-32(%rbp), %rdx
	movq	%rdx, 8(%rax)
	movq	-32(%rbp), %rax
	movq	-32(%rbp), %rdx
	movq	%rdx, (%rax)
	movq	-32(%rbp), %rax
	movq	%rax, _TIG_iO_3hiG_1_justify_rows_1_opaque_list_1(%rip)
	call	rand@PLT
	movl	%eax, -68(%rbp)
	movl	$24, %edi
	call	malloc@PLT
	movq	%rax, -24(%rbp)
	movq	-24(%rbp), %rax
	movl	$0, 16(%rax)
	movq	_TIG_iO_3hiG_1_justify_rows_1_opaque_list_1(%rip), %rax
	movq	8(%rax), %rdx
	movq	-24(%rbp), %rax
	movq	%rdx, 8(%rax)
	movq	_TIG_iO_3hiG_1_justify_rows_1_opaque_list_1(%rip), %rdx
	movq	-24(%rbp), %rax
	movq	%rdx, (%rax)
	movq	_TIG_iO_3hiG_1_justify_rows_1_opaque_list_1(%rip), %rax
	movq	8(%rax), %rax
	movq	-24(%rbp), %rdx
	movq	%rdx, (%rax)
	movq	_TIG_iO_3hiG_1_justify_rows_1_opaque_list_1(%rip), %rax
	movq	-24(%rbp), %rdx
	movq	%rdx, 8(%rax)
	call	rand@PLT
	movl	%eax, -64(%rbp)
	movl	$24, %edi
	call	malloc@PLT
	movq	%rax, -16(%rbp)
	movq	-16(%rbp), %rax
	movl	-64(%rbp), %edx
	movl	%edx, 16(%rax)
	movq	_TIG_iO_3hiG_1_justify_rows_1_opaque_list_1(%rip), %rax
	movq	8(%rax), %rdx
	movq	-16(%rbp), %rax
	movq	%rdx, 8(%rax)
	movq	_TIG_iO_3hiG_1_justify_rows_1_opaque_list_1(%rip), %rdx
	movq	-16(%rbp), %rax
	movq	%rdx, (%rax)
	movq	_TIG_iO_3hiG_1_justify_rows_1_opaque_list_1(%rip), %rax
	movq	8(%rax), %rax
	movq	-16(%rbp), %rdx
	movq	%rdx, (%rax)
	movq	_TIG_iO_3hiG_1_justify_rows_1_opaque_list_1(%rip), %rax
	movq	-16(%rbp), %rdx
	movq	%rdx, 8(%rax)
	movq	_TIG_iO_3hiG_1_justify_rows_1_opaque_list_1(%rip), %rax
	movq	8(%rax), %rax
	movq	%rax, _TIG_iO_3hiG_1_justify_rows_1_opaque_ptr_1(%rip)
	movq	_TIG_iO_3hiG_1_justify_rows_1_opaque_ptr_1(%rip), %rax
	movq	%rax, _TIG_iO_3hiG_1_justify_rows_1_opaque_ptr_2(%rip)
	movq	_TIG_iO_3hiG_1_justify_rows_1_opaque_ptr_2(%rip), %rax
	movq	8(%rax), %rax
	movq	%rax, _TIG_iO_3hiG_1_justify_rows_1_opaque_ptr_2(%rip)
	nop
	nop
	movl	$0, -108(%rbp)
	jmp	.L33
.L57:
	movl	-108(%rbp), %eax
	cltq
	leaq	0(,%rax,8), %rdx
	movq	-120(%rbp), %rax
	addq	%rdx, %rax
	movq	(%rax), %rax
	movq	%rax, -40(%rbp)
	movl	$0, -104(%rbp)
	movl	$0, -100(%rbp)
	movl	$0, -96(%rbp)
	jmp	.L34
.L37:
	movq	-40(%rbp), %rax
	movzbl	(%rax), %eax
	cmpb	$32, %al
	je	.L35
	addl	$1, -100(%rbp)
	cmpl	$0, -96(%rbp)
	jne	.L36
	addl	$1, -104(%rbp)
	jmp	.L35
.L36:
	movq	-40(%rbp), %rax
	subq	$1, %rax
	movzbl	(%rax), %eax
	cmpb	$32, %al
	jne	.L35
	addl	$1, -104(%rbp)
.L35:
	addl	$1, -96(%rbp)
	addq	$1, -40(%rbp)
.L34:
	movl	-96(%rbp), %eax
	cmpl	-128(%rbp), %eax
	jl	.L37
	movl	-108(%rbp), %eax
	cltq
	leaq	0(,%rax,8), %rdx
	movq	-120(%rbp), %rax
	addq	%rdx, %rax
	movq	(%rax), %rax
	movq	%rax, -40(%rbp)
	cmpl	$1, -104(%rbp)
	jne	.L38
	movl	-128(%rbp), %eax
	subl	-100(%rbp), %eax
	movl	%eax, -52(%rbp)
	movl	-52(%rbp), %eax
	movl	%eax, %edx
	shrl	$31, %edx
	addl	%edx, %eax
	sarl	%eax
	movl	%eax, %ecx
	movl	-52(%rbp), %eax
	cltd
	shrl	$31, %edx
	addl	%edx, %eax
	andl	$1, %eax
	subl	%edx, %eax
	addl	%ecx, %eax
	movl	%eax, -48(%rbp)
	movl	-52(%rbp), %eax
	movl	%eax, %edx
	shrl	$31, %edx
	addl	%edx, %eax
	sarl	%eax
	movl	%eax, -44(%rbp)
	movl	$0, -92(%rbp)
	jmp	.L39
.L40:
	movl	$32, %edi
	call	putchar@PLT
	addl	$1, -92(%rbp)
.L39:
	movl	-92(%rbp), %eax
	cmpl	-48(%rbp), %eax
	jl	.L40
	movl	$0, -88(%rbp)
	jmp	.L41
.L42:
	movq	-40(%rbp), %rax
	movq	%rax, -8(%rbp)
	addq	$1, -40(%rbp)
	movq	-8(%rbp), %rax
	movzbl	(%rax), %eax
	movsbl	%al, %eax
	movl	%eax, %edi
	call	putchar@PLT
	addl	$1, -88(%rbp)
.L41:
	movl	-88(%rbp), %eax
	cmpl	-100(%rbp), %eax
	jl	.L42
	movl	$0, -84(%rbp)
	jmp	.L43
.L44:
	movl	$32, %edi
	call	putchar@PLT
	addl	$1, -84(%rbp)
.L43:
	movl	-84(%rbp), %eax
	cmpl	-44(%rbp), %eax
	jl	.L44
	jmp	.L45
.L38:
	movl	-128(%rbp), %eax
	subl	-100(%rbp), %eax
	movl	%eax, -60(%rbp)
	movl	-104(%rbp), %eax
	leal	-1(%rax), %esi
	movl	-60(%rbp), %eax
	cltd
	idivl	%esi
	movl	%eax, -56(%rbp)
	movl	-104(%rbp), %eax
	leal	-1(%rax), %ecx
	movl	-60(%rbp), %eax
	cltd
	idivl	%ecx
	movl	%edx, -80(%rbp)
	movl	$0, -76(%rbp)
	jmp	.L46
.L56:
	movq	_TIG_iO_3hiG_1_main_1_opaque_ptr_1(%rip), %rdx
	movq	_TIG_iO_3hiG_1_main_1_opaque_ptr_2(%rip), %rax
	cmpq	%rax, %rdx
	je	.L47
#APP
# 175 "rubengill_Comp2510Assignments_a1.c" 1
	.byte 0x0,0x0,0x0,0x0,0xc7
# 0 "" 2
#NO_APP
	jmp	.L48
.L47:
	movq	-40(%rbp), %rax
	movzbl	(%rax), %eax
	cmpb	$32, %al
	je	.L49
	movq	-40(%rbp), %rax
	movzbl	(%rax), %eax
	movsbl	%al, %eax
	movl	%eax, %edi
	call	putchar@PLT
	jmp	.L48
.L49:
	movl	$0, -72(%rbp)
	jmp	.L50
.L51:
	movl	$32, %edi
	call	putchar@PLT
	addl	$1, -72(%rbp)
.L50:
	movl	-72(%rbp), %eax
	cmpl	-56(%rbp), %eax
	jl	.L51
	cmpl	$0, -80(%rbp)
	jle	.L55
	movl	$32, %edi
	call	putchar@PLT
	subl	$1, -80(%rbp)
.L55:
	movq	-40(%rbp), %rax
	addq	$1, %rax
	movzbl	(%rax), %eax
	cmpb	$32, %al
	jne	.L59
	movl	-128(%rbp), %eax
	subl	$1, %eax
	cmpl	%eax, -76(%rbp)
	jge	.L60
	addq	$1, -40(%rbp)
	addl	$1, -76(%rbp)
	jmp	.L55
.L59:
	nop
	jmp	.L48
.L60:
	nop
.L48:
	addl	$1, -76(%rbp)
	addq	$1, -40(%rbp)
.L46:
	movl	-76(%rbp), %eax
	cmpl	-128(%rbp), %eax
	jl	.L56
.L45:
	movl	$10, %edi
	call	putchar@PLT
	addl	$1, -108(%rbp)
.L33:
	movl	-108(%rbp), %eax
	cmpl	-124(%rbp), %eax
	jl	.L57
	nop
	leave
	.cfi_def_cfa 7, 8
	ret
	.cfi_endproc
.LFE2:
	.size	justify_rows, .-justify_rows
	.section	.rodata
	.align 8
.LC0:
	.string	"Usage: %s <line_length> <input_file.txt>\n"
.LC1:
	.string	"r"
.LC2:
	.string	"Failed to open input file."
.LC3:
	.string	"Malloc failed ! "
.LC4:
	.string	""
.LC5:
	.string	"w"
	.align 8
.LC6:
	.string	"Failed to create the output file."
	.text
	.globl	main
	.type	main, @function
main:
.LFB4:
	.cfi_startproc
	endbr64
	pushq	%rbp
	.cfi_def_cfa_offset 16
	.cfi_offset 6, -16
	movq	%rsp, %rbp
	.cfi_def_cfa_register 6
	subq	$192, %rsp
	movl	%edi, -164(%rbp)
	movq	%rsi, -176(%rbp)
	movq	%rdx, -184(%rbp)
	movq	$0, _TIG_IZ_3hiG_envp(%rip)
	nop
.L62:
	movq	$0, _TIG_IZ_3hiG_argv(%rip)
	nop
.L63:
	movl	$0, _TIG_IZ_3hiG_argc(%rip)
	nop
	nop
.L64:
.L65:
#APP
# 103 "/usr/include/x86_64-linux-gnu/bits/uintn-identity.h" 1
	##_ANNOTATION_INITIALREGION_-TIG-IZ-3hiG--0
# 0 "" 2
#NO_APP
	movl	-164(%rbp), %eax
	movl	%eax, _TIG_IZ_3hiG_argc(%rip)
	movq	-176(%rbp), %rax
	movq	%rax, _TIG_IZ_3hiG_argv(%rip)
	movq	-184(%rbp), %rax
	movq	%rax, _TIG_IZ_3hiG_envp(%rip)
#APP
# 110 "/usr/include/x86_64-linux-gnu/bits/uintn-identity.h" 1
	##_ANNOTATION_ATOMICREGION_-TIG-iO-3hiG-1-main--19
# 0 "" 2
#NO_APP
	movl	$24, %edi
	call	malloc@PLT
	movq	%rax, -112(%rbp)
	movq	-112(%rbp), %rax
	movq	-112(%rbp), %rdx
	movq	%rdx, 8(%rax)
	movq	-112(%rbp), %rax
	movq	-112(%rbp), %rdx
	movq	%rdx, 16(%rax)
	movq	-112(%rbp), %rax
	movq	%rax, _TIG_iO_3hiG_1_main_1_opaque_list_1(%rip)
	call	rand@PLT
	movl	%eax, -144(%rbp)
	movl	$24, %edi
	call	malloc@PLT
	movq	%rax, -104(%rbp)
	movq	-104(%rbp), %rax
	movl	$0, (%rax)
	movq	_TIG_iO_3hiG_1_main_1_opaque_list_1(%rip), %rax
	movq	8(%rax), %rdx
	movq	-104(%rbp), %rax
	movq	%rdx, 8(%rax)
	movq	_TIG_iO_3hiG_1_main_1_opaque_list_1(%rip), %rdx
	movq	-104(%rbp), %rax
	movq	%rdx, 16(%rax)
	movq	_TIG_iO_3hiG_1_main_1_opaque_list_1(%rip), %rax
	movq	8(%rax), %rax
	movq	-104(%rbp), %rdx
	movq	%rdx, 16(%rax)
	movq	_TIG_iO_3hiG_1_main_1_opaque_list_1(%rip), %rax
	movq	-104(%rbp), %rdx
	movq	%rdx, 8(%rax)
	call	rand@PLT
	movl	%eax, -140(%rbp)
	movl	$24, %edi
	call	malloc@PLT
	movq	%rax, -96(%rbp)
	movq	-96(%rbp), %rax
	movl	-140(%rbp), %edx
	movl	%edx, (%rax)
	movq	_TIG_iO_3hiG_1_main_1_opaque_list_1(%rip), %rax
	movq	8(%rax), %rdx
	movq	-96(%rbp), %rax
	movq	%rdx, 8(%rax)
	movq	_TIG_iO_3hiG_1_main_1_opaque_list_1(%rip), %rdx
	movq	-96(%rbp), %rax
	movq	%rdx, 16(%rax)
	movq	_TIG_iO_3hiG_1_main_1_opaque_list_1(%rip), %rax
	movq	8(%rax), %rax
	movq	-96(%rbp), %rdx
	movq	%rdx, 16(%rax)
	movq	_TIG_iO_3hiG_1_main_1_opaque_list_1(%rip), %rax
	movq	-96(%rbp), %rdx
	movq	%rdx, 8(%rax)
	movq	_TIG_iO_3hiG_1_main_1_opaque_list_1(%rip), %rax
	movq	8(%rax), %rax
	movq	%rax, _TIG_iO_3hiG_1_main_1_opaque_ptr_1(%rip)
	movq	_TIG_iO_3hiG_1_main_1_opaque_ptr_1(%rip), %rax
	movq	%rax, _TIG_iO_3hiG_1_main_1_opaque_ptr_2(%rip)
	nop
	nop
	cmpl	$3, -164(%rbp)
	je	.L66
	movq	-176(%rbp), %rax
	movq	(%rax), %rax
	movq	%rax, %rsi
	leaq	.LC0(%rip), %rax
	movq	%rax, %rdi
	movl	$0, %eax
	call	printf@PLT
	movl	$1, %eax
	jmp	.L67
.L66:
	movq	-176(%rbp), %rax
	addq	$8, %rax
	movq	(%rax), %rax
	movq	%rax, %rdi
	call	atoi@PLT
	movl	%eax, -136(%rbp)
	movl	-136(%rbp), %eax
	movl	%eax, -132(%rbp)
	movq	-176(%rbp), %rax
	movq	16(%rax), %rax
	movq	%rax, -88(%rbp)
	movq	-88(%rbp), %rax
	leaq	.LC1(%rip), %rdx
	movq	%rdx, %rsi
	movq	%rax, %rdi
	call	fopen@PLT
	movq	%rax, -80(%rbp)
	movq	-80(%rbp), %rax
	movq	%rax, -72(%rbp)
	cmpq	$0, -72(%rbp)
	jne	.L68
	leaq	.LC2(%rip), %rax
	movq	%rax, %rdi
	call	puts@PLT
	movl	$1, %eax
	jmp	.L67
.L68:
	movq	-72(%rbp), %rax
	movl	$2, %edx
	movl	$0, %esi
	movq	%rax, %rdi
	call	fseek@PLT
	movq	-72(%rbp), %rax
	movq	%rax, %rdi
	call	ftell@PLT
	movq	%rax, -64(%rbp)
	movq	-64(%rbp), %rax
	movl	%eax, -128(%rbp)
	movq	-72(%rbp), %rax
	movl	$0, %edx
	movl	$0, %esi
	movq	%rax, %rdi
	call	fseek@PLT
	movl	-128(%rbp), %eax
	cltq
	movq	%rax, %rdi
	call	malloc@PLT
	movq	%rax, -56(%rbp)
	movq	-56(%rbp), %rax
	movq	%rax, -48(%rbp)
	cmpq	$0, -48(%rbp)
	jne	.L69
	leaq	.LC3(%rip), %rax
	movq	%rax, %rdi
	call	puts@PLT
	movl	$1, %eax
	jmp	.L67
.L69:
	movq	_TIG_iO_3hiG_1_main_1_opaque_ptr_1(%rip), %rdx
	movq	_TIG_iO_3hiG_1_main_1_opaque_ptr_2(%rip), %rax
	cmpq	%rax, %rdx
	jne	.L70
	movl	-128(%rbp), %eax
	movslq	%eax, %rdx
	movq	-72(%rbp), %rcx
	movq	-48(%rbp), %rax
	movl	$1, %esi
	movq	%rax, %rdi
	call	fread@PLT
	movq	-72(%rbp), %rax
	movq	%rax, %rdi
	call	fclose@PLT
	movl	-128(%rbp), %edx
	movl	-132(%rbp), %ecx
	movq	-48(%rbp), %rax
	movl	%ecx, %esi
	movq	%rax, %rdi
	call	count_lines
	movl	%eax, -124(%rbp)
	movl	-124(%rbp), %eax
	movl	%eax, -152(%rbp)
	movl	-128(%rbp), %ecx
	movl	-152(%rbp), %edx
	movl	-132(%rbp), %esi
	movq	-48(%rbp), %rax
	movq	%rax, %rdi
	call	divide_input
	movq	%rax, -32(%rbp)
	movq	-32(%rbp), %rax
	movq	%rax, -120(%rbp)
	movl	-132(%rbp), %edx
	movl	-152(%rbp), %ecx
	movq	-120(%rbp), %rax
	movl	%ecx, %esi
	movq	%rax, %rdi
	call	justify_rows
	movl	$0, -148(%rbp)
	jmp	.L72
.L70:
	movq	-72(%rbp), %rax
	leaq	-216(%rax), %rdx
	movq	-48(%rbp), %rax
	leaq	1(%rax), %rdi
	movq	-40(%rbp), %rax
	movq	%rdx, %rcx
	movq	%rax, %rdx
	movl	$0, %esi
	call	fread@PLT
	movq	-72(%rbp), %rax
	subq	$216, %rax
	movq	%rax, %rdi
	call	fclose@PLT
	movq	-48(%rbp), %rax
	leaq	-1(%rax), %rcx
	movl	-148(%rbp), %eax
	movl	%eax, %edx
	movl	$0, %esi
	movq	%rcx, %rdi
	call	count_lines
	movl	%eax, -124(%rbp)
	movl	$3, -152(%rbp)
	movl	-128(%rbp), %eax
	leal	0(,%rax,8), %ecx
	movl	-152(%rbp), %eax
	movslq	%eax, %rdx
	imulq	$1717986919, %rdx, %rdx
	shrq	$32, %rdx
	sarl	%edx
	sarl	$31, %eax
	subl	%eax, %edx
	movl	-132(%rbp), %esi
	movl	%esi, %eax
	sall	$2, %eax
	addl	%eax, %esi
	movq	-48(%rbp), %rax
	addq	$1, %rax
	movq	%rax, %rdi
	call	divide_input
	movq	%rax, -32(%rbp)
	movq	-32(%rbp), %rax
	addq	$8, %rax
	movq	%rax, -120(%rbp)
	movl	-152(%rbp), %edx
	movl	-144(%rbp), %eax
	leal	(%rdx,%rax), %esi
	movq	-120(%rbp), %rax
	leaq	8(%rax), %rcx
	movl	-152(%rbp), %eax
	movl	%eax, %edx
	movq	%rcx, %rdi
	call	justify_rows
	movl	$1, -148(%rbp)
	jmp	.L72
.L73:
	movl	-148(%rbp), %eax
	cltq
	leaq	0(,%rax,8), %rdx
	movq	-120(%rbp), %rax
	addq	%rdx, %rax
	movq	(%rax), %rax
	movq	%rax, %rdi
	call	free@PLT
	addl	$1, -148(%rbp)
.L72:
	movl	-148(%rbp), %eax
	cmpl	-152(%rbp), %eax
	jl	.L73
	movq	-120(%rbp), %rax
	movq	%rax, %rdi
	call	free@PLT
	movq	-48(%rbp), %rax
	movq	%rax, %rdi
	call	free@PLT
	leaq	.LC4(%rip), %rax
	movq	%rax, -24(%rbp)
	movq	-24(%rbp), %rax
	leaq	.LC5(%rip), %rdx
	movq	%rdx, %rsi
	movq	%rax, %rdi
	call	fopen@PLT
	movq	%rax, -16(%rbp)
	movq	-16(%rbp), %rax
	movq	%rax, -8(%rbp)
	cmpq	$0, -8(%rbp)
	jne	.L74
	leaq	.LC6(%rip), %rax
	movq	%rax, %rdi
	call	puts@PLT
	movl	$1, %eax
	jmp	.L67
.L74:
	movq	-8(%rbp), %rax
	movq	%rax, %rdi
	call	fclose@PLT
	movl	$0, %eax
.L67:
	leave
	.cfi_def_cfa 7, 8
	ret
	.cfi_endproc
.LFE4:
	.size	main, .-main
	.section	.rodata
	.align 8
.LC7:
	.string	"Error. The word processor can't display the output."
	.text
	.globl	count_lines
	.type	count_lines, @function
count_lines:
.LFB8:
	.cfi_startproc
	endbr64
	pushq	%rbp
	.cfi_def_cfa_offset 16
	.cfi_offset 6, -16
	movq	%rsp, %rbp
	.cfi_def_cfa_register 6
	subq	$112, %rsp
	movq	%rdi, -104(%rbp)
	movl	%esi, -108(%rbp)
	movl	%edx, -112(%rbp)
#APP
# 62 "/usr/include/x86_64-linux-gnu/bits/uintn-identity.h" 1
	##_ANNOTATION_INITIALREGION_-TIG-iO-3hiG-1-count-lines--14
# 0 "" 2
# 66 "/usr/include/x86_64-linux-gnu/bits/uintn-identity.h" 1
	##_ANNOTATION_ATOMICREGION_-TIG-iO-3hiG-1-count-lines--13
# 0 "" 2
#NO_APP
	movl	$24, %edi
	call	malloc@PLT
	movq	%rax, -48(%rbp)
	movq	-48(%rbp), %rax
	movq	-48(%rbp), %rdx
	movq	%rdx, (%rax)
	movq	-48(%rbp), %rax
	movq	-48(%rbp), %rdx
	movq	%rdx, 8(%rax)
	movq	-48(%rbp), %rax
	movq	%rax, _TIG_iO_3hiG_1_count_lines_1_opaque_list_1(%rip)
	call	rand@PLT
	movl	%eax, -80(%rbp)
	movl	$24, %edi
	call	malloc@PLT
	movq	%rax, -40(%rbp)
	movq	-40(%rbp), %rax
	movl	$0, 16(%rax)
	movq	_TIG_iO_3hiG_1_count_lines_1_opaque_list_1(%rip), %rax
	movq	(%rax), %rdx
	movq	-40(%rbp), %rax
	movq	%rdx, (%rax)
	movq	_TIG_iO_3hiG_1_count_lines_1_opaque_list_1(%rip), %rdx
	movq	-40(%rbp), %rax
	movq	%rdx, 8(%rax)
	movq	_TIG_iO_3hiG_1_count_lines_1_opaque_list_1(%rip), %rax
	movq	(%rax), %rax
	movq	-40(%rbp), %rdx
	movq	%rdx, 8(%rax)
	movq	_TIG_iO_3hiG_1_count_lines_1_opaque_list_1(%rip), %rax
	movq	-40(%rbp), %rdx
	movq	%rdx, (%rax)
	call	rand@PLT
	movl	%eax, -76(%rbp)
	movl	$24, %edi
	call	malloc@PLT
	movq	%rax, -32(%rbp)
	movq	-32(%rbp), %rax
	movl	-76(%rbp), %edx
	movl	%edx, 16(%rax)
	movq	_TIG_iO_3hiG_1_count_lines_1_opaque_list_1(%rip), %rax
	movq	(%rax), %rdx
	movq	-32(%rbp), %rax
	movq	%rdx, (%rax)
	movq	_TIG_iO_3hiG_1_count_lines_1_opaque_list_1(%rip), %rdx
	movq	-32(%rbp), %rax
	movq	%rdx, 8(%rax)
	movq	_TIG_iO_3hiG_1_count_lines_1_opaque_list_1(%rip), %rax
	movq	(%rax), %rax
	movq	-32(%rbp), %rdx
	movq	%rdx, 8(%rax)
	movq	_TIG_iO_3hiG_1_count_lines_1_opaque_list_1(%rip), %rax
	movq	-32(%rbp), %rdx
	movq	%rdx, (%rax)
	call	rand@PLT
	movl	%eax, -72(%rbp)
	movl	$24, %edi
	call	malloc@PLT
	movq	%rax, -24(%rbp)
	movl	-72(%rbp), %eax
	leal	(%rax,%rax), %edx
	movq	-24(%rbp), %rax
	movl	%edx, 16(%rax)
	movq	_TIG_iO_3hiG_1_count_lines_1_opaque_list_1(%rip), %rax
	movq	(%rax), %rdx
	movq	-24(%rbp), %rax
	movq	%rdx, (%rax)
	movq	_TIG_iO_3hiG_1_count_lines_1_opaque_list_1(%rip), %rdx
	movq	-24(%rbp), %rax
	movq	%rdx, 8(%rax)
	movq	_TIG_iO_3hiG_1_count_lines_1_opaque_list_1(%rip), %rax
	movq	(%rax), %rax
	movq	-24(%rbp), %rdx
	movq	%rdx, 8(%rax)
	movq	_TIG_iO_3hiG_1_count_lines_1_opaque_list_1(%rip), %rax
	movq	-24(%rbp), %rdx
	movq	%rdx, (%rax)
	call	rand@PLT
	movl	%eax, -68(%rbp)
	movl	$24, %edi
	call	malloc@PLT
	movq	%rax, -16(%rbp)
	movl	-68(%rbp), %edx
	movl	%edx, %eax
	addl	%eax, %eax
	addl	%eax, %edx
	movq	-16(%rbp), %rax
	movl	%edx, 16(%rax)
	movq	_TIG_iO_3hiG_1_count_lines_1_opaque_list_1(%rip), %rax
	movq	(%rax), %rdx
	movq	-16(%rbp), %rax
	movq	%rdx, (%rax)
	movq	_TIG_iO_3hiG_1_count_lines_1_opaque_list_1(%rip), %rdx
	movq	-16(%rbp), %rax
	movq	%rdx, 8(%rax)
	movq	_TIG_iO_3hiG_1_count_lines_1_opaque_list_1(%rip), %rax
	movq	(%rax), %rax
	movq	-16(%rbp), %rdx
	movq	%rdx, 8(%rax)
	movq	_TIG_iO_3hiG_1_count_lines_1_opaque_list_1(%rip), %rax
	movq	-16(%rbp), %rdx
	movq	%rdx, (%rax)
	movq	_TIG_iO_3hiG_1_count_lines_1_opaque_list_1(%rip), %rax
	movq	(%rax), %rax
	movq	%rax, _TIG_iO_3hiG_1_count_lines_1_opaque_ptr_1(%rip)
	movq	_TIG_iO_3hiG_1_count_lines_1_opaque_ptr_1(%rip), %rax
	movq	%rax, _TIG_iO_3hiG_1_count_lines_1_opaque_ptr_2(%rip)
	movq	_TIG_iO_3hiG_1_count_lines_1_opaque_ptr_2(%rip), %rax
	movq	(%rax), %rax
	movq	%rax, _TIG_iO_3hiG_1_count_lines_1_opaque_ptr_2(%rip)
	nop
	nop
	movl	$0, -88(%rbp)
	movq	-104(%rbp), %rax
	movq	%rax, -64(%rbp)
	jmp	.L76
.L94:
	movl	$0, -84(%rbp)
	movq	-64(%rbp), %rax
	movq	%rax, -8(%rbp)
.L80:
	movl	-84(%rbp), %eax
	cmpl	-108(%rbp), %eax
	jge	.L96
	movl	-112(%rbp), %eax
	movslq	%eax, %rdx
	movq	-104(%rbp), %rax
	addq	%rdx, %rax
	movq	%rax, %rdx
	movq	-64(%rbp), %rax
	cmpq	%rax, %rdx
	jbe	.L97
	addl	$1, -84(%rbp)
	addq	$1, -64(%rbp)
	jmp	.L80
.L96:
	nop
	jmp	.L79
.L97:
	nop
.L79:
	movl	-84(%rbp), %eax
	cmpl	-108(%rbp), %eax
	jne	.L81
	movq	-64(%rbp), %rax
	movzbl	(%rax), %eax
	cmpb	$32, %al
	je	.L81
	movq	-64(%rbp), %rax
	movzbl	(%rax), %eax
	cmpb	$45, %al
	je	.L81
	movq	-64(%rbp), %rax
	movq	%rax, -56(%rbp)
.L87:
	movq	-56(%rbp), %rdx
	movq	-8(%rbp), %rax
	cmpq	%rax, %rdx
	jbe	.L98
	movq	-56(%rbp), %rax
	movzbl	(%rax), %eax
	cmpb	$32, %al
	je	.L99
	movq	-56(%rbp), %rax
	movzbl	(%rax), %eax
	cmpb	$45, %al
	jne	.L84
	movq	_TIG_iO_3hiG_1_main_1_opaque_ptr_1(%rip), %rdx
	movq	_TIG_iO_3hiG_1_main_1_opaque_ptr_2(%rip), %rax
	cmpq	%rax, %rdx
	je	.L100
#APP
# 32 "rubengill_Comp2510Assignments_a1.c" 1
	.byte 0x37,0x9c,0xf0
# 0 "" 2
#NO_APP
.L84:
	subq	$1, -56(%rbp)
	jmp	.L87
.L98:
	nop
	jmp	.L86
.L99:
	nop
	jmp	.L86
.L100:
	nop
.L86:
	movq	-56(%rbp), %rax
	movzbl	(%rax), %eax
	cmpb	$45, %al
	jne	.L101
	movq	-56(%rbp), %rdx
	movq	-8(%rbp), %rax
	cmpq	%rax, %rdx
	jbe	.L102
	movq	-56(%rbp), %rax
	addq	$1, %rax
	movq	%rax, -64(%rbp)
	jmp	.L81
.L101:
	nop
	jmp	.L88
.L102:
	nop
.L88:
	movq	-56(%rbp), %rdx
	movq	-8(%rbp), %rax
	cmpq	%rax, %rdx
	jne	.L90
	leaq	.LC7(%rip), %rax
	movq	%rax, %rdi
	call	puts@PLT
	movl	$1, %edi
	call	exit@PLT
.L90:
	movq	-56(%rbp), %rax
	movq	%rax, -64(%rbp)
.L81:
	addl	$1, -88(%rbp)
.L93:
	movl	-112(%rbp), %eax
	movslq	%eax, %rdx
	movq	-104(%rbp), %rax
	addq	%rdx, %rax
	movq	%rax, %rdx
	movq	-64(%rbp), %rax
	cmpq	%rax, %rdx
	jbe	.L76
	movq	-64(%rbp), %rax
	movzbl	(%rax), %eax
	cmpb	$32, %al
	je	.L92
	jmp	.L76
.L92:
	addq	$1, -64(%rbp)
	jmp	.L93
.L76:
	movl	-112(%rbp), %eax
	movslq	%eax, %rdx
	movq	-104(%rbp), %rax
	addq	%rdx, %rax
	movq	%rax, %rdx
	movq	-64(%rbp), %rax
	cmpq	%rax, %rdx
	ja	.L94
	movl	-88(%rbp), %eax
	leave
	.cfi_def_cfa 7, 8
	ret
	.cfi_endproc
.LFE8:
	.size	count_lines, .-count_lines
	.ident	"GCC: (Ubuntu 11.4.0-1ubuntu1~22.04) 11.4.0"
	.section	.note.GNU-stack,"",@progbits
	.section	.note.gnu.property,"a"
	.align 8
	.long	1f - 0f
	.long	4f - 1f
	.long	5
0:
	.string	"GNU"
1:
	.align 8
	.long	0xc0000002
	.long	3f - 2f
2:
	.long	0x3
3:
	.align 8
4:
