	.file	"Sasmithere_C-practice-codes_7_opaque.c"
	.text
	.globl	_TIG_iO_fQjj_1___uint16_identity_1_opaque_list_2
	.bss
	.align 8
	.type	_TIG_iO_fQjj_1___uint16_identity_1_opaque_list_2, @object
	.size	_TIG_iO_fQjj_1___uint16_identity_1_opaque_list_2, 8
_TIG_iO_fQjj_1___uint16_identity_1_opaque_list_2:
	.zero	8
	.globl	_TIG_iO_fQjj_1___bswap_32_1_opaque_ptr_2
	.align 8
	.type	_TIG_iO_fQjj_1___bswap_32_1_opaque_ptr_2, @object
	.size	_TIG_iO_fQjj_1___bswap_32_1_opaque_ptr_2, 8
_TIG_iO_fQjj_1___bswap_32_1_opaque_ptr_2:
	.zero	8
	.globl	_TIG_iO_fQjj_1_main_1_opaque_ptr_2
	.align 8
	.type	_TIG_iO_fQjj_1_main_1_opaque_ptr_2, @object
	.size	_TIG_iO_fQjj_1_main_1_opaque_ptr_2, 8
_TIG_iO_fQjj_1_main_1_opaque_ptr_2:
	.zero	8
	.globl	_TIG_iO_fQjj_1___bswap_32_1_opaque_ptr_1
	.align 8
	.type	_TIG_iO_fQjj_1___bswap_32_1_opaque_ptr_1, @object
	.size	_TIG_iO_fQjj_1___bswap_32_1_opaque_ptr_1, 8
_TIG_iO_fQjj_1___bswap_32_1_opaque_ptr_1:
	.zero	8
	.globl	_TIG_iO_fQjj_1___uint64_identity_1_opaque_list_1
	.align 8
	.type	_TIG_iO_fQjj_1___uint64_identity_1_opaque_list_1, @object
	.size	_TIG_iO_fQjj_1___uint64_identity_1_opaque_list_1, 8
_TIG_iO_fQjj_1___uint64_identity_1_opaque_list_1:
	.zero	8
	.globl	_TIG_iO_fQjj_1___uint64_identity_1_opaque_ptr_1
	.align 8
	.type	_TIG_iO_fQjj_1___uint64_identity_1_opaque_ptr_1, @object
	.size	_TIG_iO_fQjj_1___uint64_identity_1_opaque_ptr_1, 8
_TIG_iO_fQjj_1___uint64_identity_1_opaque_ptr_1:
	.zero	8
	.globl	_TIG_iO_fQjj_1___uint64_identity_1_opaque_ptr_2
	.align 8
	.type	_TIG_iO_fQjj_1___uint64_identity_1_opaque_ptr_2, @object
	.size	_TIG_iO_fQjj_1___uint64_identity_1_opaque_ptr_2, 8
_TIG_iO_fQjj_1___uint64_identity_1_opaque_ptr_2:
	.zero	8
	.globl	_TIG_iO_fQjj_1___uint64_identity_1_opaque_list_2
	.align 8
	.type	_TIG_iO_fQjj_1___uint64_identity_1_opaque_list_2, @object
	.size	_TIG_iO_fQjj_1___uint64_identity_1_opaque_list_2, 8
_TIG_iO_fQjj_1___uint64_identity_1_opaque_list_2:
	.zero	8
	.globl	_TIG_iO_fQjj_1_is_substring_1_opaque_ptr_2
	.align 8
	.type	_TIG_iO_fQjj_1_is_substring_1_opaque_ptr_2, @object
	.size	_TIG_iO_fQjj_1_is_substring_1_opaque_ptr_2, 8
_TIG_iO_fQjj_1_is_substring_1_opaque_ptr_2:
	.zero	8
	.globl	_TIG_iO_fQjj_1___bswap_16_1_opaque_ptr_2
	.align 8
	.type	_TIG_iO_fQjj_1___bswap_16_1_opaque_ptr_2, @object
	.size	_TIG_iO_fQjj_1___bswap_16_1_opaque_ptr_2, 8
_TIG_iO_fQjj_1___bswap_16_1_opaque_ptr_2:
	.zero	8
	.globl	_TIG_iO_fQjj_1___bswap_16_1_opaque_list_1
	.align 8
	.type	_TIG_iO_fQjj_1___bswap_16_1_opaque_list_1, @object
	.size	_TIG_iO_fQjj_1___bswap_16_1_opaque_list_1, 8
_TIG_iO_fQjj_1___bswap_16_1_opaque_list_1:
	.zero	8
	.globl	_TIG_iO_fQjj_1___bswap_32_1_opaque_list_1
	.align 8
	.type	_TIG_iO_fQjj_1___bswap_32_1_opaque_list_1, @object
	.size	_TIG_iO_fQjj_1___bswap_32_1_opaque_list_1, 8
_TIG_iO_fQjj_1___bswap_32_1_opaque_list_1:
	.zero	8
	.globl	_TIG_IZ_fQjj_envp
	.align 8
	.type	_TIG_IZ_fQjj_envp, @object
	.size	_TIG_IZ_fQjj_envp, 8
_TIG_IZ_fQjj_envp:
	.zero	8
	.globl	_TIG_iO_fQjj_1___bswap_16_1_opaque_list_2
	.align 8
	.type	_TIG_iO_fQjj_1___bswap_16_1_opaque_list_2, @object
	.size	_TIG_iO_fQjj_1___bswap_16_1_opaque_list_2, 8
_TIG_iO_fQjj_1___bswap_16_1_opaque_list_2:
	.zero	8
	.globl	_TIG_iO_fQjj_1___bswap_64_1_opaque_ptr_1
	.align 8
	.type	_TIG_iO_fQjj_1___bswap_64_1_opaque_ptr_1, @object
	.size	_TIG_iO_fQjj_1___bswap_64_1_opaque_ptr_1, 8
_TIG_iO_fQjj_1___bswap_64_1_opaque_ptr_1:
	.zero	8
	.globl	_TIG_iO_fQjj_1___uint32_identity_1_opaque_ptr_1
	.align 8
	.type	_TIG_iO_fQjj_1___uint32_identity_1_opaque_ptr_1, @object
	.size	_TIG_iO_fQjj_1___uint32_identity_1_opaque_ptr_1, 8
_TIG_iO_fQjj_1___uint32_identity_1_opaque_ptr_1:
	.zero	8
	.globl	_TIG_iO_fQjj_1___uint32_identity_1_opaque_ptr_2
	.align 8
	.type	_TIG_iO_fQjj_1___uint32_identity_1_opaque_ptr_2, @object
	.size	_TIG_iO_fQjj_1___uint32_identity_1_opaque_ptr_2, 8
_TIG_iO_fQjj_1___uint32_identity_1_opaque_ptr_2:
	.zero	8
	.globl	_TIG_iO_fQjj_1___uint32_identity_1_opaque_list_2
	.align 8
	.type	_TIG_iO_fQjj_1___uint32_identity_1_opaque_list_2, @object
	.size	_TIG_iO_fQjj_1___uint32_identity_1_opaque_list_2, 8
_TIG_iO_fQjj_1___uint32_identity_1_opaque_list_2:
	.zero	8
	.globl	_TIG_iO_fQjj_1___uint16_identity_1_opaque_ptr_1
	.align 8
	.type	_TIG_iO_fQjj_1___uint16_identity_1_opaque_ptr_1, @object
	.size	_TIG_iO_fQjj_1___uint16_identity_1_opaque_ptr_1, 8
_TIG_iO_fQjj_1___uint16_identity_1_opaque_ptr_1:
	.zero	8
	.globl	_TIG_IZ_fQjj_argc
	.align 4
	.type	_TIG_IZ_fQjj_argc, @object
	.size	_TIG_IZ_fQjj_argc, 4
_TIG_IZ_fQjj_argc:
	.zero	4
	.globl	_TIG_iO_fQjj_1___bswap_64_1_opaque_ptr_2
	.align 8
	.type	_TIG_iO_fQjj_1___bswap_64_1_opaque_ptr_2, @object
	.size	_TIG_iO_fQjj_1___bswap_64_1_opaque_ptr_2, 8
_TIG_iO_fQjj_1___bswap_64_1_opaque_ptr_2:
	.zero	8
	.globl	_TIG_iO_fQjj_1___bswap_32_1_opaque_list_2
	.align 8
	.type	_TIG_iO_fQjj_1___bswap_32_1_opaque_list_2, @object
	.size	_TIG_iO_fQjj_1___bswap_32_1_opaque_list_2, 8
_TIG_iO_fQjj_1___bswap_32_1_opaque_list_2:
	.zero	8
	.globl	_TIG_iO_fQjj_1_is_substring_1_opaque_ptr_1
	.align 8
	.type	_TIG_iO_fQjj_1_is_substring_1_opaque_ptr_1, @object
	.size	_TIG_iO_fQjj_1_is_substring_1_opaque_ptr_1, 8
_TIG_iO_fQjj_1_is_substring_1_opaque_ptr_1:
	.zero	8
	.globl	_TIG_iO_fQjj_1___bswap_64_1_opaque_list_2
	.align 8
	.type	_TIG_iO_fQjj_1___bswap_64_1_opaque_list_2, @object
	.size	_TIG_iO_fQjj_1___bswap_64_1_opaque_list_2, 8
_TIG_iO_fQjj_1___bswap_64_1_opaque_list_2:
	.zero	8
	.globl	_TIG_iO_fQjj_1_main_1_opaque_list_1
	.align 8
	.type	_TIG_iO_fQjj_1_main_1_opaque_list_1, @object
	.size	_TIG_iO_fQjj_1_main_1_opaque_list_1, 8
_TIG_iO_fQjj_1_main_1_opaque_list_1:
	.zero	8
	.globl	_TIG_iO_fQjj_1_is_substring_1_opaque_list_2
	.align 8
	.type	_TIG_iO_fQjj_1_is_substring_1_opaque_list_2, @object
	.size	_TIG_iO_fQjj_1_is_substring_1_opaque_list_2, 8
_TIG_iO_fQjj_1_is_substring_1_opaque_list_2:
	.zero	8
	.globl	_TIG_iO_fQjj_1_main_1_opaque_ptr_1
	.align 8
	.type	_TIG_iO_fQjj_1_main_1_opaque_ptr_1, @object
	.size	_TIG_iO_fQjj_1_main_1_opaque_ptr_1, 8
_TIG_iO_fQjj_1_main_1_opaque_ptr_1:
	.zero	8
	.globl	_TIG_iO_fQjj_1_main_1_opaque_list_2
	.align 8
	.type	_TIG_iO_fQjj_1_main_1_opaque_list_2, @object
	.size	_TIG_iO_fQjj_1_main_1_opaque_list_2, 8
_TIG_iO_fQjj_1_main_1_opaque_list_2:
	.zero	8
	.globl	_TIG_iO_fQjj_1___uint16_identity_1_opaque_ptr_2
	.align 8
	.type	_TIG_iO_fQjj_1___uint16_identity_1_opaque_ptr_2, @object
	.size	_TIG_iO_fQjj_1___uint16_identity_1_opaque_ptr_2, 8
_TIG_iO_fQjj_1___uint16_identity_1_opaque_ptr_2:
	.zero	8
	.globl	_TIG_iO_fQjj_1_is_substring_1_opaque_list_1
	.align 8
	.type	_TIG_iO_fQjj_1_is_substring_1_opaque_list_1, @object
	.size	_TIG_iO_fQjj_1_is_substring_1_opaque_list_1, 8
_TIG_iO_fQjj_1_is_substring_1_opaque_list_1:
	.zero	8
	.globl	_TIG_iO_fQjj_1___uint16_identity_1_opaque_list_1
	.align 8
	.type	_TIG_iO_fQjj_1___uint16_identity_1_opaque_list_1, @object
	.size	_TIG_iO_fQjj_1___uint16_identity_1_opaque_list_1, 8
_TIG_iO_fQjj_1___uint16_identity_1_opaque_list_1:
	.zero	8
	.globl	_TIG_IZ_fQjj_argv
	.align 8
	.type	_TIG_IZ_fQjj_argv, @object
	.size	_TIG_IZ_fQjj_argv, 8
_TIG_IZ_fQjj_argv:
	.zero	8
	.globl	_TIG_iO_fQjj_1___bswap_16_1_opaque_ptr_1
	.align 8
	.type	_TIG_iO_fQjj_1___bswap_16_1_opaque_ptr_1, @object
	.size	_TIG_iO_fQjj_1___bswap_16_1_opaque_ptr_1, 8
_TIG_iO_fQjj_1___bswap_16_1_opaque_ptr_1:
	.zero	8
	.globl	_TIG_iO_fQjj_1___bswap_64_1_opaque_list_1
	.align 8
	.type	_TIG_iO_fQjj_1___bswap_64_1_opaque_list_1, @object
	.size	_TIG_iO_fQjj_1___bswap_64_1_opaque_list_1, 8
_TIG_iO_fQjj_1___bswap_64_1_opaque_list_1:
	.zero	8
	.globl	_TIG_iO_fQjj_1___uint32_identity_1_opaque_list_1
	.align 8
	.type	_TIG_iO_fQjj_1___uint32_identity_1_opaque_list_1, @object
	.size	_TIG_iO_fQjj_1___uint32_identity_1_opaque_list_1, 8
_TIG_iO_fQjj_1___uint32_identity_1_opaque_list_1:
	.zero	8
	.text
	.globl	is_substring
	.type	is_substring, @function
is_substring:
.LFB2:
	.cfi_startproc
	endbr64
	pushq	%rbp
	.cfi_def_cfa_offset 16
	.cfi_offset 6, -16
	movq	%rsp, %rbp
	.cfi_def_cfa_register 6
	subq	$80, %rsp
	movq	%rdi, -72(%rbp)
	movq	%rsi, -80(%rbp)
#APP
# 73 "/usr/include/x86_64-linux-gnu/bits/byteswap.h" 1
	##_ANNOTATION_INITIALREGION_-TIG-iO-fQjj-1-is-substring--14
# 0 "" 2
# 77 "/usr/include/x86_64-linux-gnu/bits/byteswap.h" 1
	##_ANNOTATION_ATOMICREGION_-TIG-iO-fQjj-1-is-substring--13
# 0 "" 2
#NO_APP
	movl	$24, %edi
	call	malloc@PLT
	movq	%rax, -48(%rbp)
	movq	-48(%rbp), %rax
	movq	-48(%rbp), %rdx
	movq	%rdx, (%rax)
	movq	-48(%rbp), %rax
	movq	-48(%rbp), %rdx
	movq	%rdx, 8(%rax)
	movq	-48(%rbp), %rax
	movq	%rax, _TIG_iO_fQjj_1_is_substring_1_opaque_list_1(%rip)
	call	rand@PLT
	movl	%eax, -64(%rbp)
	movl	$24, %edi
	call	malloc@PLT
	movq	%rax, -40(%rbp)
	movq	-40(%rbp), %rax
	movl	$0, 16(%rax)
	movq	_TIG_iO_fQjj_1_is_substring_1_opaque_list_1(%rip), %rax
	movq	(%rax), %rdx
	movq	-40(%rbp), %rax
	movq	%rdx, (%rax)
	movq	_TIG_iO_fQjj_1_is_substring_1_opaque_list_1(%rip), %rdx
	movq	-40(%rbp), %rax
	movq	%rdx, 8(%rax)
	movq	_TIG_iO_fQjj_1_is_substring_1_opaque_list_1(%rip), %rax
	movq	(%rax), %rax
	movq	-40(%rbp), %rdx
	movq	%rdx, 8(%rax)
	movq	_TIG_iO_fQjj_1_is_substring_1_opaque_list_1(%rip), %rax
	movq	-40(%rbp), %rdx
	movq	%rdx, (%rax)
	call	rand@PLT
	movl	%eax, -60(%rbp)
	movl	$24, %edi
	call	malloc@PLT
	movq	%rax, -32(%rbp)
	movq	-32(%rbp), %rax
	movl	-60(%rbp), %edx
	movl	%edx, 16(%rax)
	movq	_TIG_iO_fQjj_1_is_substring_1_opaque_list_1(%rip), %rax
	movq	(%rax), %rdx
	movq	-32(%rbp), %rax
	movq	%rdx, (%rax)
	movq	_TIG_iO_fQjj_1_is_substring_1_opaque_list_1(%rip), %rdx
	movq	-32(%rbp), %rax
	movq	%rdx, 8(%rax)
	movq	_TIG_iO_fQjj_1_is_substring_1_opaque_list_1(%rip), %rax
	movq	(%rax), %rax
	movq	-32(%rbp), %rdx
	movq	%rdx, 8(%rax)
	movq	_TIG_iO_fQjj_1_is_substring_1_opaque_list_1(%rip), %rax
	movq	-32(%rbp), %rdx
	movq	%rdx, (%rax)
	call	rand@PLT
	movl	%eax, -56(%rbp)
	movl	$24, %edi
	call	malloc@PLT
	movq	%rax, -24(%rbp)
	movl	-56(%rbp), %eax
	leal	(%rax,%rax), %edx
	movq	-24(%rbp), %rax
	movl	%edx, 16(%rax)
	movq	_TIG_iO_fQjj_1_is_substring_1_opaque_list_1(%rip), %rax
	movq	(%rax), %rdx
	movq	-24(%rbp), %rax
	movq	%rdx, (%rax)
	movq	_TIG_iO_fQjj_1_is_substring_1_opaque_list_1(%rip), %rdx
	movq	-24(%rbp), %rax
	movq	%rdx, 8(%rax)
	movq	_TIG_iO_fQjj_1_is_substring_1_opaque_list_1(%rip), %rax
	movq	(%rax), %rax
	movq	-24(%rbp), %rdx
	movq	%rdx, 8(%rax)
	movq	_TIG_iO_fQjj_1_is_substring_1_opaque_list_1(%rip), %rax
	movq	-24(%rbp), %rdx
	movq	%rdx, (%rax)
	call	rand@PLT
	movl	%eax, -52(%rbp)
	movl	$24, %edi
	call	malloc@PLT
	movq	%rax, -16(%rbp)
	movl	-52(%rbp), %edx
	movl	%edx, %eax
	addl	%eax, %eax
	addl	%eax, %edx
	movq	-16(%rbp), %rax
	movl	%edx, 16(%rax)
	movq	_TIG_iO_fQjj_1_is_substring_1_opaque_list_1(%rip), %rax
	movq	(%rax), %rdx
	movq	-16(%rbp), %rax
	movq	%rdx, (%rax)
	movq	_TIG_iO_fQjj_1_is_substring_1_opaque_list_1(%rip), %rdx
	movq	-16(%rbp), %rax
	movq	%rdx, 8(%rax)
	movq	_TIG_iO_fQjj_1_is_substring_1_opaque_list_1(%rip), %rax
	movq	(%rax), %rax
	movq	-16(%rbp), %rdx
	movq	%rdx, 8(%rax)
	movq	_TIG_iO_fQjj_1_is_substring_1_opaque_list_1(%rip), %rax
	movq	-16(%rbp), %rdx
	movq	%rdx, (%rax)
	movq	_TIG_iO_fQjj_1_is_substring_1_opaque_list_1(%rip), %rax
	movq	(%rax), %rax
	movq	%rax, _TIG_iO_fQjj_1_is_substring_1_opaque_ptr_1(%rip)
	movq	_TIG_iO_fQjj_1_is_substring_1_opaque_ptr_1(%rip), %rax
	movq	%rax, _TIG_iO_fQjj_1_is_substring_1_opaque_ptr_2(%rip)
	movq	_TIG_iO_fQjj_1_is_substring_1_opaque_ptr_2(%rip), %rax
	movq	(%rax), %rax
	movq	%rax, _TIG_iO_fQjj_1_is_substring_1_opaque_ptr_2(%rip)
	nop
	nop
	movq	-80(%rbp), %rdx
	movq	-72(%rbp), %rax
	movq	%rdx, %rsi
	movq	%rax, %rdi
	call	strstr@PLT
	movq	%rax, -8(%rbp)
	movq	_TIG_iO_fQjj_1_main_1_opaque_ptr_1(%rip), %rdx
	movq	_TIG_iO_fQjj_1_main_1_opaque_ptr_2(%rip), %rax
	cmpq	%rax, %rdx
	je	.L2
	movq	-80(%rbp), %rdx
	movq	-72(%rbp), %rax
	movq	%rdx, %rsi
	movq	%rax, %rdi
	call	is_substring
	movl	%eax, -60(%rbp)
.L2:
	cmpq	$0, -8(%rbp)
	setne	%al
	movzbl	%al, %eax
	leave
	.cfi_def_cfa 7, 8
	ret
	.cfi_endproc
.LFE2:
	.size	is_substring, .-is_substring
	.section	.rodata
.LC0:
	.string	"True"
.LC1:
	.string	"False"
	.text
	.globl	main
	.type	main, @function
main:
.LFB3:
	.cfi_startproc
	endbr64
	pushq	%rbp
	.cfi_def_cfa_offset 16
	.cfi_offset 6, -16
	movq	%rsp, %rbp
	.cfi_def_cfa_register 6
	subq	$112, %rsp
	movl	%edi, -84(%rbp)
	movq	%rsi, -96(%rbp)
	movq	%rdx, -104(%rbp)
	movq	%fs:40, %rax
	movq	%rax, -8(%rbp)
	xorl	%eax, %eax
	movq	$0, _TIG_IZ_fQjj_envp(%rip)
	nop
.L5:
	movq	$0, _TIG_IZ_fQjj_argv(%rip)
	nop
.L6:
	movl	$0, _TIG_IZ_fQjj_argc(%rip)
	nop
	nop
.L7:
.L8:
#APP
# 55 "Sasmithere_C-practice-codes_7.c" 1
	##_ANNOTATION_INITIALREGION_-TIG-IZ-fQjj--0
# 0 "" 2
#NO_APP
	movl	-84(%rbp), %eax
	movl	%eax, _TIG_IZ_fQjj_argc(%rip)
	movq	-96(%rbp), %rax
	movq	%rax, _TIG_IZ_fQjj_argv(%rip)
	movq	-104(%rbp), %rax
	movq	%rax, _TIG_IZ_fQjj_envp(%rip)
#APP
# 62 "Sasmithere_C-practice-codes_7.c" 1
	##_ANNOTATION_ATOMICREGION_-TIG-iO-fQjj-1-main--15
# 0 "" 2
#NO_APP
	movl	$24, %edi
	call	malloc@PLT
	movq	%rax, -64(%rbp)
	movq	-64(%rbp), %rax
	movq	-64(%rbp), %rdx
	movq	%rdx, 16(%rax)
	movq	-64(%rbp), %rax
	movq	-64(%rbp), %rdx
	movq	%rdx, 8(%rax)
	movq	-64(%rbp), %rax
	movq	%rax, _TIG_iO_fQjj_1_main_1_opaque_list_1(%rip)
	call	rand@PLT
	movl	%eax, -76(%rbp)
	movl	$24, %edi
	call	malloc@PLT
	movq	%rax, -56(%rbp)
	movq	-56(%rbp), %rax
	movl	$0, (%rax)
	movq	_TIG_iO_fQjj_1_main_1_opaque_list_1(%rip), %rax
	movq	16(%rax), %rdx
	movq	-56(%rbp), %rax
	movq	%rdx, 16(%rax)
	movq	_TIG_iO_fQjj_1_main_1_opaque_list_1(%rip), %rdx
	movq	-56(%rbp), %rax
	movq	%rdx, 8(%rax)
	movq	_TIG_iO_fQjj_1_main_1_opaque_list_1(%rip), %rax
	movq	16(%rax), %rax
	movq	-56(%rbp), %rdx
	movq	%rdx, 8(%rax)
	movq	_TIG_iO_fQjj_1_main_1_opaque_list_1(%rip), %rax
	movq	-56(%rbp), %rdx
	movq	%rdx, 16(%rax)
	call	rand@PLT
	movl	%eax, -72(%rbp)
	movl	$24, %edi
	call	malloc@PLT
	movq	%rax, -48(%rbp)
	movq	-48(%rbp), %rax
	movl	-72(%rbp), %edx
	movl	%edx, (%rax)
	movq	_TIG_iO_fQjj_1_main_1_opaque_list_1(%rip), %rax
	movq	16(%rax), %rdx
	movq	-48(%rbp), %rax
	movq	%rdx, 16(%rax)
	movq	_TIG_iO_fQjj_1_main_1_opaque_list_1(%rip), %rdx
	movq	-48(%rbp), %rax
	movq	%rdx, 8(%rax)
	movq	_TIG_iO_fQjj_1_main_1_opaque_list_1(%rip), %rax
	movq	16(%rax), %rax
	movq	-48(%rbp), %rdx
	movq	%rdx, 8(%rax)
	movq	_TIG_iO_fQjj_1_main_1_opaque_list_1(%rip), %rax
	movq	-48(%rbp), %rdx
	movq	%rdx, 16(%rax)
	movq	_TIG_iO_fQjj_1_main_1_opaque_list_1(%rip), %rax
	movq	16(%rax), %rax
	movq	%rax, _TIG_iO_fQjj_1_main_1_opaque_ptr_1(%rip)
	movq	_TIG_iO_fQjj_1_main_1_opaque_ptr_1(%rip), %rax
	movq	%rax, _TIG_iO_fQjj_1_main_1_opaque_ptr_2(%rip)
	nop
	nop
	movb	$72, -22(%rbp)
	movb	$101, -21(%rbp)
	movb	$108, -20(%rbp)
	movb	$108, -19(%rbp)
	movb	$111, -18(%rbp)
	movb	$44, -17(%rbp)
	movb	$32, -16(%rbp)
	movb	$119, -15(%rbp)
	movb	$111, -14(%rbp)
	movb	$114, -13(%rbp)
	movb	$108, -12(%rbp)
	movb	$100, -11(%rbp)
	movb	$33, -10(%rbp)
	movb	$0, -9(%rbp)
	movb	$119, -35(%rbp)
	movb	$111, -34(%rbp)
	movb	$114, -33(%rbp)
	movb	$108, -32(%rbp)
	movb	$100, -31(%rbp)
	movb	$0, -30(%rbp)
	leaq	-35(%rbp), %rdx
	leaq	-22(%rbp), %rax
	movq	%rdx, %rsi
	movq	%rax, %rdi
	call	is_substring
	movl	%eax, -68(%rbp)
	cmpl	$0, -68(%rbp)
	je	.L9
	leaq	.LC0(%rip), %rax
	movq	%rax, %rdi
	call	puts@PLT
	jmp	.L10
.L9:
	leaq	.LC1(%rip), %rax
	movq	%rax, %rdi
	call	puts@PLT
.L10:
	movq	_TIG_iO_fQjj_1_main_1_opaque_ptr_1(%rip), %rdx
	movq	_TIG_iO_fQjj_1_main_1_opaque_ptr_2(%rip), %rax
	cmpq	%rax, %rdx
	je	.L11
	movb	$2, -29(%rbp)
	movb	$8, -28(%rbp)
	movb	$0, -27(%rbp)
	movb	$108, -26(%rbp)
	movb	$1, -25(%rbp)
	movb	$6, -24(%rbp)
	movb	$8, -23(%rbp)
	leaq	-29(%rbp), %rdx
	addq	$1, %rdx
	leaq	-22(%rbp), %rax
	addq	$1, %rax
	movq	%rdx, %rsi
	movq	%rax, %rdi
	call	is_substring
	movl	%eax, -80(%rbp)
	jmp	.L12
.L11:
	movb	$112, -29(%rbp)
	movb	$121, -28(%rbp)
	movb	$116, -27(%rbp)
	movb	$104, -26(%rbp)
	movb	$111, -25(%rbp)
	movb	$110, -24(%rbp)
	movb	$0, -23(%rbp)
	leaq	-29(%rbp), %rdx
	leaq	-22(%rbp), %rax
	movq	%rdx, %rsi
	movq	%rax, %rdi
	call	is_substring
	movl	%eax, -80(%rbp)
.L12:
	cmpl	$0, -80(%rbp)
	je	.L13
	leaq	.LC0(%rip), %rax
	movq	%rax, %rdi
	call	puts@PLT
	jmp	.L14
.L13:
	leaq	.LC1(%rip), %rax
	movq	%rax, %rdi
	call	puts@PLT
.L14:
	movl	$0, %eax
	movq	-8(%rbp), %rdx
	subq	%fs:40, %rdx
	je	.L16
	call	__stack_chk_fail@PLT
.L16:
	leave
	.cfi_def_cfa 7, 8
	ret
	.cfi_endproc
.LFE3:
	.size	main, .-main
	.ident	"GCC: (Ubuntu 11.4.0-1ubuntu1~22.04) 11.4.0"
	.section	.note.GNU-stack,"",@progbits
	.section	.note.gnu.property,"a"
	.align 8
	.long	1f - 0f
	.long	4f - 1f
	.long	5
0:
	.string	"GNU"
1:
	.align 8
	.long	0xc0000002
	.long	3f - 2f
2:
	.long	0x3
3:
	.align 8
4:
