	.file	"savanthreddymarthala_c_language_f_opaque.c"
	.text
	.globl	_TIG_iO_Ymhs_1___uint32_identity_1_opaque_ptr_1
	.bss
	.align 8
	.type	_TIG_iO_Ymhs_1___uint32_identity_1_opaque_ptr_1, @object
	.size	_TIG_iO_Ymhs_1___uint32_identity_1_opaque_ptr_1, 8
_TIG_iO_Ymhs_1___uint32_identity_1_opaque_ptr_1:
	.zero	8
	.globl	_TIG_iO_Ymhs_1___uint64_identity_1_opaque_ptr_1
	.align 8
	.type	_TIG_iO_Ymhs_1___uint64_identity_1_opaque_ptr_1, @object
	.size	_TIG_iO_Ymhs_1___uint64_identity_1_opaque_ptr_1, 8
_TIG_iO_Ymhs_1___uint64_identity_1_opaque_ptr_1:
	.zero	8
	.globl	_TIG_iO_Ymhs_1_fib_1_opaque_list_2
	.align 8
	.type	_TIG_iO_Ymhs_1_fib_1_opaque_list_2, @object
	.size	_TIG_iO_Ymhs_1_fib_1_opaque_list_2, 8
_TIG_iO_Ymhs_1_fib_1_opaque_list_2:
	.zero	8
	.globl	_TIG_iO_Ymhs_1___bswap_16_1_opaque_list_2
	.align 8
	.type	_TIG_iO_Ymhs_1___bswap_16_1_opaque_list_2, @object
	.size	_TIG_iO_Ymhs_1___bswap_16_1_opaque_list_2, 8
_TIG_iO_Ymhs_1___bswap_16_1_opaque_list_2:
	.zero	8
	.globl	_TIG_iO_Ymhs_1_main_1_opaque_ptr_2
	.align 8
	.type	_TIG_iO_Ymhs_1_main_1_opaque_ptr_2, @object
	.size	_TIG_iO_Ymhs_1_main_1_opaque_ptr_2, 8
_TIG_iO_Ymhs_1_main_1_opaque_ptr_2:
	.zero	8
	.globl	_TIG_iO_Ymhs_1___bswap_32_1_opaque_ptr_1
	.align 8
	.type	_TIG_iO_Ymhs_1___bswap_32_1_opaque_ptr_1, @object
	.size	_TIG_iO_Ymhs_1___bswap_32_1_opaque_ptr_1, 8
_TIG_iO_Ymhs_1___bswap_32_1_opaque_ptr_1:
	.zero	8
	.globl	_TIG_iO_Ymhs_1_main_1_opaque_list_2
	.align 8
	.type	_TIG_iO_Ymhs_1_main_1_opaque_list_2, @object
	.size	_TIG_iO_Ymhs_1_main_1_opaque_list_2, 8
_TIG_iO_Ymhs_1_main_1_opaque_list_2:
	.zero	8
	.globl	_TIG_iO_Ymhs_1___uint64_identity_1_opaque_list_1
	.align 8
	.type	_TIG_iO_Ymhs_1___uint64_identity_1_opaque_list_1, @object
	.size	_TIG_iO_Ymhs_1___uint64_identity_1_opaque_list_1, 8
_TIG_iO_Ymhs_1___uint64_identity_1_opaque_list_1:
	.zero	8
	.globl	_TIG_iO_Ymhs_1___uint64_identity_1_opaque_list_2
	.align 8
	.type	_TIG_iO_Ymhs_1___uint64_identity_1_opaque_list_2, @object
	.size	_TIG_iO_Ymhs_1___uint64_identity_1_opaque_list_2, 8
_TIG_iO_Ymhs_1___uint64_identity_1_opaque_list_2:
	.zero	8
	.globl	_TIG_iO_Ymhs_1_fib_1_opaque_ptr_2
	.align 8
	.type	_TIG_iO_Ymhs_1_fib_1_opaque_ptr_2, @object
	.size	_TIG_iO_Ymhs_1_fib_1_opaque_ptr_2, 8
_TIG_iO_Ymhs_1_fib_1_opaque_ptr_2:
	.zero	8
	.globl	_TIG_iO_Ymhs_1___bswap_64_1_opaque_list_2
	.align 8
	.type	_TIG_iO_Ymhs_1___bswap_64_1_opaque_list_2, @object
	.size	_TIG_iO_Ymhs_1___bswap_64_1_opaque_list_2, 8
_TIG_iO_Ymhs_1___bswap_64_1_opaque_list_2:
	.zero	8
	.globl	_TIG_iO_Ymhs_1___uint32_identity_1_opaque_list_1
	.align 8
	.type	_TIG_iO_Ymhs_1___uint32_identity_1_opaque_list_1, @object
	.size	_TIG_iO_Ymhs_1___uint32_identity_1_opaque_list_1, 8
_TIG_iO_Ymhs_1___uint32_identity_1_opaque_list_1:
	.zero	8
	.globl	_TIG_iO_Ymhs_1___bswap_16_1_opaque_ptr_2
	.align 8
	.type	_TIG_iO_Ymhs_1___bswap_16_1_opaque_ptr_2, @object
	.size	_TIG_iO_Ymhs_1___bswap_16_1_opaque_ptr_2, 8
_TIG_iO_Ymhs_1___bswap_16_1_opaque_ptr_2:
	.zero	8
	.globl	_TIG_iO_Ymhs_1___uint16_identity_1_opaque_list_2
	.align 8
	.type	_TIG_iO_Ymhs_1___uint16_identity_1_opaque_list_2, @object
	.size	_TIG_iO_Ymhs_1___uint16_identity_1_opaque_list_2, 8
_TIG_iO_Ymhs_1___uint16_identity_1_opaque_list_2:
	.zero	8
	.globl	_TIG_iO_Ymhs_1___uint16_identity_1_opaque_ptr_1
	.align 8
	.type	_TIG_iO_Ymhs_1___uint16_identity_1_opaque_ptr_1, @object
	.size	_TIG_iO_Ymhs_1___uint16_identity_1_opaque_ptr_1, 8
_TIG_iO_Ymhs_1___uint16_identity_1_opaque_ptr_1:
	.zero	8
	.globl	_TIG_iO_Ymhs_1___bswap_64_1_opaque_ptr_2
	.align 8
	.type	_TIG_iO_Ymhs_1___bswap_64_1_opaque_ptr_2, @object
	.size	_TIG_iO_Ymhs_1___bswap_64_1_opaque_ptr_2, 8
_TIG_iO_Ymhs_1___bswap_64_1_opaque_ptr_2:
	.zero	8
	.globl	_TIG_iO_Ymhs_1___uint32_identity_1_opaque_list_2
	.align 8
	.type	_TIG_iO_Ymhs_1___uint32_identity_1_opaque_list_2, @object
	.size	_TIG_iO_Ymhs_1___uint32_identity_1_opaque_list_2, 8
_TIG_iO_Ymhs_1___uint32_identity_1_opaque_list_2:
	.zero	8
	.globl	_TIG_IZ_Ymhs_argv
	.align 8
	.type	_TIG_IZ_Ymhs_argv, @object
	.size	_TIG_IZ_Ymhs_argv, 8
_TIG_IZ_Ymhs_argv:
	.zero	8
	.globl	_TIG_iO_Ymhs_1___uint32_identity_1_opaque_ptr_2
	.align 8
	.type	_TIG_iO_Ymhs_1___uint32_identity_1_opaque_ptr_2, @object
	.size	_TIG_iO_Ymhs_1___uint32_identity_1_opaque_ptr_2, 8
_TIG_iO_Ymhs_1___uint32_identity_1_opaque_ptr_2:
	.zero	8
	.globl	_TIG_iO_Ymhs_1_main_1_opaque_ptr_1
	.align 8
	.type	_TIG_iO_Ymhs_1_main_1_opaque_ptr_1, @object
	.size	_TIG_iO_Ymhs_1_main_1_opaque_ptr_1, 8
_TIG_iO_Ymhs_1_main_1_opaque_ptr_1:
	.zero	8
	.globl	_TIG_IZ_Ymhs_argc
	.align 4
	.type	_TIG_IZ_Ymhs_argc, @object
	.size	_TIG_IZ_Ymhs_argc, 4
_TIG_IZ_Ymhs_argc:
	.zero	4
	.globl	_TIG_iO_Ymhs_1_fib_1_opaque_ptr_1
	.align 8
	.type	_TIG_iO_Ymhs_1_fib_1_opaque_ptr_1, @object
	.size	_TIG_iO_Ymhs_1_fib_1_opaque_ptr_1, 8
_TIG_iO_Ymhs_1_fib_1_opaque_ptr_1:
	.zero	8
	.globl	_TIG_iO_Ymhs_1___bswap_32_1_opaque_list_1
	.align 8
	.type	_TIG_iO_Ymhs_1___bswap_32_1_opaque_list_1, @object
	.size	_TIG_iO_Ymhs_1___bswap_32_1_opaque_list_1, 8
_TIG_iO_Ymhs_1___bswap_32_1_opaque_list_1:
	.zero	8
	.globl	_TIG_iO_Ymhs_1_fib_1_opaque_list_1
	.align 8
	.type	_TIG_iO_Ymhs_1_fib_1_opaque_list_1, @object
	.size	_TIG_iO_Ymhs_1_fib_1_opaque_list_1, 8
_TIG_iO_Ymhs_1_fib_1_opaque_list_1:
	.zero	8
	.globl	_TIG_iO_Ymhs_1___bswap_32_1_opaque_ptr_2
	.align 8
	.type	_TIG_iO_Ymhs_1___bswap_32_1_opaque_ptr_2, @object
	.size	_TIG_iO_Ymhs_1___bswap_32_1_opaque_ptr_2, 8
_TIG_iO_Ymhs_1___bswap_32_1_opaque_ptr_2:
	.zero	8
	.globl	_TIG_iO_Ymhs_1___bswap_32_1_opaque_list_2
	.align 8
	.type	_TIG_iO_Ymhs_1___bswap_32_1_opaque_list_2, @object
	.size	_TIG_iO_Ymhs_1___bswap_32_1_opaque_list_2, 8
_TIG_iO_Ymhs_1___bswap_32_1_opaque_list_2:
	.zero	8
	.globl	_TIG_iO_Ymhs_1___uint16_identity_1_opaque_list_1
	.align 8
	.type	_TIG_iO_Ymhs_1___uint16_identity_1_opaque_list_1, @object
	.size	_TIG_iO_Ymhs_1___uint16_identity_1_opaque_list_1, 8
_TIG_iO_Ymhs_1___uint16_identity_1_opaque_list_1:
	.zero	8
	.globl	_TIG_iO_Ymhs_1___bswap_64_1_opaque_ptr_1
	.align 8
	.type	_TIG_iO_Ymhs_1___bswap_64_1_opaque_ptr_1, @object
	.size	_TIG_iO_Ymhs_1___bswap_64_1_opaque_ptr_1, 8
_TIG_iO_Ymhs_1___bswap_64_1_opaque_ptr_1:
	.zero	8
	.globl	_TIG_iO_Ymhs_1___bswap_16_1_opaque_list_1
	.align 8
	.type	_TIG_iO_Ymhs_1___bswap_16_1_opaque_list_1, @object
	.size	_TIG_iO_Ymhs_1___bswap_16_1_opaque_list_1, 8
_TIG_iO_Ymhs_1___bswap_16_1_opaque_list_1:
	.zero	8
	.globl	_TIG_iO_Ymhs_1___uint64_identity_1_opaque_ptr_2
	.align 8
	.type	_TIG_iO_Ymhs_1___uint64_identity_1_opaque_ptr_2, @object
	.size	_TIG_iO_Ymhs_1___uint64_identity_1_opaque_ptr_2, 8
_TIG_iO_Ymhs_1___uint64_identity_1_opaque_ptr_2:
	.zero	8
	.globl	_TIG_iO_Ymhs_1___bswap_16_1_opaque_ptr_1
	.align 8
	.type	_TIG_iO_Ymhs_1___bswap_16_1_opaque_ptr_1, @object
	.size	_TIG_iO_Ymhs_1___bswap_16_1_opaque_ptr_1, 8
_TIG_iO_Ymhs_1___bswap_16_1_opaque_ptr_1:
	.zero	8
	.globl	_TIG_iO_Ymhs_1_main_1_opaque_list_1
	.align 8
	.type	_TIG_iO_Ymhs_1_main_1_opaque_list_1, @object
	.size	_TIG_iO_Ymhs_1_main_1_opaque_list_1, 8
_TIG_iO_Ymhs_1_main_1_opaque_list_1:
	.zero	8
	.globl	_TIG_IZ_Ymhs_envp
	.align 8
	.type	_TIG_IZ_Ymhs_envp, @object
	.size	_TIG_IZ_Ymhs_envp, 8
_TIG_IZ_Ymhs_envp:
	.zero	8
	.globl	_TIG_iO_Ymhs_1___bswap_64_1_opaque_list_1
	.align 8
	.type	_TIG_iO_Ymhs_1___bswap_64_1_opaque_list_1, @object
	.size	_TIG_iO_Ymhs_1___bswap_64_1_opaque_list_1, 8
_TIG_iO_Ymhs_1___bswap_64_1_opaque_list_1:
	.zero	8
	.globl	_TIG_iO_Ymhs_1___uint16_identity_1_opaque_ptr_2
	.align 8
	.type	_TIG_iO_Ymhs_1___uint16_identity_1_opaque_ptr_2, @object
	.size	_TIG_iO_Ymhs_1___uint16_identity_1_opaque_ptr_2, 8
_TIG_iO_Ymhs_1___uint16_identity_1_opaque_ptr_2:
	.zero	8
	.text
	.globl	fib
	.type	fib, @function
fib:
.LFB0:
	.cfi_startproc
	endbr64
	pushq	%rbp
	.cfi_def_cfa_offset 16
	.cfi_offset 6, -16
	movq	%rsp, %rbp
	.cfi_def_cfa_register 6
	subq	$80, %rsp
	movl	%edi, -68(%rbp)
#APP
# 82 "/usr/include/stdlib.h" 1
	##_ANNOTATION_INITIALREGION_-TIG-iO-Ymhs-1-fib--14
# 0 "" 2
# 86 "/usr/include/stdlib.h" 1
	##_ANNOTATION_ATOMICREGION_-TIG-iO-Ymhs-1-fib--13
# 0 "" 2
#NO_APP
	movl	$24, %edi
	call	malloc@PLT
	movq	%rax, -40(%rbp)
	movq	-40(%rbp), %rax
	movq	-40(%rbp), %rdx
	movq	%rdx, (%rax)
	movq	-40(%rbp), %rax
	movq	-40(%rbp), %rdx
	movq	%rdx, 8(%rax)
	movq	-40(%rbp), %rax
	movq	%rax, _TIG_iO_Ymhs_1_fib_1_opaque_list_1(%rip)
	call	rand@PLT
	movl	%eax, -64(%rbp)
	movl	$24, %edi
	call	malloc@PLT
	movq	%rax, -32(%rbp)
	movq	-32(%rbp), %rax
	movl	$0, 16(%rax)
	movq	_TIG_iO_Ymhs_1_fib_1_opaque_list_1(%rip), %rax
	movq	(%rax), %rdx
	movq	-32(%rbp), %rax
	movq	%rdx, (%rax)
	movq	_TIG_iO_Ymhs_1_fib_1_opaque_list_1(%rip), %rdx
	movq	-32(%rbp), %rax
	movq	%rdx, 8(%rax)
	movq	_TIG_iO_Ymhs_1_fib_1_opaque_list_1(%rip), %rax
	movq	(%rax), %rax
	movq	-32(%rbp), %rdx
	movq	%rdx, 8(%rax)
	movq	_TIG_iO_Ymhs_1_fib_1_opaque_list_1(%rip), %rax
	movq	-32(%rbp), %rdx
	movq	%rdx, (%rax)
	call	rand@PLT
	movl	%eax, -60(%rbp)
	movl	$24, %edi
	call	malloc@PLT
	movq	%rax, -24(%rbp)
	movq	-24(%rbp), %rax
	movl	-60(%rbp), %edx
	movl	%edx, 16(%rax)
	movq	_TIG_iO_Ymhs_1_fib_1_opaque_list_1(%rip), %rax
	movq	(%rax), %rdx
	movq	-24(%rbp), %rax
	movq	%rdx, (%rax)
	movq	_TIG_iO_Ymhs_1_fib_1_opaque_list_1(%rip), %rdx
	movq	-24(%rbp), %rax
	movq	%rdx, 8(%rax)
	movq	_TIG_iO_Ymhs_1_fib_1_opaque_list_1(%rip), %rax
	movq	(%rax), %rax
	movq	-24(%rbp), %rdx
	movq	%rdx, 8(%rax)
	movq	_TIG_iO_Ymhs_1_fib_1_opaque_list_1(%rip), %rax
	movq	-24(%rbp), %rdx
	movq	%rdx, (%rax)
	call	rand@PLT
	movl	%eax, -56(%rbp)
	movl	$24, %edi
	call	malloc@PLT
	movq	%rax, -16(%rbp)
	movl	-56(%rbp), %eax
	leal	(%rax,%rax), %edx
	movq	-16(%rbp), %rax
	movl	%edx, 16(%rax)
	movq	_TIG_iO_Ymhs_1_fib_1_opaque_list_1(%rip), %rax
	movq	(%rax), %rdx
	movq	-16(%rbp), %rax
	movq	%rdx, (%rax)
	movq	_TIG_iO_Ymhs_1_fib_1_opaque_list_1(%rip), %rdx
	movq	-16(%rbp), %rax
	movq	%rdx, 8(%rax)
	movq	_TIG_iO_Ymhs_1_fib_1_opaque_list_1(%rip), %rax
	movq	(%rax), %rax
	movq	-16(%rbp), %rdx
	movq	%rdx, 8(%rax)
	movq	_TIG_iO_Ymhs_1_fib_1_opaque_list_1(%rip), %rax
	movq	-16(%rbp), %rdx
	movq	%rdx, (%rax)
	call	rand@PLT
	movl	%eax, -52(%rbp)
	movl	$24, %edi
	call	malloc@PLT
	movq	%rax, -8(%rbp)
	movl	-52(%rbp), %edx
	movl	%edx, %eax
	addl	%eax, %eax
	addl	%eax, %edx
	movq	-8(%rbp), %rax
	movl	%edx, 16(%rax)
	movq	_TIG_iO_Ymhs_1_fib_1_opaque_list_1(%rip), %rax
	movq	(%rax), %rdx
	movq	-8(%rbp), %rax
	movq	%rdx, (%rax)
	movq	_TIG_iO_Ymhs_1_fib_1_opaque_list_1(%rip), %rdx
	movq	-8(%rbp), %rax
	movq	%rdx, 8(%rax)
	movq	_TIG_iO_Ymhs_1_fib_1_opaque_list_1(%rip), %rax
	movq	(%rax), %rax
	movq	-8(%rbp), %rdx
	movq	%rdx, 8(%rax)
	movq	_TIG_iO_Ymhs_1_fib_1_opaque_list_1(%rip), %rax
	movq	-8(%rbp), %rdx
	movq	%rdx, (%rax)
	movq	_TIG_iO_Ymhs_1_fib_1_opaque_list_1(%rip), %rax
	movq	(%rax), %rax
	movq	%rax, _TIG_iO_Ymhs_1_fib_1_opaque_ptr_1(%rip)
	movq	_TIG_iO_Ymhs_1_fib_1_opaque_ptr_1(%rip), %rax
	movq	%rax, _TIG_iO_Ymhs_1_fib_1_opaque_ptr_2(%rip)
	movq	_TIG_iO_Ymhs_1_fib_1_opaque_ptr_2(%rip), %rax
	movq	(%rax), %rax
	movq	%rax, _TIG_iO_Ymhs_1_fib_1_opaque_ptr_2(%rip)
	nop
	nop
	cmpl	$0, -68(%rbp)
	jne	.L2
	movl	$0, %eax
	jmp	.L3
.L2:
	cmpl	$1, -68(%rbp)
	jne	.L4
	movl	$1, %eax
	jmp	.L3
.L4:
	movl	-68(%rbp), %eax
	subl	$1, %eax
	movl	%eax, %edi
	call	fib
	movl	%eax, -48(%rbp)
	movl	-68(%rbp), %eax
	subl	$2, %eax
	movl	%eax, %edi
	call	fib
	movl	%eax, -44(%rbp)
	movq	_TIG_iO_Ymhs_1_main_1_opaque_ptr_1(%rip), %rdx
	movq	_TIG_iO_Ymhs_1_main_1_opaque_ptr_2(%rip), %rax
	cmpq	%rax, %rdx
	jne	.L5
	movl	-48(%rbp), %edx
	movl	-44(%rbp), %eax
	addl	%edx, %eax
	jmp	.L3
.L5:
	movl	$0, %eax
.L3:
	leave
	.cfi_def_cfa 7, 8
	ret
	.cfi_endproc
.LFE0:
	.size	fib, .-fib
	.section	.rodata
.LC0:
	.string	"enter the value off n"
.LC1:
	.string	"%d"
	.text
	.globl	main
	.type	main, @function
main:
.LFB2:
	.cfi_startproc
	endbr64
	pushq	%rbp
	.cfi_def_cfa_offset 16
	.cfi_offset 6, -16
	movq	%rsp, %rbp
	.cfi_def_cfa_register 6
	subq	$96, %rsp
	movl	%edi, -68(%rbp)
	movq	%rsi, -80(%rbp)
	movq	%rdx, -88(%rbp)
	movq	%fs:40, %rax
	movq	%rax, -8(%rbp)
	xorl	%eax, %eax
	movq	$0, _TIG_IZ_Ymhs_envp(%rip)
	nop
.L7:
	movq	$0, _TIG_IZ_Ymhs_argv(%rip)
	nop
.L8:
	movl	$0, _TIG_IZ_Ymhs_argc(%rip)
	nop
	nop
.L9:
.L10:
#APP
# 94 "/usr/include/x86_64-linux-gnu/bits/uintn-identity.h" 1
	##_ANNOTATION_INITIALREGION_-TIG-IZ-Ymhs--0
# 0 "" 2
#NO_APP
	movl	-68(%rbp), %eax
	movl	%eax, _TIG_IZ_Ymhs_argc(%rip)
	movq	-80(%rbp), %rax
	movq	%rax, _TIG_IZ_Ymhs_argv(%rip)
	movq	-88(%rbp), %rax
	movq	%rax, _TIG_IZ_Ymhs_envp(%rip)
#APP
# 101 "/usr/include/x86_64-linux-gnu/bits/uintn-identity.h" 1
	##_ANNOTATION_ATOMICREGION_-TIG-iO-Ymhs-1-main--15
# 0 "" 2
#NO_APP
	movl	$24, %edi
	call	malloc@PLT
	movq	%rax, -32(%rbp)
	movq	-32(%rbp), %rax
	movq	-32(%rbp), %rdx
	movq	%rdx, 16(%rax)
	movq	-32(%rbp), %rax
	movq	-32(%rbp), %rdx
	movq	%rdx, 8(%rax)
	movq	-32(%rbp), %rax
	movq	%rax, _TIG_iO_Ymhs_1_main_1_opaque_list_1(%rip)
	call	rand@PLT
	movl	%eax, -44(%rbp)
	movl	$24, %edi
	call	malloc@PLT
	movq	%rax, -24(%rbp)
	movq	-24(%rbp), %rax
	movl	$0, (%rax)
	movq	_TIG_iO_Ymhs_1_main_1_opaque_list_1(%rip), %rax
	movq	16(%rax), %rdx
	movq	-24(%rbp), %rax
	movq	%rdx, 16(%rax)
	movq	_TIG_iO_Ymhs_1_main_1_opaque_list_1(%rip), %rdx
	movq	-24(%rbp), %rax
	movq	%rdx, 8(%rax)
	movq	_TIG_iO_Ymhs_1_main_1_opaque_list_1(%rip), %rax
	movq	16(%rax), %rax
	movq	-24(%rbp), %rdx
	movq	%rdx, 8(%rax)
	movq	_TIG_iO_Ymhs_1_main_1_opaque_list_1(%rip), %rax
	movq	-24(%rbp), %rdx
	movq	%rdx, 16(%rax)
	call	rand@PLT
	movl	%eax, -40(%rbp)
	movl	$24, %edi
	call	malloc@PLT
	movq	%rax, -16(%rbp)
	movq	-16(%rbp), %rax
	movl	-40(%rbp), %edx
	movl	%edx, (%rax)
	movq	_TIG_iO_Ymhs_1_main_1_opaque_list_1(%rip), %rax
	movq	16(%rax), %rdx
	movq	-16(%rbp), %rax
	movq	%rdx, 16(%rax)
	movq	_TIG_iO_Ymhs_1_main_1_opaque_list_1(%rip), %rdx
	movq	-16(%rbp), %rax
	movq	%rdx, 8(%rax)
	movq	_TIG_iO_Ymhs_1_main_1_opaque_list_1(%rip), %rax
	movq	16(%rax), %rax
	movq	-16(%rbp), %rdx
	movq	%rdx, 8(%rax)
	movq	_TIG_iO_Ymhs_1_main_1_opaque_list_1(%rip), %rax
	movq	-16(%rbp), %rdx
	movq	%rdx, 16(%rax)
	movq	_TIG_iO_Ymhs_1_main_1_opaque_list_1(%rip), %rax
	movq	16(%rax), %rax
	movq	%rax, _TIG_iO_Ymhs_1_main_1_opaque_ptr_1(%rip)
	movq	_TIG_iO_Ymhs_1_main_1_opaque_ptr_1(%rip), %rax
	movq	%rax, _TIG_iO_Ymhs_1_main_1_opaque_ptr_2(%rip)
	nop
	nop
	leaq	.LC0(%rip), %rax
	movq	%rax, %rdi
	movl	$0, %eax
	call	printf@PLT
	leaq	-52(%rbp), %rax
	movq	%rax, %rsi
	leaq	.LC1(%rip), %rax
	movq	%rax, %rdi
	movl	$0, %eax
	call	__isoc99_scanf@PLT
	movl	$0, -48(%rbp)
.L14:
	movl	-52(%rbp), %eax
	cmpl	%eax, -48(%rbp)
	jl	.L11
	movq	_TIG_iO_Ymhs_1_main_1_opaque_ptr_1(%rip), %rdx
	movq	_TIG_iO_Ymhs_1_main_1_opaque_ptr_2(%rip), %rax
	cmpq	%rax, %rdx
	je	.L17
	movl	-48(%rbp), %eax
	movl	%eax, %edi
	call	fib
	movl	%eax, -68(%rbp)
	jmp	.L17
.L11:
	movl	-48(%rbp), %eax
	movl	%eax, %edi
	call	fib
	movl	%eax, -36(%rbp)
	movl	-36(%rbp), %eax
	movl	%eax, %esi
	leaq	.LC1(%rip), %rax
	movq	%rax, %rdi
	movl	$0, %eax
	call	printf@PLT
	addl	$1, -48(%rbp)
	jmp	.L14
.L17:
	nop
	movl	$0, %eax
	movq	-8(%rbp), %rdx
	subq	%fs:40, %rdx
	je	.L16
	call	__stack_chk_fail@PLT
.L16:
	leave
	.cfi_def_cfa 7, 8
	ret
	.cfi_endproc
.LFE2:
	.size	main, .-main
	.ident	"GCC: (Ubuntu 11.4.0-1ubuntu1~22.04) 11.4.0"
	.section	.note.GNU-stack,"",@progbits
	.section	.note.gnu.property,"a"
	.align 8
	.long	1f - 0f
	.long	4f - 1f
	.long	5
0:
	.string	"GNU"
1:
	.align 8
	.long	0xc0000002
	.long	3f - 2f
2:
	.long	0x3
3:
	.align 8
4:
