	.file	"snh3003_AP18110010240-CS306_1_opaque.c"
	.text
	.globl	_TIG_iO_gQPL_1_T_1_opaque_list_2
	.bss
	.align 8
	.type	_TIG_iO_gQPL_1_T_1_opaque_list_2, @object
	.size	_TIG_iO_gQPL_1_T_1_opaque_list_2, 8
_TIG_iO_gQPL_1_T_1_opaque_list_2:
	.zero	8
	.globl	_TIG_iO_gQPL_1_Edash_1_opaque_ptr_1
	.align 8
	.type	_TIG_iO_gQPL_1_Edash_1_opaque_ptr_1, @object
	.size	_TIG_iO_gQPL_1_Edash_1_opaque_ptr_1, 8
_TIG_iO_gQPL_1_Edash_1_opaque_ptr_1:
	.zero	8
	.globl	_TIG_iO_gQPL_1___uint16_identity_1_opaque_ptr_1
	.align 8
	.type	_TIG_iO_gQPL_1___uint16_identity_1_opaque_ptr_1, @object
	.size	_TIG_iO_gQPL_1___uint16_identity_1_opaque_ptr_1, 8
_TIG_iO_gQPL_1___uint16_identity_1_opaque_ptr_1:
	.zero	8
	.globl	_TIG_IZ_gQPL_argc
	.align 4
	.type	_TIG_IZ_gQPL_argc, @object
	.size	_TIG_IZ_gQPL_argc, 4
_TIG_IZ_gQPL_argc:
	.zero	4
	.globl	_TIG_iO_gQPL_1_T_1_opaque_list_1
	.align 8
	.type	_TIG_iO_gQPL_1_T_1_opaque_list_1, @object
	.size	_TIG_iO_gQPL_1_T_1_opaque_list_1, 8
_TIG_iO_gQPL_1_T_1_opaque_list_1:
	.zero	8
	.globl	_TIG_iO_gQPL_1_main_1_opaque_list_2
	.align 8
	.type	_TIG_iO_gQPL_1_main_1_opaque_list_2, @object
	.size	_TIG_iO_gQPL_1_main_1_opaque_list_2, 8
_TIG_iO_gQPL_1_main_1_opaque_list_2:
	.zero	8
	.globl	_TIG_iO_gQPL_1___bswap_32_1_opaque_list_2
	.align 8
	.type	_TIG_iO_gQPL_1___bswap_32_1_opaque_list_2, @object
	.size	_TIG_iO_gQPL_1___bswap_32_1_opaque_list_2, 8
_TIG_iO_gQPL_1___bswap_32_1_opaque_list_2:
	.zero	8
	.globl	_TIG_iO_gQPL_1_main_1_opaque_ptr_2
	.align 8
	.type	_TIG_iO_gQPL_1_main_1_opaque_ptr_2, @object
	.size	_TIG_iO_gQPL_1_main_1_opaque_ptr_2, 8
_TIG_iO_gQPL_1_main_1_opaque_ptr_2:
	.zero	8
	.globl	_TIG_iO_gQPL_1___uint64_identity_1_opaque_ptr_2
	.align 8
	.type	_TIG_iO_gQPL_1___uint64_identity_1_opaque_ptr_2, @object
	.size	_TIG_iO_gQPL_1___uint64_identity_1_opaque_ptr_2, 8
_TIG_iO_gQPL_1___uint64_identity_1_opaque_ptr_2:
	.zero	8
	.globl	_TIG_iO_gQPL_1_Edash_1_opaque_ptr_2
	.align 8
	.type	_TIG_iO_gQPL_1_Edash_1_opaque_ptr_2, @object
	.size	_TIG_iO_gQPL_1_Edash_1_opaque_ptr_2, 8
_TIG_iO_gQPL_1_Edash_1_opaque_ptr_2:
	.zero	8
	.globl	_TIG_iO_gQPL_1___uint32_identity_1_opaque_ptr_2
	.align 8
	.type	_TIG_iO_gQPL_1___uint32_identity_1_opaque_ptr_2, @object
	.size	_TIG_iO_gQPL_1___uint32_identity_1_opaque_ptr_2, 8
_TIG_iO_gQPL_1___uint32_identity_1_opaque_ptr_2:
	.zero	8
	.globl	_TIG_iO_gQPL_1_E_1_opaque_list_1
	.align 8
	.type	_TIG_iO_gQPL_1_E_1_opaque_list_1, @object
	.size	_TIG_iO_gQPL_1_E_1_opaque_list_1, 8
_TIG_iO_gQPL_1_E_1_opaque_list_1:
	.zero	8
	.globl	_TIG_IZ_gQPL_envp
	.align 8
	.type	_TIG_IZ_gQPL_envp, @object
	.size	_TIG_IZ_gQPL_envp, 8
_TIG_IZ_gQPL_envp:
	.zero	8
	.globl	_TIG_iO_gQPL_1___uint64_identity_1_opaque_ptr_1
	.align 8
	.type	_TIG_iO_gQPL_1___uint64_identity_1_opaque_ptr_1, @object
	.size	_TIG_iO_gQPL_1___uint64_identity_1_opaque_ptr_1, 8
_TIG_iO_gQPL_1___uint64_identity_1_opaque_ptr_1:
	.zero	8
	.globl	_TIG_iO_gQPL_1___bswap_16_1_opaque_ptr_1
	.align 8
	.type	_TIG_iO_gQPL_1___bswap_16_1_opaque_ptr_1, @object
	.size	_TIG_iO_gQPL_1___bswap_16_1_opaque_ptr_1, 8
_TIG_iO_gQPL_1___bswap_16_1_opaque_ptr_1:
	.zero	8
	.globl	_TIG_iO_gQPL_1___uint32_identity_1_opaque_list_1
	.align 8
	.type	_TIG_iO_gQPL_1___uint32_identity_1_opaque_list_1, @object
	.size	_TIG_iO_gQPL_1___uint32_identity_1_opaque_list_1, 8
_TIG_iO_gQPL_1___uint32_identity_1_opaque_list_1:
	.zero	8
	.globl	_TIG_iO_gQPL_1___uint64_identity_1_opaque_list_2
	.align 8
	.type	_TIG_iO_gQPL_1___uint64_identity_1_opaque_list_2, @object
	.size	_TIG_iO_gQPL_1___uint64_identity_1_opaque_list_2, 8
_TIG_iO_gQPL_1___uint64_identity_1_opaque_list_2:
	.zero	8
	.globl	_TIG_iO_gQPL_1_Tdash_1_opaque_list_1
	.align 8
	.type	_TIG_iO_gQPL_1_Tdash_1_opaque_list_1, @object
	.size	_TIG_iO_gQPL_1_Tdash_1_opaque_list_1, 8
_TIG_iO_gQPL_1_Tdash_1_opaque_list_1:
	.zero	8
	.globl	_TIG_iO_gQPL_1___bswap_16_1_opaque_list_1
	.align 8
	.type	_TIG_iO_gQPL_1___bswap_16_1_opaque_list_1, @object
	.size	_TIG_iO_gQPL_1___bswap_16_1_opaque_list_1, 8
_TIG_iO_gQPL_1___bswap_16_1_opaque_list_1:
	.zero	8
	.globl	_TIG_iO_gQPL_1___bswap_32_1_opaque_ptr_1
	.align 8
	.type	_TIG_iO_gQPL_1___bswap_32_1_opaque_ptr_1, @object
	.size	_TIG_iO_gQPL_1___bswap_32_1_opaque_ptr_1, 8
_TIG_iO_gQPL_1___bswap_32_1_opaque_ptr_1:
	.zero	8
	.globl	_TIG_iO_gQPL_1___bswap_32_1_opaque_list_1
	.align 8
	.type	_TIG_iO_gQPL_1___bswap_32_1_opaque_list_1, @object
	.size	_TIG_iO_gQPL_1___bswap_32_1_opaque_list_1, 8
_TIG_iO_gQPL_1___bswap_32_1_opaque_list_1:
	.zero	8
	.globl	_TIG_iO_gQPL_1___bswap_32_1_opaque_ptr_2
	.align 8
	.type	_TIG_iO_gQPL_1___bswap_32_1_opaque_ptr_2, @object
	.size	_TIG_iO_gQPL_1___bswap_32_1_opaque_ptr_2, 8
_TIG_iO_gQPL_1___bswap_32_1_opaque_ptr_2:
	.zero	8
	.globl	_TIG_iO_gQPL_1_Tdash_1_opaque_list_2
	.align 8
	.type	_TIG_iO_gQPL_1_Tdash_1_opaque_list_2, @object
	.size	_TIG_iO_gQPL_1_Tdash_1_opaque_list_2, 8
_TIG_iO_gQPL_1_Tdash_1_opaque_list_2:
	.zero	8
	.globl	string
	.align 32
	.type	string, @object
	.size	string, 50
string:
	.zero	50
	.globl	_TIG_iO_gQPL_1___uint16_identity_1_opaque_ptr_2
	.align 8
	.type	_TIG_iO_gQPL_1___uint16_identity_1_opaque_ptr_2, @object
	.size	_TIG_iO_gQPL_1___uint16_identity_1_opaque_ptr_2, 8
_TIG_iO_gQPL_1___uint16_identity_1_opaque_ptr_2:
	.zero	8
	.globl	_TIG_iO_gQPL_1___bswap_16_1_opaque_ptr_2
	.align 8
	.type	_TIG_iO_gQPL_1___bswap_16_1_opaque_ptr_2, @object
	.size	_TIG_iO_gQPL_1___bswap_16_1_opaque_ptr_2, 8
_TIG_iO_gQPL_1___bswap_16_1_opaque_ptr_2:
	.zero	8
	.globl	_TIG_iO_gQPL_1_E_1_opaque_ptr_2
	.align 8
	.type	_TIG_iO_gQPL_1_E_1_opaque_ptr_2, @object
	.size	_TIG_iO_gQPL_1_E_1_opaque_ptr_2, 8
_TIG_iO_gQPL_1_E_1_opaque_ptr_2:
	.zero	8
	.globl	_TIG_iO_gQPL_1_F_1_opaque_ptr_2
	.align 8
	.type	_TIG_iO_gQPL_1_F_1_opaque_ptr_2, @object
	.size	_TIG_iO_gQPL_1_F_1_opaque_ptr_2, 8
_TIG_iO_gQPL_1_F_1_opaque_ptr_2:
	.zero	8
	.globl	_TIG_iO_gQPL_1___bswap_64_1_opaque_list_1
	.align 8
	.type	_TIG_iO_gQPL_1___bswap_64_1_opaque_list_1, @object
	.size	_TIG_iO_gQPL_1___bswap_64_1_opaque_list_1, 8
_TIG_iO_gQPL_1___bswap_64_1_opaque_list_1:
	.zero	8
	.globl	_TIG_iO_gQPL_1_T_1_opaque_ptr_2
	.align 8
	.type	_TIG_iO_gQPL_1_T_1_opaque_ptr_2, @object
	.size	_TIG_iO_gQPL_1_T_1_opaque_ptr_2, 8
_TIG_iO_gQPL_1_T_1_opaque_ptr_2:
	.zero	8
	.globl	_TIG_iO_gQPL_1_F_1_opaque_list_2
	.align 8
	.type	_TIG_iO_gQPL_1_F_1_opaque_list_2, @object
	.size	_TIG_iO_gQPL_1_F_1_opaque_list_2, 8
_TIG_iO_gQPL_1_F_1_opaque_list_2:
	.zero	8
	.globl	_TIG_iO_gQPL_1___uint32_identity_1_opaque_ptr_1
	.align 8
	.type	_TIG_iO_gQPL_1___uint32_identity_1_opaque_ptr_1, @object
	.size	_TIG_iO_gQPL_1___uint32_identity_1_opaque_ptr_1, 8
_TIG_iO_gQPL_1___uint32_identity_1_opaque_ptr_1:
	.zero	8
	.globl	_TIG_iO_gQPL_1_Tdash_1_opaque_ptr_1
	.align 8
	.type	_TIG_iO_gQPL_1_Tdash_1_opaque_ptr_1, @object
	.size	_TIG_iO_gQPL_1_Tdash_1_opaque_ptr_1, 8
_TIG_iO_gQPL_1_Tdash_1_opaque_ptr_1:
	.zero	8
	.globl	_TIG_iO_gQPL_1_T_1_opaque_ptr_1
	.align 8
	.type	_TIG_iO_gQPL_1_T_1_opaque_ptr_1, @object
	.size	_TIG_iO_gQPL_1_T_1_opaque_ptr_1, 8
_TIG_iO_gQPL_1_T_1_opaque_ptr_1:
	.zero	8
	.globl	_TIG_iO_gQPL_1___bswap_16_1_opaque_list_2
	.align 8
	.type	_TIG_iO_gQPL_1___bswap_16_1_opaque_list_2, @object
	.size	_TIG_iO_gQPL_1___bswap_16_1_opaque_list_2, 8
_TIG_iO_gQPL_1___bswap_16_1_opaque_list_2:
	.zero	8
	.globl	_TIG_iO_gQPL_1_E_1_opaque_list_2
	.align 8
	.type	_TIG_iO_gQPL_1_E_1_opaque_list_2, @object
	.size	_TIG_iO_gQPL_1_E_1_opaque_list_2, 8
_TIG_iO_gQPL_1_E_1_opaque_list_2:
	.zero	8
	.globl	_TIG_iO_gQPL_1_Edash_1_opaque_list_2
	.align 8
	.type	_TIG_iO_gQPL_1_Edash_1_opaque_list_2, @object
	.size	_TIG_iO_gQPL_1_Edash_1_opaque_list_2, 8
_TIG_iO_gQPL_1_Edash_1_opaque_list_2:
	.zero	8
	.globl	_TIG_IZ_gQPL_argv
	.align 8
	.type	_TIG_IZ_gQPL_argv, @object
	.size	_TIG_IZ_gQPL_argv, 8
_TIG_IZ_gQPL_argv:
	.zero	8
	.globl	_TIG_iO_gQPL_1___uint64_identity_1_opaque_list_1
	.align 8
	.type	_TIG_iO_gQPL_1___uint64_identity_1_opaque_list_1, @object
	.size	_TIG_iO_gQPL_1___uint64_identity_1_opaque_list_1, 8
_TIG_iO_gQPL_1___uint64_identity_1_opaque_list_1:
	.zero	8
	.globl	_TIG_iO_gQPL_1_Tdash_1_opaque_ptr_2
	.align 8
	.type	_TIG_iO_gQPL_1_Tdash_1_opaque_ptr_2, @object
	.size	_TIG_iO_gQPL_1_Tdash_1_opaque_ptr_2, 8
_TIG_iO_gQPL_1_Tdash_1_opaque_ptr_2:
	.zero	8
	.globl	_TIG_iO_gQPL_1_Edash_1_opaque_list_1
	.align 8
	.type	_TIG_iO_gQPL_1_Edash_1_opaque_list_1, @object
	.size	_TIG_iO_gQPL_1_Edash_1_opaque_list_1, 8
_TIG_iO_gQPL_1_Edash_1_opaque_list_1:
	.zero	8
	.globl	_TIG_iO_gQPL_1___bswap_64_1_opaque_ptr_2
	.align 8
	.type	_TIG_iO_gQPL_1___bswap_64_1_opaque_ptr_2, @object
	.size	_TIG_iO_gQPL_1___bswap_64_1_opaque_ptr_2, 8
_TIG_iO_gQPL_1___bswap_64_1_opaque_ptr_2:
	.zero	8
	.globl	_TIG_iO_gQPL_1_main_1_opaque_ptr_1
	.align 8
	.type	_TIG_iO_gQPL_1_main_1_opaque_ptr_1, @object
	.size	_TIG_iO_gQPL_1_main_1_opaque_ptr_1, 8
_TIG_iO_gQPL_1_main_1_opaque_ptr_1:
	.zero	8
	.globl	_TIG_iO_gQPL_1___bswap_64_1_opaque_list_2
	.align 8
	.type	_TIG_iO_gQPL_1___bswap_64_1_opaque_list_2, @object
	.size	_TIG_iO_gQPL_1___bswap_64_1_opaque_list_2, 8
_TIG_iO_gQPL_1___bswap_64_1_opaque_list_2:
	.zero	8
	.globl	_TIG_iO_gQPL_1___uint16_identity_1_opaque_list_2
	.align 8
	.type	_TIG_iO_gQPL_1___uint16_identity_1_opaque_list_2, @object
	.size	_TIG_iO_gQPL_1___uint16_identity_1_opaque_list_2, 8
_TIG_iO_gQPL_1___uint16_identity_1_opaque_list_2:
	.zero	8
	.globl	_TIG_iO_gQPL_1_F_1_opaque_ptr_1
	.align 8
	.type	_TIG_iO_gQPL_1_F_1_opaque_ptr_1, @object
	.size	_TIG_iO_gQPL_1_F_1_opaque_ptr_1, 8
_TIG_iO_gQPL_1_F_1_opaque_ptr_1:
	.zero	8
	.globl	ip
	.align 8
	.type	ip, @object
	.size	ip, 8
ip:
	.zero	8
	.globl	_TIG_iO_gQPL_1_main_1_opaque_list_1
	.align 8
	.type	_TIG_iO_gQPL_1_main_1_opaque_list_1, @object
	.size	_TIG_iO_gQPL_1_main_1_opaque_list_1, 8
_TIG_iO_gQPL_1_main_1_opaque_list_1:
	.zero	8
	.globl	_TIG_iO_gQPL_1___uint32_identity_1_opaque_list_2
	.align 8
	.type	_TIG_iO_gQPL_1___uint32_identity_1_opaque_list_2, @object
	.size	_TIG_iO_gQPL_1___uint32_identity_1_opaque_list_2, 8
_TIG_iO_gQPL_1___uint32_identity_1_opaque_list_2:
	.zero	8
	.globl	_TIG_iO_gQPL_1___uint16_identity_1_opaque_list_1
	.align 8
	.type	_TIG_iO_gQPL_1___uint16_identity_1_opaque_list_1, @object
	.size	_TIG_iO_gQPL_1___uint16_identity_1_opaque_list_1, 8
_TIG_iO_gQPL_1___uint16_identity_1_opaque_list_1:
	.zero	8
	.globl	_TIG_iO_gQPL_1___bswap_64_1_opaque_ptr_1
	.align 8
	.type	_TIG_iO_gQPL_1___bswap_64_1_opaque_ptr_1, @object
	.size	_TIG_iO_gQPL_1___bswap_64_1_opaque_ptr_1, 8
_TIG_iO_gQPL_1___bswap_64_1_opaque_ptr_1:
	.zero	8
	.globl	_TIG_iO_gQPL_1_E_1_opaque_ptr_1
	.align 8
	.type	_TIG_iO_gQPL_1_E_1_opaque_ptr_1, @object
	.size	_TIG_iO_gQPL_1_E_1_opaque_ptr_1, 8
_TIG_iO_gQPL_1_E_1_opaque_ptr_1:
	.zero	8
	.globl	_TIG_iO_gQPL_1_F_1_opaque_list_1
	.align 8
	.type	_TIG_iO_gQPL_1_F_1_opaque_list_1, @object
	.size	_TIG_iO_gQPL_1_F_1_opaque_list_1, 8
_TIG_iO_gQPL_1_F_1_opaque_list_1:
	.zero	8
	.section	.rodata
.LC0:
	.string	"Enter the string:"
.LC1:
	.string	"%s"
	.align 8
.LC2:
	.string	"\n\nInput\tAction\n--------------------------------"
	.align 8
.LC3:
	.string	"\n--------------------------------\n"
.LC4:
	.string	"Error in parsing String\n"
	.align 8
.LC5:
	.string	"\n String is successfully parsed\n"
	.align 8
.LC6:
	.string	"\n--------------------------------"
	.align 8
.LC7:
	.string	"\n String is successfully parsed"
.LC8:
	.string	"Error in parsing String"
	.text
	.globl	main
	.type	main, @function
main:
.LFB0:
	.cfi_startproc
	endbr64
	pushq	%rbp
	.cfi_def_cfa_offset 16
	.cfi_offset 6, -16
	movq	%rsp, %rbp
	.cfi_def_cfa_register 6
	subq	$96, %rsp
	movl	%edi, -68(%rbp)
	movq	%rsi, -80(%rbp)
	movq	%rdx, -88(%rbp)
	movl	$0, -52(%rbp)
	jmp	.L2
.L3:
	movl	-52(%rbp), %eax
	cltq
	leaq	string(%rip), %rdx
	movb	$0, (%rax,%rdx)
	addl	$1, -52(%rbp)
.L2:
	cmpl	$49, -52(%rbp)
	jle	.L3
	nop
.L4:
	movq	$0, ip(%rip)
	nop
.L5:
	movq	$0, _TIG_IZ_gQPL_envp(%rip)
	nop
.L6:
	movq	$0, _TIG_IZ_gQPL_argv(%rip)
	nop
.L7:
	movl	$0, _TIG_IZ_gQPL_argc(%rip)
	nop
	nop
.L8:
.L9:
#APP
# 125 "/usr/include/stdlib.h" 1
	##_ANNOTATION_INITIALREGION_-TIG-IZ-gQPL--0
# 0 "" 2
#NO_APP
	movl	-68(%rbp), %eax
	movl	%eax, _TIG_IZ_gQPL_argc(%rip)
	movq	-80(%rbp), %rax
	movq	%rax, _TIG_IZ_gQPL_argv(%rip)
	movq	-88(%rbp), %rax
	movq	%rax, _TIG_IZ_gQPL_envp(%rip)
#APP
# 132 "/usr/include/stdlib.h" 1
	##_ANNOTATION_ATOMICREGION_-TIG-iO-gQPL-1-main--23
# 0 "" 2
#NO_APP
	movl	$24, %edi
	call	malloc@PLT
	movq	%rax, -32(%rbp)
	movq	-32(%rbp), %rax
	movq	-32(%rbp), %rdx
	movq	%rdx, (%rax)
	movq	-32(%rbp), %rax
	movq	-32(%rbp), %rdx
	movq	%rdx, 8(%rax)
	movq	-32(%rbp), %rax
	movq	%rax, _TIG_iO_gQPL_1_main_1_opaque_list_1(%rip)
	call	rand@PLT
	movl	%eax, -48(%rbp)
	movl	$24, %edi
	call	malloc@PLT
	movq	%rax, -24(%rbp)
	movq	-24(%rbp), %rax
	movl	$0, 16(%rax)
	movq	_TIG_iO_gQPL_1_main_1_opaque_list_1(%rip), %rax
	movq	(%rax), %rdx
	movq	-24(%rbp), %rax
	movq	%rdx, (%rax)
	movq	_TIG_iO_gQPL_1_main_1_opaque_list_1(%rip), %rdx
	movq	-24(%rbp), %rax
	movq	%rdx, 8(%rax)
	movq	_TIG_iO_gQPL_1_main_1_opaque_list_1(%rip), %rax
	movq	(%rax), %rax
	movq	-24(%rbp), %rdx
	movq	%rdx, 8(%rax)
	movq	_TIG_iO_gQPL_1_main_1_opaque_list_1(%rip), %rax
	movq	-24(%rbp), %rdx
	movq	%rdx, (%rax)
	call	rand@PLT
	movl	%eax, -44(%rbp)
	movl	$24, %edi
	call	malloc@PLT
	movq	%rax, -16(%rbp)
	movq	-16(%rbp), %rax
	movl	-44(%rbp), %edx
	movl	%edx, 16(%rax)
	movq	_TIG_iO_gQPL_1_main_1_opaque_list_1(%rip), %rax
	movq	(%rax), %rdx
	movq	-16(%rbp), %rax
	movq	%rdx, (%rax)
	movq	_TIG_iO_gQPL_1_main_1_opaque_list_1(%rip), %rdx
	movq	-16(%rbp), %rax
	movq	%rdx, 8(%rax)
	movq	_TIG_iO_gQPL_1_main_1_opaque_list_1(%rip), %rax
	movq	(%rax), %rax
	movq	-16(%rbp), %rdx
	movq	%rdx, 8(%rax)
	movq	_TIG_iO_gQPL_1_main_1_opaque_list_1(%rip), %rax
	movq	-16(%rbp), %rdx
	movq	%rdx, (%rax)
	call	rand@PLT
	movl	%eax, -40(%rbp)
	movl	$24, %edi
	call	malloc@PLT
	movq	%rax, -8(%rbp)
	movl	-40(%rbp), %eax
	leal	(%rax,%rax), %edx
	movq	-8(%rbp), %rax
	movl	%edx, 16(%rax)
	movq	_TIG_iO_gQPL_1_main_1_opaque_list_1(%rip), %rax
	movq	(%rax), %rdx
	movq	-8(%rbp), %rax
	movq	%rdx, (%rax)
	movq	_TIG_iO_gQPL_1_main_1_opaque_list_1(%rip), %rdx
	movq	-8(%rbp), %rax
	movq	%rdx, 8(%rax)
	movq	_TIG_iO_gQPL_1_main_1_opaque_list_1(%rip), %rax
	movq	(%rax), %rax
	movq	-8(%rbp), %rdx
	movq	%rdx, 8(%rax)
	movq	_TIG_iO_gQPL_1_main_1_opaque_list_1(%rip), %rax
	movq	-8(%rbp), %rdx
	movq	%rdx, (%rax)
	movq	_TIG_iO_gQPL_1_main_1_opaque_list_1(%rip), %rax
	movq	(%rax), %rax
	movq	%rax, _TIG_iO_gQPL_1_main_1_opaque_ptr_1(%rip)
	movq	_TIG_iO_gQPL_1_main_1_opaque_ptr_1(%rip), %rax
	movq	%rax, _TIG_iO_gQPL_1_main_1_opaque_ptr_2(%rip)
	movq	_TIG_iO_gQPL_1_main_1_opaque_ptr_2(%rip), %rax
	movq	(%rax), %rax
	movq	%rax, _TIG_iO_gQPL_1_main_1_opaque_ptr_2(%rip)
	nop
	nop
	leaq	.LC0(%rip), %rax
	movq	%rax, %rdi
	call	puts@PLT
	leaq	string(%rip), %rax
	movq	%rax, %rsi
	leaq	.LC1(%rip), %rax
	movq	%rax, %rdi
	movl	$0, %eax
	call	__isoc99_scanf@PLT
	leaq	string(%rip), %rax
	movq	%rax, ip(%rip)
	leaq	.LC2(%rip), %rax
	movq	%rax, %rdi
	call	puts@PLT
	call	E
	movl	%eax, -36(%rbp)
	movq	_TIG_iO_gQPL_1_main_1_opaque_ptr_1(%rip), %rdx
	movq	_TIG_iO_gQPL_1_main_1_opaque_ptr_2(%rip), %rax
	cmpq	%rax, %rdx
	jne	.L10
	movl	-36(%rbp), %eax
	cmpl	-40(%rbp), %eax
	jge	.L13
	leaq	-1+.LC3(%rip), %rax
	movq	%rax, %rdi
	movl	$0, %eax
	call	printf@PLT
	leaq	1+.LC4(%rip), %rax
	movq	%rax, %rdi
	movl	$0, %eax
	call	printf@PLT
	jmp	.L12
.L14:
	leaq	-1+.LC3(%rip), %rax
	movq	%rax, %rdi
	movl	$0, %eax
	call	printf@PLT
	leaq	-1+.LC5(%rip), %rax
	movq	%rax, %rdi
	movl	$0, %eax
	call	printf@PLT
.L13:
	movq	ip(%rip), %rax
	movzbl	(%rax), %eax
	testb	%al, %al
	sete	%al
	movzbl	%al, %eax
	cmpl	%eax, -48(%rbp)
	je	.L14
	jmp	.L12
.L10:
	cmpl	$0, -36(%rbp)
	je	.L15
	movq	ip(%rip), %rax
	movzbl	(%rax), %eax
	testb	%al, %al
	jne	.L16
	leaq	.LC6(%rip), %rax
	movq	%rax, %rdi
	call	puts@PLT
	leaq	.LC7(%rip), %rax
	movq	%rax, %rdi
	call	puts@PLT
	jmp	.L12
.L16:
	leaq	.LC6(%rip), %rax
	movq	%rax, %rdi
	call	puts@PLT
	leaq	.LC8(%rip), %rax
	movq	%rax, %rdi
	call	puts@PLT
	jmp	.L12
.L15:
	leaq	.LC6(%rip), %rax
	movq	%rax, %rdi
	call	puts@PLT
	leaq	.LC8(%rip), %rax
	movq	%rax, %rdi
	call	puts@PLT
.L12:
	movl	$0, %eax
	leave
	.cfi_def_cfa 7, 8
	ret
	.cfi_endproc
.LFE0:
	.size	main, .-main
	.section	.rodata
.LC9:
	.string	"%s\tT'->*FT' \n"
.LC10:
	.string	"%s\tT'->^ \n"
	.text
	.globl	Tdash
	.type	Tdash, @function
Tdash:
.LFB1:
	.cfi_startproc
	endbr64
	pushq	%rbp
	.cfi_def_cfa_offset 16
	.cfi_offset 6, -16
	movq	%rsp, %rbp
	.cfi_def_cfa_register 6
	subq	$64, %rsp
#APP
# 51 "snh3003_AP18110010240-CS306_1.c" 1
	##_ANNOTATION_INITIALREGION_-TIG-iO-gQPL-1-Tdash--10
# 0 "" 2
# 55 "snh3003_AP18110010240-CS306_1.c" 1
	##_ANNOTATION_ATOMICREGION_-TIG-iO-gQPL-1-Tdash--9
# 0 "" 2
#NO_APP
	movl	$24, %edi
	call	malloc@PLT
	movq	%rax, -40(%rbp)
	movq	-40(%rbp), %rax
	movq	-40(%rbp), %rdx
	movq	%rdx, (%rax)
	movq	-40(%rbp), %rax
	movq	-40(%rbp), %rdx
	movq	%rdx, 16(%rax)
	movq	-40(%rbp), %rax
	movq	%rax, _TIG_iO_gQPL_1_Tdash_1_opaque_list_1(%rip)
	call	rand@PLT
	movl	%eax, -64(%rbp)
	movl	$24, %edi
	call	malloc@PLT
	movq	%rax, -32(%rbp)
	movq	-32(%rbp), %rax
	movl	$0, 8(%rax)
	movq	_TIG_iO_gQPL_1_Tdash_1_opaque_list_1(%rip), %rax
	movq	(%rax), %rdx
	movq	-32(%rbp), %rax
	movq	%rdx, (%rax)
	movq	_TIG_iO_gQPL_1_Tdash_1_opaque_list_1(%rip), %rdx
	movq	-32(%rbp), %rax
	movq	%rdx, 16(%rax)
	movq	_TIG_iO_gQPL_1_Tdash_1_opaque_list_1(%rip), %rax
	movq	(%rax), %rax
	movq	-32(%rbp), %rdx
	movq	%rdx, 16(%rax)
	movq	_TIG_iO_gQPL_1_Tdash_1_opaque_list_1(%rip), %rax
	movq	-32(%rbp), %rdx
	movq	%rdx, (%rax)
	call	rand@PLT
	movl	%eax, -60(%rbp)
	movl	$24, %edi
	call	malloc@PLT
	movq	%rax, -24(%rbp)
	movq	-24(%rbp), %rax
	movl	-60(%rbp), %edx
	movl	%edx, 8(%rax)
	movq	_TIG_iO_gQPL_1_Tdash_1_opaque_list_1(%rip), %rax
	movq	(%rax), %rdx
	movq	-24(%rbp), %rax
	movq	%rdx, (%rax)
	movq	_TIG_iO_gQPL_1_Tdash_1_opaque_list_1(%rip), %rdx
	movq	-24(%rbp), %rax
	movq	%rdx, 16(%rax)
	movq	_TIG_iO_gQPL_1_Tdash_1_opaque_list_1(%rip), %rax
	movq	(%rax), %rax
	movq	-24(%rbp), %rdx
	movq	%rdx, 16(%rax)
	movq	_TIG_iO_gQPL_1_Tdash_1_opaque_list_1(%rip), %rax
	movq	-24(%rbp), %rdx
	movq	%rdx, (%rax)
	call	rand@PLT
	movl	%eax, -56(%rbp)
	movl	$24, %edi
	call	malloc@PLT
	movq	%rax, -16(%rbp)
	movl	-56(%rbp), %eax
	leal	(%rax,%rax), %edx
	movq	-16(%rbp), %rax
	movl	%edx, 8(%rax)
	movq	_TIG_iO_gQPL_1_Tdash_1_opaque_list_1(%rip), %rax
	movq	(%rax), %rdx
	movq	-16(%rbp), %rax
	movq	%rdx, (%rax)
	movq	_TIG_iO_gQPL_1_Tdash_1_opaque_list_1(%rip), %rdx
	movq	-16(%rbp), %rax
	movq	%rdx, 16(%rax)
	movq	_TIG_iO_gQPL_1_Tdash_1_opaque_list_1(%rip), %rax
	movq	(%rax), %rax
	movq	-16(%rbp), %rdx
	movq	%rdx, 16(%rax)
	movq	_TIG_iO_gQPL_1_Tdash_1_opaque_list_1(%rip), %rax
	movq	-16(%rbp), %rdx
	movq	%rdx, (%rax)
	call	rand@PLT
	movl	%eax, -52(%rbp)
	movl	$24, %edi
	call	malloc@PLT
	movq	%rax, -8(%rbp)
	movl	-52(%rbp), %edx
	movl	%edx, %eax
	addl	%eax, %eax
	addl	%eax, %edx
	movq	-8(%rbp), %rax
	movl	%edx, 8(%rax)
	movq	_TIG_iO_gQPL_1_Tdash_1_opaque_list_1(%rip), %rax
	movq	(%rax), %rdx
	movq	-8(%rbp), %rax
	movq	%rdx, (%rax)
	movq	_TIG_iO_gQPL_1_Tdash_1_opaque_list_1(%rip), %rdx
	movq	-8(%rbp), %rax
	movq	%rdx, 16(%rax)
	movq	_TIG_iO_gQPL_1_Tdash_1_opaque_list_1(%rip), %rax
	movq	(%rax), %rax
	movq	-8(%rbp), %rdx
	movq	%rdx, 16(%rax)
	movq	_TIG_iO_gQPL_1_Tdash_1_opaque_list_1(%rip), %rax
	movq	-8(%rbp), %rdx
	movq	%rdx, (%rax)
	movq	_TIG_iO_gQPL_1_Tdash_1_opaque_list_1(%rip), %rax
	movq	(%rax), %rax
	movq	%rax, _TIG_iO_gQPL_1_Tdash_1_opaque_ptr_1(%rip)
	movq	_TIG_iO_gQPL_1_Tdash_1_opaque_ptr_1(%rip), %rax
	movq	%rax, _TIG_iO_gQPL_1_Tdash_1_opaque_ptr_2(%rip)
	nop
	nop
	movq	ip(%rip), %rax
	movzbl	(%rax), %eax
	cmpb	$42, %al
	jne	.L19
	movq	ip(%rip), %rax
	movq	%rax, %rsi
	leaq	.LC9(%rip), %rax
	movq	%rax, %rdi
	movl	$0, %eax
	call	printf@PLT
	movq	ip(%rip), %rax
	addq	$1, %rax
	movq	%rax, ip(%rip)
	call	F
	movl	%eax, -48(%rbp)
	cmpl	$0, -48(%rbp)
	je	.L20
	call	Tdash
	movl	%eax, -44(%rbp)
	cmpl	$0, -44(%rbp)
	je	.L21
	movl	$1, %eax
	jmp	.L22
.L21:
	movl	$0, %eax
	jmp	.L22
.L20:
	movl	$0, %eax
	jmp	.L22
.L19:
	movq	_TIG_iO_gQPL_1_main_1_opaque_ptr_1(%rip), %rdx
	movq	_TIG_iO_gQPL_1_main_1_opaque_ptr_2(%rip), %rax
	cmpq	%rax, %rdx
	jne	.L23
	call	Edash
	movl	%eax, -56(%rbp)
.L23:
	movq	ip(%rip), %rax
	movq	%rax, %rsi
	leaq	.LC10(%rip), %rax
	movq	%rax, %rdi
	movl	$0, %eax
	call	printf@PLT
	movl	$1, %eax
.L22:
	leave
	.cfi_def_cfa 7, 8
	ret
	.cfi_endproc
.LFE1:
	.size	Tdash, .-Tdash
	.section	.rodata
.LC11:
	.string	"%s\tE->TE' \n"
	.text
	.globl	E
	.type	E, @function
E:
.LFB3:
	.cfi_startproc
	endbr64
	pushq	%rbp
	.cfi_def_cfa_offset 16
	.cfi_offset 6, -16
	movq	%rsp, %rbp
	.cfi_def_cfa_register 6
	subq	$48, %rsp
#APP
# 54 "/usr/include/x86_64-linux-gnu/bits/uintn-identity.h" 1
	##_ANNOTATION_INITIALREGION_-TIG-iO-gQPL-1-E--2
# 0 "" 2
# 58 "/usr/include/x86_64-linux-gnu/bits/uintn-identity.h" 1
	##_ANNOTATION_ATOMICREGION_-TIG-iO-gQPL-1-E--1
# 0 "" 2
#NO_APP
	movl	$24, %edi
	call	malloc@PLT
	movq	%rax, -24(%rbp)
	movq	-24(%rbp), %rax
	movq	-24(%rbp), %rdx
	movq	%rdx, 8(%rax)
	movq	-24(%rbp), %rax
	movq	-24(%rbp), %rdx
	movq	%rdx, (%rax)
	movq	-24(%rbp), %rax
	movq	%rax, _TIG_iO_gQPL_1_E_1_opaque_list_1(%rip)
	call	rand@PLT
	movl	%eax, -40(%rbp)
	movl	$24, %edi
	call	malloc@PLT
	movq	%rax, -16(%rbp)
	movq	-16(%rbp), %rax
	movl	$0, 16(%rax)
	movq	_TIG_iO_gQPL_1_E_1_opaque_list_1(%rip), %rax
	movq	8(%rax), %rdx
	movq	-16(%rbp), %rax
	movq	%rdx, 8(%rax)
	movq	_TIG_iO_gQPL_1_E_1_opaque_list_1(%rip), %rdx
	movq	-16(%rbp), %rax
	movq	%rdx, (%rax)
	movq	_TIG_iO_gQPL_1_E_1_opaque_list_1(%rip), %rax
	movq	8(%rax), %rax
	movq	-16(%rbp), %rdx
	movq	%rdx, (%rax)
	movq	_TIG_iO_gQPL_1_E_1_opaque_list_1(%rip), %rax
	movq	-16(%rbp), %rdx
	movq	%rdx, 8(%rax)
	call	rand@PLT
	movl	%eax, -36(%rbp)
	movl	$24, %edi
	call	malloc@PLT
	movq	%rax, -8(%rbp)
	movq	-8(%rbp), %rax
	movl	-36(%rbp), %edx
	movl	%edx, 16(%rax)
	movq	_TIG_iO_gQPL_1_E_1_opaque_list_1(%rip), %rax
	movq	8(%rax), %rdx
	movq	-8(%rbp), %rax
	movq	%rdx, 8(%rax)
	movq	_TIG_iO_gQPL_1_E_1_opaque_list_1(%rip), %rdx
	movq	-8(%rbp), %rax
	movq	%rdx, (%rax)
	movq	_TIG_iO_gQPL_1_E_1_opaque_list_1(%rip), %rax
	movq	8(%rax), %rax
	movq	-8(%rbp), %rdx
	movq	%rdx, (%rax)
	movq	_TIG_iO_gQPL_1_E_1_opaque_list_1(%rip), %rax
	movq	-8(%rbp), %rdx
	movq	%rdx, 8(%rax)
	movq	_TIG_iO_gQPL_1_E_1_opaque_list_1(%rip), %rax
	movq	8(%rax), %rax
	movq	%rax, _TIG_iO_gQPL_1_E_1_opaque_ptr_1(%rip)
	movq	_TIG_iO_gQPL_1_E_1_opaque_ptr_1(%rip), %rax
	movq	%rax, _TIG_iO_gQPL_1_E_1_opaque_ptr_2(%rip)
	nop
	nop
	movq	ip(%rip), %rax
	movq	%rax, %rsi
	leaq	.LC11(%rip), %rax
	movq	%rax, %rdi
	movl	$0, %eax
	call	printf@PLT
	call	T
	movl	%eax, -32(%rbp)
	cmpl	$0, -32(%rbp)
	je	.L25
	call	Edash
	movl	%eax, -28(%rbp)
	cmpl	$0, -28(%rbp)
	je	.L26
	movq	_TIG_iO_gQPL_1_main_1_opaque_ptr_1(%rip), %rdx
	movq	_TIG_iO_gQPL_1_main_1_opaque_ptr_2(%rip), %rax
	cmpq	%rax, %rdx
	jne	.L27
	movl	-28(%rbp), %eax
	movl	$0, %edx
	movl	$0, %esi
	movl	%eax, %edi
	call	main
	movl	%eax, -32(%rbp)
.L27:
	movl	$1, %eax
	jmp	.L28
.L26:
	movl	$0, %eax
	jmp	.L28
.L25:
	movl	$0, %eax
.L28:
	leave
	.cfi_def_cfa 7, 8
	ret
	.cfi_endproc
.LFE3:
	.size	E, .-E
	.section	.rodata
.LC12:
	.string	"%s\tT->FT' \n"
	.text
	.globl	T
	.type	T, @function
T:
.LFB8:
	.cfi_startproc
	endbr64
	pushq	%rbp
	.cfi_def_cfa_offset 16
	.cfi_offset 6, -16
	movq	%rsp, %rbp
	.cfi_def_cfa_register 6
	subq	$48, %rsp
#APP
# 74 "/usr/include/x86_64-linux-gnu/bits/byteswap.h" 1
	##_ANNOTATION_INITIALREGION_-TIG-iO-gQPL-1-T--8
# 0 "" 2
# 78 "/usr/include/x86_64-linux-gnu/bits/byteswap.h" 1
	##_ANNOTATION_ATOMICREGION_-TIG-iO-gQPL-1-T--7
# 0 "" 2
#NO_APP
	movl	$24, %edi
	call	malloc@PLT
	movq	%rax, -24(%rbp)
	movq	-24(%rbp), %rax
	movq	-24(%rbp), %rdx
	movq	%rdx, (%rax)
	movq	-24(%rbp), %rax
	movq	-24(%rbp), %rdx
	movq	%rdx, 16(%rax)
	movq	-24(%rbp), %rax
	movq	%rax, _TIG_iO_gQPL_1_T_1_opaque_list_1(%rip)
	call	rand@PLT
	movl	%eax, -40(%rbp)
	movl	$24, %edi
	call	malloc@PLT
	movq	%rax, -16(%rbp)
	movq	-16(%rbp), %rax
	movl	$0, 8(%rax)
	movq	_TIG_iO_gQPL_1_T_1_opaque_list_1(%rip), %rax
	movq	(%rax), %rdx
	movq	-16(%rbp), %rax
	movq	%rdx, (%rax)
	movq	_TIG_iO_gQPL_1_T_1_opaque_list_1(%rip), %rdx
	movq	-16(%rbp), %rax
	movq	%rdx, 16(%rax)
	movq	_TIG_iO_gQPL_1_T_1_opaque_list_1(%rip), %rax
	movq	(%rax), %rax
	movq	-16(%rbp), %rdx
	movq	%rdx, 16(%rax)
	movq	_TIG_iO_gQPL_1_T_1_opaque_list_1(%rip), %rax
	movq	-16(%rbp), %rdx
	movq	%rdx, (%rax)
	call	rand@PLT
	movl	%eax, -36(%rbp)
	movl	$24, %edi
	call	malloc@PLT
	movq	%rax, -8(%rbp)
	movq	-8(%rbp), %rax
	movl	-36(%rbp), %edx
	movl	%edx, 8(%rax)
	movq	_TIG_iO_gQPL_1_T_1_opaque_list_1(%rip), %rax
	movq	(%rax), %rdx
	movq	-8(%rbp), %rax
	movq	%rdx, (%rax)
	movq	_TIG_iO_gQPL_1_T_1_opaque_list_1(%rip), %rdx
	movq	-8(%rbp), %rax
	movq	%rdx, 16(%rax)
	movq	_TIG_iO_gQPL_1_T_1_opaque_list_1(%rip), %rax
	movq	(%rax), %rax
	movq	-8(%rbp), %rdx
	movq	%rdx, 16(%rax)
	movq	_TIG_iO_gQPL_1_T_1_opaque_list_1(%rip), %rax
	movq	-8(%rbp), %rdx
	movq	%rdx, (%rax)
	movq	_TIG_iO_gQPL_1_T_1_opaque_list_1(%rip), %rax
	movq	(%rax), %rax
	movq	%rax, _TIG_iO_gQPL_1_T_1_opaque_ptr_1(%rip)
	movq	_TIG_iO_gQPL_1_T_1_opaque_ptr_1(%rip), %rax
	movq	%rax, _TIG_iO_gQPL_1_T_1_opaque_ptr_2(%rip)
	nop
	nop
	movq	_TIG_iO_gQPL_1_main_1_opaque_ptr_1(%rip), %rdx
	movq	_TIG_iO_gQPL_1_main_1_opaque_ptr_2(%rip), %rax
	cmpq	%rax, %rdx
	jne	.L30
	call	E
	movl	%eax, -32(%rbp)
.L30:
	movq	ip(%rip), %rax
	movq	%rax, %rsi
	leaq	.LC12(%rip), %rax
	movq	%rax, %rdi
	movl	$0, %eax
	call	printf@PLT
	call	F
	movl	%eax, -28(%rbp)
	cmpl	$0, -28(%rbp)
	je	.L31
	call	Tdash
	movl	%eax, -32(%rbp)
	cmpl	$0, -32(%rbp)
	je	.L32
	movl	$1, %eax
	jmp	.L33
.L32:
	movl	$0, %eax
	jmp	.L33
.L31:
	movl	$0, %eax
.L33:
	leave
	.cfi_def_cfa 7, 8
	ret
	.cfi_endproc
.LFE8:
	.size	T, .-T
	.section	.rodata
.LC13:
	.string	"%s\tE'->+TE' \n"
.LC14:
	.string	"%s\tE'->^ \n"
	.text
	.globl	Edash
	.type	Edash, @function
Edash:
.LFB9:
	.cfi_startproc
	endbr64
	pushq	%rbp
	.cfi_def_cfa_offset 16
	.cfi_offset 6, -16
	movq	%rsp, %rbp
	.cfi_def_cfa_register 6
	subq	$48, %rsp
#APP
# 102 "snh3003_AP18110010240-CS306_1.c" 1
	##_ANNOTATION_INITIALREGION_-TIG-iO-gQPL-1-Edash--4
# 0 "" 2
# 106 "snh3003_AP18110010240-CS306_1.c" 1
	##_ANNOTATION_ATOMICREGION_-TIG-iO-gQPL-1-Edash--3
# 0 "" 2
#NO_APP
	movl	$24, %edi
	call	malloc@PLT
	movq	%rax, -24(%rbp)
	movq	-24(%rbp), %rax
	movq	-24(%rbp), %rdx
	movq	%rdx, 16(%rax)
	movq	-24(%rbp), %rax
	movq	-24(%rbp), %rdx
	movq	%rdx, 8(%rax)
	movq	-24(%rbp), %rax
	movq	%rax, _TIG_iO_gQPL_1_Edash_1_opaque_list_1(%rip)
	call	rand@PLT
	movl	%eax, -36(%rbp)
	movl	$24, %edi
	call	malloc@PLT
	movq	%rax, -16(%rbp)
	movq	-16(%rbp), %rax
	movl	$0, (%rax)
	movq	_TIG_iO_gQPL_1_Edash_1_opaque_list_1(%rip), %rax
	movq	16(%rax), %rdx
	movq	-16(%rbp), %rax
	movq	%rdx, 16(%rax)
	movq	_TIG_iO_gQPL_1_Edash_1_opaque_list_1(%rip), %rdx
	movq	-16(%rbp), %rax
	movq	%rdx, 8(%rax)
	movq	_TIG_iO_gQPL_1_Edash_1_opaque_list_1(%rip), %rax
	movq	16(%rax), %rax
	movq	-16(%rbp), %rdx
	movq	%rdx, 8(%rax)
	movq	_TIG_iO_gQPL_1_Edash_1_opaque_list_1(%rip), %rax
	movq	-16(%rbp), %rdx
	movq	%rdx, 16(%rax)
	call	rand@PLT
	movl	%eax, -32(%rbp)
	movl	$24, %edi
	call	malloc@PLT
	movq	%rax, -8(%rbp)
	movq	-8(%rbp), %rax
	movl	-32(%rbp), %edx
	movl	%edx, (%rax)
	movq	_TIG_iO_gQPL_1_Edash_1_opaque_list_1(%rip), %rax
	movq	16(%rax), %rdx
	movq	-8(%rbp), %rax
	movq	%rdx, 16(%rax)
	movq	_TIG_iO_gQPL_1_Edash_1_opaque_list_1(%rip), %rdx
	movq	-8(%rbp), %rax
	movq	%rdx, 8(%rax)
	movq	_TIG_iO_gQPL_1_Edash_1_opaque_list_1(%rip), %rax
	movq	16(%rax), %rax
	movq	-8(%rbp), %rdx
	movq	%rdx, 8(%rax)
	movq	_TIG_iO_gQPL_1_Edash_1_opaque_list_1(%rip), %rax
	movq	-8(%rbp), %rdx
	movq	%rdx, 16(%rax)
	movq	_TIG_iO_gQPL_1_Edash_1_opaque_list_1(%rip), %rax
	movq	16(%rax), %rax
	movq	%rax, _TIG_iO_gQPL_1_Edash_1_opaque_ptr_1(%rip)
	movq	_TIG_iO_gQPL_1_Edash_1_opaque_ptr_1(%rip), %rax
	movq	%rax, _TIG_iO_gQPL_1_Edash_1_opaque_ptr_2(%rip)
	nop
	nop
	movq	ip(%rip), %rax
	movzbl	(%rax), %eax
	cmpb	$43, %al
	jne	.L35
	movq	_TIG_iO_gQPL_1_main_1_opaque_ptr_1(%rip), %rdx
	movq	_TIG_iO_gQPL_1_main_1_opaque_ptr_2(%rip), %rax
	cmpq	%rax, %rdx
	je	.L36
	movq	ip(%rip), %rax
	movq	%rax, %rsi
	leaq	.LC13(%rip), %rax
	movq	%rax, %rdi
	movl	$0, %eax
	call	printf@PLT
	movq	ip(%rip), %rax
	addq	$1, %rax
	movq	%rax, ip(%rip)
	call	T
	movl	%eax, -40(%rbp)
	jmp	.L37
.L36:
	movq	ip(%rip), %rax
	leaq	1(%rax), %rdx
	leaq	1+.LC13(%rip), %rax
	movq	%rdx, %rsi
	movq	%rax, %rdi
	movl	$0, %eax
	call	printf@PLT
	movq	ip(%rip), %rax
	movq	%rax, ip(%rip)
	call	T
	movl	%eax, -40(%rbp)
.L37:
	cmpl	$0, -40(%rbp)
	je	.L38
	call	Edash
	movl	%eax, -28(%rbp)
	cmpl	$0, -28(%rbp)
	je	.L39
	movl	$1, %eax
	jmp	.L40
.L39:
	movl	$0, %eax
	jmp	.L40
.L38:
	movl	$0, %eax
	jmp	.L40
.L35:
	movq	ip(%rip), %rax
	movq	%rax, %rsi
	leaq	.LC14(%rip), %rax
	movq	%rax, %rdi
	movl	$0, %eax
	call	printf@PLT
	movl	$1, %eax
.L40:
	leave
	.cfi_def_cfa 7, 8
	ret
	.cfi_endproc
.LFE9:
	.size	Edash, .-Edash
	.section	.rodata
.LC15:
	.string	"%s\tF->(E) \n"
.LC16:
	.string	"%s\tF->id \n"
	.text
	.globl	F
	.type	F, @function
F:
.LFB10:
	.cfi_startproc
	endbr64
	pushq	%rbp
	.cfi_def_cfa_offset 16
	.cfi_offset 6, -16
	movq	%rsp, %rbp
	.cfi_def_cfa_register 6
	subq	$48, %rsp
#APP
# 87 "snh3003_AP18110010240-CS306_1.c" 1
	##_ANNOTATION_INITIALREGION_-TIG-iO-gQPL-1-F--6
# 0 "" 2
# 91 "snh3003_AP18110010240-CS306_1.c" 1
	##_ANNOTATION_ATOMICREGION_-TIG-iO-gQPL-1-F--5
# 0 "" 2
#NO_APP
	movl	$24, %edi
	call	malloc@PLT
	movq	%rax, -32(%rbp)
	movq	-32(%rbp), %rax
	movq	-32(%rbp), %rdx
	movq	%rdx, 8(%rax)
	movq	-32(%rbp), %rax
	movq	-32(%rbp), %rdx
	movq	%rdx, 16(%rax)
	movq	-32(%rbp), %rax
	movq	%rax, _TIG_iO_gQPL_1_F_1_opaque_list_1(%rip)
	call	rand@PLT
	movl	%eax, -48(%rbp)
	movl	$24, %edi
	call	malloc@PLT
	movq	%rax, -24(%rbp)
	movq	-24(%rbp), %rax
	movl	$0, (%rax)
	movq	_TIG_iO_gQPL_1_F_1_opaque_list_1(%rip), %rax
	movq	8(%rax), %rdx
	movq	-24(%rbp), %rax
	movq	%rdx, 8(%rax)
	movq	_TIG_iO_gQPL_1_F_1_opaque_list_1(%rip), %rdx
	movq	-24(%rbp), %rax
	movq	%rdx, 16(%rax)
	movq	_TIG_iO_gQPL_1_F_1_opaque_list_1(%rip), %rax
	movq	8(%rax), %rax
	movq	-24(%rbp), %rdx
	movq	%rdx, 16(%rax)
	movq	_TIG_iO_gQPL_1_F_1_opaque_list_1(%rip), %rax
	movq	-24(%rbp), %rdx
	movq	%rdx, 8(%rax)
	call	rand@PLT
	movl	%eax, -44(%rbp)
	movl	$24, %edi
	call	malloc@PLT
	movq	%rax, -16(%rbp)
	movq	-16(%rbp), %rax
	movl	-44(%rbp), %edx
	movl	%edx, (%rax)
	movq	_TIG_iO_gQPL_1_F_1_opaque_list_1(%rip), %rax
	movq	8(%rax), %rdx
	movq	-16(%rbp), %rax
	movq	%rdx, 8(%rax)
	movq	_TIG_iO_gQPL_1_F_1_opaque_list_1(%rip), %rdx
	movq	-16(%rbp), %rax
	movq	%rdx, 16(%rax)
	movq	_TIG_iO_gQPL_1_F_1_opaque_list_1(%rip), %rax
	movq	8(%rax), %rax
	movq	-16(%rbp), %rdx
	movq	%rdx, 16(%rax)
	movq	_TIG_iO_gQPL_1_F_1_opaque_list_1(%rip), %rax
	movq	-16(%rbp), %rdx
	movq	%rdx, 8(%rax)
	call	rand@PLT
	movl	%eax, -40(%rbp)
	movl	$24, %edi
	call	malloc@PLT
	movq	%rax, -8(%rbp)
	movl	-40(%rbp), %eax
	leal	(%rax,%rax), %edx
	movq	-8(%rbp), %rax
	movl	%edx, (%rax)
	movq	_TIG_iO_gQPL_1_F_1_opaque_list_1(%rip), %rax
	movq	8(%rax), %rdx
	movq	-8(%rbp), %rax
	movq	%rdx, 8(%rax)
	movq	_TIG_iO_gQPL_1_F_1_opaque_list_1(%rip), %rdx
	movq	-8(%rbp), %rax
	movq	%rdx, 16(%rax)
	movq	_TIG_iO_gQPL_1_F_1_opaque_list_1(%rip), %rax
	movq	8(%rax), %rax
	movq	-8(%rbp), %rdx
	movq	%rdx, 16(%rax)
	movq	_TIG_iO_gQPL_1_F_1_opaque_list_1(%rip), %rax
	movq	-8(%rbp), %rdx
	movq	%rdx, 8(%rax)
	movq	_TIG_iO_gQPL_1_F_1_opaque_list_1(%rip), %rax
	movq	8(%rax), %rax
	movq	%rax, _TIG_iO_gQPL_1_F_1_opaque_ptr_1(%rip)
	movq	_TIG_iO_gQPL_1_F_1_opaque_ptr_1(%rip), %rax
	movq	%rax, _TIG_iO_gQPL_1_F_1_opaque_ptr_2(%rip)
	nop
	nop
	movq	ip(%rip), %rax
	movzbl	(%rax), %eax
	cmpb	$40, %al
	jne	.L42
	movq	ip(%rip), %rax
	movq	%rax, %rsi
	leaq	.LC15(%rip), %rax
	movq	%rax, %rdi
	movl	$0, %eax
	call	printf@PLT
	movq	ip(%rip), %rax
	addq	$1, %rax
	movq	%rax, ip(%rip)
	call	E
	movl	%eax, -36(%rbp)
	cmpl	$0, -36(%rbp)
	je	.L43
	movq	ip(%rip), %rax
	movzbl	(%rax), %eax
	cmpb	$41, %al
	jne	.L44
	movq	ip(%rip), %rax
	addq	$1, %rax
	movq	%rax, ip(%rip)
	movl	$1, %eax
	jmp	.L45
.L44:
	movq	_TIG_iO_gQPL_1_main_1_opaque_ptr_1(%rip), %rdx
	movq	_TIG_iO_gQPL_1_main_1_opaque_ptr_2(%rip), %rax
	cmpq	%rax, %rdx
	jne	.L46
	call	Tdash
	movl	%eax, -40(%rbp)
.L46:
	movl	$0, %eax
	jmp	.L45
.L43:
	movl	$0, %eax
	jmp	.L45
.L42:
	movq	ip(%rip), %rax
	movzbl	(%rax), %eax
	cmpb	$105, %al
	jne	.L47
	movq	ip(%rip), %rax
	addq	$1, %rax
	movq	%rax, ip(%rip)
	movq	ip(%rip), %rax
	movq	%rax, %rsi
	leaq	.LC16(%rip), %rax
	movq	%rax, %rdi
	movl	$0, %eax
	call	printf@PLT
	movl	$1, %eax
	jmp	.L45
.L47:
	movl	$0, %eax
.L45:
	leave
	.cfi_def_cfa 7, 8
	ret
	.cfi_endproc
.LFE10:
	.size	F, .-F
	.ident	"GCC: (Ubuntu 11.4.0-1ubuntu1~22.04) 11.4.0"
	.section	.note.GNU-stack,"",@progbits
	.section	.note.gnu.property,"a"
	.align 8
	.long	1f - 0f
	.long	4f - 1f
	.long	5
0:
	.string	"GNU"
1:
	.align 8
	.long	0xc0000002
	.long	3f - 2f
2:
	.long	0x3
3:
	.align 8
4:
