	.file	"zetavg_201411-OSHW1_b_opaque.c"
	.text
	.globl	_TIG_iO_v054_1_wo_lookup_1_opaque_ptr_2
	.bss
	.align 8
	.type	_TIG_iO_v054_1_wo_lookup_1_opaque_ptr_2, @object
	.size	_TIG_iO_v054_1_wo_lookup_1_opaque_ptr_2, 8
_TIG_iO_v054_1_wo_lookup_1_opaque_ptr_2:
	.zero	8
	.globl	_TIG_iO_v054_1_wo_print_all_1_opaque_list_2
	.align 8
	.type	_TIG_iO_v054_1_wo_print_all_1_opaque_list_2, @object
	.size	_TIG_iO_v054_1_wo_print_all_1_opaque_list_2, 8
_TIG_iO_v054_1_wo_print_all_1_opaque_list_2:
	.zero	8
	.globl	_TIG_iO_v054_1_wo_get_1_opaque_ptr_2
	.align 8
	.type	_TIG_iO_v054_1_wo_get_1_opaque_ptr_2, @object
	.size	_TIG_iO_v054_1_wo_get_1_opaque_ptr_2, 8
_TIG_iO_v054_1_wo_get_1_opaque_ptr_2:
	.zero	8
	.globl	_TIG_iO_v054_1_main_1_opaque_list_1
	.align 8
	.type	_TIG_iO_v054_1_main_1_opaque_list_1, @object
	.size	_TIG_iO_v054_1_main_1_opaque_list_1, 8
_TIG_iO_v054_1_main_1_opaque_list_1:
	.zero	8
	.globl	_TIG_iO_v054_1___uint32_identity_1_opaque_list_1
	.align 8
	.type	_TIG_iO_v054_1___uint32_identity_1_opaque_list_1, @object
	.size	_TIG_iO_v054_1___uint32_identity_1_opaque_list_1, 8
_TIG_iO_v054_1___uint32_identity_1_opaque_list_1:
	.zero	8
	.globl	_TIG_iO_v054_1___bswap_64_1_opaque_ptr_1
	.align 8
	.type	_TIG_iO_v054_1___bswap_64_1_opaque_ptr_1, @object
	.size	_TIG_iO_v054_1___bswap_64_1_opaque_ptr_1, 8
_TIG_iO_v054_1___bswap_64_1_opaque_ptr_1:
	.zero	8
	.globl	_TIG_iO_v054_1___uint32_identity_1_opaque_ptr_2
	.align 8
	.type	_TIG_iO_v054_1___uint32_identity_1_opaque_ptr_2, @object
	.size	_TIG_iO_v054_1___uint32_identity_1_opaque_ptr_2, 8
_TIG_iO_v054_1___uint32_identity_1_opaque_ptr_2:
	.zero	8
	.globl	_TIG_IZ_v054_argc
	.align 4
	.type	_TIG_IZ_v054_argc, @object
	.size	_TIG_IZ_v054_argc, 4
_TIG_IZ_v054_argc:
	.zero	4
	.globl	_TIG_iO_v054_1___bswap_16_1_opaque_list_2
	.align 8
	.type	_TIG_iO_v054_1___bswap_16_1_opaque_list_2, @object
	.size	_TIG_iO_v054_1___bswap_16_1_opaque_list_2, 8
_TIG_iO_v054_1___bswap_16_1_opaque_list_2:
	.zero	8
	.globl	_TIG_iO_v054_1___bswap_64_1_opaque_ptr_2
	.align 8
	.type	_TIG_iO_v054_1___bswap_64_1_opaque_ptr_2, @object
	.size	_TIG_iO_v054_1___bswap_64_1_opaque_ptr_2, 8
_TIG_iO_v054_1___bswap_64_1_opaque_ptr_2:
	.zero	8
	.globl	_TIG_IZ_v054_argv
	.align 8
	.type	_TIG_IZ_v054_argv, @object
	.size	_TIG_IZ_v054_argv, 8
_TIG_IZ_v054_argv:
	.zero	8
	.globl	_TIG_iO_v054_1_wo_print_all_1_opaque_list_1
	.align 8
	.type	_TIG_iO_v054_1_wo_print_all_1_opaque_list_1, @object
	.size	_TIG_iO_v054_1_wo_print_all_1_opaque_list_1, 8
_TIG_iO_v054_1_wo_print_all_1_opaque_list_1:
	.zero	8
	.globl	_TIG_iO_v054_1_wo_plus_1_opaque_ptr_1
	.align 8
	.type	_TIG_iO_v054_1_wo_plus_1_opaque_ptr_1, @object
	.size	_TIG_iO_v054_1_wo_plus_1_opaque_ptr_1, 8
_TIG_iO_v054_1_wo_plus_1_opaque_ptr_1:
	.zero	8
	.globl	_TIG_iO_v054_1___uint16_identity_1_opaque_ptr_2
	.align 8
	.type	_TIG_iO_v054_1___uint16_identity_1_opaque_ptr_2, @object
	.size	_TIG_iO_v054_1___uint16_identity_1_opaque_ptr_2, 8
_TIG_iO_v054_1___uint16_identity_1_opaque_ptr_2:
	.zero	8
	.globl	_TIG_iO_v054_1_wo_lookup_1_opaque_ptr_1
	.align 8
	.type	_TIG_iO_v054_1_wo_lookup_1_opaque_ptr_1, @object
	.size	_TIG_iO_v054_1_wo_lookup_1_opaque_ptr_1, 8
_TIG_iO_v054_1_wo_lookup_1_opaque_ptr_1:
	.zero	8
	.globl	_TIG_iO_v054_1___uint16_identity_1_opaque_ptr_1
	.align 8
	.type	_TIG_iO_v054_1___uint16_identity_1_opaque_ptr_1, @object
	.size	_TIG_iO_v054_1___uint16_identity_1_opaque_ptr_1, 8
_TIG_iO_v054_1___uint16_identity_1_opaque_ptr_1:
	.zero	8
	.globl	_TIG_iO_v054_1___bswap_64_1_opaque_list_2
	.align 8
	.type	_TIG_iO_v054_1___bswap_64_1_opaque_list_2, @object
	.size	_TIG_iO_v054_1___bswap_64_1_opaque_list_2, 8
_TIG_iO_v054_1___bswap_64_1_opaque_list_2:
	.zero	8
	.globl	_TIG_iO_v054_1___bswap_32_1_opaque_list_1
	.align 8
	.type	_TIG_iO_v054_1___bswap_32_1_opaque_list_1, @object
	.size	_TIG_iO_v054_1___bswap_32_1_opaque_list_1, 8
_TIG_iO_v054_1___bswap_32_1_opaque_list_1:
	.zero	8
	.globl	_TIG_iO_v054_1___bswap_32_1_opaque_ptr_1
	.align 8
	.type	_TIG_iO_v054_1___bswap_32_1_opaque_ptr_1, @object
	.size	_TIG_iO_v054_1___bswap_32_1_opaque_ptr_1, 8
_TIG_iO_v054_1___bswap_32_1_opaque_ptr_1:
	.zero	8
	.globl	_TIG_iO_v054_1___uint16_identity_1_opaque_list_1
	.align 8
	.type	_TIG_iO_v054_1___uint16_identity_1_opaque_list_1, @object
	.size	_TIG_iO_v054_1___uint16_identity_1_opaque_list_1, 8
_TIG_iO_v054_1___uint16_identity_1_opaque_list_1:
	.zero	8
	.globl	wo_hashtab
	.align 32
	.type	wo_hashtab, @object
	.size	wo_hashtab, 1024
wo_hashtab:
	.zero	1024
	.globl	_TIG_iO_v054_1_wo_lookup_1_opaque_list_1
	.align 8
	.type	_TIG_iO_v054_1_wo_lookup_1_opaque_list_1, @object
	.size	_TIG_iO_v054_1_wo_lookup_1_opaque_list_1, 8
_TIG_iO_v054_1_wo_lookup_1_opaque_list_1:
	.zero	8
	.globl	_TIG_iO_v054_1___bswap_32_1_opaque_ptr_2
	.align 8
	.type	_TIG_iO_v054_1___bswap_32_1_opaque_ptr_2, @object
	.size	_TIG_iO_v054_1___bswap_32_1_opaque_ptr_2, 8
_TIG_iO_v054_1___bswap_32_1_opaque_ptr_2:
	.zero	8
	.globl	_TIG_iO_v054_1___bswap_16_1_opaque_list_1
	.align 8
	.type	_TIG_iO_v054_1___bswap_16_1_opaque_list_1, @object
	.size	_TIG_iO_v054_1___bswap_16_1_opaque_list_1, 8
_TIG_iO_v054_1___bswap_16_1_opaque_list_1:
	.zero	8
	.globl	_TIG_iO_v054_1_hash_1_opaque_list_1
	.align 8
	.type	_TIG_iO_v054_1_hash_1_opaque_list_1, @object
	.size	_TIG_iO_v054_1_hash_1_opaque_list_1, 8
_TIG_iO_v054_1_hash_1_opaque_list_1:
	.zero	8
	.globl	_TIG_iO_v054_1_main_1_opaque_list_2
	.align 8
	.type	_TIG_iO_v054_1_main_1_opaque_list_2, @object
	.size	_TIG_iO_v054_1_main_1_opaque_list_2, 8
_TIG_iO_v054_1_main_1_opaque_list_2:
	.zero	8
	.globl	_TIG_IZ_v054_envp
	.align 8
	.type	_TIG_IZ_v054_envp, @object
	.size	_TIG_IZ_v054_envp, 8
_TIG_IZ_v054_envp:
	.zero	8
	.globl	_TIG_iO_v054_1_wo_lookup_1_opaque_list_2
	.align 8
	.type	_TIG_iO_v054_1_wo_lookup_1_opaque_list_2, @object
	.size	_TIG_iO_v054_1_wo_lookup_1_opaque_list_2, 8
_TIG_iO_v054_1_wo_lookup_1_opaque_list_2:
	.zero	8
	.globl	_TIG_iO_v054_1_hash_1_opaque_ptr_2
	.align 8
	.type	_TIG_iO_v054_1_hash_1_opaque_ptr_2, @object
	.size	_TIG_iO_v054_1_hash_1_opaque_ptr_2, 8
_TIG_iO_v054_1_hash_1_opaque_ptr_2:
	.zero	8
	.globl	_TIG_iO_v054_1_wo_get_1_opaque_ptr_1
	.align 8
	.type	_TIG_iO_v054_1_wo_get_1_opaque_ptr_1, @object
	.size	_TIG_iO_v054_1_wo_get_1_opaque_ptr_1, 8
_TIG_iO_v054_1_wo_get_1_opaque_ptr_1:
	.zero	8
	.globl	_TIG_iO_v054_1___bswap_16_1_opaque_ptr_2
	.align 8
	.type	_TIG_iO_v054_1___bswap_16_1_opaque_ptr_2, @object
	.size	_TIG_iO_v054_1___bswap_16_1_opaque_ptr_2, 8
_TIG_iO_v054_1___bswap_16_1_opaque_ptr_2:
	.zero	8
	.globl	_TIG_iO_v054_1_hash_1_opaque_ptr_1
	.align 8
	.type	_TIG_iO_v054_1_hash_1_opaque_ptr_1, @object
	.size	_TIG_iO_v054_1_hash_1_opaque_ptr_1, 8
_TIG_iO_v054_1_hash_1_opaque_ptr_1:
	.zero	8
	.globl	_TIG_iO_v054_1___uint64_identity_1_opaque_ptr_1
	.align 8
	.type	_TIG_iO_v054_1___uint64_identity_1_opaque_ptr_1, @object
	.size	_TIG_iO_v054_1___uint64_identity_1_opaque_ptr_1, 8
_TIG_iO_v054_1___uint64_identity_1_opaque_ptr_1:
	.zero	8
	.globl	_TIG_iO_v054_1_wo_print_all_1_opaque_ptr_2
	.align 8
	.type	_TIG_iO_v054_1_wo_print_all_1_opaque_ptr_2, @object
	.size	_TIG_iO_v054_1_wo_print_all_1_opaque_ptr_2, 8
_TIG_iO_v054_1_wo_print_all_1_opaque_ptr_2:
	.zero	8
	.globl	_TIG_iO_v054_1_wo_plus_1_opaque_ptr_2
	.align 8
	.type	_TIG_iO_v054_1_wo_plus_1_opaque_ptr_2, @object
	.size	_TIG_iO_v054_1_wo_plus_1_opaque_ptr_2, 8
_TIG_iO_v054_1_wo_plus_1_opaque_ptr_2:
	.zero	8
	.globl	_TIG_iO_v054_1___uint64_identity_1_opaque_list_2
	.align 8
	.type	_TIG_iO_v054_1___uint64_identity_1_opaque_list_2, @object
	.size	_TIG_iO_v054_1___uint64_identity_1_opaque_list_2, 8
_TIG_iO_v054_1___uint64_identity_1_opaque_list_2:
	.zero	8
	.globl	_TIG_iO_v054_1___bswap_64_1_opaque_list_1
	.align 8
	.type	_TIG_iO_v054_1___bswap_64_1_opaque_list_1, @object
	.size	_TIG_iO_v054_1___bswap_64_1_opaque_list_1, 8
_TIG_iO_v054_1___bswap_64_1_opaque_list_1:
	.zero	8
	.globl	_TIG_iO_v054_1___uint64_identity_1_opaque_list_1
	.align 8
	.type	_TIG_iO_v054_1___uint64_identity_1_opaque_list_1, @object
	.size	_TIG_iO_v054_1___uint64_identity_1_opaque_list_1, 8
_TIG_iO_v054_1___uint64_identity_1_opaque_list_1:
	.zero	8
	.globl	_TIG_iO_v054_1_wo_get_1_opaque_list_1
	.align 8
	.type	_TIG_iO_v054_1_wo_get_1_opaque_list_1, @object
	.size	_TIG_iO_v054_1_wo_get_1_opaque_list_1, 8
_TIG_iO_v054_1_wo_get_1_opaque_list_1:
	.zero	8
	.globl	_TIG_iO_v054_1_wo_plus_1_opaque_list_1
	.align 8
	.type	_TIG_iO_v054_1_wo_plus_1_opaque_list_1, @object
	.size	_TIG_iO_v054_1_wo_plus_1_opaque_list_1, 8
_TIG_iO_v054_1_wo_plus_1_opaque_list_1:
	.zero	8
	.globl	_TIG_iO_v054_1___uint32_identity_1_opaque_ptr_1
	.align 8
	.type	_TIG_iO_v054_1___uint32_identity_1_opaque_ptr_1, @object
	.size	_TIG_iO_v054_1___uint32_identity_1_opaque_ptr_1, 8
_TIG_iO_v054_1___uint32_identity_1_opaque_ptr_1:
	.zero	8
	.globl	_TIG_iO_v054_1_main_1_opaque_ptr_1
	.align 8
	.type	_TIG_iO_v054_1_main_1_opaque_ptr_1, @object
	.size	_TIG_iO_v054_1_main_1_opaque_ptr_1, 8
_TIG_iO_v054_1_main_1_opaque_ptr_1:
	.zero	8
	.globl	_TIG_iO_v054_1_hash_1_opaque_list_2
	.align 8
	.type	_TIG_iO_v054_1_hash_1_opaque_list_2, @object
	.size	_TIG_iO_v054_1_hash_1_opaque_list_2, 8
_TIG_iO_v054_1_hash_1_opaque_list_2:
	.zero	8
	.globl	_TIG_iO_v054_1_main_1_opaque_ptr_2
	.align 8
	.type	_TIG_iO_v054_1_main_1_opaque_ptr_2, @object
	.size	_TIG_iO_v054_1_main_1_opaque_ptr_2, 8
_TIG_iO_v054_1_main_1_opaque_ptr_2:
	.zero	8
	.globl	_TIG_iO_v054_1_wo_plus_1_opaque_list_2
	.align 8
	.type	_TIG_iO_v054_1_wo_plus_1_opaque_list_2, @object
	.size	_TIG_iO_v054_1_wo_plus_1_opaque_list_2, 8
_TIG_iO_v054_1_wo_plus_1_opaque_list_2:
	.zero	8
	.globl	_TIG_iO_v054_1___uint32_identity_1_opaque_list_2
	.align 8
	.type	_TIG_iO_v054_1___uint32_identity_1_opaque_list_2, @object
	.size	_TIG_iO_v054_1___uint32_identity_1_opaque_list_2, 8
_TIG_iO_v054_1___uint32_identity_1_opaque_list_2:
	.zero	8
	.globl	_TIG_iO_v054_1_wo_print_all_1_opaque_ptr_1
	.align 8
	.type	_TIG_iO_v054_1_wo_print_all_1_opaque_ptr_1, @object
	.size	_TIG_iO_v054_1_wo_print_all_1_opaque_ptr_1, 8
_TIG_iO_v054_1_wo_print_all_1_opaque_ptr_1:
	.zero	8
	.globl	_TIG_iO_v054_1___bswap_16_1_opaque_ptr_1
	.align 8
	.type	_TIG_iO_v054_1___bswap_16_1_opaque_ptr_1, @object
	.size	_TIG_iO_v054_1___bswap_16_1_opaque_ptr_1, 8
_TIG_iO_v054_1___bswap_16_1_opaque_ptr_1:
	.zero	8
	.globl	_TIG_iO_v054_1_wo_get_1_opaque_list_2
	.align 8
	.type	_TIG_iO_v054_1_wo_get_1_opaque_list_2, @object
	.size	_TIG_iO_v054_1_wo_get_1_opaque_list_2, 8
_TIG_iO_v054_1_wo_get_1_opaque_list_2:
	.zero	8
	.globl	_TIG_iO_v054_1___bswap_32_1_opaque_list_2
	.align 8
	.type	_TIG_iO_v054_1___bswap_32_1_opaque_list_2, @object
	.size	_TIG_iO_v054_1___bswap_32_1_opaque_list_2, 8
_TIG_iO_v054_1___bswap_32_1_opaque_list_2:
	.zero	8
	.globl	_TIG_iO_v054_1___uint16_identity_1_opaque_list_2
	.align 8
	.type	_TIG_iO_v054_1___uint16_identity_1_opaque_list_2, @object
	.size	_TIG_iO_v054_1___uint16_identity_1_opaque_list_2, 8
_TIG_iO_v054_1___uint16_identity_1_opaque_list_2:
	.zero	8
	.globl	_TIG_iO_v054_1___uint64_identity_1_opaque_ptr_2
	.align 8
	.type	_TIG_iO_v054_1___uint64_identity_1_opaque_ptr_2, @object
	.size	_TIG_iO_v054_1___uint64_identity_1_opaque_ptr_2, 8
_TIG_iO_v054_1___uint64_identity_1_opaque_ptr_2:
	.zero	8
	.section	.rodata
.LC0:
	.string	"%s %d\n"
	.text
	.globl	wo_print_all
	.type	wo_print_all, @function
wo_print_all:
.LFB0:
	.cfi_startproc
	endbr64
	pushq	%rbp
	.cfi_def_cfa_offset 16
	.cfi_offset 6, -16
	movq	%rsp, %rbp
	.cfi_def_cfa_register 6
	subq	$64, %rsp
#APP
# 80 "/usr/include/stdlib.h" 1
	##_ANNOTATION_INITIALREGION_-TIG-iO-v054-1-wo-print-all--24
# 0 "" 2
# 84 "/usr/include/stdlib.h" 1
	##_ANNOTATION_ATOMICREGION_-TIG-iO-v054-1-wo-print-all--23
# 0 "" 2
#NO_APP
	movl	$24, %edi
	call	malloc@PLT
	movq	%rax, -32(%rbp)
	movq	-32(%rbp), %rax
	movq	-32(%rbp), %rdx
	movq	%rdx, (%rax)
	movq	-32(%rbp), %rax
	movq	-32(%rbp), %rdx
	movq	%rdx, 8(%rax)
	movq	-32(%rbp), %rax
	movq	%rax, _TIG_iO_v054_1_wo_print_all_1_opaque_list_1(%rip)
	call	rand@PLT
	movl	%eax, -52(%rbp)
	movl	$24, %edi
	call	malloc@PLT
	movq	%rax, -24(%rbp)
	movq	-24(%rbp), %rax
	movl	$0, 16(%rax)
	movq	_TIG_iO_v054_1_wo_print_all_1_opaque_list_1(%rip), %rax
	movq	(%rax), %rdx
	movq	-24(%rbp), %rax
	movq	%rdx, (%rax)
	movq	_TIG_iO_v054_1_wo_print_all_1_opaque_list_1(%rip), %rdx
	movq	-24(%rbp), %rax
	movq	%rdx, 8(%rax)
	movq	_TIG_iO_v054_1_wo_print_all_1_opaque_list_1(%rip), %rax
	movq	(%rax), %rax
	movq	-24(%rbp), %rdx
	movq	%rdx, 8(%rax)
	movq	_TIG_iO_v054_1_wo_print_all_1_opaque_list_1(%rip), %rax
	movq	-24(%rbp), %rdx
	movq	%rdx, (%rax)
	call	rand@PLT
	movl	%eax, -48(%rbp)
	movl	$24, %edi
	call	malloc@PLT
	movq	%rax, -16(%rbp)
	movq	-16(%rbp), %rax
	movl	-48(%rbp), %edx
	movl	%edx, 16(%rax)
	movq	_TIG_iO_v054_1_wo_print_all_1_opaque_list_1(%rip), %rax
	movq	(%rax), %rdx
	movq	-16(%rbp), %rax
	movq	%rdx, (%rax)
	movq	_TIG_iO_v054_1_wo_print_all_1_opaque_list_1(%rip), %rdx
	movq	-16(%rbp), %rax
	movq	%rdx, 8(%rax)
	movq	_TIG_iO_v054_1_wo_print_all_1_opaque_list_1(%rip), %rax
	movq	(%rax), %rax
	movq	-16(%rbp), %rdx
	movq	%rdx, 8(%rax)
	movq	_TIG_iO_v054_1_wo_print_all_1_opaque_list_1(%rip), %rax
	movq	-16(%rbp), %rdx
	movq	%rdx, (%rax)
	call	rand@PLT
	movl	%eax, -44(%rbp)
	movl	$24, %edi
	call	malloc@PLT
	movq	%rax, -8(%rbp)
	movl	-44(%rbp), %eax
	leal	(%rax,%rax), %edx
	movq	-8(%rbp), %rax
	movl	%edx, 16(%rax)
	movq	_TIG_iO_v054_1_wo_print_all_1_opaque_list_1(%rip), %rax
	movq	(%rax), %rdx
	movq	-8(%rbp), %rax
	movq	%rdx, (%rax)
	movq	_TIG_iO_v054_1_wo_print_all_1_opaque_list_1(%rip), %rdx
	movq	-8(%rbp), %rax
	movq	%rdx, 8(%rax)
	movq	_TIG_iO_v054_1_wo_print_all_1_opaque_list_1(%rip), %rax
	movq	(%rax), %rax
	movq	-8(%rbp), %rdx
	movq	%rdx, 8(%rax)
	movq	_TIG_iO_v054_1_wo_print_all_1_opaque_list_1(%rip), %rax
	movq	-8(%rbp), %rdx
	movq	%rdx, (%rax)
	movq	_TIG_iO_v054_1_wo_print_all_1_opaque_list_1(%rip), %rax
	movq	(%rax), %rax
	movq	%rax, _TIG_iO_v054_1_wo_print_all_1_opaque_ptr_1(%rip)
	movq	_TIG_iO_v054_1_wo_print_all_1_opaque_ptr_1(%rip), %rax
	movq	%rax, _TIG_iO_v054_1_wo_print_all_1_opaque_ptr_2(%rip)
	movq	_TIG_iO_v054_1_wo_print_all_1_opaque_ptr_2(%rip), %rax
	movq	(%rax), %rax
	movq	%rax, _TIG_iO_v054_1_wo_print_all_1_opaque_ptr_2(%rip)
	nop
	nop
	movl	$0, -56(%rbp)
	movq	_TIG_iO_v054_1_wo_print_all_1_opaque_ptr_1(%rip), %rdx
	movq	_TIG_iO_v054_1_wo_print_all_1_opaque_ptr_2(%rip), %rax
	cmpq	%rax, %rdx
	je	.L8
	jmp	.L3
.L6:
	movl	-56(%rbp), %eax
	cltq
	leaq	0(,%rax,8), %rdx
	leaq	wo_hashtab(%rip), %rax
	movq	(%rdx,%rax), %rax
	movq	%rax, -40(%rbp)
	jmp	.L4
.L5:
	movq	-40(%rbp), %rax
	movl	16(%rax), %edx
	movq	-40(%rbp), %rax
	movq	8(%rax), %rax
	movq	%rax, %rsi
	leaq	.LC0(%rip), %rax
	movq	%rax, %rdi
	movl	$0, %eax
	call	printf@PLT
	movq	-40(%rbp), %rax
	movq	(%rax), %rax
	movq	%rax, -40(%rbp)
.L4:
	cmpq	$0, -40(%rbp)
	jne	.L5
	addl	$1, -56(%rbp)
.L3:
	cmpl	$127, -56(%rbp)
	jle	.L6
	nop
.L8:
	nop
	leave
	.cfi_def_cfa 7, 8
	ret
	.cfi_endproc
.LFE0:
	.size	wo_print_all, .-wo_print_all
	.section	.rodata
.LC1:
	.string	"ab_shm_8617ffee"
.LC2:
	.string	"shm failed"
.LC3:
	.string	"ptr failed"
.LC4:
	.string	"no"
.LC5:
	.string	"yes"
.LC6:
	.string	""
	.text
	.globl	main
	.type	main, @function
main:
.LFB4:
	.cfi_startproc
	endbr64
	pushq	%rbp
	.cfi_def_cfa_offset 16
	.cfi_offset 6, -16
	movq	%rsp, %rbp
	.cfi_def_cfa_register 6
	subq	$112, %rsp
	movl	%edi, -84(%rbp)
	movq	%rsi, -96(%rbp)
	movq	%rdx, -104(%rbp)
	movq	$0, wo_hashtab(%rip)
	movq	$0, 8+wo_hashtab(%rip)
	movq	$0, 16+wo_hashtab(%rip)
	movq	$0, 24+wo_hashtab(%rip)
	movq	$0, 32+wo_hashtab(%rip)
	movq	$0, 40+wo_hashtab(%rip)
	movq	$0, 48+wo_hashtab(%rip)
	movq	$0, 56+wo_hashtab(%rip)
	movq	$0, 64+wo_hashtab(%rip)
	movq	$0, 72+wo_hashtab(%rip)
	movq	$0, 80+wo_hashtab(%rip)
	movq	$0, 88+wo_hashtab(%rip)
	movq	$0, 96+wo_hashtab(%rip)
	movq	$0, 104+wo_hashtab(%rip)
	movq	$0, 112+wo_hashtab(%rip)
	movq	$0, 120+wo_hashtab(%rip)
	movq	$0, 128+wo_hashtab(%rip)
	movq	$0, 136+wo_hashtab(%rip)
	movq	$0, 144+wo_hashtab(%rip)
	movq	$0, 152+wo_hashtab(%rip)
	movq	$0, 160+wo_hashtab(%rip)
	movq	$0, 168+wo_hashtab(%rip)
	movq	$0, 176+wo_hashtab(%rip)
	movq	$0, 184+wo_hashtab(%rip)
	movq	$0, 192+wo_hashtab(%rip)
	movq	$0, 200+wo_hashtab(%rip)
	movq	$0, 208+wo_hashtab(%rip)
	movq	$0, 216+wo_hashtab(%rip)
	movq	$0, 224+wo_hashtab(%rip)
	movq	$0, 232+wo_hashtab(%rip)
	movq	$0, 240+wo_hashtab(%rip)
	movq	$0, 248+wo_hashtab(%rip)
	movq	$0, 256+wo_hashtab(%rip)
	movq	$0, 264+wo_hashtab(%rip)
	movq	$0, 272+wo_hashtab(%rip)
	movq	$0, 280+wo_hashtab(%rip)
	movq	$0, 288+wo_hashtab(%rip)
	movq	$0, 296+wo_hashtab(%rip)
	movq	$0, 304+wo_hashtab(%rip)
	movq	$0, 312+wo_hashtab(%rip)
	movq	$0, 320+wo_hashtab(%rip)
	movq	$0, 328+wo_hashtab(%rip)
	movq	$0, 336+wo_hashtab(%rip)
	movq	$0, 344+wo_hashtab(%rip)
	movq	$0, 352+wo_hashtab(%rip)
	movq	$0, 360+wo_hashtab(%rip)
	movq	$0, 368+wo_hashtab(%rip)
	movq	$0, 376+wo_hashtab(%rip)
	movq	$0, 384+wo_hashtab(%rip)
	movq	$0, 392+wo_hashtab(%rip)
	movq	$0, 400+wo_hashtab(%rip)
	movq	$0, 408+wo_hashtab(%rip)
	movq	$0, 416+wo_hashtab(%rip)
	movq	$0, 424+wo_hashtab(%rip)
	movq	$0, 432+wo_hashtab(%rip)
	movq	$0, 440+wo_hashtab(%rip)
	movq	$0, 448+wo_hashtab(%rip)
	movq	$0, 456+wo_hashtab(%rip)
	movq	$0, 464+wo_hashtab(%rip)
	movq	$0, 472+wo_hashtab(%rip)
	movq	$0, 480+wo_hashtab(%rip)
	movq	$0, 488+wo_hashtab(%rip)
	movq	$0, 496+wo_hashtab(%rip)
	movq	$0, 504+wo_hashtab(%rip)
	movq	$0, 512+wo_hashtab(%rip)
	movq	$0, 520+wo_hashtab(%rip)
	movq	$0, 528+wo_hashtab(%rip)
	movq	$0, 536+wo_hashtab(%rip)
	movq	$0, 544+wo_hashtab(%rip)
	movq	$0, 552+wo_hashtab(%rip)
	movq	$0, 560+wo_hashtab(%rip)
	movq	$0, 568+wo_hashtab(%rip)
	movq	$0, 576+wo_hashtab(%rip)
	movq	$0, 584+wo_hashtab(%rip)
	movq	$0, 592+wo_hashtab(%rip)
	movq	$0, 600+wo_hashtab(%rip)
	movq	$0, 608+wo_hashtab(%rip)
	movq	$0, 616+wo_hashtab(%rip)
	movq	$0, 624+wo_hashtab(%rip)
	movq	$0, 632+wo_hashtab(%rip)
	movq	$0, 640+wo_hashtab(%rip)
	movq	$0, 648+wo_hashtab(%rip)
	movq	$0, 656+wo_hashtab(%rip)
	movq	$0, 664+wo_hashtab(%rip)
	movq	$0, 672+wo_hashtab(%rip)
	movq	$0, 680+wo_hashtab(%rip)
	movq	$0, 688+wo_hashtab(%rip)
	movq	$0, 696+wo_hashtab(%rip)
	movq	$0, 704+wo_hashtab(%rip)
	movq	$0, 712+wo_hashtab(%rip)
	movq	$0, 720+wo_hashtab(%rip)
	movq	$0, 728+wo_hashtab(%rip)
	movq	$0, 736+wo_hashtab(%rip)
	movq	$0, 744+wo_hashtab(%rip)
	movq	$0, 752+wo_hashtab(%rip)
	movq	$0, 760+wo_hashtab(%rip)
	movq	$0, 768+wo_hashtab(%rip)
	movq	$0, 776+wo_hashtab(%rip)
	movq	$0, 784+wo_hashtab(%rip)
	movq	$0, 792+wo_hashtab(%rip)
	movq	$0, 800+wo_hashtab(%rip)
	movq	$0, 808+wo_hashtab(%rip)
	movq	$0, 816+wo_hashtab(%rip)
	movq	$0, 824+wo_hashtab(%rip)
	movq	$0, 832+wo_hashtab(%rip)
	movq	$0, 840+wo_hashtab(%rip)
	movq	$0, 848+wo_hashtab(%rip)
	movq	$0, 856+wo_hashtab(%rip)
	movq	$0, 864+wo_hashtab(%rip)
	movq	$0, 872+wo_hashtab(%rip)
	movq	$0, 880+wo_hashtab(%rip)
	movq	$0, 888+wo_hashtab(%rip)
	movq	$0, 896+wo_hashtab(%rip)
	movq	$0, 904+wo_hashtab(%rip)
	movq	$0, 912+wo_hashtab(%rip)
	movq	$0, 920+wo_hashtab(%rip)
	movq	$0, 928+wo_hashtab(%rip)
	movq	$0, 936+wo_hashtab(%rip)
	movq	$0, 944+wo_hashtab(%rip)
	movq	$0, 952+wo_hashtab(%rip)
	movq	$0, 960+wo_hashtab(%rip)
	movq	$0, 968+wo_hashtab(%rip)
	movq	$0, 976+wo_hashtab(%rip)
	movq	$0, 984+wo_hashtab(%rip)
	movq	$0, 992+wo_hashtab(%rip)
	movq	$0, 1000+wo_hashtab(%rip)
	movq	$0, 1008+wo_hashtab(%rip)
	movq	$0, 1016+wo_hashtab(%rip)
	nop
.L10:
	movq	$0, _TIG_IZ_v054_envp(%rip)
	nop
.L11:
	movq	$0, _TIG_IZ_v054_argv(%rip)
	nop
.L12:
	movl	$0, _TIG_IZ_v054_argc(%rip)
	nop
	nop
.L13:
.L14:
#APP
# 237 "/usr/include/x86_64-linux-gnu/bits/byteswap.h" 1
	##_ANNOTATION_INITIALREGION_-TIG-IZ-v054--0
# 0 "" 2
#NO_APP
	movl	-84(%rbp), %eax
	movl	%eax, _TIG_IZ_v054_argc(%rip)
	movq	-96(%rbp), %rax
	movq	%rax, _TIG_IZ_v054_argv(%rip)
	movq	-104(%rbp), %rax
	movq	%rax, _TIG_IZ_v054_envp(%rip)
#APP
# 244 "/usr/include/x86_64-linux-gnu/bits/byteswap.h" 1
	##_ANNOTATION_ATOMICREGION_-TIG-iO-v054-1-main--15
# 0 "" 2
#NO_APP
	movl	$24, %edi
	call	malloc@PLT
	movq	%rax, -56(%rbp)
	movq	-56(%rbp), %rax
	movq	-56(%rbp), %rdx
	movq	%rdx, 16(%rax)
	movq	-56(%rbp), %rax
	movq	-56(%rbp), %rdx
	movq	%rdx, 8(%rax)
	movq	-56(%rbp), %rax
	movq	%rax, _TIG_iO_v054_1_main_1_opaque_list_1(%rip)
	call	rand@PLT
	movl	%eax, -80(%rbp)
	movl	$24, %edi
	call	malloc@PLT
	movq	%rax, -48(%rbp)
	movq	-48(%rbp), %rax
	movl	$0, (%rax)
	movq	_TIG_iO_v054_1_main_1_opaque_list_1(%rip), %rax
	movq	16(%rax), %rdx
	movq	-48(%rbp), %rax
	movq	%rdx, 16(%rax)
	movq	_TIG_iO_v054_1_main_1_opaque_list_1(%rip), %rdx
	movq	-48(%rbp), %rax
	movq	%rdx, 8(%rax)
	movq	_TIG_iO_v054_1_main_1_opaque_list_1(%rip), %rax
	movq	16(%rax), %rax
	movq	-48(%rbp), %rdx
	movq	%rdx, 8(%rax)
	movq	_TIG_iO_v054_1_main_1_opaque_list_1(%rip), %rax
	movq	-48(%rbp), %rdx
	movq	%rdx, 16(%rax)
	call	rand@PLT
	movl	%eax, -76(%rbp)
	movl	$24, %edi
	call	malloc@PLT
	movq	%rax, -40(%rbp)
	movq	-40(%rbp), %rax
	movl	-76(%rbp), %edx
	movl	%edx, (%rax)
	movq	_TIG_iO_v054_1_main_1_opaque_list_1(%rip), %rax
	movq	16(%rax), %rdx
	movq	-40(%rbp), %rax
	movq	%rdx, 16(%rax)
	movq	_TIG_iO_v054_1_main_1_opaque_list_1(%rip), %rdx
	movq	-40(%rbp), %rax
	movq	%rdx, 8(%rax)
	movq	_TIG_iO_v054_1_main_1_opaque_list_1(%rip), %rax
	movq	16(%rax), %rax
	movq	-40(%rbp), %rdx
	movq	%rdx, 8(%rax)
	movq	_TIG_iO_v054_1_main_1_opaque_list_1(%rip), %rax
	movq	-40(%rbp), %rdx
	movq	%rdx, 16(%rax)
	movq	_TIG_iO_v054_1_main_1_opaque_list_1(%rip), %rax
	movq	16(%rax), %rax
	movq	%rax, _TIG_iO_v054_1_main_1_opaque_ptr_1(%rip)
	movq	_TIG_iO_v054_1_main_1_opaque_ptr_1(%rip), %rax
	movq	%rax, _TIG_iO_v054_1_main_1_opaque_ptr_2(%rip)
	nop
	nop
	movl	$511, %edx
	movl	$66, %esi
	leaq	.LC1(%rip), %rax
	movq	%rax, %rdi
	call	shm_open@PLT
	movl	%eax, -72(%rbp)
	movl	-72(%rbp), %eax
	movl	%eax, -68(%rbp)
	cmpl	$-1, -68(%rbp)
	jne	.L15
	leaq	.LC2(%rip), %rax
	movq	%rax, %rdi
	call	puts@PLT
	movq	_TIG_iO_v054_1_wo_print_all_1_opaque_ptr_1(%rip), %rdx
	movq	_TIG_iO_v054_1_wo_print_all_1_opaque_ptr_2(%rip), %rax
	cmpq	%rax, %rdx
	je	.L15
	movl	$-1, %eax
	jmp	.L16
.L15:
	movl	-68(%rbp), %eax
	movl	$1024, %esi
	movl	%eax, %edi
	call	ftruncate@PLT
	movl	-68(%rbp), %eax
	movl	$0, %r9d
	movl	%eax, %r8d
	movl	$1, %ecx
	movl	$3, %edx
	movl	$1024, %esi
	movl	$0, %edi
	call	mmap@PLT
	movq	%rax, -32(%rbp)
	movq	-32(%rbp), %rax
	movq	%rax, -24(%rbp)
	cmpq	$0, -24(%rbp)
	jne	.L17
	leaq	.LC3(%rip), %rax
	movq	%rax, %rdi
	call	puts@PLT
	movl	$-1, %eax
	jmp	.L16
.L17:
	movq	-24(%rbp), %rax
	movq	%rax, %rdi
	call	strlen@PLT
	movq	%rax, -16(%rbp)
	cmpq	$0, -16(%rbp)
	je	.L18
	movq	-24(%rbp), %rax
	movzbl	(%rax), %eax
	cmpb	$37, %al
	jne	.L19
	movq	-24(%rbp), %rax
	addq	$1, %rax
	movq	%rax, -8(%rbp)
	movq	-8(%rbp), %rax
	movq	%rax, %rdi
	call	wo_get
	movl	%eax, -64(%rbp)
	movl	-64(%rbp), %eax
	movl	%eax, -60(%rbp)
	cmpl	$0, -60(%rbp)
	jg	.L20
	leaq	.LC4(%rip), %rax
	movq	%rax, %rdi
	call	puts@PLT
	jmp	.L18
.L20:
	leaq	.LC5(%rip), %rax
	movq	%rax, %rdi
	call	puts@PLT
	jmp	.L18
.L19:
	movq	-24(%rbp), %rax
	movzbl	(%rax), %eax
	cmpb	$36, %al
	jne	.L21
	call	wo_print_all
	jmp	.L18
.L21:
	movq	-24(%rbp), %rax
	movq	%rax, %rdi
	call	wo_plus
.L18:
	movq	-24(%rbp), %rax
	leaq	.LC6(%rip), %rdx
	movq	%rdx, %rsi
	movq	%rax, %rdi
	movl	$0, %eax
	call	sprintf@PLT
	movl	$1000, %edi
	call	usleep@PLT
	jmp	.L17
.L16:
	leave
	.cfi_def_cfa 7, 8
	ret
	.cfi_endproc
.LFE4:
	.size	main, .-main
	.globl	wo_lookup
	.type	wo_lookup, @function
wo_lookup:
.LFB6:
	.cfi_startproc
	endbr64
	pushq	%rbp
	.cfi_def_cfa_offset 16
	.cfi_offset 6, -16
	movq	%rsp, %rbp
	.cfi_def_cfa_register 6
	subq	$64, %rsp
	movq	%rdi, -56(%rbp)
#APP
# 94 "/usr/include/x86_64-linux-gnu/bits/byteswap.h" 1
	##_ANNOTATION_INITIALREGION_-TIG-iO-v054-1-wo-lookup--20
# 0 "" 2
# 98 "/usr/include/x86_64-linux-gnu/bits/byteswap.h" 1
	##_ANNOTATION_ATOMICREGION_-TIG-iO-v054-1-wo-lookup--19
# 0 "" 2
#NO_APP
	movl	$24, %edi
	call	malloc@PLT
	movq	%rax, -24(%rbp)
	movq	-24(%rbp), %rax
	movq	-24(%rbp), %rdx
	movq	%rdx, 8(%rax)
	movq	-24(%rbp), %rax
	movq	-24(%rbp), %rdx
	movq	%rdx, 16(%rax)
	movq	-24(%rbp), %rax
	movq	%rax, _TIG_iO_v054_1_wo_lookup_1_opaque_list_1(%rip)
	call	rand@PLT
	movl	%eax, -48(%rbp)
	movl	$24, %edi
	call	malloc@PLT
	movq	%rax, -16(%rbp)
	movq	-16(%rbp), %rax
	movl	$0, (%rax)
	movq	_TIG_iO_v054_1_wo_lookup_1_opaque_list_1(%rip), %rax
	movq	8(%rax), %rdx
	movq	-16(%rbp), %rax
	movq	%rdx, 8(%rax)
	movq	_TIG_iO_v054_1_wo_lookup_1_opaque_list_1(%rip), %rdx
	movq	-16(%rbp), %rax
	movq	%rdx, 16(%rax)
	movq	_TIG_iO_v054_1_wo_lookup_1_opaque_list_1(%rip), %rax
	movq	8(%rax), %rax
	movq	-16(%rbp), %rdx
	movq	%rdx, 16(%rax)
	movq	_TIG_iO_v054_1_wo_lookup_1_opaque_list_1(%rip), %rax
	movq	-16(%rbp), %rdx
	movq	%rdx, 8(%rax)
	call	rand@PLT
	movl	%eax, -44(%rbp)
	movl	$24, %edi
	call	malloc@PLT
	movq	%rax, -8(%rbp)
	movq	-8(%rbp), %rax
	movl	-44(%rbp), %edx
	movl	%edx, (%rax)
	movq	_TIG_iO_v054_1_wo_lookup_1_opaque_list_1(%rip), %rax
	movq	8(%rax), %rdx
	movq	-8(%rbp), %rax
	movq	%rdx, 8(%rax)
	movq	_TIG_iO_v054_1_wo_lookup_1_opaque_list_1(%rip), %rdx
	movq	-8(%rbp), %rax
	movq	%rdx, 16(%rax)
	movq	_TIG_iO_v054_1_wo_lookup_1_opaque_list_1(%rip), %rax
	movq	8(%rax), %rax
	movq	-8(%rbp), %rdx
	movq	%rdx, 16(%rax)
	movq	_TIG_iO_v054_1_wo_lookup_1_opaque_list_1(%rip), %rax
	movq	-8(%rbp), %rdx
	movq	%rdx, 8(%rax)
	movq	_TIG_iO_v054_1_wo_lookup_1_opaque_list_1(%rip), %rax
	movq	8(%rax), %rax
	movq	%rax, _TIG_iO_v054_1_wo_lookup_1_opaque_ptr_1(%rip)
	movq	_TIG_iO_v054_1_wo_lookup_1_opaque_ptr_1(%rip), %rax
	movq	%rax, _TIG_iO_v054_1_wo_lookup_1_opaque_ptr_2(%rip)
	nop
	nop
	movq	-56(%rbp), %rax
	movq	%rax, %rdi
	call	hash
	movl	%eax, -40(%rbp)
	movl	-40(%rbp), %eax
	leaq	0(,%rax,8), %rdx
	leaq	wo_hashtab(%rip), %rax
	movq	(%rdx,%rax), %rax
	movq	%rax, -32(%rbp)
	movq	_TIG_iO_v054_1_wo_print_all_1_opaque_ptr_1(%rip), %rdx
	movq	_TIG_iO_v054_1_wo_print_all_1_opaque_ptr_2(%rip), %rax
	cmpq	%rax, %rdx
	je	.L23
	jmp	.L24
.L27:
	movq	-32(%rbp), %rax
	movq	8(%rax), %rdx
	movq	-56(%rbp), %rax
	movq	%rdx, %rsi
	movq	%rax, %rdi
	call	strcmp@PLT
	movl	%eax, -36(%rbp)
	cmpl	$0, -36(%rbp)
	jne	.L25
	movq	-32(%rbp), %rax
	jmp	.L26
.L25:
	movq	-32(%rbp), %rax
	movq	(%rax), %rax
	movq	%rax, -32(%rbp)
.L24:
	cmpq	$0, -32(%rbp)
	jne	.L27
.L23:
	movl	$0, %eax
.L26:
	leave
	.cfi_def_cfa 7, 8
	ret
	.cfi_endproc
.LFE6:
	.size	wo_lookup, .-wo_lookup
	.globl	wo_get
	.type	wo_get, @function
wo_get:
.LFB8:
	.cfi_startproc
	endbr64
	pushq	%rbp
	.cfi_def_cfa_offset 16
	.cfi_offset 6, -16
	movq	%rsp, %rbp
	.cfi_def_cfa_register 6
	subq	$64, %rsp
	movq	%rdi, -56(%rbp)
#APP
# 55 "/usr/include/x86_64-linux-gnu/bits/byteswap.h" 1
	##_ANNOTATION_INITIALREGION_-TIG-iO-v054-1-wo-get--18
# 0 "" 2
# 59 "/usr/include/x86_64-linux-gnu/bits/byteswap.h" 1
	##_ANNOTATION_ATOMICREGION_-TIG-iO-v054-1-wo-get--17
# 0 "" 2
#NO_APP
	movl	$24, %edi
	call	malloc@PLT
	movq	%rax, -40(%rbp)
	movq	-40(%rbp), %rax
	movq	-40(%rbp), %rdx
	movq	%rdx, 8(%rax)
	movq	-40(%rbp), %rax
	movq	-40(%rbp), %rdx
	movq	%rdx, (%rax)
	movq	-40(%rbp), %rax
	movq	%rax, _TIG_iO_v054_1_wo_get_1_opaque_list_1(%rip)
	call	rand@PLT
	movl	%eax, -48(%rbp)
	movl	$24, %edi
	call	malloc@PLT
	movq	%rax, -32(%rbp)
	movq	-32(%rbp), %rax
	movl	$0, 16(%rax)
	movq	_TIG_iO_v054_1_wo_get_1_opaque_list_1(%rip), %rax
	movq	8(%rax), %rdx
	movq	-32(%rbp), %rax
	movq	%rdx, 8(%rax)
	movq	_TIG_iO_v054_1_wo_get_1_opaque_list_1(%rip), %rdx
	movq	-32(%rbp), %rax
	movq	%rdx, (%rax)
	movq	_TIG_iO_v054_1_wo_get_1_opaque_list_1(%rip), %rax
	movq	8(%rax), %rax
	movq	-32(%rbp), %rdx
	movq	%rdx, (%rax)
	movq	_TIG_iO_v054_1_wo_get_1_opaque_list_1(%rip), %rax
	movq	-32(%rbp), %rdx
	movq	%rdx, 8(%rax)
	call	rand@PLT
	movl	%eax, -44(%rbp)
	movl	$24, %edi
	call	malloc@PLT
	movq	%rax, -24(%rbp)
	movq	-24(%rbp), %rax
	movl	-44(%rbp), %edx
	movl	%edx, 16(%rax)
	movq	_TIG_iO_v054_1_wo_get_1_opaque_list_1(%rip), %rax
	movq	8(%rax), %rdx
	movq	-24(%rbp), %rax
	movq	%rdx, 8(%rax)
	movq	_TIG_iO_v054_1_wo_get_1_opaque_list_1(%rip), %rdx
	movq	-24(%rbp), %rax
	movq	%rdx, (%rax)
	movq	_TIG_iO_v054_1_wo_get_1_opaque_list_1(%rip), %rax
	movq	8(%rax), %rax
	movq	-24(%rbp), %rdx
	movq	%rdx, (%rax)
	movq	_TIG_iO_v054_1_wo_get_1_opaque_list_1(%rip), %rax
	movq	-24(%rbp), %rdx
	movq	%rdx, 8(%rax)
	movq	_TIG_iO_v054_1_wo_get_1_opaque_list_1(%rip), %rax
	movq	8(%rax), %rax
	movq	%rax, _TIG_iO_v054_1_wo_get_1_opaque_ptr_1(%rip)
	movq	_TIG_iO_v054_1_wo_get_1_opaque_ptr_1(%rip), %rax
	movq	%rax, _TIG_iO_v054_1_wo_get_1_opaque_ptr_2(%rip)
	movq	_TIG_iO_v054_1_wo_get_1_opaque_ptr_2(%rip), %rax
	movq	8(%rax), %rax
	movq	%rax, _TIG_iO_v054_1_wo_get_1_opaque_ptr_2(%rip)
	nop
	nop
	movq	-56(%rbp), %rax
	movq	%rax, %rdi
	call	wo_lookup
	movq	%rax, -16(%rbp)
	movq	-16(%rbp), %rax
	movq	%rax, -8(%rbp)
	cmpq	$0, -8(%rbp)
	jne	.L29
	movq	_TIG_iO_v054_1_wo_print_all_1_opaque_ptr_1(%rip), %rdx
	movq	_TIG_iO_v054_1_wo_print_all_1_opaque_ptr_2(%rip), %rax
	cmpq	%rax, %rdx
	jne	.L30
	call	wo_print_all
.L30:
	movl	$0, %eax
	jmp	.L31
.L29:
	movq	-8(%rbp), %rax
	movl	16(%rax), %eax
.L31:
	leave
	.cfi_def_cfa 7, 8
	ret
	.cfi_endproc
.LFE8:
	.size	wo_get, .-wo_get
	.globl	wo_plus
	.type	wo_plus, @function
wo_plus:
.LFB9:
	.cfi_startproc
	endbr64
	pushq	%rbp
	.cfi_def_cfa_offset 16
	.cfi_offset 6, -16
	movq	%rsp, %rbp
	.cfi_def_cfa_register 6
	subq	$96, %rsp
	movq	%rdi, -88(%rbp)
#APP
# 70 "zetavg_201411-OSHW1_b.c" 1
	##_ANNOTATION_INITIALREGION_-TIG-iO-v054-1-wo-plus--22
# 0 "" 2
# 74 "zetavg_201411-OSHW1_b.c" 1
	##_ANNOTATION_ATOMICREGION_-TIG-iO-v054-1-wo-plus--21
# 0 "" 2
#NO_APP
	movl	$24, %edi
	call	malloc@PLT
	movq	%rax, -56(%rbp)
	movq	-56(%rbp), %rax
	movq	-56(%rbp), %rdx
	movq	%rdx, (%rax)
	movq	-56(%rbp), %rax
	movq	-56(%rbp), %rdx
	movq	%rdx, 16(%rax)
	movq	-56(%rbp), %rax
	movq	%rax, _TIG_iO_v054_1_wo_plus_1_opaque_list_1(%rip)
	call	rand@PLT
	movl	%eax, -80(%rbp)
	movl	$24, %edi
	call	malloc@PLT
	movq	%rax, -48(%rbp)
	movq	-48(%rbp), %rax
	movl	$0, 8(%rax)
	movq	_TIG_iO_v054_1_wo_plus_1_opaque_list_1(%rip), %rax
	movq	(%rax), %rdx
	movq	-48(%rbp), %rax
	movq	%rdx, (%rax)
	movq	_TIG_iO_v054_1_wo_plus_1_opaque_list_1(%rip), %rdx
	movq	-48(%rbp), %rax
	movq	%rdx, 16(%rax)
	movq	_TIG_iO_v054_1_wo_plus_1_opaque_list_1(%rip), %rax
	movq	(%rax), %rax
	movq	-48(%rbp), %rdx
	movq	%rdx, 16(%rax)
	movq	_TIG_iO_v054_1_wo_plus_1_opaque_list_1(%rip), %rax
	movq	-48(%rbp), %rdx
	movq	%rdx, (%rax)
	call	rand@PLT
	movl	%eax, -76(%rbp)
	movl	$24, %edi
	call	malloc@PLT
	movq	%rax, -40(%rbp)
	movq	-40(%rbp), %rax
	movl	-76(%rbp), %edx
	movl	%edx, 8(%rax)
	movq	_TIG_iO_v054_1_wo_plus_1_opaque_list_1(%rip), %rax
	movq	(%rax), %rdx
	movq	-40(%rbp), %rax
	movq	%rdx, (%rax)
	movq	_TIG_iO_v054_1_wo_plus_1_opaque_list_1(%rip), %rdx
	movq	-40(%rbp), %rax
	movq	%rdx, 16(%rax)
	movq	_TIG_iO_v054_1_wo_plus_1_opaque_list_1(%rip), %rax
	movq	(%rax), %rax
	movq	-40(%rbp), %rdx
	movq	%rdx, 16(%rax)
	movq	_TIG_iO_v054_1_wo_plus_1_opaque_list_1(%rip), %rax
	movq	-40(%rbp), %rdx
	movq	%rdx, (%rax)
	call	rand@PLT
	movl	%eax, -72(%rbp)
	movl	$24, %edi
	call	malloc@PLT
	movq	%rax, -32(%rbp)
	movl	-72(%rbp), %eax
	leal	(%rax,%rax), %edx
	movq	-32(%rbp), %rax
	movl	%edx, 8(%rax)
	movq	_TIG_iO_v054_1_wo_plus_1_opaque_list_1(%rip), %rax
	movq	(%rax), %rdx
	movq	-32(%rbp), %rax
	movq	%rdx, (%rax)
	movq	_TIG_iO_v054_1_wo_plus_1_opaque_list_1(%rip), %rdx
	movq	-32(%rbp), %rax
	movq	%rdx, 16(%rax)
	movq	_TIG_iO_v054_1_wo_plus_1_opaque_list_1(%rip), %rax
	movq	(%rax), %rax
	movq	-32(%rbp), %rdx
	movq	%rdx, 16(%rax)
	movq	_TIG_iO_v054_1_wo_plus_1_opaque_list_1(%rip), %rax
	movq	-32(%rbp), %rdx
	movq	%rdx, (%rax)
	movq	_TIG_iO_v054_1_wo_plus_1_opaque_list_1(%rip), %rax
	movq	(%rax), %rax
	movq	%rax, _TIG_iO_v054_1_wo_plus_1_opaque_ptr_1(%rip)
	movq	_TIG_iO_v054_1_wo_plus_1_opaque_ptr_1(%rip), %rax
	movq	%rax, _TIG_iO_v054_1_wo_plus_1_opaque_ptr_2(%rip)
	movq	_TIG_iO_v054_1_wo_plus_1_opaque_ptr_2(%rip), %rax
	movq	(%rax), %rax
	movq	%rax, _TIG_iO_v054_1_wo_plus_1_opaque_ptr_2(%rip)
	nop
	nop
	movq	-88(%rbp), %rax
	movq	%rax, %rdi
	call	wo_lookup
	movq	%rax, -24(%rbp)
	movq	-24(%rbp), %rax
	movq	%rax, -16(%rbp)
	cmpq	$0, -16(%rbp)
	jne	.L33
	movq	_TIG_iO_v054_1_wo_print_all_1_opaque_ptr_1(%rip), %rdx
	movq	_TIG_iO_v054_1_wo_print_all_1_opaque_ptr_2(%rip), %rax
	cmpq	%rax, %rdx
	je	.L34
	movl	$24, %edi
	call	malloc@PLT
	movq	%rax, -8(%rbp)
	movq	-8(%rbp), %rax
	movq	%rax, -16(%rbp)
	movq	-88(%rbp), %rax
	movq	%rax, %rdi
	call	hash
	movl	%eax, -64(%rbp)
	movl	-64(%rbp), %eax
	movl	%eax, -60(%rbp)
	movq	-88(%rbp), %rax
	movq	%rax, %rdi
	call	strdup@PLT
	movq	%rax, %rdx
	movq	-16(%rbp), %rax
	movq	%rdx, 8(%rax)
	movq	-16(%rbp), %rax
	movl	$1, 16(%rax)
	movl	-60(%rbp), %eax
	cltq
	leaq	0(,%rax,8), %rdx
	leaq	wo_hashtab(%rip), %rax
	movq	(%rdx,%rax), %rdx
	movq	-16(%rbp), %rax
	movq	%rdx, (%rax)
	movl	-60(%rbp), %eax
	cltq
	leaq	0(,%rax,8), %rcx
	leaq	wo_hashtab(%rip), %rdx
	movq	-16(%rbp), %rax
	movq	%rax, (%rcx,%rdx)
	jmp	.L35
.L34:
#APP
# 58 "zetavg_201411-OSHW1_b.c" 1
	.byte 0xe0,0x19,0xe0,0xd2
# 0 "" 2
#NO_APP
.L35:
	movl	$1, %eax
	jmp	.L36
.L33:
	movq	-16(%rbp), %rax
	movl	16(%rax), %eax
	movl	%eax, -68(%rbp)
	movq	-16(%rbp), %rax
	movl	16(%rax), %eax
	leal	1(%rax), %edx
	movq	-16(%rbp), %rax
	movl	%edx, 16(%rax)
	movl	-68(%rbp), %eax
.L36:
	leave
	.cfi_def_cfa 7, 8
	ret
	.cfi_endproc
.LFE9:
	.size	wo_plus, .-wo_plus
	.globl	hash
	.type	hash, @function
hash:
.LFB10:
	.cfi_startproc
	endbr64
	pushq	%rbp
	.cfi_def_cfa_offset 16
	.cfi_offset 6, -16
	movq	%rsp, %rbp
	.cfi_def_cfa_register 6
	subq	$80, %rsp
	movq	%rdi, -72(%rbp)
#APP
# 82 "zetavg_201411-OSHW1_b.c" 1
	##_ANNOTATION_INITIALREGION_-TIG-iO-v054-1-hash--14
# 0 "" 2
# 86 "zetavg_201411-OSHW1_b.c" 1
	##_ANNOTATION_ATOMICREGION_-TIG-iO-v054-1-hash--13
# 0 "" 2
#NO_APP
	movl	$24, %edi
	call	malloc@PLT
	movq	%rax, -40(%rbp)
	movq	-40(%rbp), %rax
	movq	-40(%rbp), %rdx
	movq	%rdx, (%rax)
	movq	-40(%rbp), %rax
	movq	-40(%rbp), %rdx
	movq	%rdx, 8(%rax)
	movq	-40(%rbp), %rax
	movq	%rax, _TIG_iO_v054_1_hash_1_opaque_list_1(%rip)
	call	rand@PLT
	movl	%eax, -56(%rbp)
	movl	$24, %edi
	call	malloc@PLT
	movq	%rax, -32(%rbp)
	movq	-32(%rbp), %rax
	movl	$0, 16(%rax)
	movq	_TIG_iO_v054_1_hash_1_opaque_list_1(%rip), %rax
	movq	(%rax), %rdx
	movq	-32(%rbp), %rax
	movq	%rdx, (%rax)
	movq	_TIG_iO_v054_1_hash_1_opaque_list_1(%rip), %rdx
	movq	-32(%rbp), %rax
	movq	%rdx, 8(%rax)
	movq	_TIG_iO_v054_1_hash_1_opaque_list_1(%rip), %rax
	movq	(%rax), %rax
	movq	-32(%rbp), %rdx
	movq	%rdx, 8(%rax)
	movq	_TIG_iO_v054_1_hash_1_opaque_list_1(%rip), %rax
	movq	-32(%rbp), %rdx
	movq	%rdx, (%rax)
	call	rand@PLT
	movl	%eax, -52(%rbp)
	movl	$24, %edi
	call	malloc@PLT
	movq	%rax, -24(%rbp)
	movq	-24(%rbp), %rax
	movl	-52(%rbp), %edx
	movl	%edx, 16(%rax)
	movq	_TIG_iO_v054_1_hash_1_opaque_list_1(%rip), %rax
	movq	(%rax), %rdx
	movq	-24(%rbp), %rax
	movq	%rdx, (%rax)
	movq	_TIG_iO_v054_1_hash_1_opaque_list_1(%rip), %rdx
	movq	-24(%rbp), %rax
	movq	%rdx, 8(%rax)
	movq	_TIG_iO_v054_1_hash_1_opaque_list_1(%rip), %rax
	movq	(%rax), %rax
	movq	-24(%rbp), %rdx
	movq	%rdx, 8(%rax)
	movq	_TIG_iO_v054_1_hash_1_opaque_list_1(%rip), %rax
	movq	-24(%rbp), %rdx
	movq	%rdx, (%rax)
	call	rand@PLT
	movl	%eax, -48(%rbp)
	movl	$24, %edi
	call	malloc@PLT
	movq	%rax, -16(%rbp)
	movl	-48(%rbp), %eax
	leal	(%rax,%rax), %edx
	movq	-16(%rbp), %rax
	movl	%edx, 16(%rax)
	movq	_TIG_iO_v054_1_hash_1_opaque_list_1(%rip), %rax
	movq	(%rax), %rdx
	movq	-16(%rbp), %rax
	movq	%rdx, (%rax)
	movq	_TIG_iO_v054_1_hash_1_opaque_list_1(%rip), %rdx
	movq	-16(%rbp), %rax
	movq	%rdx, 8(%rax)
	movq	_TIG_iO_v054_1_hash_1_opaque_list_1(%rip), %rax
	movq	(%rax), %rax
	movq	-16(%rbp), %rdx
	movq	%rdx, 8(%rax)
	movq	_TIG_iO_v054_1_hash_1_opaque_list_1(%rip), %rax
	movq	-16(%rbp), %rdx
	movq	%rdx, (%rax)
	call	rand@PLT
	movl	%eax, -44(%rbp)
	movl	$24, %edi
	call	malloc@PLT
	movq	%rax, -8(%rbp)
	movl	-44(%rbp), %edx
	movl	%edx, %eax
	addl	%eax, %eax
	addl	%eax, %edx
	movq	-8(%rbp), %rax
	movl	%edx, 16(%rax)
	movq	_TIG_iO_v054_1_hash_1_opaque_list_1(%rip), %rax
	movq	(%rax), %rdx
	movq	-8(%rbp), %rax
	movq	%rdx, (%rax)
	movq	_TIG_iO_v054_1_hash_1_opaque_list_1(%rip), %rdx
	movq	-8(%rbp), %rax
	movq	%rdx, 8(%rax)
	movq	_TIG_iO_v054_1_hash_1_opaque_list_1(%rip), %rax
	movq	(%rax), %rax
	movq	-8(%rbp), %rdx
	movq	%rdx, 8(%rax)
	movq	_TIG_iO_v054_1_hash_1_opaque_list_1(%rip), %rax
	movq	-8(%rbp), %rdx
	movq	%rdx, (%rax)
	movq	_TIG_iO_v054_1_hash_1_opaque_list_1(%rip), %rax
	movq	(%rax), %rax
	movq	%rax, _TIG_iO_v054_1_hash_1_opaque_ptr_1(%rip)
	movq	_TIG_iO_v054_1_hash_1_opaque_ptr_1(%rip), %rax
	movq	%rax, _TIG_iO_v054_1_hash_1_opaque_ptr_2(%rip)
	movq	_TIG_iO_v054_1_hash_1_opaque_ptr_2(%rip), %rax
	movq	(%rax), %rax
	movq	%rax, _TIG_iO_v054_1_hash_1_opaque_ptr_2(%rip)
	nop
	nop
	movq	_TIG_iO_v054_1_wo_print_all_1_opaque_ptr_1(%rip), %rdx
	movq	_TIG_iO_v054_1_wo_print_all_1_opaque_ptr_2(%rip), %rax
	cmpq	%rax, %rdx
	je	.L39
	movl	$0, -60(%rbp)
	jmp	.L39
.L40:
	movq	-72(%rbp), %rax
	movzbl	(%rax), %eax
	movsbl	%al, %ecx
	movl	-60(%rbp), %edx
	movl	%edx, %eax
	sall	$5, %eax
	subl	%edx, %eax
	addl	%ecx, %eax
	movl	%eax, -60(%rbp)
	addq	$1, -72(%rbp)
.L39:
	movq	-72(%rbp), %rax
	movzbl	(%rax), %eax
	testb	%al, %al
	jne	.L40
	movl	-60(%rbp), %eax
	andl	$127, %eax
	leave
	.cfi_def_cfa 7, 8
	ret
	.cfi_endproc
.LFE10:
	.size	hash, .-hash
	.ident	"GCC: (Ubuntu 11.4.0-1ubuntu1~22.04) 11.4.0"
	.section	.note.GNU-stack,"",@progbits
	.section	.note.gnu.property,"a"
	.align 8
	.long	1f - 0f
	.long	4f - 1f
	.long	5
0:
	.string	"GNU"
1:
	.align 8
	.long	0xc0000002
	.long	3f - 2f
2:
	.long	0x3
3:
	.align 8
4:
