	.file	"Zylve_c-projects_Main_opaque.c"
	.text
	.globl	_TIG_iO_WzQM_1___bswap_16_1_opaque_ptr_2
	.bss
	.align 8
	.type	_TIG_iO_WzQM_1___bswap_16_1_opaque_ptr_2, @object
	.size	_TIG_iO_WzQM_1___bswap_16_1_opaque_ptr_2, 8
_TIG_iO_WzQM_1___bswap_16_1_opaque_ptr_2:
	.zero	8
	.globl	_TIG_iO_WzQM_1___bswap_64_1_opaque_ptr_1
	.align 8
	.type	_TIG_iO_WzQM_1___bswap_64_1_opaque_ptr_1, @object
	.size	_TIG_iO_WzQM_1___bswap_64_1_opaque_ptr_1, 8
_TIG_iO_WzQM_1___bswap_64_1_opaque_ptr_1:
	.zero	8
	.globl	_TIG_iO_WzQM_1_main_1_opaque_list_1
	.align 8
	.type	_TIG_iO_WzQM_1_main_1_opaque_list_1, @object
	.size	_TIG_iO_WzQM_1_main_1_opaque_list_1, 8
_TIG_iO_WzQM_1_main_1_opaque_list_1:
	.zero	8
	.globl	_TIG_iO_WzQM_1_MergeSort_1_opaque_list_1
	.align 8
	.type	_TIG_iO_WzQM_1_MergeSort_1_opaque_list_1, @object
	.size	_TIG_iO_WzQM_1_MergeSort_1_opaque_list_1, 8
_TIG_iO_WzQM_1_MergeSort_1_opaque_list_1:
	.zero	8
	.globl	_TIG_iO_WzQM_1_MergeSort_1_opaque_ptr_1
	.align 8
	.type	_TIG_iO_WzQM_1_MergeSort_1_opaque_ptr_1, @object
	.size	_TIG_iO_WzQM_1_MergeSort_1_opaque_ptr_1, 8
_TIG_iO_WzQM_1_MergeSort_1_opaque_ptr_1:
	.zero	8
	.globl	_TIG_iO_WzQM_1_Merge_1_opaque_list_2
	.align 8
	.type	_TIG_iO_WzQM_1_Merge_1_opaque_list_2, @object
	.size	_TIG_iO_WzQM_1_Merge_1_opaque_list_2, 8
_TIG_iO_WzQM_1_Merge_1_opaque_list_2:
	.zero	8
	.globl	_TIG_iO_WzQM_1___uint32_identity_1_opaque_list_1
	.align 8
	.type	_TIG_iO_WzQM_1___uint32_identity_1_opaque_list_1, @object
	.size	_TIG_iO_WzQM_1___uint32_identity_1_opaque_list_1, 8
_TIG_iO_WzQM_1___uint32_identity_1_opaque_list_1:
	.zero	8
	.globl	_TIG_iO_WzQM_1_MergeSort_1_opaque_list_2
	.align 8
	.type	_TIG_iO_WzQM_1_MergeSort_1_opaque_list_2, @object
	.size	_TIG_iO_WzQM_1_MergeSort_1_opaque_list_2, 8
_TIG_iO_WzQM_1_MergeSort_1_opaque_list_2:
	.zero	8
	.globl	_TIG_iO_WzQM_1_main_1_opaque_ptr_1
	.align 8
	.type	_TIG_iO_WzQM_1_main_1_opaque_ptr_1, @object
	.size	_TIG_iO_WzQM_1_main_1_opaque_ptr_1, 8
_TIG_iO_WzQM_1_main_1_opaque_ptr_1:
	.zero	8
	.globl	_TIG_iO_WzQM_1___bswap_16_1_opaque_ptr_1
	.align 8
	.type	_TIG_iO_WzQM_1___bswap_16_1_opaque_ptr_1, @object
	.size	_TIG_iO_WzQM_1___bswap_16_1_opaque_ptr_1, 8
_TIG_iO_WzQM_1___bswap_16_1_opaque_ptr_1:
	.zero	8
	.globl	_TIG_iO_WzQM_1___uint64_identity_1_opaque_list_2
	.align 8
	.type	_TIG_iO_WzQM_1___uint64_identity_1_opaque_list_2, @object
	.size	_TIG_iO_WzQM_1___uint64_identity_1_opaque_list_2, 8
_TIG_iO_WzQM_1___uint64_identity_1_opaque_list_2:
	.zero	8
	.globl	_TIG_iO_WzQM_1_MergeSort_1_opaque_ptr_2
	.align 8
	.type	_TIG_iO_WzQM_1_MergeSort_1_opaque_ptr_2, @object
	.size	_TIG_iO_WzQM_1_MergeSort_1_opaque_ptr_2, 8
_TIG_iO_WzQM_1_MergeSort_1_opaque_ptr_2:
	.zero	8
	.globl	_TIG_iO_WzQM_1___uint16_identity_1_opaque_list_2
	.align 8
	.type	_TIG_iO_WzQM_1___uint16_identity_1_opaque_list_2, @object
	.size	_TIG_iO_WzQM_1___uint16_identity_1_opaque_list_2, 8
_TIG_iO_WzQM_1___uint16_identity_1_opaque_list_2:
	.zero	8
	.globl	_TIG_iO_WzQM_1___uint64_identity_1_opaque_ptr_2
	.align 8
	.type	_TIG_iO_WzQM_1___uint64_identity_1_opaque_ptr_2, @object
	.size	_TIG_iO_WzQM_1___uint64_identity_1_opaque_ptr_2, 8
_TIG_iO_WzQM_1___uint64_identity_1_opaque_ptr_2:
	.zero	8
	.globl	_TIG_iO_WzQM_1_main_1_opaque_ptr_2
	.align 8
	.type	_TIG_iO_WzQM_1_main_1_opaque_ptr_2, @object
	.size	_TIG_iO_WzQM_1_main_1_opaque_ptr_2, 8
_TIG_iO_WzQM_1_main_1_opaque_ptr_2:
	.zero	8
	.globl	_TIG_IZ_WzQM_envp
	.align 8
	.type	_TIG_IZ_WzQM_envp, @object
	.size	_TIG_IZ_WzQM_envp, 8
_TIG_IZ_WzQM_envp:
	.zero	8
	.globl	_TIG_iO_WzQM_1___uint32_identity_1_opaque_ptr_1
	.align 8
	.type	_TIG_iO_WzQM_1___uint32_identity_1_opaque_ptr_1, @object
	.size	_TIG_iO_WzQM_1___uint32_identity_1_opaque_ptr_1, 8
_TIG_iO_WzQM_1___uint32_identity_1_opaque_ptr_1:
	.zero	8
	.globl	_TIG_iO_WzQM_1___uint32_identity_1_opaque_ptr_2
	.align 8
	.type	_TIG_iO_WzQM_1___uint32_identity_1_opaque_ptr_2, @object
	.size	_TIG_iO_WzQM_1___uint32_identity_1_opaque_ptr_2, 8
_TIG_iO_WzQM_1___uint32_identity_1_opaque_ptr_2:
	.zero	8
	.globl	_TIG_iO_WzQM_1___bswap_16_1_opaque_list_1
	.align 8
	.type	_TIG_iO_WzQM_1___bswap_16_1_opaque_list_1, @object
	.size	_TIG_iO_WzQM_1___bswap_16_1_opaque_list_1, 8
_TIG_iO_WzQM_1___bswap_16_1_opaque_list_1:
	.zero	8
	.globl	_TIG_iO_WzQM_1___bswap_64_1_opaque_list_2
	.align 8
	.type	_TIG_iO_WzQM_1___bswap_64_1_opaque_list_2, @object
	.size	_TIG_iO_WzQM_1___bswap_64_1_opaque_list_2, 8
_TIG_iO_WzQM_1___bswap_64_1_opaque_list_2:
	.zero	8
	.globl	_TIG_iO_WzQM_1___uint16_identity_1_opaque_list_1
	.align 8
	.type	_TIG_iO_WzQM_1___uint16_identity_1_opaque_list_1, @object
	.size	_TIG_iO_WzQM_1___uint16_identity_1_opaque_list_1, 8
_TIG_iO_WzQM_1___uint16_identity_1_opaque_list_1:
	.zero	8
	.globl	_TIG_iO_WzQM_1___bswap_32_1_opaque_ptr_1
	.align 8
	.type	_TIG_iO_WzQM_1___bswap_32_1_opaque_ptr_1, @object
	.size	_TIG_iO_WzQM_1___bswap_32_1_opaque_ptr_1, 8
_TIG_iO_WzQM_1___bswap_32_1_opaque_ptr_1:
	.zero	8
	.globl	_TIG_iO_WzQM_1___bswap_64_1_opaque_ptr_2
	.align 8
	.type	_TIG_iO_WzQM_1___bswap_64_1_opaque_ptr_2, @object
	.size	_TIG_iO_WzQM_1___bswap_64_1_opaque_ptr_2, 8
_TIG_iO_WzQM_1___bswap_64_1_opaque_ptr_2:
	.zero	8
	.globl	_TIG_iO_WzQM_1___bswap_64_1_opaque_list_1
	.align 8
	.type	_TIG_iO_WzQM_1___bswap_64_1_opaque_list_1, @object
	.size	_TIG_iO_WzQM_1___bswap_64_1_opaque_list_1, 8
_TIG_iO_WzQM_1___bswap_64_1_opaque_list_1:
	.zero	8
	.globl	_TIG_iO_WzQM_1_Merge_1_opaque_ptr_2
	.align 8
	.type	_TIG_iO_WzQM_1_Merge_1_opaque_ptr_2, @object
	.size	_TIG_iO_WzQM_1_Merge_1_opaque_ptr_2, 8
_TIG_iO_WzQM_1_Merge_1_opaque_ptr_2:
	.zero	8
	.globl	_TIG_iO_WzQM_1___bswap_16_1_opaque_list_2
	.align 8
	.type	_TIG_iO_WzQM_1___bswap_16_1_opaque_list_2, @object
	.size	_TIG_iO_WzQM_1___bswap_16_1_opaque_list_2, 8
_TIG_iO_WzQM_1___bswap_16_1_opaque_list_2:
	.zero	8
	.globl	_TIG_iO_WzQM_1_Merge_1_opaque_list_1
	.align 8
	.type	_TIG_iO_WzQM_1_Merge_1_opaque_list_1, @object
	.size	_TIG_iO_WzQM_1_Merge_1_opaque_list_1, 8
_TIG_iO_WzQM_1_Merge_1_opaque_list_1:
	.zero	8
	.globl	_TIG_iO_WzQM_1___uint64_identity_1_opaque_list_1
	.align 8
	.type	_TIG_iO_WzQM_1___uint64_identity_1_opaque_list_1, @object
	.size	_TIG_iO_WzQM_1___uint64_identity_1_opaque_list_1, 8
_TIG_iO_WzQM_1___uint64_identity_1_opaque_list_1:
	.zero	8
	.globl	_TIG_iO_WzQM_1___uint32_identity_1_opaque_list_2
	.align 8
	.type	_TIG_iO_WzQM_1___uint32_identity_1_opaque_list_2, @object
	.size	_TIG_iO_WzQM_1___uint32_identity_1_opaque_list_2, 8
_TIG_iO_WzQM_1___uint32_identity_1_opaque_list_2:
	.zero	8
	.globl	_TIG_iO_WzQM_1_Merge_1_opaque_ptr_1
	.align 8
	.type	_TIG_iO_WzQM_1_Merge_1_opaque_ptr_1, @object
	.size	_TIG_iO_WzQM_1_Merge_1_opaque_ptr_1, 8
_TIG_iO_WzQM_1_Merge_1_opaque_ptr_1:
	.zero	8
	.globl	_TIG_iO_WzQM_1___uint16_identity_1_opaque_ptr_1
	.align 8
	.type	_TIG_iO_WzQM_1___uint16_identity_1_opaque_ptr_1, @object
	.size	_TIG_iO_WzQM_1___uint16_identity_1_opaque_ptr_1, 8
_TIG_iO_WzQM_1___uint16_identity_1_opaque_ptr_1:
	.zero	8
	.globl	_TIG_IZ_WzQM_argv
	.align 8
	.type	_TIG_IZ_WzQM_argv, @object
	.size	_TIG_IZ_WzQM_argv, 8
_TIG_IZ_WzQM_argv:
	.zero	8
	.globl	_TIG_IZ_WzQM_argc
	.align 4
	.type	_TIG_IZ_WzQM_argc, @object
	.size	_TIG_IZ_WzQM_argc, 4
_TIG_IZ_WzQM_argc:
	.zero	4
	.globl	_TIG_iO_WzQM_1___uint64_identity_1_opaque_ptr_1
	.align 8
	.type	_TIG_iO_WzQM_1___uint64_identity_1_opaque_ptr_1, @object
	.size	_TIG_iO_WzQM_1___uint64_identity_1_opaque_ptr_1, 8
_TIG_iO_WzQM_1___uint64_identity_1_opaque_ptr_1:
	.zero	8
	.globl	_TIG_iO_WzQM_1___bswap_32_1_opaque_ptr_2
	.align 8
	.type	_TIG_iO_WzQM_1___bswap_32_1_opaque_ptr_2, @object
	.size	_TIG_iO_WzQM_1___bswap_32_1_opaque_ptr_2, 8
_TIG_iO_WzQM_1___bswap_32_1_opaque_ptr_2:
	.zero	8
	.globl	_TIG_iO_WzQM_1___uint16_identity_1_opaque_ptr_2
	.align 8
	.type	_TIG_iO_WzQM_1___uint16_identity_1_opaque_ptr_2, @object
	.size	_TIG_iO_WzQM_1___uint16_identity_1_opaque_ptr_2, 8
_TIG_iO_WzQM_1___uint16_identity_1_opaque_ptr_2:
	.zero	8
	.globl	_TIG_iO_WzQM_1___bswap_32_1_opaque_list_1
	.align 8
	.type	_TIG_iO_WzQM_1___bswap_32_1_opaque_list_1, @object
	.size	_TIG_iO_WzQM_1___bswap_32_1_opaque_list_1, 8
_TIG_iO_WzQM_1___bswap_32_1_opaque_list_1:
	.zero	8
	.globl	_TIG_iO_WzQM_1_main_1_opaque_list_2
	.align 8
	.type	_TIG_iO_WzQM_1_main_1_opaque_list_2, @object
	.size	_TIG_iO_WzQM_1_main_1_opaque_list_2, 8
_TIG_iO_WzQM_1_main_1_opaque_list_2:
	.zero	8
	.globl	_TIG_iO_WzQM_1___bswap_32_1_opaque_list_2
	.align 8
	.type	_TIG_iO_WzQM_1___bswap_32_1_opaque_list_2, @object
	.size	_TIG_iO_WzQM_1___bswap_32_1_opaque_list_2, 8
_TIG_iO_WzQM_1___bswap_32_1_opaque_list_2:
	.zero	8
	.section	.rodata
.LC0:
	.string	"%d\n"
	.text
	.globl	main
	.type	main, @function
main:
.LFB1:
	.cfi_startproc
	endbr64
	pushq	%rbp
	.cfi_def_cfa_offset 16
	.cfi_offset 6, -16
	movq	%rsp, %rbp
	.cfi_def_cfa_register 6
	subq	$160, %rsp
	movl	%edi, -132(%rbp)
	movq	%rsi, -144(%rbp)
	movq	%rdx, -152(%rbp)
	movq	%fs:40, %rax
	movq	%rax, -8(%rbp)
	xorl	%eax, %eax
	movq	$0, _TIG_IZ_WzQM_envp(%rip)
	nop
.L2:
	movq	$0, _TIG_IZ_WzQM_argv(%rip)
	nop
.L3:
	movl	$0, _TIG_IZ_WzQM_argc(%rip)
	nop
	nop
.L4:
.L5:
#APP
# 85 "/usr/include/x86_64-linux-gnu/bits/uintn-identity.h" 1
	##_ANNOTATION_INITIALREGION_-TIG-IZ-WzQM--0
# 0 "" 2
#NO_APP
	movl	-132(%rbp), %eax
	movl	%eax, _TIG_IZ_WzQM_argc(%rip)
	movq	-144(%rbp), %rax
	movq	%rax, _TIG_IZ_WzQM_argv(%rip)
	movq	-152(%rbp), %rax
	movq	%rax, _TIG_IZ_WzQM_envp(%rip)
#APP
# 92 "/usr/include/x86_64-linux-gnu/bits/uintn-identity.h" 1
	##_ANNOTATION_ATOMICREGION_-TIG-iO-WzQM-1-main--17
# 0 "" 2
#NO_APP
	movl	$24, %edi
	call	malloc@PLT
	movq	%rax, -112(%rbp)
	movq	-112(%rbp), %rax
	movq	-112(%rbp), %rdx
	movq	%rdx, 8(%rax)
	movq	-112(%rbp), %rax
	movq	-112(%rbp), %rdx
	movq	%rdx, (%rax)
	movq	-112(%rbp), %rax
	movq	%rax, _TIG_iO_WzQM_1_main_1_opaque_list_1(%rip)
	call	rand@PLT
	movl	%eax, -120(%rbp)
	movl	$24, %edi
	call	malloc@PLT
	movq	%rax, -104(%rbp)
	movq	-104(%rbp), %rax
	movl	$0, 16(%rax)
	movq	_TIG_iO_WzQM_1_main_1_opaque_list_1(%rip), %rax
	movq	8(%rax), %rdx
	movq	-104(%rbp), %rax
	movq	%rdx, 8(%rax)
	movq	_TIG_iO_WzQM_1_main_1_opaque_list_1(%rip), %rdx
	movq	-104(%rbp), %rax
	movq	%rdx, (%rax)
	movq	_TIG_iO_WzQM_1_main_1_opaque_list_1(%rip), %rax
	movq	8(%rax), %rax
	movq	-104(%rbp), %rdx
	movq	%rdx, (%rax)
	movq	_TIG_iO_WzQM_1_main_1_opaque_list_1(%rip), %rax
	movq	-104(%rbp), %rdx
	movq	%rdx, 8(%rax)
	call	rand@PLT
	movl	%eax, -116(%rbp)
	movl	$24, %edi
	call	malloc@PLT
	movq	%rax, -96(%rbp)
	movq	-96(%rbp), %rax
	movl	-116(%rbp), %edx
	movl	%edx, 16(%rax)
	movq	_TIG_iO_WzQM_1_main_1_opaque_list_1(%rip), %rax
	movq	8(%rax), %rdx
	movq	-96(%rbp), %rax
	movq	%rdx, 8(%rax)
	movq	_TIG_iO_WzQM_1_main_1_opaque_list_1(%rip), %rdx
	movq	-96(%rbp), %rax
	movq	%rdx, (%rax)
	movq	_TIG_iO_WzQM_1_main_1_opaque_list_1(%rip), %rax
	movq	8(%rax), %rax
	movq	-96(%rbp), %rdx
	movq	%rdx, (%rax)
	movq	_TIG_iO_WzQM_1_main_1_opaque_list_1(%rip), %rax
	movq	-96(%rbp), %rdx
	movq	%rdx, 8(%rax)
	movq	_TIG_iO_WzQM_1_main_1_opaque_list_1(%rip), %rax
	movq	8(%rax), %rax
	movq	%rax, _TIG_iO_WzQM_1_main_1_opaque_ptr_1(%rip)
	movq	_TIG_iO_WzQM_1_main_1_opaque_ptr_1(%rip), %rax
	movq	%rax, _TIG_iO_WzQM_1_main_1_opaque_ptr_2(%rip)
	movq	_TIG_iO_WzQM_1_main_1_opaque_ptr_2(%rip), %rax
	movq	8(%rax), %rax
	movq	%rax, _TIG_iO_WzQM_1_main_1_opaque_ptr_2(%rip)
	nop
	nop
	movq	_TIG_iO_WzQM_1_main_1_opaque_ptr_1(%rip), %rdx
	movq	_TIG_iO_WzQM_1_main_1_opaque_ptr_2(%rip), %rax
	cmpq	%rax, %rdx
	jne	.L6
	movq	-88(%rbp), %rdx
	movq	-88(%rbp), %rax
	movq	%rdx, %r8
	movq	%rax, %rcx
	movl	$0, %edx
	movl	$0, %esi
	movl	$0, %edi
	call	Merge
.L6:
	movl	$4, -80(%rbp)
	movl	$6, -76(%rbp)
	movl	$1, -72(%rbp)
	movl	$542, -68(%rbp)
	movl	$1, -64(%rbp)
	movl	$7, -60(%rbp)
	movl	$3, -56(%rbp)
	movl	$1, -52(%rbp)
	movl	$7, -48(%rbp)
	movl	$9, -44(%rbp)
	movl	$6, -40(%rbp)
	movl	$2, -36(%rbp)
	movl	$1, -32(%rbp)
	movl	$6, -28(%rbp)
	movl	$32, -24(%rbp)
	movl	$12, -20(%rbp)
	movl	$7, -16(%rbp)
	movl	$34, -12(%rbp)
	leaq	-80(%rbp), %rax
	movl	$18, %esi
	movq	%rax, %rdi
	call	MergeSort
	movl	$0, -124(%rbp)
	jmp	.L7
.L8:
	movl	-124(%rbp), %eax
	cltq
	movl	-80(%rbp,%rax,4), %eax
	movl	%eax, %esi
	leaq	.LC0(%rip), %rax
	movq	%rax, %rdi
	movl	$0, %eax
	call	printf@PLT
	addl	$1, -124(%rbp)
.L7:
	movl	-124(%rbp), %eax
	cmpl	$17, %eax
	jbe	.L8
	movl	$0, %eax
	movq	-8(%rbp), %rdx
	subq	%fs:40, %rdx
	je	.L10
	call	__stack_chk_fail@PLT
.L10:
	leave
	.cfi_def_cfa 7, 8
	ret
	.cfi_endproc
.LFE1:
	.size	main, .-main
	.globl	MergeSort
	.type	MergeSort, @function
MergeSort:
.LFB2:
	.cfi_startproc
	endbr64
	pushq	%rbp
	.cfi_def_cfa_offset 16
	.cfi_offset 6, -16
	movq	%rsp, %rbp
	.cfi_def_cfa_register 6
	pushq	%r15
	pushq	%r14
	pushq	%r13
	pushq	%r12
	pushq	%rbx
	subq	$168, %rsp
	.cfi_offset 15, -24
	.cfi_offset 14, -32
	.cfi_offset 13, -40
	.cfi_offset 12, -48
	.cfi_offset 3, -56
	movq	%rdi, -152(%rbp)
	movq	%rsi, -160(%rbp)
	movq	%fs:40, %rax
	movq	%rax, -56(%rbp)
	xorl	%eax, %eax
	movq	%rsp, %rax
	movq	%rax, %r13
#APP
# 35 "Zylve_c-projects_Main.c" 1
	##_ANNOTATION_INITIALREGION_-TIG-iO-WzQM-1-MergeSort--4
# 0 "" 2
# 39 "Zylve_c-projects_Main.c" 1
	##_ANNOTATION_ATOMICREGION_-TIG-iO-WzQM-1-MergeSort--3
# 0 "" 2
#NO_APP
	movl	$24, %edi
	call	malloc@PLT
	movq	%rax, -112(%rbp)
	movq	-112(%rbp), %rax
	movq	-112(%rbp), %rdx
	movq	%rdx, 16(%rax)
	movq	-112(%rbp), %rax
	movq	-112(%rbp), %rdx
	movq	%rdx, 8(%rax)
	movq	-112(%rbp), %rax
	movq	%rax, _TIG_iO_WzQM_1_MergeSort_1_opaque_list_1(%rip)
	call	rand@PLT
	movl	%eax, -124(%rbp)
	movl	$24, %edi
	call	malloc@PLT
	movq	%rax, -104(%rbp)
	movq	-104(%rbp), %rax
	movl	$0, (%rax)
	movq	_TIG_iO_WzQM_1_MergeSort_1_opaque_list_1(%rip), %rax
	movq	16(%rax), %rdx
	movq	-104(%rbp), %rax
	movq	%rdx, 16(%rax)
	movq	_TIG_iO_WzQM_1_MergeSort_1_opaque_list_1(%rip), %rdx
	movq	-104(%rbp), %rax
	movq	%rdx, 8(%rax)
	movq	_TIG_iO_WzQM_1_MergeSort_1_opaque_list_1(%rip), %rax
	movq	16(%rax), %rax
	movq	-104(%rbp), %rdx
	movq	%rdx, 8(%rax)
	movq	_TIG_iO_WzQM_1_MergeSort_1_opaque_list_1(%rip), %rax
	movq	-104(%rbp), %rdx
	movq	%rdx, 16(%rax)
	call	rand@PLT
	movl	%eax, -120(%rbp)
	movl	$24, %edi
	call	malloc@PLT
	movq	%rax, -96(%rbp)
	movq	-96(%rbp), %rax
	movl	-120(%rbp), %edx
	movl	%edx, (%rax)
	movq	_TIG_iO_WzQM_1_MergeSort_1_opaque_list_1(%rip), %rax
	movq	16(%rax), %rdx
	movq	-96(%rbp), %rax
	movq	%rdx, 16(%rax)
	movq	_TIG_iO_WzQM_1_MergeSort_1_opaque_list_1(%rip), %rdx
	movq	-96(%rbp), %rax
	movq	%rdx, 8(%rax)
	movq	_TIG_iO_WzQM_1_MergeSort_1_opaque_list_1(%rip), %rax
	movq	16(%rax), %rax
	movq	-96(%rbp), %rdx
	movq	%rdx, 8(%rax)
	movq	_TIG_iO_WzQM_1_MergeSort_1_opaque_list_1(%rip), %rax
	movq	-96(%rbp), %rdx
	movq	%rdx, 16(%rax)
	movq	_TIG_iO_WzQM_1_MergeSort_1_opaque_list_1(%rip), %rax
	movq	16(%rax), %rax
	movq	%rax, _TIG_iO_WzQM_1_MergeSort_1_opaque_ptr_1(%rip)
	movq	_TIG_iO_WzQM_1_MergeSort_1_opaque_ptr_1(%rip), %rax
	movq	%rax, _TIG_iO_WzQM_1_MergeSort_1_opaque_ptr_2(%rip)
	nop
	nop
	cmpq	$1, -160(%rbp)
	jbe	.L27
	movq	-160(%rbp), %rax
	shrq	%rax
	movl	%eax, -116(%rbp)
	movl	-116(%rbp), %r12d
	movslq	%r12d, %rax
	subq	$1, %rax
	movq	%rax, -88(%rbp)
	movslq	%r12d, %rax
	movq	%rax, -176(%rbp)
	movq	$0, -168(%rbp)
	movslq	%r12d, %rax
	movq	%rax, -192(%rbp)
	movq	$0, -184(%rbp)
	movslq	%r12d, %rax
	leaq	0(,%rax,4), %rdx
	movl	$16, %eax
	subq	$1, %rax
	addq	%rdx, %rax
	movl	$16, %esi
	movl	$0, %edx
	divq	%rsi
	imulq	$16, %rax, %rax
	movq	%rax, %rcx
	andq	$-4096, %rcx
	movq	%rsp, %rdx
	subq	%rcx, %rdx
.L14:
	cmpq	%rdx, %rsp
	je	.L15
	subq	$4096, %rsp
	orq	$0, 4088(%rsp)
	jmp	.L14
.L15:
	movq	%rax, %rdx
	andl	$4095, %edx
	subq	%rdx, %rsp
	movq	%rax, %rdx
	andl	$4095, %edx
	testq	%rdx, %rdx
	je	.L16
	andl	$4095, %eax
	subq	$8, %rax
	addq	%rsp, %rax
	orq	$0, (%rax)
.L16:
	movq	%rsp, %rax
	addq	$3, %rax
	shrq	$2, %rax
	salq	$2, %rax
	movq	%rax, -80(%rbp)
	movl	-116(%rbp), %eax
	movslq	%eax, %rdx
	movq	-160(%rbp), %rax
	subq	%rdx, %rax
	movq	%rax, %rbx
	movq	%rbx, %rax
	subq	$1, %rax
	movq	%rax, -72(%rbp)
	movq	%rbx, -208(%rbp)
	movq	$0, -200(%rbp)
	movq	%rbx, %r14
	movl	$0, %r15d
	leaq	0(,%rbx,4), %rax
	movl	$16, %edx
	subq	$1, %rdx
	addq	%rdx, %rax
	movl	$16, %esi
	movl	$0, %edx
	divq	%rsi
	imulq	$16, %rax, %rax
	movq	%rax, %rcx
	andq	$-4096, %rcx
	movq	%rsp, %rdx
	subq	%rcx, %rdx
.L17:
	cmpq	%rdx, %rsp
	je	.L18
	subq	$4096, %rsp
	orq	$0, 4088(%rsp)
	jmp	.L17
.L18:
	movq	%rax, %rdx
	andl	$4095, %edx
	subq	%rdx, %rsp
	movq	%rax, %rdx
	andl	$4095, %edx
	testq	%rdx, %rdx
	je	.L19
	andl	$4095, %eax
	subq	$8, %rax
	addq	%rsp, %rax
	orq	$0, (%rax)
.L19:
	movq	%rsp, %rax
	addq	$3, %rax
	shrq	$2, %rax
	salq	$2, %rax
	movq	%rax, -64(%rbp)
	movl	$0, -132(%rbp)
	movl	$0, -128(%rbp)
	jmp	.L20
.L23:
	movl	-128(%rbp), %eax
	cmpl	-116(%rbp), %eax
	jge	.L21
	movl	-128(%rbp), %eax
	cltq
	leaq	0(,%rax,4), %rdx
	movq	-152(%rbp), %rax
	addq	%rdx, %rax
	movl	(%rax), %ecx
	movq	-80(%rbp), %rax
	movl	-128(%rbp), %edx
	movslq	%edx, %rdx
	movl	%ecx, (%rax,%rdx,4)
	jmp	.L22
.L21:
	movl	-128(%rbp), %eax
	cltq
	leaq	0(,%rax,4), %rdx
	movq	-152(%rbp), %rax
	addq	%rdx, %rax
	movl	(%rax), %ecx
	movq	-64(%rbp), %rax
	movl	-132(%rbp), %edx
	movslq	%edx, %rdx
	movl	%ecx, (%rax,%rdx,4)
	addl	$1, -132(%rbp)
.L22:
	addl	$1, -128(%rbp)
.L20:
	movl	-128(%rbp), %eax
	cltq
	cmpq	%rax, -160(%rbp)
	ja	.L23
	movslq	%r12d, %rax
	salq	$2, %rax
	shrq	$2, %rax
	movq	%rax, %rdx
	movq	-80(%rbp), %rax
	movq	%rdx, %rsi
	movq	%rax, %rdi
	call	MergeSort
	leaq	0(,%rbx,4), %rax
	shrq	$2, %rax
	movq	%rax, %rdx
	movq	-64(%rbp), %rax
	movq	%rdx, %rsi
	movq	%rax, %rdi
	call	MergeSort
	leaq	0(,%rbx,4), %rax
	shrq	$2, %rax
	movq	%rax, %rdi
	movslq	%r12d, %rax
	salq	$2, %rax
	shrq	$2, %rax
	movq	%rax, %rcx
	movq	-152(%rbp), %rdx
	movq	-64(%rbp), %rsi
	movq	-80(%rbp), %rax
	movq	%rdi, %r8
	movq	%rax, %rdi
	call	Merge
	movq	_TIG_iO_WzQM_1_main_1_opaque_ptr_1(%rip), %rdx
	movq	_TIG_iO_WzQM_1_main_1_opaque_ptr_2(%rip), %rax
	cmpq	%rax, %rdx
	jne	.L28
	movl	-120(%rbp), %eax
	movl	$0, %edx
	movl	$0, %esi
	movl	%eax, %edi
	call	main
	movl	%eax, -120(%rbp)
	jmp	.L28
.L27:
	nop
	jmp	.L13
.L28:
	nop
.L13:
	movq	%r13, %rsp
	movq	-56(%rbp), %rax
	subq	%fs:40, %rax
	je	.L26
	call	__stack_chk_fail@PLT
.L26:
	leaq	-40(%rbp), %rsp
	popq	%rbx
	popq	%r12
	popq	%r13
	popq	%r14
	popq	%r15
	popq	%rbp
	.cfi_def_cfa 7, 8
	ret
	.cfi_endproc
.LFE2:
	.size	MergeSort, .-MergeSort
	.globl	Merge
	.type	Merge, @function
Merge:
.LFB6:
	.cfi_startproc
	endbr64
	pushq	%rbp
	.cfi_def_cfa_offset 16
	.cfi_offset 6, -16
	movq	%rsp, %rbp
	.cfi_def_cfa_register 6
	subq	$96, %rsp
	movq	%rdi, -56(%rbp)
	movq	%rsi, -64(%rbp)
	movq	%rdx, -72(%rbp)
	movq	%rcx, -80(%rbp)
	movq	%r8, -88(%rbp)
#APP
# 71 "/usr/include/x86_64-linux-gnu/bits/byteswap.h" 1
	##_ANNOTATION_INITIALREGION_-TIG-iO-WzQM-1-Merge--2
# 0 "" 2
# 75 "/usr/include/x86_64-linux-gnu/bits/byteswap.h" 1
	##_ANNOTATION_ATOMICREGION_-TIG-iO-WzQM-1-Merge--1
# 0 "" 2
#NO_APP
	movl	$24, %edi
	call	malloc@PLT
	movq	%rax, -24(%rbp)
	movq	-24(%rbp), %rax
	movq	-24(%rbp), %rdx
	movq	%rdx, 8(%rax)
	movq	-24(%rbp), %rax
	movq	-24(%rbp), %rdx
	movq	%rdx, (%rax)
	movq	-24(%rbp), %rax
	movq	%rax, _TIG_iO_WzQM_1_Merge_1_opaque_list_1(%rip)
	call	rand@PLT
	movl	%eax, -32(%rbp)
	movl	$24, %edi
	call	malloc@PLT
	movq	%rax, -16(%rbp)
	movq	-16(%rbp), %rax
	movl	$0, 16(%rax)
	movq	_TIG_iO_WzQM_1_Merge_1_opaque_list_1(%rip), %rax
	movq	8(%rax), %rdx
	movq	-16(%rbp), %rax
	movq	%rdx, 8(%rax)
	movq	_TIG_iO_WzQM_1_Merge_1_opaque_list_1(%rip), %rdx
	movq	-16(%rbp), %rax
	movq	%rdx, (%rax)
	movq	_TIG_iO_WzQM_1_Merge_1_opaque_list_1(%rip), %rax
	movq	8(%rax), %rax
	movq	-16(%rbp), %rdx
	movq	%rdx, (%rax)
	movq	_TIG_iO_WzQM_1_Merge_1_opaque_list_1(%rip), %rax
	movq	-16(%rbp), %rdx
	movq	%rdx, 8(%rax)
	call	rand@PLT
	movl	%eax, -28(%rbp)
	movl	$24, %edi
	call	malloc@PLT
	movq	%rax, -8(%rbp)
	movq	-8(%rbp), %rax
	movl	-28(%rbp), %edx
	movl	%edx, 16(%rax)
	movq	_TIG_iO_WzQM_1_Merge_1_opaque_list_1(%rip), %rax
	movq	8(%rax), %rdx
	movq	-8(%rbp), %rax
	movq	%rdx, 8(%rax)
	movq	_TIG_iO_WzQM_1_Merge_1_opaque_list_1(%rip), %rdx
	movq	-8(%rbp), %rax
	movq	%rdx, (%rax)
	movq	_TIG_iO_WzQM_1_Merge_1_opaque_list_1(%rip), %rax
	movq	8(%rax), %rax
	movq	-8(%rbp), %rdx
	movq	%rdx, (%rax)
	movq	_TIG_iO_WzQM_1_Merge_1_opaque_list_1(%rip), %rax
	movq	-8(%rbp), %rdx
	movq	%rdx, 8(%rax)
	movq	_TIG_iO_WzQM_1_Merge_1_opaque_list_1(%rip), %rax
	movq	8(%rax), %rax
	movq	%rax, _TIG_iO_WzQM_1_Merge_1_opaque_ptr_1(%rip)
	movq	_TIG_iO_WzQM_1_Merge_1_opaque_ptr_1(%rip), %rax
	movq	%rax, _TIG_iO_WzQM_1_Merge_1_opaque_ptr_2(%rip)
	nop
	nop
	movl	$0, -44(%rbp)
	movl	$0, -40(%rbp)
	movl	$0, -36(%rbp)
.L35:
	movl	-40(%rbp), %eax
	cltq
	cmpq	%rax, -80(%rbp)
	jbe	.L42
	movl	-36(%rbp), %eax
	cltq
	cmpq	%rax, -88(%rbp)
	jbe	.L43
	movl	-40(%rbp), %eax
	cltq
	leaq	0(,%rax,4), %rdx
	movq	-56(%rbp), %rax
	addq	%rdx, %rax
	movl	(%rax), %edx
	movl	-36(%rbp), %eax
	cltq
	leaq	0(,%rax,4), %rcx
	movq	-64(%rbp), %rax
	addq	%rcx, %rax
	movl	(%rax), %eax
	cmpl	%eax, %edx
	jle	.L33
	movl	-40(%rbp), %eax
	cltq
	leaq	0(,%rax,4), %rdx
	movq	-56(%rbp), %rax
	addq	%rdx, %rax
	movl	-44(%rbp), %edx
	movslq	%edx, %rdx
	leaq	0(,%rdx,4), %rcx
	movq	-72(%rbp), %rdx
	addq	%rcx, %rdx
	movl	(%rax), %eax
	movl	%eax, (%rdx)
	addl	$1, -40(%rbp)
	jmp	.L34
.L33:
	movl	-36(%rbp), %eax
	cltq
	leaq	0(,%rax,4), %rdx
	movq	-64(%rbp), %rax
	addq	%rdx, %rax
	movl	-44(%rbp), %edx
	movslq	%edx, %rdx
	leaq	0(,%rdx,4), %rcx
	movq	-72(%rbp), %rdx
	addq	%rcx, %rdx
	movl	(%rax), %eax
	movl	%eax, (%rdx)
	addl	$1, -36(%rbp)
.L34:
	addl	$1, -44(%rbp)
	jmp	.L35
.L42:
	nop
	jmp	.L36
.L43:
	nop
	jmp	.L36
.L37:
	movl	-40(%rbp), %eax
	cltq
	leaq	0(,%rax,4), %rdx
	movq	-56(%rbp), %rax
	addq	%rdx, %rax
	movl	-44(%rbp), %edx
	movslq	%edx, %rdx
	leaq	0(,%rdx,4), %rcx
	movq	-72(%rbp), %rdx
	addq	%rcx, %rdx
	movl	(%rax), %eax
	movl	%eax, (%rdx)
	addl	$1, -40(%rbp)
	addl	$1, -44(%rbp)
.L36:
	movl	-40(%rbp), %eax
	cltq
	cmpq	%rax, -80(%rbp)
	ja	.L37
	jmp	.L38
.L40:
	movq	_TIG_iO_WzQM_1_main_1_opaque_ptr_1(%rip), %rdx
	movq	_TIG_iO_WzQM_1_main_1_opaque_ptr_2(%rip), %rax
	cmpq	%rax, %rdx
	jne	.L39
	movl	-28(%rbp), %eax
	movl	$0, %edx
	movl	$0, %esi
	movl	%eax, %edi
	call	main
	movl	%eax, -32(%rbp)
.L39:
	movl	-36(%rbp), %eax
	cltq
	leaq	0(,%rax,4), %rdx
	movq	-64(%rbp), %rax
	addq	%rdx, %rax
	movl	-44(%rbp), %edx
	movslq	%edx, %rdx
	leaq	0(,%rdx,4), %rcx
	movq	-72(%rbp), %rdx
	addq	%rcx, %rdx
	movl	(%rax), %eax
	movl	%eax, (%rdx)
	addl	$1, -36(%rbp)
	addl	$1, -44(%rbp)
.L38:
	movl	-36(%rbp), %eax
	cltq
	cmpq	%rax, -88(%rbp)
	ja	.L40
	nop
	leave
	.cfi_def_cfa 7, 8
	ret
	.cfi_endproc
.LFE6:
	.size	Merge, .-Merge
	.ident	"GCC: (Ubuntu 11.4.0-1ubuntu1~22.04) 11.4.0"
	.section	.note.GNU-stack,"",@progbits
	.section	.note.gnu.property,"a"
	.align 8
	.long	1f - 0f
	.long	4f - 1f
	.long	5
0:
	.string	"GNU"
1:
	.align 8
	.long	0xc0000002
	.long	3f - 2f
2:
	.long	0x3
3:
	.align 8
4:
